
testing.elf:     file format elf32-littlenios2
testing.elf
architecture: nios2, flags 0x00000112:
EXEC_P, HAS_SYMS, D_PAGED
start address 0x01800000

Program Header:
    LOAD off    0x00001000 vaddr 0x01800000 paddr 0x01800000 align 2**12
         filesz 0x0000b4bc memsz 0x0000b7a0 flags rwx
    LOAD off    0x0000d000 vaddr 0x02400000 paddr 0x02400000 align 2**12
         filesz 0x00000000 memsz 0x00000000 flags r-x
    LOAD off    0x0000d020 vaddr 0x02808020 paddr 0x02808020 align 2**12
         filesz 0x0000020c memsz 0x0000020c flags r-x

Sections:
Idx Name          Size      VMA       LMA       File off  Algn
  0 .entry        00000000  02400000  02400000  0000d000  2**5
                  CONTENTS, ALLOC, LOAD, READONLY, CODE
  1 .exceptions   0000020c  02808020  02808020  0000d020  2**2
                  CONTENTS, ALLOC, LOAD, READONLY, CODE
  2 .text         000094b4  01800000  01800000  00001000  2**2
                  CONTENTS, ALLOC, LOAD, READONLY, CODE
  3 .rodata       000002f4  018094b4  018094b4  0000a4b4  2**2
                  CONTENTS, ALLOC, LOAD, READONLY, DATA
  4 .rwdata       00001d14  018097a8  018097a8  0000a7a8  2**2
                  CONTENTS, ALLOC, LOAD, DATA, SMALL_DATA
  5 .bss          000002e4  0180b4bc  0180b4bc  0000c4bc  2**2
                  ALLOC, SMALL_DATA
  6 .comment      00000026  00000000  00000000  0000d22c  2**0
                  CONTENTS, READONLY
  7 .debug_aranges 00000a58  00000000  00000000  0000d258  2**3
                  CONTENTS, READONLY, DEBUGGING
  8 .debug_pubnames 00001371  00000000  00000000  0000dcb0  2**0
                  CONTENTS, READONLY, DEBUGGING
  9 .debug_info   000201a6  00000000  00000000  0000f021  2**0
                  CONTENTS, READONLY, DEBUGGING
 10 .debug_abbrev 00005eeb  00000000  00000000  0002f1c7  2**0
                  CONTENTS, READONLY, DEBUGGING
 11 .debug_line   0000fb9a  00000000  00000000  000350b2  2**0
                  CONTENTS, READONLY, DEBUGGING
 12 .debug_frame  00001704  00000000  00000000  00044c4c  2**2
                  CONTENTS, READONLY, DEBUGGING
 13 .debug_str    00001989  00000000  00000000  00046350  2**0
                  CONTENTS, READONLY, DEBUGGING
 14 .debug_loc    0000479d  00000000  00000000  00047cd9  2**0
                  CONTENTS, READONLY, DEBUGGING
 15 .debug_alt_sim_info 00000050  00000000  00000000  0004c478  2**2
                  CONTENTS, READONLY, DEBUGGING
 16 .debug_ranges 000002d8  00000000  00000000  0004c4c8  2**3
                  CONTENTS, READONLY, DEBUGGING
 17 .thread_model 00000003  00000000  00000000  0004f733  2**0
                  CONTENTS, READONLY
 18 .cpu          00000003  00000000  00000000  0004f736  2**0
                  CONTENTS, READONLY
 19 .simulation_enabled 00000001  00000000  00000000  0004f739  2**0
                  CONTENTS, READONLY
 20 .sysid_hash   00000004  00000000  00000000  0004f73a  2**0
                  CONTENTS, READONLY
 21 .sysid_base   00000004  00000000  00000000  0004f73e  2**0
                  CONTENTS, READONLY
 22 .sysid_time   00000004  00000000  00000000  0004f742  2**0
                  CONTENTS, READONLY
 23 .stderr_dev   00000009  00000000  00000000  0004f746  2**0
                  CONTENTS, READONLY
 24 .stdin_dev    00000009  00000000  00000000  0004f74f  2**0
                  CONTENTS, READONLY
 25 .stdout_dev   00000009  00000000  00000000  0004f758  2**0
                  CONTENTS, READONLY
 26 .sopc_system_name 00000008  00000000  00000000  0004f761  2**0
                  CONTENTS, READONLY
 27 .quartus_project_dir 00000052  00000000  00000000  0004f769  2**0
                  CONTENTS, READONLY
 28 .jdi          00004101  00000000  00000000  0004f7bb  2**0
                  CONTENTS, READONLY
 29 .sopcinfo     000b904b  00000000  00000000  000538bc  2**0
                  CONTENTS, READONLY
SYMBOL TABLE:
02400000 l    d  .entry	00000000 .entry
02808020 l    d  .exceptions	00000000 .exceptions
01800000 l    d  .text	00000000 .text
018094b4 l    d  .rodata	00000000 .rodata
018097a8 l    d  .rwdata	00000000 .rwdata
0180b4bc l    d  .bss	00000000 .bss
00000000 l    d  .comment	00000000 .comment
00000000 l    d  .debug_aranges	00000000 .debug_aranges
00000000 l    d  .debug_pubnames	00000000 .debug_pubnames
00000000 l    d  .debug_info	00000000 .debug_info
00000000 l    d  .debug_abbrev	00000000 .debug_abbrev
00000000 l    d  .debug_line	00000000 .debug_line
00000000 l    d  .debug_frame	00000000 .debug_frame
00000000 l    d  .debug_str	00000000 .debug_str
00000000 l    d  .debug_loc	00000000 .debug_loc
00000000 l    d  .debug_alt_sim_info	00000000 .debug_alt_sim_info
00000000 l    d  .debug_ranges	00000000 .debug_ranges
01800044 l       .text	00000000 alt_after_alt_main
00000000 l    df *ABS*	00000000 alt_irq_handler.c
00000000 l    df *ABS*	00000000 alt_instruction_exception_entry.c
00000000 l    df *ABS*	00000000 hello_world.c
00000000 l    df *ABS*	00000000 puts.c
00000000 l    df *ABS*	00000000 strlen.c
00000000 l    df *ABS*	00000000 fvwrite.c
00000000 l    df *ABS*	00000000 impure.c
018097a8 l     O .rwdata	00000400 impure_data
00000000 l    df *ABS*	00000000 mallocr.c
00000000 l    df *ABS*	00000000 memchr.c
00000000 l    df *ABS*	00000000 memcpy.c
00000000 l    df *ABS*	00000000 memmove.c
00000000 l    df *ABS*	00000000 mallocr.c
00000000 l    df *ABS*	00000000 sbrkr.c
00000000 l    df *ABS*	00000000 wsetup.c
00000000 l    df *ABS*	00000000 fflush.c
00000000 l    df *ABS*	00000000 findfp.c
018019b4 l     F .text	00000058 std
01801ac0 l     F .text	00000008 __fp_lock
01801ac8 l     F .text	00000008 __fp_unlock
00000000 l    df *ABS*	00000000 mallocr.c
00000000 l    df *ABS*	00000000 fwalk.c
00000000 l    df *ABS*	00000000 int_errno.c
00000000 l    df *ABS*	00000000 makebuf.c
00000000 l    df *ABS*	00000000 memset.c
00000000 l    df *ABS*	00000000 stdio.c
00000000 l    df *ABS*	00000000 writer.c
00000000 l    df *ABS*	00000000 closer.c
00000000 l    df *ABS*	00000000 fclose.c
00000000 l    df *ABS*	00000000 fstatr.c
00000000 l    df *ABS*	00000000 isattyr.c
00000000 l    df *ABS*	00000000 lseekr.c
00000000 l    df *ABS*	00000000 readr.c
00000000 l    df *ABS*	00000000 alt_close.c
01802a88 l     F .text	00000060 alt_get_errno
00000000 l    df *ABS*	00000000 alt_dev.c
01802ae8 l     F .text	0000002c alt_dev_null_write
00000000 l    df *ABS*	00000000 alt_errno.c
00000000 l    df *ABS*	00000000 alt_fstat.c
01802be8 l     F .text	00000060 alt_get_errno
00000000 l    df *ABS*	00000000 alt_isatty.c
01802d08 l     F .text	00000060 alt_get_errno
00000000 l    df *ABS*	00000000 alt_lseek.c
01802e58 l     F .text	00000060 alt_get_errno
00000000 l    df *ABS*	00000000 alt_main.c
00000000 l    df *ABS*	00000000 alt_malloc_lock.c
00000000 l    df *ABS*	00000000 alt_read.c
01803084 l     F .text	00000060 alt_get_errno
00000000 l    df *ABS*	00000000 alt_release_fd.c
00000000 l    df *ABS*	00000000 alt_sbrk.c
0180b49c l     O .rwdata	00000004 heap_end
00000000 l    df *ABS*	00000000 alt_write.c
01803320 l     F .text	00000060 alt_get_errno
00000000 l    df *ABS*	00000000 alt_sys_init.c
0180a158 l     O .rwdata	000000d8 cfi_flash
0180a230 l     O .rwdata	00001060 jtag_uart
0180b290 l     O .rwdata	00000120 lcd
0180b3b0 l     O .rwdata	000000c4 uart
01803450 l     F .text	00000038 alt_dev_reg
00000000 l    df *ABS*	00000000 altera_avalon_cfi_flash.c
01803524 l     F .text	00000038 alt_flash_device_register
00000000 l    df *ABS*	00000000 altera_avalon_cfi_flash_table.c
01804324 l     F .text	0000007c alt_read_16bit_query_entry
00000000 l    df *ABS*	00000000 altera_avalon_jtag_uart_fd.c
00000000 l    df *ABS*	00000000 altera_avalon_jtag_uart_init.c
018053b0 l     F .text	00000228 altera_avalon_jtag_uart_irq
018055d8 l     F .text	000000b0 altera_avalon_jtag_uart_timeout
00000000 l    df *ABS*	00000000 altera_avalon_jtag_uart_ioctl.c
00000000 l    df *ABS*	00000000 altera_avalon_jtag_uart_read.c
00000000 l    df *ABS*	00000000 altera_avalon_jtag_uart_write.c
00000000 l    df *ABS*	00000000 altera_avalon_lcd_16207.c
0180b4a0 l     O .rwdata	00000004 colstart
01805c54 l     F .text	000000b8 lcd_write_command
01805d0c l     F .text	000000d4 lcd_write_data
01805de0 l     F .text	000000c4 lcd_clear_screen
01805ea4 l     F .text	000001ec lcd_repaint_screen
01806090 l     F .text	000000c8 lcd_scroll_up
01806158 l     F .text	000002d0 lcd_handle_escape
0180692c l     F .text	000000cc alt_lcd_16207_timeout
00000000 l    df *ABS*	00000000 altera_avalon_lcd_16207_fd.c
00000000 l    df *ABS*	00000000 altera_avalon_timer_sc.c
01806b8c l     F .text	00000070 alt_avalon_timer_sc_irq
00000000 l    df *ABS*	00000000 altera_avalon_uart_fd.c
00000000 l    df *ABS*	00000000 altera_avalon_uart_init.c
01806e4c l     F .text	0000009c altera_avalon_uart_irq
01806ee8 l     F .text	000000e0 altera_avalon_uart_rxirq
01806fc8 l     F .text	0000015c altera_avalon_uart_txirq
00000000 l    df *ABS*	00000000 altera_avalon_uart_read.c
018073b4 l     F .text	00000060 alt_get_errno
00000000 l    df *ABS*	00000000 altera_avalon_uart_write.c
018075dc l     F .text	00000060 alt_get_errno
00000000 l    df *ABS*	00000000 alt_alarm_start.c
00000000 l    df *ABS*	00000000 alt_dcache_flush.c
00000000 l    df *ABS*	00000000 alt_dev_llist_insert.c
018078bc l     F .text	00000060 alt_get_errno
00000000 l    df *ABS*	00000000 alt_do_ctors.c
00000000 l    df *ABS*	00000000 alt_do_dtors.c
00000000 l    df *ABS*	00000000 alt_flash_dev.c
00000000 l    df *ABS*	00000000 alt_iic.c
00000000 l    df *ABS*	00000000 alt_iic_isr_register.c
00000000 l    df *ABS*	00000000 alt_io_redirect.c
01807d80 l     F .text	000000c4 alt_open_fd
00000000 l    df *ABS*	00000000 alt_irq_vars.c
00000000 l    df *ABS*	00000000 alt_open.c
01807ebc l     F .text	000000dc alt_file_locked
01808120 l     F .text	00000060 alt_get_errno
00000000 l    df *ABS*	00000000 alt_tick.c
00000000 l    df *ABS*	00000000 alt_usleep.c
00000000 l    df *ABS*	00000000 altera_nios2_irq.c
00000000 l    df *ABS*	00000000 altera_avalon_cfi_flash_amd.c
01808718 l     F .text	000000bc alt_write_word_amd
018085f4 l     F .text	00000124 alt_wait_for_command_to_complete_amd
00000000 l    df *ABS*	00000000 altera_avalon_cfi_flash_intel.c
018089cc l     F .text	0000018c alt_unlock_block_intel
01808b58 l     F .text	000000dc alt_write_word_intel
00000000 l    df *ABS*	00000000 alt_busy_sleep.c
00000000 l    df *ABS*	00000000 alt_find_dev.c
00000000 l    df *ABS*	00000000 alt_find_file.c
00000000 l    df *ABS*	00000000 alt_get_fd.c
00000000 l    df *ABS*	00000000 atexit.c
00000000 l    df *ABS*	00000000 ctype_.c
01809625 l     O .rodata	00000180 _ctype_b
00000000 l    df *ABS*	00000000 exit.c
00000000 l    df *ABS*	00000000 memcmp.c
00000000 l    df *ABS*	00000000 __atexit.c
00000000 l    df *ABS*	00000000 __call_atexit.c
0180929c l     F .text	00000004 register_fini
00000000 l    df *ABS*	00000000 alt_exit.c
01809450 l     F .text	00000040 alt_sim_halt
0180b4e4 g     O .bss	00000004 alt_instruction_exception_handler
0180282c g     F .text	00000070 _isatty_r
01802eb8 g     F .text	0000006c alt_main
0180007c g     F .text	000000a0 _puts_r
01803de4 g     F .text	00000048 alt_read_query_entry_32bit
0180b510 g     O .bss	00000100 alt_irq
0180289c g     F .text	00000078 _lseek_r
0180355c g     F .text	000002c0 alt_flash_cfi_write
0180b7a0 g       *ABS*	00000000 __alt_heap_start
01802468 g     F .text	00000068 __sseek
01801a1c g     F .text	000000a4 __sinit
01801b1c g     F .text	00000068 __sfmoreglue
01802f44 g     F .text	00000020 __malloc_unlock
01800f04 g     F .text	000000e0 memmove
01801b0c g     F .text	00000010 _cleanup
00000000  w      *UND*	00000000 __errno
01803f70 g     F .text	00000048 alt_write_flash_command_32bit_device_16bit_mode
02400000 g     F .entry	00000000 __reset
018027b8 g     F .text	00000074 _fstat_r
01803a78 g     F .text	000002e8 alt_flash_program_block
0180b4c8 g     O .bss	00000004 errno
0180b4d0 g     O .bss	00000004 alt_argv
01813474 g       *ABS*	00000000 _gp
01808324 g     F .text	00000030 usleep
01809fd8 g     O .rwdata	00000180 alt_fd_list
01808d60 g     F .text	00000094 alt_find_dev
01800e64 g     F .text	000000a0 memcpy
01801b00 g     F .text	0000000c _cleanup_r
01807e44 g     F .text	00000078 alt_io_redirect
018094b4 g       *ABS*	00000000 __DTOR_END__
0180011c g     F .text	00000014 puts
01808fcc g     F .text	000000dc alt_exception_cause_generated_bad_addr
01808354 g     F .text	00000020 altera_nios2_irq_init
018057f0 g     F .text	00000224 altera_avalon_jtag_uart_read
00000000  w      *UND*	00000000 malloc
01802c48 g     F .text	000000c0 isatty
0180b4bc g     O .bss	00000004 __malloc_top_pad
018001a4 g     F .text	0000049c __sfvwrite_r
018015d8 g     F .text	00000070 _sbrk_r
018087d4 g     F .text	00000084 alt_program_intel
01802914 g     F .text	00000078 _read_r
01807790 g     F .text	00000078 alt_dcache_flush
0180b494 g     O .rwdata	00000004 alt_max_fd
01803d60 g     F .text	00000040 alt_read_query_entry_8bit
01802694 g     F .text	00000110 _fclose_r
01808858 g     F .text	00000174 alt_erase_block_intel
01801980 g     F .text	00000034 fflush
0180b4c0 g     O .bss	00000004 __malloc_max_sbrked_mem
01802d68 g     F .text	000000f0 lseek
0180b478 g     O .rwdata	00000004 _global_impure_ptr
01800fe4 g     F .text	000005f4 _realloc_r
0180b7a0 g       *ABS*	00000000 __bss_end
01807c88 g     F .text	000000f8 alt_iic_isr_register
01808218 g     F .text	0000010c alt_tick
01806d84 g     F .text	000000c8 altera_avalon_uart_init
0180b4b8 g     O .rwdata	00000004 __ctype_ptr
01801ae8 g     F .text	00000018 __fp_lock_all
01807c40 g     F .text	00000048 alt_ic_irq_enabled
01808180 g     F .text	00000098 alt_alarm_stop
0180b4d8 g     O .bss	00000004 alt_irq_active
02808000 g       *ABS*	00000000 __alt_mem_onchip_mem
028080fc g     F .exceptions	000000c8 alt_irq_handler
01809fb0 g     O .rwdata	00000028 alt_dev_null
01804278 g     F .text	000000ac alt_set_flash_algorithm_func
01803e2c g     F .text	0000003c alt_write_flash_command_8bit_device_8bit_mode
0180b48c g     O .rwdata	00000008 alt_dev_list
01803200 g     F .text	00000120 write
01802b14 g     F .text	000000d4 fstat
018050cc g     F .text	000000dc alt_check_primary_table
018038ac g     F .text	00000068 alt_flash_cfi_read
01804000 g     F .text	00000034 alt_write_native_8bit
0180b7a0 g       *ABS*	00000000 end
01803e68 g     F .text	0000007c alt_write_flash_command_16bit_device_8bit_mode
01806428 g     F .text	00000504 altera_avalon_lcd_16207_write
01807414 g     F .text	000001c8 altera_avalon_uart_write
018043a0 g     F .text	00000580 alt_read_cfi_table
018052f0 g     F .text	000000c0 altera_avalon_jtag_uart_init
028081c4 g     F .exceptions	00000068 alt_instruction_exception_entry
018094b0 g       *ABS*	00000000 __CTOR_LIST__
02000000 g       *ABS*	00000000 __alt_stack_pointer
01806bfc g     F .text	00000090 alt_avalon_timer_sc_init
01806ce4 g     F .text	00000058 altera_avalon_uart_write_fd
01806d3c g     F .text	00000048 altera_avalon_uart_close_fd
01805a14 g     F .text	00000240 altera_avalon_jtag_uart_write
01803488 g     F .text	0000009c alt_flash_cfi_init
01801a0c g     F .text	00000004 __sfp_lock_acquire
01800d80 g     F .text	000000e4 memchr
01801da0 g     F .text	00000314 _free_r
018092a0 g     F .text	000001b0 __call_exitprocs
0180b480 g     O .rwdata	00000004 __malloc_sbrk_base
01800000 g     F .text	00000048 _start
0180b4dc g     O .bss	00000004 _alt_tick_rate
0180b4e0 g     O .bss	00000004 _alt_nticks
01802f64 g     F .text	00000120 read
018033b4 g     F .text	0000009c alt_sys_init
01809168 g     F .text	00000134 __register_exitproc
01803da0 g     F .text	00000044 alt_read_query_entry_16bit
01805688 g     F .text	00000074 altera_avalon_jtag_uart_close
0180b4e8 g     O .bss	00000028 __malloc_current_mallinfo
01804098 g     F .text	000001e0 alt_set_flash_width_func
018051a8 g     F .text	00000058 altera_avalon_jtag_uart_read_fd
01808f14 g     F .text	000000b8 alt_get_fd
01808c34 g     F .text	0000012c alt_busy_sleep
01802624 g     F .text	00000070 _close_r
018083dc g     F .text	00000218 alt_erase_block_amd
018090f4 g     F .text	00000074 memcmp
01805258 g     F .text	00000048 altera_avalon_jtag_uart_close_fd
0180b7a0 g       *ABS*	00000000 __alt_stack_base
018052a0 g     F .text	00000050 altera_avalon_jtag_uart_ioctl_fd
01801648 g     F .text	0000013c __swsetup_r
01804920 g     F .text	000007ac alt_read_cfi_width
01801b84 g     F .text	000000f0 __sfp
01809ba8 g     O .rwdata	00000408 __malloc_av_
01801a18 g     F .text	00000004 __sinit_lock_release
0180254c g     F .text	00000060 __sread
01808df4 g     F .text	00000120 alt_find_file
01807808 g     F .text	000000b4 alt_dev_llist_insert
01802f24 g     F .text	00000020 __malloc_lock
01803144 g     F .text	000000bc sbrk
01801784 g     F .text	000001fc _fflush_r
0180b4a4 g     O .rwdata	00000008 alt_flash_dev_list
01803f2c g     F .text	00000044 alt_write_flash_command_16bit_device_16bit_mode
0180b4bc g       *ABS*	00000000 __bss_start
018023c8 g     F .text	00000098 memset
01800048 g     F .text	00000034 main
0180b4d4 g     O .bss	00000004 alt_envp
0180b4c4 g     O .bss	00000004 __malloc_max_total_mem
01805200 g     F .text	00000058 altera_avalon_jtag_uart_write_fd
018069f8 g     F .text	0000013c altera_avalon_lcd_16207_init
01802460 g     F .text	00000008 __sclose
02000000 g       *ABS*	00000000 __alt_heap_limit
018027a4 g     F .text	00000014 fclose
0180b610 g     O .bss	00000190 _atexit0
01800640 g     F .text	00000740 _malloc_r
0180b498 g     O .rwdata	00000004 alt_errno
01803fb8 g     F .text	00000048 alt_write_flash_command_32bit_device_32bit_mode
0180217c g     F .text	000000b8 _fwalk
01803914 g     F .text	00000164 alt_write_value_to_flash
01804034 g     F .text	00000034 alt_write_native_16bit
02400000 g       *ABS*	00000000 __alt_mem_cfi_flash
01801c74 g     F .text	0000012c _malloc_trim_r
018094b4 g       *ABS*	00000000 __CTOR_END__
018094b4 g       *ABS*	00000000 __DTOR_LIST__
01803380 g     F .text	00000034 alt_irq_init
018030e4 g     F .text	00000060 alt_release_fd
018090a8 g     F .text	00000014 atexit
018025ac g     F .text	00000078 _write_r
0180b474 g     O .rwdata	00000004 _impure_ptr
0180b4cc g     O .bss	00000004 alt_argc
01807980 g     F .text	00000064 _do_dtors
02808020 g       .exceptions	00000000 alt_irq_entry
01801ad0 g     F .text	00000018 __fp_unlock_all
01806b34 g     F .text	00000058 altera_avalon_lcd_16207_write_fd
0180b484 g     O .rwdata	00000008 alt_fs_list
01803ee4 g     F .text	00000048 alt_write_flash_command_32bit_device_8bit_mode
01807ab4 g     F .text	00000050 alt_ic_isr_register
0180b4bc g       *ABS*	00000000 _edata
01806c8c g     F .text	00000058 altera_avalon_uart_read_fd
0180b7a0 g       *ABS*	00000000 _end
018079e4 g     F .text	0000007c alt_flash_open_dev
018056fc g     F .text	000000f4 altera_avalon_jtag_uart_ioctl
01807ba0 g     F .text	000000a0 alt_ic_irq_disable
018024d0 g     F .text	0000007c __swrite
0180b47c g     O .rwdata	00000004 __malloc_trim_threshold
018090bc g     F .text	00000038 exit
018020b4 g     F .text	000000c8 _fwalk_reent
01807a60 g     F .text	00000054 alt_flash_close_dev
02000000 g       *ABS*	00000000 __alt_data_end
02808020 g     F .exceptions	00000000 alt_exception
01801a10 g     F .text	00000004 __sfp_lock_release
01800000 g       *ABS*	00000000 __alt_mem_sdram
01809524 g     O .rodata	00000101 _ctype_
01807124 g     F .text	00000060 altera_avalon_uart_close
01809490 g     F .text	00000020 _exit
0180763c g     F .text	00000154 alt_alarm_start
01802234 g     F .text	00000194 __smakebuf_r
01804068 g     F .text	00000030 alt_write_native_32bit
01800130 g     F .text	00000074 strlen
01807f98 g     F .text	00000188 open
0180381c g     F .text	00000090 alt_flash_cfi_get_info
0180b4ac g     O .rwdata	00000004 alt_priority_mask
01807b04 g     F .text	0000009c alt_ic_irq_enable
01807184 g     F .text	00000230 altera_avalon_uart_read
0180b4b0 g     O .rwdata	00000008 alt_alarm_list
0180791c g     F .text	00000064 _do_ctors
0180298c g     F .text	000000fc close
01808374 g     F .text	00000068 alt_program_amd
00000000  w      *UND*	00000000 free
01801a14 g     F .text	00000004 __sinit_lock_acquire



Disassembly of section .exceptions:

02808020 <alt_exception>:
         * Process an exception.  For all exceptions we must preserve all
         * caller saved registers on the stack (See the Nios2 ABI
         * documentation for details).
         */

        addi  sp, sp, -76
 2808020:	deffed04 	addi	sp,sp,-76

#endif

#endif

        stw   ra,  0(sp)
 2808024:	dfc00015 	stw	ra,0(sp)
        /*
         * Leave a gap in the stack frame at 4(sp) for the muldiv handler to
         * store zero into.
         */

        stw   r1,   8(sp)
 2808028:	d8400215 	stw	at,8(sp)
        stw   r2,  12(sp)
 280802c:	d8800315 	stw	r2,12(sp)
        stw   r3,  16(sp)
 2808030:	d8c00415 	stw	r3,16(sp)
        stw   r4,  20(sp)
 2808034:	d9000515 	stw	r4,20(sp)
        stw   r5,  24(sp)
 2808038:	d9400615 	stw	r5,24(sp)
        stw   r6,  28(sp)
 280803c:	d9800715 	stw	r6,28(sp)
        stw   r7,  32(sp)
 2808040:	d9c00815 	stw	r7,32(sp)

        rdctl r5, estatus
 2808044:	000b307a 	rdctl	r5,estatus

        stw   r8,  36(sp)
 2808048:	da000915 	stw	r8,36(sp)
        stw   r9,  40(sp)
 280804c:	da400a15 	stw	r9,40(sp)
        stw   r10, 44(sp)
 2808050:	da800b15 	stw	r10,44(sp)
        stw   r11, 48(sp)
 2808054:	dac00c15 	stw	r11,48(sp)
        stw   r12, 52(sp)
 2808058:	db000d15 	stw	r12,52(sp)
        stw   r13, 56(sp)
 280805c:	db400e15 	stw	r13,56(sp)
        stw   r14, 60(sp)
 2808060:	db800f15 	stw	r14,60(sp)
        stw   r15, 64(sp)
 2808064:	dbc01015 	stw	r15,64(sp)
        /*
         * ea-4 contains the address of the instruction being executed
         * when the exception occured. For interrupt exceptions, we will
         * will be re-issue the isntruction. Store it in 72(sp)
         */
        stw   r5,  68(sp)  /* estatus */
 2808068:	d9401115 	stw	r5,68(sp)
        addi  r15, ea, -4  /* instruction that caused exception */
 280806c:	ebffff04 	addi	r15,ea,-4
        stw   r15,  72(sp)
 2808070:	dbc01215 	stw	r15,72(sp)
#else
        /*
         * Test to see if the exception was a software exception or caused 
         * by an external interrupt, and vector accordingly.
         */
        rdctl r4, ipending
 2808074:	0009313a 	rdctl	r4,ipending
        andi  r2, r5, 1
 2808078:	2880004c 	andi	r2,r5,1
        beq   r2, zero, .Lnot_irq
 280807c:	10000326 	beq	r2,zero,280808c <alt_exception+0x6c>
        beq   r4, zero, .Lnot_irq
 2808080:	20000226 	beq	r4,zero,280808c <alt_exception+0x6c>
        /*
         * Now that all necessary registers have been preserved, call 
         * alt_irq_handler() to process the interrupts.
         */

        call alt_irq_handler
 2808084:	28080fc0 	call	28080fc <alt_irq_handler>

        .section .exceptions.irqreturn, "xa"

        br    .Lexception_exit
 2808088:	00000706 	br	28080a8 <alt_exception+0x88>
         * upon completion, so we write ea (address of instruction *after*
         * the one where the exception occured) into 72(sp). The actual
         * instruction that caused the exception is written in r2, which these
         * handlers will utilize.
         */
        stw   ea,  72(sp)  /* Don't re-issue */
 280808c:	df401215 	stw	ea,72(sp)
        ldw   r2, -4(ea)   /* Instruction that caused exception */
 2808090:	e8bfff17 	ldw	r2,-4(ea)
         * debugger is present) or go into an infinite loop since the
         * handling behavior is undefined; in that case we will not return here.
         */

        /* Load exception-causing address as first argument (r4) */
        addi   r4, ea, -4
 2808094:	e93fff04 	addi	r4,ea,-4

        /* Call the instruction-exception entry */
        call   alt_instruction_exception_entry
 2808098:	28081c40 	call	28081c4 <alt_instruction_exception_entry>
         * instruction
         *
         * Return code was 0: Skip. The instruction after the exception is
         * already stored in 72(sp).
         */
        bne   r2, r0, .Lexception_exit
 280809c:	1000021e 	bne	r2,zero,28080a8 <alt_exception+0x88>

        /*
         * Otherwise, modify 72(sp) to re-issue the instruction that caused the
         * exception.
         */
        addi  r15, ea, -4  /* instruction that caused exception */
 28080a0:	ebffff04 	addi	r15,ea,-4
        stw   r15,  72(sp)
 28080a4:	dbc01215 	stw	r15,72(sp)
        /* 
         * Restore the saved registers, so that all general purpose registers 
         * have been restored to their state at the time the interrupt occured.
         */

        ldw   r5,  68(sp)
 28080a8:	d9401117 	ldw	r5,68(sp)
        ldw   ea,  72(sp)  /* This becomes the PC once eret is executed */
 28080ac:	df401217 	ldw	ea,72(sp)
        ldw   ra,   0(sp)
 28080b0:	dfc00017 	ldw	ra,0(sp)

        wrctl estatus, r5
 28080b4:	2801707a 	wrctl	estatus,r5

        ldw   r1,   8(sp)
 28080b8:	d8400217 	ldw	at,8(sp)
        ldw   r2,  12(sp)
 28080bc:	d8800317 	ldw	r2,12(sp)
        ldw   r3,  16(sp)
 28080c0:	d8c00417 	ldw	r3,16(sp)
        ldw   r4,  20(sp)
 28080c4:	d9000517 	ldw	r4,20(sp)
        ldw   r5,  24(sp)
 28080c8:	d9400617 	ldw	r5,24(sp)
        ldw   r6,  28(sp)
 28080cc:	d9800717 	ldw	r6,28(sp)
        ldw   r7,  32(sp)
 28080d0:	d9c00817 	ldw	r7,32(sp)
#ifdef ALT_STACK_CHECK
        ldw   et, %gprel(alt_exception_old_stack_limit)(gp)
#endif
#endif

        ldw   r8,  36(sp)
 28080d4:	da000917 	ldw	r8,36(sp)
        ldw   r9,  40(sp)
 28080d8:	da400a17 	ldw	r9,40(sp)
        ldw   r10, 44(sp)
 28080dc:	da800b17 	ldw	r10,44(sp)
        ldw   r11, 48(sp)
 28080e0:	dac00c17 	ldw	r11,48(sp)
        ldw   r12, 52(sp)
 28080e4:	db000d17 	ldw	r12,52(sp)
        ldw   r13, 56(sp)
 28080e8:	db400e17 	ldw	r13,56(sp)
        ldw   r14, 60(sp)
 28080ec:	db800f17 	ldw	r14,60(sp)
        ldw   r15, 64(sp)
 28080f0:	dbc01017 	ldw	r15,64(sp)
#endif

        ldw   sp,  76(sp)

#else
        addi  sp, sp, 76
 28080f4:	dec01304 	addi	sp,sp,76

        /*
         * Return to the interrupted instruction.
         */

        eret
 28080f8:	ef80083a 	eret

028080fc <alt_irq_handler>:
 * instruction is present if the macro ALT_CI_INTERRUPT_VECTOR defined.
 */

void alt_irq_handler (void) __attribute__ ((section (".exceptions")));
void alt_irq_handler (void)
{
 28080fc:	defff904 	addi	sp,sp,-28
 2808100:	dfc00615 	stw	ra,24(sp)
 2808104:	df000515 	stw	fp,20(sp)
 2808108:	df000504 	addi	fp,sp,20
#ifndef NIOS2_EIC_PRESENT
static ALT_INLINE alt_u32 ALT_ALWAYS_INLINE alt_irq_pending (void)
{
  alt_u32 active;

  NIOS2_READ_IPENDING (active);
 280810c:	0005313a 	rdctl	r2,ipending
 2808110:	e0bffc15 	stw	r2,-16(fp)

  return active;
 2808114:	e0bffc17 	ldw	r2,-16(fp)
   * Consider the case where the high priority interupt is asserted during
   * the interrupt entry sequence for a lower priority interrupt to see why
   * this is the case.
   */

  active = alt_irq_pending ();
 2808118:	e0bfff15 	stw	r2,-4(fp)

  do
  {
    i = 0;
 280811c:	e03ffd15 	stw	zero,-12(fp)
    mask = 1;
 2808120:	00800044 	movi	r2,1
 2808124:	e0bffe15 	stw	r2,-8(fp)
     * called to clear the interrupt condition.
     */

    do
    {
      if (active & mask)
 2808128:	e0ffff17 	ldw	r3,-4(fp)
 280812c:	e0bffe17 	ldw	r2,-8(fp)
 2808130:	1884703a 	and	r2,r3,r2
 2808134:	1005003a 	cmpeq	r2,r2,zero
 2808138:	1000161e 	bne	r2,zero,2808194 <alt_irq_handler+0x98>
      { 
#ifdef ALT_ENHANCED_INTERRUPT_API_PRESENT
        alt_irq[i].handler(alt_irq[i].context); 
 280813c:	e0bffd17 	ldw	r2,-12(fp)
 2808140:	00c06074 	movhi	r3,385
 2808144:	18ed4404 	addi	r3,r3,-19184
 2808148:	100490fa 	slli	r2,r2,3
 280814c:	10c5883a 	add	r2,r2,r3
 2808150:	11400017 	ldw	r5,0(r2)
 2808154:	e0bffd17 	ldw	r2,-12(fp)
 2808158:	00c06074 	movhi	r3,385
 280815c:	18ed4404 	addi	r3,r3,-19184
 2808160:	100490fa 	slli	r2,r2,3
 2808164:	10c5883a 	add	r2,r2,r3
 2808168:	10800104 	addi	r2,r2,4
 280816c:	11000017 	ldw	r4,0(r2)
 2808170:	283ee83a 	callr	r5
#ifndef NIOS2_EIC_PRESENT
static ALT_INLINE alt_u32 ALT_ALWAYS_INLINE alt_irq_pending (void)
{
  alt_u32 active;

  NIOS2_READ_IPENDING (active);
 2808174:	0005313a 	rdctl	r2,ipending
 2808178:	e0bffb15 	stw	r2,-20(fp)

  return active;
 280817c:	e0bffb17 	ldw	r2,-20(fp)
      mask <<= 1;
      i++;

    } while (1);

    active = alt_irq_pending ();
 2808180:	e0bfff15 	stw	r2,-4(fp)
    
  } while (active);
 2808184:	e0bfff17 	ldw	r2,-4(fp)
 2808188:	1004c03a 	cmpne	r2,r2,zero
 280818c:	103fe31e 	bne	r2,zero,280811c <alt_irq_handler+0x20>
 2808190:	00000706 	br	28081b0 <alt_irq_handler+0xb4>
#else
        alt_irq[i].handler(alt_irq[i].context, i); 
#endif
        break;
      }
      mask <<= 1;
 2808194:	e0bffe17 	ldw	r2,-8(fp)
 2808198:	1085883a 	add	r2,r2,r2
 280819c:	e0bffe15 	stw	r2,-8(fp)
      i++;
 28081a0:	e0bffd17 	ldw	r2,-12(fp)
 28081a4:	10800044 	addi	r2,r2,1
 28081a8:	e0bffd15 	stw	r2,-12(fp)

    } while (1);
 28081ac:	003fde06 	br	2808128 <alt_irq_handler+0x2c>
  /*
   * Notify the operating system that interrupt processing is complete.
   */ 

  ALT_OS_INT_EXIT();
}
 28081b0:	e037883a 	mov	sp,fp
 28081b4:	dfc00117 	ldw	ra,4(sp)
 28081b8:	df000017 	ldw	fp,0(sp)
 28081bc:	dec00204 	addi	sp,sp,8
 28081c0:	f800283a 	ret

028081c4 <alt_instruction_exception_entry>:
 * using alt_instruction_exception_register(). This routine will call
 * that handler if it has been registered. Absent a handler, it will
 * break break or hang as discussed below.
 */
int alt_instruction_exception_entry (alt_u32 exception_pc)
{
 28081c4:	defffa04 	addi	sp,sp,-24
 28081c8:	dfc00515 	stw	ra,20(sp)
 28081cc:	df000415 	stw	fp,16(sp)
 28081d0:	df000404 	addi	fp,sp,16
 28081d4:	e13ffe15 	stw	r4,-8(fp)
  cause = ( (cause & NIOS2_EXCEPTION_REG_CAUSE_MASK) >>
              NIOS2_EXCEPTION_REG_CAUSE_OFST );

  NIOS2_READ_BADADDR(badaddr);
#else
  cause = NIOS2_EXCEPTION_CAUSE_NOT_PRESENT;
 28081d8:	00bfffc4 	movi	r2,-1
 28081dc:	e0bffd15 	stw	r2,-12(fp)
  badaddr = 0;
 28081e0:	e03ffc15 	stw	zero,-16(fp)
#endif /* NIOS2_HAS_EXTRA_EXCEPTION_INFO */

  if(alt_instruction_exception_handler) {
 28081e4:	d0a01c17 	ldw	r2,-32656(gp)
 28081e8:	1005003a 	cmpeq	r2,r2,zero
 28081ec:	1000071e 	bne	r2,zero,280820c <alt_instruction_exception_entry+0x48>
     * Call handler. Its return value indicates whether the exception-causing
     * instruction should be re-issued. The code that called us,
     * alt_eceptions_entry.S, will look at this value and adjust the ea
     * register as necessary
     */
    return alt_instruction_exception_handler(cause, exception_pc, badaddr);
 28081f0:	d0a01c17 	ldw	r2,-32656(gp)
 28081f4:	e13ffd17 	ldw	r4,-12(fp)
 28081f8:	e17ffe17 	ldw	r5,-8(fp)
 28081fc:	e1bffc17 	ldw	r6,-16(fp)
 2808200:	103ee83a 	callr	r2
 2808204:	e0bfff15 	stw	r2,-4(fp)
 2808208:	00000206 	br	2808214 <alt_instruction_exception_entry+0x50>
   *    (a peripheral which negates its interrupt output before its
   *    interrupt handler has been executed will cause spurious interrupts)
   */
  else {
#ifdef NIOS2_HAS_DEBUG_STUB
    NIOS2_BREAK();
 280820c:	003da03a 	break	0
      ;
#endif /* NIOS2_HAS_DEBUG_STUB */
  }

  /* // We should not get here. Remove compiler warning. */
  return NIOS2_EXCEPTION_RETURN_REISSUE_INST;
 2808210:	e03fff15 	stw	zero,-4(fp)
 2808214:	e0bfff17 	ldw	r2,-4(fp)
}
 2808218:	e037883a 	mov	sp,fp
 280821c:	dfc00117 	ldw	ra,4(sp)
 2808220:	df000017 	ldw	fp,0(sp)
 2808224:	dec00204 	addi	sp,sp,8
 2808228:	f800283a 	ret

Disassembly of section .text:

01800000 <_start>:

    /* Assume the data cache size is always a power of two. */
#if NIOS2_DCACHE_SIZE > 0x8000
    movhi r2, %hi(NIOS2_DCACHE_SIZE)
#else
    movui r2, NIOS2_DCACHE_SIZE
 1800000:	00840014 	movui	r2,4096
#endif

0:
    initd 0(r2)
 1800004:	10000033 	initd	0(r2)
    addi r2, r2, -NIOS2_DCACHE_LINE_SIZE
 1800008:	10bff804 	addi	r2,r2,-32
    bgt r2, zero, 0b
 180000c:	00bffd16 	blt	zero,r2,1800004 <_start+0x4>
#if (NIOS2_NUM_OF_SHADOW_REG_SETS == 0)    
    /*
     * Now that the caches are initialized, set up the stack pointer.
     * The value provided by the linker is assumed to be correctly aligned.
     */
    movhi sp, %hi(__alt_stack_pointer)
 1800010:	06c08034 	movhi	sp,512
    ori sp, sp, %lo(__alt_stack_pointer)
 1800014:	dec00014 	ori	sp,sp,0

    /* Set up the global pointer. */
    movhi gp, %hi(_gp)
 1800018:	06806074 	movhi	gp,385
    ori gp, gp, %lo(_gp)
 180001c:	d68d1d14 	ori	gp,gp,13428
 */
#ifndef ALT_SIM_OPTIMIZE
    /* Log that the BSS is about to be cleared. */
    ALT_LOG_PUTS(alt_log_msg_bss)

    movhi r2, %hi(__bss_start)
 1800020:	00806034 	movhi	r2,384
    ori r2, r2, %lo(__bss_start)
 1800024:	10ad2f14 	ori	r2,r2,46268

    movhi r3, %hi(__bss_end)
 1800028:	00c06034 	movhi	r3,384
    ori r3, r3, %lo(__bss_end)
 180002c:	18ede814 	ori	r3,r3,47008

    beq r2, r3, 1f
 1800030:	10c00326 	beq	r2,r3,1800040 <_start+0x40>

0:
    stw zero, (r2)
 1800034:	10000015 	stw	zero,0(r2)
    addi r2, r2, 4
 1800038:	10800104 	addi	r2,r2,4
    bltu r2, r3, 0b
 180003c:	10fffd36 	bltu	r2,r3,1800034 <_start+0x34>

    /* Log that alt_main is about to be called. */
    ALT_LOG_PUTS(alt_log_msg_alt_main)

    /* Call the C entry point. It should never return. */
    call alt_main
 1800040:	1802eb80 	call	1802eb8 <alt_main>

01800044 <alt_after_alt_main>:

    /* Wait in infinite loop in case alt_main does return. */
alt_after_alt_main:
    br alt_after_alt_main
 1800044:	003fff06 	br	1800044 <alt_after_alt_main>

01800048 <main>:
 */

#include <stdio.h>

int main()
{
 1800048:	defffe04 	addi	sp,sp,-8
 180004c:	dfc00115 	stw	ra,4(sp)
 1800050:	df000015 	stw	fp,0(sp)
 1800054:	d839883a 	mov	fp,sp
  printf("Hello from Nios II!\n");
 1800058:	01006074 	movhi	r4,385
 180005c:	21252d04 	addi	r4,r4,-27468
 1800060:	180011c0 	call	180011c <puts>

  return 0;
 1800064:	0005883a 	mov	r2,zero
}
 1800068:	e037883a 	mov	sp,fp
 180006c:	dfc00117 	ldw	ra,4(sp)
 1800070:	df000017 	ldw	fp,0(sp)
 1800074:	dec00204 	addi	sp,sp,8
 1800078:	f800283a 	ret

0180007c <_puts_r>:
 180007c:	defff604 	addi	sp,sp,-40
 1800080:	dc400715 	stw	r17,28(sp)
 1800084:	2023883a 	mov	r17,r4
 1800088:	2809883a 	mov	r4,r5
 180008c:	dfc00915 	stw	ra,36(sp)
 1800090:	dcc00815 	stw	r19,32(sp)
 1800094:	2827883a 	mov	r19,r5
 1800098:	18001300 	call	1800130 <strlen>
 180009c:	89400217 	ldw	r5,8(r17)
 18000a0:	00c06074 	movhi	r3,385
 18000a4:	18e53204 	addi	r3,r3,-27448
 18000a8:	01c00044 	movi	r7,1
 18000ac:	12000044 	addi	r8,r2,1
 18000b0:	d8c00515 	stw	r3,20(sp)
 18000b4:	d9c00615 	stw	r7,24(sp)
 18000b8:	d8c00304 	addi	r3,sp,12
 18000bc:	01c00084 	movi	r7,2
 18000c0:	8809883a 	mov	r4,r17
 18000c4:	d80d883a 	mov	r6,sp
 18000c8:	d8c00015 	stw	r3,0(sp)
 18000cc:	dcc00315 	stw	r19,12(sp)
 18000d0:	da000215 	stw	r8,8(sp)
 18000d4:	d9c00115 	stw	r7,4(sp)
 18000d8:	d8800415 	stw	r2,16(sp)
 18000dc:	18001a40 	call	18001a4 <__sfvwrite_r>
 18000e0:	00ffffc4 	movi	r3,-1
 18000e4:	10000626 	beq	r2,zero,1800100 <_puts_r+0x84>
 18000e8:	1805883a 	mov	r2,r3
 18000ec:	dfc00917 	ldw	ra,36(sp)
 18000f0:	dcc00817 	ldw	r19,32(sp)
 18000f4:	dc400717 	ldw	r17,28(sp)
 18000f8:	dec00a04 	addi	sp,sp,40
 18000fc:	f800283a 	ret
 1800100:	00c00284 	movi	r3,10
 1800104:	1805883a 	mov	r2,r3
 1800108:	dfc00917 	ldw	ra,36(sp)
 180010c:	dcc00817 	ldw	r19,32(sp)
 1800110:	dc400717 	ldw	r17,28(sp)
 1800114:	dec00a04 	addi	sp,sp,40
 1800118:	f800283a 	ret

0180011c <puts>:
 180011c:	00806074 	movhi	r2,385
 1800120:	10ad1d04 	addi	r2,r2,-19340
 1800124:	200b883a 	mov	r5,r4
 1800128:	11000017 	ldw	r4,0(r2)
 180012c:	180007c1 	jmpi	180007c <_puts_r>

01800130 <strlen>:
 1800130:	208000cc 	andi	r2,r4,3
 1800134:	2011883a 	mov	r8,r4
 1800138:	1000161e 	bne	r2,zero,1800194 <strlen+0x64>
 180013c:	20c00017 	ldw	r3,0(r4)
 1800140:	017fbff4 	movhi	r5,65279
 1800144:	297fbfc4 	addi	r5,r5,-257
 1800148:	01e02074 	movhi	r7,32897
 180014c:	39e02004 	addi	r7,r7,-32640
 1800150:	1945883a 	add	r2,r3,r5
 1800154:	11c4703a 	and	r2,r2,r7
 1800158:	00c6303a 	nor	r3,zero,r3
 180015c:	1886703a 	and	r3,r3,r2
 1800160:	18000c1e 	bne	r3,zero,1800194 <strlen+0x64>
 1800164:	280d883a 	mov	r6,r5
 1800168:	380b883a 	mov	r5,r7
 180016c:	21000104 	addi	r4,r4,4
 1800170:	20800017 	ldw	r2,0(r4)
 1800174:	1187883a 	add	r3,r2,r6
 1800178:	1946703a 	and	r3,r3,r5
 180017c:	0084303a 	nor	r2,zero,r2
 1800180:	10c4703a 	and	r2,r2,r3
 1800184:	103ff926 	beq	r2,zero,180016c <strlen+0x3c>
 1800188:	20800007 	ldb	r2,0(r4)
 180018c:	10000326 	beq	r2,zero,180019c <strlen+0x6c>
 1800190:	21000044 	addi	r4,r4,1
 1800194:	20800007 	ldb	r2,0(r4)
 1800198:	103ffd1e 	bne	r2,zero,1800190 <strlen+0x60>
 180019c:	2205c83a 	sub	r2,r4,r8
 18001a0:	f800283a 	ret

018001a4 <__sfvwrite_r>:
 18001a4:	30800217 	ldw	r2,8(r6)
 18001a8:	defff504 	addi	sp,sp,-44
 18001ac:	df000915 	stw	fp,36(sp)
 18001b0:	dd800715 	stw	r22,28(sp)
 18001b4:	dc800315 	stw	r18,12(sp)
 18001b8:	dfc00a15 	stw	ra,40(sp)
 18001bc:	ddc00815 	stw	r23,32(sp)
 18001c0:	dd400615 	stw	r21,24(sp)
 18001c4:	dd000515 	stw	r20,20(sp)
 18001c8:	dcc00415 	stw	r19,16(sp)
 18001cc:	dc400215 	stw	r17,8(sp)
 18001d0:	dc000115 	stw	r16,4(sp)
 18001d4:	302d883a 	mov	r22,r6
 18001d8:	2039883a 	mov	fp,r4
 18001dc:	2825883a 	mov	r18,r5
 18001e0:	10001c26 	beq	r2,zero,1800254 <__sfvwrite_r+0xb0>
 18001e4:	29c0030b 	ldhu	r7,12(r5)
 18001e8:	3880020c 	andi	r2,r7,8
 18001ec:	10002726 	beq	r2,zero,180028c <__sfvwrite_r+0xe8>
 18001f0:	28800417 	ldw	r2,16(r5)
 18001f4:	10002526 	beq	r2,zero,180028c <__sfvwrite_r+0xe8>
 18001f8:	3880008c 	andi	r2,r7,2
 18001fc:	b5400017 	ldw	r21,0(r22)
 1800200:	10002826 	beq	r2,zero,18002a4 <__sfvwrite_r+0x100>
 1800204:	0021883a 	mov	r16,zero
 1800208:	0023883a 	mov	r17,zero
 180020c:	880d883a 	mov	r6,r17
 1800210:	e009883a 	mov	r4,fp
 1800214:	00810004 	movi	r2,1024
 1800218:	80006e26 	beq	r16,zero,18003d4 <__sfvwrite_r+0x230>
 180021c:	800f883a 	mov	r7,r16
 1800220:	91400717 	ldw	r5,28(r18)
 1800224:	1400012e 	bgeu	r2,r16,180022c <__sfvwrite_r+0x88>
 1800228:	100f883a 	mov	r7,r2
 180022c:	90c00917 	ldw	r3,36(r18)
 1800230:	183ee83a 	callr	r3
 1800234:	1007883a 	mov	r3,r2
 1800238:	80a1c83a 	sub	r16,r16,r2
 180023c:	88a3883a 	add	r17,r17,r2
 1800240:	00806d0e 	bge	zero,r2,18003f8 <__sfvwrite_r+0x254>
 1800244:	b0800217 	ldw	r2,8(r22)
 1800248:	10c5c83a 	sub	r2,r2,r3
 180024c:	b0800215 	stw	r2,8(r22)
 1800250:	103fee1e 	bne	r2,zero,180020c <__sfvwrite_r+0x68>
 1800254:	0009883a 	mov	r4,zero
 1800258:	2005883a 	mov	r2,r4
 180025c:	dfc00a17 	ldw	ra,40(sp)
 1800260:	df000917 	ldw	fp,36(sp)
 1800264:	ddc00817 	ldw	r23,32(sp)
 1800268:	dd800717 	ldw	r22,28(sp)
 180026c:	dd400617 	ldw	r21,24(sp)
 1800270:	dd000517 	ldw	r20,20(sp)
 1800274:	dcc00417 	ldw	r19,16(sp)
 1800278:	dc800317 	ldw	r18,12(sp)
 180027c:	dc400217 	ldw	r17,8(sp)
 1800280:	dc000117 	ldw	r16,4(sp)
 1800284:	dec00b04 	addi	sp,sp,44
 1800288:	f800283a 	ret
 180028c:	18016480 	call	1801648 <__swsetup_r>
 1800290:	1000e41e 	bne	r2,zero,1800624 <__sfvwrite_r+0x480>
 1800294:	91c0030b 	ldhu	r7,12(r18)
 1800298:	b5400017 	ldw	r21,0(r22)
 180029c:	3880008c 	andi	r2,r7,2
 18002a0:	103fd81e 	bne	r2,zero,1800204 <__sfvwrite_r+0x60>
 18002a4:	3880004c 	andi	r2,r7,1
 18002a8:	1005003a 	cmpeq	r2,r2,zero
 18002ac:	10005726 	beq	r2,zero,180040c <__sfvwrite_r+0x268>
 18002b0:	0029883a 	mov	r20,zero
 18002b4:	002f883a 	mov	r23,zero
 18002b8:	a0004226 	beq	r20,zero,18003c4 <__sfvwrite_r+0x220>
 18002bc:	3880800c 	andi	r2,r7,512
 18002c0:	94000217 	ldw	r16,8(r18)
 18002c4:	10008b26 	beq	r2,zero,18004f4 <__sfvwrite_r+0x350>
 18002c8:	800d883a 	mov	r6,r16
 18002cc:	a400a536 	bltu	r20,r16,1800564 <__sfvwrite_r+0x3c0>
 18002d0:	3881200c 	andi	r2,r7,1152
 18002d4:	10002726 	beq	r2,zero,1800374 <__sfvwrite_r+0x1d0>
 18002d8:	90800517 	ldw	r2,20(r18)
 18002dc:	92000417 	ldw	r8,16(r18)
 18002e0:	91400017 	ldw	r5,0(r18)
 18002e4:	1087883a 	add	r3,r2,r2
 18002e8:	1887883a 	add	r3,r3,r2
 18002ec:	1808d7fa 	srli	r4,r3,31
 18002f0:	2a21c83a 	sub	r16,r5,r8
 18002f4:	80800044 	addi	r2,r16,1
 18002f8:	20c9883a 	add	r4,r4,r3
 18002fc:	2027d07a 	srai	r19,r4,1
 1800300:	a085883a 	add	r2,r20,r2
 1800304:	980d883a 	mov	r6,r19
 1800308:	9880022e 	bgeu	r19,r2,1800314 <__sfvwrite_r+0x170>
 180030c:	1027883a 	mov	r19,r2
 1800310:	100d883a 	mov	r6,r2
 1800314:	3881000c 	andi	r2,r7,1024
 1800318:	1000b826 	beq	r2,zero,18005fc <__sfvwrite_r+0x458>
 180031c:	300b883a 	mov	r5,r6
 1800320:	e009883a 	mov	r4,fp
 1800324:	18006400 	call	1800640 <_malloc_r>
 1800328:	10003126 	beq	r2,zero,18003f0 <__sfvwrite_r+0x24c>
 180032c:	91400417 	ldw	r5,16(r18)
 1800330:	1009883a 	mov	r4,r2
 1800334:	800d883a 	mov	r6,r16
 1800338:	1023883a 	mov	r17,r2
 180033c:	1800e640 	call	1800e64 <memcpy>
 1800340:	90c0030b 	ldhu	r3,12(r18)
 1800344:	00beffc4 	movi	r2,-1025
 1800348:	1886703a 	and	r3,r3,r2
 180034c:	18c02014 	ori	r3,r3,128
 1800350:	90c0030d 	sth	r3,12(r18)
 1800354:	9c07c83a 	sub	r3,r19,r16
 1800358:	8c05883a 	add	r2,r17,r16
 180035c:	a00d883a 	mov	r6,r20
 1800360:	a021883a 	mov	r16,r20
 1800364:	90800015 	stw	r2,0(r18)
 1800368:	90c00215 	stw	r3,8(r18)
 180036c:	94400415 	stw	r17,16(r18)
 1800370:	94c00515 	stw	r19,20(r18)
 1800374:	91000017 	ldw	r4,0(r18)
 1800378:	b80b883a 	mov	r5,r23
 180037c:	a023883a 	mov	r17,r20
 1800380:	1800f040 	call	1800f04 <memmove>
 1800384:	90c00217 	ldw	r3,8(r18)
 1800388:	90800017 	ldw	r2,0(r18)
 180038c:	a027883a 	mov	r19,r20
 1800390:	1c07c83a 	sub	r3,r3,r16
 1800394:	1405883a 	add	r2,r2,r16
 1800398:	90c00215 	stw	r3,8(r18)
 180039c:	a021883a 	mov	r16,r20
 18003a0:	90800015 	stw	r2,0(r18)
 18003a4:	b0800217 	ldw	r2,8(r22)
 18003a8:	1405c83a 	sub	r2,r2,r16
 18003ac:	b0800215 	stw	r2,8(r22)
 18003b0:	103fa826 	beq	r2,zero,1800254 <__sfvwrite_r+0xb0>
 18003b4:	a469c83a 	sub	r20,r20,r17
 18003b8:	91c0030b 	ldhu	r7,12(r18)
 18003bc:	bcef883a 	add	r23,r23,r19
 18003c0:	a03fbe1e 	bne	r20,zero,18002bc <__sfvwrite_r+0x118>
 18003c4:	adc00017 	ldw	r23,0(r21)
 18003c8:	ad000117 	ldw	r20,4(r21)
 18003cc:	ad400204 	addi	r21,r21,8
 18003d0:	003fb906 	br	18002b8 <__sfvwrite_r+0x114>
 18003d4:	ac400017 	ldw	r17,0(r21)
 18003d8:	ac000117 	ldw	r16,4(r21)
 18003dc:	ad400204 	addi	r21,r21,8
 18003e0:	003f8a06 	br	180020c <__sfvwrite_r+0x68>
 18003e4:	91400417 	ldw	r5,16(r18)
 18003e8:	e009883a 	mov	r4,fp
 18003ec:	1801da00 	call	1801da0 <_free_r>
 18003f0:	00800304 	movi	r2,12
 18003f4:	e0800015 	stw	r2,0(fp)
 18003f8:	9080030b 	ldhu	r2,12(r18)
 18003fc:	013fffc4 	movi	r4,-1
 1800400:	10801014 	ori	r2,r2,64
 1800404:	9080030d 	sth	r2,12(r18)
 1800408:	003f9306 	br	1800258 <__sfvwrite_r+0xb4>
 180040c:	0027883a 	mov	r19,zero
 1800410:	002f883a 	mov	r23,zero
 1800414:	d8000015 	stw	zero,0(sp)
 1800418:	0029883a 	mov	r20,zero
 180041c:	98001e26 	beq	r19,zero,1800498 <__sfvwrite_r+0x2f4>
 1800420:	d8c00017 	ldw	r3,0(sp)
 1800424:	1804c03a 	cmpne	r2,r3,zero
 1800428:	10005e26 	beq	r2,zero,18005a4 <__sfvwrite_r+0x400>
 180042c:	9821883a 	mov	r16,r19
 1800430:	a4c0012e 	bgeu	r20,r19,1800438 <__sfvwrite_r+0x294>
 1800434:	a021883a 	mov	r16,r20
 1800438:	91000017 	ldw	r4,0(r18)
 180043c:	90800417 	ldw	r2,16(r18)
 1800440:	91800217 	ldw	r6,8(r18)
 1800444:	91c00517 	ldw	r7,20(r18)
 1800448:	1100022e 	bgeu	r2,r4,1800454 <__sfvwrite_r+0x2b0>
 180044c:	31e3883a 	add	r17,r6,r7
 1800450:	8c001616 	blt	r17,r16,18004ac <__sfvwrite_r+0x308>
 1800454:	81c03816 	blt	r16,r7,1800538 <__sfvwrite_r+0x394>
 1800458:	90c00917 	ldw	r3,36(r18)
 180045c:	91400717 	ldw	r5,28(r18)
 1800460:	e009883a 	mov	r4,fp
 1800464:	b80d883a 	mov	r6,r23
 1800468:	183ee83a 	callr	r3
 180046c:	1023883a 	mov	r17,r2
 1800470:	00bfe10e 	bge	zero,r2,18003f8 <__sfvwrite_r+0x254>
 1800474:	a469c83a 	sub	r20,r20,r17
 1800478:	a0001826 	beq	r20,zero,18004dc <__sfvwrite_r+0x338>
 180047c:	b0800217 	ldw	r2,8(r22)
 1800480:	1445c83a 	sub	r2,r2,r17
 1800484:	b0800215 	stw	r2,8(r22)
 1800488:	103f7226 	beq	r2,zero,1800254 <__sfvwrite_r+0xb0>
 180048c:	9c67c83a 	sub	r19,r19,r17
 1800490:	bc6f883a 	add	r23,r23,r17
 1800494:	983fe21e 	bne	r19,zero,1800420 <__sfvwrite_r+0x27c>
 1800498:	adc00017 	ldw	r23,0(r21)
 180049c:	acc00117 	ldw	r19,4(r21)
 18004a0:	ad400204 	addi	r21,r21,8
 18004a4:	d8000015 	stw	zero,0(sp)
 18004a8:	003fdc06 	br	180041c <__sfvwrite_r+0x278>
 18004ac:	b80b883a 	mov	r5,r23
 18004b0:	880d883a 	mov	r6,r17
 18004b4:	1800f040 	call	1800f04 <memmove>
 18004b8:	90c00017 	ldw	r3,0(r18)
 18004bc:	e009883a 	mov	r4,fp
 18004c0:	900b883a 	mov	r5,r18
 18004c4:	1c47883a 	add	r3,r3,r17
 18004c8:	90c00015 	stw	r3,0(r18)
 18004cc:	18017840 	call	1801784 <_fflush_r>
 18004d0:	103fc91e 	bne	r2,zero,18003f8 <__sfvwrite_r+0x254>
 18004d4:	a469c83a 	sub	r20,r20,r17
 18004d8:	a03fe81e 	bne	r20,zero,180047c <__sfvwrite_r+0x2d8>
 18004dc:	e009883a 	mov	r4,fp
 18004e0:	900b883a 	mov	r5,r18
 18004e4:	18017840 	call	1801784 <_fflush_r>
 18004e8:	103fc31e 	bne	r2,zero,18003f8 <__sfvwrite_r+0x254>
 18004ec:	d8000015 	stw	zero,0(sp)
 18004f0:	003fe206 	br	180047c <__sfvwrite_r+0x2d8>
 18004f4:	91000017 	ldw	r4,0(r18)
 18004f8:	90800417 	ldw	r2,16(r18)
 18004fc:	1100022e 	bgeu	r2,r4,1800508 <__sfvwrite_r+0x364>
 1800500:	8023883a 	mov	r17,r16
 1800504:	85003136 	bltu	r16,r20,18005cc <__sfvwrite_r+0x428>
 1800508:	91c00517 	ldw	r7,20(r18)
 180050c:	a1c01836 	bltu	r20,r7,1800570 <__sfvwrite_r+0x3cc>
 1800510:	90c00917 	ldw	r3,36(r18)
 1800514:	91400717 	ldw	r5,28(r18)
 1800518:	e009883a 	mov	r4,fp
 180051c:	b80d883a 	mov	r6,r23
 1800520:	183ee83a 	callr	r3
 1800524:	1021883a 	mov	r16,r2
 1800528:	00bfb30e 	bge	zero,r2,18003f8 <__sfvwrite_r+0x254>
 180052c:	1023883a 	mov	r17,r2
 1800530:	1027883a 	mov	r19,r2
 1800534:	003f9b06 	br	18003a4 <__sfvwrite_r+0x200>
 1800538:	b80b883a 	mov	r5,r23
 180053c:	800d883a 	mov	r6,r16
 1800540:	1800f040 	call	1800f04 <memmove>
 1800544:	90c00217 	ldw	r3,8(r18)
 1800548:	90800017 	ldw	r2,0(r18)
 180054c:	8023883a 	mov	r17,r16
 1800550:	1c07c83a 	sub	r3,r3,r16
 1800554:	1405883a 	add	r2,r2,r16
 1800558:	90c00215 	stw	r3,8(r18)
 180055c:	90800015 	stw	r2,0(r18)
 1800560:	003fc406 	br	1800474 <__sfvwrite_r+0x2d0>
 1800564:	a00d883a 	mov	r6,r20
 1800568:	a021883a 	mov	r16,r20
 180056c:	003f8106 	br	1800374 <__sfvwrite_r+0x1d0>
 1800570:	b80b883a 	mov	r5,r23
 1800574:	a00d883a 	mov	r6,r20
 1800578:	1800f040 	call	1800f04 <memmove>
 180057c:	90c00217 	ldw	r3,8(r18)
 1800580:	90800017 	ldw	r2,0(r18)
 1800584:	a021883a 	mov	r16,r20
 1800588:	1d07c83a 	sub	r3,r3,r20
 180058c:	1505883a 	add	r2,r2,r20
 1800590:	a023883a 	mov	r17,r20
 1800594:	a027883a 	mov	r19,r20
 1800598:	90c00215 	stw	r3,8(r18)
 180059c:	90800015 	stw	r2,0(r18)
 18005a0:	003f8006 	br	18003a4 <__sfvwrite_r+0x200>
 18005a4:	b809883a 	mov	r4,r23
 18005a8:	01400284 	movi	r5,10
 18005ac:	980d883a 	mov	r6,r19
 18005b0:	1800d800 	call	1800d80 <memchr>
 18005b4:	10001726 	beq	r2,zero,1800614 <__sfvwrite_r+0x470>
 18005b8:	15c5c83a 	sub	r2,r2,r23
 18005bc:	15000044 	addi	r20,r2,1
 18005c0:	00800044 	movi	r2,1
 18005c4:	d8800015 	stw	r2,0(sp)
 18005c8:	003f9806 	br	180042c <__sfvwrite_r+0x288>
 18005cc:	b80b883a 	mov	r5,r23
 18005d0:	800d883a 	mov	r6,r16
 18005d4:	1800f040 	call	1800f04 <memmove>
 18005d8:	90c00017 	ldw	r3,0(r18)
 18005dc:	e009883a 	mov	r4,fp
 18005e0:	900b883a 	mov	r5,r18
 18005e4:	1c07883a 	add	r3,r3,r16
 18005e8:	90c00015 	stw	r3,0(r18)
 18005ec:	8027883a 	mov	r19,r16
 18005f0:	18017840 	call	1801784 <_fflush_r>
 18005f4:	103f6b26 	beq	r2,zero,18003a4 <__sfvwrite_r+0x200>
 18005f8:	003f7f06 	br	18003f8 <__sfvwrite_r+0x254>
 18005fc:	400b883a 	mov	r5,r8
 1800600:	e009883a 	mov	r4,fp
 1800604:	1800fe40 	call	1800fe4 <_realloc_r>
 1800608:	103f7626 	beq	r2,zero,18003e4 <__sfvwrite_r+0x240>
 180060c:	1023883a 	mov	r17,r2
 1800610:	003f5006 	br	1800354 <__sfvwrite_r+0x1b0>
 1800614:	00c00044 	movi	r3,1
 1800618:	9d000044 	addi	r20,r19,1
 180061c:	d8c00015 	stw	r3,0(sp)
 1800620:	003f8206 	br	180042c <__sfvwrite_r+0x288>
 1800624:	9080030b 	ldhu	r2,12(r18)
 1800628:	00c00244 	movi	r3,9
 180062c:	013fffc4 	movi	r4,-1
 1800630:	10801014 	ori	r2,r2,64
 1800634:	9080030d 	sth	r2,12(r18)
 1800638:	e0c00015 	stw	r3,0(fp)
 180063c:	003f0606 	br	1800258 <__sfvwrite_r+0xb4>

01800640 <_malloc_r>:
 1800640:	defff604 	addi	sp,sp,-40
 1800644:	28c002c4 	addi	r3,r5,11
 1800648:	00800584 	movi	r2,22
 180064c:	dc800215 	stw	r18,8(sp)
 1800650:	dfc00915 	stw	ra,36(sp)
 1800654:	df000815 	stw	fp,32(sp)
 1800658:	ddc00715 	stw	r23,28(sp)
 180065c:	dd800615 	stw	r22,24(sp)
 1800660:	dd400515 	stw	r21,20(sp)
 1800664:	dd000415 	stw	r20,16(sp)
 1800668:	dcc00315 	stw	r19,12(sp)
 180066c:	dc400115 	stw	r17,4(sp)
 1800670:	dc000015 	stw	r16,0(sp)
 1800674:	2025883a 	mov	r18,r4
 1800678:	10c01236 	bltu	r2,r3,18006c4 <_malloc_r+0x84>
 180067c:	04400404 	movi	r17,16
 1800680:	8940142e 	bgeu	r17,r5,18006d4 <_malloc_r+0x94>
 1800684:	00800304 	movi	r2,12
 1800688:	0007883a 	mov	r3,zero
 180068c:	90800015 	stw	r2,0(r18)
 1800690:	1805883a 	mov	r2,r3
 1800694:	dfc00917 	ldw	ra,36(sp)
 1800698:	df000817 	ldw	fp,32(sp)
 180069c:	ddc00717 	ldw	r23,28(sp)
 18006a0:	dd800617 	ldw	r22,24(sp)
 18006a4:	dd400517 	ldw	r21,20(sp)
 18006a8:	dd000417 	ldw	r20,16(sp)
 18006ac:	dcc00317 	ldw	r19,12(sp)
 18006b0:	dc800217 	ldw	r18,8(sp)
 18006b4:	dc400117 	ldw	r17,4(sp)
 18006b8:	dc000017 	ldw	r16,0(sp)
 18006bc:	dec00a04 	addi	sp,sp,40
 18006c0:	f800283a 	ret
 18006c4:	00bffe04 	movi	r2,-8
 18006c8:	18a2703a 	and	r17,r3,r2
 18006cc:	883fed16 	blt	r17,zero,1800684 <_malloc_r+0x44>
 18006d0:	897fec36 	bltu	r17,r5,1800684 <_malloc_r+0x44>
 18006d4:	9009883a 	mov	r4,r18
 18006d8:	1802f240 	call	1802f24 <__malloc_lock>
 18006dc:	00807dc4 	movi	r2,503
 18006e0:	14402b2e 	bgeu	r2,r17,1800790 <_malloc_r+0x150>
 18006e4:	8806d27a 	srli	r3,r17,9
 18006e8:	18003f1e 	bne	r3,zero,18007e8 <_malloc_r+0x1a8>
 18006ec:	880cd0fa 	srli	r6,r17,3
 18006f0:	300490fa 	slli	r2,r6,3
 18006f4:	02c06074 	movhi	r11,385
 18006f8:	5ae6ea04 	addi	r11,r11,-25688
 18006fc:	12cb883a 	add	r5,r2,r11
 1800700:	2c000317 	ldw	r16,12(r5)
 1800704:	580f883a 	mov	r7,r11
 1800708:	2c00041e 	bne	r5,r16,180071c <_malloc_r+0xdc>
 180070c:	00000a06 	br	1800738 <_malloc_r+0xf8>
 1800710:	1800860e 	bge	r3,zero,180092c <_malloc_r+0x2ec>
 1800714:	84000317 	ldw	r16,12(r16)
 1800718:	2c000726 	beq	r5,r16,1800738 <_malloc_r+0xf8>
 180071c:	80800117 	ldw	r2,4(r16)
 1800720:	00ffff04 	movi	r3,-4
 1800724:	10c8703a 	and	r4,r2,r3
 1800728:	2447c83a 	sub	r3,r4,r17
 180072c:	008003c4 	movi	r2,15
 1800730:	10fff70e 	bge	r2,r3,1800710 <_malloc_r+0xd0>
 1800734:	31bfffc4 	addi	r6,r6,-1
 1800738:	32400044 	addi	r9,r6,1
 180073c:	02806074 	movhi	r10,385
 1800740:	52a6ec04 	addi	r10,r10,-25680
 1800744:	54000217 	ldw	r16,8(r10)
 1800748:	8280a026 	beq	r16,r10,18009cc <_malloc_r+0x38c>
 180074c:	80800117 	ldw	r2,4(r16)
 1800750:	00ffff04 	movi	r3,-4
 1800754:	10ca703a 	and	r5,r2,r3
 1800758:	2c4dc83a 	sub	r6,r5,r17
 180075c:	008003c4 	movi	r2,15
 1800760:	11808316 	blt	r2,r6,1800970 <_malloc_r+0x330>
 1800764:	52800315 	stw	r10,12(r10)
 1800768:	52800215 	stw	r10,8(r10)
 180076c:	30002916 	blt	r6,zero,1800814 <_malloc_r+0x1d4>
 1800770:	8147883a 	add	r3,r16,r5
 1800774:	18800117 	ldw	r2,4(r3)
 1800778:	9009883a 	mov	r4,r18
 180077c:	10800054 	ori	r2,r2,1
 1800780:	18800115 	stw	r2,4(r3)
 1800784:	1802f440 	call	1802f44 <__malloc_unlock>
 1800788:	80c00204 	addi	r3,r16,8
 180078c:	003fc006 	br	1800690 <_malloc_r+0x50>
 1800790:	02c06074 	movhi	r11,385
 1800794:	5ae6ea04 	addi	r11,r11,-25688
 1800798:	8ac5883a 	add	r2,r17,r11
 180079c:	14000317 	ldw	r16,12(r2)
 18007a0:	580f883a 	mov	r7,r11
 18007a4:	8806d0fa 	srli	r3,r17,3
 18007a8:	14006c26 	beq	r2,r16,180095c <_malloc_r+0x31c>
 18007ac:	80c00117 	ldw	r3,4(r16)
 18007b0:	00bfff04 	movi	r2,-4
 18007b4:	81800317 	ldw	r6,12(r16)
 18007b8:	1886703a 	and	r3,r3,r2
 18007bc:	80c7883a 	add	r3,r16,r3
 18007c0:	18800117 	ldw	r2,4(r3)
 18007c4:	81400217 	ldw	r5,8(r16)
 18007c8:	9009883a 	mov	r4,r18
 18007cc:	10800054 	ori	r2,r2,1
 18007d0:	18800115 	stw	r2,4(r3)
 18007d4:	31400215 	stw	r5,8(r6)
 18007d8:	29800315 	stw	r6,12(r5)
 18007dc:	1802f440 	call	1802f44 <__malloc_unlock>
 18007e0:	80c00204 	addi	r3,r16,8
 18007e4:	003faa06 	br	1800690 <_malloc_r+0x50>
 18007e8:	00800104 	movi	r2,4
 18007ec:	10c0052e 	bgeu	r2,r3,1800804 <_malloc_r+0x1c4>
 18007f0:	00800504 	movi	r2,20
 18007f4:	10c07836 	bltu	r2,r3,18009d8 <_malloc_r+0x398>
 18007f8:	198016c4 	addi	r6,r3,91
 18007fc:	300490fa 	slli	r2,r6,3
 1800800:	003fbc06 	br	18006f4 <_malloc_r+0xb4>
 1800804:	8804d1ba 	srli	r2,r17,6
 1800808:	11800e04 	addi	r6,r2,56
 180080c:	300490fa 	slli	r2,r6,3
 1800810:	003fb806 	br	18006f4 <_malloc_r+0xb4>
 1800814:	00807fc4 	movi	r2,511
 1800818:	1140bb36 	bltu	r2,r5,1800b08 <_malloc_r+0x4c8>
 180081c:	2806d0fa 	srli	r3,r5,3
 1800820:	573ffe04 	addi	fp,r10,-8
 1800824:	00800044 	movi	r2,1
 1800828:	180890fa 	slli	r4,r3,3
 180082c:	1807d0ba 	srai	r3,r3,2
 1800830:	e1c00117 	ldw	r7,4(fp)
 1800834:	5909883a 	add	r4,r11,r4
 1800838:	21400217 	ldw	r5,8(r4)
 180083c:	10c4983a 	sll	r2,r2,r3
 1800840:	81000315 	stw	r4,12(r16)
 1800844:	81400215 	stw	r5,8(r16)
 1800848:	388eb03a 	or	r7,r7,r2
 180084c:	2c000315 	stw	r16,12(r5)
 1800850:	24000215 	stw	r16,8(r4)
 1800854:	e1c00115 	stw	r7,4(fp)
 1800858:	4807883a 	mov	r3,r9
 180085c:	4800cd16 	blt	r9,zero,1800b94 <_malloc_r+0x554>
 1800860:	1807d0ba 	srai	r3,r3,2
 1800864:	00800044 	movi	r2,1
 1800868:	10c8983a 	sll	r4,r2,r3
 180086c:	39004436 	bltu	r7,r4,1800980 <_malloc_r+0x340>
 1800870:	21c4703a 	and	r2,r4,r7
 1800874:	10000a1e 	bne	r2,zero,18008a0 <_malloc_r+0x260>
 1800878:	2109883a 	add	r4,r4,r4
 180087c:	00bfff04 	movi	r2,-4
 1800880:	4884703a 	and	r2,r9,r2
 1800884:	3906703a 	and	r3,r7,r4
 1800888:	12400104 	addi	r9,r2,4
 180088c:	1800041e 	bne	r3,zero,18008a0 <_malloc_r+0x260>
 1800890:	2109883a 	add	r4,r4,r4
 1800894:	3904703a 	and	r2,r7,r4
 1800898:	4a400104 	addi	r9,r9,4
 180089c:	103ffc26 	beq	r2,zero,1800890 <_malloc_r+0x250>
 18008a0:	480490fa 	slli	r2,r9,3
 18008a4:	4819883a 	mov	r12,r9
 18008a8:	023fff04 	movi	r8,-4
 18008ac:	589b883a 	add	r13,r11,r2
 18008b0:	6807883a 	mov	r3,r13
 18008b4:	014003c4 	movi	r5,15
 18008b8:	1c000317 	ldw	r16,12(r3)
 18008bc:	1c00041e 	bne	r3,r16,18008d0 <_malloc_r+0x290>
 18008c0:	0000a706 	br	1800b60 <_malloc_r+0x520>
 18008c4:	3000ab0e 	bge	r6,zero,1800b74 <_malloc_r+0x534>
 18008c8:	84000317 	ldw	r16,12(r16)
 18008cc:	1c00a426 	beq	r3,r16,1800b60 <_malloc_r+0x520>
 18008d0:	80800117 	ldw	r2,4(r16)
 18008d4:	1204703a 	and	r2,r2,r8
 18008d8:	144dc83a 	sub	r6,r2,r17
 18008dc:	29bff90e 	bge	r5,r6,18008c4 <_malloc_r+0x284>
 18008e0:	81000317 	ldw	r4,12(r16)
 18008e4:	80c00217 	ldw	r3,8(r16)
 18008e8:	89400054 	ori	r5,r17,1
 18008ec:	8445883a 	add	r2,r16,r17
 18008f0:	20c00215 	stw	r3,8(r4)
 18008f4:	19000315 	stw	r4,12(r3)
 18008f8:	81400115 	stw	r5,4(r16)
 18008fc:	1187883a 	add	r3,r2,r6
 1800900:	31000054 	ori	r4,r6,1
 1800904:	50800315 	stw	r2,12(r10)
 1800908:	50800215 	stw	r2,8(r10)
 180090c:	19800015 	stw	r6,0(r3)
 1800910:	11000115 	stw	r4,4(r2)
 1800914:	12800215 	stw	r10,8(r2)
 1800918:	12800315 	stw	r10,12(r2)
 180091c:	9009883a 	mov	r4,r18
 1800920:	1802f440 	call	1802f44 <__malloc_unlock>
 1800924:	80c00204 	addi	r3,r16,8
 1800928:	003f5906 	br	1800690 <_malloc_r+0x50>
 180092c:	8109883a 	add	r4,r16,r4
 1800930:	20800117 	ldw	r2,4(r4)
 1800934:	80c00217 	ldw	r3,8(r16)
 1800938:	81400317 	ldw	r5,12(r16)
 180093c:	10800054 	ori	r2,r2,1
 1800940:	20800115 	stw	r2,4(r4)
 1800944:	28c00215 	stw	r3,8(r5)
 1800948:	19400315 	stw	r5,12(r3)
 180094c:	9009883a 	mov	r4,r18
 1800950:	1802f440 	call	1802f44 <__malloc_unlock>
 1800954:	80c00204 	addi	r3,r16,8
 1800958:	003f4d06 	br	1800690 <_malloc_r+0x50>
 180095c:	80800204 	addi	r2,r16,8
 1800960:	14000317 	ldw	r16,12(r2)
 1800964:	143f911e 	bne	r2,r16,18007ac <_malloc_r+0x16c>
 1800968:	1a400084 	addi	r9,r3,2
 180096c:	003f7306 	br	180073c <_malloc_r+0xfc>
 1800970:	88c00054 	ori	r3,r17,1
 1800974:	8445883a 	add	r2,r16,r17
 1800978:	80c00115 	stw	r3,4(r16)
 180097c:	003fdf06 	br	18008fc <_malloc_r+0x2bc>
 1800980:	e4000217 	ldw	r16,8(fp)
 1800984:	00bfff04 	movi	r2,-4
 1800988:	80c00117 	ldw	r3,4(r16)
 180098c:	802d883a 	mov	r22,r16
 1800990:	18aa703a 	and	r21,r3,r2
 1800994:	ac401636 	bltu	r21,r17,18009f0 <_malloc_r+0x3b0>
 1800998:	ac49c83a 	sub	r4,r21,r17
 180099c:	008003c4 	movi	r2,15
 18009a0:	1100130e 	bge	r2,r4,18009f0 <_malloc_r+0x3b0>
 18009a4:	88800054 	ori	r2,r17,1
 18009a8:	8447883a 	add	r3,r16,r17
 18009ac:	80800115 	stw	r2,4(r16)
 18009b0:	20800054 	ori	r2,r4,1
 18009b4:	18800115 	stw	r2,4(r3)
 18009b8:	e0c00215 	stw	r3,8(fp)
 18009bc:	9009883a 	mov	r4,r18
 18009c0:	1802f440 	call	1802f44 <__malloc_unlock>
 18009c4:	80c00204 	addi	r3,r16,8
 18009c8:	003f3106 	br	1800690 <_malloc_r+0x50>
 18009cc:	39c00117 	ldw	r7,4(r7)
 18009d0:	573ffe04 	addi	fp,r10,-8
 18009d4:	003fa006 	br	1800858 <_malloc_r+0x218>
 18009d8:	00801504 	movi	r2,84
 18009dc:	10c06736 	bltu	r2,r3,1800b7c <_malloc_r+0x53c>
 18009e0:	8804d33a 	srli	r2,r17,12
 18009e4:	11801b84 	addi	r6,r2,110
 18009e8:	300490fa 	slli	r2,r6,3
 18009ec:	003f4106 	br	18006f4 <_malloc_r+0xb4>
 18009f0:	d0a01217 	ldw	r2,-32696(gp)
 18009f4:	d0e00317 	ldw	r3,-32756(gp)
 18009f8:	053fffc4 	movi	r20,-1
 18009fc:	10800404 	addi	r2,r2,16
 1800a00:	88a7883a 	add	r19,r17,r2
 1800a04:	1d000326 	beq	r3,r20,1800a14 <_malloc_r+0x3d4>
 1800a08:	98c3ffc4 	addi	r3,r19,4095
 1800a0c:	00bc0004 	movi	r2,-4096
 1800a10:	18a6703a 	and	r19,r3,r2
 1800a14:	9009883a 	mov	r4,r18
 1800a18:	980b883a 	mov	r5,r19
 1800a1c:	18015d80 	call	18015d8 <_sbrk_r>
 1800a20:	1009883a 	mov	r4,r2
 1800a24:	15000426 	beq	r2,r20,1800a38 <_malloc_r+0x3f8>
 1800a28:	854b883a 	add	r5,r16,r21
 1800a2c:	1029883a 	mov	r20,r2
 1800a30:	11405a2e 	bgeu	r2,r5,1800b9c <_malloc_r+0x55c>
 1800a34:	87000c26 	beq	r16,fp,1800a68 <_malloc_r+0x428>
 1800a38:	e4000217 	ldw	r16,8(fp)
 1800a3c:	80c00117 	ldw	r3,4(r16)
 1800a40:	00bfff04 	movi	r2,-4
 1800a44:	1884703a 	and	r2,r3,r2
 1800a48:	14400336 	bltu	r2,r17,1800a58 <_malloc_r+0x418>
 1800a4c:	1449c83a 	sub	r4,r2,r17
 1800a50:	008003c4 	movi	r2,15
 1800a54:	113fd316 	blt	r2,r4,18009a4 <_malloc_r+0x364>
 1800a58:	9009883a 	mov	r4,r18
 1800a5c:	1802f440 	call	1802f44 <__malloc_unlock>
 1800a60:	0007883a 	mov	r3,zero
 1800a64:	003f0a06 	br	1800690 <_malloc_r+0x50>
 1800a68:	05c06074 	movhi	r23,385
 1800a6c:	bded3a04 	addi	r23,r23,-19224
 1800a70:	b8800017 	ldw	r2,0(r23)
 1800a74:	988d883a 	add	r6,r19,r2
 1800a78:	b9800015 	stw	r6,0(r23)
 1800a7c:	d0e00317 	ldw	r3,-32756(gp)
 1800a80:	00bfffc4 	movi	r2,-1
 1800a84:	18808e26 	beq	r3,r2,1800cc0 <_malloc_r+0x680>
 1800a88:	2145c83a 	sub	r2,r4,r5
 1800a8c:	3085883a 	add	r2,r6,r2
 1800a90:	b8800015 	stw	r2,0(r23)
 1800a94:	20c001cc 	andi	r3,r4,7
 1800a98:	18005f1e 	bne	r3,zero,1800c18 <_malloc_r+0x5d8>
 1800a9c:	000b883a 	mov	r5,zero
 1800aa0:	a4c5883a 	add	r2,r20,r19
 1800aa4:	1083ffcc 	andi	r2,r2,4095
 1800aa8:	00c40004 	movi	r3,4096
 1800aac:	1887c83a 	sub	r3,r3,r2
 1800ab0:	28e7883a 	add	r19,r5,r3
 1800ab4:	9009883a 	mov	r4,r18
 1800ab8:	980b883a 	mov	r5,r19
 1800abc:	18015d80 	call	18015d8 <_sbrk_r>
 1800ac0:	1007883a 	mov	r3,r2
 1800ac4:	00bfffc4 	movi	r2,-1
 1800ac8:	18807a26 	beq	r3,r2,1800cb4 <_malloc_r+0x674>
 1800acc:	1d05c83a 	sub	r2,r3,r20
 1800ad0:	9885883a 	add	r2,r19,r2
 1800ad4:	10c00054 	ori	r3,r2,1
 1800ad8:	b8800017 	ldw	r2,0(r23)
 1800adc:	a021883a 	mov	r16,r20
 1800ae0:	a0c00115 	stw	r3,4(r20)
 1800ae4:	9885883a 	add	r2,r19,r2
 1800ae8:	b8800015 	stw	r2,0(r23)
 1800aec:	e5000215 	stw	r20,8(fp)
 1800af0:	b7003626 	beq	r22,fp,1800bcc <_malloc_r+0x58c>
 1800af4:	018003c4 	movi	r6,15
 1800af8:	35404b36 	bltu	r6,r21,1800c28 <_malloc_r+0x5e8>
 1800afc:	00800044 	movi	r2,1
 1800b00:	a0800115 	stw	r2,4(r20)
 1800b04:	003fcd06 	br	1800a3c <_malloc_r+0x3fc>
 1800b08:	2808d27a 	srli	r4,r5,9
 1800b0c:	2000371e 	bne	r4,zero,1800bec <_malloc_r+0x5ac>
 1800b10:	2808d0fa 	srli	r4,r5,3
 1800b14:	200690fa 	slli	r3,r4,3
 1800b18:	1ad1883a 	add	r8,r3,r11
 1800b1c:	41800217 	ldw	r6,8(r8)
 1800b20:	41805b26 	beq	r8,r6,1800c90 <_malloc_r+0x650>
 1800b24:	30800117 	ldw	r2,4(r6)
 1800b28:	00ffff04 	movi	r3,-4
 1800b2c:	10c4703a 	and	r2,r2,r3
 1800b30:	2880022e 	bgeu	r5,r2,1800b3c <_malloc_r+0x4fc>
 1800b34:	31800217 	ldw	r6,8(r6)
 1800b38:	41bffa1e 	bne	r8,r6,1800b24 <_malloc_r+0x4e4>
 1800b3c:	32000317 	ldw	r8,12(r6)
 1800b40:	39c00117 	ldw	r7,4(r7)
 1800b44:	82000315 	stw	r8,12(r16)
 1800b48:	81800215 	stw	r6,8(r16)
 1800b4c:	07006074 	movhi	fp,385
 1800b50:	e726ea04 	addi	fp,fp,-25688
 1800b54:	34000315 	stw	r16,12(r6)
 1800b58:	44000215 	stw	r16,8(r8)
 1800b5c:	003f3e06 	br	1800858 <_malloc_r+0x218>
 1800b60:	63000044 	addi	r12,r12,1
 1800b64:	608000cc 	andi	r2,r12,3
 1800b68:	10005d26 	beq	r2,zero,1800ce0 <_malloc_r+0x6a0>
 1800b6c:	18c00204 	addi	r3,r3,8
 1800b70:	003f5106 	br	18008b8 <_malloc_r+0x278>
 1800b74:	8089883a 	add	r4,r16,r2
 1800b78:	003f6d06 	br	1800930 <_malloc_r+0x2f0>
 1800b7c:	00805504 	movi	r2,340
 1800b80:	10c02036 	bltu	r2,r3,1800c04 <_malloc_r+0x5c4>
 1800b84:	8804d3fa 	srli	r2,r17,15
 1800b88:	11801dc4 	addi	r6,r2,119
 1800b8c:	300490fa 	slli	r2,r6,3
 1800b90:	003ed806 	br	18006f4 <_malloc_r+0xb4>
 1800b94:	48c000c4 	addi	r3,r9,3
 1800b98:	003f3106 	br	1800860 <_malloc_r+0x220>
 1800b9c:	05c06074 	movhi	r23,385
 1800ba0:	bded3a04 	addi	r23,r23,-19224
 1800ba4:	b8800017 	ldw	r2,0(r23)
 1800ba8:	988d883a 	add	r6,r19,r2
 1800bac:	b9800015 	stw	r6,0(r23)
 1800bb0:	293fb21e 	bne	r5,r4,1800a7c <_malloc_r+0x43c>
 1800bb4:	2083ffcc 	andi	r2,r4,4095
 1800bb8:	103fb01e 	bne	r2,zero,1800a7c <_malloc_r+0x43c>
 1800bbc:	e4000217 	ldw	r16,8(fp)
 1800bc0:	9d45883a 	add	r2,r19,r21
 1800bc4:	10800054 	ori	r2,r2,1
 1800bc8:	80800115 	stw	r2,4(r16)
 1800bcc:	b8c00017 	ldw	r3,0(r23)
 1800bd0:	d0a01317 	ldw	r2,-32692(gp)
 1800bd4:	10c0012e 	bgeu	r2,r3,1800bdc <_malloc_r+0x59c>
 1800bd8:	d0e01315 	stw	r3,-32692(gp)
 1800bdc:	d0a01417 	ldw	r2,-32688(gp)
 1800be0:	10ff962e 	bgeu	r2,r3,1800a3c <_malloc_r+0x3fc>
 1800be4:	d0e01415 	stw	r3,-32688(gp)
 1800be8:	003f9406 	br	1800a3c <_malloc_r+0x3fc>
 1800bec:	00800104 	movi	r2,4
 1800bf0:	11001e36 	bltu	r2,r4,1800c6c <_malloc_r+0x62c>
 1800bf4:	2804d1ba 	srli	r2,r5,6
 1800bf8:	11000e04 	addi	r4,r2,56
 1800bfc:	200690fa 	slli	r3,r4,3
 1800c00:	003fc506 	br	1800b18 <_malloc_r+0x4d8>
 1800c04:	00815504 	movi	r2,1364
 1800c08:	10c01d2e 	bgeu	r2,r3,1800c80 <_malloc_r+0x640>
 1800c0c:	01801f84 	movi	r6,126
 1800c10:	0080fc04 	movi	r2,1008
 1800c14:	003eb706 	br	18006f4 <_malloc_r+0xb4>
 1800c18:	00800204 	movi	r2,8
 1800c1c:	10cbc83a 	sub	r5,r2,r3
 1800c20:	2169883a 	add	r20,r4,r5
 1800c24:	003f9e06 	br	1800aa0 <_malloc_r+0x460>
 1800c28:	00bffe04 	movi	r2,-8
 1800c2c:	a93ffd04 	addi	r4,r21,-12
 1800c30:	2088703a 	and	r4,r4,r2
 1800c34:	b10b883a 	add	r5,r22,r4
 1800c38:	00c00144 	movi	r3,5
 1800c3c:	28c00215 	stw	r3,8(r5)
 1800c40:	28c00115 	stw	r3,4(r5)
 1800c44:	b0800117 	ldw	r2,4(r22)
 1800c48:	1080004c 	andi	r2,r2,1
 1800c4c:	2084b03a 	or	r2,r4,r2
 1800c50:	b0800115 	stw	r2,4(r22)
 1800c54:	313fdd2e 	bgeu	r6,r4,1800bcc <_malloc_r+0x58c>
 1800c58:	b1400204 	addi	r5,r22,8
 1800c5c:	9009883a 	mov	r4,r18
 1800c60:	1801da00 	call	1801da0 <_free_r>
 1800c64:	e4000217 	ldw	r16,8(fp)
 1800c68:	003fd806 	br	1800bcc <_malloc_r+0x58c>
 1800c6c:	00800504 	movi	r2,20
 1800c70:	11001536 	bltu	r2,r4,1800cc8 <_malloc_r+0x688>
 1800c74:	210016c4 	addi	r4,r4,91
 1800c78:	200690fa 	slli	r3,r4,3
 1800c7c:	003fa606 	br	1800b18 <_malloc_r+0x4d8>
 1800c80:	8804d4ba 	srli	r2,r17,18
 1800c84:	11801f04 	addi	r6,r2,124
 1800c88:	300490fa 	slli	r2,r6,3
 1800c8c:	003e9906 	br	18006f4 <_malloc_r+0xb4>
 1800c90:	2009d0ba 	srai	r4,r4,2
 1800c94:	01406074 	movhi	r5,385
 1800c98:	2966ea04 	addi	r5,r5,-25688
 1800c9c:	00c00044 	movi	r3,1
 1800ca0:	28800117 	ldw	r2,4(r5)
 1800ca4:	1906983a 	sll	r3,r3,r4
 1800ca8:	10c4b03a 	or	r2,r2,r3
 1800cac:	28800115 	stw	r2,4(r5)
 1800cb0:	003fa306 	br	1800b40 <_malloc_r+0x500>
 1800cb4:	0027883a 	mov	r19,zero
 1800cb8:	00c00044 	movi	r3,1
 1800cbc:	003f8606 	br	1800ad8 <_malloc_r+0x498>
 1800cc0:	d1200315 	stw	r4,-32756(gp)
 1800cc4:	003f7306 	br	1800a94 <_malloc_r+0x454>
 1800cc8:	00801504 	movi	r2,84
 1800ccc:	11001936 	bltu	r2,r4,1800d34 <_malloc_r+0x6f4>
 1800cd0:	2804d33a 	srli	r2,r5,12
 1800cd4:	11001b84 	addi	r4,r2,110
 1800cd8:	200690fa 	slli	r3,r4,3
 1800cdc:	003f8e06 	br	1800b18 <_malloc_r+0x4d8>
 1800ce0:	480b883a 	mov	r5,r9
 1800ce4:	6807883a 	mov	r3,r13
 1800ce8:	288000cc 	andi	r2,r5,3
 1800cec:	18fffe04 	addi	r3,r3,-8
 1800cf0:	297fffc4 	addi	r5,r5,-1
 1800cf4:	10001526 	beq	r2,zero,1800d4c <_malloc_r+0x70c>
 1800cf8:	18800217 	ldw	r2,8(r3)
 1800cfc:	10fffa26 	beq	r2,r3,1800ce8 <_malloc_r+0x6a8>
 1800d00:	2109883a 	add	r4,r4,r4
 1800d04:	393f1e36 	bltu	r7,r4,1800980 <_malloc_r+0x340>
 1800d08:	203f1d26 	beq	r4,zero,1800980 <_malloc_r+0x340>
 1800d0c:	21c4703a 	and	r2,r4,r7
 1800d10:	10000226 	beq	r2,zero,1800d1c <_malloc_r+0x6dc>
 1800d14:	6013883a 	mov	r9,r12
 1800d18:	003ee106 	br	18008a0 <_malloc_r+0x260>
 1800d1c:	2109883a 	add	r4,r4,r4
 1800d20:	3904703a 	and	r2,r7,r4
 1800d24:	63000104 	addi	r12,r12,4
 1800d28:	103ffc26 	beq	r2,zero,1800d1c <_malloc_r+0x6dc>
 1800d2c:	6013883a 	mov	r9,r12
 1800d30:	003edb06 	br	18008a0 <_malloc_r+0x260>
 1800d34:	00805504 	movi	r2,340
 1800d38:	11000836 	bltu	r2,r4,1800d5c <_malloc_r+0x71c>
 1800d3c:	2804d3fa 	srli	r2,r5,15
 1800d40:	11001dc4 	addi	r4,r2,119
 1800d44:	200690fa 	slli	r3,r4,3
 1800d48:	003f7306 	br	1800b18 <_malloc_r+0x4d8>
 1800d4c:	0104303a 	nor	r2,zero,r4
 1800d50:	388e703a 	and	r7,r7,r2
 1800d54:	e1c00115 	stw	r7,4(fp)
 1800d58:	003fe906 	br	1800d00 <_malloc_r+0x6c0>
 1800d5c:	00815504 	movi	r2,1364
 1800d60:	1100032e 	bgeu	r2,r4,1800d70 <_malloc_r+0x730>
 1800d64:	01001f84 	movi	r4,126
 1800d68:	00c0fc04 	movi	r3,1008
 1800d6c:	003f6a06 	br	1800b18 <_malloc_r+0x4d8>
 1800d70:	2804d4ba 	srli	r2,r5,18
 1800d74:	11001f04 	addi	r4,r2,124
 1800d78:	200690fa 	slli	r3,r4,3
 1800d7c:	003f6606 	br	1800b18 <_malloc_r+0x4d8>

01800d80 <memchr>:
 1800d80:	008000c4 	movi	r2,3
 1800d84:	29403fcc 	andi	r5,r5,255
 1800d88:	2007883a 	mov	r3,r4
 1800d8c:	1180022e 	bgeu	r2,r6,1800d98 <memchr+0x18>
 1800d90:	2084703a 	and	r2,r4,r2
 1800d94:	10000b26 	beq	r2,zero,1800dc4 <memchr+0x44>
 1800d98:	313fffc4 	addi	r4,r6,-1
 1800d9c:	3000051e 	bne	r6,zero,1800db4 <memchr+0x34>
 1800da0:	00002c06 	br	1800e54 <memchr+0xd4>
 1800da4:	213fffc4 	addi	r4,r4,-1
 1800da8:	00bfffc4 	movi	r2,-1
 1800dac:	18c00044 	addi	r3,r3,1
 1800db0:	20802826 	beq	r4,r2,1800e54 <memchr+0xd4>
 1800db4:	18800003 	ldbu	r2,0(r3)
 1800db8:	28bffa1e 	bne	r5,r2,1800da4 <memchr+0x24>
 1800dbc:	1805883a 	mov	r2,r3
 1800dc0:	f800283a 	ret
 1800dc4:	0011883a 	mov	r8,zero
 1800dc8:	0007883a 	mov	r3,zero
 1800dcc:	01c00104 	movi	r7,4
 1800dd0:	4004923a 	slli	r2,r8,8
 1800dd4:	18c00044 	addi	r3,r3,1
 1800dd8:	1151883a 	add	r8,r2,r5
 1800ddc:	19fffc1e 	bne	r3,r7,1800dd0 <memchr+0x50>
 1800de0:	02bfbff4 	movhi	r10,65279
 1800de4:	52bfbfc4 	addi	r10,r10,-257
 1800de8:	02602074 	movhi	r9,32897
 1800dec:	4a602004 	addi	r9,r9,-32640
 1800df0:	02c000c4 	movi	r11,3
 1800df4:	20800017 	ldw	r2,0(r4)
 1800df8:	31bfff04 	addi	r6,r6,-4
 1800dfc:	200f883a 	mov	r7,r4
 1800e00:	1204f03a 	xor	r2,r2,r8
 1800e04:	1287883a 	add	r3,r2,r10
 1800e08:	1a46703a 	and	r3,r3,r9
 1800e0c:	0084303a 	nor	r2,zero,r2
 1800e10:	10c4703a 	and	r2,r2,r3
 1800e14:	10000b26 	beq	r2,zero,1800e44 <memchr+0xc4>
 1800e18:	20800003 	ldbu	r2,0(r4)
 1800e1c:	28800f26 	beq	r5,r2,1800e5c <memchr+0xdc>
 1800e20:	20800043 	ldbu	r2,1(r4)
 1800e24:	21c00044 	addi	r7,r4,1
 1800e28:	28800c26 	beq	r5,r2,1800e5c <memchr+0xdc>
 1800e2c:	20800083 	ldbu	r2,2(r4)
 1800e30:	21c00084 	addi	r7,r4,2
 1800e34:	28800926 	beq	r5,r2,1800e5c <memchr+0xdc>
 1800e38:	208000c3 	ldbu	r2,3(r4)
 1800e3c:	21c000c4 	addi	r7,r4,3
 1800e40:	28800626 	beq	r5,r2,1800e5c <memchr+0xdc>
 1800e44:	21000104 	addi	r4,r4,4
 1800e48:	59bfea36 	bltu	r11,r6,1800df4 <memchr+0x74>
 1800e4c:	2007883a 	mov	r3,r4
 1800e50:	003fd106 	br	1800d98 <memchr+0x18>
 1800e54:	0005883a 	mov	r2,zero
 1800e58:	f800283a 	ret
 1800e5c:	3805883a 	mov	r2,r7
 1800e60:	f800283a 	ret

01800e64 <memcpy>:
 1800e64:	01c003c4 	movi	r7,15
 1800e68:	2007883a 	mov	r3,r4
 1800e6c:	3980032e 	bgeu	r7,r6,1800e7c <memcpy+0x18>
 1800e70:	2904b03a 	or	r2,r5,r4
 1800e74:	108000cc 	andi	r2,r2,3
 1800e78:	10000926 	beq	r2,zero,1800ea0 <memcpy+0x3c>
 1800e7c:	30000626 	beq	r6,zero,1800e98 <memcpy+0x34>
 1800e80:	30cd883a 	add	r6,r6,r3
 1800e84:	28800003 	ldbu	r2,0(r5)
 1800e88:	29400044 	addi	r5,r5,1
 1800e8c:	18800005 	stb	r2,0(r3)
 1800e90:	18c00044 	addi	r3,r3,1
 1800e94:	30fffb1e 	bne	r6,r3,1800e84 <memcpy+0x20>
 1800e98:	2005883a 	mov	r2,r4
 1800e9c:	f800283a 	ret
 1800ea0:	3811883a 	mov	r8,r7
 1800ea4:	200f883a 	mov	r7,r4
 1800ea8:	28c00017 	ldw	r3,0(r5)
 1800eac:	31bffc04 	addi	r6,r6,-16
 1800eb0:	38c00015 	stw	r3,0(r7)
 1800eb4:	28800117 	ldw	r2,4(r5)
 1800eb8:	38800115 	stw	r2,4(r7)
 1800ebc:	28c00217 	ldw	r3,8(r5)
 1800ec0:	38c00215 	stw	r3,8(r7)
 1800ec4:	28800317 	ldw	r2,12(r5)
 1800ec8:	29400404 	addi	r5,r5,16
 1800ecc:	38800315 	stw	r2,12(r7)
 1800ed0:	39c00404 	addi	r7,r7,16
 1800ed4:	41bff436 	bltu	r8,r6,1800ea8 <memcpy+0x44>
 1800ed8:	008000c4 	movi	r2,3
 1800edc:	1180072e 	bgeu	r2,r6,1800efc <memcpy+0x98>
 1800ee0:	1007883a 	mov	r3,r2
 1800ee4:	28800017 	ldw	r2,0(r5)
 1800ee8:	31bfff04 	addi	r6,r6,-4
 1800eec:	29400104 	addi	r5,r5,4
 1800ef0:	38800015 	stw	r2,0(r7)
 1800ef4:	39c00104 	addi	r7,r7,4
 1800ef8:	19bffa36 	bltu	r3,r6,1800ee4 <memcpy+0x80>
 1800efc:	3807883a 	mov	r3,r7
 1800f00:	003fde06 	br	1800e7c <memcpy+0x18>

01800f04 <memmove>:
 1800f04:	2807883a 	mov	r3,r5
 1800f08:	2011883a 	mov	r8,r4
 1800f0c:	29000c2e 	bgeu	r5,r4,1800f40 <memmove+0x3c>
 1800f10:	298f883a 	add	r7,r5,r6
 1800f14:	21c00a2e 	bgeu	r4,r7,1800f40 <memmove+0x3c>
 1800f18:	30000726 	beq	r6,zero,1800f38 <memmove+0x34>
 1800f1c:	2187883a 	add	r3,r4,r6
 1800f20:	198dc83a 	sub	r6,r3,r6
 1800f24:	39ffffc4 	addi	r7,r7,-1
 1800f28:	38800003 	ldbu	r2,0(r7)
 1800f2c:	18ffffc4 	addi	r3,r3,-1
 1800f30:	18800005 	stb	r2,0(r3)
 1800f34:	19bffb1e 	bne	r3,r6,1800f24 <memmove+0x20>
 1800f38:	2005883a 	mov	r2,r4
 1800f3c:	f800283a 	ret
 1800f40:	01c003c4 	movi	r7,15
 1800f44:	39800a36 	bltu	r7,r6,1800f70 <memmove+0x6c>
 1800f48:	303ffb26 	beq	r6,zero,1800f38 <memmove+0x34>
 1800f4c:	400f883a 	mov	r7,r8
 1800f50:	320d883a 	add	r6,r6,r8
 1800f54:	28800003 	ldbu	r2,0(r5)
 1800f58:	29400044 	addi	r5,r5,1
 1800f5c:	38800005 	stb	r2,0(r7)
 1800f60:	39c00044 	addi	r7,r7,1
 1800f64:	39bffb1e 	bne	r7,r6,1800f54 <memmove+0x50>
 1800f68:	2005883a 	mov	r2,r4
 1800f6c:	f800283a 	ret
 1800f70:	1904b03a 	or	r2,r3,r4
 1800f74:	108000cc 	andi	r2,r2,3
 1800f78:	103ff31e 	bne	r2,zero,1800f48 <memmove+0x44>
 1800f7c:	3811883a 	mov	r8,r7
 1800f80:	180b883a 	mov	r5,r3
 1800f84:	200f883a 	mov	r7,r4
 1800f88:	28c00017 	ldw	r3,0(r5)
 1800f8c:	31bffc04 	addi	r6,r6,-16
 1800f90:	38c00015 	stw	r3,0(r7)
 1800f94:	28800117 	ldw	r2,4(r5)
 1800f98:	38800115 	stw	r2,4(r7)
 1800f9c:	28c00217 	ldw	r3,8(r5)
 1800fa0:	38c00215 	stw	r3,8(r7)
 1800fa4:	28800317 	ldw	r2,12(r5)
 1800fa8:	29400404 	addi	r5,r5,16
 1800fac:	38800315 	stw	r2,12(r7)
 1800fb0:	39c00404 	addi	r7,r7,16
 1800fb4:	41bff436 	bltu	r8,r6,1800f88 <memmove+0x84>
 1800fb8:	008000c4 	movi	r2,3
 1800fbc:	1180072e 	bgeu	r2,r6,1800fdc <memmove+0xd8>
 1800fc0:	1007883a 	mov	r3,r2
 1800fc4:	28800017 	ldw	r2,0(r5)
 1800fc8:	31bfff04 	addi	r6,r6,-4
 1800fcc:	29400104 	addi	r5,r5,4
 1800fd0:	38800015 	stw	r2,0(r7)
 1800fd4:	39c00104 	addi	r7,r7,4
 1800fd8:	19bffa36 	bltu	r3,r6,1800fc4 <memmove+0xc0>
 1800fdc:	3811883a 	mov	r8,r7
 1800fe0:	003fd906 	br	1800f48 <memmove+0x44>

01800fe4 <_realloc_r>:
 1800fe4:	defff404 	addi	sp,sp,-48
 1800fe8:	dd800815 	stw	r22,32(sp)
 1800fec:	dc800415 	stw	r18,16(sp)
 1800ff0:	dc400315 	stw	r17,12(sp)
 1800ff4:	dfc00b15 	stw	ra,44(sp)
 1800ff8:	df000a15 	stw	fp,40(sp)
 1800ffc:	ddc00915 	stw	r23,36(sp)
 1801000:	dd400715 	stw	r21,28(sp)
 1801004:	dd000615 	stw	r20,24(sp)
 1801008:	dcc00515 	stw	r19,20(sp)
 180100c:	dc000215 	stw	r16,8(sp)
 1801010:	2825883a 	mov	r18,r5
 1801014:	3023883a 	mov	r17,r6
 1801018:	202d883a 	mov	r22,r4
 180101c:	2800c926 	beq	r5,zero,1801344 <_realloc_r+0x360>
 1801020:	1802f240 	call	1802f24 <__malloc_lock>
 1801024:	943ffe04 	addi	r16,r18,-8
 1801028:	88c002c4 	addi	r3,r17,11
 180102c:	00800584 	movi	r2,22
 1801030:	82000117 	ldw	r8,4(r16)
 1801034:	10c01b2e 	bgeu	r2,r3,18010a4 <_realloc_r+0xc0>
 1801038:	00bffe04 	movi	r2,-8
 180103c:	188e703a 	and	r7,r3,r2
 1801040:	3839883a 	mov	fp,r7
 1801044:	38001a16 	blt	r7,zero,18010b0 <_realloc_r+0xcc>
 1801048:	e4401936 	bltu	fp,r17,18010b0 <_realloc_r+0xcc>
 180104c:	013fff04 	movi	r4,-4
 1801050:	4126703a 	and	r19,r8,r4
 1801054:	99c02616 	blt	r19,r7,18010f0 <_realloc_r+0x10c>
 1801058:	802b883a 	mov	r21,r16
 180105c:	9829883a 	mov	r20,r19
 1801060:	84000204 	addi	r16,r16,8
 1801064:	a80f883a 	mov	r7,r21
 1801068:	a70dc83a 	sub	r6,r20,fp
 180106c:	008003c4 	movi	r2,15
 1801070:	1180c136 	bltu	r2,r6,1801378 <_realloc_r+0x394>
 1801074:	38800117 	ldw	r2,4(r7)
 1801078:	a549883a 	add	r4,r20,r21
 180107c:	1080004c 	andi	r2,r2,1
 1801080:	a084b03a 	or	r2,r20,r2
 1801084:	38800115 	stw	r2,4(r7)
 1801088:	20c00117 	ldw	r3,4(r4)
 180108c:	18c00054 	ori	r3,r3,1
 1801090:	20c00115 	stw	r3,4(r4)
 1801094:	b009883a 	mov	r4,r22
 1801098:	1802f440 	call	1802f44 <__malloc_unlock>
 180109c:	8023883a 	mov	r17,r16
 18010a0:	00000606 	br	18010bc <_realloc_r+0xd8>
 18010a4:	01c00404 	movi	r7,16
 18010a8:	3839883a 	mov	fp,r7
 18010ac:	e47fe72e 	bgeu	fp,r17,180104c <_realloc_r+0x68>
 18010b0:	00800304 	movi	r2,12
 18010b4:	0023883a 	mov	r17,zero
 18010b8:	b0800015 	stw	r2,0(r22)
 18010bc:	8805883a 	mov	r2,r17
 18010c0:	dfc00b17 	ldw	ra,44(sp)
 18010c4:	df000a17 	ldw	fp,40(sp)
 18010c8:	ddc00917 	ldw	r23,36(sp)
 18010cc:	dd800817 	ldw	r22,32(sp)
 18010d0:	dd400717 	ldw	r21,28(sp)
 18010d4:	dd000617 	ldw	r20,24(sp)
 18010d8:	dcc00517 	ldw	r19,20(sp)
 18010dc:	dc800417 	ldw	r18,16(sp)
 18010e0:	dc400317 	ldw	r17,12(sp)
 18010e4:	dc000217 	ldw	r16,8(sp)
 18010e8:	dec00c04 	addi	sp,sp,48
 18010ec:	f800283a 	ret
 18010f0:	00806074 	movhi	r2,385
 18010f4:	10a6ea04 	addi	r2,r2,-25688
 18010f8:	12400217 	ldw	r9,8(r2)
 18010fc:	84cd883a 	add	r6,r16,r19
 1801100:	802b883a 	mov	r21,r16
 1801104:	3240b926 	beq	r6,r9,18013ec <_realloc_r+0x408>
 1801108:	31400117 	ldw	r5,4(r6)
 180110c:	00bfff84 	movi	r2,-2
 1801110:	2884703a 	and	r2,r5,r2
 1801114:	1185883a 	add	r2,r2,r6
 1801118:	10c00117 	ldw	r3,4(r2)
 180111c:	18c0004c 	andi	r3,r3,1
 1801120:	1807003a 	cmpeq	r3,r3,zero
 1801124:	1800a326 	beq	r3,zero,18013b4 <_realloc_r+0x3d0>
 1801128:	2908703a 	and	r4,r5,r4
 180112c:	9929883a 	add	r20,r19,r4
 1801130:	a1c0a30e 	bge	r20,r7,18013c0 <_realloc_r+0x3dc>
 1801134:	4080004c 	andi	r2,r8,1
 1801138:	1000551e 	bne	r2,zero,1801290 <_realloc_r+0x2ac>
 180113c:	80800017 	ldw	r2,0(r16)
 1801140:	80afc83a 	sub	r23,r16,r2
 1801144:	b8c00117 	ldw	r3,4(r23)
 1801148:	00bfff04 	movi	r2,-4
 180114c:	1884703a 	and	r2,r3,r2
 1801150:	30002e26 	beq	r6,zero,180120c <_realloc_r+0x228>
 1801154:	3240b926 	beq	r6,r9,180143c <_realloc_r+0x458>
 1801158:	98a9883a 	add	r20,r19,r2
 180115c:	2509883a 	add	r4,r4,r20
 1801160:	d9000015 	stw	r4,0(sp)
 1801164:	21c02a16 	blt	r4,r7,1801210 <_realloc_r+0x22c>
 1801168:	30800317 	ldw	r2,12(r6)
 180116c:	30c00217 	ldw	r3,8(r6)
 1801170:	01400904 	movi	r5,36
 1801174:	99bfff04 	addi	r6,r19,-4
 1801178:	18800315 	stw	r2,12(r3)
 180117c:	10c00215 	stw	r3,8(r2)
 1801180:	b9000317 	ldw	r4,12(r23)
 1801184:	b8800217 	ldw	r2,8(r23)
 1801188:	b82b883a 	mov	r21,r23
 180118c:	bc000204 	addi	r16,r23,8
 1801190:	20800215 	stw	r2,8(r4)
 1801194:	11000315 	stw	r4,12(r2)
 1801198:	2980e436 	bltu	r5,r6,180152c <_realloc_r+0x548>
 180119c:	008004c4 	movi	r2,19
 18011a0:	9009883a 	mov	r4,r18
 18011a4:	8011883a 	mov	r8,r16
 18011a8:	11800f2e 	bgeu	r2,r6,18011e8 <_realloc_r+0x204>
 18011ac:	90800017 	ldw	r2,0(r18)
 18011b0:	ba000404 	addi	r8,r23,16
 18011b4:	91000204 	addi	r4,r18,8
 18011b8:	b8800215 	stw	r2,8(r23)
 18011bc:	90c00117 	ldw	r3,4(r18)
 18011c0:	008006c4 	movi	r2,27
 18011c4:	b8c00315 	stw	r3,12(r23)
 18011c8:	1180072e 	bgeu	r2,r6,18011e8 <_realloc_r+0x204>
 18011cc:	90c00217 	ldw	r3,8(r18)
 18011d0:	ba000604 	addi	r8,r23,24
 18011d4:	91000404 	addi	r4,r18,16
 18011d8:	b8c00415 	stw	r3,16(r23)
 18011dc:	90800317 	ldw	r2,12(r18)
 18011e0:	b8800515 	stw	r2,20(r23)
 18011e4:	3140e726 	beq	r6,r5,1801584 <_realloc_r+0x5a0>
 18011e8:	20800017 	ldw	r2,0(r4)
 18011ec:	dd000017 	ldw	r20,0(sp)
 18011f0:	b80f883a 	mov	r7,r23
 18011f4:	40800015 	stw	r2,0(r8)
 18011f8:	20c00117 	ldw	r3,4(r4)
 18011fc:	40c00115 	stw	r3,4(r8)
 1801200:	20800217 	ldw	r2,8(r4)
 1801204:	40800215 	stw	r2,8(r8)
 1801208:	003f9706 	br	1801068 <_realloc_r+0x84>
 180120c:	98a9883a 	add	r20,r19,r2
 1801210:	a1c01f16 	blt	r20,r7,1801290 <_realloc_r+0x2ac>
 1801214:	b8c00317 	ldw	r3,12(r23)
 1801218:	b8800217 	ldw	r2,8(r23)
 180121c:	99bfff04 	addi	r6,r19,-4
 1801220:	01400904 	movi	r5,36
 1801224:	b82b883a 	mov	r21,r23
 1801228:	18800215 	stw	r2,8(r3)
 180122c:	10c00315 	stw	r3,12(r2)
 1801230:	bc000204 	addi	r16,r23,8
 1801234:	2980c336 	bltu	r5,r6,1801544 <_realloc_r+0x560>
 1801238:	008004c4 	movi	r2,19
 180123c:	9009883a 	mov	r4,r18
 1801240:	8011883a 	mov	r8,r16
 1801244:	11800f2e 	bgeu	r2,r6,1801284 <_realloc_r+0x2a0>
 1801248:	90800017 	ldw	r2,0(r18)
 180124c:	ba000404 	addi	r8,r23,16
 1801250:	91000204 	addi	r4,r18,8
 1801254:	b8800215 	stw	r2,8(r23)
 1801258:	90c00117 	ldw	r3,4(r18)
 180125c:	008006c4 	movi	r2,27
 1801260:	b8c00315 	stw	r3,12(r23)
 1801264:	1180072e 	bgeu	r2,r6,1801284 <_realloc_r+0x2a0>
 1801268:	90c00217 	ldw	r3,8(r18)
 180126c:	ba000604 	addi	r8,r23,24
 1801270:	91000404 	addi	r4,r18,16
 1801274:	b8c00415 	stw	r3,16(r23)
 1801278:	90800317 	ldw	r2,12(r18)
 180127c:	b8800515 	stw	r2,20(r23)
 1801280:	3140c726 	beq	r6,r5,18015a0 <_realloc_r+0x5bc>
 1801284:	20800017 	ldw	r2,0(r4)
 1801288:	b80f883a 	mov	r7,r23
 180128c:	003fd906 	br	18011f4 <_realloc_r+0x210>
 1801290:	880b883a 	mov	r5,r17
 1801294:	b009883a 	mov	r4,r22
 1801298:	18006400 	call	1800640 <_malloc_r>
 180129c:	1023883a 	mov	r17,r2
 18012a0:	10002526 	beq	r2,zero,1801338 <_realloc_r+0x354>
 18012a4:	80800117 	ldw	r2,4(r16)
 18012a8:	00ffff84 	movi	r3,-2
 18012ac:	893ffe04 	addi	r4,r17,-8
 18012b0:	10c4703a 	and	r2,r2,r3
 18012b4:	8085883a 	add	r2,r16,r2
 18012b8:	20809526 	beq	r4,r2,1801510 <_realloc_r+0x52c>
 18012bc:	99bfff04 	addi	r6,r19,-4
 18012c0:	01c00904 	movi	r7,36
 18012c4:	39804536 	bltu	r7,r6,18013dc <_realloc_r+0x3f8>
 18012c8:	008004c4 	movi	r2,19
 18012cc:	9009883a 	mov	r4,r18
 18012d0:	880b883a 	mov	r5,r17
 18012d4:	11800f2e 	bgeu	r2,r6,1801314 <_realloc_r+0x330>
 18012d8:	90800017 	ldw	r2,0(r18)
 18012dc:	89400204 	addi	r5,r17,8
 18012e0:	91000204 	addi	r4,r18,8
 18012e4:	88800015 	stw	r2,0(r17)
 18012e8:	90c00117 	ldw	r3,4(r18)
 18012ec:	008006c4 	movi	r2,27
 18012f0:	88c00115 	stw	r3,4(r17)
 18012f4:	1180072e 	bgeu	r2,r6,1801314 <_realloc_r+0x330>
 18012f8:	90c00217 	ldw	r3,8(r18)
 18012fc:	89400404 	addi	r5,r17,16
 1801300:	91000404 	addi	r4,r18,16
 1801304:	88c00215 	stw	r3,8(r17)
 1801308:	90800317 	ldw	r2,12(r18)
 180130c:	88800315 	stw	r2,12(r17)
 1801310:	31c09126 	beq	r6,r7,1801558 <_realloc_r+0x574>
 1801314:	20800017 	ldw	r2,0(r4)
 1801318:	28800015 	stw	r2,0(r5)
 180131c:	20c00117 	ldw	r3,4(r4)
 1801320:	28c00115 	stw	r3,4(r5)
 1801324:	20800217 	ldw	r2,8(r4)
 1801328:	28800215 	stw	r2,8(r5)
 180132c:	900b883a 	mov	r5,r18
 1801330:	b009883a 	mov	r4,r22
 1801334:	1801da00 	call	1801da0 <_free_r>
 1801338:	b009883a 	mov	r4,r22
 180133c:	1802f440 	call	1802f44 <__malloc_unlock>
 1801340:	003f5e06 	br	18010bc <_realloc_r+0xd8>
 1801344:	300b883a 	mov	r5,r6
 1801348:	dfc00b17 	ldw	ra,44(sp)
 180134c:	df000a17 	ldw	fp,40(sp)
 1801350:	ddc00917 	ldw	r23,36(sp)
 1801354:	dd800817 	ldw	r22,32(sp)
 1801358:	dd400717 	ldw	r21,28(sp)
 180135c:	dd000617 	ldw	r20,24(sp)
 1801360:	dcc00517 	ldw	r19,20(sp)
 1801364:	dc800417 	ldw	r18,16(sp)
 1801368:	dc400317 	ldw	r17,12(sp)
 180136c:	dc000217 	ldw	r16,8(sp)
 1801370:	dec00c04 	addi	sp,sp,48
 1801374:	18006401 	jmpi	1800640 <_malloc_r>
 1801378:	38800117 	ldw	r2,4(r7)
 180137c:	e54b883a 	add	r5,fp,r21
 1801380:	31000054 	ori	r4,r6,1
 1801384:	1080004c 	andi	r2,r2,1
 1801388:	1704b03a 	or	r2,r2,fp
 180138c:	38800115 	stw	r2,4(r7)
 1801390:	29000115 	stw	r4,4(r5)
 1801394:	2987883a 	add	r3,r5,r6
 1801398:	18800117 	ldw	r2,4(r3)
 180139c:	29400204 	addi	r5,r5,8
 18013a0:	b009883a 	mov	r4,r22
 18013a4:	10800054 	ori	r2,r2,1
 18013a8:	18800115 	stw	r2,4(r3)
 18013ac:	1801da00 	call	1801da0 <_free_r>
 18013b0:	003f3806 	br	1801094 <_realloc_r+0xb0>
 18013b4:	000d883a 	mov	r6,zero
 18013b8:	0009883a 	mov	r4,zero
 18013bc:	003f5d06 	br	1801134 <_realloc_r+0x150>
 18013c0:	30c00217 	ldw	r3,8(r6)
 18013c4:	30800317 	ldw	r2,12(r6)
 18013c8:	800f883a 	mov	r7,r16
 18013cc:	84000204 	addi	r16,r16,8
 18013d0:	10c00215 	stw	r3,8(r2)
 18013d4:	18800315 	stw	r2,12(r3)
 18013d8:	003f2306 	br	1801068 <_realloc_r+0x84>
 18013dc:	8809883a 	mov	r4,r17
 18013e0:	900b883a 	mov	r5,r18
 18013e4:	1800f040 	call	1800f04 <memmove>
 18013e8:	003fd006 	br	180132c <_realloc_r+0x348>
 18013ec:	30800117 	ldw	r2,4(r6)
 18013f0:	e0c00404 	addi	r3,fp,16
 18013f4:	1108703a 	and	r4,r2,r4
 18013f8:	9905883a 	add	r2,r19,r4
 18013fc:	10ff4d16 	blt	r2,r3,1801134 <_realloc_r+0x150>
 1801400:	1705c83a 	sub	r2,r2,fp
 1801404:	870b883a 	add	r5,r16,fp
 1801408:	10800054 	ori	r2,r2,1
 180140c:	28800115 	stw	r2,4(r5)
 1801410:	80c00117 	ldw	r3,4(r16)
 1801414:	00806074 	movhi	r2,385
 1801418:	10a6ea04 	addi	r2,r2,-25688
 180141c:	b009883a 	mov	r4,r22
 1801420:	18c0004c 	andi	r3,r3,1
 1801424:	e0c6b03a 	or	r3,fp,r3
 1801428:	11400215 	stw	r5,8(r2)
 180142c:	80c00115 	stw	r3,4(r16)
 1801430:	1802f440 	call	1802f44 <__malloc_unlock>
 1801434:	84400204 	addi	r17,r16,8
 1801438:	003f2006 	br	18010bc <_realloc_r+0xd8>
 180143c:	98a9883a 	add	r20,r19,r2
 1801440:	2509883a 	add	r4,r4,r20
 1801444:	e0800404 	addi	r2,fp,16
 1801448:	d9000115 	stw	r4,4(sp)
 180144c:	20bf7016 	blt	r4,r2,1801210 <_realloc_r+0x22c>
 1801450:	b8c00317 	ldw	r3,12(r23)
 1801454:	b8800217 	ldw	r2,8(r23)
 1801458:	99bfff04 	addi	r6,r19,-4
 180145c:	01400904 	movi	r5,36
 1801460:	18800215 	stw	r2,8(r3)
 1801464:	10c00315 	stw	r3,12(r2)
 1801468:	bc400204 	addi	r17,r23,8
 180146c:	29804136 	bltu	r5,r6,1801574 <_realloc_r+0x590>
 1801470:	008004c4 	movi	r2,19
 1801474:	9009883a 	mov	r4,r18
 1801478:	880f883a 	mov	r7,r17
 180147c:	11800f2e 	bgeu	r2,r6,18014bc <_realloc_r+0x4d8>
 1801480:	90800017 	ldw	r2,0(r18)
 1801484:	b9c00404 	addi	r7,r23,16
 1801488:	91000204 	addi	r4,r18,8
 180148c:	b8800215 	stw	r2,8(r23)
 1801490:	90c00117 	ldw	r3,4(r18)
 1801494:	008006c4 	movi	r2,27
 1801498:	b8c00315 	stw	r3,12(r23)
 180149c:	1180072e 	bgeu	r2,r6,18014bc <_realloc_r+0x4d8>
 18014a0:	90c00217 	ldw	r3,8(r18)
 18014a4:	b9c00604 	addi	r7,r23,24
 18014a8:	91000404 	addi	r4,r18,16
 18014ac:	b8c00415 	stw	r3,16(r23)
 18014b0:	90800317 	ldw	r2,12(r18)
 18014b4:	b8800515 	stw	r2,20(r23)
 18014b8:	31404026 	beq	r6,r5,18015bc <_realloc_r+0x5d8>
 18014bc:	20800017 	ldw	r2,0(r4)
 18014c0:	38800015 	stw	r2,0(r7)
 18014c4:	20c00117 	ldw	r3,4(r4)
 18014c8:	38c00115 	stw	r3,4(r7)
 18014cc:	20800217 	ldw	r2,8(r4)
 18014d0:	38800215 	stw	r2,8(r7)
 18014d4:	d8c00117 	ldw	r3,4(sp)
 18014d8:	bf0b883a 	add	r5,r23,fp
 18014dc:	b009883a 	mov	r4,r22
 18014e0:	1f05c83a 	sub	r2,r3,fp
 18014e4:	10800054 	ori	r2,r2,1
 18014e8:	28800115 	stw	r2,4(r5)
 18014ec:	b8c00117 	ldw	r3,4(r23)
 18014f0:	00806074 	movhi	r2,385
 18014f4:	10a6ea04 	addi	r2,r2,-25688
 18014f8:	11400215 	stw	r5,8(r2)
 18014fc:	18c0004c 	andi	r3,r3,1
 1801500:	e0c6b03a 	or	r3,fp,r3
 1801504:	b8c00115 	stw	r3,4(r23)
 1801508:	1802f440 	call	1802f44 <__malloc_unlock>
 180150c:	003eeb06 	br	18010bc <_realloc_r+0xd8>
 1801510:	20800117 	ldw	r2,4(r4)
 1801514:	00ffff04 	movi	r3,-4
 1801518:	800f883a 	mov	r7,r16
 180151c:	10c4703a 	and	r2,r2,r3
 1801520:	98a9883a 	add	r20,r19,r2
 1801524:	84000204 	addi	r16,r16,8
 1801528:	003ecf06 	br	1801068 <_realloc_r+0x84>
 180152c:	900b883a 	mov	r5,r18
 1801530:	8009883a 	mov	r4,r16
 1801534:	1800f040 	call	1800f04 <memmove>
 1801538:	dd000017 	ldw	r20,0(sp)
 180153c:	b80f883a 	mov	r7,r23
 1801540:	003ec906 	br	1801068 <_realloc_r+0x84>
 1801544:	900b883a 	mov	r5,r18
 1801548:	8009883a 	mov	r4,r16
 180154c:	1800f040 	call	1800f04 <memmove>
 1801550:	b80f883a 	mov	r7,r23
 1801554:	003ec406 	br	1801068 <_realloc_r+0x84>
 1801558:	90c00417 	ldw	r3,16(r18)
 180155c:	89400604 	addi	r5,r17,24
 1801560:	91000604 	addi	r4,r18,24
 1801564:	88c00415 	stw	r3,16(r17)
 1801568:	90800517 	ldw	r2,20(r18)
 180156c:	88800515 	stw	r2,20(r17)
 1801570:	003f6806 	br	1801314 <_realloc_r+0x330>
 1801574:	900b883a 	mov	r5,r18
 1801578:	8809883a 	mov	r4,r17
 180157c:	1800f040 	call	1800f04 <memmove>
 1801580:	003fd406 	br	18014d4 <_realloc_r+0x4f0>
 1801584:	90c00417 	ldw	r3,16(r18)
 1801588:	91000604 	addi	r4,r18,24
 180158c:	ba000804 	addi	r8,r23,32
 1801590:	b8c00615 	stw	r3,24(r23)
 1801594:	90800517 	ldw	r2,20(r18)
 1801598:	b8800715 	stw	r2,28(r23)
 180159c:	003f1206 	br	18011e8 <_realloc_r+0x204>
 18015a0:	90c00417 	ldw	r3,16(r18)
 18015a4:	91000604 	addi	r4,r18,24
 18015a8:	ba000804 	addi	r8,r23,32
 18015ac:	b8c00615 	stw	r3,24(r23)
 18015b0:	90800517 	ldw	r2,20(r18)
 18015b4:	b8800715 	stw	r2,28(r23)
 18015b8:	003f3206 	br	1801284 <_realloc_r+0x2a0>
 18015bc:	90c00417 	ldw	r3,16(r18)
 18015c0:	91000604 	addi	r4,r18,24
 18015c4:	b9c00804 	addi	r7,r23,32
 18015c8:	b8c00615 	stw	r3,24(r23)
 18015cc:	90800517 	ldw	r2,20(r18)
 18015d0:	b8800715 	stw	r2,28(r23)
 18015d4:	003fb906 	br	18014bc <_realloc_r+0x4d8>

018015d8 <_sbrk_r>:
 18015d8:	defffd04 	addi	sp,sp,-12
 18015dc:	dc000015 	stw	r16,0(sp)
 18015e0:	04006074 	movhi	r16,385
 18015e4:	842d3204 	addi	r16,r16,-19256
 18015e8:	dc400115 	stw	r17,4(sp)
 18015ec:	80000015 	stw	zero,0(r16)
 18015f0:	2023883a 	mov	r17,r4
 18015f4:	2809883a 	mov	r4,r5
 18015f8:	dfc00215 	stw	ra,8(sp)
 18015fc:	18031440 	call	1803144 <sbrk>
 1801600:	1007883a 	mov	r3,r2
 1801604:	00bfffc4 	movi	r2,-1
 1801608:	18800626 	beq	r3,r2,1801624 <_sbrk_r+0x4c>
 180160c:	1805883a 	mov	r2,r3
 1801610:	dfc00217 	ldw	ra,8(sp)
 1801614:	dc400117 	ldw	r17,4(sp)
 1801618:	dc000017 	ldw	r16,0(sp)
 180161c:	dec00304 	addi	sp,sp,12
 1801620:	f800283a 	ret
 1801624:	80800017 	ldw	r2,0(r16)
 1801628:	103ff826 	beq	r2,zero,180160c <_sbrk_r+0x34>
 180162c:	88800015 	stw	r2,0(r17)
 1801630:	1805883a 	mov	r2,r3
 1801634:	dfc00217 	ldw	ra,8(sp)
 1801638:	dc400117 	ldw	r17,4(sp)
 180163c:	dc000017 	ldw	r16,0(sp)
 1801640:	dec00304 	addi	sp,sp,12
 1801644:	f800283a 	ret

01801648 <__swsetup_r>:
 1801648:	00806074 	movhi	r2,385
 180164c:	10ad1d04 	addi	r2,r2,-19340
 1801650:	10c00017 	ldw	r3,0(r2)
 1801654:	defffd04 	addi	sp,sp,-12
 1801658:	dc400115 	stw	r17,4(sp)
 180165c:	dc000015 	stw	r16,0(sp)
 1801660:	dfc00215 	stw	ra,8(sp)
 1801664:	2023883a 	mov	r17,r4
 1801668:	2821883a 	mov	r16,r5
 180166c:	18000226 	beq	r3,zero,1801678 <__swsetup_r+0x30>
 1801670:	18800e17 	ldw	r2,56(r3)
 1801674:	10001f26 	beq	r2,zero,18016f4 <__swsetup_r+0xac>
 1801678:	8100030b 	ldhu	r4,12(r16)
 180167c:	2080020c 	andi	r2,r4,8
 1801680:	10002826 	beq	r2,zero,1801724 <__swsetup_r+0xdc>
 1801684:	81400417 	ldw	r5,16(r16)
 1801688:	28001d26 	beq	r5,zero,1801700 <__swsetup_r+0xb8>
 180168c:	2080004c 	andi	r2,r4,1
 1801690:	1005003a 	cmpeq	r2,r2,zero
 1801694:	10000b26 	beq	r2,zero,18016c4 <__swsetup_r+0x7c>
 1801698:	2080008c 	andi	r2,r4,2
 180169c:	10001226 	beq	r2,zero,18016e8 <__swsetup_r+0xa0>
 18016a0:	0005883a 	mov	r2,zero
 18016a4:	80800215 	stw	r2,8(r16)
 18016a8:	28000b26 	beq	r5,zero,18016d8 <__swsetup_r+0x90>
 18016ac:	0005883a 	mov	r2,zero
 18016b0:	dfc00217 	ldw	ra,8(sp)
 18016b4:	dc400117 	ldw	r17,4(sp)
 18016b8:	dc000017 	ldw	r16,0(sp)
 18016bc:	dec00304 	addi	sp,sp,12
 18016c0:	f800283a 	ret
 18016c4:	80800517 	ldw	r2,20(r16)
 18016c8:	80000215 	stw	zero,8(r16)
 18016cc:	0085c83a 	sub	r2,zero,r2
 18016d0:	80800615 	stw	r2,24(r16)
 18016d4:	283ff51e 	bne	r5,zero,18016ac <__swsetup_r+0x64>
 18016d8:	2080200c 	andi	r2,r4,128
 18016dc:	103ff326 	beq	r2,zero,18016ac <__swsetup_r+0x64>
 18016e0:	00bfffc4 	movi	r2,-1
 18016e4:	003ff206 	br	18016b0 <__swsetup_r+0x68>
 18016e8:	80800517 	ldw	r2,20(r16)
 18016ec:	80800215 	stw	r2,8(r16)
 18016f0:	003fed06 	br	18016a8 <__swsetup_r+0x60>
 18016f4:	1809883a 	mov	r4,r3
 18016f8:	1801a1c0 	call	1801a1c <__sinit>
 18016fc:	003fde06 	br	1801678 <__swsetup_r+0x30>
 1801700:	20c0a00c 	andi	r3,r4,640
 1801704:	00808004 	movi	r2,512
 1801708:	18bfe026 	beq	r3,r2,180168c <__swsetup_r+0x44>
 180170c:	8809883a 	mov	r4,r17
 1801710:	800b883a 	mov	r5,r16
 1801714:	18022340 	call	1802234 <__smakebuf_r>
 1801718:	8100030b 	ldhu	r4,12(r16)
 180171c:	81400417 	ldw	r5,16(r16)
 1801720:	003fda06 	br	180168c <__swsetup_r+0x44>
 1801724:	2080040c 	andi	r2,r4,16
 1801728:	103fed26 	beq	r2,zero,18016e0 <__swsetup_r+0x98>
 180172c:	2080010c 	andi	r2,r4,4
 1801730:	10001226 	beq	r2,zero,180177c <__swsetup_r+0x134>
 1801734:	81400c17 	ldw	r5,48(r16)
 1801738:	28000526 	beq	r5,zero,1801750 <__swsetup_r+0x108>
 180173c:	80801004 	addi	r2,r16,64
 1801740:	28800226 	beq	r5,r2,180174c <__swsetup_r+0x104>
 1801744:	8809883a 	mov	r4,r17
 1801748:	1801da00 	call	1801da0 <_free_r>
 180174c:	80000c15 	stw	zero,48(r16)
 1801750:	8080030b 	ldhu	r2,12(r16)
 1801754:	81400417 	ldw	r5,16(r16)
 1801758:	80000115 	stw	zero,4(r16)
 180175c:	10bff6cc 	andi	r2,r2,65499
 1801760:	8080030d 	sth	r2,12(r16)
 1801764:	81400015 	stw	r5,0(r16)
 1801768:	8080030b 	ldhu	r2,12(r16)
 180176c:	10800214 	ori	r2,r2,8
 1801770:	113fffcc 	andi	r4,r2,65535
 1801774:	8080030d 	sth	r2,12(r16)
 1801778:	003fc306 	br	1801688 <__swsetup_r+0x40>
 180177c:	81400417 	ldw	r5,16(r16)
 1801780:	003ff906 	br	1801768 <__swsetup_r+0x120>

01801784 <_fflush_r>:
 1801784:	defffb04 	addi	sp,sp,-20
 1801788:	dcc00315 	stw	r19,12(sp)
 180178c:	dc800215 	stw	r18,8(sp)
 1801790:	dfc00415 	stw	ra,16(sp)
 1801794:	dc400115 	stw	r17,4(sp)
 1801798:	dc000015 	stw	r16,0(sp)
 180179c:	2027883a 	mov	r19,r4
 18017a0:	2825883a 	mov	r18,r5
 18017a4:	20000226 	beq	r4,zero,18017b0 <_fflush_r+0x2c>
 18017a8:	20800e17 	ldw	r2,56(r4)
 18017ac:	10005626 	beq	r2,zero,1801908 <_fflush_r+0x184>
 18017b0:	9100030b 	ldhu	r4,12(r18)
 18017b4:	20ffffcc 	andi	r3,r4,65535
 18017b8:	18e0001c 	xori	r3,r3,32768
 18017bc:	18e00004 	addi	r3,r3,-32768
 18017c0:	1880020c 	andi	r2,r3,8
 18017c4:	1000261e 	bne	r2,zero,1801860 <_fflush_r+0xdc>
 18017c8:	90c00117 	ldw	r3,4(r18)
 18017cc:	20820014 	ori	r2,r4,2048
 18017d0:	9080030d 	sth	r2,12(r18)
 18017d4:	1009883a 	mov	r4,r2
 18017d8:	00c0400e 	bge	zero,r3,18018dc <_fflush_r+0x158>
 18017dc:	92000a17 	ldw	r8,40(r18)
 18017e0:	40004026 	beq	r8,zero,18018e4 <_fflush_r+0x160>
 18017e4:	2084000c 	andi	r2,r4,4096
 18017e8:	10005326 	beq	r2,zero,1801938 <_fflush_r+0x1b4>
 18017ec:	94001417 	ldw	r16,80(r18)
 18017f0:	9080030b 	ldhu	r2,12(r18)
 18017f4:	1080010c 	andi	r2,r2,4
 18017f8:	1000481e 	bne	r2,zero,180191c <_fflush_r+0x198>
 18017fc:	91400717 	ldw	r5,28(r18)
 1801800:	9809883a 	mov	r4,r19
 1801804:	800d883a 	mov	r6,r16
 1801808:	000f883a 	mov	r7,zero
 180180c:	403ee83a 	callr	r8
 1801810:	8080261e 	bne	r16,r2,18018ac <_fflush_r+0x128>
 1801814:	9080030b 	ldhu	r2,12(r18)
 1801818:	91000417 	ldw	r4,16(r18)
 180181c:	90000115 	stw	zero,4(r18)
 1801820:	10bdffcc 	andi	r2,r2,63487
 1801824:	10ffffcc 	andi	r3,r2,65535
 1801828:	18c4000c 	andi	r3,r3,4096
 180182c:	9080030d 	sth	r2,12(r18)
 1801830:	91000015 	stw	r4,0(r18)
 1801834:	18002b26 	beq	r3,zero,18018e4 <_fflush_r+0x160>
 1801838:	0007883a 	mov	r3,zero
 180183c:	1805883a 	mov	r2,r3
 1801840:	94001415 	stw	r16,80(r18)
 1801844:	dfc00417 	ldw	ra,16(sp)
 1801848:	dcc00317 	ldw	r19,12(sp)
 180184c:	dc800217 	ldw	r18,8(sp)
 1801850:	dc400117 	ldw	r17,4(sp)
 1801854:	dc000017 	ldw	r16,0(sp)
 1801858:	dec00504 	addi	sp,sp,20
 180185c:	f800283a 	ret
 1801860:	94400417 	ldw	r17,16(r18)
 1801864:	88001f26 	beq	r17,zero,18018e4 <_fflush_r+0x160>
 1801868:	90800017 	ldw	r2,0(r18)
 180186c:	18c000cc 	andi	r3,r3,3
 1801870:	94400015 	stw	r17,0(r18)
 1801874:	1461c83a 	sub	r16,r2,r17
 1801878:	18002526 	beq	r3,zero,1801910 <_fflush_r+0x18c>
 180187c:	0005883a 	mov	r2,zero
 1801880:	90800215 	stw	r2,8(r18)
 1801884:	0400170e 	bge	zero,r16,18018e4 <_fflush_r+0x160>
 1801888:	90c00917 	ldw	r3,36(r18)
 180188c:	91400717 	ldw	r5,28(r18)
 1801890:	880d883a 	mov	r6,r17
 1801894:	800f883a 	mov	r7,r16
 1801898:	9809883a 	mov	r4,r19
 180189c:	183ee83a 	callr	r3
 18018a0:	88a3883a 	add	r17,r17,r2
 18018a4:	80a1c83a 	sub	r16,r16,r2
 18018a8:	00bff616 	blt	zero,r2,1801884 <_fflush_r+0x100>
 18018ac:	9080030b 	ldhu	r2,12(r18)
 18018b0:	00ffffc4 	movi	r3,-1
 18018b4:	10801014 	ori	r2,r2,64
 18018b8:	9080030d 	sth	r2,12(r18)
 18018bc:	1805883a 	mov	r2,r3
 18018c0:	dfc00417 	ldw	ra,16(sp)
 18018c4:	dcc00317 	ldw	r19,12(sp)
 18018c8:	dc800217 	ldw	r18,8(sp)
 18018cc:	dc400117 	ldw	r17,4(sp)
 18018d0:	dc000017 	ldw	r16,0(sp)
 18018d4:	dec00504 	addi	sp,sp,20
 18018d8:	f800283a 	ret
 18018dc:	90800f17 	ldw	r2,60(r18)
 18018e0:	00bfbe16 	blt	zero,r2,18017dc <_fflush_r+0x58>
 18018e4:	0007883a 	mov	r3,zero
 18018e8:	1805883a 	mov	r2,r3
 18018ec:	dfc00417 	ldw	ra,16(sp)
 18018f0:	dcc00317 	ldw	r19,12(sp)
 18018f4:	dc800217 	ldw	r18,8(sp)
 18018f8:	dc400117 	ldw	r17,4(sp)
 18018fc:	dc000017 	ldw	r16,0(sp)
 1801900:	dec00504 	addi	sp,sp,20
 1801904:	f800283a 	ret
 1801908:	1801a1c0 	call	1801a1c <__sinit>
 180190c:	003fa806 	br	18017b0 <_fflush_r+0x2c>
 1801910:	90800517 	ldw	r2,20(r18)
 1801914:	90800215 	stw	r2,8(r18)
 1801918:	003fda06 	br	1801884 <_fflush_r+0x100>
 180191c:	90800117 	ldw	r2,4(r18)
 1801920:	90c00c17 	ldw	r3,48(r18)
 1801924:	80a1c83a 	sub	r16,r16,r2
 1801928:	183fb426 	beq	r3,zero,18017fc <_fflush_r+0x78>
 180192c:	90800f17 	ldw	r2,60(r18)
 1801930:	80a1c83a 	sub	r16,r16,r2
 1801934:	003fb106 	br	18017fc <_fflush_r+0x78>
 1801938:	91400717 	ldw	r5,28(r18)
 180193c:	9809883a 	mov	r4,r19
 1801940:	000d883a 	mov	r6,zero
 1801944:	01c00044 	movi	r7,1
 1801948:	403ee83a 	callr	r8
 180194c:	1021883a 	mov	r16,r2
 1801950:	00bfffc4 	movi	r2,-1
 1801954:	80800226 	beq	r16,r2,1801960 <_fflush_r+0x1dc>
 1801958:	92000a17 	ldw	r8,40(r18)
 180195c:	003fa406 	br	18017f0 <_fflush_r+0x6c>
 1801960:	98c00017 	ldw	r3,0(r19)
 1801964:	00800744 	movi	r2,29
 1801968:	18bfde26 	beq	r3,r2,18018e4 <_fflush_r+0x160>
 180196c:	9080030b 	ldhu	r2,12(r18)
 1801970:	8007883a 	mov	r3,r16
 1801974:	10801014 	ori	r2,r2,64
 1801978:	9080030d 	sth	r2,12(r18)
 180197c:	003fcf06 	br	18018bc <_fflush_r+0x138>

01801980 <fflush>:
 1801980:	01406034 	movhi	r5,384
 1801984:	2945e104 	addi	r5,r5,6020
 1801988:	2007883a 	mov	r3,r4
 180198c:	20000526 	beq	r4,zero,18019a4 <fflush+0x24>
 1801990:	00806074 	movhi	r2,385
 1801994:	10ad1d04 	addi	r2,r2,-19340
 1801998:	11000017 	ldw	r4,0(r2)
 180199c:	180b883a 	mov	r5,r3
 18019a0:	18017841 	jmpi	1801784 <_fflush_r>
 18019a4:	00806074 	movhi	r2,385
 18019a8:	10ad1e04 	addi	r2,r2,-19336
 18019ac:	11000017 	ldw	r4,0(r2)
 18019b0:	18020b41 	jmpi	18020b4 <_fwalk_reent>

018019b4 <std>:
 18019b4:	00806034 	movhi	r2,384
 18019b8:	10891804 	addi	r2,r2,9312
 18019bc:	20800b15 	stw	r2,44(r4)
 18019c0:	00806034 	movhi	r2,384
 18019c4:	10895304 	addi	r2,r2,9548
 18019c8:	20800815 	stw	r2,32(r4)
 18019cc:	00c06034 	movhi	r3,384
 18019d0:	18c93404 	addi	r3,r3,9424
 18019d4:	00806034 	movhi	r2,384
 18019d8:	10891a04 	addi	r2,r2,9320
 18019dc:	2140030d 	sth	r5,12(r4)
 18019e0:	2180038d 	sth	r6,14(r4)
 18019e4:	20c00915 	stw	r3,36(r4)
 18019e8:	20800a15 	stw	r2,40(r4)
 18019ec:	20000015 	stw	zero,0(r4)
 18019f0:	20000115 	stw	zero,4(r4)
 18019f4:	20000215 	stw	zero,8(r4)
 18019f8:	20000415 	stw	zero,16(r4)
 18019fc:	20000515 	stw	zero,20(r4)
 1801a00:	20000615 	stw	zero,24(r4)
 1801a04:	21000715 	stw	r4,28(r4)
 1801a08:	f800283a 	ret

01801a0c <__sfp_lock_acquire>:
 1801a0c:	f800283a 	ret

01801a10 <__sfp_lock_release>:
 1801a10:	f800283a 	ret

01801a14 <__sinit_lock_acquire>:
 1801a14:	f800283a 	ret

01801a18 <__sinit_lock_release>:
 1801a18:	f800283a 	ret

01801a1c <__sinit>:
 1801a1c:	20800e17 	ldw	r2,56(r4)
 1801a20:	defffd04 	addi	sp,sp,-12
 1801a24:	dc400115 	stw	r17,4(sp)
 1801a28:	dc000015 	stw	r16,0(sp)
 1801a2c:	dfc00215 	stw	ra,8(sp)
 1801a30:	04400044 	movi	r17,1
 1801a34:	01400104 	movi	r5,4
 1801a38:	000d883a 	mov	r6,zero
 1801a3c:	2021883a 	mov	r16,r4
 1801a40:	2200bb04 	addi	r8,r4,748
 1801a44:	200f883a 	mov	r7,r4
 1801a48:	10000526 	beq	r2,zero,1801a60 <__sinit+0x44>
 1801a4c:	dfc00217 	ldw	ra,8(sp)
 1801a50:	dc400117 	ldw	r17,4(sp)
 1801a54:	dc000017 	ldw	r16,0(sp)
 1801a58:	dec00304 	addi	sp,sp,12
 1801a5c:	f800283a 	ret
 1801a60:	21000117 	ldw	r4,4(r4)
 1801a64:	00806034 	movhi	r2,384
 1801a68:	1086c004 	addi	r2,r2,6912
 1801a6c:	00c000c4 	movi	r3,3
 1801a70:	80800f15 	stw	r2,60(r16)
 1801a74:	80c0b915 	stw	r3,740(r16)
 1801a78:	8200ba15 	stw	r8,744(r16)
 1801a7c:	84400e15 	stw	r17,56(r16)
 1801a80:	8000b815 	stw	zero,736(r16)
 1801a84:	18019b40 	call	18019b4 <std>
 1801a88:	81000217 	ldw	r4,8(r16)
 1801a8c:	880d883a 	mov	r6,r17
 1801a90:	800f883a 	mov	r7,r16
 1801a94:	01400284 	movi	r5,10
 1801a98:	18019b40 	call	18019b4 <std>
 1801a9c:	81000317 	ldw	r4,12(r16)
 1801aa0:	800f883a 	mov	r7,r16
 1801aa4:	01400484 	movi	r5,18
 1801aa8:	01800084 	movi	r6,2
 1801aac:	dfc00217 	ldw	ra,8(sp)
 1801ab0:	dc400117 	ldw	r17,4(sp)
 1801ab4:	dc000017 	ldw	r16,0(sp)
 1801ab8:	dec00304 	addi	sp,sp,12
 1801abc:	18019b41 	jmpi	18019b4 <std>

01801ac0 <__fp_lock>:
 1801ac0:	0005883a 	mov	r2,zero
 1801ac4:	f800283a 	ret

01801ac8 <__fp_unlock>:
 1801ac8:	0005883a 	mov	r2,zero
 1801acc:	f800283a 	ret

01801ad0 <__fp_unlock_all>:
 1801ad0:	00806074 	movhi	r2,385
 1801ad4:	10ad1d04 	addi	r2,r2,-19340
 1801ad8:	11000017 	ldw	r4,0(r2)
 1801adc:	01406034 	movhi	r5,384
 1801ae0:	2946b204 	addi	r5,r5,6856
 1801ae4:	180217c1 	jmpi	180217c <_fwalk>

01801ae8 <__fp_lock_all>:
 1801ae8:	00806074 	movhi	r2,385
 1801aec:	10ad1d04 	addi	r2,r2,-19340
 1801af0:	11000017 	ldw	r4,0(r2)
 1801af4:	01406034 	movhi	r5,384
 1801af8:	2946b004 	addi	r5,r5,6848
 1801afc:	180217c1 	jmpi	180217c <_fwalk>

01801b00 <_cleanup_r>:
 1801b00:	01406034 	movhi	r5,384
 1801b04:	2949e904 	addi	r5,r5,10148
 1801b08:	180217c1 	jmpi	180217c <_fwalk>

01801b0c <_cleanup>:
 1801b0c:	00806074 	movhi	r2,385
 1801b10:	10ad1e04 	addi	r2,r2,-19336
 1801b14:	11000017 	ldw	r4,0(r2)
 1801b18:	1801b001 	jmpi	1801b00 <_cleanup_r>

01801b1c <__sfmoreglue>:
 1801b1c:	defffc04 	addi	sp,sp,-16
 1801b20:	dc400115 	stw	r17,4(sp)
 1801b24:	2c401724 	muli	r17,r5,92
 1801b28:	dc800215 	stw	r18,8(sp)
 1801b2c:	2825883a 	mov	r18,r5
 1801b30:	89400304 	addi	r5,r17,12
 1801b34:	dc000015 	stw	r16,0(sp)
 1801b38:	dfc00315 	stw	ra,12(sp)
 1801b3c:	18006400 	call	1800640 <_malloc_r>
 1801b40:	0021883a 	mov	r16,zero
 1801b44:	880d883a 	mov	r6,r17
 1801b48:	000b883a 	mov	r5,zero
 1801b4c:	10000626 	beq	r2,zero,1801b68 <__sfmoreglue+0x4c>
 1801b50:	11000304 	addi	r4,r2,12
 1801b54:	14800115 	stw	r18,4(r2)
 1801b58:	10000015 	stw	zero,0(r2)
 1801b5c:	11000215 	stw	r4,8(r2)
 1801b60:	1021883a 	mov	r16,r2
 1801b64:	18023c80 	call	18023c8 <memset>
 1801b68:	8005883a 	mov	r2,r16
 1801b6c:	dfc00317 	ldw	ra,12(sp)
 1801b70:	dc800217 	ldw	r18,8(sp)
 1801b74:	dc400117 	ldw	r17,4(sp)
 1801b78:	dc000017 	ldw	r16,0(sp)
 1801b7c:	dec00404 	addi	sp,sp,16
 1801b80:	f800283a 	ret

01801b84 <__sfp>:
 1801b84:	defffd04 	addi	sp,sp,-12
 1801b88:	00806074 	movhi	r2,385
 1801b8c:	10ad1e04 	addi	r2,r2,-19336
 1801b90:	dc000015 	stw	r16,0(sp)
 1801b94:	14000017 	ldw	r16,0(r2)
 1801b98:	dc400115 	stw	r17,4(sp)
 1801b9c:	dfc00215 	stw	ra,8(sp)
 1801ba0:	80800e17 	ldw	r2,56(r16)
 1801ba4:	2023883a 	mov	r17,r4
 1801ba8:	10002626 	beq	r2,zero,1801c44 <__sfp+0xc0>
 1801bac:	8400b804 	addi	r16,r16,736
 1801bb0:	80800117 	ldw	r2,4(r16)
 1801bb4:	81000217 	ldw	r4,8(r16)
 1801bb8:	10ffffc4 	addi	r3,r2,-1
 1801bbc:	18000916 	blt	r3,zero,1801be4 <__sfp+0x60>
 1801bc0:	2080030f 	ldh	r2,12(r4)
 1801bc4:	10000b26 	beq	r2,zero,1801bf4 <__sfp+0x70>
 1801bc8:	017fffc4 	movi	r5,-1
 1801bcc:	00000206 	br	1801bd8 <__sfp+0x54>
 1801bd0:	2080030f 	ldh	r2,12(r4)
 1801bd4:	10000726 	beq	r2,zero,1801bf4 <__sfp+0x70>
 1801bd8:	18ffffc4 	addi	r3,r3,-1
 1801bdc:	21001704 	addi	r4,r4,92
 1801be0:	197ffb1e 	bne	r3,r5,1801bd0 <__sfp+0x4c>
 1801be4:	80800017 	ldw	r2,0(r16)
 1801be8:	10001926 	beq	r2,zero,1801c50 <__sfp+0xcc>
 1801bec:	1021883a 	mov	r16,r2
 1801bf0:	003fef06 	br	1801bb0 <__sfp+0x2c>
 1801bf4:	00bfffc4 	movi	r2,-1
 1801bf8:	00c00044 	movi	r3,1
 1801bfc:	2080038d 	sth	r2,14(r4)
 1801c00:	20c0030d 	sth	r3,12(r4)
 1801c04:	20000015 	stw	zero,0(r4)
 1801c08:	20000215 	stw	zero,8(r4)
 1801c0c:	20000115 	stw	zero,4(r4)
 1801c10:	20000415 	stw	zero,16(r4)
 1801c14:	20000515 	stw	zero,20(r4)
 1801c18:	20000615 	stw	zero,24(r4)
 1801c1c:	20000c15 	stw	zero,48(r4)
 1801c20:	20000d15 	stw	zero,52(r4)
 1801c24:	20001115 	stw	zero,68(r4)
 1801c28:	20001215 	stw	zero,72(r4)
 1801c2c:	2005883a 	mov	r2,r4
 1801c30:	dfc00217 	ldw	ra,8(sp)
 1801c34:	dc400117 	ldw	r17,4(sp)
 1801c38:	dc000017 	ldw	r16,0(sp)
 1801c3c:	dec00304 	addi	sp,sp,12
 1801c40:	f800283a 	ret
 1801c44:	8009883a 	mov	r4,r16
 1801c48:	1801a1c0 	call	1801a1c <__sinit>
 1801c4c:	003fd706 	br	1801bac <__sfp+0x28>
 1801c50:	8809883a 	mov	r4,r17
 1801c54:	01400104 	movi	r5,4
 1801c58:	1801b1c0 	call	1801b1c <__sfmoreglue>
 1801c5c:	80800015 	stw	r2,0(r16)
 1801c60:	103fe21e 	bne	r2,zero,1801bec <__sfp+0x68>
 1801c64:	00800304 	movi	r2,12
 1801c68:	0009883a 	mov	r4,zero
 1801c6c:	88800015 	stw	r2,0(r17)
 1801c70:	003fee06 	br	1801c2c <__sfp+0xa8>

01801c74 <_malloc_trim_r>:
 1801c74:	defffb04 	addi	sp,sp,-20
 1801c78:	dcc00315 	stw	r19,12(sp)
 1801c7c:	04c06074 	movhi	r19,385
 1801c80:	9ce6ea04 	addi	r19,r19,-25688
 1801c84:	dc800215 	stw	r18,8(sp)
 1801c88:	dc400115 	stw	r17,4(sp)
 1801c8c:	dc000015 	stw	r16,0(sp)
 1801c90:	2823883a 	mov	r17,r5
 1801c94:	2025883a 	mov	r18,r4
 1801c98:	dfc00415 	stw	ra,16(sp)
 1801c9c:	1802f240 	call	1802f24 <__malloc_lock>
 1801ca0:	98800217 	ldw	r2,8(r19)
 1801ca4:	9009883a 	mov	r4,r18
 1801ca8:	000b883a 	mov	r5,zero
 1801cac:	10c00117 	ldw	r3,4(r2)
 1801cb0:	00bfff04 	movi	r2,-4
 1801cb4:	18a0703a 	and	r16,r3,r2
 1801cb8:	8463c83a 	sub	r17,r16,r17
 1801cbc:	8c43fbc4 	addi	r17,r17,4079
 1801cc0:	8822d33a 	srli	r17,r17,12
 1801cc4:	0083ffc4 	movi	r2,4095
 1801cc8:	8c7fffc4 	addi	r17,r17,-1
 1801ccc:	8822933a 	slli	r17,r17,12
 1801cd0:	1440060e 	bge	r2,r17,1801cec <_malloc_trim_r+0x78>
 1801cd4:	18015d80 	call	18015d8 <_sbrk_r>
 1801cd8:	98c00217 	ldw	r3,8(r19)
 1801cdc:	9009883a 	mov	r4,r18
 1801ce0:	044bc83a 	sub	r5,zero,r17
 1801ce4:	80c7883a 	add	r3,r16,r3
 1801ce8:	10c00926 	beq	r2,r3,1801d10 <_malloc_trim_r+0x9c>
 1801cec:	1802f440 	call	1802f44 <__malloc_unlock>
 1801cf0:	0005883a 	mov	r2,zero
 1801cf4:	dfc00417 	ldw	ra,16(sp)
 1801cf8:	dcc00317 	ldw	r19,12(sp)
 1801cfc:	dc800217 	ldw	r18,8(sp)
 1801d00:	dc400117 	ldw	r17,4(sp)
 1801d04:	dc000017 	ldw	r16,0(sp)
 1801d08:	dec00504 	addi	sp,sp,20
 1801d0c:	f800283a 	ret
 1801d10:	9009883a 	mov	r4,r18
 1801d14:	18015d80 	call	18015d8 <_sbrk_r>
 1801d18:	844dc83a 	sub	r6,r16,r17
 1801d1c:	00ffffc4 	movi	r3,-1
 1801d20:	9009883a 	mov	r4,r18
 1801d24:	000b883a 	mov	r5,zero
 1801d28:	01c06074 	movhi	r7,385
 1801d2c:	39ed3a04 	addi	r7,r7,-19224
 1801d30:	31800054 	ori	r6,r6,1
 1801d34:	10c00926 	beq	r2,r3,1801d5c <_malloc_trim_r+0xe8>
 1801d38:	38800017 	ldw	r2,0(r7)
 1801d3c:	98c00217 	ldw	r3,8(r19)
 1801d40:	9009883a 	mov	r4,r18
 1801d44:	1445c83a 	sub	r2,r2,r17
 1801d48:	38800015 	stw	r2,0(r7)
 1801d4c:	19800115 	stw	r6,4(r3)
 1801d50:	1802f440 	call	1802f44 <__malloc_unlock>
 1801d54:	00800044 	movi	r2,1
 1801d58:	003fe606 	br	1801cf4 <_malloc_trim_r+0x80>
 1801d5c:	18015d80 	call	18015d8 <_sbrk_r>
 1801d60:	99800217 	ldw	r6,8(r19)
 1801d64:	100f883a 	mov	r7,r2
 1801d68:	9009883a 	mov	r4,r18
 1801d6c:	1187c83a 	sub	r3,r2,r6
 1801d70:	008003c4 	movi	r2,15
 1801d74:	19400054 	ori	r5,r3,1
 1801d78:	10ffdc0e 	bge	r2,r3,1801cec <_malloc_trim_r+0x78>
 1801d7c:	00806074 	movhi	r2,385
 1801d80:	10ad2004 	addi	r2,r2,-19328
 1801d84:	10c00017 	ldw	r3,0(r2)
 1801d88:	00806074 	movhi	r2,385
 1801d8c:	10ad3a04 	addi	r2,r2,-19224
 1801d90:	31400115 	stw	r5,4(r6)
 1801d94:	38c7c83a 	sub	r3,r7,r3
 1801d98:	10c00015 	stw	r3,0(r2)
 1801d9c:	003fd306 	br	1801cec <_malloc_trim_r+0x78>

01801da0 <_free_r>:
 1801da0:	defffd04 	addi	sp,sp,-12
 1801da4:	dc400115 	stw	r17,4(sp)
 1801da8:	dc000015 	stw	r16,0(sp)
 1801dac:	dfc00215 	stw	ra,8(sp)
 1801db0:	2821883a 	mov	r16,r5
 1801db4:	2023883a 	mov	r17,r4
 1801db8:	28005a26 	beq	r5,zero,1801f24 <_free_r+0x184>
 1801dbc:	1802f240 	call	1802f24 <__malloc_lock>
 1801dc0:	823ffe04 	addi	r8,r16,-8
 1801dc4:	41400117 	ldw	r5,4(r8)
 1801dc8:	00bfff84 	movi	r2,-2
 1801dcc:	02806074 	movhi	r10,385
 1801dd0:	52a6ea04 	addi	r10,r10,-25688
 1801dd4:	288e703a 	and	r7,r5,r2
 1801dd8:	41cd883a 	add	r6,r8,r7
 1801ddc:	30c00117 	ldw	r3,4(r6)
 1801de0:	51000217 	ldw	r4,8(r10)
 1801de4:	00bfff04 	movi	r2,-4
 1801de8:	1892703a 	and	r9,r3,r2
 1801dec:	5017883a 	mov	r11,r10
 1801df0:	31006726 	beq	r6,r4,1801f90 <_free_r+0x1f0>
 1801df4:	2880004c 	andi	r2,r5,1
 1801df8:	1005003a 	cmpeq	r2,r2,zero
 1801dfc:	32400115 	stw	r9,4(r6)
 1801e00:	10001a1e 	bne	r2,zero,1801e6c <_free_r+0xcc>
 1801e04:	000b883a 	mov	r5,zero
 1801e08:	3247883a 	add	r3,r6,r9
 1801e0c:	18800117 	ldw	r2,4(r3)
 1801e10:	1080004c 	andi	r2,r2,1
 1801e14:	1000231e 	bne	r2,zero,1801ea4 <_free_r+0x104>
 1801e18:	280ac03a 	cmpne	r5,r5,zero
 1801e1c:	3a4f883a 	add	r7,r7,r9
 1801e20:	2800451e 	bne	r5,zero,1801f38 <_free_r+0x198>
 1801e24:	31000217 	ldw	r4,8(r6)
 1801e28:	00806074 	movhi	r2,385
 1801e2c:	10a6ec04 	addi	r2,r2,-25680
 1801e30:	20807b26 	beq	r4,r2,1802020 <_free_r+0x280>
 1801e34:	30800317 	ldw	r2,12(r6)
 1801e38:	3a07883a 	add	r3,r7,r8
 1801e3c:	19c00015 	stw	r7,0(r3)
 1801e40:	11000215 	stw	r4,8(r2)
 1801e44:	20800315 	stw	r2,12(r4)
 1801e48:	38800054 	ori	r2,r7,1
 1801e4c:	40800115 	stw	r2,4(r8)
 1801e50:	28001a26 	beq	r5,zero,1801ebc <_free_r+0x11c>
 1801e54:	8809883a 	mov	r4,r17
 1801e58:	dfc00217 	ldw	ra,8(sp)
 1801e5c:	dc400117 	ldw	r17,4(sp)
 1801e60:	dc000017 	ldw	r16,0(sp)
 1801e64:	dec00304 	addi	sp,sp,12
 1801e68:	1802f441 	jmpi	1802f44 <__malloc_unlock>
 1801e6c:	80bffe17 	ldw	r2,-8(r16)
 1801e70:	50c00204 	addi	r3,r10,8
 1801e74:	4091c83a 	sub	r8,r8,r2
 1801e78:	41000217 	ldw	r4,8(r8)
 1801e7c:	388f883a 	add	r7,r7,r2
 1801e80:	20c06126 	beq	r4,r3,1802008 <_free_r+0x268>
 1801e84:	40800317 	ldw	r2,12(r8)
 1801e88:	3247883a 	add	r3,r6,r9
 1801e8c:	000b883a 	mov	r5,zero
 1801e90:	11000215 	stw	r4,8(r2)
 1801e94:	20800315 	stw	r2,12(r4)
 1801e98:	18800117 	ldw	r2,4(r3)
 1801e9c:	1080004c 	andi	r2,r2,1
 1801ea0:	103fdd26 	beq	r2,zero,1801e18 <_free_r+0x78>
 1801ea4:	38800054 	ori	r2,r7,1
 1801ea8:	3a07883a 	add	r3,r7,r8
 1801eac:	280ac03a 	cmpne	r5,r5,zero
 1801eb0:	40800115 	stw	r2,4(r8)
 1801eb4:	19c00015 	stw	r7,0(r3)
 1801eb8:	283fe61e 	bne	r5,zero,1801e54 <_free_r+0xb4>
 1801ebc:	00807fc4 	movi	r2,511
 1801ec0:	11c01f2e 	bgeu	r2,r7,1801f40 <_free_r+0x1a0>
 1801ec4:	3806d27a 	srli	r3,r7,9
 1801ec8:	1800481e 	bne	r3,zero,1801fec <_free_r+0x24c>
 1801ecc:	3804d0fa 	srli	r2,r7,3
 1801ed0:	100690fa 	slli	r3,r2,3
 1801ed4:	1acd883a 	add	r6,r3,r11
 1801ed8:	31400217 	ldw	r5,8(r6)
 1801edc:	31405926 	beq	r6,r5,1802044 <_free_r+0x2a4>
 1801ee0:	28800117 	ldw	r2,4(r5)
 1801ee4:	00ffff04 	movi	r3,-4
 1801ee8:	10c4703a 	and	r2,r2,r3
 1801eec:	3880022e 	bgeu	r7,r2,1801ef8 <_free_r+0x158>
 1801ef0:	29400217 	ldw	r5,8(r5)
 1801ef4:	317ffa1e 	bne	r6,r5,1801ee0 <_free_r+0x140>
 1801ef8:	29800317 	ldw	r6,12(r5)
 1801efc:	41800315 	stw	r6,12(r8)
 1801f00:	41400215 	stw	r5,8(r8)
 1801f04:	8809883a 	mov	r4,r17
 1801f08:	2a000315 	stw	r8,12(r5)
 1801f0c:	32000215 	stw	r8,8(r6)
 1801f10:	dfc00217 	ldw	ra,8(sp)
 1801f14:	dc400117 	ldw	r17,4(sp)
 1801f18:	dc000017 	ldw	r16,0(sp)
 1801f1c:	dec00304 	addi	sp,sp,12
 1801f20:	1802f441 	jmpi	1802f44 <__malloc_unlock>
 1801f24:	dfc00217 	ldw	ra,8(sp)
 1801f28:	dc400117 	ldw	r17,4(sp)
 1801f2c:	dc000017 	ldw	r16,0(sp)
 1801f30:	dec00304 	addi	sp,sp,12
 1801f34:	f800283a 	ret
 1801f38:	31000217 	ldw	r4,8(r6)
 1801f3c:	003fbd06 	br	1801e34 <_free_r+0x94>
 1801f40:	3806d0fa 	srli	r3,r7,3
 1801f44:	00800044 	movi	r2,1
 1801f48:	51400117 	ldw	r5,4(r10)
 1801f4c:	180890fa 	slli	r4,r3,3
 1801f50:	1807d0ba 	srai	r3,r3,2
 1801f54:	22c9883a 	add	r4,r4,r11
 1801f58:	21800217 	ldw	r6,8(r4)
 1801f5c:	10c4983a 	sll	r2,r2,r3
 1801f60:	41000315 	stw	r4,12(r8)
 1801f64:	41800215 	stw	r6,8(r8)
 1801f68:	288ab03a 	or	r5,r5,r2
 1801f6c:	22000215 	stw	r8,8(r4)
 1801f70:	8809883a 	mov	r4,r17
 1801f74:	51400115 	stw	r5,4(r10)
 1801f78:	32000315 	stw	r8,12(r6)
 1801f7c:	dfc00217 	ldw	ra,8(sp)
 1801f80:	dc400117 	ldw	r17,4(sp)
 1801f84:	dc000017 	ldw	r16,0(sp)
 1801f88:	dec00304 	addi	sp,sp,12
 1801f8c:	1802f441 	jmpi	1802f44 <__malloc_unlock>
 1801f90:	2880004c 	andi	r2,r5,1
 1801f94:	3a4d883a 	add	r6,r7,r9
 1801f98:	1000071e 	bne	r2,zero,1801fb8 <_free_r+0x218>
 1801f9c:	80bffe17 	ldw	r2,-8(r16)
 1801fa0:	4091c83a 	sub	r8,r8,r2
 1801fa4:	41000317 	ldw	r4,12(r8)
 1801fa8:	40c00217 	ldw	r3,8(r8)
 1801fac:	308d883a 	add	r6,r6,r2
 1801fb0:	20c00215 	stw	r3,8(r4)
 1801fb4:	19000315 	stw	r4,12(r3)
 1801fb8:	00806074 	movhi	r2,385
 1801fbc:	10ad1f04 	addi	r2,r2,-19332
 1801fc0:	11000017 	ldw	r4,0(r2)
 1801fc4:	30c00054 	ori	r3,r6,1
 1801fc8:	52000215 	stw	r8,8(r10)
 1801fcc:	40c00115 	stw	r3,4(r8)
 1801fd0:	313fa036 	bltu	r6,r4,1801e54 <_free_r+0xb4>
 1801fd4:	00806074 	movhi	r2,385
 1801fd8:	10ad2f04 	addi	r2,r2,-19268
 1801fdc:	11400017 	ldw	r5,0(r2)
 1801fe0:	8809883a 	mov	r4,r17
 1801fe4:	1801c740 	call	1801c74 <_malloc_trim_r>
 1801fe8:	003f9a06 	br	1801e54 <_free_r+0xb4>
 1801fec:	00800104 	movi	r2,4
 1801ff0:	10c0072e 	bgeu	r2,r3,1802010 <_free_r+0x270>
 1801ff4:	00800504 	movi	r2,20
 1801ff8:	10c01936 	bltu	r2,r3,1802060 <_free_r+0x2c0>
 1801ffc:	188016c4 	addi	r2,r3,91
 1802000:	100690fa 	slli	r3,r2,3
 1802004:	003fb306 	br	1801ed4 <_free_r+0x134>
 1802008:	01400044 	movi	r5,1
 180200c:	003f7e06 	br	1801e08 <_free_r+0x68>
 1802010:	3804d1ba 	srli	r2,r7,6
 1802014:	10800e04 	addi	r2,r2,56
 1802018:	100690fa 	slli	r3,r2,3
 180201c:	003fad06 	br	1801ed4 <_free_r+0x134>
 1802020:	22000315 	stw	r8,12(r4)
 1802024:	22000215 	stw	r8,8(r4)
 1802028:	3a05883a 	add	r2,r7,r8
 180202c:	38c00054 	ori	r3,r7,1
 1802030:	11c00015 	stw	r7,0(r2)
 1802034:	41000215 	stw	r4,8(r8)
 1802038:	40c00115 	stw	r3,4(r8)
 180203c:	41000315 	stw	r4,12(r8)
 1802040:	003f8406 	br	1801e54 <_free_r+0xb4>
 1802044:	1005d0ba 	srai	r2,r2,2
 1802048:	00c00044 	movi	r3,1
 180204c:	51000117 	ldw	r4,4(r10)
 1802050:	1886983a 	sll	r3,r3,r2
 1802054:	20c8b03a 	or	r4,r4,r3
 1802058:	51000115 	stw	r4,4(r10)
 180205c:	003fa706 	br	1801efc <_free_r+0x15c>
 1802060:	00801504 	movi	r2,84
 1802064:	10c00436 	bltu	r2,r3,1802078 <_free_r+0x2d8>
 1802068:	3804d33a 	srli	r2,r7,12
 180206c:	10801b84 	addi	r2,r2,110
 1802070:	100690fa 	slli	r3,r2,3
 1802074:	003f9706 	br	1801ed4 <_free_r+0x134>
 1802078:	00805504 	movi	r2,340
 180207c:	10c00436 	bltu	r2,r3,1802090 <_free_r+0x2f0>
 1802080:	3804d3fa 	srli	r2,r7,15
 1802084:	10801dc4 	addi	r2,r2,119
 1802088:	100690fa 	slli	r3,r2,3
 180208c:	003f9106 	br	1801ed4 <_free_r+0x134>
 1802090:	00815504 	movi	r2,1364
 1802094:	10c0032e 	bgeu	r2,r3,18020a4 <_free_r+0x304>
 1802098:	00801f84 	movi	r2,126
 180209c:	00c0fc04 	movi	r3,1008
 18020a0:	003f8c06 	br	1801ed4 <_free_r+0x134>
 18020a4:	3804d4ba 	srli	r2,r7,18
 18020a8:	10801f04 	addi	r2,r2,124
 18020ac:	100690fa 	slli	r3,r2,3
 18020b0:	003f8806 	br	1801ed4 <_free_r+0x134>

018020b4 <_fwalk_reent>:
 18020b4:	defff704 	addi	sp,sp,-36
 18020b8:	dcc00315 	stw	r19,12(sp)
 18020bc:	24c0b804 	addi	r19,r4,736
 18020c0:	dd800615 	stw	r22,24(sp)
 18020c4:	dd400515 	stw	r21,20(sp)
 18020c8:	dfc00815 	stw	ra,32(sp)
 18020cc:	ddc00715 	stw	r23,28(sp)
 18020d0:	dd000415 	stw	r20,16(sp)
 18020d4:	dc800215 	stw	r18,8(sp)
 18020d8:	dc400115 	stw	r17,4(sp)
 18020dc:	dc000015 	stw	r16,0(sp)
 18020e0:	202b883a 	mov	r21,r4
 18020e4:	282d883a 	mov	r22,r5
 18020e8:	1801a0c0 	call	1801a0c <__sfp_lock_acquire>
 18020ec:	98002126 	beq	r19,zero,1802174 <_fwalk_reent+0xc0>
 18020f0:	002f883a 	mov	r23,zero
 18020f4:	9c800117 	ldw	r18,4(r19)
 18020f8:	9c000217 	ldw	r16,8(r19)
 18020fc:	90bfffc4 	addi	r2,r18,-1
 1802100:	10000d16 	blt	r2,zero,1802138 <_fwalk_reent+0x84>
 1802104:	0023883a 	mov	r17,zero
 1802108:	053fffc4 	movi	r20,-1
 180210c:	8080030f 	ldh	r2,12(r16)
 1802110:	8c400044 	addi	r17,r17,1
 1802114:	10000626 	beq	r2,zero,1802130 <_fwalk_reent+0x7c>
 1802118:	8080038f 	ldh	r2,14(r16)
 180211c:	800b883a 	mov	r5,r16
 1802120:	a809883a 	mov	r4,r21
 1802124:	15000226 	beq	r2,r20,1802130 <_fwalk_reent+0x7c>
 1802128:	b03ee83a 	callr	r22
 180212c:	b8aeb03a 	or	r23,r23,r2
 1802130:	84001704 	addi	r16,r16,92
 1802134:	947ff51e 	bne	r18,r17,180210c <_fwalk_reent+0x58>
 1802138:	9cc00017 	ldw	r19,0(r19)
 180213c:	983fed1e 	bne	r19,zero,18020f4 <_fwalk_reent+0x40>
 1802140:	1801a100 	call	1801a10 <__sfp_lock_release>
 1802144:	b805883a 	mov	r2,r23
 1802148:	dfc00817 	ldw	ra,32(sp)
 180214c:	ddc00717 	ldw	r23,28(sp)
 1802150:	dd800617 	ldw	r22,24(sp)
 1802154:	dd400517 	ldw	r21,20(sp)
 1802158:	dd000417 	ldw	r20,16(sp)
 180215c:	dcc00317 	ldw	r19,12(sp)
 1802160:	dc800217 	ldw	r18,8(sp)
 1802164:	dc400117 	ldw	r17,4(sp)
 1802168:	dc000017 	ldw	r16,0(sp)
 180216c:	dec00904 	addi	sp,sp,36
 1802170:	f800283a 	ret
 1802174:	002f883a 	mov	r23,zero
 1802178:	003ff106 	br	1802140 <_fwalk_reent+0x8c>

0180217c <_fwalk>:
 180217c:	defff804 	addi	sp,sp,-32
 1802180:	dcc00315 	stw	r19,12(sp)
 1802184:	24c0b804 	addi	r19,r4,736
 1802188:	dd400515 	stw	r21,20(sp)
 180218c:	dfc00715 	stw	ra,28(sp)
 1802190:	dd800615 	stw	r22,24(sp)
 1802194:	dd000415 	stw	r20,16(sp)
 1802198:	dc800215 	stw	r18,8(sp)
 180219c:	dc400115 	stw	r17,4(sp)
 18021a0:	dc000015 	stw	r16,0(sp)
 18021a4:	282b883a 	mov	r21,r5
 18021a8:	1801a0c0 	call	1801a0c <__sfp_lock_acquire>
 18021ac:	98001f26 	beq	r19,zero,180222c <_fwalk+0xb0>
 18021b0:	002d883a 	mov	r22,zero
 18021b4:	9c800117 	ldw	r18,4(r19)
 18021b8:	9c000217 	ldw	r16,8(r19)
 18021bc:	90bfffc4 	addi	r2,r18,-1
 18021c0:	10000c16 	blt	r2,zero,18021f4 <_fwalk+0x78>
 18021c4:	0023883a 	mov	r17,zero
 18021c8:	053fffc4 	movi	r20,-1
 18021cc:	8080030f 	ldh	r2,12(r16)
 18021d0:	8c400044 	addi	r17,r17,1
 18021d4:	10000526 	beq	r2,zero,18021ec <_fwalk+0x70>
 18021d8:	8080038f 	ldh	r2,14(r16)
 18021dc:	8009883a 	mov	r4,r16
 18021e0:	15000226 	beq	r2,r20,18021ec <_fwalk+0x70>
 18021e4:	a83ee83a 	callr	r21
 18021e8:	b0acb03a 	or	r22,r22,r2
 18021ec:	84001704 	addi	r16,r16,92
 18021f0:	947ff61e 	bne	r18,r17,18021cc <_fwalk+0x50>
 18021f4:	9cc00017 	ldw	r19,0(r19)
 18021f8:	983fee1e 	bne	r19,zero,18021b4 <_fwalk+0x38>
 18021fc:	1801a100 	call	1801a10 <__sfp_lock_release>
 1802200:	b005883a 	mov	r2,r22
 1802204:	dfc00717 	ldw	ra,28(sp)
 1802208:	dd800617 	ldw	r22,24(sp)
 180220c:	dd400517 	ldw	r21,20(sp)
 1802210:	dd000417 	ldw	r20,16(sp)
 1802214:	dcc00317 	ldw	r19,12(sp)
 1802218:	dc800217 	ldw	r18,8(sp)
 180221c:	dc400117 	ldw	r17,4(sp)
 1802220:	dc000017 	ldw	r16,0(sp)
 1802224:	dec00804 	addi	sp,sp,32
 1802228:	f800283a 	ret
 180222c:	002d883a 	mov	r22,zero
 1802230:	003ff206 	br	18021fc <_fwalk+0x80>

01802234 <__smakebuf_r>:
 1802234:	2880030b 	ldhu	r2,12(r5)
 1802238:	deffed04 	addi	sp,sp,-76
 180223c:	dc401015 	stw	r17,64(sp)
 1802240:	1080008c 	andi	r2,r2,2
 1802244:	dc000f15 	stw	r16,60(sp)
 1802248:	dfc01215 	stw	ra,72(sp)
 180224c:	dc801115 	stw	r18,68(sp)
 1802250:	2821883a 	mov	r16,r5
 1802254:	2023883a 	mov	r17,r4
 1802258:	10000b26 	beq	r2,zero,1802288 <__smakebuf_r+0x54>
 180225c:	28c010c4 	addi	r3,r5,67
 1802260:	00800044 	movi	r2,1
 1802264:	28800515 	stw	r2,20(r5)
 1802268:	28c00415 	stw	r3,16(r5)
 180226c:	28c00015 	stw	r3,0(r5)
 1802270:	dfc01217 	ldw	ra,72(sp)
 1802274:	dc801117 	ldw	r18,68(sp)
 1802278:	dc401017 	ldw	r17,64(sp)
 180227c:	dc000f17 	ldw	r16,60(sp)
 1802280:	dec01304 	addi	sp,sp,76
 1802284:	f800283a 	ret
 1802288:	2940038f 	ldh	r5,14(r5)
 180228c:	28002116 	blt	r5,zero,1802314 <__smakebuf_r+0xe0>
 1802290:	d80d883a 	mov	r6,sp
 1802294:	18027b80 	call	18027b8 <_fstat_r>
 1802298:	10001e16 	blt	r2,zero,1802314 <__smakebuf_r+0xe0>
 180229c:	d8800117 	ldw	r2,4(sp)
 18022a0:	00e00014 	movui	r3,32768
 18022a4:	113c000c 	andi	r4,r2,61440
 18022a8:	20c03126 	beq	r4,r3,1802370 <__smakebuf_r+0x13c>
 18022ac:	8080030b 	ldhu	r2,12(r16)
 18022b0:	00c80004 	movi	r3,8192
 18022b4:	10820014 	ori	r2,r2,2048
 18022b8:	8080030d 	sth	r2,12(r16)
 18022bc:	20c01e26 	beq	r4,r3,1802338 <__smakebuf_r+0x104>
 18022c0:	04810004 	movi	r18,1024
 18022c4:	8809883a 	mov	r4,r17
 18022c8:	900b883a 	mov	r5,r18
 18022cc:	18006400 	call	1800640 <_malloc_r>
 18022d0:	1009883a 	mov	r4,r2
 18022d4:	10003126 	beq	r2,zero,180239c <__smakebuf_r+0x168>
 18022d8:	80c0030b 	ldhu	r3,12(r16)
 18022dc:	00806034 	movhi	r2,384
 18022e0:	1086c004 	addi	r2,r2,6912
 18022e4:	88800f15 	stw	r2,60(r17)
 18022e8:	18c02014 	ori	r3,r3,128
 18022ec:	84800515 	stw	r18,20(r16)
 18022f0:	80c0030d 	sth	r3,12(r16)
 18022f4:	81000415 	stw	r4,16(r16)
 18022f8:	81000015 	stw	r4,0(r16)
 18022fc:	dfc01217 	ldw	ra,72(sp)
 1802300:	dc801117 	ldw	r18,68(sp)
 1802304:	dc401017 	ldw	r17,64(sp)
 1802308:	dc000f17 	ldw	r16,60(sp)
 180230c:	dec01304 	addi	sp,sp,76
 1802310:	f800283a 	ret
 1802314:	80c0030b 	ldhu	r3,12(r16)
 1802318:	1880200c 	andi	r2,r3,128
 180231c:	10000426 	beq	r2,zero,1802330 <__smakebuf_r+0xfc>
 1802320:	04801004 	movi	r18,64
 1802324:	18820014 	ori	r2,r3,2048
 1802328:	8080030d 	sth	r2,12(r16)
 180232c:	003fe506 	br	18022c4 <__smakebuf_r+0x90>
 1802330:	04810004 	movi	r18,1024
 1802334:	003ffb06 	br	1802324 <__smakebuf_r+0xf0>
 1802338:	8140038f 	ldh	r5,14(r16)
 180233c:	8809883a 	mov	r4,r17
 1802340:	180282c0 	call	180282c <_isatty_r>
 1802344:	103fde26 	beq	r2,zero,18022c0 <__smakebuf_r+0x8c>
 1802348:	8080030b 	ldhu	r2,12(r16)
 180234c:	80c010c4 	addi	r3,r16,67
 1802350:	04810004 	movi	r18,1024
 1802354:	10800054 	ori	r2,r2,1
 1802358:	8080030d 	sth	r2,12(r16)
 180235c:	00800044 	movi	r2,1
 1802360:	80c00415 	stw	r3,16(r16)
 1802364:	80800515 	stw	r2,20(r16)
 1802368:	80c00015 	stw	r3,0(r16)
 180236c:	003fd506 	br	18022c4 <__smakebuf_r+0x90>
 1802370:	80c00a17 	ldw	r3,40(r16)
 1802374:	00806034 	movhi	r2,384
 1802378:	10891a04 	addi	r2,r2,9320
 180237c:	18bfcb1e 	bne	r3,r2,18022ac <__smakebuf_r+0x78>
 1802380:	8080030b 	ldhu	r2,12(r16)
 1802384:	00c10004 	movi	r3,1024
 1802388:	1825883a 	mov	r18,r3
 180238c:	10c4b03a 	or	r2,r2,r3
 1802390:	8080030d 	sth	r2,12(r16)
 1802394:	80c01315 	stw	r3,76(r16)
 1802398:	003fca06 	br	18022c4 <__smakebuf_r+0x90>
 180239c:	8100030b 	ldhu	r4,12(r16)
 18023a0:	2080800c 	andi	r2,r4,512
 18023a4:	103fb21e 	bne	r2,zero,1802270 <__smakebuf_r+0x3c>
 18023a8:	80c010c4 	addi	r3,r16,67
 18023ac:	21000094 	ori	r4,r4,2
 18023b0:	00800044 	movi	r2,1
 18023b4:	80800515 	stw	r2,20(r16)
 18023b8:	8100030d 	sth	r4,12(r16)
 18023bc:	80c00415 	stw	r3,16(r16)
 18023c0:	80c00015 	stw	r3,0(r16)
 18023c4:	003faa06 	br	1802270 <__smakebuf_r+0x3c>

018023c8 <memset>:
 18023c8:	008000c4 	movi	r2,3
 18023cc:	29403fcc 	andi	r5,r5,255
 18023d0:	2007883a 	mov	r3,r4
 18023d4:	1180022e 	bgeu	r2,r6,18023e0 <memset+0x18>
 18023d8:	2084703a 	and	r2,r4,r2
 18023dc:	10000826 	beq	r2,zero,1802400 <memset+0x38>
 18023e0:	30000526 	beq	r6,zero,18023f8 <memset+0x30>
 18023e4:	2805883a 	mov	r2,r5
 18023e8:	30cd883a 	add	r6,r6,r3
 18023ec:	18800005 	stb	r2,0(r3)
 18023f0:	18c00044 	addi	r3,r3,1
 18023f4:	19bffd1e 	bne	r3,r6,18023ec <memset+0x24>
 18023f8:	2005883a 	mov	r2,r4
 18023fc:	f800283a 	ret
 1802400:	2804923a 	slli	r2,r5,8
 1802404:	020003c4 	movi	r8,15
 1802408:	200f883a 	mov	r7,r4
 180240c:	2884b03a 	or	r2,r5,r2
 1802410:	1006943a 	slli	r3,r2,16
 1802414:	10c6b03a 	or	r3,r2,r3
 1802418:	41800a2e 	bgeu	r8,r6,1802444 <memset+0x7c>
 180241c:	4005883a 	mov	r2,r8
 1802420:	31bffc04 	addi	r6,r6,-16
 1802424:	38c00015 	stw	r3,0(r7)
 1802428:	38c00115 	stw	r3,4(r7)
 180242c:	38c00215 	stw	r3,8(r7)
 1802430:	38c00315 	stw	r3,12(r7)
 1802434:	39c00404 	addi	r7,r7,16
 1802438:	11bff936 	bltu	r2,r6,1802420 <memset+0x58>
 180243c:	008000c4 	movi	r2,3
 1802440:	1180052e 	bgeu	r2,r6,1802458 <memset+0x90>
 1802444:	31bfff04 	addi	r6,r6,-4
 1802448:	008000c4 	movi	r2,3
 180244c:	38c00015 	stw	r3,0(r7)
 1802450:	39c00104 	addi	r7,r7,4
 1802454:	11bffb36 	bltu	r2,r6,1802444 <memset+0x7c>
 1802458:	3807883a 	mov	r3,r7
 180245c:	003fe006 	br	18023e0 <memset+0x18>

01802460 <__sclose>:
 1802460:	2940038f 	ldh	r5,14(r5)
 1802464:	18026241 	jmpi	1802624 <_close_r>

01802468 <__sseek>:
 1802468:	defffe04 	addi	sp,sp,-8
 180246c:	dc000015 	stw	r16,0(sp)
 1802470:	2821883a 	mov	r16,r5
 1802474:	2940038f 	ldh	r5,14(r5)
 1802478:	dfc00115 	stw	ra,4(sp)
 180247c:	180289c0 	call	180289c <_lseek_r>
 1802480:	1007883a 	mov	r3,r2
 1802484:	00bfffc4 	movi	r2,-1
 1802488:	18800926 	beq	r3,r2,18024b0 <__sseek+0x48>
 180248c:	8080030b 	ldhu	r2,12(r16)
 1802490:	80c01415 	stw	r3,80(r16)
 1802494:	10840014 	ori	r2,r2,4096
 1802498:	8080030d 	sth	r2,12(r16)
 180249c:	1805883a 	mov	r2,r3
 18024a0:	dfc00117 	ldw	ra,4(sp)
 18024a4:	dc000017 	ldw	r16,0(sp)
 18024a8:	dec00204 	addi	sp,sp,8
 18024ac:	f800283a 	ret
 18024b0:	8080030b 	ldhu	r2,12(r16)
 18024b4:	10bbffcc 	andi	r2,r2,61439
 18024b8:	8080030d 	sth	r2,12(r16)
 18024bc:	1805883a 	mov	r2,r3
 18024c0:	dfc00117 	ldw	ra,4(sp)
 18024c4:	dc000017 	ldw	r16,0(sp)
 18024c8:	dec00204 	addi	sp,sp,8
 18024cc:	f800283a 	ret

018024d0 <__swrite>:
 18024d0:	2880030b 	ldhu	r2,12(r5)
 18024d4:	defffb04 	addi	sp,sp,-20
 18024d8:	dcc00315 	stw	r19,12(sp)
 18024dc:	1080400c 	andi	r2,r2,256
 18024e0:	dc800215 	stw	r18,8(sp)
 18024e4:	dc400115 	stw	r17,4(sp)
 18024e8:	dc000015 	stw	r16,0(sp)
 18024ec:	3027883a 	mov	r19,r6
 18024f0:	3825883a 	mov	r18,r7
 18024f4:	dfc00415 	stw	ra,16(sp)
 18024f8:	2821883a 	mov	r16,r5
 18024fc:	000d883a 	mov	r6,zero
 1802500:	01c00084 	movi	r7,2
 1802504:	2023883a 	mov	r17,r4
 1802508:	10000226 	beq	r2,zero,1802514 <__swrite+0x44>
 180250c:	2940038f 	ldh	r5,14(r5)
 1802510:	180289c0 	call	180289c <_lseek_r>
 1802514:	8080030b 	ldhu	r2,12(r16)
 1802518:	8140038f 	ldh	r5,14(r16)
 180251c:	8809883a 	mov	r4,r17
 1802520:	10bbffcc 	andi	r2,r2,61439
 1802524:	980d883a 	mov	r6,r19
 1802528:	900f883a 	mov	r7,r18
 180252c:	8080030d 	sth	r2,12(r16)
 1802530:	dfc00417 	ldw	ra,16(sp)
 1802534:	dcc00317 	ldw	r19,12(sp)
 1802538:	dc800217 	ldw	r18,8(sp)
 180253c:	dc400117 	ldw	r17,4(sp)
 1802540:	dc000017 	ldw	r16,0(sp)
 1802544:	dec00504 	addi	sp,sp,20
 1802548:	18025ac1 	jmpi	18025ac <_write_r>

0180254c <__sread>:
 180254c:	defffe04 	addi	sp,sp,-8
 1802550:	dc000015 	stw	r16,0(sp)
 1802554:	2821883a 	mov	r16,r5
 1802558:	2940038f 	ldh	r5,14(r5)
 180255c:	dfc00115 	stw	ra,4(sp)
 1802560:	18029140 	call	1802914 <_read_r>
 1802564:	1007883a 	mov	r3,r2
 1802568:	10000816 	blt	r2,zero,180258c <__sread+0x40>
 180256c:	80801417 	ldw	r2,80(r16)
 1802570:	10c5883a 	add	r2,r2,r3
 1802574:	80801415 	stw	r2,80(r16)
 1802578:	1805883a 	mov	r2,r3
 180257c:	dfc00117 	ldw	ra,4(sp)
 1802580:	dc000017 	ldw	r16,0(sp)
 1802584:	dec00204 	addi	sp,sp,8
 1802588:	f800283a 	ret
 180258c:	8080030b 	ldhu	r2,12(r16)
 1802590:	10bbffcc 	andi	r2,r2,61439
 1802594:	8080030d 	sth	r2,12(r16)
 1802598:	1805883a 	mov	r2,r3
 180259c:	dfc00117 	ldw	ra,4(sp)
 18025a0:	dc000017 	ldw	r16,0(sp)
 18025a4:	dec00204 	addi	sp,sp,8
 18025a8:	f800283a 	ret

018025ac <_write_r>:
 18025ac:	defffd04 	addi	sp,sp,-12
 18025b0:	dc000015 	stw	r16,0(sp)
 18025b4:	04006074 	movhi	r16,385
 18025b8:	842d3204 	addi	r16,r16,-19256
 18025bc:	dc400115 	stw	r17,4(sp)
 18025c0:	80000015 	stw	zero,0(r16)
 18025c4:	2023883a 	mov	r17,r4
 18025c8:	2809883a 	mov	r4,r5
 18025cc:	300b883a 	mov	r5,r6
 18025d0:	380d883a 	mov	r6,r7
 18025d4:	dfc00215 	stw	ra,8(sp)
 18025d8:	18032000 	call	1803200 <write>
 18025dc:	1007883a 	mov	r3,r2
 18025e0:	00bfffc4 	movi	r2,-1
 18025e4:	18800626 	beq	r3,r2,1802600 <_write_r+0x54>
 18025e8:	1805883a 	mov	r2,r3
 18025ec:	dfc00217 	ldw	ra,8(sp)
 18025f0:	dc400117 	ldw	r17,4(sp)
 18025f4:	dc000017 	ldw	r16,0(sp)
 18025f8:	dec00304 	addi	sp,sp,12
 18025fc:	f800283a 	ret
 1802600:	80800017 	ldw	r2,0(r16)
 1802604:	103ff826 	beq	r2,zero,18025e8 <_write_r+0x3c>
 1802608:	88800015 	stw	r2,0(r17)
 180260c:	1805883a 	mov	r2,r3
 1802610:	dfc00217 	ldw	ra,8(sp)
 1802614:	dc400117 	ldw	r17,4(sp)
 1802618:	dc000017 	ldw	r16,0(sp)
 180261c:	dec00304 	addi	sp,sp,12
 1802620:	f800283a 	ret

01802624 <_close_r>:
 1802624:	defffd04 	addi	sp,sp,-12
 1802628:	dc000015 	stw	r16,0(sp)
 180262c:	04006074 	movhi	r16,385
 1802630:	842d3204 	addi	r16,r16,-19256
 1802634:	dc400115 	stw	r17,4(sp)
 1802638:	80000015 	stw	zero,0(r16)
 180263c:	2023883a 	mov	r17,r4
 1802640:	2809883a 	mov	r4,r5
 1802644:	dfc00215 	stw	ra,8(sp)
 1802648:	180298c0 	call	180298c <close>
 180264c:	1007883a 	mov	r3,r2
 1802650:	00bfffc4 	movi	r2,-1
 1802654:	18800626 	beq	r3,r2,1802670 <_close_r+0x4c>
 1802658:	1805883a 	mov	r2,r3
 180265c:	dfc00217 	ldw	ra,8(sp)
 1802660:	dc400117 	ldw	r17,4(sp)
 1802664:	dc000017 	ldw	r16,0(sp)
 1802668:	dec00304 	addi	sp,sp,12
 180266c:	f800283a 	ret
 1802670:	80800017 	ldw	r2,0(r16)
 1802674:	103ff826 	beq	r2,zero,1802658 <_close_r+0x34>
 1802678:	88800015 	stw	r2,0(r17)
 180267c:	1805883a 	mov	r2,r3
 1802680:	dfc00217 	ldw	ra,8(sp)
 1802684:	dc400117 	ldw	r17,4(sp)
 1802688:	dc000017 	ldw	r16,0(sp)
 180268c:	dec00304 	addi	sp,sp,12
 1802690:	f800283a 	ret

01802694 <_fclose_r>:
 1802694:	defffc04 	addi	sp,sp,-16
 1802698:	dc400115 	stw	r17,4(sp)
 180269c:	dc000015 	stw	r16,0(sp)
 18026a0:	dfc00315 	stw	ra,12(sp)
 18026a4:	dc800215 	stw	r18,8(sp)
 18026a8:	2821883a 	mov	r16,r5
 18026ac:	2023883a 	mov	r17,r4
 18026b0:	28002926 	beq	r5,zero,1802758 <_fclose_r+0xc4>
 18026b4:	1801a0c0 	call	1801a0c <__sfp_lock_acquire>
 18026b8:	88000226 	beq	r17,zero,18026c4 <_fclose_r+0x30>
 18026bc:	88800e17 	ldw	r2,56(r17)
 18026c0:	10002d26 	beq	r2,zero,1802778 <_fclose_r+0xe4>
 18026c4:	8080030f 	ldh	r2,12(r16)
 18026c8:	10002226 	beq	r2,zero,1802754 <_fclose_r+0xc0>
 18026cc:	8809883a 	mov	r4,r17
 18026d0:	800b883a 	mov	r5,r16
 18026d4:	18017840 	call	1801784 <_fflush_r>
 18026d8:	1025883a 	mov	r18,r2
 18026dc:	80800b17 	ldw	r2,44(r16)
 18026e0:	10000426 	beq	r2,zero,18026f4 <_fclose_r+0x60>
 18026e4:	81400717 	ldw	r5,28(r16)
 18026e8:	8809883a 	mov	r4,r17
 18026ec:	103ee83a 	callr	r2
 18026f0:	10002a16 	blt	r2,zero,180279c <_fclose_r+0x108>
 18026f4:	8080030b 	ldhu	r2,12(r16)
 18026f8:	1080200c 	andi	r2,r2,128
 18026fc:	1000231e 	bne	r2,zero,180278c <_fclose_r+0xf8>
 1802700:	81400c17 	ldw	r5,48(r16)
 1802704:	28000526 	beq	r5,zero,180271c <_fclose_r+0x88>
 1802708:	80801004 	addi	r2,r16,64
 180270c:	28800226 	beq	r5,r2,1802718 <_fclose_r+0x84>
 1802710:	8809883a 	mov	r4,r17
 1802714:	1801da00 	call	1801da0 <_free_r>
 1802718:	80000c15 	stw	zero,48(r16)
 180271c:	81401117 	ldw	r5,68(r16)
 1802720:	28000326 	beq	r5,zero,1802730 <_fclose_r+0x9c>
 1802724:	8809883a 	mov	r4,r17
 1802728:	1801da00 	call	1801da0 <_free_r>
 180272c:	80001115 	stw	zero,68(r16)
 1802730:	8000030d 	sth	zero,12(r16)
 1802734:	1801a100 	call	1801a10 <__sfp_lock_release>
 1802738:	9005883a 	mov	r2,r18
 180273c:	dfc00317 	ldw	ra,12(sp)
 1802740:	dc800217 	ldw	r18,8(sp)
 1802744:	dc400117 	ldw	r17,4(sp)
 1802748:	dc000017 	ldw	r16,0(sp)
 180274c:	dec00404 	addi	sp,sp,16
 1802750:	f800283a 	ret
 1802754:	1801a100 	call	1801a10 <__sfp_lock_release>
 1802758:	0025883a 	mov	r18,zero
 180275c:	9005883a 	mov	r2,r18
 1802760:	dfc00317 	ldw	ra,12(sp)
 1802764:	dc800217 	ldw	r18,8(sp)
 1802768:	dc400117 	ldw	r17,4(sp)
 180276c:	dc000017 	ldw	r16,0(sp)
 1802770:	dec00404 	addi	sp,sp,16
 1802774:	f800283a 	ret
 1802778:	8809883a 	mov	r4,r17
 180277c:	1801a1c0 	call	1801a1c <__sinit>
 1802780:	8080030f 	ldh	r2,12(r16)
 1802784:	103fd11e 	bne	r2,zero,18026cc <_fclose_r+0x38>
 1802788:	003ff206 	br	1802754 <_fclose_r+0xc0>
 180278c:	81400417 	ldw	r5,16(r16)
 1802790:	8809883a 	mov	r4,r17
 1802794:	1801da00 	call	1801da0 <_free_r>
 1802798:	003fd906 	br	1802700 <_fclose_r+0x6c>
 180279c:	04bfffc4 	movi	r18,-1
 18027a0:	003fd406 	br	18026f4 <_fclose_r+0x60>

018027a4 <fclose>:
 18027a4:	00806074 	movhi	r2,385
 18027a8:	10ad1d04 	addi	r2,r2,-19340
 18027ac:	200b883a 	mov	r5,r4
 18027b0:	11000017 	ldw	r4,0(r2)
 18027b4:	18026941 	jmpi	1802694 <_fclose_r>

018027b8 <_fstat_r>:
 18027b8:	defffd04 	addi	sp,sp,-12
 18027bc:	dc000015 	stw	r16,0(sp)
 18027c0:	04006074 	movhi	r16,385
 18027c4:	842d3204 	addi	r16,r16,-19256
 18027c8:	dc400115 	stw	r17,4(sp)
 18027cc:	80000015 	stw	zero,0(r16)
 18027d0:	2023883a 	mov	r17,r4
 18027d4:	2809883a 	mov	r4,r5
 18027d8:	300b883a 	mov	r5,r6
 18027dc:	dfc00215 	stw	ra,8(sp)
 18027e0:	1802b140 	call	1802b14 <fstat>
 18027e4:	1007883a 	mov	r3,r2
 18027e8:	00bfffc4 	movi	r2,-1
 18027ec:	18800626 	beq	r3,r2,1802808 <_fstat_r+0x50>
 18027f0:	1805883a 	mov	r2,r3
 18027f4:	dfc00217 	ldw	ra,8(sp)
 18027f8:	dc400117 	ldw	r17,4(sp)
 18027fc:	dc000017 	ldw	r16,0(sp)
 1802800:	dec00304 	addi	sp,sp,12
 1802804:	f800283a 	ret
 1802808:	80800017 	ldw	r2,0(r16)
 180280c:	103ff826 	beq	r2,zero,18027f0 <_fstat_r+0x38>
 1802810:	88800015 	stw	r2,0(r17)
 1802814:	1805883a 	mov	r2,r3
 1802818:	dfc00217 	ldw	ra,8(sp)
 180281c:	dc400117 	ldw	r17,4(sp)
 1802820:	dc000017 	ldw	r16,0(sp)
 1802824:	dec00304 	addi	sp,sp,12
 1802828:	f800283a 	ret

0180282c <_isatty_r>:
 180282c:	defffd04 	addi	sp,sp,-12
 1802830:	dc000015 	stw	r16,0(sp)
 1802834:	04006074 	movhi	r16,385
 1802838:	842d3204 	addi	r16,r16,-19256
 180283c:	dc400115 	stw	r17,4(sp)
 1802840:	80000015 	stw	zero,0(r16)
 1802844:	2023883a 	mov	r17,r4
 1802848:	2809883a 	mov	r4,r5
 180284c:	dfc00215 	stw	ra,8(sp)
 1802850:	1802c480 	call	1802c48 <isatty>
 1802854:	1007883a 	mov	r3,r2
 1802858:	00bfffc4 	movi	r2,-1
 180285c:	18800626 	beq	r3,r2,1802878 <_isatty_r+0x4c>
 1802860:	1805883a 	mov	r2,r3
 1802864:	dfc00217 	ldw	ra,8(sp)
 1802868:	dc400117 	ldw	r17,4(sp)
 180286c:	dc000017 	ldw	r16,0(sp)
 1802870:	dec00304 	addi	sp,sp,12
 1802874:	f800283a 	ret
 1802878:	80800017 	ldw	r2,0(r16)
 180287c:	103ff826 	beq	r2,zero,1802860 <_isatty_r+0x34>
 1802880:	88800015 	stw	r2,0(r17)
 1802884:	1805883a 	mov	r2,r3
 1802888:	dfc00217 	ldw	ra,8(sp)
 180288c:	dc400117 	ldw	r17,4(sp)
 1802890:	dc000017 	ldw	r16,0(sp)
 1802894:	dec00304 	addi	sp,sp,12
 1802898:	f800283a 	ret

0180289c <_lseek_r>:
 180289c:	defffd04 	addi	sp,sp,-12
 18028a0:	dc000015 	stw	r16,0(sp)
 18028a4:	04006074 	movhi	r16,385
 18028a8:	842d3204 	addi	r16,r16,-19256
 18028ac:	dc400115 	stw	r17,4(sp)
 18028b0:	80000015 	stw	zero,0(r16)
 18028b4:	2023883a 	mov	r17,r4
 18028b8:	2809883a 	mov	r4,r5
 18028bc:	300b883a 	mov	r5,r6
 18028c0:	380d883a 	mov	r6,r7
 18028c4:	dfc00215 	stw	ra,8(sp)
 18028c8:	1802d680 	call	1802d68 <lseek>
 18028cc:	1007883a 	mov	r3,r2
 18028d0:	00bfffc4 	movi	r2,-1
 18028d4:	18800626 	beq	r3,r2,18028f0 <_lseek_r+0x54>
 18028d8:	1805883a 	mov	r2,r3
 18028dc:	dfc00217 	ldw	ra,8(sp)
 18028e0:	dc400117 	ldw	r17,4(sp)
 18028e4:	dc000017 	ldw	r16,0(sp)
 18028e8:	dec00304 	addi	sp,sp,12
 18028ec:	f800283a 	ret
 18028f0:	80800017 	ldw	r2,0(r16)
 18028f4:	103ff826 	beq	r2,zero,18028d8 <_lseek_r+0x3c>
 18028f8:	88800015 	stw	r2,0(r17)
 18028fc:	1805883a 	mov	r2,r3
 1802900:	dfc00217 	ldw	ra,8(sp)
 1802904:	dc400117 	ldw	r17,4(sp)
 1802908:	dc000017 	ldw	r16,0(sp)
 180290c:	dec00304 	addi	sp,sp,12
 1802910:	f800283a 	ret

01802914 <_read_r>:
 1802914:	defffd04 	addi	sp,sp,-12
 1802918:	dc000015 	stw	r16,0(sp)
 180291c:	04006074 	movhi	r16,385
 1802920:	842d3204 	addi	r16,r16,-19256
 1802924:	dc400115 	stw	r17,4(sp)
 1802928:	80000015 	stw	zero,0(r16)
 180292c:	2023883a 	mov	r17,r4
 1802930:	2809883a 	mov	r4,r5
 1802934:	300b883a 	mov	r5,r6
 1802938:	380d883a 	mov	r6,r7
 180293c:	dfc00215 	stw	ra,8(sp)
 1802940:	1802f640 	call	1802f64 <read>
 1802944:	1007883a 	mov	r3,r2
 1802948:	00bfffc4 	movi	r2,-1
 180294c:	18800626 	beq	r3,r2,1802968 <_read_r+0x54>
 1802950:	1805883a 	mov	r2,r3
 1802954:	dfc00217 	ldw	ra,8(sp)
 1802958:	dc400117 	ldw	r17,4(sp)
 180295c:	dc000017 	ldw	r16,0(sp)
 1802960:	dec00304 	addi	sp,sp,12
 1802964:	f800283a 	ret
 1802968:	80800017 	ldw	r2,0(r16)
 180296c:	103ff826 	beq	r2,zero,1802950 <_read_r+0x3c>
 1802970:	88800015 	stw	r2,0(r17)
 1802974:	1805883a 	mov	r2,r3
 1802978:	dfc00217 	ldw	ra,8(sp)
 180297c:	dc400117 	ldw	r17,4(sp)
 1802980:	dc000017 	ldw	r16,0(sp)
 1802984:	dec00304 	addi	sp,sp,12
 1802988:	f800283a 	ret

0180298c <close>:
 *
 * ALT_CLOSE is mapped onto the close() system call in alt_syscall.h
 */
 
int ALT_CLOSE (int fildes)
{
 180298c:	defff804 	addi	sp,sp,-32
 1802990:	dfc00715 	stw	ra,28(sp)
 1802994:	df000615 	stw	fp,24(sp)
 1802998:	df000604 	addi	fp,sp,24
 180299c:	e13ffc15 	stw	r4,-16(fp)
   * A common error case is that when the file descriptor was created, the call
   * to open() failed resulting in a negative file descriptor. This is trapped
   * below so that we don't try and process an invalid file descriptor.
   */

  fd = (fildes < 0) ? NULL : &alt_fd_list[fildes];
 18029a0:	e0bffc17 	ldw	r2,-16(fp)
 18029a4:	1004803a 	cmplt	r2,r2,zero
 18029a8:	1000081e 	bne	r2,zero,18029cc <close+0x40>
 18029ac:	e0bffc17 	ldw	r2,-16(fp)
 18029b0:	10800324 	muli	r2,r2,12
 18029b4:	1007883a 	mov	r3,r2
 18029b8:	00806074 	movhi	r2,385
 18029bc:	10a7f604 	addi	r2,r2,-24616
 18029c0:	1887883a 	add	r3,r3,r2
 18029c4:	e0ffff15 	stw	r3,-4(fp)
 18029c8:	00000106 	br	18029d0 <close+0x44>
 18029cc:	e03fff15 	stw	zero,-4(fp)
 18029d0:	e0bfff17 	ldw	r2,-4(fp)
 18029d4:	e0bffb15 	stw	r2,-20(fp)

  if (fd)
 18029d8:	e0bffb17 	ldw	r2,-20(fp)
 18029dc:	1005003a 	cmpeq	r2,r2,zero
 18029e0:	10001d1e 	bne	r2,zero,1802a58 <close+0xcc>
    /*
     * If the associated file system/device has a close function, call it so 
     * that any necessary cleanup code can run.
     */

    rval = (fd->dev->close) ? fd->dev->close(fd) : 0;
 18029e4:	e0bffb17 	ldw	r2,-20(fp)
 18029e8:	10800017 	ldw	r2,0(r2)
 18029ec:	10800417 	ldw	r2,16(r2)
 18029f0:	1005003a 	cmpeq	r2,r2,zero
 18029f4:	1000071e 	bne	r2,zero,1802a14 <close+0x88>
 18029f8:	e0bffb17 	ldw	r2,-20(fp)
 18029fc:	10800017 	ldw	r2,0(r2)
 1802a00:	10800417 	ldw	r2,16(r2)
 1802a04:	e13ffb17 	ldw	r4,-20(fp)
 1802a08:	103ee83a 	callr	r2
 1802a0c:	e0bffe15 	stw	r2,-8(fp)
 1802a10:	00000106 	br	1802a18 <close+0x8c>
 1802a14:	e03ffe15 	stw	zero,-8(fp)
 1802a18:	e0bffe17 	ldw	r2,-8(fp)
 1802a1c:	e0bffa15 	stw	r2,-24(fp)

    /* Free the file descriptor structure and return. */

    alt_release_fd (fildes);
 1802a20:	e13ffc17 	ldw	r4,-16(fp)
 1802a24:	18030e40 	call	18030e4 <alt_release_fd>
    if (rval < 0)
 1802a28:	e0bffa17 	ldw	r2,-24(fp)
 1802a2c:	1004403a 	cmpge	r2,r2,zero
 1802a30:	1000071e 	bne	r2,zero,1802a50 <close+0xc4>
    {
      ALT_ERRNO = -rval;
 1802a34:	1802a880 	call	1802a88 <alt_get_errno>
 1802a38:	e0fffa17 	ldw	r3,-24(fp)
 1802a3c:	00c7c83a 	sub	r3,zero,r3
 1802a40:	10c00015 	stw	r3,0(r2)
      return -1;
 1802a44:	00bfffc4 	movi	r2,-1
 1802a48:	e0bffd15 	stw	r2,-12(fp)
 1802a4c:	00000806 	br	1802a70 <close+0xe4>
    }
    return 0;
 1802a50:	e03ffd15 	stw	zero,-12(fp)
 1802a54:	00000606 	br	1802a70 <close+0xe4>
  }
  else
  {
    ALT_ERRNO = EBADFD;
 1802a58:	1802a880 	call	1802a88 <alt_get_errno>
 1802a5c:	1007883a 	mov	r3,r2
 1802a60:	00801444 	movi	r2,81
 1802a64:	18800015 	stw	r2,0(r3)
    return -1;
 1802a68:	00bfffc4 	movi	r2,-1
 1802a6c:	e0bffd15 	stw	r2,-12(fp)
 1802a70:	e0bffd17 	ldw	r2,-12(fp)
  }
}
 1802a74:	e037883a 	mov	sp,fp
 1802a78:	dfc00117 	ldw	ra,4(sp)
 1802a7c:	df000017 	ldw	fp,0(sp)
 1802a80:	dec00204 	addi	sp,sp,8
 1802a84:	f800283a 	ret

01802a88 <alt_get_errno>:
#undef errno

extern int errno;

static ALT_INLINE int* alt_get_errno(void)
{
 1802a88:	defffd04 	addi	sp,sp,-12
 1802a8c:	dfc00215 	stw	ra,8(sp)
 1802a90:	df000115 	stw	fp,4(sp)
 1802a94:	df000104 	addi	fp,sp,4
  return ((alt_errno) ? alt_errno() : &errno);
 1802a98:	00806074 	movhi	r2,385
 1802a9c:	10ad2604 	addi	r2,r2,-19304
 1802aa0:	10800017 	ldw	r2,0(r2)
 1802aa4:	1005003a 	cmpeq	r2,r2,zero
 1802aa8:	1000061e 	bne	r2,zero,1802ac4 <alt_get_errno+0x3c>
 1802aac:	00806074 	movhi	r2,385
 1802ab0:	10ad2604 	addi	r2,r2,-19304
 1802ab4:	10800017 	ldw	r2,0(r2)
 1802ab8:	103ee83a 	callr	r2
 1802abc:	e0bfff15 	stw	r2,-4(fp)
 1802ac0:	00000306 	br	1802ad0 <alt_get_errno+0x48>
 1802ac4:	00806074 	movhi	r2,385
 1802ac8:	10ad3204 	addi	r2,r2,-19256
 1802acc:	e0bfff15 	stw	r2,-4(fp)
 1802ad0:	e0bfff17 	ldw	r2,-4(fp)
}
 1802ad4:	e037883a 	mov	sp,fp
 1802ad8:	dfc00117 	ldw	ra,4(sp)
 1802adc:	df000017 	ldw	fp,0(sp)
 1802ae0:	dec00204 	addi	sp,sp,8
 1802ae4:	f800283a 	ret

01802ae8 <alt_dev_null_write>:
 * by the alt_dev_null device. It simple discards all data passed to it, and
 * indicates that the data has been successfully transmitted.
 */

static int alt_dev_null_write (alt_fd* fd, const char* ptr, int len)
{
 1802ae8:	defffc04 	addi	sp,sp,-16
 1802aec:	df000315 	stw	fp,12(sp)
 1802af0:	df000304 	addi	fp,sp,12
 1802af4:	e13ffd15 	stw	r4,-12(fp)
 1802af8:	e17ffe15 	stw	r5,-8(fp)
 1802afc:	e1bfff15 	stw	r6,-4(fp)
  return len;
 1802b00:	e0bfff17 	ldw	r2,-4(fp)
}
 1802b04:	e037883a 	mov	sp,fp
 1802b08:	df000017 	ldw	fp,0(sp)
 1802b0c:	dec00104 	addi	sp,sp,4
 1802b10:	f800283a 	ret

01802b14 <fstat>:
}

#else /* !ALT_USE_DIRECT_DRIVERS */

int ALT_FSTAT (int file, struct stat *st)
{
 1802b14:	defff904 	addi	sp,sp,-28
 1802b18:	dfc00615 	stw	ra,24(sp)
 1802b1c:	df000515 	stw	fp,20(sp)
 1802b20:	df000504 	addi	fp,sp,20
 1802b24:	e13ffc15 	stw	r4,-16(fp)
 1802b28:	e17ffd15 	stw	r5,-12(fp)
   * A common error case is that when the file descriptor was created, the call
   * to open() failed resulting in a negative file descriptor. This is trapped
   * below so that we don't try and process an invalid file descriptor.
   */

  fd = (file < 0) ? NULL : &alt_fd_list[file];
 1802b2c:	e0bffc17 	ldw	r2,-16(fp)
 1802b30:	1004803a 	cmplt	r2,r2,zero
 1802b34:	1000081e 	bne	r2,zero,1802b58 <fstat+0x44>
 1802b38:	e0bffc17 	ldw	r2,-16(fp)
 1802b3c:	10800324 	muli	r2,r2,12
 1802b40:	1007883a 	mov	r3,r2
 1802b44:	00806074 	movhi	r2,385
 1802b48:	10a7f604 	addi	r2,r2,-24616
 1802b4c:	1887883a 	add	r3,r3,r2
 1802b50:	e0ffff15 	stw	r3,-4(fp)
 1802b54:	00000106 	br	1802b5c <fstat+0x48>
 1802b58:	e03fff15 	stw	zero,-4(fp)
 1802b5c:	e0bfff17 	ldw	r2,-4(fp)
 1802b60:	e0bffb15 	stw	r2,-20(fp)
  
  if (fd)
 1802b64:	e0bffb17 	ldw	r2,-20(fp)
 1802b68:	1005003a 	cmpeq	r2,r2,zero
 1802b6c:	1000121e 	bne	r2,zero,1802bb8 <fstat+0xa4>
  {
    /* Call the drivers fstat() function to fill out the "st" structure. */

    if (fd->dev->fstat)
 1802b70:	e0bffb17 	ldw	r2,-20(fp)
 1802b74:	10800017 	ldw	r2,0(r2)
 1802b78:	10800817 	ldw	r2,32(r2)
 1802b7c:	1005003a 	cmpeq	r2,r2,zero
 1802b80:	1000081e 	bne	r2,zero,1802ba4 <fstat+0x90>
    {
      return fd->dev->fstat(fd, st);
 1802b84:	e0bffb17 	ldw	r2,-20(fp)
 1802b88:	10800017 	ldw	r2,0(r2)
 1802b8c:	10800817 	ldw	r2,32(r2)
 1802b90:	e13ffb17 	ldw	r4,-20(fp)
 1802b94:	e17ffd17 	ldw	r5,-12(fp)
 1802b98:	103ee83a 	callr	r2
 1802b9c:	e0bffe15 	stw	r2,-8(fp)
 1802ba0:	00000b06 	br	1802bd0 <fstat+0xbc>
     * device.
     */
 
    else
    {
      st->st_mode = _IFCHR;
 1802ba4:	e0fffd17 	ldw	r3,-12(fp)
 1802ba8:	00880004 	movi	r2,8192
 1802bac:	18800115 	stw	r2,4(r3)
      return 0;
 1802bb0:	e03ffe15 	stw	zero,-8(fp)
 1802bb4:	00000606 	br	1802bd0 <fstat+0xbc>
    }
  }
  else
  {
    ALT_ERRNO = EBADFD;
 1802bb8:	1802be80 	call	1802be8 <alt_get_errno>
 1802bbc:	1007883a 	mov	r3,r2
 1802bc0:	00801444 	movi	r2,81
 1802bc4:	18800015 	stw	r2,0(r3)
    return -1;
 1802bc8:	00bfffc4 	movi	r2,-1
 1802bcc:	e0bffe15 	stw	r2,-8(fp)
 1802bd0:	e0bffe17 	ldw	r2,-8(fp)
  }
}
 1802bd4:	e037883a 	mov	sp,fp
 1802bd8:	dfc00117 	ldw	ra,4(sp)
 1802bdc:	df000017 	ldw	fp,0(sp)
 1802be0:	dec00204 	addi	sp,sp,8
 1802be4:	f800283a 	ret

01802be8 <alt_get_errno>:
#undef errno

extern int errno;

static ALT_INLINE int* alt_get_errno(void)
{
 1802be8:	defffd04 	addi	sp,sp,-12
 1802bec:	dfc00215 	stw	ra,8(sp)
 1802bf0:	df000115 	stw	fp,4(sp)
 1802bf4:	df000104 	addi	fp,sp,4
  return ((alt_errno) ? alt_errno() : &errno);
 1802bf8:	00806074 	movhi	r2,385
 1802bfc:	10ad2604 	addi	r2,r2,-19304
 1802c00:	10800017 	ldw	r2,0(r2)
 1802c04:	1005003a 	cmpeq	r2,r2,zero
 1802c08:	1000061e 	bne	r2,zero,1802c24 <alt_get_errno+0x3c>
 1802c0c:	00806074 	movhi	r2,385
 1802c10:	10ad2604 	addi	r2,r2,-19304
 1802c14:	10800017 	ldw	r2,0(r2)
 1802c18:	103ee83a 	callr	r2
 1802c1c:	e0bfff15 	stw	r2,-4(fp)
 1802c20:	00000306 	br	1802c30 <alt_get_errno+0x48>
 1802c24:	00806074 	movhi	r2,385
 1802c28:	10ad3204 	addi	r2,r2,-19256
 1802c2c:	e0bfff15 	stw	r2,-4(fp)
 1802c30:	e0bfff17 	ldw	r2,-4(fp)
}
 1802c34:	e037883a 	mov	sp,fp
 1802c38:	dfc00117 	ldw	ra,4(sp)
 1802c3c:	df000017 	ldw	fp,0(sp)
 1802c40:	dec00204 	addi	sp,sp,8
 1802c44:	f800283a 	ret

01802c48 <isatty>:
 *
 * ALT_ISATTY is mapped onto the isatty() system call in alt_syscall.h
 */
 
int ALT_ISATTY (int file)
{
 1802c48:	deffeb04 	addi	sp,sp,-84
 1802c4c:	dfc01415 	stw	ra,80(sp)
 1802c50:	df001315 	stw	fp,76(sp)
 1802c54:	df001304 	addi	fp,sp,76
 1802c58:	e13ffd15 	stw	r4,-12(fp)
   * A common error case is that when the file descriptor was created, the call
   * to open() failed resulting in a negative file descriptor. This is trapped
   * below so that we don't try and process an invalid file descriptor.
   */

  fd = (file < 0) ? NULL : &alt_fd_list[file];
 1802c5c:	e0bffd17 	ldw	r2,-12(fp)
 1802c60:	1004803a 	cmplt	r2,r2,zero
 1802c64:	1000081e 	bne	r2,zero,1802c88 <isatty+0x40>
 1802c68:	e0bffd17 	ldw	r2,-12(fp)
 1802c6c:	10800324 	muli	r2,r2,12
 1802c70:	1007883a 	mov	r3,r2
 1802c74:	00806074 	movhi	r2,385
 1802c78:	10a7f604 	addi	r2,r2,-24616
 1802c7c:	1887883a 	add	r3,r3,r2
 1802c80:	e0ffff15 	stw	r3,-4(fp)
 1802c84:	00000106 	br	1802c8c <isatty+0x44>
 1802c88:	e03fff15 	stw	zero,-4(fp)
 1802c8c:	e0bfff17 	ldw	r2,-4(fp)
 1802c90:	e0bfed15 	stw	r2,-76(fp)
  
  if (fd)
 1802c94:	e0bfed17 	ldw	r2,-76(fp)
 1802c98:	1005003a 	cmpeq	r2,r2,zero
 1802c9c:	10000f1e 	bne	r2,zero,1802cdc <isatty+0x94>
    /*
     * If a device driver does not provide an fstat() function, then it is 
     * treated as a terminal device by default.
     */

    if (!fd->dev->fstat)
 1802ca0:	e0bfed17 	ldw	r2,-76(fp)
 1802ca4:	10800017 	ldw	r2,0(r2)
 1802ca8:	10800817 	ldw	r2,32(r2)
 1802cac:	1004c03a 	cmpne	r2,r2,zero
 1802cb0:	1000031e 	bne	r2,zero,1802cc0 <isatty+0x78>
    {
      return 1;
 1802cb4:	00800044 	movi	r2,1
 1802cb8:	e0bffe15 	stw	r2,-8(fp)
 1802cbc:	00000c06 	br	1802cf0 <isatty+0xa8>
     * this is called so that the device can identify itself.
     */ 

    else
    {
      fstat (file, &stat);
 1802cc0:	e17fee04 	addi	r5,fp,-72
 1802cc4:	e13ffd17 	ldw	r4,-12(fp)
 1802cc8:	1802b140 	call	1802b14 <fstat>
      return (stat.st_mode == _IFCHR) ? 1 : 0;
 1802ccc:	e0bfef17 	ldw	r2,-68(fp)
 1802cd0:	10880020 	cmpeqi	r2,r2,8192
 1802cd4:	e0bffe15 	stw	r2,-8(fp)
 1802cd8:	00000506 	br	1802cf0 <isatty+0xa8>
    }
  }
  else
  {
    ALT_ERRNO = EBADFD;
 1802cdc:	1802d080 	call	1802d08 <alt_get_errno>
 1802ce0:	1007883a 	mov	r3,r2
 1802ce4:	00801444 	movi	r2,81
 1802ce8:	18800015 	stw	r2,0(r3)
    return 0;
 1802cec:	e03ffe15 	stw	zero,-8(fp)
 1802cf0:	e0bffe17 	ldw	r2,-8(fp)
  }
}
 1802cf4:	e037883a 	mov	sp,fp
 1802cf8:	dfc00117 	ldw	ra,4(sp)
 1802cfc:	df000017 	ldw	fp,0(sp)
 1802d00:	dec00204 	addi	sp,sp,8
 1802d04:	f800283a 	ret

01802d08 <alt_get_errno>:
#undef errno

extern int errno;

static ALT_INLINE int* alt_get_errno(void)
{
 1802d08:	defffd04 	addi	sp,sp,-12
 1802d0c:	dfc00215 	stw	ra,8(sp)
 1802d10:	df000115 	stw	fp,4(sp)
 1802d14:	df000104 	addi	fp,sp,4
  return ((alt_errno) ? alt_errno() : &errno);
 1802d18:	00806074 	movhi	r2,385
 1802d1c:	10ad2604 	addi	r2,r2,-19304
 1802d20:	10800017 	ldw	r2,0(r2)
 1802d24:	1005003a 	cmpeq	r2,r2,zero
 1802d28:	1000061e 	bne	r2,zero,1802d44 <alt_get_errno+0x3c>
 1802d2c:	00806074 	movhi	r2,385
 1802d30:	10ad2604 	addi	r2,r2,-19304
 1802d34:	10800017 	ldw	r2,0(r2)
 1802d38:	103ee83a 	callr	r2
 1802d3c:	e0bfff15 	stw	r2,-4(fp)
 1802d40:	00000306 	br	1802d50 <alt_get_errno+0x48>
 1802d44:	00806074 	movhi	r2,385
 1802d48:	10ad3204 	addi	r2,r2,-19256
 1802d4c:	e0bfff15 	stw	r2,-4(fp)
 1802d50:	e0bfff17 	ldw	r2,-4(fp)
}
 1802d54:	e037883a 	mov	sp,fp
 1802d58:	dfc00117 	ldw	ra,4(sp)
 1802d5c:	df000017 	ldw	fp,0(sp)
 1802d60:	dec00204 	addi	sp,sp,8
 1802d64:	f800283a 	ret

01802d68 <lseek>:
 * ALT_LSEEK is mapped onto the lseek() system call in alt_syscall.h
 *
 */

off_t ALT_LSEEK (int file, off_t ptr, int dir)
{
 1802d68:	defff804 	addi	sp,sp,-32
 1802d6c:	dfc00715 	stw	ra,28(sp)
 1802d70:	df000615 	stw	fp,24(sp)
 1802d74:	df000604 	addi	fp,sp,24
 1802d78:	e13ffc15 	stw	r4,-16(fp)
 1802d7c:	e17ffd15 	stw	r5,-12(fp)
 1802d80:	e1bffe15 	stw	r6,-8(fp)
  alt_fd* fd;
  off_t   rc = 0; 
 1802d84:	e03ffa15 	stw	zero,-24(fp)
   * A common error case is that when the file descriptor was created, the call
   * to open() failed resulting in a negative file descriptor. This is trapped
   * below so that we don't try and process an invalid file descriptor.
   */

  fd = (file < 0) ? NULL : &alt_fd_list[file];
 1802d88:	e0bffc17 	ldw	r2,-16(fp)
 1802d8c:	1004803a 	cmplt	r2,r2,zero
 1802d90:	1000081e 	bne	r2,zero,1802db4 <lseek+0x4c>
 1802d94:	e0bffc17 	ldw	r2,-16(fp)
 1802d98:	10800324 	muli	r2,r2,12
 1802d9c:	1007883a 	mov	r3,r2
 1802da0:	00806074 	movhi	r2,385
 1802da4:	10a7f604 	addi	r2,r2,-24616
 1802da8:	1887883a 	add	r3,r3,r2
 1802dac:	e0ffff15 	stw	r3,-4(fp)
 1802db0:	00000106 	br	1802db8 <lseek+0x50>
 1802db4:	e03fff15 	stw	zero,-4(fp)
 1802db8:	e0bfff17 	ldw	r2,-4(fp)
 1802dbc:	e0bffb15 	stw	r2,-20(fp)
  
  if (fd) 
 1802dc0:	e0bffb17 	ldw	r2,-20(fp)
 1802dc4:	1005003a 	cmpeq	r2,r2,zero
 1802dc8:	1000111e 	bne	r2,zero,1802e10 <lseek+0xa8>
    /*
     * If the device driver provides an implementation of the lseek() function,
     * then call that to process the request.
     */
 
    if (fd->dev->lseek)
 1802dcc:	e0bffb17 	ldw	r2,-20(fp)
 1802dd0:	10800017 	ldw	r2,0(r2)
 1802dd4:	10800717 	ldw	r2,28(r2)
 1802dd8:	1005003a 	cmpeq	r2,r2,zero
 1802ddc:	1000091e 	bne	r2,zero,1802e04 <lseek+0x9c>
    {
      rc = fd->dev->lseek(fd, ptr, dir);
 1802de0:	e0bffb17 	ldw	r2,-20(fp)
 1802de4:	10800017 	ldw	r2,0(r2)
 1802de8:	10800717 	ldw	r2,28(r2)
 1802dec:	e13ffb17 	ldw	r4,-20(fp)
 1802df0:	e17ffd17 	ldw	r5,-12(fp)
 1802df4:	e1bffe17 	ldw	r6,-8(fp)
 1802df8:	103ee83a 	callr	r2
 1802dfc:	e0bffa15 	stw	r2,-24(fp)
 1802e00:	00000506 	br	1802e18 <lseek+0xb0>
     * Otherwise return an error.
     */

    else
    {
      rc = -ENOTSUP;
 1802e04:	00bfde84 	movi	r2,-134
 1802e08:	e0bffa15 	stw	r2,-24(fp)
 1802e0c:	00000206 	br	1802e18 <lseek+0xb0>
    }
  }
  else  
  {
    rc = -EBADFD;
 1802e10:	00bfebc4 	movi	r2,-81
 1802e14:	e0bffa15 	stw	r2,-24(fp)
  }

  if (rc < 0)
 1802e18:	e0bffa17 	ldw	r2,-24(fp)
 1802e1c:	1004403a 	cmpge	r2,r2,zero
 1802e20:	1000071e 	bne	r2,zero,1802e40 <lseek+0xd8>
  {
    ALT_ERRNO = -rc;
 1802e24:	1802e580 	call	1802e58 <alt_get_errno>
 1802e28:	1007883a 	mov	r3,r2
 1802e2c:	e0bffa17 	ldw	r2,-24(fp)
 1802e30:	0085c83a 	sub	r2,zero,r2
 1802e34:	18800015 	stw	r2,0(r3)
    rc = -1;
 1802e38:	00bfffc4 	movi	r2,-1
 1802e3c:	e0bffa15 	stw	r2,-24(fp)
  }

  return rc;
 1802e40:	e0bffa17 	ldw	r2,-24(fp)
}
 1802e44:	e037883a 	mov	sp,fp
 1802e48:	dfc00117 	ldw	ra,4(sp)
 1802e4c:	df000017 	ldw	fp,0(sp)
 1802e50:	dec00204 	addi	sp,sp,8
 1802e54:	f800283a 	ret

01802e58 <alt_get_errno>:
#undef errno

extern int errno;

static ALT_INLINE int* alt_get_errno(void)
{
 1802e58:	defffd04 	addi	sp,sp,-12
 1802e5c:	dfc00215 	stw	ra,8(sp)
 1802e60:	df000115 	stw	fp,4(sp)
 1802e64:	df000104 	addi	fp,sp,4
  return ((alt_errno) ? alt_errno() : &errno);
 1802e68:	00806074 	movhi	r2,385
 1802e6c:	10ad2604 	addi	r2,r2,-19304
 1802e70:	10800017 	ldw	r2,0(r2)
 1802e74:	1005003a 	cmpeq	r2,r2,zero
 1802e78:	1000061e 	bne	r2,zero,1802e94 <alt_get_errno+0x3c>
 1802e7c:	00806074 	movhi	r2,385
 1802e80:	10ad2604 	addi	r2,r2,-19304
 1802e84:	10800017 	ldw	r2,0(r2)
 1802e88:	103ee83a 	callr	r2
 1802e8c:	e0bfff15 	stw	r2,-4(fp)
 1802e90:	00000306 	br	1802ea0 <alt_get_errno+0x48>
 1802e94:	00806074 	movhi	r2,385
 1802e98:	10ad3204 	addi	r2,r2,-19256
 1802e9c:	e0bfff15 	stw	r2,-4(fp)
 1802ea0:	e0bfff17 	ldw	r2,-4(fp)
}
 1802ea4:	e037883a 	mov	sp,fp
 1802ea8:	dfc00117 	ldw	ra,4(sp)
 1802eac:	df000017 	ldw	fp,0(sp)
 1802eb0:	dec00204 	addi	sp,sp,8
 1802eb4:	f800283a 	ret

01802eb8 <alt_main>:
 * devices/filesystems/components in the system; and call the entry point for
 * the users application, i.e. main().
 */

void alt_main (void)
{
 1802eb8:	defffd04 	addi	sp,sp,-12
 1802ebc:	dfc00215 	stw	ra,8(sp)
 1802ec0:	df000115 	stw	fp,4(sp)
 1802ec4:	df000104 	addi	fp,sp,4
#endif

  /* ALT LOG - please see HAL/sys/alt_log_printf.h for details */
  ALT_LOG_PRINT_BOOT("[alt_main.c] Entering alt_main, calling alt_irq_init.\r\n");
  /* Initialize the interrupt controller. */
  alt_irq_init (NULL);
 1802ec8:	0009883a 	mov	r4,zero
 1802ecc:	18033800 	call	1803380 <alt_irq_init>
  ALT_LOG_PRINT_BOOT("[alt_main.c] Done OS Init, calling alt_sem_create.\r\n");
  ALT_SEM_CREATE (&alt_fd_list_lock, 1);

  /* Initialize the device drivers/software components. */
  ALT_LOG_PRINT_BOOT("[alt_main.c] Calling alt_sys_init.\r\n");
  alt_sys_init();
 1802ed0:	18033b40 	call	18033b4 <alt_sys_init>
   * devices be present (not equal to /dev/null) and if direct drivers
   * aren't being used.
   */

    ALT_LOG_PRINT_BOOT("[alt_main.c] Redirecting IO.\r\n");
    alt_io_redirect(ALT_STDOUT, ALT_STDIN, ALT_STDERR);
 1802ed4:	01006074 	movhi	r4,385
 1802ed8:	21253704 	addi	r4,r4,-27428
 1802edc:	01406074 	movhi	r5,385
 1802ee0:	29653704 	addi	r5,r5,-27428
 1802ee4:	01806074 	movhi	r6,385
 1802ee8:	31a53704 	addi	r6,r6,-27428
 1802eec:	1807e440 	call	1807e44 <alt_io_redirect>
  /* 
   * Call the C++ constructors 
   */

  ALT_LOG_PRINT_BOOT("[alt_main.c] Calling C++ constructors.\r\n");
  _do_ctors ();
 1802ef0:	180791c0 	call	180791c <_do_ctors>
   * redefined as _exit()). This is in the interest of reducing code footprint,
   * in that the atexit() overhead is removed when it's not needed.
   */

  ALT_LOG_PRINT_BOOT("[alt_main.c] Calling atexit.\r\n");
  atexit (_do_dtors);
 1802ef4:	01006034 	movhi	r4,384
 1802ef8:	211e6004 	addi	r4,r4,31104
 1802efc:	18090a80 	call	18090a8 <atexit>
  ALT_LOG_PRINT_BOOT("[alt_main.c] Calling main.\r\n");

#ifdef ALT_NO_EXIT
  main (alt_argc, alt_argv, alt_envp);
#else
  result = main (alt_argc, alt_argv, alt_envp);
 1802f00:	d1201617 	ldw	r4,-32680(gp)
 1802f04:	d1601717 	ldw	r5,-32676(gp)
 1802f08:	d1a01817 	ldw	r6,-32672(gp)
 1802f0c:	18000480 	call	1800048 <main>
 1802f10:	e0bfff15 	stw	r2,-4(fp)
  close(STDOUT_FILENO);
 1802f14:	01000044 	movi	r4,1
 1802f18:	180298c0 	call	180298c <close>
  exit (result);
 1802f1c:	e13fff17 	ldw	r4,-4(fp)
 1802f20:	18090bc0 	call	18090bc <exit>

01802f24 <__malloc_lock>:
 * configuration is single threaded, so there is nothing to do here. Note that 
 * this requires that malloc is never called by an interrupt service routine.
 */

void __malloc_lock ( struct _reent *_r )
{
 1802f24:	defffe04 	addi	sp,sp,-8
 1802f28:	df000115 	stw	fp,4(sp)
 1802f2c:	df000104 	addi	fp,sp,4
 1802f30:	e13fff15 	stw	r4,-4(fp)
}
 1802f34:	e037883a 	mov	sp,fp
 1802f38:	df000017 	ldw	fp,0(sp)
 1802f3c:	dec00104 	addi	sp,sp,4
 1802f40:	f800283a 	ret

01802f44 <__malloc_unlock>:
/*
 *
 */

void __malloc_unlock ( struct _reent *_r )
{
 1802f44:	defffe04 	addi	sp,sp,-8
 1802f48:	df000115 	stw	fp,4(sp)
 1802f4c:	df000104 	addi	fp,sp,4
 1802f50:	e13fff15 	stw	r4,-4(fp)
}
 1802f54:	e037883a 	mov	sp,fp
 1802f58:	df000017 	ldw	fp,0(sp)
 1802f5c:	dec00104 	addi	sp,sp,4
 1802f60:	f800283a 	ret

01802f64 <read>:
}

#else /* !ALT_USE_DIRECT_DRIVERS */

int ALT_READ (int file, void *ptr, size_t len)
{
 1802f64:	defff704 	addi	sp,sp,-36
 1802f68:	dfc00815 	stw	ra,32(sp)
 1802f6c:	df000715 	stw	fp,28(sp)
 1802f70:	df000704 	addi	fp,sp,28
 1802f74:	e13ffb15 	stw	r4,-20(fp)
 1802f78:	e17ffc15 	stw	r5,-16(fp)
 1802f7c:	e1bffd15 	stw	r6,-12(fp)
   * A common error case is that when the file descriptor was created, the call
   * to open() failed resulting in a negative file descriptor. This is trapped
   * below so that we don't try and process an invalid file descriptor.
   */

  fd = (file < 0) ? NULL : &alt_fd_list[file];
 1802f80:	e0bffb17 	ldw	r2,-20(fp)
 1802f84:	1004803a 	cmplt	r2,r2,zero
 1802f88:	1000081e 	bne	r2,zero,1802fac <read+0x48>
 1802f8c:	e0bffb17 	ldw	r2,-20(fp)
 1802f90:	10800324 	muli	r2,r2,12
 1802f94:	1007883a 	mov	r3,r2
 1802f98:	00806074 	movhi	r2,385
 1802f9c:	10a7f604 	addi	r2,r2,-24616
 1802fa0:	1887883a 	add	r3,r3,r2
 1802fa4:	e0ffff15 	stw	r3,-4(fp)
 1802fa8:	00000106 	br	1802fb0 <read+0x4c>
 1802fac:	e03fff15 	stw	zero,-4(fp)
 1802fb0:	e0bfff17 	ldw	r2,-4(fp)
 1802fb4:	e0bffa15 	stw	r2,-24(fp)
  
  if (fd)
 1802fb8:	e0bffa17 	ldw	r2,-24(fp)
 1802fbc:	1005003a 	cmpeq	r2,r2,zero
 1802fc0:	1000241e 	bne	r2,zero,1803054 <read+0xf0>
     * If the file has not been opened with read access, or if the driver does
     * not provide an implementation of read(), generate an error. Otherwise
     * call the drivers read() function to process the request.
     */

    if (((fd->fd_flags & O_ACCMODE) != O_WRONLY) && 
 1802fc4:	e0bffa17 	ldw	r2,-24(fp)
 1802fc8:	10800217 	ldw	r2,8(r2)
 1802fcc:	108000cc 	andi	r2,r2,3
 1802fd0:	10800060 	cmpeqi	r2,r2,1
 1802fd4:	10001a1e 	bne	r2,zero,1803040 <read+0xdc>
 1802fd8:	e0bffa17 	ldw	r2,-24(fp)
 1802fdc:	10800017 	ldw	r2,0(r2)
 1802fe0:	10800517 	ldw	r2,20(r2)
 1802fe4:	1005003a 	cmpeq	r2,r2,zero
 1802fe8:	1000151e 	bne	r2,zero,1803040 <read+0xdc>
        (fd->dev->read))
      {
        if ((rval = fd->dev->read(fd, ptr, len)) < 0)
 1802fec:	e0bffa17 	ldw	r2,-24(fp)
 1802ff0:	10800017 	ldw	r2,0(r2)
 1802ff4:	10800517 	ldw	r2,20(r2)
 1802ff8:	e17ffc17 	ldw	r5,-16(fp)
 1802ffc:	e1bffd17 	ldw	r6,-12(fp)
 1803000:	e13ffa17 	ldw	r4,-24(fp)
 1803004:	103ee83a 	callr	r2
 1803008:	e0bff915 	stw	r2,-28(fp)
 180300c:	e0bff917 	ldw	r2,-28(fp)
 1803010:	1004403a 	cmpge	r2,r2,zero
 1803014:	1000071e 	bne	r2,zero,1803034 <read+0xd0>
        {
          ALT_ERRNO = -rval;
 1803018:	18030840 	call	1803084 <alt_get_errno>
 180301c:	e0fff917 	ldw	r3,-28(fp)
 1803020:	00c7c83a 	sub	r3,zero,r3
 1803024:	10c00015 	stw	r3,0(r2)
          return -1;
 1803028:	00bfffc4 	movi	r2,-1
 180302c:	e0bffe15 	stw	r2,-8(fp)
 1803030:	00000e06 	br	180306c <read+0x108>
        }
        return rval;
 1803034:	e0bff917 	ldw	r2,-28(fp)
 1803038:	e0bffe15 	stw	r2,-8(fp)
 180303c:	00000b06 	br	180306c <read+0x108>
      }
      else
      {
        ALT_ERRNO = EACCES;
 1803040:	18030840 	call	1803084 <alt_get_errno>
 1803044:	1007883a 	mov	r3,r2
 1803048:	00800344 	movi	r2,13
 180304c:	18800015 	stw	r2,0(r3)
 1803050:	00000406 	br	1803064 <read+0x100>
      }
    }
  else
  {
    ALT_ERRNO = EBADFD;
 1803054:	18030840 	call	1803084 <alt_get_errno>
 1803058:	1007883a 	mov	r3,r2
 180305c:	00801444 	movi	r2,81
 1803060:	18800015 	stw	r2,0(r3)
  }
  return -1;
 1803064:	00bfffc4 	movi	r2,-1
 1803068:	e0bffe15 	stw	r2,-8(fp)
 180306c:	e0bffe17 	ldw	r2,-8(fp)
}
 1803070:	e037883a 	mov	sp,fp
 1803074:	dfc00117 	ldw	ra,4(sp)
 1803078:	df000017 	ldw	fp,0(sp)
 180307c:	dec00204 	addi	sp,sp,8
 1803080:	f800283a 	ret

01803084 <alt_get_errno>:
#undef errno

extern int errno;

static ALT_INLINE int* alt_get_errno(void)
{
 1803084:	defffd04 	addi	sp,sp,-12
 1803088:	dfc00215 	stw	ra,8(sp)
 180308c:	df000115 	stw	fp,4(sp)
 1803090:	df000104 	addi	fp,sp,4
  return ((alt_errno) ? alt_errno() : &errno);
 1803094:	00806074 	movhi	r2,385
 1803098:	10ad2604 	addi	r2,r2,-19304
 180309c:	10800017 	ldw	r2,0(r2)
 18030a0:	1005003a 	cmpeq	r2,r2,zero
 18030a4:	1000061e 	bne	r2,zero,18030c0 <alt_get_errno+0x3c>
 18030a8:	00806074 	movhi	r2,385
 18030ac:	10ad2604 	addi	r2,r2,-19304
 18030b0:	10800017 	ldw	r2,0(r2)
 18030b4:	103ee83a 	callr	r2
 18030b8:	e0bfff15 	stw	r2,-4(fp)
 18030bc:	00000306 	br	18030cc <alt_get_errno+0x48>
 18030c0:	00806074 	movhi	r2,385
 18030c4:	10ad3204 	addi	r2,r2,-19256
 18030c8:	e0bfff15 	stw	r2,-4(fp)
 18030cc:	e0bfff17 	ldw	r2,-4(fp)
}
 18030d0:	e037883a 	mov	sp,fp
 18030d4:	dfc00117 	ldw	ra,4(sp)
 18030d8:	df000017 	ldw	fp,0(sp)
 18030dc:	dec00204 	addi	sp,sp,8
 18030e0:	f800283a 	ret

018030e4 <alt_release_fd>:
 * File descriptors correcponding to standard in, standard out and standard 
 * error cannont be released backed to the pool. They are always reserved.
 */

void alt_release_fd (int fd)
{
 18030e4:	defffe04 	addi	sp,sp,-8
 18030e8:	df000115 	stw	fp,4(sp)
 18030ec:	df000104 	addi	fp,sp,4
 18030f0:	e13fff15 	stw	r4,-4(fp)
  if (fd > 2)
 18030f4:	e0bfff17 	ldw	r2,-4(fp)
 18030f8:	108000d0 	cmplti	r2,r2,3
 18030fc:	10000d1e 	bne	r2,zero,1803134 <alt_release_fd+0x50>
  {
    alt_fd_list[fd].fd_flags = 0;
 1803100:	e0bfff17 	ldw	r2,-4(fp)
 1803104:	00c06074 	movhi	r3,385
 1803108:	18e7f604 	addi	r3,r3,-24616
 180310c:	10800324 	muli	r2,r2,12
 1803110:	10c5883a 	add	r2,r2,r3
 1803114:	10800204 	addi	r2,r2,8
 1803118:	10000015 	stw	zero,0(r2)
    alt_fd_list[fd].dev      = 0;
 180311c:	e0bfff17 	ldw	r2,-4(fp)
 1803120:	00c06074 	movhi	r3,385
 1803124:	18e7f604 	addi	r3,r3,-24616
 1803128:	10800324 	muli	r2,r2,12
 180312c:	10c5883a 	add	r2,r2,r3
 1803130:	10000015 	stw	zero,0(r2)
  }
}
 1803134:	e037883a 	mov	sp,fp
 1803138:	df000017 	ldw	fp,0(sp)
 180313c:	dec00104 	addi	sp,sp,4
 1803140:	f800283a 	ret

01803144 <sbrk>:
#endif
 
caddr_t ALT_SBRK (int incr) __attribute__ ((no_instrument_function ));

caddr_t ALT_SBRK (int incr)
{ 
 1803144:	defff804 	addi	sp,sp,-32
 1803148:	df000715 	stw	fp,28(sp)
 180314c:	df000704 	addi	fp,sp,28
 1803150:	e13ffe15 	stw	r4,-8(fp)
static ALT_INLINE alt_irq_context ALT_ALWAYS_INLINE 
       alt_irq_disable_all (void)
{
  alt_irq_context context;

  NIOS2_READ_STATUS (context);
 1803154:	0005303a 	rdctl	r2,status
 1803158:	e0bffb15 	stw	r2,-20(fp)

  NIOS2_WRITE_STATUS (context & ~NIOS2_STATUS_PIE_MSK);
 180315c:	e0fffb17 	ldw	r3,-20(fp)
 1803160:	00bfff84 	movi	r2,-2
 1803164:	1884703a 	and	r2,r3,r2
 1803168:	1001703a 	wrctl	status,r2
  
  return context;
 180316c:	e0bffb17 	ldw	r2,-20(fp)
  alt_irq_context context;
  char *prev_heap_end; 

  context = alt_irq_disable_all();
 1803170:	e0bffd15 	stw	r2,-12(fp)

  /* Always return data aligned on a word boundary */
  heap_end = (char *)(((unsigned int)heap_end + 3) & ~3);
 1803174:	d0a00a17 	ldw	r2,-32728(gp)
 1803178:	10c000c4 	addi	r3,r2,3
 180317c:	00bfff04 	movi	r2,-4
 1803180:	1884703a 	and	r2,r3,r2
 1803184:	d0a00a15 	stw	r2,-32728(gp)
  if (((heap_end + incr) - __alt_heap_start) > ALT_MAX_HEAP_BYTES) {
    alt_irq_enable_all(context);
    return (caddr_t)-1;
  }
#else
  if ((heap_end + incr) > __alt_heap_limit) {
 1803188:	d0e00a17 	ldw	r3,-32728(gp)
 180318c:	e0bffe17 	ldw	r2,-8(fp)
 1803190:	1887883a 	add	r3,r3,r2
 1803194:	00808034 	movhi	r2,512
 1803198:	10800004 	addi	r2,r2,0
 180319c:	10c0072e 	bgeu	r2,r3,18031bc <sbrk+0x78>
 18031a0:	e0bffd17 	ldw	r2,-12(fp)
 18031a4:	e0bffa15 	stw	r2,-24(fp)
  status &= ~NIOS2_STATUS_PIE_MSK;
  status |= (context & NIOS2_STATUS_PIE_MSK);
  
  NIOS2_WRITE_STATUS (status);
#else
  NIOS2_WRITE_STATUS (context);
 18031a8:	e0bffa17 	ldw	r2,-24(fp)
 18031ac:	1001703a 	wrctl	status,r2
    alt_irq_enable_all(context);
    return (caddr_t)-1;
 18031b0:	00bfffc4 	movi	r2,-1
 18031b4:	e0bfff15 	stw	r2,-4(fp)
 18031b8:	00000c06 	br	18031ec <sbrk+0xa8>
  }
#endif

  prev_heap_end = heap_end; 
 18031bc:	d0a00a17 	ldw	r2,-32728(gp)
 18031c0:	e0bffc15 	stw	r2,-16(fp)
  heap_end += incr; 
 18031c4:	d0e00a17 	ldw	r3,-32728(gp)
 18031c8:	e0bffe17 	ldw	r2,-8(fp)
 18031cc:	1885883a 	add	r2,r3,r2
 18031d0:	d0a00a15 	stw	r2,-32728(gp)
 18031d4:	e0bffd17 	ldw	r2,-12(fp)
 18031d8:	e0bff915 	stw	r2,-28(fp)
 18031dc:	e0bff917 	ldw	r2,-28(fp)
 18031e0:	1001703a 	wrctl	status,r2

#endif

  alt_irq_enable_all(context);

  return (caddr_t) prev_heap_end; 
 18031e4:	e0bffc17 	ldw	r2,-16(fp)
 18031e8:	e0bfff15 	stw	r2,-4(fp)
 18031ec:	e0bfff17 	ldw	r2,-4(fp)
} 
 18031f0:	e037883a 	mov	sp,fp
 18031f4:	df000017 	ldw	fp,0(sp)
 18031f8:	dec00104 	addi	sp,sp,4
 18031fc:	f800283a 	ret

01803200 <write>:
}

#else /* !ALT_USE_DIRECT_DRIVERS */

int ALT_WRITE (int file, const void *ptr, size_t len)
{
 1803200:	defff704 	addi	sp,sp,-36
 1803204:	dfc00815 	stw	ra,32(sp)
 1803208:	df000715 	stw	fp,28(sp)
 180320c:	df000704 	addi	fp,sp,28
 1803210:	e13ffb15 	stw	r4,-20(fp)
 1803214:	e17ffc15 	stw	r5,-16(fp)
 1803218:	e1bffd15 	stw	r6,-12(fp)
   * A common error case is that when the file descriptor was created, the call
   * to open() failed resulting in a negative file descriptor. This is trapped
   * below so that we don't try and process an invalid file descriptor.
   */

  fd = (file < 0) ? NULL : &alt_fd_list[file];
 180321c:	e0bffb17 	ldw	r2,-20(fp)
 1803220:	1004803a 	cmplt	r2,r2,zero
 1803224:	1000081e 	bne	r2,zero,1803248 <write+0x48>
 1803228:	e0bffb17 	ldw	r2,-20(fp)
 180322c:	10800324 	muli	r2,r2,12
 1803230:	1007883a 	mov	r3,r2
 1803234:	00806074 	movhi	r2,385
 1803238:	10a7f604 	addi	r2,r2,-24616
 180323c:	1887883a 	add	r3,r3,r2
 1803240:	e0ffff15 	stw	r3,-4(fp)
 1803244:	00000106 	br	180324c <write+0x4c>
 1803248:	e03fff15 	stw	zero,-4(fp)
 180324c:	e0bfff17 	ldw	r2,-4(fp)
 1803250:	e0bffa15 	stw	r2,-24(fp)
  
  if (fd)
 1803254:	e0bffa17 	ldw	r2,-24(fp)
 1803258:	1005003a 	cmpeq	r2,r2,zero
 180325c:	1000241e 	bne	r2,zero,18032f0 <write+0xf0>
     * If the file has not been opened with write access, or if the driver does
     * not provide an implementation of write(), generate an error. Otherwise
     * call the drivers write() function to process the request.
     */

    if (((fd->fd_flags & O_ACCMODE) != O_RDONLY) && fd->dev->write)
 1803260:	e0bffa17 	ldw	r2,-24(fp)
 1803264:	10800217 	ldw	r2,8(r2)
 1803268:	108000cc 	andi	r2,r2,3
 180326c:	1005003a 	cmpeq	r2,r2,zero
 1803270:	10001a1e 	bne	r2,zero,18032dc <write+0xdc>
 1803274:	e0bffa17 	ldw	r2,-24(fp)
 1803278:	10800017 	ldw	r2,0(r2)
 180327c:	10800617 	ldw	r2,24(r2)
 1803280:	1005003a 	cmpeq	r2,r2,zero
 1803284:	1000151e 	bne	r2,zero,18032dc <write+0xdc>
    {
      
      /* ALT_LOG - see altera_hal/HAL/inc/sys/alt_log_printf.h */
      ALT_LOG_WRITE_FUNCTION(ptr,len);

      if ((rval = fd->dev->write(fd, ptr, len)) < 0)
 1803288:	e0bffa17 	ldw	r2,-24(fp)
 180328c:	10800017 	ldw	r2,0(r2)
 1803290:	10800617 	ldw	r2,24(r2)
 1803294:	e17ffc17 	ldw	r5,-16(fp)
 1803298:	e1bffd17 	ldw	r6,-12(fp)
 180329c:	e13ffa17 	ldw	r4,-24(fp)
 18032a0:	103ee83a 	callr	r2
 18032a4:	e0bff915 	stw	r2,-28(fp)
 18032a8:	e0bff917 	ldw	r2,-28(fp)
 18032ac:	1004403a 	cmpge	r2,r2,zero
 18032b0:	1000071e 	bne	r2,zero,18032d0 <write+0xd0>
      {
        ALT_ERRNO = -rval;
 18032b4:	18033200 	call	1803320 <alt_get_errno>
 18032b8:	e0fff917 	ldw	r3,-28(fp)
 18032bc:	00c7c83a 	sub	r3,zero,r3
 18032c0:	10c00015 	stw	r3,0(r2)
        return -1;
 18032c4:	00bfffc4 	movi	r2,-1
 18032c8:	e0bffe15 	stw	r2,-8(fp)
 18032cc:	00000e06 	br	1803308 <write+0x108>
      }
      return rval;
 18032d0:	e0bff917 	ldw	r2,-28(fp)
 18032d4:	e0bffe15 	stw	r2,-8(fp)
 18032d8:	00000b06 	br	1803308 <write+0x108>
    }
    else
    {
      ALT_ERRNO = EACCES;
 18032dc:	18033200 	call	1803320 <alt_get_errno>
 18032e0:	1007883a 	mov	r3,r2
 18032e4:	00800344 	movi	r2,13
 18032e8:	18800015 	stw	r2,0(r3)
 18032ec:	00000406 	br	1803300 <write+0x100>
    }
  }
  else  
  {
    ALT_ERRNO = EBADFD;
 18032f0:	18033200 	call	1803320 <alt_get_errno>
 18032f4:	1007883a 	mov	r3,r2
 18032f8:	00801444 	movi	r2,81
 18032fc:	18800015 	stw	r2,0(r3)
  }
  return -1;
 1803300:	00bfffc4 	movi	r2,-1
 1803304:	e0bffe15 	stw	r2,-8(fp)
 1803308:	e0bffe17 	ldw	r2,-8(fp)
}
 180330c:	e037883a 	mov	sp,fp
 1803310:	dfc00117 	ldw	ra,4(sp)
 1803314:	df000017 	ldw	fp,0(sp)
 1803318:	dec00204 	addi	sp,sp,8
 180331c:	f800283a 	ret

01803320 <alt_get_errno>:
#undef errno

extern int errno;

static ALT_INLINE int* alt_get_errno(void)
{
 1803320:	defffd04 	addi	sp,sp,-12
 1803324:	dfc00215 	stw	ra,8(sp)
 1803328:	df000115 	stw	fp,4(sp)
 180332c:	df000104 	addi	fp,sp,4
  return ((alt_errno) ? alt_errno() : &errno);
 1803330:	00806074 	movhi	r2,385
 1803334:	10ad2604 	addi	r2,r2,-19304
 1803338:	10800017 	ldw	r2,0(r2)
 180333c:	1005003a 	cmpeq	r2,r2,zero
 1803340:	1000061e 	bne	r2,zero,180335c <alt_get_errno+0x3c>
 1803344:	00806074 	movhi	r2,385
 1803348:	10ad2604 	addi	r2,r2,-19304
 180334c:	10800017 	ldw	r2,0(r2)
 1803350:	103ee83a 	callr	r2
 1803354:	e0bfff15 	stw	r2,-4(fp)
 1803358:	00000306 	br	1803368 <alt_get_errno+0x48>
 180335c:	00806074 	movhi	r2,385
 1803360:	10ad3204 	addi	r2,r2,-19256
 1803364:	e0bfff15 	stw	r2,-4(fp)
 1803368:	e0bfff17 	ldw	r2,-4(fp)
}
 180336c:	e037883a 	mov	sp,fp
 1803370:	dfc00117 	ldw	ra,4(sp)
 1803374:	df000017 	ldw	fp,0(sp)
 1803378:	dec00204 	addi	sp,sp,8
 180337c:	f800283a 	ret

01803380 <alt_irq_init>:
 * The "base" parameter is ignored and only
 * present for backwards-compatibility.
 */

void alt_irq_init ( const void* base )
{
 1803380:	defffd04 	addi	sp,sp,-12
 1803384:	dfc00215 	stw	ra,8(sp)
 1803388:	df000115 	stw	fp,4(sp)
 180338c:	df000104 	addi	fp,sp,4
 1803390:	e13fff15 	stw	r4,-4(fp)
    ALTERA_NIOS2_IRQ_INIT ( CPU, cpu);
 1803394:	18083540 	call	1808354 <altera_nios2_irq_init>
 * alt_irq_cpu_enable_interrupts() enables the CPU to start taking interrupts.
 */
static ALT_INLINE void ALT_ALWAYS_INLINE 
       alt_irq_cpu_enable_interrupts ()
{
    NIOS2_WRITE_STATUS(NIOS2_STATUS_PIE_MSK
 1803398:	00800044 	movi	r2,1
 180339c:	1001703a 	wrctl	status,r2
    alt_irq_cpu_enable_interrupts();
}
 18033a0:	e037883a 	mov	sp,fp
 18033a4:	dfc00117 	ldw	ra,4(sp)
 18033a8:	df000017 	ldw	fp,0(sp)
 18033ac:	dec00204 	addi	sp,sp,8
 18033b0:	f800283a 	ret

018033b4 <alt_sys_init>:
 * Initialize the non-interrupt controller devices.
 * Called after alt_irq_init().
 */

void alt_sys_init( void )
{
 18033b4:	defffe04 	addi	sp,sp,-8
 18033b8:	dfc00115 	stw	ra,4(sp)
 18033bc:	df000015 	stw	fp,0(sp)
 18033c0:	d839883a 	mov	fp,sp
    ALTERA_AVALON_TIMER_INIT ( PROFILE_TIMER, profile_timer);
 18033c4:	0009883a 	mov	r4,zero
 18033c8:	000b883a 	mov	r5,zero
 18033cc:	01800144 	movi	r6,5
 18033d0:	01d38804 	movi	r7,20000
 18033d4:	1806bfc0 	call	1806bfc <alt_avalon_timer_sc_init>
    ALTERA_AVALON_TIMER_INIT ( TIMER, timer);
    ALTERA_AVALON_TIMER_INIT ( USER_TIMER, user_timer);
    ALTERA_AVALON_CFI_FLASH_INIT ( CFI_FLASH, cfi_flash);
 18033d8:	01006074 	movhi	r4,385
 18033dc:	21285604 	addi	r4,r4,-24232
 18033e0:	18034880 	call	1803488 <alt_flash_cfi_init>
    ALTERA_AVALON_JTAG_UART_INIT ( JTAG_UART, jtag_uart);
 18033e4:	01006074 	movhi	r4,385
 18033e8:	21289604 	addi	r4,r4,-23976
 18033ec:	000b883a 	mov	r5,zero
 18033f0:	000d883a 	mov	r6,zero
 18033f4:	18052f00 	call	18052f0 <altera_avalon_jtag_uart_init>
 18033f8:	01006074 	movhi	r4,385
 18033fc:	21288c04 	addi	r4,r4,-24016
 1803400:	18034500 	call	1803450 <alt_dev_reg>
    ALTERA_AVALON_LCD_16207_INIT ( LCD, lcd);
 1803404:	01006074 	movhi	r4,385
 1803408:	212cae04 	addi	r4,r4,-19784
 180340c:	18069f80 	call	18069f8 <altera_avalon_lcd_16207_init>
 1803410:	01006074 	movhi	r4,385
 1803414:	212ca404 	addi	r4,r4,-19824
 1803418:	18034500 	call	1803450 <alt_dev_reg>
    ALTERA_AVALON_SYSID_INIT ( SYSID, sysid);
    ALTERA_AVALON_UART_INIT ( UART, uart);
 180341c:	01006074 	movhi	r4,385
 1803420:	212cf604 	addi	r4,r4,-19496
 1803424:	000b883a 	mov	r5,zero
 1803428:	01800044 	movi	r6,1
 180342c:	1806d840 	call	1806d84 <altera_avalon_uart_init>
 1803430:	01006074 	movhi	r4,385
 1803434:	212cec04 	addi	r4,r4,-19536
 1803438:	18034500 	call	1803450 <alt_dev_reg>
}
 180343c:	e037883a 	mov	sp,fp
 1803440:	dfc00117 	ldw	ra,4(sp)
 1803444:	df000017 	ldw	fp,0(sp)
 1803448:	dec00204 	addi	sp,sp,8
 180344c:	f800283a 	ret

01803450 <alt_dev_reg>:
 */

extern int alt_fs_reg  (alt_dev* dev); 

static ALT_INLINE int alt_dev_reg (alt_dev* dev)
{
 1803450:	defffd04 	addi	sp,sp,-12
 1803454:	dfc00215 	stw	ra,8(sp)
 1803458:	df000115 	stw	fp,4(sp)
 180345c:	df000104 	addi	fp,sp,4
 1803460:	e13fff15 	stw	r4,-4(fp)
  extern alt_llist alt_dev_list;

  return alt_dev_llist_insert ((alt_dev_llist*) dev, &alt_dev_list);
 1803464:	e13fff17 	ldw	r4,-4(fp)
 1803468:	01406074 	movhi	r5,385
 180346c:	296d2304 	addi	r5,r5,-19316
 1803470:	18078080 	call	1807808 <alt_dev_llist_insert>
}
 1803474:	e037883a 	mov	sp,fp
 1803478:	dfc00117 	ldw	ra,4(sp)
 180347c:	df000017 	ldw	fp,0(sp)
 1803480:	dec00204 	addi	sp,sp,8
 1803484:	f800283a 	ret

01803488 <alt_flash_cfi_init>:
 * Read the CFI table and fill out the alt_flash_cfi_dev structure with all the 
 * information we need to program the flash.
 * 
 */
int alt_flash_cfi_init( alt_flash_cfi_dev* flash  )
{
 1803488:	defffc04 	addi	sp,sp,-16
 180348c:	dfc00315 	stw	ra,12(sp)
 1803490:	df000215 	stw	fp,8(sp)
 1803494:	df000204 	addi	fp,sp,8
 1803498:	e13fff15 	stw	r4,-4(fp)
  int ret_code = 0;
 180349c:	e03ffe15 	stw	zero,-8(fp)
 
  ret_code = alt_read_cfi_width( flash );
 18034a0:	e13fff17 	ldw	r4,-4(fp)
 18034a4:	18049200 	call	1804920 <alt_read_cfi_width>
 18034a8:	e0bffe15 	stw	r2,-8(fp)
  
  if (!ret_code)
 18034ac:	e0bffe17 	ldw	r2,-8(fp)
 18034b0:	1004c03a 	cmpne	r2,r2,zero
 18034b4:	1000031e 	bne	r2,zero,18034c4 <alt_flash_cfi_init+0x3c>
    ret_code = alt_set_flash_width_func( flash );
 18034b8:	e13fff17 	ldw	r4,-4(fp)
 18034bc:	18040980 	call	1804098 <alt_set_flash_width_func>
 18034c0:	e0bffe15 	stw	r2,-8(fp)
  
  if (!ret_code)
 18034c4:	e0bffe17 	ldw	r2,-8(fp)
 18034c8:	1004c03a 	cmpne	r2,r2,zero
 18034cc:	1000031e 	bne	r2,zero,18034dc <alt_flash_cfi_init+0x54>
    ret_code = alt_read_cfi_table( flash );
 18034d0:	e13fff17 	ldw	r4,-4(fp)
 18034d4:	18043a00 	call	18043a0 <alt_read_cfi_table>
 18034d8:	e0bffe15 	stw	r2,-8(fp)

  if (!ret_code) 
 18034dc:	e0bffe17 	ldw	r2,-8(fp)
 18034e0:	1004c03a 	cmpne	r2,r2,zero
 18034e4:	1000031e 	bne	r2,zero,18034f4 <alt_flash_cfi_init+0x6c>
    ret_code = alt_set_flash_algorithm_func( flash);
 18034e8:	e13fff17 	ldw	r4,-4(fp)
 18034ec:	18042780 	call	1804278 <alt_set_flash_algorithm_func>
 18034f0:	e0bffe15 	stw	r2,-8(fp)

  /*
  *  Register this device as a valid flash device type
  */ 
  if (!ret_code)
 18034f4:	e0bffe17 	ldw	r2,-8(fp)
 18034f8:	1004c03a 	cmpne	r2,r2,zero
 18034fc:	1000031e 	bne	r2,zero,180350c <alt_flash_cfi_init+0x84>
    ret_code = alt_flash_device_register(&(flash->dev));
 1803500:	e13fff17 	ldw	r4,-4(fp)
 1803504:	18035240 	call	1803524 <alt_flash_device_register>
 1803508:	e0bffe15 	stw	r2,-8(fp)
 
  return ret_code;
 180350c:	e0bffe17 	ldw	r2,-8(fp)
}
 1803510:	e037883a 	mov	sp,fp
 1803514:	dfc00117 	ldw	ra,4(sp)
 1803518:	df000017 	ldw	fp,0(sp)
 180351c:	dec00204 	addi	sp,sp,8
 1803520:	f800283a 	ret

01803524 <alt_flash_device_register>:

typedef struct alt_flash_dev alt_flash_dev; 
typedef alt_flash_dev alt_flash_fd;

static ALT_INLINE int alt_flash_device_register( alt_flash_fd* fd)
{
 1803524:	defffd04 	addi	sp,sp,-12
 1803528:	dfc00215 	stw	ra,8(sp)
 180352c:	df000115 	stw	fp,4(sp)
 1803530:	df000104 	addi	fp,sp,4
 1803534:	e13fff15 	stw	r4,-4(fp)
  extern alt_llist alt_flash_dev_list;

  return alt_dev_llist_insert ((alt_dev_llist*) fd, &alt_flash_dev_list);
 1803538:	e13fff17 	ldw	r4,-4(fp)
 180353c:	01406074 	movhi	r5,385
 1803540:	296d2904 	addi	r5,r5,-19292
 1803544:	18078080 	call	1807808 <alt_dev_llist_insert>
}
 1803548:	e037883a 	mov	sp,fp
 180354c:	dfc00117 	ldw	ra,4(sp)
 1803550:	df000017 	ldw	fp,0(sp)
 1803554:	dec00204 	addi	sp,sp,8
 1803558:	f800283a 	ret

0180355c <alt_flash_cfi_write>:
 * large buffer to tie up in our programming library, when not all users will 
 * want that functionality.
 */
 int alt_flash_cfi_write( alt_flash_dev* flash_info, int offset, 
                          const void* src_addr, int length )
 {
 180355c:	deffef04 	addi	sp,sp,-68
 1803560:	dfc01015 	stw	ra,64(sp)
 1803564:	df000f15 	stw	fp,60(sp)
 1803568:	df000f04 	addi	fp,sp,60
 180356c:	e13ffa15 	stw	r4,-24(fp)
 1803570:	e17ffb15 	stw	r5,-20(fp)
 1803574:	e1bffc15 	stw	r6,-16(fp)
 1803578:	e1fffd15 	stw	r7,-12(fp)
  int         ret_code = 0;
 180357c:	e03ff915 	stw	zero,-28(fp)
  int         i,j;
  int         data_to_write;
  int         full_length = length;
 1803580:	e0bffd17 	ldw	r2,-12(fp)
 1803584:	e0bff515 	stw	r2,-44(fp)
  int         current_offset;
  int         start_offset = offset;
 1803588:	e0bffb17 	ldw	r2,-20(fp)
 180358c:	e0bff315 	stw	r2,-52(fp)
  alt_flash_cfi_dev* flash = (alt_flash_cfi_dev*)flash_info;
 1803590:	e0bffa17 	ldw	r2,-24(fp)
 1803594:	e0bff215 	stw	r2,-56(fp)

  /*
   * First and foremost which sectors are affected?
   */   
  for(i=0;i<flash->dev.number_of_regions;i++)
 1803598:	e03ff815 	stw	zero,-32(fp)
 180359c:	00008e06 	br	18037d8 <alt_flash_cfi_write+0x27c>
  {
    /* Is it in this erase block region?*/
    if((offset >= flash->dev.region_info[i].offset) &&
 18035a0:	e0bff817 	ldw	r2,-32(fp)
 18035a4:	e0fff217 	ldw	r3,-56(fp)
 18035a8:	1004913a 	slli	r2,r2,4
 18035ac:	10c5883a 	add	r2,r2,r3
 18035b0:	10800d04 	addi	r2,r2,52
 18035b4:	10c00017 	ldw	r3,0(r2)
 18035b8:	e0bffb17 	ldw	r2,-20(fp)
 18035bc:	10c08316 	blt	r2,r3,18037cc <alt_flash_cfi_write+0x270>
 18035c0:	e0bff817 	ldw	r2,-32(fp)
 18035c4:	e0fff217 	ldw	r3,-56(fp)
 18035c8:	1004913a 	slli	r2,r2,4
 18035cc:	10c5883a 	add	r2,r2,r3
 18035d0:	10800d04 	addi	r2,r2,52
 18035d4:	11000017 	ldw	r4,0(r2)
 18035d8:	e0bff817 	ldw	r2,-32(fp)
 18035dc:	e0fff217 	ldw	r3,-56(fp)
 18035e0:	1004913a 	slli	r2,r2,4
 18035e4:	10c5883a 	add	r2,r2,r3
 18035e8:	10800e04 	addi	r2,r2,56
 18035ec:	10800017 	ldw	r2,0(r2)
 18035f0:	2087883a 	add	r3,r4,r2
 18035f4:	e0bffb17 	ldw	r2,-20(fp)
 18035f8:	10c0740e 	bge	r2,r3,18037cc <alt_flash_cfi_write+0x270>
      (offset < (flash->dev.region_info[i].offset + 
      flash->dev.region_info[i].region_size)))
    {
      current_offset = flash->dev.region_info[i].offset;
 18035fc:	e0bff817 	ldw	r2,-32(fp)
 1803600:	e0fff217 	ldw	r3,-56(fp)
 1803604:	1004913a 	slli	r2,r2,4
 1803608:	10c5883a 	add	r2,r2,r3
 180360c:	10800d04 	addi	r2,r2,52
 1803610:	10800017 	ldw	r2,0(r2)
 1803614:	e0bff415 	stw	r2,-48(fp)

      for(j=0;j<flash->dev.region_info[i].number_of_blocks;j++)
 1803618:	e03ff715 	stw	zero,-36(fp)
 180361c:	00006306 	br	18037ac <alt_flash_cfi_write+0x250>
      {
        if ((offset >= current_offset ) && 
 1803620:	e0fffb17 	ldw	r3,-20(fp)
 1803624:	e0bff417 	ldw	r2,-48(fp)
 1803628:	18805416 	blt	r3,r2,180377c <alt_flash_cfi_write+0x220>
 180362c:	e0bff817 	ldw	r2,-32(fp)
 1803630:	e0fff217 	ldw	r3,-56(fp)
 1803634:	1004913a 	slli	r2,r2,4
 1803638:	10c5883a 	add	r2,r2,r3
 180363c:	10801004 	addi	r2,r2,64
 1803640:	10c00017 	ldw	r3,0(r2)
 1803644:	e0bff417 	ldw	r2,-48(fp)
 1803648:	1887883a 	add	r3,r3,r2
 180364c:	e0bffb17 	ldw	r2,-20(fp)
 1803650:	10c04a0e 	bge	r2,r3,180377c <alt_flash_cfi_write+0x220>
        {
          /*
           * Check if the contents of the block are different
           * from the data we wish to put there
           */
          data_to_write = ( current_offset + flash->dev.region_info[i].block_size 
 1803654:	e0bff817 	ldw	r2,-32(fp)
 1803658:	e0fff217 	ldw	r3,-56(fp)
 180365c:	1004913a 	slli	r2,r2,4
 1803660:	10c5883a 	add	r2,r2,r3
 1803664:	10801004 	addi	r2,r2,64
 1803668:	10c00017 	ldw	r3,0(r2)
 180366c:	e0bff417 	ldw	r2,-48(fp)
 1803670:	1887883a 	add	r3,r3,r2
 1803674:	e0bffb17 	ldw	r2,-20(fp)
 1803678:	1885c83a 	sub	r2,r3,r2
 180367c:	e0bff615 	stw	r2,-40(fp)
                            - offset); 
          data_to_write = MIN(data_to_write, length);
 1803680:	e0bff617 	ldw	r2,-40(fp)
 1803684:	e0bfff15 	stw	r2,-4(fp)
 1803688:	e0fffd17 	ldw	r3,-12(fp)
 180368c:	e0fffe15 	stw	r3,-8(fp)
 1803690:	e0bfff17 	ldw	r2,-4(fp)
 1803694:	e0fffe17 	ldw	r3,-8(fp)
 1803698:	10c0020e 	bge	r2,r3,18036a4 <alt_flash_cfi_write+0x148>
 180369c:	e0bfff17 	ldw	r2,-4(fp)
 18036a0:	e0bffe15 	stw	r2,-8(fp)
 18036a4:	e0fffe17 	ldw	r3,-8(fp)
 18036a8:	e0fff615 	stw	r3,-40(fp)
          if(memcmp(src_addr, 
 18036ac:	e0bff217 	ldw	r2,-56(fp)
 18036b0:	10800a17 	ldw	r2,40(r2)
 18036b4:	1007883a 	mov	r3,r2
 18036b8:	e0bffb17 	ldw	r2,-20(fp)
 18036bc:	188b883a 	add	r5,r3,r2
 18036c0:	e1bff617 	ldw	r6,-40(fp)
 18036c4:	e13ffc17 	ldw	r4,-16(fp)
 18036c8:	18090f40 	call	18090f4 <memcmp>
 18036cc:	1005003a 	cmpeq	r2,r2,zero
 18036d0:	1000131e 	bne	r2,zero,1803720 <alt_flash_cfi_write+0x1c4>
                    (alt_u8*)flash->dev.base_addr+offset,
                    data_to_write))
          {
            ret_code = (*flash->dev.erase_block)( &flash->dev, current_offset);
 18036d4:	e0bff217 	ldw	r2,-56(fp)
 18036d8:	10800817 	ldw	r2,32(r2)
 18036dc:	e13ff217 	ldw	r4,-56(fp)
 18036e0:	e17ff417 	ldw	r5,-48(fp)
 18036e4:	103ee83a 	callr	r2
 18036e8:	e0bff915 	stw	r2,-28(fp)

            if (!ret_code)
 18036ec:	e0bff917 	ldw	r2,-28(fp)
 18036f0:	1004c03a 	cmpne	r2,r2,zero
 18036f4:	10000a1e 	bne	r2,zero,1803720 <alt_flash_cfi_write+0x1c4>
            {
              ret_code = (*flash->dev.write_block)( 
 18036f8:	e0bff217 	ldw	r2,-56(fp)
 18036fc:	10c00917 	ldw	r3,36(r2)
 1803700:	e13ff217 	ldw	r4,-56(fp)
 1803704:	e0bff617 	ldw	r2,-40(fp)
 1803708:	d8800015 	stw	r2,0(sp)
 180370c:	e17ff417 	ldw	r5,-48(fp)
 1803710:	e1bffb17 	ldw	r6,-20(fp)
 1803714:	e1fffc17 	ldw	r7,-16(fp)
 1803718:	183ee83a 	callr	r3
 180371c:	e0bff915 	stw	r2,-28(fp)
                                                  data_to_write);
            }
          }    
    
          /* Was this the last block? */    
          if ((length == data_to_write) || ret_code)
 1803720:	e0fffd17 	ldw	r3,-12(fp)
 1803724:	e0bff617 	ldw	r2,-40(fp)
 1803728:	18802f26 	beq	r3,r2,18037e8 <alt_flash_cfi_write+0x28c>
 180372c:	e0bff917 	ldw	r2,-28(fp)
 1803730:	1004c03a 	cmpne	r2,r2,zero
 1803734:	10002c1e 	bne	r2,zero,18037e8 <alt_flash_cfi_write+0x28c>
          {
            goto finished;
          }
          
          length -= data_to_write;
 1803738:	e0fffd17 	ldw	r3,-12(fp)
 180373c:	e0bff617 	ldw	r2,-40(fp)
 1803740:	1885c83a 	sub	r2,r3,r2
 1803744:	e0bffd15 	stw	r2,-12(fp)
          offset = current_offset + flash->dev.region_info[i].block_size;
 1803748:	e0bff817 	ldw	r2,-32(fp)
 180374c:	e0fff217 	ldw	r3,-56(fp)
 1803750:	1004913a 	slli	r2,r2,4
 1803754:	10c5883a 	add	r2,r2,r3
 1803758:	10801004 	addi	r2,r2,64
 180375c:	10c00017 	ldw	r3,0(r2)
 1803760:	e0bff417 	ldw	r2,-48(fp)
 1803764:	1885883a 	add	r2,r3,r2
 1803768:	e0bffb15 	stw	r2,-20(fp)
          src_addr = (alt_u8*)src_addr + data_to_write;
 180376c:	e0fffc17 	ldw	r3,-16(fp)
 1803770:	e0bff617 	ldw	r2,-40(fp)
 1803774:	1885883a 	add	r2,r3,r2
 1803778:	e0bffc15 	stw	r2,-16(fp)
        }
        current_offset += flash->dev.region_info[i].block_size;
 180377c:	e0bff817 	ldw	r2,-32(fp)
 1803780:	e0fff217 	ldw	r3,-56(fp)
 1803784:	1004913a 	slli	r2,r2,4
 1803788:	10c5883a 	add	r2,r2,r3
 180378c:	10801004 	addi	r2,r2,64
 1803790:	10c00017 	ldw	r3,0(r2)
 1803794:	e0bff417 	ldw	r2,-48(fp)
 1803798:	10c5883a 	add	r2,r2,r3
 180379c:	e0bff415 	stw	r2,-48(fp)
      (offset < (flash->dev.region_info[i].offset + 
      flash->dev.region_info[i].region_size)))
    {
      current_offset = flash->dev.region_info[i].offset;

      for(j=0;j<flash->dev.region_info[i].number_of_blocks;j++)
 18037a0:	e0bff717 	ldw	r2,-36(fp)
 18037a4:	10800044 	addi	r2,r2,1
 18037a8:	e0bff715 	stw	r2,-36(fp)
 18037ac:	e0bff817 	ldw	r2,-32(fp)
 18037b0:	e0fff217 	ldw	r3,-56(fp)
 18037b4:	1004913a 	slli	r2,r2,4
 18037b8:	10c5883a 	add	r2,r2,r3
 18037bc:	10800f04 	addi	r2,r2,60
 18037c0:	10c00017 	ldw	r3,0(r2)
 18037c4:	e0bff717 	ldw	r2,-36(fp)
 18037c8:	10ff9516 	blt	r2,r3,1803620 <alt_flash_cfi_write+0xc4>
  alt_flash_cfi_dev* flash = (alt_flash_cfi_dev*)flash_info;

  /*
   * First and foremost which sectors are affected?
   */   
  for(i=0;i<flash->dev.number_of_regions;i++)
 18037cc:	e0bff817 	ldw	r2,-32(fp)
 18037d0:	10800044 	addi	r2,r2,1
 18037d4:	e0bff815 	stw	r2,-32(fp)
 18037d8:	e0bff217 	ldw	r2,-56(fp)
 18037dc:	10c00c17 	ldw	r3,48(r2)
 18037e0:	e0bff817 	ldw	r2,-32(fp)
 18037e4:	10ff6e16 	blt	r2,r3,18035a0 <alt_flash_cfi_write+0x44>
      }     
    } 
  }
finished:    

  alt_dcache_flush((alt_u8*)flash->dev.base_addr+start_offset, full_length);
 18037e8:	e0bff217 	ldw	r2,-56(fp)
 18037ec:	10800a17 	ldw	r2,40(r2)
 18037f0:	1007883a 	mov	r3,r2
 18037f4:	e0bff317 	ldw	r2,-52(fp)
 18037f8:	1889883a 	add	r4,r3,r2
 18037fc:	e17ff517 	ldw	r5,-44(fp)
 1803800:	18077900 	call	1807790 <alt_dcache_flush>
  return ret_code;
 1803804:	e0bff917 	ldw	r2,-28(fp)
}
 1803808:	e037883a 	mov	sp,fp
 180380c:	dfc00117 	ldw	ra,4(sp)
 1803810:	df000017 	ldw	fp,0(sp)
 1803814:	dec00204 	addi	sp,sp,8
 1803818:	f800283a 	ret

0180381c <alt_flash_cfi_get_info>:
 * 
 *  Pass the table of erase blocks to the user
 */
int alt_flash_cfi_get_info( alt_flash_fd* fd, flash_region** info, 
                            int* number_of_regions)
{
 180381c:	defffa04 	addi	sp,sp,-24
 1803820:	df000515 	stw	fp,20(sp)
 1803824:	df000504 	addi	fp,sp,20
 1803828:	e13ffd15 	stw	r4,-12(fp)
 180382c:	e17ffe15 	stw	r5,-8(fp)
 1803830:	e1bfff15 	stw	r6,-4(fp)
  int ret_code = 0;
 1803834:	e03ffc15 	stw	zero,-16(fp)
  alt_flash_dev* flash = (alt_flash_dev*)fd;
 1803838:	e0bffd17 	ldw	r2,-12(fp)
 180383c:	e0bffb15 	stw	r2,-20(fp)

  *number_of_regions = flash->number_of_regions;
 1803840:	e0bffb17 	ldw	r2,-20(fp)
 1803844:	10c00c17 	ldw	r3,48(r2)
 1803848:	e0bfff17 	ldw	r2,-4(fp)
 180384c:	10c00015 	stw	r3,0(r2)

  if (!flash->number_of_regions)
 1803850:	e0bffb17 	ldw	r2,-20(fp)
 1803854:	10800c17 	ldw	r2,48(r2)
 1803858:	1004c03a 	cmpne	r2,r2,zero
 180385c:	1000031e 	bne	r2,zero,180386c <alt_flash_cfi_get_info+0x50>
  {
    ret_code = -EIO;
 1803860:	00bffec4 	movi	r2,-5
 1803864:	e0bffc15 	stw	r2,-16(fp)
 1803868:	00000b06 	br	1803898 <alt_flash_cfi_get_info+0x7c>
  }
  else if (flash->number_of_regions > ALT_MAX_NUMBER_OF_FLASH_REGIONS)
 180386c:	e0bffb17 	ldw	r2,-20(fp)
 1803870:	10800c17 	ldw	r2,48(r2)
 1803874:	10800250 	cmplti	r2,r2,9
 1803878:	1000031e 	bne	r2,zero,1803888 <alt_flash_cfi_get_info+0x6c>
  {
    ret_code = -ENOMEM;
 180387c:	00bffd04 	movi	r2,-12
 1803880:	e0bffc15 	stw	r2,-16(fp)
 1803884:	00000406 	br	1803898 <alt_flash_cfi_get_info+0x7c>
  }
  else
  {
    *info = &flash->region_info[0];
 1803888:	e0bffb17 	ldw	r2,-20(fp)
 180388c:	10c00d04 	addi	r3,r2,52
 1803890:	e0bffe17 	ldw	r2,-8(fp)
 1803894:	10c00015 	stw	r3,0(r2)
  }

  return ret_code;
 1803898:	e0bffc17 	ldw	r2,-16(fp)
}
 180389c:	e037883a 	mov	sp,fp
 18038a0:	df000017 	ldw	fp,0(sp)
 18038a4:	dec00104 	addi	sp,sp,4
 18038a8:	f800283a 	ret

018038ac <alt_flash_cfi_read>:
 *  Read from an area in flash, you could use memcopy yourself
 *  for these flash types, but we're trying to be generic and future proof
 */
int alt_flash_cfi_read( alt_flash_dev* flash_info, int offset, 
                        void* dest_addr, int length )
{
 18038ac:	defff904 	addi	sp,sp,-28
 18038b0:	dfc00615 	stw	ra,24(sp)
 18038b4:	df000515 	stw	fp,20(sp)
 18038b8:	df000504 	addi	fp,sp,20
 18038bc:	e13ffc15 	stw	r4,-16(fp)
 18038c0:	e17ffd15 	stw	r5,-12(fp)
 18038c4:	e1bffe15 	stw	r6,-8(fp)
 18038c8:	e1ffff15 	stw	r7,-4(fp)
  alt_flash_cfi_dev* flash = (alt_flash_cfi_dev*)flash_info;
 18038cc:	e0bffc17 	ldw	r2,-16(fp)
 18038d0:	e0bffb15 	stw	r2,-20(fp)
  memcpy(dest_addr, (alt_u8*)flash->dev.base_addr+offset, length);
 18038d4:	e0bffb17 	ldw	r2,-20(fp)
 18038d8:	10800a17 	ldw	r2,40(r2)
 18038dc:	1007883a 	mov	r3,r2
 18038e0:	e0bffd17 	ldw	r2,-12(fp)
 18038e4:	1887883a 	add	r3,r3,r2
 18038e8:	e1bfff17 	ldw	r6,-4(fp)
 18038ec:	e0bffe17 	ldw	r2,-8(fp)
 18038f0:	1009883a 	mov	r4,r2
 18038f4:	180b883a 	mov	r5,r3
 18038f8:	1800e640 	call	1800e64 <memcpy>
  return 0;
 18038fc:	0005883a 	mov	r2,zero
}
 1803900:	e037883a 	mov	sp,fp
 1803904:	dfc00117 	ldw	ra,4(sp)
 1803908:	df000017 	ldw	fp,0(sp)
 180390c:	dec00204 	addi	sp,sp,8
 1803910:	f800283a 	ret

01803914 <alt_write_value_to_flash>:
* It writes the largest word size that the flash can support
* so if it's an 8 bit flash it writes bytes
* 16 bit half word etc.
*/
void alt_write_value_to_flash(alt_flash_cfi_dev* flash, int offset, const alt_u8* src_addr)
{
 1803914:	defffa04 	addi	sp,sp,-24
 1803918:	df000515 	stw	fp,20(sp)
 180391c:	df000504 	addi	fp,sp,20
 1803920:	e13ffd15 	stw	r4,-12(fp)
 1803924:	e17ffe15 	stw	r5,-8(fp)
 1803928:	e1bfff15 	stw	r6,-4(fp)
  alt_u16 half_word_value;
  alt_u32 word_value;

  if (flash->mode_width == 1)
 180392c:	e0bffd17 	ldw	r2,-12(fp)
 1803930:	10802e17 	ldw	r2,184(r2)
 1803934:	10800058 	cmpnei	r2,r2,1
 1803938:	10000b1e 	bne	r2,zero,1803968 <alt_write_value_to_flash+0x54>
  {
    IOWR_8DIRECT(flash->dev.base_addr, offset, *src_addr);
 180393c:	e0bffd17 	ldw	r2,-12(fp)
 1803940:	10800a17 	ldw	r2,40(r2)
 1803944:	1007883a 	mov	r3,r2
 1803948:	e0bffe17 	ldw	r2,-8(fp)
 180394c:	1889883a 	add	r4,r3,r2
 1803950:	e0bfff17 	ldw	r2,-4(fp)
 1803954:	10800003 	ldbu	r2,0(r2)
 1803958:	10c03fcc 	andi	r3,r2,255
 180395c:	2005883a 	mov	r2,r4
 1803960:	10c00025 	stbio	r3,0(r2)
 1803964:	00004006 	br	1803a68 <alt_write_value_to_flash+0x154>
  }
  else if (flash->mode_width == 2)
 1803968:	e0bffd17 	ldw	r2,-12(fp)
 180396c:	10802e17 	ldw	r2,184(r2)
 1803970:	10800098 	cmpnei	r2,r2,2
 1803974:	1000151e 	bne	r2,zero,18039cc <alt_write_value_to_flash+0xb8>
  {
    half_word_value = (alt_u16)(*src_addr);
 1803978:	e0bfff17 	ldw	r2,-4(fp)
 180397c:	10800003 	ldbu	r2,0(r2)
 1803980:	10803fcc 	andi	r2,r2,255
 1803984:	e0bffc0d 	sth	r2,-16(fp)
    half_word_value |= (alt_u16)(*(src_addr + 1)) << 8;
 1803988:	e0bfff17 	ldw	r2,-4(fp)
 180398c:	10800044 	addi	r2,r2,1
 1803990:	10800003 	ldbu	r2,0(r2)
 1803994:	10803fcc 	andi	r2,r2,255
 1803998:	1004923a 	slli	r2,r2,8
 180399c:	1007883a 	mov	r3,r2
 18039a0:	e0bffc0b 	ldhu	r2,-16(fp)
 18039a4:	1884b03a 	or	r2,r3,r2
 18039a8:	e0bffc0d 	sth	r2,-16(fp)
    IOWR_16DIRECT(flash->dev.base_addr, offset, half_word_value);
 18039ac:	e0bffd17 	ldw	r2,-12(fp)
 18039b0:	10800a17 	ldw	r2,40(r2)
 18039b4:	1007883a 	mov	r3,r2
 18039b8:	e0bffe17 	ldw	r2,-8(fp)
 18039bc:	1885883a 	add	r2,r3,r2
 18039c0:	e0fffc0b 	ldhu	r3,-16(fp)
 18039c4:	10c0002d 	sthio	r3,0(r2)
 18039c8:	00002706 	br	1803a68 <alt_write_value_to_flash+0x154>
  }
  else if (flash->mode_width == 4)
 18039cc:	e0bffd17 	ldw	r2,-12(fp)
 18039d0:	10802e17 	ldw	r2,184(r2)
 18039d4:	10800118 	cmpnei	r2,r2,4
 18039d8:	1000231e 	bne	r2,zero,1803a68 <alt_write_value_to_flash+0x154>
  {
    word_value = (alt_u32)(*src_addr);
 18039dc:	e0bfff17 	ldw	r2,-4(fp)
 18039e0:	10800003 	ldbu	r2,0(r2)
 18039e4:	10803fcc 	andi	r2,r2,255
 18039e8:	e0bffb15 	stw	r2,-20(fp)
    word_value |= ((alt_u32)(*(src_addr + 1)) << 8);
 18039ec:	e0bfff17 	ldw	r2,-4(fp)
 18039f0:	10800044 	addi	r2,r2,1
 18039f4:	10800003 	ldbu	r2,0(r2)
 18039f8:	10803fcc 	andi	r2,r2,255
 18039fc:	1006923a 	slli	r3,r2,8
 1803a00:	e0bffb17 	ldw	r2,-20(fp)
 1803a04:	10c4b03a 	or	r2,r2,r3
 1803a08:	e0bffb15 	stw	r2,-20(fp)
    word_value |= ((alt_u32)(*(src_addr + 2)) << 16);
 1803a0c:	e0bfff17 	ldw	r2,-4(fp)
 1803a10:	10800084 	addi	r2,r2,2
 1803a14:	10800003 	ldbu	r2,0(r2)
 1803a18:	10803fcc 	andi	r2,r2,255
 1803a1c:	1006943a 	slli	r3,r2,16
 1803a20:	e0bffb17 	ldw	r2,-20(fp)
 1803a24:	10c4b03a 	or	r2,r2,r3
 1803a28:	e0bffb15 	stw	r2,-20(fp)
    word_value |= ((alt_u32)(*(src_addr + 3)) << 24);
 1803a2c:	e0bfff17 	ldw	r2,-4(fp)
 1803a30:	108000c4 	addi	r2,r2,3
 1803a34:	10800003 	ldbu	r2,0(r2)
 1803a38:	10803fcc 	andi	r2,r2,255
 1803a3c:	1006963a 	slli	r3,r2,24
 1803a40:	e0bffb17 	ldw	r2,-20(fp)
 1803a44:	10c4b03a 	or	r2,r2,r3
 1803a48:	e0bffb15 	stw	r2,-20(fp)
    IOWR_32DIRECT(flash->dev.base_addr, offset, word_value);
 1803a4c:	e0bffd17 	ldw	r2,-12(fp)
 1803a50:	10800a17 	ldw	r2,40(r2)
 1803a54:	1007883a 	mov	r3,r2
 1803a58:	e0bffe17 	ldw	r2,-8(fp)
 1803a5c:	1885883a 	add	r2,r3,r2
 1803a60:	e0fffb17 	ldw	r3,-20(fp)
 1803a64:	10c00035 	stwio	r3,0(r2)
  }

  return;
}
 1803a68:	e037883a 	mov	sp,fp
 1803a6c:	df000017 	ldw	fp,0(sp)
 1803a70:	dec00104 	addi	sp,sp,4
 1803a74:	f800283a 	ret

01803a78 <alt_flash_program_block>:
*/
int alt_flash_program_block(  alt_flash_cfi_dev* flash, const int offset, 
                        const alt_u8* src_addr, 
                        const int length,
                        alt_program_word_fn program_word_func)
{
 1803a78:	defff304 	addi	sp,sp,-52
 1803a7c:	dfc00c15 	stw	ra,48(sp)
 1803a80:	df000b15 	stw	fp,44(sp)
 1803a84:	df000b04 	addi	fp,sp,44
 1803a88:	e13ffc15 	stw	r4,-16(fp)
 1803a8c:	e17ffd15 	stw	r5,-12(fp)
 1803a90:	e1bffe15 	stw	r6,-8(fp)
 1803a94:	e1ffff15 	stw	r7,-4(fp)
  int     ret_code = 0;
 1803a98:	e03ffa15 	stw	zero,-24(fp)

  /*
   * First take care of any writes which are on none native boundaries
   * as far as the flash is concerned.
   */
  bytes_to_preserve = ((int)((alt_u8*)flash->dev.base_addr + offset) % 
 1803a9c:	e0bffc17 	ldw	r2,-16(fp)
 1803aa0:	10800a17 	ldw	r2,40(r2)
 1803aa4:	1007883a 	mov	r3,r2
 1803aa8:	e0bffd17 	ldw	r2,-12(fp)
 1803aac:	1885883a 	add	r2,r3,r2
 1803ab0:	1009883a 	mov	r4,r2
 1803ab4:	e0bffc17 	ldw	r2,-16(fp)
 1803ab8:	10c02e17 	ldw	r3,184(r2)
 1803abc:	20c5283a 	div	r2,r4,r3
 1803ac0:	10c5383a 	mul	r2,r2,r3
 1803ac4:	2085c83a 	sub	r2,r4,r2
 1803ac8:	e0bff915 	stw	r2,-28(fp)
                      flash->mode_width);
  if ( bytes_to_preserve != 0)
 1803acc:	e0bff917 	ldw	r2,-28(fp)
 1803ad0:	1005003a 	cmpeq	r2,r2,zero
 1803ad4:	10003a1e 	bne	r2,zero,1803bc0 <alt_flash_program_block+0x148>
  {
    unaligned_bytes = flash->mode_width - bytes_to_preserve;
 1803ad8:	e0bffc17 	ldw	r2,-16(fp)
 1803adc:	10c02e17 	ldw	r3,184(r2)
 1803ae0:	e0bff917 	ldw	r2,-28(fp)
 1803ae4:	1885c83a 	sub	r2,r3,r2
 1803ae8:	e0bff815 	stw	r2,-32(fp)
    /*
     * Read the bytes we wish to preserve out of flash
     */
    for (i=0;i<bytes_to_preserve;i++)
 1803aec:	e03ff615 	stw	zero,-40(fp)
 1803af0:	00001206 	br	1803b3c <alt_flash_program_block+0xc4>
    {
      unaligned[i] = IORD_8DIRECT(flash->dev.base_addr, 
 1803af4:	e17ff617 	ldw	r5,-40(fp)
 1803af8:	e0bffc17 	ldw	r2,-16(fp)
 1803afc:	10800a17 	ldw	r2,40(r2)
 1803b00:	1009883a 	mov	r4,r2
 1803b04:	e0fffd17 	ldw	r3,-12(fp)
 1803b08:	e0bff917 	ldw	r2,-28(fp)
 1803b0c:	1887c83a 	sub	r3,r3,r2
 1803b10:	e0bff617 	ldw	r2,-40(fp)
 1803b14:	1885883a 	add	r2,r3,r2
 1803b18:	2085883a 	add	r2,r4,r2
 1803b1c:	10800023 	ldbuio	r2,0(r2)
 1803b20:	1007883a 	mov	r3,r2
 1803b24:	e0bffb04 	addi	r2,fp,-20
 1803b28:	1145883a 	add	r2,r2,r5
 1803b2c:	10c00005 	stb	r3,0(r2)
  {
    unaligned_bytes = flash->mode_width - bytes_to_preserve;
    /*
     * Read the bytes we wish to preserve out of flash
     */
    for (i=0;i<bytes_to_preserve;i++)
 1803b30:	e0bff617 	ldw	r2,-40(fp)
 1803b34:	10800044 	addi	r2,r2,1
 1803b38:	e0bff615 	stw	r2,-40(fp)
 1803b3c:	e0fff617 	ldw	r3,-40(fp)
 1803b40:	e0bff917 	ldw	r2,-28(fp)
 1803b44:	18bfeb16 	blt	r3,r2,1803af4 <alt_flash_program_block+0x7c>
    {
      unaligned[i] = IORD_8DIRECT(flash->dev.base_addr, 
                                offset-bytes_to_preserve+i);
    }

    for (i=0;i<unaligned_bytes;i++)
 1803b48:	e03ff615 	stw	zero,-40(fp)
 1803b4c:	00000e06 	br	1803b88 <alt_flash_program_block+0x110>
    {
      unaligned[bytes_to_preserve + i] = *(alt_u8*)(src_addr + i);
 1803b50:	e0fff917 	ldw	r3,-28(fp)
 1803b54:	e0bff617 	ldw	r2,-40(fp)
 1803b58:	1889883a 	add	r4,r3,r2
 1803b5c:	e0bff617 	ldw	r2,-40(fp)
 1803b60:	1007883a 	mov	r3,r2
 1803b64:	e0bffe17 	ldw	r2,-8(fp)
 1803b68:	1885883a 	add	r2,r3,r2
 1803b6c:	10c00003 	ldbu	r3,0(r2)
 1803b70:	e0bffb04 	addi	r2,fp,-20
 1803b74:	1105883a 	add	r2,r2,r4
 1803b78:	10c00005 	stb	r3,0(r2)
    {
      unaligned[i] = IORD_8DIRECT(flash->dev.base_addr, 
                                offset-bytes_to_preserve+i);
    }

    for (i=0;i<unaligned_bytes;i++)
 1803b7c:	e0bff617 	ldw	r2,-40(fp)
 1803b80:	10800044 	addi	r2,r2,1
 1803b84:	e0bff615 	stw	r2,-40(fp)
 1803b88:	e0fff617 	ldw	r3,-40(fp)
 1803b8c:	e0bff817 	ldw	r2,-32(fp)
 1803b90:	18bfef16 	blt	r3,r2,1803b50 <alt_flash_program_block+0xd8>
    {
      unaligned[bytes_to_preserve + i] = *(alt_u8*)(src_addr + i);
    }
    
    ret_code = (*program_word_func)(flash, offset-bytes_to_preserve, unaligned);
 1803b94:	e0fffd17 	ldw	r3,-12(fp)
 1803b98:	e0bff917 	ldw	r2,-28(fp)
 1803b9c:	188bc83a 	sub	r5,r3,r2
 1803ba0:	e1bffb04 	addi	r6,fp,-20
 1803ba4:	e0800217 	ldw	r2,8(fp)
 1803ba8:	e13ffc17 	ldw	r4,-16(fp)
 1803bac:	103ee83a 	callr	r2
 1803bb0:	e0bffa15 	stw	r2,-24(fp)
    i = unaligned_bytes;
 1803bb4:	e0bff817 	ldw	r2,-32(fp)
 1803bb8:	e0bff615 	stw	r2,-40(fp)
 1803bbc:	00000106 	br	1803bc4 <alt_flash_program_block+0x14c>
  }
  else
  {
    i = 0;
 1803bc0:	e03ff615 	stw	zero,-40(fp)
  }

  unaligned_end_bytes = (offset+length) % flash->mode_width;
 1803bc4:	e0fffd17 	ldw	r3,-12(fp)
 1803bc8:	e0bfff17 	ldw	r2,-4(fp)
 1803bcc:	1889883a 	add	r4,r3,r2
 1803bd0:	e0bffc17 	ldw	r2,-16(fp)
 1803bd4:	10c02e17 	ldw	r3,184(r2)
 1803bd8:	20c5283a 	div	r2,r4,r3
 1803bdc:	10c5383a 	mul	r2,r2,r3
 1803be0:	2085c83a 	sub	r2,r4,r2
 1803be4:	e0bff715 	stw	r2,-36(fp)
  while ((ret_code == 0) && (i < (length-unaligned_end_bytes)))
 1803be8:	00001006 	br	1803c2c <alt_flash_program_block+0x1b4>
  {
    ret_code = (*program_word_func)(flash, offset+i, src_addr+i);
 1803bec:	e0fffd17 	ldw	r3,-12(fp)
 1803bf0:	e0bff617 	ldw	r2,-40(fp)
 1803bf4:	188b883a 	add	r5,r3,r2
 1803bf8:	e0bff617 	ldw	r2,-40(fp)
 1803bfc:	1007883a 	mov	r3,r2
 1803c00:	e0bffe17 	ldw	r2,-8(fp)
 1803c04:	188d883a 	add	r6,r3,r2
 1803c08:	e0800217 	ldw	r2,8(fp)
 1803c0c:	e13ffc17 	ldw	r4,-16(fp)
 1803c10:	103ee83a 	callr	r2
 1803c14:	e0bffa15 	stw	r2,-24(fp)
    i += flash->mode_width;     
 1803c18:	e0bffc17 	ldw	r2,-16(fp)
 1803c1c:	10c02e17 	ldw	r3,184(r2)
 1803c20:	e0bff617 	ldw	r2,-40(fp)
 1803c24:	10c5883a 	add	r2,r2,r3
 1803c28:	e0bff615 	stw	r2,-40(fp)
  {
    i = 0;
  }

  unaligned_end_bytes = (offset+length) % flash->mode_width;
  while ((ret_code == 0) && (i < (length-unaligned_end_bytes)))
 1803c2c:	e0bffa17 	ldw	r2,-24(fp)
 1803c30:	1004c03a 	cmpne	r2,r2,zero
 1803c34:	1000051e 	bne	r2,zero,1803c4c <alt_flash_program_block+0x1d4>
 1803c38:	e0ffff17 	ldw	r3,-4(fp)
 1803c3c:	e0bff717 	ldw	r2,-36(fp)
 1803c40:	1887c83a 	sub	r3,r3,r2
 1803c44:	e0bff617 	ldw	r2,-40(fp)
 1803c48:	10ffe816 	blt	r2,r3,1803bec <alt_flash_program_block+0x174>

  /*
   * Now take care of any writes at the end of the buffer which are on none 
   * native boundaries as far as the flash is concerned.
   */
  if (unaligned_end_bytes && !ret_code)
 1803c4c:	e0bff717 	ldw	r2,-36(fp)
 1803c50:	1005003a 	cmpeq	r2,r2,zero
 1803c54:	10003c1e 	bne	r2,zero,1803d48 <alt_flash_program_block+0x2d0>
 1803c58:	e0bffa17 	ldw	r2,-24(fp)
 1803c5c:	1004c03a 	cmpne	r2,r2,zero
 1803c60:	1000391e 	bne	r2,zero,1803d48 <alt_flash_program_block+0x2d0>
  {
    bytes_to_preserve = flash->mode_width - unaligned_end_bytes;
 1803c64:	e0bffc17 	ldw	r2,-16(fp)
 1803c68:	10c02e17 	ldw	r3,184(r2)
 1803c6c:	e0bff717 	ldw	r2,-36(fp)
 1803c70:	1885c83a 	sub	r2,r3,r2
 1803c74:	e0bff915 	stw	r2,-28(fp)
    
    for (j=0;j<unaligned_end_bytes;j++)
 1803c78:	e03ff515 	stw	zero,-44(fp)
 1803c7c:	00000e06 	br	1803cb8 <alt_flash_program_block+0x240>
    {
      unaligned[j] = *(alt_u8*)(src_addr+i+j);
 1803c80:	e13ff517 	ldw	r4,-44(fp)
 1803c84:	e0bff617 	ldw	r2,-40(fp)
 1803c88:	1007883a 	mov	r3,r2
 1803c8c:	e0bffe17 	ldw	r2,-8(fp)
 1803c90:	1887883a 	add	r3,r3,r2
 1803c94:	e0bff517 	ldw	r2,-44(fp)
 1803c98:	1885883a 	add	r2,r3,r2
 1803c9c:	10c00003 	ldbu	r3,0(r2)
 1803ca0:	e0bffb04 	addi	r2,fp,-20
 1803ca4:	1105883a 	add	r2,r2,r4
 1803ca8:	10c00005 	stb	r3,0(r2)
   */
  if (unaligned_end_bytes && !ret_code)
  {
    bytes_to_preserve = flash->mode_width - unaligned_end_bytes;
    
    for (j=0;j<unaligned_end_bytes;j++)
 1803cac:	e0bff517 	ldw	r2,-44(fp)
 1803cb0:	10800044 	addi	r2,r2,1
 1803cb4:	e0bff515 	stw	r2,-44(fp)
 1803cb8:	e0fff517 	ldw	r3,-44(fp)
 1803cbc:	e0bff717 	ldw	r2,-36(fp)
 1803cc0:	18bfef16 	blt	r3,r2,1803c80 <alt_flash_program_block+0x208>
    {
      unaligned[j] = *(alt_u8*)(src_addr+i+j);
    }
    
    for (j=0;j<bytes_to_preserve;j++)
 1803cc4:	e03ff515 	stw	zero,-44(fp)
 1803cc8:	00001406 	br	1803d1c <alt_flash_program_block+0x2a4>
    {
      unaligned[unaligned_end_bytes+j] = IORD_8DIRECT(flash->dev.base_addr, 
 1803ccc:	e0fff717 	ldw	r3,-36(fp)
 1803cd0:	e0bff517 	ldw	r2,-44(fp)
 1803cd4:	188b883a 	add	r5,r3,r2
 1803cd8:	e0bffc17 	ldw	r2,-16(fp)
 1803cdc:	10800a17 	ldw	r2,40(r2)
 1803ce0:	1009883a 	mov	r4,r2
 1803ce4:	e0fffd17 	ldw	r3,-12(fp)
 1803ce8:	e0bfff17 	ldw	r2,-4(fp)
 1803cec:	1887883a 	add	r3,r3,r2
 1803cf0:	e0bff517 	ldw	r2,-44(fp)
 1803cf4:	1885883a 	add	r2,r3,r2
 1803cf8:	2085883a 	add	r2,r4,r2
 1803cfc:	10800023 	ldbuio	r2,0(r2)
 1803d00:	1007883a 	mov	r3,r2
 1803d04:	e0bffb04 	addi	r2,fp,-20
 1803d08:	1145883a 	add	r2,r2,r5
 1803d0c:	10c00005 	stb	r3,0(r2)
    for (j=0;j<unaligned_end_bytes;j++)
    {
      unaligned[j] = *(alt_u8*)(src_addr+i+j);
    }
    
    for (j=0;j<bytes_to_preserve;j++)
 1803d10:	e0bff517 	ldw	r2,-44(fp)
 1803d14:	10800044 	addi	r2,r2,1
 1803d18:	e0bff515 	stw	r2,-44(fp)
 1803d1c:	e0fff517 	ldw	r3,-44(fp)
 1803d20:	e0bff917 	ldw	r2,-28(fp)
 1803d24:	18bfe916 	blt	r3,r2,1803ccc <alt_flash_program_block+0x254>
    {
      unaligned[unaligned_end_bytes+j] = IORD_8DIRECT(flash->dev.base_addr, 
                                                      offset+length+j);
    }

    ret_code = (*program_word_func)(flash, offset+i, unaligned);      
 1803d28:	e0fffd17 	ldw	r3,-12(fp)
 1803d2c:	e0bff617 	ldw	r2,-40(fp)
 1803d30:	188b883a 	add	r5,r3,r2
 1803d34:	e1bffb04 	addi	r6,fp,-20
 1803d38:	e0800217 	ldw	r2,8(fp)
 1803d3c:	e13ffc17 	ldw	r4,-16(fp)
 1803d40:	103ee83a 	callr	r2
 1803d44:	e0bffa15 	stw	r2,-24(fp)
  }

  return ret_code;
 1803d48:	e0bffa17 	ldw	r2,-24(fp)
}
 1803d4c:	e037883a 	mov	sp,fp
 1803d50:	dfc00117 	ldw	ra,4(sp)
 1803d54:	df000017 	ldw	fp,0(sp)
 1803d58:	dec00204 	addi	sp,sp,8
 1803d5c:	f800283a 	ret

01803d60 <alt_read_query_entry_8bit>:

/*
 *  Read an 8 bit value from the CFI query table in flash
 */
alt_u8 alt_read_query_entry_8bit( alt_flash_cfi_dev* flash, int address)
{
 1803d60:	defffd04 	addi	sp,sp,-12
 1803d64:	df000215 	stw	fp,8(sp)
 1803d68:	df000204 	addi	fp,sp,8
 1803d6c:	e13ffe15 	stw	r4,-8(fp)
 1803d70:	e17fff15 	stw	r5,-4(fp)
  return IORD_8DIRECT((alt_u8*)flash->dev.base_addr, address);
 1803d74:	e0bffe17 	ldw	r2,-8(fp)
 1803d78:	10800a17 	ldw	r2,40(r2)
 1803d7c:	1007883a 	mov	r3,r2
 1803d80:	e0bfff17 	ldw	r2,-4(fp)
 1803d84:	1885883a 	add	r2,r3,r2
 1803d88:	10800023 	ldbuio	r2,0(r2)
 1803d8c:	10803fcc 	andi	r2,r2,255
}
 1803d90:	e037883a 	mov	sp,fp
 1803d94:	df000017 	ldw	fp,0(sp)
 1803d98:	dec00104 	addi	sp,sp,4
 1803d9c:	f800283a 	ret

01803da0 <alt_read_query_entry_16bit>:

alt_u8 alt_read_query_entry_16bit( alt_flash_cfi_dev* flash, int address)
{
 1803da0:	defffd04 	addi	sp,sp,-12
 1803da4:	df000215 	stw	fp,8(sp)
 1803da8:	df000204 	addi	fp,sp,8
 1803dac:	e13ffe15 	stw	r4,-8(fp)
 1803db0:	e17fff15 	stw	r5,-4(fp)
  return (IORD_16DIRECT((alt_u8*)flash->dev.base_addr, address*2) & 0xff);
 1803db4:	e0bffe17 	ldw	r2,-8(fp)
 1803db8:	10800a17 	ldw	r2,40(r2)
 1803dbc:	1007883a 	mov	r3,r2
 1803dc0:	e0bfff17 	ldw	r2,-4(fp)
 1803dc4:	1085883a 	add	r2,r2,r2
 1803dc8:	1885883a 	add	r2,r3,r2
 1803dcc:	1080002b 	ldhuio	r2,0(r2)
 1803dd0:	10803fcc 	andi	r2,r2,255
}
 1803dd4:	e037883a 	mov	sp,fp
 1803dd8:	df000017 	ldw	fp,0(sp)
 1803ddc:	dec00104 	addi	sp,sp,4
 1803de0:	f800283a 	ret

01803de4 <alt_read_query_entry_32bit>:

alt_u8 alt_read_query_entry_32bit( alt_flash_cfi_dev* flash, int address)
{
 1803de4:	defffd04 	addi	sp,sp,-12
 1803de8:	df000215 	stw	fp,8(sp)
 1803dec:	df000204 	addi	fp,sp,8
 1803df0:	e13ffe15 	stw	r4,-8(fp)
 1803df4:	e17fff15 	stw	r5,-4(fp)
  return (IORD_32DIRECT((alt_u8*)flash->dev.base_addr, address*4) & 0xff);
 1803df8:	e0bffe17 	ldw	r2,-8(fp)
 1803dfc:	10800a17 	ldw	r2,40(r2)
 1803e00:	1007883a 	mov	r3,r2
 1803e04:	e0bfff17 	ldw	r2,-4(fp)
 1803e08:	1085883a 	add	r2,r2,r2
 1803e0c:	1085883a 	add	r2,r2,r2
 1803e10:	1885883a 	add	r2,r3,r2
 1803e14:	10800037 	ldwio	r2,0(r2)
 1803e18:	10803fcc 	andi	r2,r2,255
}
 1803e1c:	e037883a 	mov	sp,fp
 1803e20:	df000017 	ldw	fp,0(sp)
 1803e24:	dec00104 	addi	sp,sp,4
 1803e28:	f800283a 	ret

01803e2c <alt_write_flash_command_8bit_device_8bit_mode>:

/*
 * Write an 8 bit command to a flash
 */
void alt_write_flash_command_8bit_device_8bit_mode( void* base_addr, int offset, alt_u8 value)
{
 1803e2c:	defffc04 	addi	sp,sp,-16
 1803e30:	df000315 	stw	fp,12(sp)
 1803e34:	df000304 	addi	fp,sp,12
 1803e38:	e13ffd15 	stw	r4,-12(fp)
 1803e3c:	e17ffe15 	stw	r5,-8(fp)
 1803e40:	e1bfff05 	stb	r6,-4(fp)
  IOWR_8DIRECT(base_addr, offset, value);
 1803e44:	e0fffd17 	ldw	r3,-12(fp)
 1803e48:	e0bffe17 	ldw	r2,-8(fp)
 1803e4c:	1885883a 	add	r2,r3,r2
 1803e50:	e0ffff03 	ldbu	r3,-4(fp)
 1803e54:	10c00025 	stbio	r3,0(r2)
  return;
}
 1803e58:	e037883a 	mov	sp,fp
 1803e5c:	df000017 	ldw	fp,0(sp)
 1803e60:	dec00104 	addi	sp,sp,4
 1803e64:	f800283a 	ret

01803e68 <alt_write_flash_command_16bit_device_8bit_mode>:

void alt_write_flash_command_16bit_device_8bit_mode( void* base_addr, int offset, alt_u8 value)
{
 1803e68:	defffc04 	addi	sp,sp,-16
 1803e6c:	df000315 	stw	fp,12(sp)
 1803e70:	df000304 	addi	fp,sp,12
 1803e74:	e13ffd15 	stw	r4,-12(fp)
 1803e78:	e17ffe15 	stw	r5,-8(fp)
 1803e7c:	e1bfff05 	stb	r6,-4(fp)
  if (offset % 2)
 1803e80:	e0bffe17 	ldw	r2,-8(fp)
 1803e84:	1080004c 	andi	r2,r2,1
 1803e88:	10803fcc 	andi	r2,r2,255
 1803e8c:	1005003a 	cmpeq	r2,r2,zero
 1803e90:	1000081e 	bne	r2,zero,1803eb4 <alt_write_flash_command_16bit_device_8bit_mode+0x4c>
  {
    IOWR_8DIRECT(base_addr, offset*2, value);
 1803e94:	e0bffe17 	ldw	r2,-8(fp)
 1803e98:	1085883a 	add	r2,r2,r2
 1803e9c:	1007883a 	mov	r3,r2
 1803ea0:	e0bffd17 	ldw	r2,-12(fp)
 1803ea4:	1885883a 	add	r2,r3,r2
 1803ea8:	e0ffff03 	ldbu	r3,-4(fp)
 1803eac:	10c00025 	stbio	r3,0(r2)
 1803eb0:	00000806 	br	1803ed4 <alt_write_flash_command_16bit_device_8bit_mode+0x6c>
  }
  else
  {
    IOWR_8DIRECT(base_addr, (offset*2)+1, value);
 1803eb4:	e0bffe17 	ldw	r2,-8(fp)
 1803eb8:	1085883a 	add	r2,r2,r2
 1803ebc:	1007883a 	mov	r3,r2
 1803ec0:	e0bffd17 	ldw	r2,-12(fp)
 1803ec4:	1885883a 	add	r2,r3,r2
 1803ec8:	10800044 	addi	r2,r2,1
 1803ecc:	e0ffff03 	ldbu	r3,-4(fp)
 1803ed0:	10c00025 	stbio	r3,0(r2)
  }
  return;
}
 1803ed4:	e037883a 	mov	sp,fp
 1803ed8:	df000017 	ldw	fp,0(sp)
 1803edc:	dec00104 	addi	sp,sp,4
 1803ee0:	f800283a 	ret

01803ee4 <alt_write_flash_command_32bit_device_8bit_mode>:

void alt_write_flash_command_32bit_device_8bit_mode( void* base_addr, int offset, alt_u8 value)
{
 1803ee4:	defffc04 	addi	sp,sp,-16
 1803ee8:	df000315 	stw	fp,12(sp)
 1803eec:	df000304 	addi	fp,sp,12
 1803ef0:	e13ffd15 	stw	r4,-12(fp)
 1803ef4:	e17ffe15 	stw	r5,-8(fp)
 1803ef8:	e1bfff05 	stb	r6,-4(fp)
  IOWR_8DIRECT(base_addr, offset*4, value);
 1803efc:	e0bffe17 	ldw	r2,-8(fp)
 1803f00:	1085883a 	add	r2,r2,r2
 1803f04:	1085883a 	add	r2,r2,r2
 1803f08:	1007883a 	mov	r3,r2
 1803f0c:	e0bffd17 	ldw	r2,-12(fp)
 1803f10:	1885883a 	add	r2,r3,r2
 1803f14:	e0ffff03 	ldbu	r3,-4(fp)
 1803f18:	10c00025 	stbio	r3,0(r2)
  return;
}
 1803f1c:	e037883a 	mov	sp,fp
 1803f20:	df000017 	ldw	fp,0(sp)
 1803f24:	dec00104 	addi	sp,sp,4
 1803f28:	f800283a 	ret

01803f2c <alt_write_flash_command_16bit_device_16bit_mode>:

void alt_write_flash_command_16bit_device_16bit_mode( void* base_addr, int offset, alt_u8 value)
{
 1803f2c:	defffc04 	addi	sp,sp,-16
 1803f30:	df000315 	stw	fp,12(sp)
 1803f34:	df000304 	addi	fp,sp,12
 1803f38:	e13ffd15 	stw	r4,-12(fp)
 1803f3c:	e17ffe15 	stw	r5,-8(fp)
 1803f40:	e1bfff05 	stb	r6,-4(fp)
  IOWR_16DIRECT(base_addr, offset*2, ((alt_u16)value)& 0x00ff);
 1803f44:	e0bffe17 	ldw	r2,-8(fp)
 1803f48:	1085883a 	add	r2,r2,r2
 1803f4c:	1007883a 	mov	r3,r2
 1803f50:	e0bffd17 	ldw	r2,-12(fp)
 1803f54:	1885883a 	add	r2,r3,r2
 1803f58:	e0ffff03 	ldbu	r3,-4(fp)
 1803f5c:	10c0002d 	sthio	r3,0(r2)
  return;
}
 1803f60:	e037883a 	mov	sp,fp
 1803f64:	df000017 	ldw	fp,0(sp)
 1803f68:	dec00104 	addi	sp,sp,4
 1803f6c:	f800283a 	ret

01803f70 <alt_write_flash_command_32bit_device_16bit_mode>:

void alt_write_flash_command_32bit_device_16bit_mode( void* base_addr, int offset, alt_u8 value)
{
 1803f70:	defffc04 	addi	sp,sp,-16
 1803f74:	df000315 	stw	fp,12(sp)
 1803f78:	df000304 	addi	fp,sp,12
 1803f7c:	e13ffd15 	stw	r4,-12(fp)
 1803f80:	e17ffe15 	stw	r5,-8(fp)
 1803f84:	e1bfff05 	stb	r6,-4(fp)
  IOWR_16DIRECT(base_addr, offset*4, ((alt_u16)value)& 0x00ff);
 1803f88:	e0bffe17 	ldw	r2,-8(fp)
 1803f8c:	1085883a 	add	r2,r2,r2
 1803f90:	1085883a 	add	r2,r2,r2
 1803f94:	1007883a 	mov	r3,r2
 1803f98:	e0bffd17 	ldw	r2,-12(fp)
 1803f9c:	1885883a 	add	r2,r3,r2
 1803fa0:	e0ffff03 	ldbu	r3,-4(fp)
 1803fa4:	10c0002d 	sthio	r3,0(r2)
  return;
}
 1803fa8:	e037883a 	mov	sp,fp
 1803fac:	df000017 	ldw	fp,0(sp)
 1803fb0:	dec00104 	addi	sp,sp,4
 1803fb4:	f800283a 	ret

01803fb8 <alt_write_flash_command_32bit_device_32bit_mode>:

void alt_write_flash_command_32bit_device_32bit_mode( void* base_addr, int offset, alt_u8 value)
{
 1803fb8:	defffc04 	addi	sp,sp,-16
 1803fbc:	df000315 	stw	fp,12(sp)
 1803fc0:	df000304 	addi	fp,sp,12
 1803fc4:	e13ffd15 	stw	r4,-12(fp)
 1803fc8:	e17ffe15 	stw	r5,-8(fp)
 1803fcc:	e1bfff05 	stb	r6,-4(fp)
  IOWR_32DIRECT(base_addr, offset*4, ((alt_u32)value)& 0x000000ff);
 1803fd0:	e0bffe17 	ldw	r2,-8(fp)
 1803fd4:	1085883a 	add	r2,r2,r2
 1803fd8:	1085883a 	add	r2,r2,r2
 1803fdc:	1007883a 	mov	r3,r2
 1803fe0:	e0bffd17 	ldw	r2,-12(fp)
 1803fe4:	1885883a 	add	r2,r3,r2
 1803fe8:	e0ffff03 	ldbu	r3,-4(fp)
 1803fec:	10c00035 	stwio	r3,0(r2)
  return;
}
 1803ff0:	e037883a 	mov	sp,fp
 1803ff4:	df000017 	ldw	fp,0(sp)
 1803ff8:	dec00104 	addi	sp,sp,4
 1803ffc:	f800283a 	ret

01804000 <alt_write_native_8bit>:

/*
 * Write the value passed to the flash
 */
void alt_write_native_8bit( void* address, alt_u32 value)
{
 1804000:	defffd04 	addi	sp,sp,-12
 1804004:	df000215 	stw	fp,8(sp)
 1804008:	df000204 	addi	fp,sp,8
 180400c:	e13ffe15 	stw	r4,-8(fp)
 1804010:	e17fff15 	stw	r5,-4(fp)
  IOWR_8DIRECT(address, 0, (alt_u8)(value&0xff));
 1804014:	e0bfff17 	ldw	r2,-4(fp)
 1804018:	10c03fcc 	andi	r3,r2,255
 180401c:	e0bffe17 	ldw	r2,-8(fp)
 1804020:	10c00025 	stbio	r3,0(r2)
  return;
}
 1804024:	e037883a 	mov	sp,fp
 1804028:	df000017 	ldw	fp,0(sp)
 180402c:	dec00104 	addi	sp,sp,4
 1804030:	f800283a 	ret

01804034 <alt_write_native_16bit>:

void alt_write_native_16bit( void* address, alt_u32 value)
{
 1804034:	defffd04 	addi	sp,sp,-12
 1804038:	df000215 	stw	fp,8(sp)
 180403c:	df000204 	addi	fp,sp,8
 1804040:	e13ffe15 	stw	r4,-8(fp)
 1804044:	e17fff15 	stw	r5,-4(fp)
  IOWR_16DIRECT(address, 0, ((alt_u16)value)& 0xffff);
 1804048:	e0bfff17 	ldw	r2,-4(fp)
 180404c:	10ffffcc 	andi	r3,r2,65535
 1804050:	e0bffe17 	ldw	r2,-8(fp)
 1804054:	10c0002d 	sthio	r3,0(r2)
  return;
}
 1804058:	e037883a 	mov	sp,fp
 180405c:	df000017 	ldw	fp,0(sp)
 1804060:	dec00104 	addi	sp,sp,4
 1804064:	f800283a 	ret

01804068 <alt_write_native_32bit>:

void alt_write_native_32bit( void* address, alt_u32 value)
{
 1804068:	defffd04 	addi	sp,sp,-12
 180406c:	df000215 	stw	fp,8(sp)
 1804070:	df000204 	addi	fp,sp,8
 1804074:	e13ffe15 	stw	r4,-8(fp)
 1804078:	e17fff15 	stw	r5,-4(fp)
  IOWR_32DIRECT(address, 0, value);
 180407c:	e0ffff17 	ldw	r3,-4(fp)
 1804080:	e0bffe17 	ldw	r2,-8(fp)
 1804084:	10c00035 	stwio	r3,0(r2)
  return;
}
 1804088:	e037883a 	mov	sp,fp
 180408c:	df000017 	ldw	fp,0(sp)
 1804090:	dec00104 	addi	sp,sp,4
 1804094:	f800283a 	ret

01804098 <alt_set_flash_width_func>:
 * 
 * Setup the function pointers for writing a byte to the flash for the width
 * of the device
 */
int alt_set_flash_width_func( alt_flash_cfi_dev* flash)
{ 
 1804098:	defffb04 	addi	sp,sp,-20
 180409c:	df000415 	stw	fp,16(sp)
 18040a0:	df000404 	addi	fp,sp,16
 18040a4:	e13ffd15 	stw	r4,-12(fp)
  int ret_code = 0;
 18040a8:	e03ffc15 	stw	zero,-16(fp)
  
  switch(flash->mode_width)
 18040ac:	e0bffd17 	ldw	r2,-12(fp)
 18040b0:	10802e17 	ldw	r2,184(r2)
 18040b4:	e0bfff15 	stw	r2,-4(fp)
 18040b8:	e0ffff17 	ldw	r3,-4(fp)
 18040bc:	188000a0 	cmpeqi	r2,r3,2
 18040c0:	1000261e 	bne	r2,zero,180415c <alt_set_flash_width_func+0xc4>
 18040c4:	e0ffff17 	ldw	r3,-4(fp)
 18040c8:	18800120 	cmpeqi	r2,r3,4
 18040cc:	1000391e 	bne	r2,zero,18041b4 <alt_set_flash_width_func+0x11c>
 18040d0:	e0ffff17 	ldw	r3,-4(fp)
 18040d4:	18800060 	cmpeqi	r2,r3,1
 18040d8:	1000011e 	bne	r2,zero,18040e0 <alt_set_flash_width_func+0x48>
 18040dc:	00003e06 	br	18041d8 <alt_set_flash_width_func+0x140>
  {
    case 1:
    {
      flash->write_native = alt_write_native_8bit;
 18040e0:	e0fffd17 	ldw	r3,-12(fp)
 18040e4:	00806034 	movhi	r2,384
 18040e8:	10900004 	addi	r2,r2,16384
 18040ec:	18803515 	stw	r2,212(r3)

      if (flash->device_width == 1)
 18040f0:	e0bffd17 	ldw	r2,-12(fp)
 18040f4:	10802f17 	ldw	r2,188(r2)
 18040f8:	10800058 	cmpnei	r2,r2,1
 18040fc:	1000051e 	bne	r2,zero,1804114 <alt_set_flash_width_func+0x7c>
      {
        flash->write_command = alt_write_flash_command_8bit_device_8bit_mode;
 1804100:	e0fffd17 	ldw	r3,-12(fp)
 1804104:	00806034 	movhi	r2,384
 1804108:	108f8b04 	addi	r2,r2,15916
 180410c:	18803315 	stw	r2,204(r3)
 1804110:	00003306 	br	18041e0 <alt_set_flash_width_func+0x148>
      }
      else if (flash->device_width == 2)
 1804114:	e0bffd17 	ldw	r2,-12(fp)
 1804118:	10802f17 	ldw	r2,188(r2)
 180411c:	10800098 	cmpnei	r2,r2,2
 1804120:	1000051e 	bne	r2,zero,1804138 <alt_set_flash_width_func+0xa0>
      {
        flash->write_command = alt_write_flash_command_16bit_device_8bit_mode;
 1804124:	e0fffd17 	ldw	r3,-12(fp)
 1804128:	00806034 	movhi	r2,384
 180412c:	108f9a04 	addi	r2,r2,15976
 1804130:	18803315 	stw	r2,204(r3)
 1804134:	00002a06 	br	18041e0 <alt_set_flash_width_func+0x148>
      }
      else if (flash->device_width == 4)
 1804138:	e0bffd17 	ldw	r2,-12(fp)
 180413c:	10802f17 	ldw	r2,188(r2)
 1804140:	10800118 	cmpnei	r2,r2,4
 1804144:	1000261e 	bne	r2,zero,18041e0 <alt_set_flash_width_func+0x148>
      {
        flash->write_command = alt_write_flash_command_32bit_device_8bit_mode;
 1804148:	e0fffd17 	ldw	r3,-12(fp)
 180414c:	00806034 	movhi	r2,384
 1804150:	108fb904 	addi	r2,r2,16100
 1804154:	18803315 	stw	r2,204(r3)
      }
      break;
 1804158:	00002106 	br	18041e0 <alt_set_flash_width_func+0x148>
    }
    case 2:
    {
      flash->write_native = alt_write_native_16bit;
 180415c:	e0fffd17 	ldw	r3,-12(fp)
 1804160:	00806034 	movhi	r2,384
 1804164:	10900d04 	addi	r2,r2,16436
 1804168:	18803515 	stw	r2,212(r3)

      if (flash->device_width == 2)
 180416c:	e0bffd17 	ldw	r2,-12(fp)
 1804170:	10802f17 	ldw	r2,188(r2)
 1804174:	10800098 	cmpnei	r2,r2,2
 1804178:	1000051e 	bne	r2,zero,1804190 <alt_set_flash_width_func+0xf8>
      {
        flash->write_command = alt_write_flash_command_16bit_device_16bit_mode;
 180417c:	e0fffd17 	ldw	r3,-12(fp)
 1804180:	00806034 	movhi	r2,384
 1804184:	108fcb04 	addi	r2,r2,16172
 1804188:	18803315 	stw	r2,204(r3)
 180418c:	00001406 	br	18041e0 <alt_set_flash_width_func+0x148>
      }
      else if (flash->device_width == 4)
 1804190:	e0bffd17 	ldw	r2,-12(fp)
 1804194:	10802f17 	ldw	r2,188(r2)
 1804198:	10800118 	cmpnei	r2,r2,4
 180419c:	1000101e 	bne	r2,zero,18041e0 <alt_set_flash_width_func+0x148>
      {
        flash->write_command = alt_write_flash_command_32bit_device_16bit_mode;
 18041a0:	e0fffd17 	ldw	r3,-12(fp)
 18041a4:	00806034 	movhi	r2,384
 18041a8:	108fdc04 	addi	r2,r2,16240
 18041ac:	18803315 	stw	r2,204(r3)
      }

      break;
 18041b0:	00000b06 	br	18041e0 <alt_set_flash_width_func+0x148>
    }
    case 4:
    {
      flash->write_native = alt_write_native_32bit;
 18041b4:	e0fffd17 	ldw	r3,-12(fp)
 18041b8:	00806034 	movhi	r2,384
 18041bc:	10901a04 	addi	r2,r2,16488
 18041c0:	18803515 	stw	r2,212(r3)
      flash->write_command = alt_write_flash_command_32bit_device_32bit_mode;
 18041c4:	e0fffd17 	ldw	r3,-12(fp)
 18041c8:	00806034 	movhi	r2,384
 18041cc:	108fee04 	addi	r2,r2,16312
 18041d0:	18803315 	stw	r2,204(r3)
      break;
 18041d4:	00000206 	br	18041e0 <alt_set_flash_width_func+0x148>
    }
    default:
    {
      ret_code = -EACCES;
 18041d8:	00bffcc4 	movi	r2,-13
 18041dc:	e0bffc15 	stw	r2,-16(fp)
    }
  }

  if (!ret_code)
 18041e0:	e0bffc17 	ldw	r2,-16(fp)
 18041e4:	1004c03a 	cmpne	r2,r2,zero
 18041e8:	10001e1e 	bne	r2,zero,1804264 <alt_set_flash_width_func+0x1cc>
  {
    switch(flash->device_width)
 18041ec:	e0bffd17 	ldw	r2,-12(fp)
 18041f0:	10802f17 	ldw	r2,188(r2)
 18041f4:	e0bffe15 	stw	r2,-8(fp)
 18041f8:	e0fffe17 	ldw	r3,-8(fp)
 18041fc:	188000a0 	cmpeqi	r2,r3,2
 1804200:	10000c1e 	bne	r2,zero,1804234 <alt_set_flash_width_func+0x19c>
 1804204:	e0fffe17 	ldw	r3,-8(fp)
 1804208:	18800120 	cmpeqi	r2,r3,4
 180420c:	10000e1e 	bne	r2,zero,1804248 <alt_set_flash_width_func+0x1b0>
 1804210:	e0fffe17 	ldw	r3,-8(fp)
 1804214:	18800060 	cmpeqi	r2,r3,1
 1804218:	1000011e 	bne	r2,zero,1804220 <alt_set_flash_width_func+0x188>
 180421c:	00000f06 	br	180425c <alt_set_flash_width_func+0x1c4>
    {
      case 1:
      {
        flash->read_query = alt_read_query_entry_8bit;
 1804220:	e0fffd17 	ldw	r3,-12(fp)
 1804224:	00806034 	movhi	r2,384
 1804228:	108f5804 	addi	r2,r2,15712
 180422c:	18803415 	stw	r2,208(r3)
        break;
 1804230:	00000c06 	br	1804264 <alt_set_flash_width_func+0x1cc>
      }
      case 2:
      {
        flash->read_query = alt_read_query_entry_16bit;
 1804234:	e0fffd17 	ldw	r3,-12(fp)
 1804238:	00806034 	movhi	r2,384
 180423c:	108f6804 	addi	r2,r2,15776
 1804240:	18803415 	stw	r2,208(r3)
        break;
 1804244:	00000706 	br	1804264 <alt_set_flash_width_func+0x1cc>
      }
      case 4:
      {
        flash->read_query = alt_read_query_entry_32bit;
 1804248:	e0fffd17 	ldw	r3,-12(fp)
 180424c:	00806034 	movhi	r2,384
 1804250:	108f7904 	addi	r2,r2,15844
 1804254:	18803415 	stw	r2,208(r3)
        break;
 1804258:	00000206 	br	1804264 <alt_set_flash_width_func+0x1cc>
      }
      default:
      {
        ret_code = -EACCES;
 180425c:	00bffcc4 	movi	r2,-13
 1804260:	e0bffc15 	stw	r2,-16(fp)
      }
    }
  }

  return ret_code;
 1804264:	e0bffc17 	ldw	r2,-16(fp)
}
 1804268:	e037883a 	mov	sp,fp
 180426c:	df000017 	ldw	fp,0(sp)
 1804270:	dec00104 	addi	sp,sp,4
 1804274:	f800283a 	ret

01804278 <alt_set_flash_algorithm_func>:
 * 
 * Setup the function pointers to the functions for this algorithm
 * 
 */
int alt_set_flash_algorithm_func( alt_flash_cfi_dev* flash)
{
 1804278:	defffc04 	addi	sp,sp,-16
 180427c:	df000315 	stw	fp,12(sp)
 1804280:	df000304 	addi	fp,sp,12
 1804284:	e13ffe15 	stw	r4,-8(fp)
  int ret_code = 0;
 1804288:	e03ffd15 	stw	zero,-12(fp)
 
  switch(flash->algorithm)
 180428c:	e0bffe17 	ldw	r2,-8(fp)
 1804290:	10802d17 	ldw	r2,180(r2)
 1804294:	e0bfff15 	stw	r2,-4(fp)
 1804298:	e0ffff17 	ldw	r3,-4(fp)
 180429c:	188000a0 	cmpeqi	r2,r3,2
 18042a0:	1000071e 	bne	r2,zero,18042c0 <alt_set_flash_algorithm_func+0x48>
 18042a4:	e0ffff17 	ldw	r3,-4(fp)
 18042a8:	188000e0 	cmpeqi	r2,r3,3
 18042ac:	10000d1e 	bne	r2,zero,18042e4 <alt_set_flash_algorithm_func+0x6c>
 18042b0:	e0ffff17 	ldw	r3,-4(fp)
 18042b4:	18800060 	cmpeqi	r2,r3,1
 18042b8:	10000a1e 	bne	r2,zero,18042e4 <alt_set_flash_algorithm_func+0x6c>
 18042bc:	00001206 	br	1804308 <alt_set_flash_algorithm_func+0x90>
  {
    case CFI_ALG_AMD:
    {
      flash->dev.erase_block = alt_erase_block_amd;
 18042c0:	e0fffe17 	ldw	r3,-8(fp)
 18042c4:	00806074 	movhi	r2,385
 18042c8:	10a0f704 	addi	r2,r2,-31780
 18042cc:	18800815 	stw	r2,32(r3)
      flash->dev.write_block = alt_program_amd;
 18042d0:	e0fffe17 	ldw	r3,-8(fp)
 18042d4:	00806074 	movhi	r2,385
 18042d8:	10a0dd04 	addi	r2,r2,-31884
 18042dc:	18800915 	stw	r2,36(r3)
      break;
 18042e0:	00000b06 	br	1804310 <alt_set_flash_algorithm_func+0x98>
    }
    case CFI_ALG_INTEL:
    case CFI_ALG_INTEL_STRATA:
    {
      flash->dev.erase_block = alt_erase_block_intel;
 18042e4:	e0fffe17 	ldw	r3,-8(fp)
 18042e8:	00806074 	movhi	r2,385
 18042ec:	10a21604 	addi	r2,r2,-30632
 18042f0:	18800815 	stw	r2,32(r3)
      flash->dev.write_block = alt_program_intel;
 18042f4:	e0fffe17 	ldw	r3,-8(fp)
 18042f8:	00806074 	movhi	r2,385
 18042fc:	10a1f504 	addi	r2,r2,-30764
 1804300:	18800915 	stw	r2,36(r3)
      break;
 1804304:	00000206 	br	1804310 <alt_set_flash_algorithm_func+0x98>
    }
    default:
    {
      ret_code = -EIO;
 1804308:	00bffec4 	movi	r2,-5
 180430c:	e0bffd15 	stw	r2,-12(fp)
    }
  } 
  return ret_code;  
 1804310:	e0bffd17 	ldw	r2,-12(fp)
}
 1804314:	e037883a 	mov	sp,fp
 1804318:	df000017 	ldw	fp,0(sp)
 180431c:	dec00104 	addi	sp,sp,4
 1804320:	f800283a 	ret

01804324 <alt_read_16bit_query_entry>:
 * read_16bit_query_entry
 * 
 * Read a 16 bit entry from the CFI Query table
 */
static alt_u16 alt_read_16bit_query_entry(alt_flash_cfi_dev* flash, int address)
{
 1804324:	defffb04 	addi	sp,sp,-20
 1804328:	dfc00415 	stw	ra,16(sp)
 180432c:	df000315 	stw	fp,12(sp)
 1804330:	df000304 	addi	fp,sp,12
 1804334:	e13ffe15 	stw	r4,-8(fp)
 1804338:	e17fff15 	stw	r5,-4(fp)
  alt_u16 ret_code;

  ret_code = (*flash->read_query)( flash, address);
 180433c:	e0bffe17 	ldw	r2,-8(fp)
 1804340:	10803417 	ldw	r2,208(r2)
 1804344:	e13ffe17 	ldw	r4,-8(fp)
 1804348:	e17fff17 	ldw	r5,-4(fp)
 180434c:	103ee83a 	callr	r2
 1804350:	10803fcc 	andi	r2,r2,255
 1804354:	e0bffd0d 	sth	r2,-12(fp)
  ret_code |= (((int)(*flash->read_query)(flash, address+1)) << 8);                   
 1804358:	e0bffe17 	ldw	r2,-8(fp)
 180435c:	10c03417 	ldw	r3,208(r2)
 1804360:	e0bfff17 	ldw	r2,-4(fp)
 1804364:	11400044 	addi	r5,r2,1
 1804368:	e13ffe17 	ldw	r4,-8(fp)
 180436c:	183ee83a 	callr	r3
 1804370:	10803fcc 	andi	r2,r2,255
 1804374:	1004923a 	slli	r2,r2,8
 1804378:	1007883a 	mov	r3,r2
 180437c:	e0bffd0b 	ldhu	r2,-12(fp)
 1804380:	1884b03a 	or	r2,r3,r2
 1804384:	e0bffd0d 	sth	r2,-12(fp)

  return ret_code;
 1804388:	e0bffd0b 	ldhu	r2,-12(fp)
}
 180438c:	e037883a 	mov	sp,fp
 1804390:	dfc00117 	ldw	ra,4(sp)
 1804394:	df000017 	ldw	fp,0(sp)
 1804398:	dec00204 	addi	sp,sp,8
 180439c:	f800283a 	ret

018043a0 <alt_read_cfi_table>:
 * read_cfi_table
 * 
 * Read the CFI Table
 */
int alt_read_cfi_table(alt_flash_cfi_dev* flash)
{
 18043a0:	defff204 	addi	sp,sp,-56
 18043a4:	dfc00d15 	stw	ra,52(sp)
 18043a8:	df000c15 	stw	fp,48(sp)
 18043ac:	dc000b15 	stw	r16,44(sp)
 18043b0:	df000b04 	addi	fp,sp,44
 18043b4:	e13fff15 	stw	r4,-4(fp)
  int   i,j;
  int   device_size;
  int   ret_code = 0;
 18043b8:	e03ffb15 	stw	zero,-20(fp)
  int   size = 0;
 18043bc:	e03ffa15 	stw	zero,-24(fp)
  int   swap;
  int   typical_timeout;
  int   max_timeout;
  int   offset = 0;
 18043c0:	e03ff615 	stw	zero,-40(fp)
   
  /*
  * Check that the Primary Vendor Specific table
  * starts with the letters PRI                                                         
  */
  ret_code = alt_check_primary_table(flash);
 18043c4:	e13fff17 	ldw	r4,-4(fp)
 18043c8:	18050cc0 	call	18050cc <alt_check_primary_table>
 18043cc:	e0bffb15 	stw	r2,-20(fp)

  if (!ret_code)
 18043d0:	e0bffb17 	ldw	r2,-20(fp)
 18043d4:	1004c03a 	cmpne	r2,r2,zero
 18043d8:	10014a1e 	bne	r2,zero,1804904 <alt_read_cfi_table+0x564>
  {
    flash->algorithm = (*flash->read_query)(flash, 0x13);
 18043dc:	e0bfff17 	ldw	r2,-4(fp)
 18043e0:	10803417 	ldw	r2,208(r2)
 18043e4:	e13fff17 	ldw	r4,-4(fp)
 18043e8:	014004c4 	movi	r5,19
 18043ec:	103ee83a 	callr	r2
 18043f0:	10c03fcc 	andi	r3,r2,255
 18043f4:	e0bfff17 	ldw	r2,-4(fp)
 18043f8:	10c02d15 	stw	r3,180(r2)
  
    /* 
     * Let's read the write timeout values from the flash 
     * 
     */
    typical_timeout = (*flash->read_query)( flash, 0x1f);
 18043fc:	e0bfff17 	ldw	r2,-4(fp)
 1804400:	10803417 	ldw	r2,208(r2)
 1804404:	e13fff17 	ldw	r4,-4(fp)
 1804408:	014007c4 	movi	r5,31
 180440c:	103ee83a 	callr	r2
 1804410:	10803fcc 	andi	r2,r2,255
 1804414:	e0bff815 	stw	r2,-32(fp)
    max_timeout = (*flash->read_query)( flash, 0x23);
 1804418:	e0bfff17 	ldw	r2,-4(fp)
 180441c:	10803417 	ldw	r2,208(r2)
 1804420:	e13fff17 	ldw	r4,-4(fp)
 1804424:	014008c4 	movi	r5,35
 1804428:	103ee83a 	callr	r2
 180442c:	10803fcc 	andi	r2,r2,255
 1804430:	e0bff715 	stw	r2,-36(fp)
    
    if ((typical_timeout == 0 ) || (max_timeout == 0))
 1804434:	e0bff817 	ldw	r2,-32(fp)
 1804438:	1005003a 	cmpeq	r2,r2,zero
 180443c:	1000031e 	bne	r2,zero,180444c <alt_read_cfi_table+0xac>
 1804440:	e0bff717 	ldw	r2,-36(fp)
 1804444:	1004c03a 	cmpne	r2,r2,zero
 1804448:	1000041e 	bne	r2,zero,180445c <alt_read_cfi_table+0xbc>
    {
      flash->write_timeout = 1000; /* 1ms should be more than enough */
 180444c:	e0ffff17 	ldw	r3,-4(fp)
 1804450:	0080fa04 	movi	r2,1000
 1804454:	18803015 	stw	r2,192(r3)
     * 
     */
    typical_timeout = (*flash->read_query)( flash, 0x1f);
    max_timeout = (*flash->read_query)( flash, 0x23);
    
    if ((typical_timeout == 0 ) || (max_timeout == 0))
 1804458:	00000706 	br	1804478 <alt_read_cfi_table+0xd8>
    {
      flash->write_timeout = 1000; /* 1ms should be more than enough */
    }
    else
    {
      flash->write_timeout = (1 << typical_timeout) * (1 << max_timeout);
 180445c:	00c00044 	movi	r3,1
 1804460:	e0bff817 	ldw	r2,-32(fp)
 1804464:	1886983a 	sll	r3,r3,r2
 1804468:	e0bff717 	ldw	r2,-36(fp)
 180446c:	1886983a 	sll	r3,r3,r2
 1804470:	e0bfff17 	ldw	r2,-4(fp)
 1804474:	10c03015 	stw	r3,192(r2)
    }
   
    /* Let's read the block erase timeout values from the flash */
    typical_timeout = (*flash->read_query)( flash, 0x21);
 1804478:	e0bfff17 	ldw	r2,-4(fp)
 180447c:	10803417 	ldw	r2,208(r2)
 1804480:	e13fff17 	ldw	r4,-4(fp)
 1804484:	01400844 	movi	r5,33
 1804488:	103ee83a 	callr	r2
 180448c:	10803fcc 	andi	r2,r2,255
 1804490:	e0bff815 	stw	r2,-32(fp)
    max_timeout = (*flash->read_query)( flash, 0x25);
 1804494:	e0bfff17 	ldw	r2,-4(fp)
 1804498:	10803417 	ldw	r2,208(r2)
 180449c:	e13fff17 	ldw	r4,-4(fp)
 18044a0:	01400944 	movi	r5,37
 18044a4:	103ee83a 	callr	r2
 18044a8:	10803fcc 	andi	r2,r2,255
 18044ac:	e0bff715 	stw	r2,-36(fp)
    
    if ((typical_timeout == 0 ) || (max_timeout == 0))
 18044b0:	e0bff817 	ldw	r2,-32(fp)
 18044b4:	1005003a 	cmpeq	r2,r2,zero
 18044b8:	1000031e 	bne	r2,zero,18044c8 <alt_read_cfi_table+0x128>
 18044bc:	e0bff717 	ldw	r2,-36(fp)
 18044c0:	1004c03a 	cmpne	r2,r2,zero
 18044c4:	1000051e 	bne	r2,zero,18044dc <alt_read_cfi_table+0x13c>
    {
      flash->erase_timeout = 20000000; /* 20s should be more than enough */
 18044c8:	e0ffff17 	ldw	r3,-4(fp)
 18044cc:	00804c74 	movhi	r2,305
 18044d0:	108b4004 	addi	r2,r2,11520
 18044d4:	18803115 	stw	r2,196(r3)
   
    /* Let's read the block erase timeout values from the flash */
    typical_timeout = (*flash->read_query)( flash, 0x21);
    max_timeout = (*flash->read_query)( flash, 0x25);
    
    if ((typical_timeout == 0 ) || (max_timeout == 0))
 18044d8:	00000806 	br	18044fc <alt_read_cfi_table+0x15c>
    {
      flash->erase_timeout = 20000000; /* 20s should be more than enough */
    }
    else
    {
      flash->erase_timeout = (1 << typical_timeout) * (1 << max_timeout) * 1000;
 18044dc:	00c00044 	movi	r3,1
 18044e0:	e0bff817 	ldw	r2,-32(fp)
 18044e4:	1886983a 	sll	r3,r3,r2
 18044e8:	e0bff717 	ldw	r2,-36(fp)
 18044ec:	1884983a 	sll	r2,r3,r2
 18044f0:	10c0fa24 	muli	r3,r2,1000
 18044f4:	e0bfff17 	ldw	r2,-4(fp)
 18044f8:	10c03115 	stw	r3,196(r2)
    }
   
    device_size = 0x1 << (*flash->read_query)( flash, 0x27);
 18044fc:	e0bfff17 	ldw	r2,-4(fp)
 1804500:	10803417 	ldw	r2,208(r2)
 1804504:	e13fff17 	ldw	r4,-4(fp)
 1804508:	014009c4 	movi	r5,39
 180450c:	103ee83a 	callr	r2
 1804510:	10c03fcc 	andi	r3,r2,255
 1804514:	00800044 	movi	r2,1
 1804518:	10c4983a 	sll	r2,r2,r3
 180451c:	e0bffc15 	stw	r2,-16(fp)
  
    flash->dev.number_of_regions = (*flash->read_query)(flash, 0x2c);
 1804520:	e0bfff17 	ldw	r2,-4(fp)
 1804524:	10803417 	ldw	r2,208(r2)
 1804528:	e13fff17 	ldw	r4,-4(fp)
 180452c:	01400b04 	movi	r5,44
 1804530:	103ee83a 	callr	r2
 1804534:	10c03fcc 	andi	r3,r2,255
 1804538:	e0bfff17 	ldw	r2,-4(fp)
 180453c:	10c00c15 	stw	r3,48(r2)
    
    if (flash->dev.number_of_regions > ALT_MAX_NUMBER_OF_FLASH_REGIONS)
 1804540:	e0bfff17 	ldw	r2,-4(fp)
 1804544:	10800c17 	ldw	r2,48(r2)
 1804548:	10800250 	cmplti	r2,r2,9
 180454c:	1000031e 	bne	r2,zero,180455c <alt_read_cfi_table+0x1bc>
    {
      ret_code = -ENOMEM;
 1804550:	00bffd04 	movi	r2,-12
 1804554:	e0bffb15 	stw	r2,-20(fp)
 1804558:	00005e06 	br	18046d4 <alt_read_cfi_table+0x334>
    }
    else
    {
      for(i=0;i<flash->dev.number_of_regions;i++)
 180455c:	e03ffe15 	stw	zero,-8(fp)
 1804560:	00005306 	br	18046b0 <alt_read_cfi_table+0x310>
      {
        flash->dev.region_info[i].number_of_blocks =  alt_read_16bit_query_entry( 
 1804564:	e43ffe17 	ldw	r16,-8(fp)
 1804568:	e0bffe17 	ldw	r2,-8(fp)
 180456c:	1085883a 	add	r2,r2,r2
 1804570:	1085883a 	add	r2,r2,r2
 1804574:	11400b44 	addi	r5,r2,45
 1804578:	e13fff17 	ldw	r4,-4(fp)
 180457c:	18043240 	call	1804324 <alt_read_16bit_query_entry>
 1804580:	113fffcc 	andi	r4,r2,65535
 1804584:	e0ffff17 	ldw	r3,-4(fp)
 1804588:	8004913a 	slli	r2,r16,4
 180458c:	10c5883a 	add	r2,r2,r3
 1804590:	10800f04 	addi	r2,r2,60
 1804594:	11000015 	stw	r4,0(r2)
                                                            flash,
                                                            (0x2D+i*4));
        flash->dev.region_info[i].number_of_blocks += 1; 
 1804598:	e17ffe17 	ldw	r5,-8(fp)
 180459c:	e0bffe17 	ldw	r2,-8(fp)
 18045a0:	e0ffff17 	ldw	r3,-4(fp)
 18045a4:	1004913a 	slli	r2,r2,4
 18045a8:	10c5883a 	add	r2,r2,r3
 18045ac:	10800f04 	addi	r2,r2,60
 18045b0:	10800017 	ldw	r2,0(r2)
 18045b4:	11000044 	addi	r4,r2,1
 18045b8:	e0ffff17 	ldw	r3,-4(fp)
 18045bc:	2804913a 	slli	r2,r5,4
 18045c0:	10c5883a 	add	r2,r2,r3
 18045c4:	10800f04 	addi	r2,r2,60
 18045c8:	11000015 	stw	r4,0(r2)
        flash->dev.region_info[i].block_size =  alt_read_16bit_query_entry( flash, 
 18045cc:	e43ffe17 	ldw	r16,-8(fp)
 18045d0:	e0bffe17 	ldw	r2,-8(fp)
 18045d4:	1085883a 	add	r2,r2,r2
 18045d8:	1085883a 	add	r2,r2,r2
 18045dc:	11400bc4 	addi	r5,r2,47
 18045e0:	e13fff17 	ldw	r4,-4(fp)
 18045e4:	18043240 	call	1804324 <alt_read_16bit_query_entry>
 18045e8:	113fffcc 	andi	r4,r2,65535
 18045ec:	e0ffff17 	ldw	r3,-4(fp)
 18045f0:	8004913a 	slli	r2,r16,4
 18045f4:	10c5883a 	add	r2,r2,r3
 18045f8:	10801004 	addi	r2,r2,64
 18045fc:	11000015 	stw	r4,0(r2)
                                                              (0x2F+i*4));
        flash->dev.region_info[i].block_size *= 256;
 1804600:	e17ffe17 	ldw	r5,-8(fp)
 1804604:	e0bffe17 	ldw	r2,-8(fp)
 1804608:	e0ffff17 	ldw	r3,-4(fp)
 180460c:	1004913a 	slli	r2,r2,4
 1804610:	10c5883a 	add	r2,r2,r3
 1804614:	10801004 	addi	r2,r2,64
 1804618:	10800017 	ldw	r2,0(r2)
 180461c:	1008923a 	slli	r4,r2,8
 1804620:	e0ffff17 	ldw	r3,-4(fp)
 1804624:	2804913a 	slli	r2,r5,4
 1804628:	10c5883a 	add	r2,r2,r3
 180462c:	10801004 	addi	r2,r2,64
 1804630:	11000015 	stw	r4,0(r2)
        flash->dev.region_info[i].region_size = 
 1804634:	e17ffe17 	ldw	r5,-8(fp)
 1804638:	e0bffe17 	ldw	r2,-8(fp)
 180463c:	e0ffff17 	ldw	r3,-4(fp)
 1804640:	1004913a 	slli	r2,r2,4
 1804644:	10c5883a 	add	r2,r2,r3
 1804648:	10800f04 	addi	r2,r2,60
 180464c:	11000017 	ldw	r4,0(r2)
 1804650:	e0bffe17 	ldw	r2,-8(fp)
 1804654:	e0ffff17 	ldw	r3,-4(fp)
 1804658:	1004913a 	slli	r2,r2,4
 180465c:	10c5883a 	add	r2,r2,r3
 1804660:	10801004 	addi	r2,r2,64
 1804664:	10800017 	ldw	r2,0(r2)
 1804668:	2089383a 	mul	r4,r4,r2
 180466c:	e0ffff17 	ldw	r3,-4(fp)
 1804670:	2804913a 	slli	r2,r5,4
 1804674:	10c5883a 	add	r2,r2,r3
 1804678:	10800e04 	addi	r2,r2,56
 180467c:	11000015 	stw	r4,0(r2)
                                    flash->dev.region_info[i].number_of_blocks 
                                    * flash->dev.region_info[i].block_size;
        size += flash->dev.region_info[i].region_size;
 1804680:	e0bffe17 	ldw	r2,-8(fp)
 1804684:	e0ffff17 	ldw	r3,-4(fp)
 1804688:	1004913a 	slli	r2,r2,4
 180468c:	10c5883a 	add	r2,r2,r3
 1804690:	10800e04 	addi	r2,r2,56
 1804694:	10c00017 	ldw	r3,0(r2)
 1804698:	e0bffa17 	ldw	r2,-24(fp)
 180469c:	10c5883a 	add	r2,r2,r3
 18046a0:	e0bffa15 	stw	r2,-24(fp)
    {
      ret_code = -ENOMEM;
    }
    else
    {
      for(i=0;i<flash->dev.number_of_regions;i++)
 18046a4:	e0bffe17 	ldw	r2,-8(fp)
 18046a8:	10800044 	addi	r2,r2,1
 18046ac:	e0bffe15 	stw	r2,-8(fp)
 18046b0:	e0bfff17 	ldw	r2,-4(fp)
 18046b4:	10c00c17 	ldw	r3,48(r2)
 18046b8:	e0bffe17 	ldw	r2,-8(fp)
 18046bc:	10ffa916 	blt	r2,r3,1804564 <alt_read_cfi_table+0x1c4>
                                    flash->dev.region_info[i].number_of_blocks 
                                    * flash->dev.region_info[i].block_size;
        size += flash->dev.region_info[i].region_size;
      }
       
      if (size != device_size)
 18046c0:	e0fffa17 	ldw	r3,-24(fp)
 18046c4:	e0bffc17 	ldw	r2,-16(fp)
 18046c8:	18800226 	beq	r3,r2,18046d4 <alt_read_cfi_table+0x334>
      {
        ret_code = -ENODEV;
 18046cc:	00bffb44 	movi	r2,-19
 18046d0:	e0bffb15 	stw	r2,-20(fp)
      }
    }
    
    boot_mode = (*flash->read_query)( flash, flash->primary_address + 0xf);
 18046d4:	e0bfff17 	ldw	r2,-4(fp)
 18046d8:	10c03417 	ldw	r3,208(r2)
 18046dc:	e0bfff17 	ldw	r2,-4(fp)
 18046e0:	10803217 	ldw	r2,200(r2)
 18046e4:	114003c4 	addi	r5,r2,15
 18046e8:	e13fff17 	ldw	r4,-4(fp)
 18046ec:	183ee83a 	callr	r3
 18046f0:	e0bff505 	stb	r2,-44(fp)
     * Intel Flash parts describe the sections in the order they appear
     * for AMD they just put all the small ones first then the bigger ones
     * So if it's a top boot part we have to reverse the order of the sectors
     * so they're in the correct order
     */
    if ((flash->algorithm == CFI_ALG_AMD) && (boot_mode == TOP_BOOT_DEVICE))
 18046f4:	e0bfff17 	ldw	r2,-4(fp)
 18046f8:	10802d17 	ldw	r2,180(r2)
 18046fc:	10800098 	cmpnei	r2,r2,2
 1804700:	1000601e 	bne	r2,zero,1804884 <alt_read_cfi_table+0x4e4>
 1804704:	e0bff503 	ldbu	r2,-44(fp)
 1804708:	108000d8 	cmpnei	r2,r2,3
 180470c:	10005d1e 	bne	r2,zero,1804884 <alt_read_cfi_table+0x4e4>
    {
      for(i=flash->dev.number_of_regions-1, j=0;
 1804710:	e0bfff17 	ldw	r2,-4(fp)
 1804714:	10800c17 	ldw	r2,48(r2)
 1804718:	10bfffc4 	addi	r2,r2,-1
 180471c:	e0bffe15 	stw	r2,-8(fp)
 1804720:	e03ffd15 	stw	zero,-12(fp)
          j<=i;i--,j++)
 1804724:	00005406 	br	1804878 <alt_read_cfi_table+0x4d8>
      {
        swap = flash->dev.region_info[i].region_size;
 1804728:	e0bffe17 	ldw	r2,-8(fp)
 180472c:	e0ffff17 	ldw	r3,-4(fp)
 1804730:	1004913a 	slli	r2,r2,4
 1804734:	10c5883a 	add	r2,r2,r3
 1804738:	10800e04 	addi	r2,r2,56
 180473c:	10800017 	ldw	r2,0(r2)
 1804740:	e0bff915 	stw	r2,-28(fp)
        flash->dev.region_info[i].region_size =  
 1804744:	e17ffe17 	ldw	r5,-8(fp)
 1804748:	e0bffd17 	ldw	r2,-12(fp)
 180474c:	e0ffff17 	ldw	r3,-4(fp)
 1804750:	1004913a 	slli	r2,r2,4
 1804754:	10c5883a 	add	r2,r2,r3
 1804758:	10800e04 	addi	r2,r2,56
 180475c:	11000017 	ldw	r4,0(r2)
 1804760:	e0ffff17 	ldw	r3,-4(fp)
 1804764:	2804913a 	slli	r2,r5,4
 1804768:	10c5883a 	add	r2,r2,r3
 180476c:	10800e04 	addi	r2,r2,56
 1804770:	11000015 	stw	r4,0(r2)
                                flash->dev.region_info[j].region_size;
        flash->dev.region_info[j].region_size = swap;
 1804774:	e0bffd17 	ldw	r2,-12(fp)
 1804778:	e0ffff17 	ldw	r3,-4(fp)
 180477c:	1004913a 	slli	r2,r2,4
 1804780:	10c5883a 	add	r2,r2,r3
 1804784:	10c00e04 	addi	r3,r2,56
 1804788:	e0bff917 	ldw	r2,-28(fp)
 180478c:	18800015 	stw	r2,0(r3)

        swap = flash->dev.region_info[i].block_size;
 1804790:	e0bffe17 	ldw	r2,-8(fp)
 1804794:	e0ffff17 	ldw	r3,-4(fp)
 1804798:	1004913a 	slli	r2,r2,4
 180479c:	10c5883a 	add	r2,r2,r3
 18047a0:	10801004 	addi	r2,r2,64
 18047a4:	10800017 	ldw	r2,0(r2)
 18047a8:	e0bff915 	stw	r2,-28(fp)
        flash->dev.region_info[i].block_size =  
 18047ac:	e17ffe17 	ldw	r5,-8(fp)
 18047b0:	e0bffd17 	ldw	r2,-12(fp)
 18047b4:	e0ffff17 	ldw	r3,-4(fp)
 18047b8:	1004913a 	slli	r2,r2,4
 18047bc:	10c5883a 	add	r2,r2,r3
 18047c0:	10801004 	addi	r2,r2,64
 18047c4:	11000017 	ldw	r4,0(r2)
 18047c8:	e0ffff17 	ldw	r3,-4(fp)
 18047cc:	2804913a 	slli	r2,r5,4
 18047d0:	10c5883a 	add	r2,r2,r3
 18047d4:	10801004 	addi	r2,r2,64
 18047d8:	11000015 	stw	r4,0(r2)
                                flash->dev.region_info[j].block_size;
        flash->dev.region_info[j].block_size = swap;
 18047dc:	e0bffd17 	ldw	r2,-12(fp)
 18047e0:	e0ffff17 	ldw	r3,-4(fp)
 18047e4:	1004913a 	slli	r2,r2,4
 18047e8:	10c5883a 	add	r2,r2,r3
 18047ec:	10c01004 	addi	r3,r2,64
 18047f0:	e0bff917 	ldw	r2,-28(fp)
 18047f4:	18800015 	stw	r2,0(r3)
 
        swap = flash->dev.region_info[i].number_of_blocks;
 18047f8:	e0bffe17 	ldw	r2,-8(fp)
 18047fc:	e0ffff17 	ldw	r3,-4(fp)
 1804800:	1004913a 	slli	r2,r2,4
 1804804:	10c5883a 	add	r2,r2,r3
 1804808:	10800f04 	addi	r2,r2,60
 180480c:	10800017 	ldw	r2,0(r2)
 1804810:	e0bff915 	stw	r2,-28(fp)
        flash->dev.region_info[i].number_of_blocks =  
 1804814:	e17ffe17 	ldw	r5,-8(fp)
 1804818:	e0bffd17 	ldw	r2,-12(fp)
 180481c:	e0ffff17 	ldw	r3,-4(fp)
 1804820:	1004913a 	slli	r2,r2,4
 1804824:	10c5883a 	add	r2,r2,r3
 1804828:	10800f04 	addi	r2,r2,60
 180482c:	11000017 	ldw	r4,0(r2)
 1804830:	e0ffff17 	ldw	r3,-4(fp)
 1804834:	2804913a 	slli	r2,r5,4
 1804838:	10c5883a 	add	r2,r2,r3
 180483c:	10800f04 	addi	r2,r2,60
 1804840:	11000015 	stw	r4,0(r2)
                                flash->dev.region_info[j].number_of_blocks;
        flash->dev.region_info[j].number_of_blocks = swap;
 1804844:	e0bffd17 	ldw	r2,-12(fp)
 1804848:	e0ffff17 	ldw	r3,-4(fp)
 180484c:	1004913a 	slli	r2,r2,4
 1804850:	10c5883a 	add	r2,r2,r3
 1804854:	10c00f04 	addi	r3,r2,60
 1804858:	e0bff917 	ldw	r2,-28(fp)
 180485c:	18800015 	stw	r2,0(r3)
     * so they're in the correct order
     */
    if ((flash->algorithm == CFI_ALG_AMD) && (boot_mode == TOP_BOOT_DEVICE))
    {
      for(i=flash->dev.number_of_regions-1, j=0;
          j<=i;i--,j++)
 1804860:	e0bffe17 	ldw	r2,-8(fp)
 1804864:	10bfffc4 	addi	r2,r2,-1
 1804868:	e0bffe15 	stw	r2,-8(fp)
 180486c:	e0bffd17 	ldw	r2,-12(fp)
 1804870:	10800044 	addi	r2,r2,1
 1804874:	e0bffd15 	stw	r2,-12(fp)
 1804878:	e0fffd17 	ldw	r3,-12(fp)
 180487c:	e0bffe17 	ldw	r2,-8(fp)
 1804880:	10ffa90e 	bge	r2,r3,1804728 <alt_read_cfi_table+0x388>
        flash->dev.region_info[j].number_of_blocks = swap;

      } 
    }
    
    for(i=0;i<flash->dev.number_of_regions;i++)
 1804884:	e03ffe15 	stw	zero,-8(fp)
 1804888:	00001306 	br	18048d8 <alt_read_cfi_table+0x538>
    {
      flash->dev.region_info[i].offset = offset;
 180488c:	e0bffe17 	ldw	r2,-8(fp)
 1804890:	e0ffff17 	ldw	r3,-4(fp)
 1804894:	1004913a 	slli	r2,r2,4
 1804898:	10c5883a 	add	r2,r2,r3
 180489c:	10c00d04 	addi	r3,r2,52
 18048a0:	e0bff617 	ldw	r2,-40(fp)
 18048a4:	18800015 	stw	r2,0(r3)
      offset += flash->dev.region_info[i].region_size;
 18048a8:	e0bffe17 	ldw	r2,-8(fp)
 18048ac:	e0ffff17 	ldw	r3,-4(fp)
 18048b0:	1004913a 	slli	r2,r2,4
 18048b4:	10c5883a 	add	r2,r2,r3
 18048b8:	10800e04 	addi	r2,r2,56
 18048bc:	10c00017 	ldw	r3,0(r2)
 18048c0:	e0bff617 	ldw	r2,-40(fp)
 18048c4:	10c5883a 	add	r2,r2,r3
 18048c8:	e0bff615 	stw	r2,-40(fp)
        flash->dev.region_info[j].number_of_blocks = swap;

      } 
    }
    
    for(i=0;i<flash->dev.number_of_regions;i++)
 18048cc:	e0bffe17 	ldw	r2,-8(fp)
 18048d0:	10800044 	addi	r2,r2,1
 18048d4:	e0bffe15 	stw	r2,-8(fp)
 18048d8:	e0bfff17 	ldw	r2,-4(fp)
 18048dc:	10c00c17 	ldw	r3,48(r2)
 18048e0:	e0bffe17 	ldw	r2,-8(fp)
 18048e4:	10ffe916 	blt	r2,r3,180488c <alt_read_cfi_table+0x4ec>
    {
      flash->dev.region_info[i].offset = offset;
      offset += flash->dev.region_info[i].region_size;
    }
    
    (*flash->write_command)(flash->dev.base_addr, 
 18048e8:	e0bfff17 	ldw	r2,-4(fp)
 18048ec:	10c03317 	ldw	r3,204(r2)
 18048f0:	e0bfff17 	ldw	r2,-4(fp)
 18048f4:	11000a17 	ldw	r4,40(r2)
 18048f8:	01401544 	movi	r5,85
 18048fc:	01803fc4 	movi	r6,255
 1804900:	183ee83a 	callr	r3
                            0x55, 
                            READ_ARRAY_MODE);
  }  

  return ret_code;
 1804904:	e0bffb17 	ldw	r2,-20(fp)
}
 1804908:	e037883a 	mov	sp,fp
 180490c:	dfc00217 	ldw	ra,8(sp)
 1804910:	df000117 	ldw	fp,4(sp)
 1804914:	dc000017 	ldw	r16,0(sp)
 1804918:	dec00304 	addi	sp,sp,12
 180491c:	f800283a 	ret

01804920 <alt_read_cfi_width>:
 * 
 * Work out the width of the device we're talking to and sanity check that we  
 * can read the CFI and the Primary Vendor specific Table
 */
int alt_read_cfi_width(alt_flash_cfi_dev* flash)
{
 1804920:	defff704 	addi	sp,sp,-36
 1804924:	dfc00815 	stw	ra,32(sp)
 1804928:	df000715 	stw	fp,28(sp)
 180492c:	df000704 	addi	fp,sp,28
 1804930:	e13fff15 	stw	r4,-4(fp)
  int i;
  alt_u8 byte_id[12];
  alt_u16 iface;
  int ret_code = 0;
 1804934:	e03ff915 	stw	zero,-28(fp)

  /*
  * Check for 8 bit wide flash
  */
  alt_write_flash_command_8bit_device_8bit_mode(flash->dev.base_addr, 0x55, QUERY_MODE);
 1804938:	e0bfff17 	ldw	r2,-4(fp)
 180493c:	11000a17 	ldw	r4,40(r2)
 1804940:	01401544 	movi	r5,85
 1804944:	01802604 	movi	r6,152
 1804948:	1803e2c0 	call	1803e2c <alt_write_flash_command_8bit_device_8bit_mode>

  for(i=0;i<3;i++)
 180494c:	e03ffb15 	stw	zero,-20(fp)
 1804950:	00000f06 	br	1804990 <alt_read_cfi_width+0x70>
  {
    byte_id[i] = IORD_8DIRECT(flash->dev.base_addr, QUERY_ADDR+i);
 1804954:	e13ffb17 	ldw	r4,-20(fp)
 1804958:	e0bfff17 	ldw	r2,-4(fp)
 180495c:	10800a17 	ldw	r2,40(r2)
 1804960:	1007883a 	mov	r3,r2
 1804964:	e0bffb17 	ldw	r2,-20(fp)
 1804968:	1885883a 	add	r2,r3,r2
 180496c:	10800404 	addi	r2,r2,16
 1804970:	10800023 	ldbuio	r2,0(r2)
 1804974:	1007883a 	mov	r3,r2
 1804978:	e0bffc04 	addi	r2,fp,-16
 180497c:	1105883a 	add	r2,r2,r4
 1804980:	10c00005 	stb	r3,0(r2)
  /*
  * Check for 8 bit wide flash
  */
  alt_write_flash_command_8bit_device_8bit_mode(flash->dev.base_addr, 0x55, QUERY_MODE);

  for(i=0;i<3;i++)
 1804984:	e0bffb17 	ldw	r2,-20(fp)
 1804988:	10800044 	addi	r2,r2,1
 180498c:	e0bffb15 	stw	r2,-20(fp)
 1804990:	e0bffb17 	ldw	r2,-20(fp)
 1804994:	108000d0 	cmplti	r2,r2,3
 1804998:	103fee1e 	bne	r2,zero,1804954 <alt_read_cfi_width+0x34>
  {
    byte_id[i] = IORD_8DIRECT(flash->dev.base_addr, QUERY_ADDR+i);
  }

  if ((byte_id[0] == 'Q') &&
 180499c:	e0bffc03 	ldbu	r2,-16(fp)
 18049a0:	10803fcc 	andi	r2,r2,255
 18049a4:	10801458 	cmpnei	r2,r2,81
 18049a8:	10001d1e 	bne	r2,zero,1804a20 <alt_read_cfi_width+0x100>
 18049ac:	e0bffc43 	ldbu	r2,-15(fp)
 18049b0:	10803fcc 	andi	r2,r2,255
 18049b4:	10801498 	cmpnei	r2,r2,82
 18049b8:	1000191e 	bne	r2,zero,1804a20 <alt_read_cfi_width+0x100>
 18049bc:	e0bffc83 	ldbu	r2,-14(fp)
 18049c0:	10803fcc 	andi	r2,r2,255
 18049c4:	10801658 	cmpnei	r2,r2,89
 18049c8:	1000151e 	bne	r2,zero,1804a20 <alt_read_cfi_width+0x100>
      (byte_id[1] == 'R') &&
      (byte_id[2] == 'Y'))
  {
    flash->mode_width = 1;
 18049cc:	e0ffff17 	ldw	r3,-4(fp)
 18049d0:	00800044 	movi	r2,1
 18049d4:	18802e15 	stw	r2,184(r3)
    flash->device_width = 1; 
 18049d8:	e0ffff17 	ldw	r3,-4(fp)
 18049dc:	00800044 	movi	r2,1
 18049e0:	18802f15 	stw	r2,188(r3)
    iface = IORD_16DIRECT(flash->dev.base_addr, INTERFACE_ADDR);
 18049e4:	e0bfff17 	ldw	r2,-4(fp)
 18049e8:	10800a17 	ldw	r2,40(r2)
 18049ec:	10800a04 	addi	r2,r2,40
 18049f0:	1080002b 	ldhuio	r2,0(r2)
 18049f4:	e0bffa0d 	sth	r2,-24(fp)
    iface += 1;
 18049f8:	e0bffa0b 	ldhu	r2,-24(fp)
 18049fc:	10800044 	addi	r2,r2,1
 1804a00:	e0bffa0d 	sth	r2,-24(fp)
    if (!(iface & 0x1))
 1804a04:	e0bffa0b 	ldhu	r2,-24(fp)
 1804a08:	1080004c 	andi	r2,r2,1
 1804a0c:	1004c03a 	cmpne	r2,r2,zero
 1804a10:	1001a81e 	bne	r2,zero,18050b4 <alt_read_cfi_width+0x794>
    {
      ret_code = -ENODEV;
 1804a14:	00bffb44 	movi	r2,-19
 1804a18:	e0bff915 	stw	r2,-28(fp)
  for(i=0;i<3;i++)
  {
    byte_id[i] = IORD_8DIRECT(flash->dev.base_addr, QUERY_ADDR+i);
  }

  if ((byte_id[0] == 'Q') &&
 1804a1c:	0001a506 	br	18050b4 <alt_read_cfi_width+0x794>
  else
  {
    /*
    * Check for 8/16 bit in byte wide mode
    */
    alt_write_flash_command_16bit_device_8bit_mode(flash->dev.base_addr, 0x55, QUERY_MODE);
 1804a20:	e0bfff17 	ldw	r2,-4(fp)
 1804a24:	11000a17 	ldw	r4,40(r2)
 1804a28:	01401544 	movi	r5,85
 1804a2c:	01802604 	movi	r6,152
 1804a30:	1803e680 	call	1803e68 <alt_write_flash_command_16bit_device_8bit_mode>
    for(i=0;i<6;i++)
 1804a34:	e03ffb15 	stw	zero,-20(fp)
 1804a38:	00000f06 	br	1804a78 <alt_read_cfi_width+0x158>
    {
      byte_id[i] = IORD_8DIRECT(flash->dev.base_addr, (QUERY_ADDR*2)+i);
 1804a3c:	e13ffb17 	ldw	r4,-20(fp)
 1804a40:	e0bfff17 	ldw	r2,-4(fp)
 1804a44:	10800a17 	ldw	r2,40(r2)
 1804a48:	1007883a 	mov	r3,r2
 1804a4c:	e0bffb17 	ldw	r2,-20(fp)
 1804a50:	1885883a 	add	r2,r3,r2
 1804a54:	10800804 	addi	r2,r2,32
 1804a58:	10800023 	ldbuio	r2,0(r2)
 1804a5c:	1007883a 	mov	r3,r2
 1804a60:	e0bffc04 	addi	r2,fp,-16
 1804a64:	1105883a 	add	r2,r2,r4
 1804a68:	10c00005 	stb	r3,0(r2)
  {
    /*
    * Check for 8/16 bit in byte wide mode
    */
    alt_write_flash_command_16bit_device_8bit_mode(flash->dev.base_addr, 0x55, QUERY_MODE);
    for(i=0;i<6;i++)
 1804a6c:	e0bffb17 	ldw	r2,-20(fp)
 1804a70:	10800044 	addi	r2,r2,1
 1804a74:	e0bffb15 	stw	r2,-20(fp)
 1804a78:	e0bffb17 	ldw	r2,-20(fp)
 1804a7c:	10800190 	cmplti	r2,r2,6
 1804a80:	103fee1e 	bne	r2,zero,1804a3c <alt_read_cfi_width+0x11c>
    {
      byte_id[i] = IORD_8DIRECT(flash->dev.base_addr, (QUERY_ADDR*2)+i);
    }

    if ((byte_id[0] == 'Q') && 
 1804a84:	e0bffc03 	ldbu	r2,-16(fp)
 1804a88:	10803fcc 	andi	r2,r2,255
 1804a8c:	10801458 	cmpnei	r2,r2,81
 1804a90:	1000291e 	bne	r2,zero,1804b38 <alt_read_cfi_width+0x218>
 1804a94:	e0bffc43 	ldbu	r2,-15(fp)
 1804a98:	10803fcc 	andi	r2,r2,255
 1804a9c:	10801458 	cmpnei	r2,r2,81
 1804aa0:	1000251e 	bne	r2,zero,1804b38 <alt_read_cfi_width+0x218>
 1804aa4:	e0bffc83 	ldbu	r2,-14(fp)
 1804aa8:	10803fcc 	andi	r2,r2,255
 1804aac:	10801498 	cmpnei	r2,r2,82
 1804ab0:	1000211e 	bne	r2,zero,1804b38 <alt_read_cfi_width+0x218>
 1804ab4:	e0bffcc3 	ldbu	r2,-13(fp)
 1804ab8:	10803fcc 	andi	r2,r2,255
 1804abc:	10801498 	cmpnei	r2,r2,82
 1804ac0:	10001d1e 	bne	r2,zero,1804b38 <alt_read_cfi_width+0x218>
 1804ac4:	e0bffd03 	ldbu	r2,-12(fp)
 1804ac8:	10803fcc 	andi	r2,r2,255
 1804acc:	10801658 	cmpnei	r2,r2,89
 1804ad0:	1000191e 	bne	r2,zero,1804b38 <alt_read_cfi_width+0x218>
 1804ad4:	e0bffd43 	ldbu	r2,-11(fp)
 1804ad8:	10803fcc 	andi	r2,r2,255
 1804adc:	10801658 	cmpnei	r2,r2,89
 1804ae0:	1000151e 	bne	r2,zero,1804b38 <alt_read_cfi_width+0x218>
        (byte_id[2] == 'R') &&
        (byte_id[3] == 'R') && 
        (byte_id[4] == 'Y') && 
        (byte_id[5] == 'Y'))
    {
      flash->mode_width = 1;
 1804ae4:	e0ffff17 	ldw	r3,-4(fp)
 1804ae8:	00800044 	movi	r2,1
 1804aec:	18802e15 	stw	r2,184(r3)
      flash->device_width = 2; 
 1804af0:	e0ffff17 	ldw	r3,-4(fp)
 1804af4:	00800084 	movi	r2,2
 1804af8:	18802f15 	stw	r2,188(r3)
      iface = IORD_16DIRECT(flash->dev.base_addr, INTERFACE_ADDR*2);
 1804afc:	e0bfff17 	ldw	r2,-4(fp)
 1804b00:	10800a17 	ldw	r2,40(r2)
 1804b04:	10801404 	addi	r2,r2,80
 1804b08:	1080002b 	ldhuio	r2,0(r2)
 1804b0c:	e0bffa0d 	sth	r2,-24(fp)
      iface += 1;
 1804b10:	e0bffa0b 	ldhu	r2,-24(fp)
 1804b14:	10800044 	addi	r2,r2,1
 1804b18:	e0bffa0d 	sth	r2,-24(fp)
      if (!(iface & 0x1))
 1804b1c:	e0bffa0b 	ldhu	r2,-24(fp)
 1804b20:	1080004c 	andi	r2,r2,1
 1804b24:	1004c03a 	cmpne	r2,r2,zero
 1804b28:	1001621e 	bne	r2,zero,18050b4 <alt_read_cfi_width+0x794>
      {
        ret_code = -ENODEV;
 1804b2c:	00bffb44 	movi	r2,-19
 1804b30:	e0bff915 	stw	r2,-28(fp)
    for(i=0;i<6;i++)
    {
      byte_id[i] = IORD_8DIRECT(flash->dev.base_addr, (QUERY_ADDR*2)+i);
    }

    if ((byte_id[0] == 'Q') && 
 1804b34:	00015f06 	br	18050b4 <alt_read_cfi_width+0x794>
    else
    {
      /*
      * Check for 16 bit flash in word mode
      */
      alt_write_flash_command_16bit_device_16bit_mode(flash->dev.base_addr, 0x55, QUERY_MODE);
 1804b38:	e0bfff17 	ldw	r2,-4(fp)
 1804b3c:	11000a17 	ldw	r4,40(r2)
 1804b40:	01401544 	movi	r5,85
 1804b44:	01802604 	movi	r6,152
 1804b48:	1803f2c0 	call	1803f2c <alt_write_flash_command_16bit_device_16bit_mode>
      for(i=0;i<6;i++)
 1804b4c:	e03ffb15 	stw	zero,-20(fp)
 1804b50:	00000f06 	br	1804b90 <alt_read_cfi_width+0x270>
      {
        byte_id[i] = IORD_8DIRECT(flash->dev.base_addr, (QUERY_ADDR*2)+i);
 1804b54:	e13ffb17 	ldw	r4,-20(fp)
 1804b58:	e0bfff17 	ldw	r2,-4(fp)
 1804b5c:	10800a17 	ldw	r2,40(r2)
 1804b60:	1007883a 	mov	r3,r2
 1804b64:	e0bffb17 	ldw	r2,-20(fp)
 1804b68:	1885883a 	add	r2,r3,r2
 1804b6c:	10800804 	addi	r2,r2,32
 1804b70:	10800023 	ldbuio	r2,0(r2)
 1804b74:	1007883a 	mov	r3,r2
 1804b78:	e0bffc04 	addi	r2,fp,-16
 1804b7c:	1105883a 	add	r2,r2,r4
 1804b80:	10c00005 	stb	r3,0(r2)
    {
      /*
      * Check for 16 bit flash in word mode
      */
      alt_write_flash_command_16bit_device_16bit_mode(flash->dev.base_addr, 0x55, QUERY_MODE);
      for(i=0;i<6;i++)
 1804b84:	e0bffb17 	ldw	r2,-20(fp)
 1804b88:	10800044 	addi	r2,r2,1
 1804b8c:	e0bffb15 	stw	r2,-20(fp)
 1804b90:	e0bffb17 	ldw	r2,-20(fp)
 1804b94:	10800190 	cmplti	r2,r2,6
 1804b98:	103fee1e 	bne	r2,zero,1804b54 <alt_read_cfi_width+0x234>
      {
        byte_id[i] = IORD_8DIRECT(flash->dev.base_addr, (QUERY_ADDR*2)+i);
      }

      if ((byte_id[0] == 'Q') && 
 1804b9c:	e0bffc03 	ldbu	r2,-16(fp)
 1804ba0:	10803fcc 	andi	r2,r2,255
 1804ba4:	10801458 	cmpnei	r2,r2,81
 1804ba8:	1000291e 	bne	r2,zero,1804c50 <alt_read_cfi_width+0x330>
 1804bac:	e0bffc43 	ldbu	r2,-15(fp)
 1804bb0:	10803fcc 	andi	r2,r2,255
 1804bb4:	1004c03a 	cmpne	r2,r2,zero
 1804bb8:	1000251e 	bne	r2,zero,1804c50 <alt_read_cfi_width+0x330>
 1804bbc:	e0bffc83 	ldbu	r2,-14(fp)
 1804bc0:	10803fcc 	andi	r2,r2,255
 1804bc4:	10801498 	cmpnei	r2,r2,82
 1804bc8:	1000211e 	bne	r2,zero,1804c50 <alt_read_cfi_width+0x330>
 1804bcc:	e0bffcc3 	ldbu	r2,-13(fp)
 1804bd0:	10803fcc 	andi	r2,r2,255
 1804bd4:	1004c03a 	cmpne	r2,r2,zero
 1804bd8:	10001d1e 	bne	r2,zero,1804c50 <alt_read_cfi_width+0x330>
 1804bdc:	e0bffd03 	ldbu	r2,-12(fp)
 1804be0:	10803fcc 	andi	r2,r2,255
 1804be4:	10801658 	cmpnei	r2,r2,89
 1804be8:	1000191e 	bne	r2,zero,1804c50 <alt_read_cfi_width+0x330>
 1804bec:	e0bffd43 	ldbu	r2,-11(fp)
 1804bf0:	10803fcc 	andi	r2,r2,255
 1804bf4:	1004c03a 	cmpne	r2,r2,zero
 1804bf8:	1000151e 	bne	r2,zero,1804c50 <alt_read_cfi_width+0x330>
          (byte_id[2] == 'R') && 
          (byte_id[3] == '\0') && 
          (byte_id[4] == 'Y') && 
          (byte_id[5] == '\0'))
      {
        flash->mode_width = 2;
 1804bfc:	e0ffff17 	ldw	r3,-4(fp)
 1804c00:	00800084 	movi	r2,2
 1804c04:	18802e15 	stw	r2,184(r3)
        flash->device_width = 2; 
 1804c08:	e0ffff17 	ldw	r3,-4(fp)
 1804c0c:	00800084 	movi	r2,2
 1804c10:	18802f15 	stw	r2,188(r3)
        iface = IORD_16DIRECT(flash->dev.base_addr, INTERFACE_ADDR*2);
 1804c14:	e0bfff17 	ldw	r2,-4(fp)
 1804c18:	10800a17 	ldw	r2,40(r2)
 1804c1c:	10801404 	addi	r2,r2,80
 1804c20:	1080002b 	ldhuio	r2,0(r2)
 1804c24:	e0bffa0d 	sth	r2,-24(fp)
        iface += 1;
 1804c28:	e0bffa0b 	ldhu	r2,-24(fp)
 1804c2c:	10800044 	addi	r2,r2,1
 1804c30:	e0bffa0d 	sth	r2,-24(fp)
        if (!(iface & 0x2))
 1804c34:	e0bffa0b 	ldhu	r2,-24(fp)
 1804c38:	1080008c 	andi	r2,r2,2
 1804c3c:	1004c03a 	cmpne	r2,r2,zero
 1804c40:	10011c1e 	bne	r2,zero,18050b4 <alt_read_cfi_width+0x794>
        {
          ret_code = -ENODEV;
 1804c44:	00bffb44 	movi	r2,-19
 1804c48:	e0bff915 	stw	r2,-28(fp)
      for(i=0;i<6;i++)
      {
        byte_id[i] = IORD_8DIRECT(flash->dev.base_addr, (QUERY_ADDR*2)+i);
      }

      if ((byte_id[0] == 'Q') && 
 1804c4c:	00011906 	br	18050b4 <alt_read_cfi_width+0x794>
      else
      {
        /*
        * Check for 32bit wide flash in 32 bit mode
        */
        alt_write_flash_command_32bit_device_32bit_mode(flash->dev.base_addr, 0x55, QUERY_MODE);
 1804c50:	e0bfff17 	ldw	r2,-4(fp)
 1804c54:	11000a17 	ldw	r4,40(r2)
 1804c58:	01401544 	movi	r5,85
 1804c5c:	01802604 	movi	r6,152
 1804c60:	1803fb80 	call	1803fb8 <alt_write_flash_command_32bit_device_32bit_mode>
        for(i=0;i<12;i++)
 1804c64:	e03ffb15 	stw	zero,-20(fp)
 1804c68:	00000f06 	br	1804ca8 <alt_read_cfi_width+0x388>
        {
          byte_id[i] = IORD_8DIRECT(flash->dev.base_addr, (QUERY_ADDR*4)+i);
 1804c6c:	e13ffb17 	ldw	r4,-20(fp)
 1804c70:	e0bfff17 	ldw	r2,-4(fp)
 1804c74:	10800a17 	ldw	r2,40(r2)
 1804c78:	1007883a 	mov	r3,r2
 1804c7c:	e0bffb17 	ldw	r2,-20(fp)
 1804c80:	1885883a 	add	r2,r3,r2
 1804c84:	10801004 	addi	r2,r2,64
 1804c88:	10800023 	ldbuio	r2,0(r2)
 1804c8c:	1007883a 	mov	r3,r2
 1804c90:	e0bffc04 	addi	r2,fp,-16
 1804c94:	1105883a 	add	r2,r2,r4
 1804c98:	10c00005 	stb	r3,0(r2)
      {
        /*
        * Check for 32bit wide flash in 32 bit mode
        */
        alt_write_flash_command_32bit_device_32bit_mode(flash->dev.base_addr, 0x55, QUERY_MODE);
        for(i=0;i<12;i++)
 1804c9c:	e0bffb17 	ldw	r2,-20(fp)
 1804ca0:	10800044 	addi	r2,r2,1
 1804ca4:	e0bffb15 	stw	r2,-20(fp)
 1804ca8:	e0bffb17 	ldw	r2,-20(fp)
 1804cac:	10800310 	cmplti	r2,r2,12
 1804cb0:	103fee1e 	bne	r2,zero,1804c6c <alt_read_cfi_width+0x34c>
        {
          byte_id[i] = IORD_8DIRECT(flash->dev.base_addr, (QUERY_ADDR*4)+i);
        }

        if ((byte_id[0] == 'Q') &&
 1804cb4:	e0bffc03 	ldbu	r2,-16(fp)
 1804cb8:	10803fcc 	andi	r2,r2,255
 1804cbc:	10801458 	cmpnei	r2,r2,81
 1804cc0:	1000411e 	bne	r2,zero,1804dc8 <alt_read_cfi_width+0x4a8>
 1804cc4:	e0bffc43 	ldbu	r2,-15(fp)
 1804cc8:	10803fcc 	andi	r2,r2,255
 1804ccc:	1004c03a 	cmpne	r2,r2,zero
 1804cd0:	10003d1e 	bne	r2,zero,1804dc8 <alt_read_cfi_width+0x4a8>
 1804cd4:	e0bffc83 	ldbu	r2,-14(fp)
 1804cd8:	10803fcc 	andi	r2,r2,255
 1804cdc:	1004c03a 	cmpne	r2,r2,zero
 1804ce0:	1000391e 	bne	r2,zero,1804dc8 <alt_read_cfi_width+0x4a8>
 1804ce4:	e0bffcc3 	ldbu	r2,-13(fp)
 1804ce8:	10803fcc 	andi	r2,r2,255
 1804cec:	1004c03a 	cmpne	r2,r2,zero
 1804cf0:	1000351e 	bne	r2,zero,1804dc8 <alt_read_cfi_width+0x4a8>
 1804cf4:	e0bffd03 	ldbu	r2,-12(fp)
 1804cf8:	10803fcc 	andi	r2,r2,255
 1804cfc:	10801498 	cmpnei	r2,r2,82
 1804d00:	1000311e 	bne	r2,zero,1804dc8 <alt_read_cfi_width+0x4a8>
 1804d04:	e0bffd43 	ldbu	r2,-11(fp)
 1804d08:	10803fcc 	andi	r2,r2,255
 1804d0c:	1004c03a 	cmpne	r2,r2,zero
 1804d10:	10002d1e 	bne	r2,zero,1804dc8 <alt_read_cfi_width+0x4a8>
 1804d14:	e0bffd83 	ldbu	r2,-10(fp)
 1804d18:	10803fcc 	andi	r2,r2,255
 1804d1c:	1004c03a 	cmpne	r2,r2,zero
