Archive member included because of file (symbol)

c:/altera/12.0sp2/nios2eds/bin/gnu/h-i686-mingw32/bin/../lib/gcc/nios2-elf/4.1.2/../../../../nios2-elf/lib\libm.a(lib_a-s_cos.o)
                              obj/default/IK.o (cos)
c:/altera/12.0sp2/nios2eds/bin/gnu/h-i686-mingw32/bin/../lib/gcc/nios2-elf/4.1.2/../../../../nios2-elf/lib\libm.a(lib_a-s_round.o)
                              obj/default/pwm.o (round)
c:/altera/12.0sp2/nios2eds/bin/gnu/h-i686-mingw32/bin/../lib/gcc/nios2-elf/4.1.2/../../../../nios2-elf/lib\libm.a(lib_a-s_sin.o)
                              obj/default/IK.o (sin)
c:/altera/12.0sp2/nios2eds/bin/gnu/h-i686-mingw32/bin/../lib/gcc/nios2-elf/4.1.2/../../../../nios2-elf/lib\libm.a(lib_a-w_atan2.o)
                              obj/default/IK.o (atan2)
c:/altera/12.0sp2/nios2eds/bin/gnu/h-i686-mingw32/bin/../lib/gcc/nios2-elf/4.1.2/../../../../nios2-elf/lib\libm.a(lib_a-w_sqrt.o)
                              obj/default/IK.o (sqrt)
c:/altera/12.0sp2/nios2eds/bin/gnu/h-i686-mingw32/bin/../lib/gcc/nios2-elf/4.1.2/../../../../nios2-elf/lib\libm.a(lib_a-e_atan2.o)
                              c:/altera/12.0sp2/nios2eds/bin/gnu/h-i686-mingw32/bin/../lib/gcc/nios2-elf/4.1.2/../../../../nios2-elf/lib\libm.a(lib_a-w_atan2.o) (__ieee754_atan2)
c:/altera/12.0sp2/nios2eds/bin/gnu/h-i686-mingw32/bin/../lib/gcc/nios2-elf/4.1.2/../../../../nios2-elf/lib\libm.a(lib_a-e_rem_pio2.o)
                              c:/altera/12.0sp2/nios2eds/bin/gnu/h-i686-mingw32/bin/../lib/gcc/nios2-elf/4.1.2/../../../../nios2-elf/lib\libm.a(lib_a-s_cos.o) (__ieee754_rem_pio2)
c:/altera/12.0sp2/nios2eds/bin/gnu/h-i686-mingw32/bin/../lib/gcc/nios2-elf/4.1.2/../../../../nios2-elf/lib\libm.a(lib_a-e_sqrt.o)
                              c:/altera/12.0sp2/nios2eds/bin/gnu/h-i686-mingw32/bin/../lib/gcc/nios2-elf/4.1.2/../../../../nios2-elf/lib\libm.a(lib_a-w_sqrt.o) (__ieee754_sqrt)
c:/altera/12.0sp2/nios2eds/bin/gnu/h-i686-mingw32/bin/../lib/gcc/nios2-elf/4.1.2/../../../../nios2-elf/lib\libm.a(lib_a-k_cos.o)
                              c:/altera/12.0sp2/nios2eds/bin/gnu/h-i686-mingw32/bin/../lib/gcc/nios2-elf/4.1.2/../../../../nios2-elf/lib\libm.a(lib_a-s_cos.o) (__kernel_cos)
c:/altera/12.0sp2/nios2eds/bin/gnu/h-i686-mingw32/bin/../lib/gcc/nios2-elf/4.1.2/../../../../nios2-elf/lib\libm.a(lib_a-k_rem_pio2.o)
                              c:/altera/12.0sp2/nios2eds/bin/gnu/h-i686-mingw32/bin/../lib/gcc/nios2-elf/4.1.2/../../../../nios2-elf/lib\libm.a(lib_a-e_rem_pio2.o) (__kernel_rem_pio2)
c:/altera/12.0sp2/nios2eds/bin/gnu/h-i686-mingw32/bin/../lib/gcc/nios2-elf/4.1.2/../../../../nios2-elf/lib\libm.a(lib_a-k_sin.o)
                              c:/altera/12.0sp2/nios2eds/bin/gnu/h-i686-mingw32/bin/../lib/gcc/nios2-elf/4.1.2/../../../../nios2-elf/lib\libm.a(lib_a-s_cos.o) (__kernel_sin)
c:/altera/12.0sp2/nios2eds/bin/gnu/h-i686-mingw32/bin/../lib/gcc/nios2-elf/4.1.2/../../../../nios2-elf/lib\libm.a(lib_a-s_atan.o)
                              c:/altera/12.0sp2/nios2eds/bin/gnu/h-i686-mingw32/bin/../lib/gcc/nios2-elf/4.1.2/../../../../nios2-elf/lib\libm.a(lib_a-e_atan2.o) (atan)
c:/altera/12.0sp2/nios2eds/bin/gnu/h-i686-mingw32/bin/../lib/gcc/nios2-elf/4.1.2/../../../../nios2-elf/lib\libm.a(lib_a-s_fabs.o)
                              c:/altera/12.0sp2/nios2eds/bin/gnu/h-i686-mingw32/bin/../lib/gcc/nios2-elf/4.1.2/../../../../nios2-elf/lib\libm.a(lib_a-e_atan2.o) (fabs)
c:/altera/12.0sp2/nios2eds/bin/gnu/h-i686-mingw32/bin/../lib/gcc/nios2-elf/4.1.2/../../../../nios2-elf/lib\libm.a(lib_a-s_floor.o)
                              c:/altera/12.0sp2/nios2eds/bin/gnu/h-i686-mingw32/bin/../lib/gcc/nios2-elf/4.1.2/../../../../nios2-elf/lib\libm.a(lib_a-k_rem_pio2.o) (floor)
c:/altera/12.0sp2/nios2eds/bin/gnu/h-i686-mingw32/bin/../lib/gcc/nios2-elf/4.1.2/../../../../nios2-elf/lib\libm.a(lib_a-s_isnand.o)
                              c:/altera/12.0sp2/nios2eds/bin/gnu/h-i686-mingw32/bin/../lib/gcc/nios2-elf/4.1.2/../../../../nios2-elf/lib\libm.a(lib_a-w_sqrt.o) (__isnand)
c:/altera/12.0sp2/nios2eds/bin/gnu/h-i686-mingw32/bin/../lib/gcc/nios2-elf/4.1.2/../../../../nios2-elf/lib\libm.a(lib_a-s_lib_ver.o)
                              c:/altera/12.0sp2/nios2eds/bin/gnu/h-i686-mingw32/bin/../lib/gcc/nios2-elf/4.1.2/../../../../nios2-elf/lib\libm.a(lib_a-w_sqrt.o) (__fdlib_version)
c:/altera/12.0sp2/nios2eds/bin/gnu/h-i686-mingw32/bin/../lib/gcc/nios2-elf/4.1.2/../../../../nios2-elf/lib\libm.a(lib_a-s_matherr.o)
                              c:/altera/12.0sp2/nios2eds/bin/gnu/h-i686-mingw32/bin/../lib/gcc/nios2-elf/4.1.2/../../../../nios2-elf/lib\libm.a(lib_a-w_sqrt.o) (matherr)
c:/altera/12.0sp2/nios2eds/bin/gnu/h-i686-mingw32/bin/../lib/gcc/nios2-elf/4.1.2/../../../../nios2-elf/lib\libm.a(lib_a-s_scalbn.o)
                              c:/altera/12.0sp2/nios2eds/bin/gnu/h-i686-mingw32/bin/../lib/gcc/nios2-elf/4.1.2/../../../../nios2-elf/lib\libm.a(lib_a-k_rem_pio2.o) (scalbn)
c:/altera/12.0sp2/nios2eds/bin/gnu/h-i686-mingw32/bin/../lib/gcc/nios2-elf/4.1.2/../../../../nios2-elf/lib\libm.a(lib_a-s_copysign.o)
                              c:/altera/12.0sp2/nios2eds/bin/gnu/h-i686-mingw32/bin/../lib/gcc/nios2-elf/4.1.2/../../../../nios2-elf/lib\libm.a(lib_a-s_scalbn.o) (copysign)
c:/altera/12.0sp2/nios2eds/bin/gnu/h-i686-mingw32/bin/../lib/gcc/nios2-elf/4.1.2\libgcc.a(_div_sf.o)
                              obj/default/IK.o (__divsf3)
c:/altera/12.0sp2/nios2eds/bin/gnu/h-i686-mingw32/bin/../lib/gcc/nios2-elf/4.1.2\libgcc.a(_si_to_sf.o)
                              obj/default/hello_ucosii.o (__floatsisf)
c:/altera/12.0sp2/nios2eds/bin/gnu/h-i686-mingw32/bin/../lib/gcc/nios2-elf/4.1.2\libgcc.a(_sf_to_df.o)
                              obj/default/IK.o (__extendsfdf2)
c:/altera/12.0sp2/nios2eds/bin/gnu/h-i686-mingw32/bin/../lib/gcc/nios2-elf/4.1.2\libgcc.a(_thenan_sf.o)
                              c:/altera/12.0sp2/nios2eds/bin/gnu/h-i686-mingw32/bin/../lib/gcc/nios2-elf/4.1.2\libgcc.a(_div_sf.o) (__thenan_sf)
c:/altera/12.0sp2/nios2eds/bin/gnu/h-i686-mingw32/bin/../lib/gcc/nios2-elf/4.1.2\libgcc.a(_addsub_df.o)
                              obj/default/IK.o (__subdf3)
c:/altera/12.0sp2/nios2eds/bin/gnu/h-i686-mingw32/bin/../lib/gcc/nios2-elf/4.1.2\libgcc.a(_mul_df.o)
                              obj/default/IK.o (__muldf3)
c:/altera/12.0sp2/nios2eds/bin/gnu/h-i686-mingw32/bin/../lib/gcc/nios2-elf/4.1.2\libgcc.a(_div_df.o)
                              obj/default/IK.o (__divdf3)
c:/altera/12.0sp2/nios2eds/bin/gnu/h-i686-mingw32/bin/../lib/gcc/nios2-elf/4.1.2\libgcc.a(_eq_df.o)
                              c:/altera/12.0sp2/nios2eds/bin/gnu/h-i686-mingw32/bin/../lib/gcc/nios2-elf/4.1.2/../../../../nios2-elf/lib\libm.a(lib_a-e_rem_pio2.o) (__eqdf2)
c:/altera/12.0sp2/nios2eds/bin/gnu/h-i686-mingw32/bin/../lib/gcc/nios2-elf/4.1.2\libgcc.a(_gt_df.o)
                              c:/altera/12.0sp2/nios2eds/bin/gnu/h-i686-mingw32/bin/../lib/gcc/nios2-elf/4.1.2/../../../../nios2-elf/lib\libm.a(lib_a-s_atan.o) (__gtdf2)
c:/altera/12.0sp2/nios2eds/bin/gnu/h-i686-mingw32/bin/../lib/gcc/nios2-elf/4.1.2\libgcc.a(_ge_df.o)
                              c:/altera/12.0sp2/nios2eds/bin/gnu/h-i686-mingw32/bin/../lib/gcc/nios2-elf/4.1.2/../../../../nios2-elf/lib\libm.a(lib_a-k_rem_pio2.o) (__gedf2)
c:/altera/12.0sp2/nios2eds/bin/gnu/h-i686-mingw32/bin/../lib/gcc/nios2-elf/4.1.2\libgcc.a(_lt_df.o)
                              c:/altera/12.0sp2/nios2eds/bin/gnu/h-i686-mingw32/bin/../lib/gcc/nios2-elf/4.1.2/../../../../nios2-elf/lib\libm.a(lib_a-w_sqrt.o) (__ltdf2)
c:/altera/12.0sp2/nios2eds/bin/gnu/h-i686-mingw32/bin/../lib/gcc/nios2-elf/4.1.2\libgcc.a(_si_to_df.o)
                              c:/altera/12.0sp2/nios2eds/bin/gnu/h-i686-mingw32/bin/../lib/gcc/nios2-elf/4.1.2/../../../../nios2-elf/lib\libm.a(lib_a-e_rem_pio2.o) (__floatsidf)
c:/altera/12.0sp2/nios2eds/bin/gnu/h-i686-mingw32/bin/../lib/gcc/nios2-elf/4.1.2\libgcc.a(_df_to_si.o)
                              obj/default/pwm.o (__fixdfsi)
c:/altera/12.0sp2/nios2eds/bin/gnu/h-i686-mingw32/bin/../lib/gcc/nios2-elf/4.1.2\libgcc.a(_make_df.o)
                              c:/altera/12.0sp2/nios2eds/bin/gnu/h-i686-mingw32/bin/../lib/gcc/nios2-elf/4.1.2\libgcc.a(_sf_to_df.o) (__make_dp)
c:/altera/12.0sp2/nios2eds/bin/gnu/h-i686-mingw32/bin/../lib/gcc/nios2-elf/4.1.2\libgcc.a(_df_to_sf.o)
                              obj/default/IK.o (__truncdfsf2)
c:/altera/12.0sp2/nios2eds/bin/gnu/h-i686-mingw32/bin/../lib/gcc/nios2-elf/4.1.2\libgcc.a(_thenan_df.o)
                              c:/altera/12.0sp2/nios2eds/bin/gnu/h-i686-mingw32/bin/../lib/gcc/nios2-elf/4.1.2\libgcc.a(_addsub_df.o) (__thenan_df)
c:/altera/12.0sp2/nios2eds/bin/gnu/h-i686-mingw32/bin/../lib/gcc/nios2-elf/4.1.2\libgcc.a(lib2-divmod.o)
                              c:/altera/12.0sp2/nios2eds/bin/gnu/h-i686-mingw32/bin/../lib/gcc/nios2-elf/4.1.2/../../../../nios2-elf/lib\libm.a(lib_a-k_rem_pio2.o) (__divsi3)
c:/altera/12.0sp2/nios2eds/bin/gnu/h-i686-mingw32/bin/../lib/gcc/nios2-elf/4.1.2\libgcc.a(_muldi3.o)
                              c:/altera/12.0sp2/nios2eds/bin/gnu/h-i686-mingw32/bin/../lib/gcc/nios2-elf/4.1.2\libgcc.a(_mul_df.o) (__muldi3)
c:/altera/12.0sp2/nios2eds/bin/gnu/h-i686-mingw32/bin/../lib/gcc/nios2-elf/4.1.2\libgcc.a(_clzsi2.o)
                              c:/altera/12.0sp2/nios2eds/bin/gnu/h-i686-mingw32/bin/../lib/gcc/nios2-elf/4.1.2\libgcc.a(_si_to_sf.o) (__clzsi2)
c:/altera/12.0sp2/nios2eds/bin/gnu/h-i686-mingw32/bin/../lib/gcc/nios2-elf/4.1.2\libgcc.a(_pack_sf.o)
                              c:/altera/12.0sp2/nios2eds/bin/gnu/h-i686-mingw32/bin/../lib/gcc/nios2-elf/4.1.2\libgcc.a(_div_sf.o) (__pack_f)
c:/altera/12.0sp2/nios2eds/bin/gnu/h-i686-mingw32/bin/../lib/gcc/nios2-elf/4.1.2\libgcc.a(_unpack_sf.o)
                              c:/altera/12.0sp2/nios2eds/bin/gnu/h-i686-mingw32/bin/../lib/gcc/nios2-elf/4.1.2\libgcc.a(_div_sf.o) (__unpack_f)
c:/altera/12.0sp2/nios2eds/bin/gnu/h-i686-mingw32/bin/../lib/gcc/nios2-elf/4.1.2\libgcc.a(_make_sf.o)
                              c:/altera/12.0sp2/nios2eds/bin/gnu/h-i686-mingw32/bin/../lib/gcc/nios2-elf/4.1.2\libgcc.a(_df_to_sf.o) (__make_fp)
c:/altera/12.0sp2/nios2eds/bin/gnu/h-i686-mingw32/bin/../lib/gcc/nios2-elf/4.1.2\libgcc.a(_pack_df.o)
                              c:/altera/12.0sp2/nios2eds/bin/gnu/h-i686-mingw32/bin/../lib/gcc/nios2-elf/4.1.2\libgcc.a(_addsub_df.o) (__pack_d)
c:/altera/12.0sp2/nios2eds/bin/gnu/h-i686-mingw32/bin/../lib/gcc/nios2-elf/4.1.2\libgcc.a(_unpack_df.o)
                              c:/altera/12.0sp2/nios2eds/bin/gnu/h-i686-mingw32/bin/../lib/gcc/nios2-elf/4.1.2\libgcc.a(_addsub_df.o) (__unpack_d)
c:/altera/12.0sp2/nios2eds/bin/gnu/h-i686-mingw32/bin/../lib/gcc/nios2-elf/4.1.2\libgcc.a(_fpcmp_parts_df.o)
                              c:/altera/12.0sp2/nios2eds/bin/gnu/h-i686-mingw32/bin/../lib/gcc/nios2-elf/4.1.2\libgcc.a(_eq_df.o) (__fpcmp_parts_d)
c:/altera/12.0sp2/nios2eds/bin/gnu/h-i686-mingw32/bin/../lib/gcc/nios2-elf/4.1.2\libgcc.a(_clz.o)
                              c:/altera/12.0sp2/nios2eds/bin/gnu/h-i686-mingw32/bin/../lib/gcc/nios2-elf/4.1.2\libgcc.a(_clzsi2.o) (__clz_tab)
c:/altera/12.0sp2/nios2eds/bin/gnu/h-i686-mingw32/bin/../lib/gcc/nios2-elf/4.1.2/../../../../nios2-elf/lib\libc.a(lib_a-errno.o)
                              c:/altera/12.0sp2/nios2eds/bin/gnu/h-i686-mingw32/bin/../lib/gcc/nios2-elf/4.1.2/../../../../nios2-elf/lib\libm.a(lib_a-w_sqrt.o) (__errno)
c:/altera/12.0sp2/nios2eds/bin/gnu/h-i686-mingw32/bin/../lib/gcc/nios2-elf/4.1.2/../../../../nios2-elf/lib\libc.a(lib_a-impure.o)
                              c:/altera/12.0sp2/nios2eds/bin/gnu/h-i686-mingw32/bin/../lib/gcc/nios2-elf/4.1.2/../../../../nios2-elf/lib\libc.a(lib_a-errno.o) (_impure_ptr)
c:/altera/12.0sp2/nios2eds/bin/gnu/h-i686-mingw32/bin/../lib/gcc/nios2-elf/4.1.2/../../../../nios2-elf/lib\libc.a(lib_a-memcpy.o)
                              obj/default/hello_ucosii.o (memcpy)
c:/altera/12.0sp2/nios2eds/bin/gnu/h-i686-mingw32/bin/../lib/gcc/nios2-elf/4.1.2/../../../../nios2-elf/lib\libc.a(lib_a-memset.o)
                              obj/default/keypad.o (memset)
c:/altera/12.0sp2/nios2eds/bin/gnu/h-i686-mingw32/bin/../lib/gcc/nios2-elf/4.1.2/../../../../nios2-elf/lib\libc.a(lib_a-printf.o)
                              obj/default/hello_ucosii.o (printf)
c:/altera/12.0sp2/nios2eds/bin/gnu/h-i686-mingw32/bin/../lib/gcc/nios2-elf/4.1.2/../../../../nios2-elf/lib\libc.a(lib_a-sprintf.o)
                              obj/default/hello_ucosii.o (sprintf)
c:/altera/12.0sp2/nios2eds/bin/gnu/h-i686-mingw32/bin/../lib/gcc/nios2-elf/4.1.2/../../../../nios2-elf/lib\libc.a(lib_a-vfprintf.o)
                              c:/altera/12.0sp2/nios2eds/bin/gnu/h-i686-mingw32/bin/../lib/gcc/nios2-elf/4.1.2/../../../../nios2-elf/lib\libc.a(lib_a-printf.o) (___vfprintf_internal_r)
c:/altera/12.0sp2/nios2eds/bin/gnu/h-i686-mingw32/bin/../lib/gcc/nios2-elf/4.1.2/../../../../nios2-elf/lib\libc.a(lib_a-wsetup.o)
                              c:/altera/12.0sp2/nios2eds/bin/gnu/h-i686-mingw32/bin/../lib/gcc/nios2-elf/4.1.2/../../../../nios2-elf/lib\libc.a(lib_a-vfprintf.o) (__swsetup_r)
c:/altera/12.0sp2/nios2eds/bin/gnu/h-i686-mingw32/bin/../lib/gcc/nios2-elf/4.1.2/../../../../nios2-elf/lib\libc.a(lib_a-dtoa.o)
                              c:/altera/12.0sp2/nios2eds/bin/gnu/h-i686-mingw32/bin/../lib/gcc/nios2-elf/4.1.2/../../../../nios2-elf/lib\libc.a(lib_a-vfprintf.o) (_dtoa_r)
c:/altera/12.0sp2/nios2eds/bin/gnu/h-i686-mingw32/bin/../lib/gcc/nios2-elf/4.1.2/../../../../nios2-elf/lib\libc.a(lib_a-fflush.o)
                              c:/altera/12.0sp2/nios2eds/bin/gnu/h-i686-mingw32/bin/../lib/gcc/nios2-elf/4.1.2/../../../../nios2-elf/lib\libc.a(lib_a-vfprintf.o) (_fflush_r)
c:/altera/12.0sp2/nios2eds/bin/gnu/h-i686-mingw32/bin/../lib/gcc/nios2-elf/4.1.2/../../../../nios2-elf/lib\libc.a(lib_a-findfp.o)
                              c:/altera/12.0sp2/nios2eds/bin/gnu/h-i686-mingw32/bin/../lib/gcc/nios2-elf/4.1.2/../../../../nios2-elf/lib\libc.a(lib_a-vfprintf.o) (__sinit)
c:/altera/12.0sp2/nios2eds/bin/gnu/h-i686-mingw32/bin/../lib/gcc/nios2-elf/4.1.2/../../../../nios2-elf/lib\libc.a(lib_a-freer.o)
                              c:/altera/12.0sp2/nios2eds/bin/gnu/h-i686-mingw32/bin/../lib/gcc/nios2-elf/4.1.2/../../../../nios2-elf/lib\libc.a(lib_a-wsetup.o) (_free_r)
c:/altera/12.0sp2/nios2eds/bin/gnu/h-i686-mingw32/bin/../lib/gcc/nios2-elf/4.1.2/../../../../nios2-elf/lib\libc.a(lib_a-fvwrite.o)
                              c:/altera/12.0sp2/nios2eds/bin/gnu/h-i686-mingw32/bin/../lib/gcc/nios2-elf/4.1.2/../../../../nios2-elf/lib\libc.a(lib_a-vfprintf.o) (__sfvwrite_r)
c:/altera/12.0sp2/nios2eds/bin/gnu/h-i686-mingw32/bin/../lib/gcc/nios2-elf/4.1.2/../../../../nios2-elf/lib\libc.a(lib_a-fwalk.o)
                              c:/altera/12.0sp2/nios2eds/bin/gnu/h-i686-mingw32/bin/../lib/gcc/nios2-elf/4.1.2/../../../../nios2-elf/lib\libc.a(lib_a-fflush.o) (_fwalk_reent)
c:/altera/12.0sp2/nios2eds/bin/gnu/h-i686-mingw32/bin/../lib/gcc/nios2-elf/4.1.2/../../../../nios2-elf/lib\libc.a(lib_a-locale.o)
                              c:/altera/12.0sp2/nios2eds/bin/gnu/h-i686-mingw32/bin/../lib/gcc/nios2-elf/4.1.2/../../../../nios2-elf/lib\libc.a(lib_a-vfprintf.o) (_localeconv_r)
c:/altera/12.0sp2/nios2eds/bin/gnu/h-i686-mingw32/bin/../lib/gcc/nios2-elf/4.1.2/../../../../nios2-elf/lib\libc.a(lib_a-makebuf.o)
                              c:/altera/12.0sp2/nios2eds/bin/gnu/h-i686-mingw32/bin/../lib/gcc/nios2-elf/4.1.2/../../../../nios2-elf/lib\libc.a(lib_a-wsetup.o) (__smakebuf_r)
c:/altera/12.0sp2/nios2eds/bin/gnu/h-i686-mingw32/bin/../lib/gcc/nios2-elf/4.1.2/../../../../nios2-elf/lib\libc.a(lib_a-mallocr.o)
                              c:/altera/12.0sp2/nios2eds/bin/gnu/h-i686-mingw32/bin/../lib/gcc/nios2-elf/4.1.2/../../../../nios2-elf/lib\libc.a(lib_a-findfp.o) (_malloc_r)
c:/altera/12.0sp2/nios2eds/bin/gnu/h-i686-mingw32/bin/../lib/gcc/nios2-elf/4.1.2/../../../../nios2-elf/lib\libc.a(lib_a-memchr.o)
                              c:/altera/12.0sp2/nios2eds/bin/gnu/h-i686-mingw32/bin/../lib/gcc/nios2-elf/4.1.2/../../../../nios2-elf/lib\libc.a(lib_a-vfprintf.o) (memchr)
c:/altera/12.0sp2/nios2eds/bin/gnu/h-i686-mingw32/bin/../lib/gcc/nios2-elf/4.1.2/../../../../nios2-elf/lib\libc.a(lib_a-memmove.o)
                              c:/altera/12.0sp2/nios2eds/bin/gnu/h-i686-mingw32/bin/../lib/gcc/nios2-elf/4.1.2/../../../../nios2-elf/lib\libc.a(lib_a-fvwrite.o) (memmove)
c:/altera/12.0sp2/nios2eds/bin/gnu/h-i686-mingw32/bin/../lib/gcc/nios2-elf/4.1.2/../../../../nios2-elf/lib\libc.a(lib_a-mprec.o)
                              c:/altera/12.0sp2/nios2eds/bin/gnu/h-i686-mingw32/bin/../lib/gcc/nios2-elf/4.1.2/../../../../nios2-elf/lib\libc.a(lib_a-dtoa.o) (_Bfree)
c:/altera/12.0sp2/nios2eds/bin/gnu/h-i686-mingw32/bin/../lib/gcc/nios2-elf/4.1.2/../../../../nios2-elf/lib\libc.a(lib_a-reallocr.o)
                              c:/altera/12.0sp2/nios2eds/bin/gnu/h-i686-mingw32/bin/../lib/gcc/nios2-elf/4.1.2/../../../../nios2-elf/lib\libc.a(lib_a-fvwrite.o) (_realloc_r)
c:/altera/12.0sp2/nios2eds/bin/gnu/h-i686-mingw32/bin/../lib/gcc/nios2-elf/4.1.2/../../../../nios2-elf/lib\libc.a(lib_a-s_isinfd.o)
                              c:/altera/12.0sp2/nios2eds/bin/gnu/h-i686-mingw32/bin/../lib/gcc/nios2-elf/4.1.2/../../../../nios2-elf/lib\libc.a(lib_a-vfprintf.o) (__isinfd)
c:/altera/12.0sp2/nios2eds/bin/gnu/h-i686-mingw32/bin/../lib/gcc/nios2-elf/4.1.2/../../../../nios2-elf/lib\libc.a(lib_a-sbrkr.o)
                              c:/altera/12.0sp2/nios2eds/bin/gnu/h-i686-mingw32/bin/../lib/gcc/nios2-elf/4.1.2/../../../../nios2-elf/lib\libc.a(lib_a-freer.o) (_sbrk_r)
c:/altera/12.0sp2/nios2eds/bin/gnu/h-i686-mingw32/bin/../lib/gcc/nios2-elf/4.1.2/../../../../nios2-elf/lib\libc.a(lib_a-stdio.o)
                              c:/altera/12.0sp2/nios2eds/bin/gnu/h-i686-mingw32/bin/../lib/gcc/nios2-elf/4.1.2/../../../../nios2-elf/lib\libc.a(lib_a-findfp.o) (__sclose)
c:/altera/12.0sp2/nios2eds/bin/gnu/h-i686-mingw32/bin/../lib/gcc/nios2-elf/4.1.2/../../../../nios2-elf/lib\libc.a(lib_a-strcmp.o)
                              c:/altera/12.0sp2/nios2eds/bin/gnu/h-i686-mingw32/bin/../lib/gcc/nios2-elf/4.1.2/../../../../nios2-elf/lib\libc.a(lib_a-locale.o) (strcmp)
c:/altera/12.0sp2/nios2eds/bin/gnu/h-i686-mingw32/bin/../lib/gcc/nios2-elf/4.1.2/../../../../nios2-elf/lib\libc.a(lib_a-strlen.o)
                              c:/altera/12.0sp2/nios2eds/bin/gnu/h-i686-mingw32/bin/../lib/gcc/nios2-elf/4.1.2/../../../../nios2-elf/lib\libc.a(lib_a-vfprintf.o) (strlen)
c:/altera/12.0sp2/nios2eds/bin/gnu/h-i686-mingw32/bin/../lib/gcc/nios2-elf/4.1.2/../../../../nios2-elf/lib\libc.a(lib_a-writer.o)
                              c:/altera/12.0sp2/nios2eds/bin/gnu/h-i686-mingw32/bin/../lib/gcc/nios2-elf/4.1.2/../../../../nios2-elf/lib\libc.a(lib_a-stdio.o) (_write_r)
c:/altera/12.0sp2/nios2eds/bin/gnu/h-i686-mingw32/bin/../lib/gcc/nios2-elf/4.1.2/../../../../nios2-elf/lib\libc.a(lib_a-callocr.o)
                              c:/altera/12.0sp2/nios2eds/bin/gnu/h-i686-mingw32/bin/../lib/gcc/nios2-elf/4.1.2/../../../../nios2-elf/lib\libc.a(lib_a-mprec.o) (_calloc_r)
c:/altera/12.0sp2/nios2eds/bin/gnu/h-i686-mingw32/bin/../lib/gcc/nios2-elf/4.1.2/../../../../nios2-elf/lib\libc.a(lib_a-closer.o)
                              c:/altera/12.0sp2/nios2eds/bin/gnu/h-i686-mingw32/bin/../lib/gcc/nios2-elf/4.1.2/../../../../nios2-elf/lib\libc.a(lib_a-stdio.o) (_close_r)
c:/altera/12.0sp2/nios2eds/bin/gnu/h-i686-mingw32/bin/../lib/gcc/nios2-elf/4.1.2/../../../../nios2-elf/lib\libc.a(lib_a-fclose.o)
                              c:/altera/12.0sp2/nios2eds/bin/gnu/h-i686-mingw32/bin/../lib/gcc/nios2-elf/4.1.2/../../../../nios2-elf/lib\libc.a(lib_a-findfp.o) (fclose)
c:/altera/12.0sp2/nios2eds/bin/gnu/h-i686-mingw32/bin/../lib/gcc/nios2-elf/4.1.2/../../../../nios2-elf/lib\libc.a(lib_a-fstatr.o)
                              c:/altera/12.0sp2/nios2eds/bin/gnu/h-i686-mingw32/bin/../lib/gcc/nios2-elf/4.1.2/../../../../nios2-elf/lib\libc.a(lib_a-makebuf.o) (_fstat_r)
c:/altera/12.0sp2/nios2eds/bin/gnu/h-i686-mingw32/bin/../lib/gcc/nios2-elf/4.1.2/../../../../nios2-elf/lib\libc.a(lib_a-int_errno.o)
                              c:/altera/12.0sp2/nios2eds/bin/gnu/h-i686-mingw32/bin/../lib/gcc/nios2-elf/4.1.2/../../../../nios2-elf/lib\libc.a(lib_a-sbrkr.o) (errno)
c:/altera/12.0sp2/nios2eds/bin/gnu/h-i686-mingw32/bin/../lib/gcc/nios2-elf/4.1.2/../../../../nios2-elf/lib\libc.a(lib_a-isattyr.o)
                              c:/altera/12.0sp2/nios2eds/bin/gnu/h-i686-mingw32/bin/../lib/gcc/nios2-elf/4.1.2/../../../../nios2-elf/lib\libc.a(lib_a-makebuf.o) (_isatty_r)
c:/altera/12.0sp2/nios2eds/bin/gnu/h-i686-mingw32/bin/../lib/gcc/nios2-elf/4.1.2/../../../../nios2-elf/lib\libc.a(lib_a-lseekr.o)
                              c:/altera/12.0sp2/nios2eds/bin/gnu/h-i686-mingw32/bin/../lib/gcc/nios2-elf/4.1.2/../../../../nios2-elf/lib\libc.a(lib_a-stdio.o) (_lseek_r)
c:/altera/12.0sp2/nios2eds/bin/gnu/h-i686-mingw32/bin/../lib/gcc/nios2-elf/4.1.2/../../../../nios2-elf/lib\libc.a(lib_a-readr.o)
                              c:/altera/12.0sp2/nios2eds/bin/gnu/h-i686-mingw32/bin/../lib/gcc/nios2-elf/4.1.2/../../../../nios2-elf/lib\libc.a(lib_a-stdio.o) (_read_r)
c:/altera/12.0sp2/nios2eds/bin/gnu/h-i686-mingw32/bin/../lib/gcc/nios2-elf/4.1.2\libgcc.a(_udivdi3.o)
                              c:/altera/12.0sp2/nios2eds/bin/gnu/h-i686-mingw32/bin/../lib/gcc/nios2-elf/4.1.2/../../../../nios2-elf/lib\libc.a(lib_a-vfprintf.o) (__udivdi3)
c:/altera/12.0sp2/nios2eds/bin/gnu/h-i686-mingw32/bin/../lib/gcc/nios2-elf/4.1.2\libgcc.a(_umoddi3.o)
                              c:/altera/12.0sp2/nios2eds/bin/gnu/h-i686-mingw32/bin/../lib/gcc/nios2-elf/4.1.2/../../../../nios2-elf/lib\libc.a(lib_a-vfprintf.o) (__umoddi3)
c:/altera/12.0sp2/nios2eds/bin/gnu/h-i686-mingw32/bin/../lib/gcc/nios2-elf/4.1.2\libgcc.a(_ne_df.o)
                              c:/altera/12.0sp2/nios2eds/bin/gnu/h-i686-mingw32/bin/../lib/gcc/nios2-elf/4.1.2/../../../../nios2-elf/lib\libc.a(lib_a-vfprintf.o) (__nedf2)
c:/altera/12.0sp2/nios2eds/bin/gnu/h-i686-mingw32/bin/../lib/gcc/nios2-elf/4.1.2\libgcc.a(_usi_to_df.o)
                              c:/altera/12.0sp2/nios2eds/bin/gnu/h-i686-mingw32/bin/../lib/gcc/nios2-elf/4.1.2/../../../../nios2-elf/lib\libc.a(lib_a-dtoa.o) (__floatunsidf)
../microCTest_bsp/\libucosii_bsp.a(alt_close.o)
                              c:/altera/12.0sp2/nios2eds/bin/gnu/h-i686-mingw32/bin/../lib/gcc/nios2-elf/4.1.2/../../../../nios2-elf/lib\libc.a(lib_a-closer.o) (close)
../microCTest_bsp/\libucosii_bsp.a(alt_dev.o)
                              ../microCTest_bsp/\libucosii_bsp.a(alt_close.o) (alt_fd_list)
../microCTest_bsp/\libucosii_bsp.a(alt_errno.o)
                              ../microCTest_bsp/\libucosii_bsp.a(alt_close.o) (alt_errno)
../microCTest_bsp/\libucosii_bsp.a(alt_fstat.o)
                              c:/altera/12.0sp2/nios2eds/bin/gnu/h-i686-mingw32/bin/../lib/gcc/nios2-elf/4.1.2/../../../../nios2-elf/lib\libc.a(lib_a-fstatr.o) (fstat)
../microCTest_bsp/\libucosii_bsp.a(alt_isatty.o)
                              c:/altera/12.0sp2/nios2eds/bin/gnu/h-i686-mingw32/bin/../lib/gcc/nios2-elf/4.1.2/../../../../nios2-elf/lib\libc.a(lib_a-isattyr.o) (isatty)
../microCTest_bsp/\libucosii_bsp.a(alt_lseek.o)
                              c:/altera/12.0sp2/nios2eds/bin/gnu/h-i686-mingw32/bin/../lib/gcc/nios2-elf/4.1.2/../../../../nios2-elf/lib\libc.a(lib_a-lseekr.o) (lseek)
../microCTest_bsp/\libucosii_bsp.a(alt_main.o)
                              ../microCTest_bsp//obj/HAL/src/crt0.o (alt_main)
../microCTest_bsp/\libucosii_bsp.a(alt_read.o)
                              c:/altera/12.0sp2/nios2eds/bin/gnu/h-i686-mingw32/bin/../lib/gcc/nios2-elf/4.1.2/../../../../nios2-elf/lib\libc.a(lib_a-readr.o) (read)
../microCTest_bsp/\libucosii_bsp.a(alt_release_fd.o)
                              ../microCTest_bsp/\libucosii_bsp.a(alt_close.o) (alt_release_fd)
../microCTest_bsp/\libucosii_bsp.a(alt_sbrk.o)
                              c:/altera/12.0sp2/nios2eds/bin/gnu/h-i686-mingw32/bin/../lib/gcc/nios2-elf/4.1.2/../../../../nios2-elf/lib\libc.a(lib_a-sbrkr.o) (sbrk)
../microCTest_bsp/\libucosii_bsp.a(alt_usleep.o)
                              obj/default/lcd.o (usleep)
../microCTest_bsp/\libucosii_bsp.a(alt_write.o)
                              c:/altera/12.0sp2/nios2eds/bin/gnu/h-i686-mingw32/bin/../lib/gcc/nios2-elf/4.1.2/../../../../nios2-elf/lib\libc.a(lib_a-writer.o) (write)
../microCTest_bsp/\libucosii_bsp.a(alt_env_lock.o)
                              ../microCTest_bsp/\libucosii_bsp.a(alt_main.o) (alt_envsem)
../microCTest_bsp/\libucosii_bsp.a(alt_malloc_lock.o)
                              c:/altera/12.0sp2/nios2eds/bin/gnu/h-i686-mingw32/bin/../lib/gcc/nios2-elf/4.1.2/../../../../nios2-elf/lib\libc.a(lib_a-freer.o) (__malloc_lock)
../microCTest_bsp/\libucosii_bsp.a(os_core.o)
                              ../microCTest_bsp/\libucosii_bsp.a(alt_main.o) (OSInit)
../microCTest_bsp/\libucosii_bsp.a(os_dbg.o)
                              ../microCTest_bsp/\libucosii_bsp.a(os_core.o) (OSDebugInit)
../microCTest_bsp/\libucosii_bsp.a(os_flag.o)
                              ../microCTest_bsp/\libucosii_bsp.a(os_core.o) (OS_FlagInit)
../microCTest_bsp/\libucosii_bsp.a(os_mem.o)
                              ../microCTest_bsp/\libucosii_bsp.a(os_core.o) (OS_MemInit)
../microCTest_bsp/\libucosii_bsp.a(os_q.o)
                              ../microCTest_bsp/\libucosii_bsp.a(os_core.o) (OS_QInit)
../microCTest_bsp/\libucosii_bsp.a(os_sem.o)
                              ../microCTest_bsp/\libucosii_bsp.a(alt_main.o) (OSSemCreate)
../microCTest_bsp/\libucosii_bsp.a(os_task.o)
                              obj/default/hello_ucosii.o (OSTaskCreateExt)
../microCTest_bsp/\libucosii_bsp.a(os_time.o)
                              ../microCTest_bsp/\libucosii_bsp.a(alt_usleep.o) (OSTimeDly)
../microCTest_bsp/\libucosii_bsp.a(alt_sys_init.o)
                              ../microCTest_bsp/\libucosii_bsp.a(alt_main.o) (alt_irq_init)
../microCTest_bsp/\libucosii_bsp.a(altera_avalon_cfi_flash.o)
                              ../microCTest_bsp/\libucosii_bsp.a(alt_sys_init.o) (alt_flash_cfi_init)
../microCTest_bsp/\libucosii_bsp.a(altera_avalon_cfi_flash_table.o)
                              ../microCTest_bsp/\libucosii_bsp.a(altera_avalon_cfi_flash.o) (alt_set_flash_width_func)
../microCTest_bsp/\libucosii_bsp.a(altera_avalon_jtag_uart_fd.o)
                              ../microCTest_bsp/\libucosii_bsp.a(alt_sys_init.o) (altera_avalon_jtag_uart_read_fd)
../microCTest_bsp/\libucosii_bsp.a(altera_avalon_jtag_uart_init.o)
                              ../microCTest_bsp/\libucosii_bsp.a(alt_sys_init.o) (altera_avalon_jtag_uart_init)
../microCTest_bsp/\libucosii_bsp.a(altera_avalon_jtag_uart_ioctl.o)
                              ../microCTest_bsp/\libucosii_bsp.a(altera_avalon_jtag_uart_fd.o) (altera_avalon_jtag_uart_ioctl)
../microCTest_bsp/\libucosii_bsp.a(altera_avalon_jtag_uart_read.o)
                              ../microCTest_bsp/\libucosii_bsp.a(altera_avalon_jtag_uart_fd.o) (altera_avalon_jtag_uart_read)
../microCTest_bsp/\libucosii_bsp.a(altera_avalon_jtag_uart_write.o)
                              ../microCTest_bsp/\libucosii_bsp.a(altera_avalon_jtag_uart_fd.o) (altera_avalon_jtag_uart_write)
../microCTest_bsp/\libucosii_bsp.a(altera_avalon_lcd_16207.o)
                              ../microCTest_bsp/\libucosii_bsp.a(alt_sys_init.o) (altera_avalon_lcd_16207_init)
../microCTest_bsp/\libucosii_bsp.a(altera_avalon_lcd_16207_fd.o)
                              ../microCTest_bsp/\libucosii_bsp.a(alt_sys_init.o) (altera_avalon_lcd_16207_write_fd)
../microCTest_bsp/\libucosii_bsp.a(altera_avalon_timer_sc.o)
                              ../microCTest_bsp/\libucosii_bsp.a(alt_sys_init.o) (alt_avalon_timer_sc_init)
../microCTest_bsp/\libucosii_bsp.a(altera_avalon_timer_vars.o)
                              ../microCTest_bsp/\libucosii_bsp.a(alt_sys_init.o) (altera_avalon_timer_ts_base)
../microCTest_bsp/\libucosii_bsp.a(altera_avalon_uart_fd.o)
                              ../microCTest_bsp/\libucosii_bsp.a(alt_sys_init.o) (altera_avalon_uart_read_fd)
../microCTest_bsp/\libucosii_bsp.a(altera_avalon_uart_init.o)
                              ../microCTest_bsp/\libucosii_bsp.a(alt_sys_init.o) (altera_avalon_uart_init)
../microCTest_bsp/\libucosii_bsp.a(altera_avalon_uart_read.o)
                              ../microCTest_bsp/\libucosii_bsp.a(altera_avalon_uart_fd.o) (altera_avalon_uart_read)
../microCTest_bsp/\libucosii_bsp.a(altera_avalon_uart_write.o)
                              ../microCTest_bsp/\libucosii_bsp.a(altera_avalon_uart_fd.o) (altera_avalon_uart_write)
../microCTest_bsp/\libucosii_bsp.a(alt_alarm_start.o)
                              ../microCTest_bsp/\libucosii_bsp.a(altera_avalon_jtag_uart_init.o) (alt_alarm_start)
../microCTest_bsp/\libucosii_bsp.a(alt_busy_sleep.o)
                              ../microCTest_bsp/\libucosii_bsp.a(alt_usleep.o) (alt_busy_sleep)
../microCTest_bsp/\libucosii_bsp.a(alt_dcache_flush.o)
                              ../microCTest_bsp/\libucosii_bsp.a(altera_avalon_cfi_flash.o) (alt_dcache_flush)
../microCTest_bsp/\libucosii_bsp.a(alt_dev_llist_insert.o)
                              ../microCTest_bsp/\libucosii_bsp.a(alt_sys_init.o) (alt_dev_llist_insert)
../microCTest_bsp/\libucosii_bsp.a(alt_do_ctors.o)
                              ../microCTest_bsp/\libucosii_bsp.a(alt_main.o) (_do_ctors)
../microCTest_bsp/\libucosii_bsp.a(alt_do_dtors.o)
                              ../microCTest_bsp/\libucosii_bsp.a(alt_main.o) (_do_dtors)
../microCTest_bsp/\libucosii_bsp.a(alt_flash_dev.o)
                              ../microCTest_bsp/\libucosii_bsp.a(altera_avalon_cfi_flash.o) (alt_flash_dev_list)
../microCTest_bsp/\libucosii_bsp.a(alt_iic.o)
                              ../microCTest_bsp/\libucosii_bsp.a(altera_avalon_jtag_uart_init.o) (alt_ic_isr_register)
../microCTest_bsp/\libucosii_bsp.a(alt_iic_isr_register.o)
                              ../microCTest_bsp/\libucosii_bsp.a(alt_iic.o) (alt_iic_isr_register)
../microCTest_bsp/\libucosii_bsp.a(alt_io_redirect.o)
                              ../microCTest_bsp/\libucosii_bsp.a(alt_main.o) (alt_io_redirect)
../microCTest_bsp/\libucosii_bsp.a(alt_irq_entry.o)
                              ../microCTest_bsp/\libucosii_bsp.a(alt_iic_isr_register.o) (alt_irq_entry)
../microCTest_bsp/\libucosii_bsp.a(alt_irq_handler.o)
                              ../microCTest_bsp/\libucosii_bsp.a(alt_iic_isr_register.o) (alt_irq_handler)
../microCTest_bsp/\libucosii_bsp.a(alt_irq_vars.o)
                              ../microCTest_bsp/\libucosii_bsp.a(alt_iic.o) (alt_irq_active)
../microCTest_bsp/\libucosii_bsp.a(alt_open.o)
                              ../microCTest_bsp/\libucosii_bsp.a(alt_io_redirect.o) (open)
../microCTest_bsp/\libucosii_bsp.a(alt_tick.o)
                              ../microCTest_bsp/\libucosii_bsp.a(alt_usleep.o) (_alt_tick_rate)
../microCTest_bsp/\libucosii_bsp.a(altera_nios2_irq.o)
                              ../microCTest_bsp/\libucosii_bsp.a(alt_sys_init.o) (altera_nios2_irq_init)
../microCTest_bsp/\libucosii_bsp.a(os_cpu_a.o)
                              ../microCTest_bsp/\libucosii_bsp.a(os_core.o) (OSIntCtxSw)
../microCTest_bsp/\libucosii_bsp.a(os_cpu_c.o)
                              ../microCTest_bsp/\libucosii_bsp.a(os_task.o) (OSTaskStkInit)
../microCTest_bsp/\libucosii_bsp.a(altera_avalon_cfi_flash_amd.o)
                              ../microCTest_bsp/\libucosii_bsp.a(altera_avalon_cfi_flash_table.o) (alt_program_amd)
../microCTest_bsp/\libucosii_bsp.a(altera_avalon_cfi_flash_intel.o)
                              ../microCTest_bsp/\libucosii_bsp.a(altera_avalon_cfi_flash_table.o) (alt_program_intel)
../microCTest_bsp/\libucosii_bsp.a(alt_exception_entry.o)
                              ../microCTest_bsp/\libucosii_bsp.a(alt_irq_entry.o) (alt_exception)
../microCTest_bsp/\libucosii_bsp.a(alt_find_dev.o)
                              ../microCTest_bsp/\libucosii_bsp.a(alt_flash_dev.o) (alt_find_dev)
../microCTest_bsp/\libucosii_bsp.a(alt_find_file.o)
                              ../microCTest_bsp/\libucosii_bsp.a(alt_open.o) (alt_find_file)
../microCTest_bsp/\libucosii_bsp.a(alt_get_fd.o)
                              ../microCTest_bsp/\libucosii_bsp.a(alt_open.o) (alt_get_fd)
../microCTest_bsp/\libucosii_bsp.a(alt_instruction_exception_entry.o)
                              ../microCTest_bsp/\libucosii_bsp.a(alt_exception_entry.o) (alt_instruction_exception_entry)
c:/altera/12.0sp2/nios2eds/bin/gnu/h-i686-mingw32/bin/../lib/gcc/nios2-elf/4.1.2/../../../../nios2-elf/lib\libc.a(lib_a-atexit.o)
                              ../microCTest_bsp/\libucosii_bsp.a(alt_main.o) (atexit)
c:/altera/12.0sp2/nios2eds/bin/gnu/h-i686-mingw32/bin/../lib/gcc/nios2-elf/4.1.2/../../../../nios2-elf/lib\libc.a(lib_a-ctype_.o)
                              ../microCTest_bsp/\libucosii_bsp.a(altera_avalon_lcd_16207.o) (__ctype_ptr)
c:/altera/12.0sp2/nios2eds/bin/gnu/h-i686-mingw32/bin/../lib/gcc/nios2-elf/4.1.2/../../../../nios2-elf/lib\libc.a(lib_a-exit.o)
                              ../microCTest_bsp/\libucosii_bsp.a(alt_main.o) (exit)
c:/altera/12.0sp2/nios2eds/bin/gnu/h-i686-mingw32/bin/../lib/gcc/nios2-elf/4.1.2/../../../../nios2-elf/lib\libc.a(lib_a-memcmp.o)
                              ../microCTest_bsp/\libucosii_bsp.a(altera_avalon_cfi_flash.o) (memcmp)
c:/altera/12.0sp2/nios2eds/bin/gnu/h-i686-mingw32/bin/../lib/gcc/nios2-elf/4.1.2/../../../../nios2-elf/lib\libc.a(lib_a-__atexit.o)
                              c:/altera/12.0sp2/nios2eds/bin/gnu/h-i686-mingw32/bin/../lib/gcc/nios2-elf/4.1.2/../../../../nios2-elf/lib\libc.a(lib_a-atexit.o) (__register_exitproc)
c:/altera/12.0sp2/nios2eds/bin/gnu/h-i686-mingw32/bin/../lib/gcc/nios2-elf/4.1.2/../../../../nios2-elf/lib\libc.a(lib_a-__call_atexit.o)
                              c:/altera/12.0sp2/nios2eds/bin/gnu/h-i686-mingw32/bin/../lib/gcc/nios2-elf/4.1.2/../../../../nios2-elf/lib\libc.a(lib_a-exit.o) (__call_exitprocs)
../microCTest_bsp/\libucosii_bsp.a(alt_exit.o)
                              c:/altera/12.0sp2/nios2eds/bin/gnu/h-i686-mingw32/bin/../lib/gcc/nios2-elf/4.1.2/../../../../nios2-elf/lib\libc.a(lib_a-exit.o) (_exit)

Allocating common symbols
Common symbol       size              file

alt_irq             0x100             ../microCTest_bsp/\libucosii_bsp.a(alt_irq_handler.o)
task1_stk           0x2000            obj/default/hello_ucosii.o
OSLockNesting       0x1               ../microCTest_bsp/\libucosii_bsp.a(os_core.o)
OSRunning           0x1               ../microCTest_bsp/\libucosii_bsp.a(os_core.o)
filterOut_stk       0x2000            obj/default/hello_ucosii.o
OSIdleCtr           0x4               ../microCTest_bsp/\libucosii_bsp.a(os_core.o)
OSPrioHighRdy       0x1               ../microCTest_bsp/\libucosii_bsp.a(os_core.o)
errno               0x4               c:/altera/12.0sp2/nios2eds/bin/gnu/h-i686-mingw32/bin/../lib/gcc/nios2-elf/4.1.2/../../../../nios2-elf/lib\libc.a(lib_a-int_errno.o)
alt_heapsem         0x4               ../microCTest_bsp/\libucosii_bsp.a(alt_malloc_lock.o)
OSFlagTbl           0x370             ../microCTest_bsp/\libucosii_bsp.a(os_core.o)
OSPrioCur           0x1               ../microCTest_bsp/\libucosii_bsp.a(os_core.o)
OSTCBList           0x4               ../microCTest_bsp/\libucosii_bsp.a(os_core.o)
alt_fd_list_lock    0x4               ../microCTest_bsp/\libucosii_bsp.a(alt_dev.o)
OSMemTbl            0xc30             ../microCTest_bsp/\libucosii_bsp.a(os_core.o)
OSTickStepState     0x1               ../microCTest_bsp/\libucosii_bsp.a(os_core.o)
OSTaskStatStk       0x800             ../microCTest_bsp/\libucosii_bsp.a(os_core.o)
OSCtxSwCtr          0x4               ../microCTest_bsp/\libucosii_bsp.a(os_core.o)
button              0x44              obj/default/hello_ucosii.o
OSIdleCtrMax        0x4               ../microCTest_bsp/\libucosii_bsp.a(os_core.o)
OSTCBFreeList       0x4               ../microCTest_bsp/\libucosii_bsp.a(os_core.o)
OSCPUUsage          0x1               ../microCTest_bsp/\libucosii_bsp.a(os_core.o)
keypadCheck_stk     0x2000            obj/default/hello_ucosii.o
OSTaskCtr           0x1               ../microCTest_bsp/\libucosii_bsp.a(os_core.o)
OSMemFreeList       0x4               ../microCTest_bsp/\libucosii_bsp.a(os_core.o)
OSQTbl              0x1e0             ../microCTest_bsp/\libucosii_bsp.a(os_core.o)
OSTCBHighRdy        0x4               ../microCTest_bsp/\libucosii_bsp.a(os_core.o)
solution2           0xc               obj/default/hello_ucosii.o
OSQFreeList         0x4               ../microCTest_bsp/\libucosii_bsp.a(os_core.o)
OSRdyGrp            0x1               ../microCTest_bsp/\libucosii_bsp.a(os_core.o)
_atexit0            0x190             c:/altera/12.0sp2/nios2eds/bin/gnu/h-i686-mingw32/bin/../lib/gcc/nios2-elf/4.1.2/../../../../nios2-elf/lib\libc.a(lib_a-atexit.o)
OSRdyTbl            0x3               ../microCTest_bsp/\libucosii_bsp.a(os_core.o)
OSEventFreeList     0x4               ../microCTest_bsp/\libucosii_bsp.a(os_core.o)
OSIntNesting        0x1               ../microCTest_bsp/\libucosii_bsp.a(os_core.o)
OSTCBCur            0x4               ../microCTest_bsp/\libucosii_bsp.a(os_core.o)
OSTime              0x4               ../microCTest_bsp/\libucosii_bsp.a(os_core.o)
OSTaskIdleStk       0x800             ../microCTest_bsp/\libucosii_bsp.a(os_core.o)
OSEventTbl          0xb40             ../microCTest_bsp/\libucosii_bsp.a(os_core.o)
OSTCBTbl            0x510             ../microCTest_bsp/\libucosii_bsp.a(os_core.o)
OSFlagFreeList      0x4               ../microCTest_bsp/\libucosii_bsp.a(os_core.o)
OSStatRdy           0x1               ../microCTest_bsp/\libucosii_bsp.a(os_core.o)
OSTCBPrioTbl        0x54              ../microCTest_bsp/\libucosii_bsp.a(os_core.o)
alt_envsem          0x4               ../microCTest_bsp/\libucosii_bsp.a(alt_env_lock.o)
OSIdleCtrRun        0x4               ../microCTest_bsp/\libucosii_bsp.a(os_core.o)

Memory Configuration

Name             Origin             Length             Attributes
sdram            0x01800000         0x00800000
reset            0x02400000         0x00000020
cfi_flash        0x02400020         0x003fffe0
onchip_mem_BEFORE_EXCEPTION 0x02808000         0x00000020
onchip_mem       0x02808020         0x000077e0
*default*        0x00000000         0xffffffff

Linker script and memory map

LOAD ../microCTest_bsp//obj/HAL/src/crt0.o
LOAD obj/default/IK.o
LOAD obj/default/hello_ucosii.o
LOAD obj/default/keypad.o
LOAD obj/default/lcd.o
LOAD obj/default/pwm.o
LOAD obj/default/utilities.o
LOAD c:/altera/12.0sp2/nios2eds/bin/gnu/h-i686-mingw32/bin/../lib/gcc/nios2-elf/4.1.2/../../../../nios2-elf/lib\libstdc++.a
LOAD c:/altera/12.0sp2/nios2eds/bin/gnu/h-i686-mingw32/bin/../lib/gcc/nios2-elf/4.1.2/../../../../nios2-elf/lib\libm.a
LOAD c:/altera/12.0sp2/nios2eds/bin/gnu/h-i686-mingw32/bin/../lib/gcc/nios2-elf/4.1.2\libgcc.a
START GROUP
LOAD c:/altera/12.0sp2/nios2eds/bin/gnu/h-i686-mingw32/bin/../lib/gcc/nios2-elf/4.1.2/../../../../nios2-elf/lib\libc.a
LOAD c:/altera/12.0sp2/nios2eds/bin/gnu/h-i686-mingw32/bin/../lib/gcc/nios2-elf/4.1.2\libgcc.a
LOAD ../microCTest_bsp/\libucosii_bsp.a
END GROUP
LOAD c:/altera/12.0sp2/nios2eds/bin/gnu/h-i686-mingw32/bin/../lib/gcc/nios2-elf/4.1.2\libgcc.a
                0x01800000                __alt_mem_sdram = 0x1800000
                0x02400000                __alt_mem_cfi_flash = 0x2400000
                0x02808000                __alt_mem_onchip_mem = 0x2808000

.entry          0x02400000        0x0
 *(.entry)
 .entry         0x02400000        0x0 ../microCTest_bsp//obj/HAL/src/crt0.o
                0x02400000                __reset

.exceptions     0x02808020      0x214
                0x02808020                PROVIDE (__ram_exceptions_start, ABSOLUTE (.))
                0x02808020                . = ALIGN (0x20)
 *(.irq)
 *(.exceptions.entry.label)
 .exceptions.entry.label
                0x02808020        0x0 ../microCTest_bsp/\libucosii_bsp.a(alt_irq_entry.o)
                0x02808020                alt_irq_entry
 .exceptions.entry.label
                0x02808020        0x0 ../microCTest_bsp/\libucosii_bsp.a(alt_exception_entry.o)
                0x02808020                alt_exception
 *(.exceptions.entry.user)
 *(.exceptions.entry)
 .exceptions.entry
                0x02808020       0x54 ../microCTest_bsp/\libucosii_bsp.a(alt_exception_entry.o)
 *(.exceptions.irqtest.user)
 *(.exceptions.irqtest)
 .exceptions.irqtest
                0x02808074       0x10 ../microCTest_bsp/\libucosii_bsp.a(alt_irq_entry.o)
 *(.exceptions.irqhandler.user)
 *(.exceptions.irqhandler)
 .exceptions.irqhandler
                0x02808084        0x4 ../microCTest_bsp/\libucosii_bsp.a(alt_irq_entry.o)
 *(.exceptions.irqreturn.user)
 *(.exceptions.irqreturn)
 .exceptions.irqreturn
                0x02808088        0x4 ../microCTest_bsp/\libucosii_bsp.a(alt_irq_entry.o)
 *(.exceptions.notirq.label)
 .exceptions.notirq.label
                0x0280808c        0x0 ../microCTest_bsp/\libucosii_bsp.a(alt_irq_entry.o)
 *(.exceptions.notirq.user)
 *(.exceptions.notirq)
 .exceptions.notirq
                0x0280808c        0x8 ../microCTest_bsp/\libucosii_bsp.a(alt_exception_entry.o)
 *(.exceptions.soft.user)
 *(.exceptions.soft)
 *(.exceptions.unknown.user)
 *(.exceptions.unknown)
 .exceptions.unknown
                0x02808094       0x14 ../microCTest_bsp/\libucosii_bsp.a(alt_exception_entry.o)
 *(.exceptions.exit.label)
 .exceptions.exit.label
                0x028080a8        0x0 ../microCTest_bsp/\libucosii_bsp.a(alt_irq_entry.o)
 .exceptions.exit.label
                0x028080a8        0x0 ../microCTest_bsp/\libucosii_bsp.a(alt_exception_entry.o)
 *(.exceptions.exit.user)
 *(.exceptions.exit)
 .exceptions.exit
                0x028080a8       0x54 ../microCTest_bsp/\libucosii_bsp.a(alt_exception_entry.o)
 *(.exceptions)
 .exceptions    0x028080fc       0xd0 ../microCTest_bsp/\libucosii_bsp.a(alt_irq_handler.o)
                0x028080fc                alt_irq_handler
 .exceptions    0x028081cc       0x68 ../microCTest_bsp/\libucosii_bsp.a(alt_instruction_exception_entry.o)
                0x028081cc                alt_instruction_exception_entry
                0x02808234                PROVIDE (__ram_exceptions_end, ABSOLUTE (.))
                0x02808020                PROVIDE (__flash_exceptions_start, LOADADDR (.exceptions))

.text           0x01800000    0x1f240
                0x01800000                PROVIDE (stext, ABSOLUTE (.))
 *(.interp)
 *(.hash)
 *(.dynsym)
 *(.dynstr)
 *(.gnu.version)
 *(.gnu.version_d)
 *(.gnu.version_r)
 *(.rel.init)
 *(.rela.init)
 *(.rel.text .rel.text.* .rel.gnu.linkonce.t.*)
 *(.rela.text .rela.text.* .rela.gnu.linkonce.t.*)
 *(.rel.fini)
 *(.rela.fini)
 *(.rel.rodata .rel.rodata.* .rel.gnu.linkonce.r.*)
 *(.rela.rodata .rela.rodata.* .rela.gnu.linkonce.r.*)
 *(.rel.data .rel.data.* .rel.gnu.linkonce.d.*)
 *(.rela.data .rela.data.* .rela.gnu.linkonce.d.*)
 *(.rel.tdata .rel.tdata.* .rel.gnu.linkonce.td.*)
 *(.rela.tdata .rela.tdata.* .rela.gnu.linkonce.td.*)
 *(.rel.tbss .rel.tbss.* .rel.gnu.linkonce.tb.*)
 *(.rela.tbss .rela.tbss.* .rela.gnu.linkonce.tb.*)
 *(.rel.ctors)
 *(.rela.ctors)
 *(.rel.dtors)
 *(.rela.dtors)
 *(.rel.got)
 *(.rela.got)
 *(.rel.sdata .rel.sdata.* .rel.gnu.linkonce.s.*)
 *(.rela.sdata .rela.sdata.* .rela.gnu.linkonce.s.*)
 *(.rel.sbss .rel.sbss.* .rel.gnu.linkonce.sb.*)
 *(.rela.sbss .rela.sbss.* .rela.gnu.linkonce.sb.*)
 *(.rel.sdata2 .rel.sdata2.* .rel.gnu.linkonce.s2.*)
 *(.rela.sdata2 .rela.sdata2.* .rela.gnu.linkonce.s2.*)
 *(.rel.sbss2 .rel.sbss2.* .rel.gnu.linkonce.sb2.*)
 *(.rela.sbss2 .rela.sbss2.* .rela.gnu.linkonce.sb2.*)
 *(.rel.bss .rel.bss.* .rel.gnu.linkonce.b.*)
 *(.rela.bss .rela.bss.* .rela.gnu.linkonce.b.*)
 *(.rel.plt)
 *(.rela.plt)
 *(.rel.dyn)
 *(.init)
 *(.plt)
 *(.text .stub .text.* .gnu.linkonce.t.*)
 .text          0x01800000       0x48 ../microCTest_bsp//obj/HAL/src/crt0.o
                0x01800000                _start
 .text          0x01800048      0xdf8 obj/default/IK.o
                0x01800048                IK
 .text          0x01800e40      0x93c obj/default/hello_ucosii.o
                0x01800e40                task1
                0x018012bc                filterOut
                0x018015a4                keypadCheck
                0x01801688                main
 .text          0x0180177c      0x4dc obj/default/keypad.o
                0x0180177c                Initilise_Keypad
                0x018017a0                Check_Keypad
                0x0180180c                Enable_Keypad_Col
                0x018018c8                Read_Keypad_Col
                0x018019b8                checkKeypad
 .text          0x01801c58      0x190 obj/default/lcd.o
                0x01801c58                Initilise_Lcd
                0x01801cac                Clear_Lcd
                0x01801cf0                Write_To_Lcd
 .text          0x01801de8      0x44c obj/default/pwm.o
                0x01801de8                initilisePwm
                0x01801fb8                setPwmDutyCycle
                0x018020b0                setServoPosition
 .text          0x01802234      0x134 obj/default/utilities.o
                0x01802234                map
                0x018022a4                smoothstep
 .text          0x01802368      0x168 c:/altera/12.0sp2/nios2eds/bin/gnu/h-i686-mingw32/bin/../lib/gcc/nios2-elf/4.1.2/../../../../nios2-elf/lib\libm.a(lib_a-s_cos.o)
                0x01802368                cos
 .text          0x018024d0      0x10c c:/altera/12.0sp2/nios2eds/bin/gnu/h-i686-mingw32/bin/../lib/gcc/nios2-elf/4.1.2/../../../../nios2-elf/lib\libm.a(lib_a-s_round.o)
                0x018024d0                round
 .text          0x018025dc      0x16c c:/altera/12.0sp2/nios2eds/bin/gnu/h-i686-mingw32/bin/../lib/gcc/nios2-elf/4.1.2/../../../../nios2-elf/lib\libm.a(lib_a-s_sin.o)
                0x018025dc                sin
 .text          0x01802748        0x4 c:/altera/12.0sp2/nios2eds/bin/gnu/h-i686-mingw32/bin/../lib/gcc/nios2-elf/4.1.2/../../../../nios2-elf/lib\libm.a(lib_a-w_atan2.o)
                0x01802748                atan2
 .text          0x0180274c      0x130 c:/altera/12.0sp2/nios2eds/bin/gnu/h-i686-mingw32/bin/../lib/gcc/nios2-elf/4.1.2/../../../../nios2-elf/lib\libm.a(lib_a-w_sqrt.o)
                0x0180274c                sqrt
 .text          0x0180287c      0x350 c:/altera/12.0sp2/nios2eds/bin/gnu/h-i686-mingw32/bin/../lib/gcc/nios2-elf/4.1.2/../../../../nios2-elf/lib\libm.a(lib_a-e_atan2.o)
                0x0180287c                __ieee754_atan2
 .text          0x01802bcc      0x828 c:/altera/12.0sp2/nios2eds/bin/gnu/h-i686-mingw32/bin/../lib/gcc/nios2-elf/4.1.2/../../../../nios2-elf/lib\libm.a(lib_a-e_rem_pio2.o)
                0x01802bcc                __ieee754_rem_pio2
 .text          0x018033f4      0x2c8 c:/altera/12.0sp2/nios2eds/bin/gnu/h-i686-mingw32/bin/../lib/gcc/nios2-elf/4.1.2/../../../../nios2-elf/lib\libm.a(lib_a-e_sqrt.o)
                0x018033f4                __ieee754_sqrt
 .text          0x018036bc      0x52c c:/altera/12.0sp2/nios2eds/bin/gnu/h-i686-mingw32/bin/../lib/gcc/nios2-elf/4.1.2/../../../../nios2-elf/lib\libm.a(lib_a-k_cos.o)
                0x018036bc                __kernel_cos
 .text          0x01803be8      0xe7c c:/altera/12.0sp2/nios2eds/bin/gnu/h-i686-mingw32/bin/../lib/gcc/nios2-elf/4.1.2/../../../../nios2-elf/lib\libm.a(lib_a-k_rem_pio2.o)
                0x01803be8                __kernel_rem_pio2
 .text          0x01804a64      0x318 c:/altera/12.0sp2/nios2eds/bin/gnu/h-i686-mingw32/bin/../lib/gcc/nios2-elf/4.1.2/../../../../nios2-elf/lib\libm.a(lib_a-k_sin.o)
                0x01804a64                __kernel_sin
 .text          0x01804d7c      0x698 c:/altera/12.0sp2/nios2eds/bin/gnu/h-i686-mingw32/bin/../lib/gcc/nios2-elf/4.1.2/../../../../nios2-elf/lib\libm.a(lib_a-s_atan.o)
                0x01804d7c                atan
 .text          0x01805414       0x18 c:/altera/12.0sp2/nios2eds/bin/gnu/h-i686-mingw32/bin/../lib/gcc/nios2-elf/4.1.2/../../../../nios2-elf/lib\libm.a(lib_a-s_fabs.o)
                0x01805414                fabs
 .text          0x0180542c      0x224 c:/altera/12.0sp2/nios2eds/bin/gnu/h-i686-mingw32/bin/../lib/gcc/nios2-elf/4.1.2/../../../../nios2-elf/lib\libm.a(lib_a-s_floor.o)
                0x0180542c                floor
 .text          0x01805650       0x30 c:/altera/12.0sp2/nios2eds/bin/gnu/h-i686-mingw32/bin/../lib/gcc/nios2-elf/4.1.2/../../../../nios2-elf/lib\libm.a(lib_a-s_isnand.o)
                0x01805650                __isnand
 .text          0x01805680        0x0 c:/altera/12.0sp2/nios2eds/bin/gnu/h-i686-mingw32/bin/../lib/gcc/nios2-elf/4.1.2/../../../../nios2-elf/lib\libm.a(lib_a-s_lib_ver.o)
 .text          0x01805680        0x8 c:/altera/12.0sp2/nios2eds/bin/gnu/h-i686-mingw32/bin/../lib/gcc/nios2-elf/4.1.2/../../../../nios2-elf/lib\libm.a(lib_a-s_matherr.o)
                0x01805680                matherr
 .text          0x01805688      0x1e0 c:/altera/12.0sp2/nios2eds/bin/gnu/h-i686-mingw32/bin/../lib/gcc/nios2-elf/4.1.2/../../../../nios2-elf/lib\libm.a(lib_a-s_scalbn.o)
                0x01805688                scalbn
 .text          0x01805868       0x24 c:/altera/12.0sp2/nios2eds/bin/gnu/h-i686-mingw32/bin/../lib/gcc/nios2-elf/4.1.2/../../../../nios2-elf/lib\libm.a(lib_a-s_copysign.o)
                0x01805868                copysign
 .text          0x0180588c      0x174 c:/altera/12.0sp2/nios2eds/bin/gnu/h-i686-mingw32/bin/../lib/gcc/nios2-elf/4.1.2\libgcc.a(_div_sf.o)
                0x0180588c                __divsf3
 .text          0x01805a00       0x98 c:/altera/12.0sp2/nios2eds/bin/gnu/h-i686-mingw32/bin/../lib/gcc/nios2-elf/4.1.2\libgcc.a(_si_to_sf.o)
                0x01805a00                __floatsisf
 .text          0x01805a98       0x54 c:/altera/12.0sp2/nios2eds/bin/gnu/h-i686-mingw32/bin/../lib/gcc/nios2-elf/4.1.2\libgcc.a(_sf_to_df.o)
                0x01805a98                __extendsfdf2
 .text          0x01805aec        0x0 c:/altera/12.0sp2/nios2eds/bin/gnu/h-i686-mingw32/bin/../lib/gcc/nios2-elf/4.1.2\libgcc.a(_thenan_sf.o)
 .text          0x01805aec      0x504 c:/altera/12.0sp2/nios2eds/bin/gnu/h-i686-mingw32/bin/../lib/gcc/nios2-elf/4.1.2\libgcc.a(_addsub_df.o)
                0x01805efc                __subdf3
                0x01805f7c                __adddf3
 .text          0x01805ff0      0x3c4 c:/altera/12.0sp2/nios2eds/bin/gnu/h-i686-mingw32/bin/../lib/gcc/nios2-elf/4.1.2\libgcc.a(_mul_df.o)
                0x01805ff0                __muldf3
 .text          0x018063b4      0x258 c:/altera/12.0sp2/nios2eds/bin/gnu/h-i686-mingw32/bin/../lib/gcc/nios2-elf/4.1.2\libgcc.a(_div_df.o)
                0x018063b4                __divdf3
 .text          0x0180660c       0x88 c:/altera/12.0sp2/nios2eds/bin/gnu/h-i686-mingw32/bin/../lib/gcc/nios2-elf/4.1.2\libgcc.a(_eq_df.o)
                0x0180660c                __eqdf2
 .text          0x01806694       0x88 c:/altera/12.0sp2/nios2eds/bin/gnu/h-i686-mingw32/bin/../lib/gcc/nios2-elf/4.1.2\libgcc.a(_gt_df.o)
                0x01806694                __gtdf2
 .text          0x0180671c       0x88 c:/altera/12.0sp2/nios2eds/bin/gnu/h-i686-mingw32/bin/../lib/gcc/nios2-elf/4.1.2\libgcc.a(_ge_df.o)
                0x0180671c                __gedf2
 .text          0x018067a4       0x88 c:/altera/12.0sp2/nios2eds/bin/gnu/h-i686-mingw32/bin/../lib/gcc/nios2-elf/4.1.2\libgcc.a(_lt_df.o)
                0x018067a4                __ltdf2
 .text          0x0180682c       0xf8 c:/altera/12.0sp2/nios2eds/bin/gnu/h-i686-mingw32/bin/../lib/gcc/nios2-elf/4.1.2\libgcc.a(_si_to_df.o)
                0x0180682c                __floatsidf
 .text          0x01806924       0xd8 c:/altera/12.0sp2/nios2eds/bin/gnu/h-i686-mingw32/bin/../lib/gcc/nios2-elf/4.1.2\libgcc.a(_df_to_si.o)
                0x01806924                __fixdfsi
 .text          0x018069fc       0x38 c:/altera/12.0sp2/nios2eds/bin/gnu/h-i686-mingw32/bin/../lib/gcc/nios2-elf/4.1.2\libgcc.a(_make_df.o)
                0x018069fc                __make_dp
 .text          0x01806a34       0x74 c:/altera/12.0sp2/nios2eds/bin/gnu/h-i686-mingw32/bin/../lib/gcc/nios2-elf/4.1.2\libgcc.a(_df_to_sf.o)
                0x01806a34                __truncdfsf2
 .text          0x01806aa8        0x0 c:/altera/12.0sp2/nios2eds/bin/gnu/h-i686-mingw32/bin/../lib/gcc/nios2-elf/4.1.2\libgcc.a(_thenan_df.o)
 .text          0x01806aa8      0x14c c:/altera/12.0sp2/nios2eds/bin/gnu/h-i686-mingw32/bin/../lib/gcc/nios2-elf/4.1.2\libgcc.a(lib2-divmod.o)
                0x01806b24                __divsi3
                0x01806b84                __modsi3
                0x01806be4                __udivsi3
                0x01806bec                __umodsi3
 .text          0x01806bf4       0x98 c:/altera/12.0sp2/nios2eds/bin/gnu/h-i686-mingw32/bin/../lib/gcc/nios2-elf/4.1.2\libgcc.a(_muldi3.o)
                0x01806bf4                __muldi3
 .text          0x01806c8c       0x80 c:/altera/12.0sp2/nios2eds/bin/gnu/h-i686-mingw32/bin/../lib/gcc/nios2-elf/4.1.2\libgcc.a(_clzsi2.o)
                0x01806c8c                __clzsi2
 .text          0x01806d0c      0x160 c:/altera/12.0sp2/nios2eds/bin/gnu/h-i686-mingw32/bin/../lib/gcc/nios2-elf/4.1.2\libgcc.a(_pack_sf.o)
                0x01806d0c                __pack_f
 .text          0x01806e6c       0xc8 c:/altera/12.0sp2/nios2eds/bin/gnu/h-i686-mingw32/bin/../lib/gcc/nios2-elf/4.1.2\libgcc.a(_unpack_sf.o)
                0x01806e6c                __unpack_f
 .text          0x01806f34       0x2c c:/altera/12.0sp2/nios2eds/bin/gnu/h-i686-mingw32/bin/../lib/gcc/nios2-elf/4.1.2\libgcc.a(_make_sf.o)
                0x01806f34                __make_fp
 .text          0x01806f60      0x314 c:/altera/12.0sp2/nios2eds/bin/gnu/h-i686-mingw32/bin/../lib/gcc/nios2-elf/4.1.2\libgcc.a(_pack_df.o)
                0x01806f60                __pack_d
 .text          0x01807274      0x138 c:/altera/12.0sp2/nios2eds/bin/gnu/h-i686-mingw32/bin/../lib/gcc/nios2-elf/4.1.2\libgcc.a(_unpack_df.o)
                0x01807274                __unpack_d
 .text          0x018073ac       0xc8 c:/altera/12.0sp2/nios2eds/bin/gnu/h-i686-mingw32/bin/../lib/gcc/nios2-elf/4.1.2\libgcc.a(_fpcmp_parts_df.o)
                0x018073ac                __fpcmp_parts_d
 .text          0x01807474        0x0 c:/altera/12.0sp2/nios2eds/bin/gnu/h-i686-mingw32/bin/../lib/gcc/nios2-elf/4.1.2\libgcc.a(_clz.o)
 .text          0x01807474       0x10 c:/altera/12.0sp2/nios2eds/bin/gnu/h-i686-mingw32/bin/../lib/gcc/nios2-elf/4.1.2/../../../../nios2-elf/lib\libc.a(lib_a-errno.o)
                0x01807474                __errno
 .text          0x01807484        0x0 c:/altera/12.0sp2/nios2eds/bin/gnu/h-i686-mingw32/bin/../lib/gcc/nios2-elf/4.1.2/../../../../nios2-elf/lib\libc.a(lib_a-impure.o)
 .text          0x01807484       0xa0 c:/altera/12.0sp2/nios2eds/bin/gnu/h-i686-mingw32/bin/../lib/gcc/nios2-elf/4.1.2/../../../../nios2-elf/lib\libc.a(lib_a-memcpy.o)
                0x01807484                memcpy
 .text          0x01807524       0x98 c:/altera/12.0sp2/nios2eds/bin/gnu/h-i686-mingw32/bin/../lib/gcc/nios2-elf/4.1.2/../../../../nios2-elf/lib\libc.a(lib_a-memset.o)
                0x01807524                memset
 .text          0x018075bc       0x78 c:/altera/12.0sp2/nios2eds/bin/gnu/h-i686-mingw32/bin/../lib/gcc/nios2-elf/4.1.2/../../../../nios2-elf/lib\libc.a(lib_a-printf.o)
                0x018075bc                printf
                0x01807600                _printf_r
 .text          0x01807634       0xd4 c:/altera/12.0sp2/nios2eds/bin/gnu/h-i686-mingw32/bin/../lib/gcc/nios2-elf/4.1.2/../../../../nios2-elf/lib\libc.a(lib_a-sprintf.o)
                0x01807634                sprintf
                0x018076a8                _sprintf_r
 .text          0x01807708     0x1f28 c:/altera/12.0sp2/nios2eds/bin/gnu/h-i686-mingw32/bin/../lib/gcc/nios2-elf/4.1.2/../../../../nios2-elf/lib\libc.a(lib_a-vfprintf.o)
                0x01807760                ___vfprintf_internal_r
                0x0180960c                __vfprintf_internal
 .text          0x01809630      0x13c c:/altera/12.0sp2/nios2eds/bin/gnu/h-i686-mingw32/bin/../lib/gcc/nios2-elf/4.1.2/../../../../nios2-elf/lib\libc.a(lib_a-wsetup.o)
                0x01809630                __swsetup_r
 .text          0x0180976c     0x17cc c:/altera/12.0sp2/nios2eds/bin/gnu/h-i686-mingw32/bin/../lib/gcc/nios2-elf/4.1.2/../../../../nios2-elf/lib\libc.a(lib_a-dtoa.o)
                0x01809984                _dtoa_r
 .text          0x0180af38      0x230 c:/altera/12.0sp2/nios2eds/bin/gnu/h-i686-mingw32/bin/../lib/gcc/nios2-elf/4.1.2/../../../../nios2-elf/lib\libc.a(lib_a-fflush.o)
                0x0180af38                _fflush_r
                0x0180b134                fflush
 .text          0x0180b168      0x2c0 c:/altera/12.0sp2/nios2eds/bin/gnu/h-i686-mingw32/bin/../lib/gcc/nios2-elf/4.1.2/../../../../nios2-elf/lib\libc.a(lib_a-findfp.o)
                0x0180b1c0                __sfp_lock_acquire
                0x0180b1c4                __sfp_lock_release
                0x0180b1c8                __sinit_lock_acquire
                0x0180b1cc                __sinit_lock_release
                0x0180b1d0                __sinit
                0x0180b284                __fp_unlock_all
                0x0180b29c                __fp_lock_all
                0x0180b2b4                _cleanup_r
                0x0180b2c0                _cleanup
                0x0180b2d0                __sfmoreglue
                0x0180b338                __sfp
 .text          0x0180b428      0x440 c:/altera/12.0sp2/nios2eds/bin/gnu/h-i686-mingw32/bin/../lib/gcc/nios2-elf/4.1.2/../../../../nios2-elf/lib\libc.a(lib_a-freer.o)
                0x0180b428                _malloc_trim_r
                0x0180b554                _free_r
 .text          0x0180b868      0x49c c:/altera/12.0sp2/nios2eds/bin/gnu/h-i686-mingw32/bin/../lib/gcc/nios2-elf/4.1.2/../../../../nios2-elf/lib\libc.a(lib_a-fvwrite.o)
                0x0180b868                __sfvwrite_r
 .text          0x0180bd04      0x180 c:/altera/12.0sp2/nios2eds/bin/gnu/h-i686-mingw32/bin/../lib/gcc/nios2-elf/4.1.2/../../../../nios2-elf/lib\libc.a(lib_a-fwalk.o)
                0x0180bd04                _fwalk_reent
                0x0180bdcc                _fwalk
 .text          0x0180be84       0xc4 c:/altera/12.0sp2/nios2eds/bin/gnu/h-i686-mingw32/bin/../lib/gcc/nios2-elf/4.1.2/../../../../nios2-elf/lib\libc.a(lib_a-locale.o)
                0x0180be84                __locale_charset
                0x0180be8c                _localeconv_r
                0x0180be98                localeconv
                0x0180bea8                _setlocale_r
                0x0180bf2c                setlocale
 .text          0x0180bf48      0x194 c:/altera/12.0sp2/nios2eds/bin/gnu/h-i686-mingw32/bin/../lib/gcc/nios2-elf/4.1.2/../../../../nios2-elf/lib\libc.a(lib_a-makebuf.o)
                0x0180bf48                __smakebuf_r
 .text          0x0180c0dc      0x740 c:/altera/12.0sp2/nios2eds/bin/gnu/h-i686-mingw32/bin/../lib/gcc/nios2-elf/4.1.2/../../../../nios2-elf/lib\libc.a(lib_a-mallocr.o)
                0x0180c0dc                _malloc_r
 .text          0x0180c81c       0xe4 c:/altera/12.0sp2/nios2eds/bin/gnu/h-i686-mingw32/bin/../lib/gcc/nios2-elf/4.1.2/../../../../nios2-elf/lib\libc.a(lib_a-memchr.o)
                0x0180c81c                memchr
 .text          0x0180c900       0xe0 c:/altera/12.0sp2/nios2eds/bin/gnu/h-i686-mingw32/bin/../lib/gcc/nios2-elf/4.1.2/../../../../nios2-elf/lib\libc.a(lib_a-memmove.o)
                0x0180c900                memmove
 .text          0x0180c9e0      0xff4 c:/altera/12.0sp2/nios2eds/bin/gnu/h-i686-mingw32/bin/../lib/gcc/nios2-elf/4.1.2/../../../../nios2-elf/lib\libc.a(lib_a-mprec.o)
                0x0180c9e0                _Bfree
                0x0180ca08                __hi0bits
                0x0180ca78                __lo0bits
                0x0180cb3c                __mcmp
                0x0180cb9c                __ulp
                0x0180cc1c                __b2d
                0x0180cd3c                __ratio
                0x0180cdec                _mprec_log10
                0x0180ce80                __copybits
                0x0180ced8                __any_on
                0x0180cf60                _Balloc
                0x0180d01c                __d2b
                0x0180d198                __mdiff
                0x0180d324                __lshift
                0x0180d470                __multiply
                0x0180d658                __i2b
                0x0180d694                __multadd
                0x0180d794                __pow5mult
                0x0180d8b4                __s2b
 .text          0x0180d9d4      0x5f4 c:/altera/12.0sp2/nios2eds/bin/gnu/h-i686-mingw32/bin/../lib/gcc/nios2-elf/4.1.2/../../../../nios2-elf/lib\libc.a(lib_a-reallocr.o)
                0x0180d9d4                _realloc_r
 .text          0x0180dfc8       0x40 c:/altera/12.0sp2/nios2eds/bin/gnu/h-i686-mingw32/bin/../lib/gcc/nios2-elf/4.1.2/../../../../nios2-elf/lib\libc.a(lib_a-s_isinfd.o)
                0x0180dfc8                __isinfd
 .text          0x0180e008       0x70 c:/altera/12.0sp2/nios2eds/bin/gnu/h-i686-mingw32/bin/../lib/gcc/nios2-elf/4.1.2/../../../../nios2-elf/lib\libc.a(lib_a-sbrkr.o)
                0x0180e008                _sbrk_r
 .text          0x0180e078      0x14c c:/altera/12.0sp2/nios2eds/bin/gnu/h-i686-mingw32/bin/../lib/gcc/nios2-elf/4.1.2/../../../../nios2-elf/lib\libc.a(lib_a-stdio.o)
                0x0180e078                __sclose
                0x0180e080                __sseek
                0x0180e0e8                __swrite
                0x0180e164                __sread
 .text          0x0180e1c4       0xbc c:/altera/12.0sp2/nios2eds/bin/gnu/h-i686-mingw32/bin/../lib/gcc/nios2-elf/4.1.2/../../../../nios2-elf/lib\libc.a(lib_a-strcmp.o)
                0x0180e1c4                strcmp
 .text          0x0180e280       0x74 c:/altera/12.0sp2/nios2eds/bin/gnu/h-i686-mingw32/bin/../lib/gcc/nios2-elf/4.1.2/../../../../nios2-elf/lib\libc.a(lib_a-strlen.o)
                0x0180e280                strlen
 .text          0x0180e2f4       0x78 c:/altera/12.0sp2/nios2eds/bin/gnu/h-i686-mingw32/bin/../lib/gcc/nios2-elf/4.1.2/../../../../nios2-elf/lib\libc.a(lib_a-writer.o)
                0x0180e2f4                _write_r
 .text          0x0180e36c       0xb4 c:/altera/12.0sp2/nios2eds/bin/gnu/h-i686-mingw32/bin/../lib/gcc/nios2-elf/4.1.2/../../../../nios2-elf/lib\libc.a(lib_a-callocr.o)
                0x0180e36c                _calloc_r
 .text          0x0180e420       0x70 c:/altera/12.0sp2/nios2eds/bin/gnu/h-i686-mingw32/bin/../lib/gcc/nios2-elf/4.1.2/../../../../nios2-elf/lib\libc.a(lib_a-closer.o)
                0x0180e420                _close_r
 .text          0x0180e490      0x124 c:/altera/12.0sp2/nios2eds/bin/gnu/h-i686-mingw32/bin/../lib/gcc/nios2-elf/4.1.2/../../../../nios2-elf/lib\libc.a(lib_a-fclose.o)
                0x0180e490                _fclose_r
                0x0180e5a0                fclose
 .text          0x0180e5b4       0x74 c:/altera/12.0sp2/nios2eds/bin/gnu/h-i686-mingw32/bin/../lib/gcc/nios2-elf/4.1.2/../../../../nios2-elf/lib\libc.a(lib_a-fstatr.o)
                0x0180e5b4                _fstat_r
 .text          0x0180e628        0x0 c:/altera/12.0sp2/nios2eds/bin/gnu/h-i686-mingw32/bin/../lib/gcc/nios2-elf/4.1.2/../../../../nios2-elf/lib\libc.a(lib_a-int_errno.o)
 .text          0x0180e628       0x70 c:/altera/12.0sp2/nios2eds/bin/gnu/h-i686-mingw32/bin/../lib/gcc/nios2-elf/4.1.2/../../../../nios2-elf/lib\libc.a(lib_a-isattyr.o)
                0x0180e628                _isatty_r
 .text          0x0180e698       0x78 c:/altera/12.0sp2/nios2eds/bin/gnu/h-i686-mingw32/bin/../lib/gcc/nios2-elf/4.1.2/../../../../nios2-elf/lib\libc.a(lib_a-lseekr.o)
                0x0180e698                _lseek_r
 .text          0x0180e710       0x78 c:/altera/12.0sp2/nios2eds/bin/gnu/h-i686-mingw32/bin/../lib/gcc/nios2-elf/4.1.2/../../../../nios2-elf/lib\libc.a(lib_a-readr.o)
                0x0180e710                _read_r
 .text          0x0180e788      0x5dc c:/altera/12.0sp2/nios2eds/bin/gnu/h-i686-mingw32/bin/../lib/gcc/nios2-elf/4.1.2\libgcc.a(_udivdi3.o)
                0x0180e788                __udivdi3
 .text          0x0180ed64      0x5b0 c:/altera/12.0sp2/nios2eds/bin/gnu/h-i686-mingw32/bin/../lib/gcc/nios2-elf/4.1.2\libgcc.a(_umoddi3.o)
                0x0180ed64                __umoddi3
 .text          0x0180f314       0x88 c:/altera/12.0sp2/nios2eds/bin/gnu/h-i686-mingw32/bin/../lib/gcc/nios2-elf/4.1.2\libgcc.a(_ne_df.o)
                0x0180f314                __nedf2
 .text          0x0180f39c      0x194 c:/altera/12.0sp2/nios2eds/bin/gnu/h-i686-mingw32/bin/../lib/gcc/nios2-elf/4.1.2\libgcc.a(_usi_to_df.o)
                0x0180f39c                __floatunsidf
 .text          0x0180f530      0x15c ../microCTest_bsp/\libucosii_bsp.a(alt_close.o)
                0x0180f530                close
 .text          0x0180f68c       0x2c ../microCTest_bsp/\libucosii_bsp.a(alt_dev.o)
 .text          0x0180f6b8        0x0 ../microCTest_bsp/\libucosii_bsp.a(alt_errno.o)
 .text          0x0180f6b8      0x134 ../microCTest_bsp/\libucosii_bsp.a(alt_fstat.o)
                0x0180f6b8                fstat
 .text          0x0180f7ec      0x120 ../microCTest_bsp/\libucosii_bsp.a(alt_isatty.o)
                0x0180f7ec                isatty
 .text          0x0180f90c      0x150 ../microCTest_bsp/\libucosii_bsp.a(alt_lseek.o)
                0x0180f90c                lseek
 .text          0x0180fa5c       0xc8 ../microCTest_bsp/\libucosii_bsp.a(alt_main.o)
                0x0180fa5c                alt_main
 .text          0x0180fb24      0x180 ../microCTest_bsp/\libucosii_bsp.a(alt_read.o)
                0x0180fb24                read
 .text          0x0180fca4       0x60 ../microCTest_bsp/\libucosii_bsp.a(alt_release_fd.o)
                0x0180fca4                alt_release_fd
 .text          0x0180fd04       0xbc ../microCTest_bsp/\libucosii_bsp.a(alt_sbrk.o)
                0x0180fd04                sbrk
 .text          0x0180fdc0      0x118 ../microCTest_bsp/\libucosii_bsp.a(alt_usleep.o)
                0x0180fdc0                usleep
 .text          0x0180fed8      0x180 ../microCTest_bsp/\libucosii_bsp.a(alt_write.o)
                0x0180fed8                write
 .text          0x01810058      0x108 ../microCTest_bsp/\libucosii_bsp.a(alt_env_lock.o)
                0x01810058                __env_lock
                0x01810104                __env_unlock
 .text          0x01810160      0x1d8 ../microCTest_bsp/\libucosii_bsp.a(alt_malloc_lock.o)
                0x01810160                __malloc_lock
                0x01810268                __malloc_unlock
 .text          0x01810338     0x2128 ../microCTest_bsp/\libucosii_bsp.a(os_core.o)
                0x01810338                OSEventNameGet
                0x01810468                OSEventNameSet
                0x018105ac                OSEventPendMulti
                0x01810c60                OSInit
                0x01810cb4                OSIntEnter
                0x01810d30                OSIntExit
                0x01810e30                OSSchedLock
                0x01810ebc                OSSchedUnlock
                0x01810fa0                OSStart
                0x01811010                OSStatInit
                0x018110bc                OSTimeTick
                0x018112fc                OSVersion
                0x0181131c                OS_Dummy
                0x01811338                OS_EventTaskRdy
                0x018114cc                OS_EventTaskWait
                0x018115dc                OS_EventTaskWaitMulti
                0x01811730                OS_EventTaskRemove
                0x018117e8                OS_EventTaskRemoveMulti
                0x018118ec                OS_EventWaitListInit
                0x01811cb8                OS_MemClr
                0x01811d0c                OS_MemCopy
                0x01811d78                OS_Sched
                0x01811ebc                OS_StrCopy
                0x01811f3c                OS_StrLen
                0x01811f94                OS_TaskIdle
                0x01811ff0                OS_TaskStat
                0x018120b8                OS_TaskStatStkChk
                0x01812180                OS_TCBInit
 .text          0x01812460      0x18c ../microCTest_bsp/\libucosii_bsp.a(os_dbg.o)
                0x01812460                OSDebugInit
 .text          0x018125ec     0x193c ../microCTest_bsp/\libucosii_bsp.a(os_flag.o)
                0x018125ec                OSFlagAccept
                0x01812920                OSFlagCreate
                0x01812a5c                OSFlagDel
                0x01812d04                OSFlagNameGet
                0x01812e48                OSFlagNameSet
                0x01812f9c                OSFlagPend
                0x018135e0                OSFlagPendGetFlagsRdy
                0x01813648                OSFlagPost
                0x018139f0                OSFlagQuery
                0x01813c88                OS_FlagInit
                0x01813e7c                OS_FlagUnlink
 .text          0x01813f28      0x808 ../microCTest_bsp/\libucosii_bsp.a(os_mem.o)
                0x01813f28                OSMemCreate
                0x01814144                OSMemGet
                0x01814248                OSMemNameGet
                0x01814354                OSMemNameSet
                0x01814474                OSMemPut
                0x01814564                OSMemQuery
                0x01814660                OS_MemInit
 .text          0x01814730     0x1334 ../microCTest_bsp/\libucosii_bsp.a(os_q.o)
                0x01814730                OSQAccept
                0x01814884                OSQCreate
                0x01814a98                OSQDel
                0x01814d98                OSQFlush
                0x01814e60                OSQPend
                0x01815180                OSQPendAbort
                0x018152fc                OSQPost
                0x0181547c                OSQPostFront
                0x01815604                OSQPostOpt
                0x01815838                OSQQuery
                0x018159b8                OS_QInit
 .text          0x01815a64      0xbc8 ../microCTest_bsp/\libucosii_bsp.a(os_sem.o)
                0x01815a64                OSSemAccept
                0x01815b24                OSSemCreate
                0x01815c38                OSSemDel
                0x01815ed8                OSSemPend
                0x01816154                OSSemPendAbort
                0x018162d0                OSSemPost
                0x018163f8                OSSemQuery
                0x01816528                OSSemSet
 .text          0x0181662c     0x1a40 ../microCTest_bsp/\libucosii_bsp.a(os_task.o)
                0x0181662c                OSTaskChangePrio
                0x01816ba0                OSTaskCreate
                0x01816d74                OSTaskCreateExt
                0x01816f74                OSTaskDel
                0x01817380                OSTaskDelReq
                0x018174f0                OSTaskNameGet
                0x018176a8                OSTaskNameSet
                0x0181786c                OSTaskResume
                0x01817a84                OSTaskStkChk
                0x01817c80                OSTaskSuspend
                0x01817eac                OSTaskQuery
                0x01817ff0                OS_TaskStkClr
 .text          0x0181806c      0x590 ../microCTest_bsp/\libucosii_bsp.a(os_time.o)
                0x0181806c                OSTimeDly
                0x018181b8                OSTimeDlyHMSM
                0x01818324                OSTimeDlyResume
                0x01818534                OSTimeGet
                0x01818598                OSTimeSet
 .text          0x018185fc      0x128 ../microCTest_bsp/\libucosii_bsp.a(alt_sys_init.o)
                0x018185fc                alt_irq_init
                0x01818630                alt_sys_init
 .text          0x01818724      0x8d8 ../microCTest_bsp/\libucosii_bsp.a(altera_avalon_cfi_flash.o)
                0x01818724                alt_flash_cfi_init
                0x018187f8                alt_flash_cfi_write
                0x01818ab8                alt_flash_cfi_get_info
                0x01818b48                alt_flash_cfi_read
                0x01818bb0                alt_write_value_to_flash
                0x01818d14                alt_flash_program_block
 .text          0x01818ffc     0x1448 ../microCTest_bsp/\libucosii_bsp.a(altera_avalon_cfi_flash_table.o)
                0x01818ffc                alt_read_query_entry_8bit
                0x0181903c                alt_read_query_entry_16bit
                0x01819080                alt_read_query_entry_32bit
                0x018190c8                alt_write_flash_command_8bit_device_8bit_mode
                0x01819104                alt_write_flash_command_16bit_device_8bit_mode
                0x01819180                alt_write_flash_command_32bit_device_8bit_mode
                0x018191c8                alt_write_flash_command_16bit_device_16bit_mode
                0x0181920c                alt_write_flash_command_32bit_device_16bit_mode
                0x01819254                alt_write_flash_command_32bit_device_32bit_mode
                0x0181929c                alt_write_native_8bit
                0x018192d0                alt_write_native_16bit
                0x01819304                alt_write_native_32bit
                0x01819334                alt_set_flash_width_func
                0x01819514                alt_set_flash_algorithm_func
                0x0181963c                alt_read_cfi_table
                0x01819bbc                alt_read_cfi_width
                0x0181a368                alt_check_primary_table
 .text          0x0181a444      0x148 ../microCTest_bsp/\libucosii_bsp.a(altera_avalon_jtag_uart_fd.o)
                0x0181a444                altera_avalon_jtag_uart_read_fd
                0x0181a49c                altera_avalon_jtag_uart_write_fd
                0x0181a4f4                altera_avalon_jtag_uart_close_fd
                0x0181a53c                altera_avalon_jtag_uart_ioctl_fd
 .text          0x0181a58c      0x584 ../microCTest_bsp/\libucosii_bsp.a(altera_avalon_jtag_uart_init.o)
                0x0181a58c                altera_avalon_jtag_uart_init
                0x0181aa9c                altera_avalon_jtag_uart_close
 .text          0x0181ab10       0xf4 ../microCTest_bsp/\libucosii_bsp.a(altera_avalon_jtag_uart_ioctl.o)
                0x0181ab10                altera_avalon_jtag_uart_ioctl
 .text          0x0181ac04      0x2c0 ../microCTest_bsp/\libucosii_bsp.a(altera_avalon_jtag_uart_read.o)
                0x0181ac04                altera_avalon_jtag_uart_read
 .text          0x0181aec4      0x2dc ../microCTest_bsp/\libucosii_bsp.a(altera_avalon_jtag_uart_write.o)
                0x0181aec4                altera_avalon_jtag_uart_write
 .text          0x0181b1a0      0xf34 ../microCTest_bsp/\libucosii_bsp.a(altera_avalon_lcd_16207.o)
                0x0181b974                altera_avalon_lcd_16207_write
                0x0181bf70                altera_avalon_lcd_16207_init
 .text          0x0181c0d4       0x58 ../microCTest_bsp/\libucosii_bsp.a(altera_avalon_lcd_16207_fd.o)
                0x0181c0d4                altera_avalon_lcd_16207_write_fd
 .text          0x0181c12c      0x100 ../microCTest_bsp/\libucosii_bsp.a(altera_avalon_timer_sc.o)
                0x0181c19c                alt_avalon_timer_sc_init
 .text          0x0181c22c        0x0 ../microCTest_bsp/\libucosii_bsp.a(altera_avalon_timer_vars.o)
 .text          0x0181c22c       0xf8 ../microCTest_bsp/\libucosii_bsp.a(altera_avalon_uart_fd.o)
                0x0181c22c                altera_avalon_uart_read_fd
                0x0181c284                altera_avalon_uart_write_fd
                0x0181c2dc                altera_avalon_uart_close_fd
 .text          0x0181c324      0x57c ../microCTest_bsp/\libucosii_bsp.a(altera_avalon_uart_init.o)
                0x0181c324                altera_avalon_uart_init
                0x0181c840                altera_avalon_uart_close
 .text          0x0181c8a0      0x310 ../microCTest_bsp/\libucosii_bsp.a(altera_avalon_uart_read.o)
                0x0181c8a0                altera_avalon_uart_read
 .text          0x0181cbb0      0x2a8 ../microCTest_bsp/\libucosii_bsp.a(altera_avalon_uart_write.o)
                0x0181cbb0                altera_avalon_uart_write
 .text          0x0181ce58      0x154 ../microCTest_bsp/\libucosii_bsp.a(alt_alarm_start.o)
                0x0181ce58                alt_alarm_start
 .text          0x0181cfac      0x12c ../microCTest_bsp/\libucosii_bsp.a(alt_busy_sleep.o)
                0x0181cfac                alt_busy_sleep
 .text          0x0181d0d8       0x78 ../microCTest_bsp/\libucosii_bsp.a(alt_dcache_flush.o)
                0x0181d0d8                alt_dcache_flush
 .text          0x0181d150      0x114 ../microCTest_bsp/\libucosii_bsp.a(alt_dev_llist_insert.o)
                0x0181d150                alt_dev_llist_insert
 .text          0x0181d264       0x64 ../microCTest_bsp/\libucosii_bsp.a(alt_do_ctors.o)
                0x0181d264                _do_ctors
 .text          0x0181d2c8       0x64 ../microCTest_bsp/\libucosii_bsp.a(alt_do_dtors.o)
                0x0181d2c8                _do_dtors
 .text          0x0181d32c       0xd0 ../microCTest_bsp/\libucosii_bsp.a(alt_flash_dev.o)
                0x0181d32c                alt_flash_open_dev
                0x0181d3a8                alt_flash_close_dev
 .text          0x0181d3fc      0x1d4 ../microCTest_bsp/\libucosii_bsp.a(alt_iic.o)
                0x0181d3fc                alt_ic_isr_register
                0x0181d44c                alt_ic_irq_enable
                0x0181d4e8                alt_ic_irq_disable
                0x0181d588                alt_ic_irq_enabled
 .text          0x0181d5d0       0xf8 ../microCTest_bsp/\libucosii_bsp.a(alt_iic_isr_register.o)
                0x0181d5d0                alt_iic_isr_register
 .text          0x0181d6c8      0x13c ../microCTest_bsp/\libucosii_bsp.a(alt_io_redirect.o)
                0x0181d78c                alt_io_redirect
 .text          0x0181d804        0x0 ../microCTest_bsp/\libucosii_bsp.a(alt_irq_entry.o)
 .text          0x0181d804        0x0 ../microCTest_bsp/\libucosii_bsp.a(alt_irq_handler.o)
 .text          0x0181d804        0x0 ../microCTest_bsp/\libucosii_bsp.a(alt_irq_vars.o)
 .text          0x0181d804      0x2c4 ../microCTest_bsp/\libucosii_bsp.a(alt_open.o)
                0x0181d8e0                open
 .text          0x0181dac8      0x1a8 ../microCTest_bsp/\libucosii_bsp.a(alt_tick.o)
                0x0181dac8                alt_alarm_stop
                0x0181db60                alt_tick
 .text          0x0181dc70       0x20 ../microCTest_bsp/\libucosii_bsp.a(altera_nios2_irq.o)
                0x0181dc70                altera_nios2_irq_init
 .text          0x0181dc90       0xd0 ../microCTest_bsp/\libucosii_bsp.a(os_cpu_a.o)
                0x0181dc90                OSCtxSw
                0x0181dc90                OSIntCtxSw
                0x0181dd1c                OSStartHighRdy
                0x0181dd3c                OSStartTsk
 .text          0x0181dd60      0x418 ../microCTest_bsp/\libucosii_bsp.a(os_cpu_c.o)
                0x0181dd60                OSTaskStkInit
                0x0181e070                OSTaskCreateHook
                0x0181e090                OSTaskDelHook
                0x0181e0b0                OSTaskSwHook
                0x0181e0cc                OSTaskStatHook
                0x0181e0e8                OSTimeTickHook
                0x0181e104                OSInitHookBegin
                0x0181e120                OSInitHookEnd
                0x0181e13c                OSTaskIdleHook
                0x0181e158                OSTCBInitHook
 .text          0x0181e178      0x460 ../microCTest_bsp/\libucosii_bsp.a(altera_avalon_cfi_flash_amd.o)
                0x0181e178                alt_program_amd
                0x0181e1e0                alt_erase_block_amd
 .text          0x0181e5d8      0x460 ../microCTest_bsp/\libucosii_bsp.a(altera_avalon_cfi_flash_intel.o)
                0x0181e5d8                alt_program_intel
                0x0181e65c                alt_erase_block_intel
 .text          0x0181ea38        0x0 ../microCTest_bsp/\libucosii_bsp.a(alt_exception_entry.o)
 .text          0x0181ea38       0x94 ../microCTest_bsp/\libucosii_bsp.a(alt_find_dev.o)
                0x0181ea38                alt_find_dev
 .text          0x0181eacc      0x120 ../microCTest_bsp/\libucosii_bsp.a(alt_find_file.o)
                0x0181eacc                alt_find_file
 .text          0x0181ebec       0xf4 ../microCTest_bsp/\libucosii_bsp.a(alt_get_fd.o)
                0x0181ebec                alt_get_fd
 .text          0x0181ece0       0xdc ../microCTest_bsp/\libucosii_bsp.a(alt_instruction_exception_entry.o)
                0x0181ece0                alt_exception_cause_generated_bad_addr
 .text          0x0181edbc       0x14 c:/altera/12.0sp2/nios2eds/bin/gnu/h-i686-mingw32/bin/../lib/gcc/nios2-elf/4.1.2/../../../../nios2-elf/lib\libc.a(lib_a-atexit.o)
                0x0181edbc                atexit
 .text          0x0181edd0        0x0 c:/altera/12.0sp2/nios2eds/bin/gnu/h-i686-mingw32/bin/../lib/gcc/nios2-elf/4.1.2/../../../../nios2-elf/lib\libc.a(lib_a-ctype_.o)
 .text          0x0181edd0       0x38 c:/altera/12.0sp2/nios2eds/bin/gnu/h-i686-mingw32/bin/../lib/gcc/nios2-elf/4.1.2/../../../../nios2-elf/lib\libc.a(lib_a-exit.o)
                0x0181edd0                exit
 .text          0x0181ee08       0x74 c:/altera/12.0sp2/nios2eds/bin/gnu/h-i686-mingw32/bin/../lib/gcc/nios2-elf/4.1.2/../../../../nios2-elf/lib\libc.a(lib_a-memcmp.o)
                0x0181ee08                memcmp
 .text          0x0181ee7c      0x134 c:/altera/12.0sp2/nios2eds/bin/gnu/h-i686-mingw32/bin/../lib/gcc/nios2-elf/4.1.2/../../../../nios2-elf/lib\libc.a(lib_a-__atexit.o)
                0x0181ee7c                __register_exitproc
 .text          0x0181efb0      0x1b4 c:/altera/12.0sp2/nios2eds/bin/gnu/h-i686-mingw32/bin/../lib/gcc/nios2-elf/4.1.2/../../../../nios2-elf/lib\libc.a(lib_a-__call_atexit.o)
                0x0181efb4                __call_exitprocs
 .text          0x0181f164       0x6c ../microCTest_bsp/\libucosii_bsp.a(alt_exit.o)
                0x0181f1a4                _exit
 *(.gnu.warning.*)
 *(.fini)
                0x0181f1d0                PROVIDE (__etext, ABSOLUTE (.))
                0x0181f1d0                PROVIDE (_etext, ABSOLUTE (.))
                0x0181f1d0                PROVIDE (etext, ABSOLUTE (.))
 *(.eh_frame_hdr)
                0x0181f1d0                . = ALIGN (0x4)
                0x0181f1d0                PROVIDE (__preinit_array_start, ABSOLUTE (.))
 *(.preinit_array)
                0x0181f1d0                PROVIDE (__preinit_array_end, ABSOLUTE (.))
                0x0181f1d0                PROVIDE (__init_array_start, ABSOLUTE (.))
 *(.init_array)
                0x0181f1d0                PROVIDE (__init_array_end, ABSOLUTE (.))
                0x0181f1d0                PROVIDE (__fini_array_start, ABSOLUTE (.))
 *(.fini_array)
                0x0181f1d0                PROVIDE (__fini_array_end, ABSOLUTE (.))
 *(.eh_frame)
 .eh_frame      0x0181f1d0       0x40 c:/altera/12.0sp2/nios2eds/bin/gnu/h-i686-mingw32/bin/../lib/gcc/nios2-elf/4.1.2\libgcc.a(_udivdi3.o)
 .eh_frame      0x0181f210       0x2c c:/altera/12.0sp2/nios2eds/bin/gnu/h-i686-mingw32/bin/../lib/gcc/nios2-elf/4.1.2\libgcc.a(_umoddi3.o)
                                 0x40 (size before relaxing)
 *(.gcc_except_table)
 *(.dynamic)
                0x0181f23c                PROVIDE (__CTOR_LIST__, ABSOLUTE (.))
 *(.ctors)
 *(SORT(.ctors.*))
 .ctors.65535   0x0181f23c        0x4 c:/altera/12.0sp2/nios2eds/bin/gnu/h-i686-mingw32/bin/../lib/gcc/nios2-elf/4.1.2/../../../../nios2-elf/lib\libc.a(lib_a-__call_atexit.o)
                0x0181f240                PROVIDE (__CTOR_END__, ABSOLUTE (.))
                0x0181f240                PROVIDE (__DTOR_LIST__, ABSOLUTE (.))
 *(.dtors)
 *(SORT(.dtors.*))
                0x0181f240                PROVIDE (__DTOR_END__, ABSOLUTE (.))
 *(.jcr)
                0x0181f240                . = ALIGN (0x4)

.rodata         0x0181f240      0xaac
                0x0181f240                PROVIDE (__ram_rodata_start, ABSOLUTE (.))
                0x0181f240                . = ALIGN (0x4)
 *(.rodata .rodata.* .gnu.linkonce.r.*)
 .rodata        0x0181f240      0x174 obj/default/hello_ucosii.o
 .rodata.str1.4
                0x0181f3b4        0x5 c:/altera/12.0sp2/nios2eds/bin/gnu/h-i686-mingw32/bin/../lib/gcc/nios2-elf/4.1.2/../../../../nios2-elf/lib\libm.a(lib_a-w_sqrt.o)
                                  0x8 (size before relaxing)
 *fill*         0x0181f3b9        0x3 00
 .rodata        0x0181f3bc      0x188 c:/altera/12.0sp2/nios2eds/bin/gnu/h-i686-mingw32/bin/../lib/gcc/nios2-elf/4.1.2/../../../../nios2-elf/lib\libm.a(lib_a-e_rem_pio2.o)
 .rodata        0x0181f544       0x50 c:/altera/12.0sp2/nios2eds/bin/gnu/h-i686-mingw32/bin/../lib/gcc/nios2-elf/4.1.2/../../../../nios2-elf/lib\libm.a(lib_a-k_rem_pio2.o)
 .rodata        0x0181f594       0x40 c:/altera/12.0sp2/nios2eds/bin/gnu/h-i686-mingw32/bin/../lib/gcc/nios2-elf/4.1.2/../../../../nios2-elf/lib\libm.a(lib_a-s_atan.o)
 .rodata        0x0181f5d4       0x10 c:/altera/12.0sp2/nios2eds/bin/gnu/h-i686-mingw32/bin/../lib/gcc/nios2-elf/4.1.2\libgcc.a(_thenan_sf.o)
                0x0181f5d4                __thenan_sf
 .rodata        0x0181f5e4       0x14 c:/altera/12.0sp2/nios2eds/bin/gnu/h-i686-mingw32/bin/../lib/gcc/nios2-elf/4.1.2\libgcc.a(_thenan_df.o)
                0x0181f5e4                __thenan_df
 .rodata        0x0181f5f8      0x100 c:/altera/12.0sp2/nios2eds/bin/gnu/h-i686-mingw32/bin/../lib/gcc/nios2-elf/4.1.2\libgcc.a(_clz.o)
                0x0181f5f8                __clz_tab
 .rodata.str1.4
                0x0181f6f8        0x2 c:/altera/12.0sp2/nios2eds/bin/gnu/h-i686-mingw32/bin/../lib/gcc/nios2-elf/4.1.2/../../../../nios2-elf/lib\libc.a(lib_a-impure.o)
                                  0x4 (size before relaxing)
 *fill*         0x0181f6fa        0x2 00
 .rodata.str1.4
                0x0181f6fc       0x5e c:/altera/12.0sp2/nios2eds/bin/gnu/h-i686-mingw32/bin/../lib/gcc/nios2-elf/4.1.2/../../../../nios2-elf/lib\libc.a(lib_a-vfprintf.o)
                                 0x60 (size before relaxing)
 .rodata        0x0181f75a       0x20 c:/altera/12.0sp2/nios2eds/bin/gnu/h-i686-mingw32/bin/../lib/gcc/nios2-elf/4.1.2/../../../../nios2-elf/lib\libc.a(lib_a-vfprintf.o)
 *fill*         0x0181f77a        0x2 00
 .rodata.str1.4
                0x0181f77c       0x10 c:/altera/12.0sp2/nios2eds/bin/gnu/h-i686-mingw32/bin/../lib/gcc/nios2-elf/4.1.2/../../../../nios2-elf/lib\libc.a(lib_a-dtoa.o)
                                 0x14 (size before relaxing)
 .rodata.str1.4
                0x0181f78c       0x10 c:/altera/12.0sp2/nios2eds/bin/gnu/h-i686-mingw32/bin/../lib/gcc/nios2-elf/4.1.2/../../../../nios2-elf/lib\libc.a(lib_a-locale.o)
                                 0x18 (size before relaxing)
 .rodata        0x0181f79c       0x30 c:/altera/12.0sp2/nios2eds/bin/gnu/h-i686-mingw32/bin/../lib/gcc/nios2-elf/4.1.2/../../../../nios2-elf/lib\libc.a(lib_a-locale.o)
 .rodata        0x0181f7cc      0x124 c:/altera/12.0sp2/nios2eds/bin/gnu/h-i686-mingw32/bin/../lib/gcc/nios2-elf/4.1.2/../../../../nios2-elf/lib\libc.a(lib_a-mprec.o)
                0x0181f7cc                __mprec_tens
                0x0181f894                __mprec_bigtens
                0x0181f8bc                __mprec_tinytens
 .rodata        0x0181f8f0        0xc ../microCTest_bsp/\libucosii_bsp.a(alt_dev.o)
 .rodata        0x0181f8fc       0x10 ../microCTest_bsp/\libucosii_bsp.a(alt_main.o)
 .rodata        0x0181f90c      0x120 ../microCTest_bsp/\libucosii_bsp.a(os_core.o)
                0x0181f90c                OSUnMapTbl
 .rodata        0x0181fa2c       0x38 ../microCTest_bsp/\libucosii_bsp.a(alt_sys_init.o)
 .rodata        0x0181fa64        0x4 ../microCTest_bsp/\libucosii_bsp.a(os_cpu_c.o)
 .rodata        0x0181fa68      0x281 c:/altera/12.0sp2/nios2eds/bin/gnu/h-i686-mingw32/bin/../lib/gcc/nios2-elf/4.1.2/../../../../nios2-elf/lib\libc.a(lib_a-ctype_.o)
                0x0181fa68                _ctype_
 *(.rodata1)
                0x0181fcec                . = ALIGN (0x4)
 *fill*         0x0181fce9        0x3 00
                0x0181fcec                PROVIDE (__ram_rodata_end, ABSOLUTE (.))
                0x0181f240                PROVIDE (__flash_rodata_start, LOADADDR (.rodata))

.rwdata         0x0181fcec     0x1dc4
                0x0181fcec                PROVIDE (__ram_rwdata_start, ABSOLUTE (.))
                0x0181fcec                . = ALIGN (0x4)
 *(.got.plt)
 *(.got)
 *(.data1)
 *(.data .data.* .gnu.linkonce.d.*)
 .data          0x0181fcec        0x0 ../microCTest_bsp//obj/HAL/src/crt0.o
 .data          0x0181fcec        0x0 obj/default/IK.o
 .data          0x0181fcec        0x0 obj/default/hello_ucosii.o
 .data          0x0181fcec        0x0 obj/default/keypad.o
 .data          0x0181fcec        0x0 obj/default/lcd.o
 .data          0x0181fcec        0x0 obj/default/pwm.o
 .data          0x0181fcec        0x0 obj/default/utilities.o
 .data          0x0181fcec        0x0 c:/altera/12.0sp2/nios2eds/bin/gnu/h-i686-mingw32/bin/../lib/gcc/nios2-elf/4.1.2/../../../../nios2-elf/lib\libm.a(lib_a-s_cos.o)
 .data          0x0181fcec        0x0 c:/altera/12.0sp2/nios2eds/bin/gnu/h-i686-mingw32/bin/../lib/gcc/nios2-elf/4.1.2/../../../../nios2-elf/lib\libm.a(lib_a-s_round.o)
 .data          0x0181fcec        0x0 c:/altera/12.0sp2/nios2eds/bin/gnu/h-i686-mingw32/bin/../lib/gcc/nios2-elf/4.1.2/../../../../nios2-elf/lib\libm.a(lib_a-s_sin.o)
 .data          0x0181fcec        0x0 c:/altera/12.0sp2/nios2eds/bin/gnu/h-i686-mingw32/bin/../lib/gcc/nios2-elf/4.1.2/../../../../nios2-elf/lib\libm.a(lib_a-w_atan2.o)
 .data          0x0181fcec        0x0 c:/altera/12.0sp2/nios2eds/bin/gnu/h-i686-mingw32/bin/../lib/gcc/nios2-elf/4.1.2/../../../../nios2-elf/lib\libm.a(lib_a-w_sqrt.o)
 .data          0x0181fcec        0x0 c:/altera/12.0sp2/nios2eds/bin/gnu/h-i686-mingw32/bin/../lib/gcc/nios2-elf/4.1.2/../../../../nios2-elf/lib\libm.a(lib_a-e_atan2.o)
 .data          0x0181fcec        0x0 c:/altera/12.0sp2/nios2eds/bin/gnu/h-i686-mingw32/bin/../lib/gcc/nios2-elf/4.1.2/../../../../nios2-elf/lib\libm.a(lib_a-e_rem_pio2.o)
 .data          0x0181fcec        0x0 c:/altera/12.0sp2/nios2eds/bin/gnu/h-i686-mingw32/bin/../lib/gcc/nios2-elf/4.1.2/../../../../nios2-elf/lib\libm.a(lib_a-e_sqrt.o)
 .data          0x0181fcec        0x0 c:/altera/12.0sp2/nios2eds/bin/gnu/h-i686-mingw32/bin/../lib/gcc/nios2-elf/4.1.2/../../../../nios2-elf/lib\libm.a(lib_a-k_cos.o)
 .data          0x0181fcec        0x0 c:/altera/12.0sp2/nios2eds/bin/gnu/h-i686-mingw32/bin/../lib/gcc/nios2-elf/4.1.2/../../../../nios2-elf/lib\libm.a(lib_a-k_rem_pio2.o)
 .data          0x0181fcec        0x0 c:/altera/12.0sp2/nios2eds/bin/gnu/h-i686-mingw32/bin/../lib/gcc/nios2-elf/4.1.2/../../../../nios2-elf/lib\libm.a(lib_a-k_sin.o)
 .data          0x0181fcec        0x0 c:/altera/12.0sp2/nios2eds/bin/gnu/h-i686-mingw32/bin/../lib/gcc/nios2-elf/4.1.2/../../../../nios2-elf/lib\libm.a(lib_a-s_atan.o)
 .data          0x0181fcec        0x0 c:/altera/12.0sp2/nios2eds/bin/gnu/h-i686-mingw32/bin/../lib/gcc/nios2-elf/4.1.2/../../../../nios2-elf/lib\libm.a(lib_a-s_fabs.o)
 .data          0x0181fcec        0x0 c:/altera/12.0sp2/nios2eds/bin/gnu/h-i686-mingw32/bin/../lib/gcc/nios2-elf/4.1.2/../../../../nios2-elf/lib\libm.a(lib_a-s_floor.o)
 .data          0x0181fcec        0x0 c:/altera/12.0sp2/nios2eds/bin/gnu/h-i686-mingw32/bin/../lib/gcc/nios2-elf/4.1.2/../../../../nios2-elf/lib\libm.a(lib_a-s_isnand.o)
 .data          0x0181fcec        0x0 c:/altera/12.0sp2/nios2eds/bin/gnu/h-i686-mingw32/bin/../lib/gcc/nios2-elf/4.1.2/../../../../nios2-elf/lib\libm.a(lib_a-s_lib_ver.o)
 .data          0x0181fcec        0x0 c:/altera/12.0sp2/nios2eds/bin/gnu/h-i686-mingw32/bin/../lib/gcc/nios2-elf/4.1.2/../../../../nios2-elf/lib\libm.a(lib_a-s_matherr.o)
 .data          0x0181fcec        0x0 c:/altera/12.0sp2/nios2eds/bin/gnu/h-i686-mingw32/bin/../lib/gcc/nios2-elf/4.1.2/../../../../nios2-elf/lib\libm.a(lib_a-s_scalbn.o)
 .data          0x0181fcec        0x0 c:/altera/12.0sp2/nios2eds/bin/gnu/h-i686-mingw32/bin/../lib/gcc/nios2-elf/4.1.2/../../../../nios2-elf/lib\libm.a(lib_a-s_copysign.o)
 .data          0x0181fcec        0x0 c:/altera/12.0sp2/nios2eds/bin/gnu/h-i686-mingw32/bin/../lib/gcc/nios2-elf/4.1.2\libgcc.a(_div_sf.o)
 .data          0x0181fcec        0x0 c:/altera/12.0sp2/nios2eds/bin/gnu/h-i686-mingw32/bin/../lib/gcc/nios2-elf/4.1.2\libgcc.a(_si_to_sf.o)
 .data          0x0181fcec        0x0 c:/altera/12.0sp2/nios2eds/bin/gnu/h-i686-mingw32/bin/../lib/gcc/nios2-elf/4.1.2\libgcc.a(_sf_to_df.o)
 .data          0x0181fcec        0x0 c:/altera/12.0sp2/nios2eds/bin/gnu/h-i686-mingw32/bin/../lib/gcc/nios2-elf/4.1.2\libgcc.a(_thenan_sf.o)
 .data          0x0181fcec        0x0 c:/altera/12.0sp2/nios2eds/bin/gnu/h-i686-mingw32/bin/../lib/gcc/nios2-elf/4.1.2\libgcc.a(_addsub_df.o)
 .data          0x0181fcec        0x0 c:/altera/12.0sp2/nios2eds/bin/gnu/h-i686-mingw32/bin/../lib/gcc/nios2-elf/4.1.2\libgcc.a(_mul_df.o)
 .data          0x0181fcec        0x0 c:/altera/12.0sp2/nios2eds/bin/gnu/h-i686-mingw32/bin/../lib/gcc/nios2-elf/4.1.2\libgcc.a(_div_df.o)
 .data          0x0181fcec        0x0 c:/altera/12.0sp2/nios2eds/bin/gnu/h-i686-mingw32/bin/../lib/gcc/nios2-elf/4.1.2\libgcc.a(_eq_df.o)
 .data          0x0181fcec        0x0 c:/altera/12.0sp2/nios2eds/bin/gnu/h-i686-mingw32/bin/../lib/gcc/nios2-elf/4.1.2\libgcc.a(_gt_df.o)
 .data          0x0181fcec        0x0 c:/altera/12.0sp2/nios2eds/bin/gnu/h-i686-mingw32/bin/../lib/gcc/nios2-elf/4.1.2\libgcc.a(_ge_df.o)
 .data          0x0181fcec        0x0 c:/altera/12.0sp2/nios2eds/bin/gnu/h-i686-mingw32/bin/../lib/gcc/nios2-elf/4.1.2\libgcc.a(_lt_df.o)
 .data          0x0181fcec        0x0 c:/altera/12.0sp2/nios2eds/bin/gnu/h-i686-mingw32/bin/../lib/gcc/nios2-elf/4.1.2\libgcc.a(_si_to_df.o)
 .data          0x0181fcec        0x0 c:/altera/12.0sp2/nios2eds/bin/gnu/h-i686-mingw32/bin/../lib/gcc/nios2-elf/4.1.2\libgcc.a(_df_to_si.o)
 .data          0x0181fcec        0x0 c:/altera/12.0sp2/nios2eds/bin/gnu/h-i686-mingw32/bin/../lib/gcc/nios2-elf/4.1.2\libgcc.a(_make_df.o)
 .data          0x0181fcec        0x0 c:/altera/12.0sp2/nios2eds/bin/gnu/h-i686-mingw32/bin/../lib/gcc/nios2-elf/4.1.2\libgcc.a(_df_to_sf.o)
 .data          0x0181fcec        0x0 c:/altera/12.0sp2/nios2eds/bin/gnu/h-i686-mingw32/bin/../lib/gcc/nios2-elf/4.1.2\libgcc.a(_thenan_df.o)
 .data          0x0181fcec        0x0 c:/altera/12.0sp2/nios2eds/bin/gnu/h-i686-mingw32/bin/../lib/gcc/nios2-elf/4.1.2\libgcc.a(lib2-divmod.o)
 .data          0x0181fcec        0x0 c:/altera/12.0sp2/nios2eds/bin/gnu/h-i686-mingw32/bin/../lib/gcc/nios2-elf/4.1.2\libgcc.a(_muldi3.o)
 .data          0x0181fcec        0x0 c:/altera/12.0sp2/nios2eds/bin/gnu/h-i686-mingw32/bin/../lib/gcc/nios2-elf/4.1.2\libgcc.a(_clzsi2.o)
 .data          0x0181fcec        0x0 c:/altera/12.0sp2/nios2eds/bin/gnu/h-i686-mingw32/bin/../lib/gcc/nios2-elf/4.1.2\libgcc.a(_pack_sf.o)
 .data          0x0181fcec        0x0 c:/altera/12.0sp2/nios2eds/bin/gnu/h-i686-mingw32/bin/../lib/gcc/nios2-elf/4.1.2\libgcc.a(_unpack_sf.o)
 .data          0x0181fcec        0x0 c:/altera/12.0sp2/nios2eds/bin/gnu/h-i686-mingw32/bin/../lib/gcc/nios2-elf/4.1.2\libgcc.a(_make_sf.o)
 .data          0x0181fcec        0x0 c:/altera/12.0sp2/nios2eds/bin/gnu/h-i686-mingw32/bin/../lib/gcc/nios2-elf/4.1.2\libgcc.a(_pack_df.o)
 .data          0x0181fcec        0x0 c:/altera/12.0sp2/nios2eds/bin/gnu/h-i686-mingw32/bin/../lib/gcc/nios2-elf/4.1.2\libgcc.a(_unpack_df.o)
 .data          0x0181fcec        0x0 c:/altera/12.0sp2/nios2eds/bin/gnu/h-i686-mingw32/bin/../lib/gcc/nios2-elf/4.1.2\libgcc.a(_fpcmp_parts_df.o)
 .data          0x0181fcec        0x0 c:/altera/12.0sp2/nios2eds/bin/gnu/h-i686-mingw32/bin/../lib/gcc/nios2-elf/4.1.2\libgcc.a(_clz.o)
 .data          0x0181fcec        0x0 c:/altera/12.0sp2/nios2eds/bin/gnu/h-i686-mingw32/bin/../lib/gcc/nios2-elf/4.1.2/../../../../nios2-elf/lib\libc.a(lib_a-errno.o)
 .data          0x0181fcec      0x400 c:/altera/12.0sp2/nios2eds/bin/gnu/h-i686-mingw32/bin/../lib/gcc/nios2-elf/4.1.2/../../../../nios2-elf/lib\libc.a(lib_a-impure.o)
 .data          0x018200ec        0x0 c:/altera/12.0sp2/nios2eds/bin/gnu/h-i686-mingw32/bin/../lib/gcc/nios2-elf/4.1.2/../../../../nios2-elf/lib\libc.a(lib_a-memcpy.o)
 .data          0x018200ec        0x0 c:/altera/12.0sp2/nios2eds/bin/gnu/h-i686-mingw32/bin/../lib/gcc/nios2-elf/4.1.2/../../../../nios2-elf/lib\libc.a(lib_a-memset.o)
 .data          0x018200ec        0x0 c:/altera/12.0sp2/nios2eds/bin/gnu/h-i686-mingw32/bin/../lib/gcc/nios2-elf/4.1.2/../../../../nios2-elf/lib\libc.a(lib_a-printf.o)
 .data          0x018200ec        0x0 c:/altera/12.0sp2/nios2eds/bin/gnu/h-i686-mingw32/bin/../lib/gcc/nios2-elf/4.1.2/../../../../nios2-elf/lib\libc.a(lib_a-sprintf.o)
 .data          0x018200ec        0x0 c:/altera/12.0sp2/nios2eds/bin/gnu/h-i686-mingw32/bin/../lib/gcc/nios2-elf/4.1.2/../../../../nios2-elf/lib\libc.a(lib_a-vfprintf.o)
 .data          0x018200ec        0x0 c:/altera/12.0sp2/nios2eds/bin/gnu/h-i686-mingw32/bin/../lib/gcc/nios2-elf/4.1.2/../../../../nios2-elf/lib\libc.a(lib_a-wsetup.o)
 .data          0x018200ec        0x0 c:/altera/12.0sp2/nios2eds/bin/gnu/h-i686-mingw32/bin/../lib/gcc/nios2-elf/4.1.2/../../../../nios2-elf/lib\libc.a(lib_a-dtoa.o)
 .data          0x018200ec        0x0 c:/altera/12.0sp2/nios2eds/bin/gnu/h-i686-mingw32/bin/../lib/gcc/nios2-elf/4.1.2/../../../../nios2-elf/lib\libc.a(lib_a-fflush.o)
 .data          0x018200ec        0x0 c:/altera/12.0sp2/nios2eds/bin/gnu/h-i686-mingw32/bin/../lib/gcc/nios2-elf/4.1.2/../../../../nios2-elf/lib\libc.a(lib_a-findfp.o)
 .data          0x018200ec        0x0 c:/altera/12.0sp2/nios2eds/bin/gnu/h-i686-mingw32/bin/../lib/gcc/nios2-elf/4.1.2/../../../../nios2-elf/lib\libc.a(lib_a-freer.o)
 .data          0x018200ec        0x0 c:/altera/12.0sp2/nios2eds/bin/gnu/h-i686-mingw32/bin/../lib/gcc/nios2-elf/4.1.2/../../../../nios2-elf/lib\libc.a(lib_a-fvwrite.o)
 .data          0x018200ec        0x0 c:/altera/12.0sp2/nios2eds/bin/gnu/h-i686-mingw32/bin/../lib/gcc/nios2-elf/4.1.2/../../../../nios2-elf/lib\libc.a(lib_a-fwalk.o)
 .data          0x018200ec        0xc c:/altera/12.0sp2/nios2eds/bin/gnu/h-i686-mingw32/bin/../lib/gcc/nios2-elf/4.1.2/../../../../nios2-elf/lib\libc.a(lib_a-locale.o)
                0x018200ec                __lc_ctype
 .data          0x018200f8        0x0 c:/altera/12.0sp2/nios2eds/bin/gnu/h-i686-mingw32/bin/../lib/gcc/nios2-elf/4.1.2/../../../../nios2-elf/lib\libc.a(lib_a-makebuf.o)
 .data          0x018200f8      0x408 c:/altera/12.0sp2/nios2eds/bin/gnu/h-i686-mingw32/bin/../lib/gcc/nios2-elf/4.1.2/../../../../nios2-elf/lib\libc.a(lib_a-mallocr.o)
                0x018200f8                __malloc_av_
 .data          0x01820500        0x0 c:/altera/12.0sp2/nios2eds/bin/gnu/h-i686-mingw32/bin/../lib/gcc/nios2-elf/4.1.2/../../../../nios2-elf/lib\libc.a(lib_a-memchr.o)
 .data          0x01820500        0x0 c:/altera/12.0sp2/nios2eds/bin/gnu/h-i686-mingw32/bin/../lib/gcc/nios2-elf/4.1.2/../../../../nios2-elf/lib\libc.a(lib_a-memmove.o)
 .data          0x01820500        0x0 c:/altera/12.0sp2/nios2eds/bin/gnu/h-i686-mingw32/bin/../lib/gcc/nios2-elf/4.1.2/../../../../nios2-elf/lib\libc.a(lib_a-mprec.o)
 .data          0x01820500        0x0 c:/altera/12.0sp2/nios2eds/bin/gnu/h-i686-mingw32/bin/../lib/gcc/nios2-elf/4.1.2/../../../../nios2-elf/lib\libc.a(lib_a-reallocr.o)
 .data          0x01820500        0x0 c:/altera/12.0sp2/nios2eds/bin/gnu/h-i686-mingw32/bin/../lib/gcc/nios2-elf/4.1.2/../../../../nios2-elf/lib\libc.a(lib_a-s_isinfd.o)
 .data          0x01820500        0x0 c:/altera/12.0sp2/nios2eds/bin/gnu/h-i686-mingw32/bin/../lib/gcc/nios2-elf/4.1.2/../../../../nios2-elf/lib\libc.a(lib_a-sbrkr.o)
 .data          0x01820500        0x0 c:/altera/12.0sp2/nios2eds/bin/gnu/h-i686-mingw32/bin/../lib/gcc/nios2-elf/4.1.2/../../../../nios2-elf/lib\libc.a(lib_a-stdio.o)
 .data          0x01820500        0x0 c:/altera/12.0sp2/nios2eds/bin/gnu/h-i686-mingw32/bin/../lib/gcc/nios2-elf/4.1.2/../../../../nios2-elf/lib\libc.a(lib_a-strcmp.o)
 .data          0x01820500        0x0 c:/altera/12.0sp2/nios2eds/bin/gnu/h-i686-mingw32/bin/../lib/gcc/nios2-elf/4.1.2/../../../../nios2-elf/lib\libc.a(lib_a-strlen.o)
 .data          0x01820500        0x0 c:/altera/12.0sp2/nios2eds/bin/gnu/h-i686-mingw32/bin/../lib/gcc/nios2-elf/4.1.2/../../../../nios2-elf/lib\libc.a(lib_a-writer.o)
 .data          0x01820500        0x0 c:/altera/12.0sp2/nios2eds/bin/gnu/h-i686-mingw32/bin/../lib/gcc/nios2-elf/4.1.2/../../../../nios2-elf/lib\libc.a(lib_a-callocr.o)
 .data          0x01820500        0x0 c:/altera/12.0sp2/nios2eds/bin/gnu/h-i686-mingw32/bin/../lib/gcc/nios2-elf/4.1.2/../../../../nios2-elf/lib\libc.a(lib_a-closer.o)
 .data          0x01820500        0x0 c:/altera/12.0sp2/nios2eds/bin/gnu/h-i686-mingw32/bin/../lib/gcc/nios2-elf/4.1.2/../../../../nios2-elf/lib\libc.a(lib_a-fclose.o)
 .data          0x01820500        0x0 c:/altera/12.0sp2/nios2eds/bin/gnu/h-i686-mingw32/bin/../lib/gcc/nios2-elf/4.1.2/../../../../nios2-elf/lib\libc.a(lib_a-fstatr.o)
 .data          0x01820500        0x0 c:/altera/12.0sp2/nios2eds/bin/gnu/h-i686-mingw32/bin/../lib/gcc/nios2-elf/4.1.2/../../../../nios2-elf/lib\libc.a(lib_a-int_errno.o)
 .data          0x01820500        0x0 c:/altera/12.0sp2/nios2eds/bin/gnu/h-i686-mingw32/bin/../lib/gcc/nios2-elf/4.1.2/../../../../nios2-elf/lib\libc.a(lib_a-isattyr.o)
 .data          0x01820500        0x0 c:/altera/12.0sp2/nios2eds/bin/gnu/h-i686-mingw32/bin/../lib/gcc/nios2-elf/4.1.2/../../../../nios2-elf/lib\libc.a(lib_a-lseekr.o)
 .data          0x01820500        0x0 c:/altera/12.0sp2/nios2eds/bin/gnu/h-i686-mingw32/bin/../lib/gcc/nios2-elf/4.1.2/../../../../nios2-elf/lib\libc.a(lib_a-readr.o)
 .data          0x01820500        0x0 c:/altera/12.0sp2/nios2eds/bin/gnu/h-i686-mingw32/bin/../lib/gcc/nios2-elf/4.1.2\libgcc.a(_udivdi3.o)
 .data          0x01820500        0x0 c:/altera/12.0sp2/nios2eds/bin/gnu/h-i686-mingw32/bin/../lib/gcc/nios2-elf/4.1.2\libgcc.a(_umoddi3.o)
 .data          0x01820500        0x0 c:/altera/12.0sp2/nios2eds/bin/gnu/h-i686-mingw32/bin/../lib/gcc/nios2-elf/4.1.2\libgcc.a(_ne_df.o)
 .data          0x01820500        0x0 c:/altera/12.0sp2/nios2eds/bin/gnu/h-i686-mingw32/bin/../lib/gcc/nios2-elf/4.1.2\libgcc.a(_usi_to_df.o)
 .data          0x01820500        0x0 ../microCTest_bsp/\libucosii_bsp.a(alt_close.o)
 .data          0x01820500      0x1a8 ../microCTest_bsp/\libucosii_bsp.a(alt_dev.o)
                0x01820500                alt_dev_null
                0x01820528                alt_fd_list
 .data          0x018206a8        0x0 ../microCTest_bsp/\libucosii_bsp.a(alt_errno.o)
 .data          0x018206a8        0x0 ../microCTest_bsp/\libucosii_bsp.a(alt_fstat.o)
 .data          0x018206a8        0x0 ../microCTest_bsp/\libucosii_bsp.a(alt_isatty.o)
 .data          0x018206a8        0x0 ../microCTest_bsp/\libucosii_bsp.a(alt_lseek.o)
 .data          0x018206a8        0x0 ../microCTest_bsp/\libucosii_bsp.a(alt_main.o)
 .data          0x018206a8        0x0 ../microCTest_bsp/\libucosii_bsp.a(alt_read.o)
 .data          0x018206a8        0x0 ../microCTest_bsp/\libucosii_bsp.a(alt_release_fd.o)
 .data          0x018206a8        0x0 ../microCTest_bsp/\libucosii_bsp.a(alt_sbrk.o)
 .data          0x018206a8        0x0 ../microCTest_bsp/\libucosii_bsp.a(alt_usleep.o)
 .data          0x018206a8        0x0 ../microCTest_bsp/\libucosii_bsp.a(alt_write.o)
 .data          0x018206a8        0x0 ../microCTest_bsp/\libucosii_bsp.a(alt_env_lock.o)
 .data          0x018206a8        0x0 ../microCTest_bsp/\libucosii_bsp.a(alt_malloc_lock.o)
 .data          0x018206a8        0x0 ../microCTest_bsp/\libucosii_bsp.a(os_core.o)
 .data          0x018206a8        0x0 ../microCTest_bsp/\libucosii_bsp.a(os_dbg.o)
 .data          0x018206a8        0x0 ../microCTest_bsp/\libucosii_bsp.a(os_flag.o)
 .data          0x018206a8        0x0 ../microCTest_bsp/\libucosii_bsp.a(os_mem.o)
 .data          0x018206a8        0x0 ../microCTest_bsp/\libucosii_bsp.a(os_q.o)
 .data          0x018206a8        0x0 ../microCTest_bsp/\libucosii_bsp.a(os_sem.o)
 .data          0x018206a8        0x0 ../microCTest_bsp/\libucosii_bsp.a(os_task.o)
 .data          0x018206a8        0x0 ../microCTest_bsp/\libucosii_bsp.a(os_time.o)
 .data          0x018206a8     0x1338 ../microCTest_bsp/\libucosii_bsp.a(alt_sys_init.o)
 .data          0x018219e0        0x0 ../microCTest_bsp/\libucosii_bsp.a(altera_avalon_cfi_flash.o)
 .data          0x018219e0        0x0 ../microCTest_bsp/\libucosii_bsp.a(altera_avalon_cfi_flash_table.o)
 .data          0x018219e0        0x0 ../microCTest_bsp/\libucosii_bsp.a(altera_avalon_jtag_uart_fd.o)
 .data          0x018219e0        0x0 ../microCTest_bsp/\libucosii_bsp.a(altera_avalon_jtag_uart_init.o)
 .data          0x018219e0        0x0 ../microCTest_bsp/\libucosii_bsp.a(altera_avalon_jtag_uart_ioctl.o)
 .data          0x018219e0        0x0 ../microCTest_bsp/\libucosii_bsp.a(altera_avalon_jtag_uart_read.o)
 .data          0x018219e0        0x0 ../microCTest_bsp/\libucosii_bsp.a(altera_avalon_jtag_uart_write.o)
 .data          0x018219e0        0x0 ../microCTest_bsp/\libucosii_bsp.a(altera_avalon_lcd_16207.o)
 .data          0x018219e0        0x0 ../microCTest_bsp/\libucosii_bsp.a(altera_avalon_lcd_16207_fd.o)
 .data          0x018219e0        0x0 ../microCTest_bsp/\libucosii_bsp.a(altera_avalon_timer_sc.o)
 .data          0x018219e0        0x0 ../microCTest_bsp/\libucosii_bsp.a(altera_avalon_timer_vars.o)
 .data          0x018219e0        0x0 ../microCTest_bsp/\libucosii_bsp.a(altera_avalon_uart_fd.o)
 .data          0x018219e0        0x0 ../microCTest_bsp/\libucosii_bsp.a(altera_avalon_uart_init.o)
 .data          0x018219e0        0x0 ../microCTest_bsp/\libucosii_bsp.a(altera_avalon_uart_read.o)
 .data          0x018219e0        0x0 ../microCTest_bsp/\libucosii_bsp.a(altera_avalon_uart_write.o)
 .data          0x018219e0        0x0 ../microCTest_bsp/\libucosii_bsp.a(alt_alarm_start.o)
 .data          0x018219e0        0x0 ../microCTest_bsp/\libucosii_bsp.a(alt_busy_sleep.o)
 .data          0x018219e0        0x0 ../microCTest_bsp/\libucosii_bsp.a(alt_dcache_flush.o)
 .data          0x018219e0        0x0 ../microCTest_bsp/\libucosii_bsp.a(alt_dev_llist_insert.o)
 .data          0x018219e0        0x0 ../microCTest_bsp/\libucosii_bsp.a(alt_do_ctors.o)
 .data          0x018219e0        0x0 ../microCTest_bsp/\libucosii_bsp.a(alt_do_dtors.o)
 .data          0x018219e0        0x0 ../microCTest_bsp/\libucosii_bsp.a(alt_flash_dev.o)
 .data          0x018219e0        0x0 ../microCTest_bsp/\libucosii_bsp.a(alt_iic.o)
 .data          0x018219e0        0x0 ../microCTest_bsp/\libucosii_bsp.a(alt_iic_isr_register.o)
 .data          0x018219e0        0x0 ../microCTest_bsp/\libucosii_bsp.a(alt_io_redirect.o)
 .data          0x018219e0        0x0 ../microCTest_bsp/\libucosii_bsp.a(alt_irq_entry.o)
 .data          0x018219e0        0x0 ../microCTest_bsp/\libucosii_bsp.a(alt_irq_handler.o)
 .data          0x018219e0        0x0 ../microCTest_bsp/\libucosii_bsp.a(alt_irq_vars.o)
 .data          0x018219e0        0x0 ../microCTest_bsp/\libucosii_bsp.a(alt_open.o)
 .data          0x018219e0        0x0 ../microCTest_bsp/\libucosii_bsp.a(alt_tick.o)
 .data          0x018219e0        0x0 ../microCTest_bsp/\libucosii_bsp.a(altera_nios2_irq.o)
 .data          0x018219e0        0x0 ../microCTest_bsp/\libucosii_bsp.a(os_cpu_a.o)
 .data          0x018219e0        0x0 ../microCTest_bsp/\libucosii_bsp.a(os_cpu_c.o)
 .data          0x018219e0        0x0 ../microCTest_bsp/\libucosii_bsp.a(altera_avalon_cfi_flash_amd.o)
 .data          0x018219e0        0x0 ../microCTest_bsp/\libucosii_bsp.a(altera_avalon_cfi_flash_intel.o)
 .data          0x018219e0        0x0 ../microCTest_bsp/\libucosii_bsp.a(alt_exception_entry.o)
 .data          0x018219e0        0x0 ../microCTest_bsp/\libucosii_bsp.a(alt_find_dev.o)
 .data          0x018219e0        0x0 ../microCTest_bsp/\libucosii_bsp.a(alt_find_file.o)
 .data          0x018219e0        0x0 ../microCTest_bsp/\libucosii_bsp.a(alt_get_fd.o)
 .data          0x018219e0        0x0 ../microCTest_bsp/\libucosii_bsp.a(alt_instruction_exception_entry.o)
 .data          0x018219e0        0x0 c:/altera/12.0sp2/nios2eds/bin/gnu/h-i686-mingw32/bin/../lib/gcc/nios2-elf/4.1.2/../../../../nios2-elf/lib\libc.a(lib_a-atexit.o)
 .data          0x018219e0        0x0 c:/altera/12.0sp2/nios2eds/bin/gnu/h-i686-mingw32/bin/../lib/gcc/nios2-elf/4.1.2/../../../../nios2-elf/lib\libc.a(lib_a-ctype_.o)
 .data          0x018219e0        0x0 c:/altera/12.0sp2/nios2eds/bin/gnu/h-i686-mingw32/bin/../lib/gcc/nios2-elf/4.1.2/../../../../nios2-elf/lib\libc.a(lib_a-exit.o)
 .data          0x018219e0        0x0 c:/altera/12.0sp2/nios2eds/bin/gnu/h-i686-mingw32/bin/../lib/gcc/nios2-elf/4.1.2/../../../../nios2-elf/lib\libc.a(lib_a-memcmp.o)
 .data          0x018219e0        0x0 c:/altera/12.0sp2/nios2eds/bin/gnu/h-i686-mingw32/bin/../lib/gcc/nios2-elf/4.1.2/../../../../nios2-elf/lib\libc.a(lib_a-__atexit.o)
 .data          0x018219e0        0x0 c:/altera/12.0sp2/nios2eds/bin/gnu/h-i686-mingw32/bin/../lib/gcc/nios2-elf/4.1.2/../../../../nios2-elf/lib\libc.a(lib_a-__call_atexit.o)
 .data          0x018219e0        0x0 ../microCTest_bsp/\libucosii_bsp.a(alt_exit.o)
                0x018299e0                _gp = ABSOLUTE ((. + 0x8000))
                0x018299e0                PROVIDE (gp, _gp)
 *(.rwdata .rwdata.*)
 *(.sdata .sdata.* .gnu.linkonce.s.*)
 .sdata         0x018219e0        0x4 c:/altera/12.0sp2/nios2eds/bin/gnu/h-i686-mingw32/bin/../lib/gcc/nios2-elf/4.1.2/../../../../nios2-elf/lib\libm.a(lib_a-s_lib_ver.o)
                0x018219e0                __fdlib_version
 .sdata         0x018219e4        0x8 c:/altera/12.0sp2/nios2eds/bin/gnu/h-i686-mingw32/bin/../lib/gcc/nios2-elf/4.1.2/../../../../nios2-elf/lib\libc.a(lib_a-impure.o)
                0x018219e4                _impure_ptr
                0x018219e8                _global_impure_ptr
 .sdata         0x018219ec        0x8 c:/altera/12.0sp2/nios2eds/bin/gnu/h-i686-mingw32/bin/../lib/gcc/nios2-elf/4.1.2/../../../../nios2-elf/lib\libc.a(lib_a-locale.o)
                0x018219ec                __mb_cur_max
 .sdata         0x018219f4        0x8 c:/altera/12.0sp2/nios2eds/bin/gnu/h-i686-mingw32/bin/../lib/gcc/nios2-elf/4.1.2/../../../../nios2-elf/lib\libc.a(lib_a-mallocr.o)
                0x018219f4                __malloc_trim_threshold
                0x018219f8                __malloc_sbrk_base
 .sdata         0x018219fc       0x14 ../microCTest_bsp/\libucosii_bsp.a(alt_dev.o)
                0x018219fc                alt_fs_list
                0x01821a04                alt_dev_list
                0x01821a0c                alt_max_fd
 .sdata         0x01821a10        0x4 ../microCTest_bsp/\libucosii_bsp.a(alt_errno.o)
                0x01821a10                alt_errno
 .sdata         0x01821a14        0x4 ../microCTest_bsp/\libucosii_bsp.a(alt_sbrk.o)
 .sdata         0x01821a18        0x4 ../microCTest_bsp/\libucosii_bsp.a(alt_env_lock.o)
 .sdata         0x01821a1c        0x4 ../microCTest_bsp/\libucosii_bsp.a(alt_malloc_lock.o)
 .sdata         0x01821a20       0x74 ../microCTest_bsp/\libucosii_bsp.a(os_dbg.o)
                0x01821a20                OSDebugEn
                0x01821a24                OSEndiannessTest
                0x01821a28                OSEventEn
                0x01821a2a                OSEventMax
                0x01821a2c                OSEventNameSize
                0x01821a2e                OSEventSize
                0x01821a30                OSEventTblSize
                0x01821a32                OSEventMultiEn
                0x01821a34                OSFlagEn
                0x01821a36                OSFlagGrpSize
                0x01821a38                OSFlagNodeSize
                0x01821a3a                OSFlagWidth
                0x01821a3c                OSFlagMax
                0x01821a3e                OSFlagNameSize
                0x01821a40                OSLowestPrio
                0x01821a42                OSMboxEn
                0x01821a44                OSMemEn
                0x01821a46                OSMemMax
                0x01821a48                OSMemNameSize
                0x01821a4a                OSMemSize
                0x01821a4c                OSMemTblSize
                0x01821a4e                OSMutexEn
                0x01821a50                OSPtrSize
                0x01821a52                OSQEn
                0x01821a54                OSQMax
                0x01821a56                OSQSize
                0x01821a58                OSRdyTblSize
                0x01821a5a                OSSemEn
                0x01821a5c                OSStkWidth
                0x01821a5e                OSTaskCreateEn
                0x01821a60                OSTaskCreateExtEn
                0x01821a62                OSTaskDelEn
                0x01821a64                OSTaskIdleStkSize
                0x01821a66                OSTaskProfileEn
                0x01821a68                OSTaskMax
                0x01821a6a                OSTaskNameSize
                0x01821a6c                OSTaskStatEn
                0x01821a6e                OSTaskStatStkSize
                0x01821a70                OSTaskStatStkChkEn
                0x01821a72                OSTaskSwHookEn
                0x01821a74                OSTCBPrioTblMax
                0x01821a76                OSTCBSize
                0x01821a78                OSTicksPerSec
                0x01821a7a                OSTimeTickHookEn
                0x01821a7c                OSVersionNbr
                0x01821a7e                OSTmrEn
                0x01821a80                OSTmrCfgMax
                0x01821a82                OSTmrCfgNameSize
                0x01821a84                OSTmrCfgWheelSize
                0x01821a86                OSTmrCfgTicksPerSec
                0x01821a88                OSTmrSize
                0x01821a8a                OSTmrTblSize
                0x01821a8c                OSTmrWheelSize
                0x01821a8e                OSTmrWheelTblSize
                0x01821a90                OSDataSize
 .sdata         0x01821a94        0x4 ../microCTest_bsp/\libucosii_bsp.a(altera_avalon_lcd_16207.o)
 .sdata         0x01821a98        0x8 ../microCTest_bsp/\libucosii_bsp.a(alt_flash_dev.o)
                0x01821a98                alt_flash_dev_list
 .sdata         0x01821aa0        0x4 ../microCTest_bsp/\libucosii_bsp.a(alt_irq_vars.o)
                0x01821aa0                alt_priority_mask
 .sdata         0x01821aa4        0x8 ../microCTest_bsp/\libucosii_bsp.a(alt_tick.o)
                0x01821aa4                alt_alarm_list
 .sdata         0x01821aac        0x4 c:/altera/12.0sp2/nios2eds/bin/gnu/h-i686-mingw32/bin/../lib/gcc/nios2-elf/4.1.2/../../../../nios2-elf/lib\libc.a(lib_a-ctype_.o)
                0x01821aac                __ctype_ptr
 *(.sdata2 .sdata2.* .gnu.linkonce.s2.*)
                0x01821ab0                . = ALIGN (0x4)
                0x01821ab0                _edata = ABSOLUTE (.)
                0x01821ab0                PROVIDE (edata, ABSOLUTE (.))
                0x01821ab0                PROVIDE (__ram_rwdata_end, ABSOLUTE (.))
                0x0181fcec                PROVIDE (__flash_rwdata_start, LOADADDR (.rwdata))

.bss            0x01821ab0     0x9c14
                0x01821ab0                __bss_start = ABSOLUTE (.)
                0x01821ab0                PROVIDE (__sbss_start, ABSOLUTE (.))
                0x01821ab0                PROVIDE (___sbss_start, ABSOLUTE (.))
 *(.dynsbss)
 *(.sbss .sbss.* .gnu.linkonce.sb.*)
 .sbss          0x01821ab0        0x4 obj/default/hello_ucosii.o
 .sbss          0x01821ab4        0xc c:/altera/12.0sp2/nios2eds/bin/gnu/h-i686-mingw32/bin/../lib/gcc/nios2-elf/4.1.2/../../../../nios2-elf/lib\libc.a(lib_a-locale.o)
                0x01821ab4                __nlocale_changed
                0x01821ab8                __mlocale_changed
                0x01821abc                _PathLocale
 .sbss          0x01821ac0        0xc c:/altera/12.0sp2/nios2eds/bin/gnu/h-i686-mingw32/bin/../lib/gcc/nios2-elf/4.1.2/../../../../nios2-elf/lib\libc.a(lib_a-mallocr.o)
                0x01821ac0                __malloc_top_pad
                0x01821ac4                __malloc_max_sbrked_mem
                0x01821ac8                __malloc_max_total_mem
 .sbss          0x01821acc        0x4 c:/altera/12.0sp2/nios2eds/bin/gnu/h-i686-mingw32/bin/../lib/gcc/nios2-elf/4.1.2/../../../../nios2-elf/lib\libc.a(lib_a-int_errno.o)
                0x01821acc                errno
 .sbss          0x01821ad0        0x4 ../microCTest_bsp/\libucosii_bsp.a(alt_dev.o)
                0x01821ad0                alt_fd_list_lock
 .sbss          0x01821ad4        0xc ../microCTest_bsp/\libucosii_bsp.a(alt_main.o)
                0x01821ad4                alt_argc
                0x01821ad8                alt_argv
                0x01821adc                alt_envp
 .sbss          0x01821ae0        0x8 ../microCTest_bsp/\libucosii_bsp.a(alt_env_lock.o)
                0x01821ae4                alt_envsem
 .sbss          0x01821ae8        0x8 ../microCTest_bsp/\libucosii_bsp.a(alt_malloc_lock.o)
                0x01821aec                alt_heapsem
 .sbss          0x01821af0       0x50 ../microCTest_bsp/\libucosii_bsp.a(os_core.o)
                0x01821af0                OSLockNesting
                0x01821af1                OSRunning
                0x01821af4                OSIdleCtr
                0x01821af8                OSPrioHighRdy
                0x01821af9                OSPrioCur
                0x01821afc                OSTCBList
                0x01821b00                OSTickStepState
                0x01821b04                OSCtxSwCtr
                0x01821b08                OSIdleCtrMax
                0x01821b0c                OSTCBFreeList
                0x01821b10                OSCPUUsage
                0x01821b11                OSTaskCtr
                0x01821b14                OSMemFreeList
                0x01821b18                OSTCBHighRdy
                0x01821b1c                OSQFreeList
                0x01821b20                OSRdyGrp
                0x01821b21                OSRdyTbl
                0x01821b24                OSEventFreeList
                0x01821b28                OSIntNesting
                0x01821b2c                OSTCBCur
                0x01821b30                OSTime
                0x01821b34                OSFlagFreeList
                0x01821b38                OSStatRdy
                0x01821b3c                OSIdleCtrRun
 .sbss          0x01821b40        0x8 ../microCTest_bsp/\libucosii_bsp.a(altera_avalon_timer_vars.o)
                0x01821b40                altera_avalon_timer_ts_base
                0x01821b44                altera_avalon_timer_ts_freq
 .sbss          0x01821b48        0x4 ../microCTest_bsp/\libucosii_bsp.a(alt_irq_vars.o)
                0x01821b48                alt_irq_active
 .sbss          0x01821b4c        0x8 ../microCTest_bsp/\libucosii_bsp.a(alt_tick.o)
                0x01821b4c                _alt_tick_rate
                0x01821b50                _alt_nticks
 .sbss          0x01821b54        0x4 ../microCTest_bsp/\libucosii_bsp.a(alt_instruction_exception_entry.o)
                0x01821b54                alt_instruction_exception_handler
 *(.sbss2 .sbss2.* .gnu.linkonce.sb2.*)
 *(.scommon)
                0x01821b58                PROVIDE (__sbss_end, ABSOLUTE (.))
                0x01821b58                PROVIDE (___sbss_end, ABSOLUTE (.))
 *(.dynbss)
 *(.bss .bss.* .gnu.linkonce.b.*)
 .bss           0x01821b58        0x0 ../microCTest_bsp//obj/HAL/src/crt0.o
 .bss           0x01821b58        0x0 obj/default/IK.o
 .bss           0x01821b58      0x640 obj/default/hello_ucosii.o
 .bss           0x01822198        0x0 obj/default/keypad.o
 .bss           0x01822198        0x0 obj/default/lcd.o
 .bss           0x01822198        0x0 obj/default/pwm.o
 .bss           0x01822198        0x0 obj/default/utilities.o
 .bss           0x01822198        0x0 c:/altera/12.0sp2/nios2eds/bin/gnu/h-i686-mingw32/bin/../lib/gcc/nios2-elf/4.1.2/../../../../nios2-elf/lib\libm.a(lib_a-s_cos.o)
 .bss           0x01822198        0x0 c:/altera/12.0sp2/nios2eds/bin/gnu/h-i686-mingw32/bin/../lib/gcc/nios2-elf/4.1.2/../../../../nios2-elf/lib\libm.a(lib_a-s_round.o)
 .bss           0x01822198        0x0 c:/altera/12.0sp2/nios2eds/bin/gnu/h-i686-mingw32/bin/../lib/gcc/nios2-elf/4.1.2/../../../../nios2-elf/lib\libm.a(lib_a-s_sin.o)
 .bss           0x01822198        0x0 c:/altera/12.0sp2/nios2eds/bin/gnu/h-i686-mingw32/bin/../lib/gcc/nios2-elf/4.1.2/../../../../nios2-elf/lib\libm.a(lib_a-w_atan2.o)
 .bss           0x01822198        0x0 c:/altera/12.0sp2/nios2eds/bin/gnu/h-i686-mingw32/bin/../lib/gcc/nios2-elf/4.1.2/../../../../nios2-elf/lib\libm.a(lib_a-w_sqrt.o)
 .bss           0x01822198        0x0 c:/altera/12.0sp2/nios2eds/bin/gnu/h-i686-mingw32/bin/../lib/gcc/nios2-elf/4.1.2/../../../../nios2-elf/lib\libm.a(lib_a-e_atan2.o)
 .bss           0x01822198        0x0 c:/altera/12.0sp2/nios2eds/bin/gnu/h-i686-mingw32/bin/../lib/gcc/nios2-elf/4.1.2/../../../../nios2-elf/lib\libm.a(lib_a-e_rem_pio2.o)
 .bss           0x01822198        0x0 c:/altera/12.0sp2/nios2eds/bin/gnu/h-i686-mingw32/bin/../lib/gcc/nios2-elf/4.1.2/../../../../nios2-elf/lib\libm.a(lib_a-e_sqrt.o)
 .bss           0x01822198        0x0 c:/altera/12.0sp2/nios2eds/bin/gnu/h-i686-mingw32/bin/../lib/gcc/nios2-elf/4.1.2/../../../../nios2-elf/lib\libm.a(lib_a-k_cos.o)
 .bss           0x01822198        0x0 c:/altera/12.0sp2/nios2eds/bin/gnu/h-i686-mingw32/bin/../lib/gcc/nios2-elf/4.1.2/../../../../nios2-elf/lib\libm.a(lib_a-k_rem_pio2.o)
 .bss           0x01822198        0x0 c:/altera/12.0sp2/nios2eds/bin/gnu/h-i686-mingw32/bin/../lib/gcc/nios2-elf/4.1.2/../../../../nios2-elf/lib\libm.a(lib_a-k_sin.o)
 .bss           0x01822198        0x0 c:/altera/12.0sp2/nios2eds/bin/gnu/h-i686-mingw32/bin/../lib/gcc/nios2-elf/4.1.2/../../../../nios2-elf/lib\libm.a(lib_a-s_atan.o)
 .bss           0x01822198        0x0 c:/altera/12.0sp2/nios2eds/bin/gnu/h-i686-mingw32/bin/../lib/gcc/nios2-elf/4.1.2/../../../../nios2-elf/lib\libm.a(lib_a-s_fabs.o)
 .bss           0x01822198        0x0 c:/altera/12.0sp2/nios2eds/bin/gnu/h-i686-mingw32/bin/../lib/gcc/nios2-elf/4.1.2/../../../../nios2-elf/lib\libm.a(lib_a-s_floor.o)
 .bss           0x01822198        0x0 c:/altera/12.0sp2/nios2eds/bin/gnu/h-i686-mingw32/bin/../lib/gcc/nios2-elf/4.1.2/../../../../nios2-elf/lib\libm.a(lib_a-s_isnand.o)
 .bss           0x01822198        0x0 c:/altera/12.0sp2/nios2eds/bin/gnu/h-i686-mingw32/bin/../lib/gcc/nios2-elf/4.1.2/../../../../nios2-elf/lib\libm.a(lib_a-s_lib_ver.o)
 .bss           0x01822198        0x0 c:/altera/12.0sp2/nios2eds/bin/gnu/h-i686-mingw32/bin/../lib/gcc/nios2-elf/4.1.2/../../../../nios2-elf/lib\libm.a(lib_a-s_matherr.o)
 .bss           0x01822198        0x0 c:/altera/12.0sp2/nios2eds/bin/gnu/h-i686-mingw32/bin/../lib/gcc/nios2-elf/4.1.2/../../../../nios2-elf/lib\libm.a(lib_a-s_scalbn.o)
 .bss           0x01822198        0x0 c:/altera/12.0sp2/nios2eds/bin/gnu/h-i686-mingw32/bin/../lib/gcc/nios2-elf/4.1.2/../../../../nios2-elf/lib\libm.a(lib_a-s_copysign.o)
 .bss           0x01822198        0x0 c:/altera/12.0sp2/nios2eds/bin/gnu/h-i686-mingw32/bin/../lib/gcc/nios2-elf/4.1.2\libgcc.a(_div_sf.o)
 .bss           0x01822198        0x0 c:/altera/12.0sp2/nios2eds/bin/gnu/h-i686-mingw32/bin/../lib/gcc/nios2-elf/4.1.2\libgcc.a(_si_to_sf.o)
 .bss           0x01822198        0x0 c:/altera/12.0sp2/nios2eds/bin/gnu/h-i686-mingw32/bin/../lib/gcc/nios2-elf/4.1.2\libgcc.a(_sf_to_df.o)
 .bss           0x01822198        0x0 c:/altera/12.0sp2/nios2eds/bin/gnu/h-i686-mingw32/bin/../lib/gcc/nios2-elf/4.1.2\libgcc.a(_thenan_sf.o)
 .bss           0x01822198        0x0 c:/altera/12.0sp2/nios2eds/bin/gnu/h-i686-mingw32/bin/../lib/gcc/nios2-elf/4.1.2\libgcc.a(_addsub_df.o)
 .bss           0x01822198        0x0 c:/altera/12.0sp2/nios2eds/bin/gnu/h-i686-mingw32/bin/../lib/gcc/nios2-elf/4.1.2\libgcc.a(_mul_df.o)
 .bss           0x01822198        0x0 c:/altera/12.0sp2/nios2eds/bin/gnu/h-i686-mingw32/bin/../lib/gcc/nios2-elf/4.1.2\libgcc.a(_div_df.o)
 .bss           0x01822198        0x0 c:/altera/12.0sp2/nios2eds/bin/gnu/h-i686-mingw32/bin/../lib/gcc/nios2-elf/4.1.2\libgcc.a(_eq_df.o)
 .bss           0x01822198        0x0 c:/altera/12.0sp2/nios2eds/bin/gnu/h-i686-mingw32/bin/../lib/gcc/nios2-elf/4.1.2\libgcc.a(_gt_df.o)
 .bss           0x01822198        0x0 c:/altera/12.0sp2/nios2eds/bin/gnu/h-i686-mingw32/bin/../lib/gcc/nios2-elf/4.1.2\libgcc.a(_ge_df.o)
 .bss           0x01822198        0x0 c:/altera/12.0sp2/nios2eds/bin/gnu/h-i686-mingw32/bin/../lib/gcc/nios2-elf/4.1.2\libgcc.a(_lt_df.o)
 .bss           0x01822198        0x0 c:/altera/12.0sp2/nios2eds/bin/gnu/h-i686-mingw32/bin/../lib/gcc/nios2-elf/4.1.2\libgcc.a(_si_to_df.o)
 .bss           0x01822198        0x0 c:/altera/12.0sp2/nios2eds/bin/gnu/h-i686-mingw32/bin/../lib/gcc/nios2-elf/4.1.2\libgcc.a(_df_to_si.o)
 .bss           0x01822198        0x0 c:/altera/12.0sp2/nios2eds/bin/gnu/h-i686-mingw32/bin/../lib/gcc/nios2-elf/4.1.2\libgcc.a(_make_df.o)
 .bss           0x01822198        0x0 c:/altera/12.0sp2/nios2eds/bin/gnu/h-i686-mingw32/bin/../lib/gcc/nios2-elf/4.1.2\libgcc.a(_df_to_sf.o)
 .bss           0x01822198        0x0 c:/altera/12.0sp2/nios2eds/bin/gnu/h-i686-mingw32/bin/../lib/gcc/nios2-elf/4.1.2\libgcc.a(_thenan_df.o)
 .bss           0x01822198        0x0 c:/altera/12.0sp2/nios2eds/bin/gnu/h-i686-mingw32/bin/../lib/gcc/nios2-elf/4.1.2\libgcc.a(lib2-divmod.o)
 .bss           0x01822198        0x0 c:/altera/12.0sp2/nios2eds/bin/gnu/h-i686-mingw32/bin/../lib/gcc/nios2-elf/4.1.2\libgcc.a(_muldi3.o)
 .bss           0x01822198        0x0 c:/altera/12.0sp2/nios2eds/bin/gnu/h-i686-mingw32/bin/../lib/gcc/nios2-elf/4.1.2\libgcc.a(_clzsi2.o)
 .bss           0x01822198        0x0 c:/altera/12.0sp2/nios2eds/bin/gnu/h-i686-mingw32/bin/../lib/gcc/nios2-elf/4.1.2\libgcc.a(_pack_sf.o)
 .bss           0x01822198        0x0 c:/altera/12.0sp2/nios2eds/bin/gnu/h-i686-mingw32/bin/../lib/gcc/nios2-elf/4.1.2\libgcc.a(_unpack_sf.o)
 .bss           0x01822198        0x0 c:/altera/12.0sp2/nios2eds/bin/gnu/h-i686-mingw32/bin/../lib/gcc/nios2-elf/4.1.2\libgcc.a(_make_sf.o)
 .bss           0x01822198        0x0 c:/altera/12.0sp2/nios2eds/bin/gnu/h-i686-mingw32/bin/../lib/gcc/nios2-elf/4.1.2\libgcc.a(_pack_df.o)
 .bss           0x01822198        0x0 c:/altera/12.0sp2/nios2eds/bin/gnu/h-i686-mingw32/bin/../lib/gcc/nios2-elf/4.1.2\libgcc.a(_unpack_df.o)
 .bss           0x01822198        0x0 c:/altera/12.0sp2/nios2eds/bin/gnu/h-i686-mingw32/bin/../lib/gcc/nios2-elf/4.1.2\libgcc.a(_fpcmp_parts_df.o)
 .bss           0x01822198        0x0 c:/altera/12.0sp2/nios2eds/bin/gnu/h-i686-mingw32/bin/../lib/gcc/nios2-elf/4.1.2\libgcc.a(_clz.o)
 .bss           0x01822198        0x0 c:/altera/12.0sp2/nios2eds/bin/gnu/h-i686-mingw32/bin/../lib/gcc/nios2-elf/4.1.2/../../../../nios2-elf/lib\libc.a(lib_a-errno.o)
 .bss           0x01822198        0x0 c:/altera/12.0sp2/nios2eds/bin/gnu/h-i686-mingw32/bin/../lib/gcc/nios2-elf/4.1.2/../../../../nios2-elf/lib\libc.a(lib_a-impure.o)
 .bss           0x01822198        0x0 c:/altera/12.0sp2/nios2eds/bin/gnu/h-i686-mingw32/bin/../lib/gcc/nios2-elf/4.1.2/../../../../nios2-elf/lib\libc.a(lib_a-memcpy.o)
 .bss           0x01822198        0x0 c:/altera/12.0sp2/nios2eds/bin/gnu/h-i686-mingw32/bin/../lib/gcc/nios2-elf/4.1.2/../../../../nios2-elf/lib\libc.a(lib_a-memset.o)
 .bss           0x01822198        0x0 c:/altera/12.0sp2/nios2eds/bin/gnu/h-i686-mingw32/bin/../lib/gcc/nios2-elf/4.1.2/../../../../nios2-elf/lib\libc.a(lib_a-printf.o)
 .bss           0x01822198        0x0 c:/altera/12.0sp2/nios2eds/bin/gnu/h-i686-mingw32/bin/../lib/gcc/nios2-elf/4.1.2/../../../../nios2-elf/lib\libc.a(lib_a-sprintf.o)
 .bss           0x01822198        0x0 c:/altera/12.0sp2/nios2eds/bin/gnu/h-i686-mingw32/bin/../lib/gcc/nios2-elf/4.1.2/../../../../nios2-elf/lib\libc.a(lib_a-vfprintf.o)
 .bss           0x01822198        0x0 c:/altera/12.0sp2/nios2eds/bin/gnu/h-i686-mingw32/bin/../lib/gcc/nios2-elf/4.1.2/../../../../nios2-elf/lib\libc.a(lib_a-wsetup.o)
 .bss           0x01822198        0x0 c:/altera/12.0sp2/nios2eds/bin/gnu/h-i686-mingw32/bin/../lib/gcc/nios2-elf/4.1.2/../../../../nios2-elf/lib\libc.a(lib_a-dtoa.o)
 .bss           0x01822198        0x0 c:/altera/12.0sp2/nios2eds/bin/gnu/h-i686-mingw32/bin/../lib/gcc/nios2-elf/4.1.2/../../../../nios2-elf/lib\libc.a(lib_a-fflush.o)
 .bss           0x01822198        0x0 c:/altera/12.0sp2/nios2eds/bin/gnu/h-i686-mingw32/bin/../lib/gcc/nios2-elf/4.1.2/../../../../nios2-elf/lib\libc.a(lib_a-findfp.o)
 .bss           0x01822198        0x0 c:/altera/12.0sp2/nios2eds/bin/gnu/h-i686-mingw32/bin/../lib/gcc/nios2-elf/4.1.2/../../../../nios2-elf/lib\libc.a(lib_a-freer.o)
 .bss           0x01822198        0x0 c:/altera/12.0sp2/nios2eds/bin/gnu/h-i686-mingw32/bin/../lib/gcc/nios2-elf/4.1.2/../../../../nios2-elf/lib\libc.a(lib_a-fvwrite.o)
 .bss           0x01822198        0x0 c:/altera/12.0sp2/nios2eds/bin/gnu/h-i686-mingw32/bin/../lib/gcc/nios2-elf/4.1.2/../../../../nios2-elf/lib\libc.a(lib_a-fwalk.o)
 .bss           0x01822198        0x0 c:/altera/12.0sp2/nios2eds/bin/gnu/h-i686-mingw32/bin/../lib/gcc/nios2-elf/4.1.2/../../../../nios2-elf/lib\libc.a(lib_a-locale.o)
 .bss           0x01822198        0x0 c:/altera/12.0sp2/nios2eds/bin/gnu/h-i686-mingw32/bin/../lib/gcc/nios2-elf/4.1.2/../../../../nios2-elf/lib\libc.a(lib_a-makebuf.o)
 .bss           0x01822198       0x28 c:/altera/12.0sp2/nios2eds/bin/gnu/h-i686-mingw32/bin/../lib/gcc/nios2-elf/4.1.2/../../../../nios2-elf/lib\libc.a(lib_a-mallocr.o)
                0x01822198                __malloc_current_mallinfo
 .bss           0x018221c0        0x0 c:/altera/12.0sp2/nios2eds/bin/gnu/h-i686-mingw32/bin/../lib/gcc/nios2-elf/4.1.2/../../../../nios2-elf/lib\libc.a(lib_a-memchr.o)
 .bss           0x018221c0        0x0 c:/altera/12.0sp2/nios2eds/bin/gnu/h-i686-mingw32/bin/../lib/gcc/nios2-elf/4.1.2/../../../../nios2-elf/lib\libc.a(lib_a-memmove.o)
 .bss           0x018221c0        0x0 c:/altera/12.0sp2/nios2eds/bin/gnu/h-i686-mingw32/bin/../lib/gcc/nios2-elf/4.1.2/../../../../nios2-elf/lib\libc.a(lib_a-mprec.o)
 .bss           0x018221c0        0x0 c:/altera/12.0sp2/nios2eds/bin/gnu/h-i686-mingw32/bin/../lib/gcc/nios2-elf/4.1.2/../../../../nios2-elf/lib\libc.a(lib_a-reallocr.o)
 .bss           0x018221c0        0x0 c:/altera/12.0sp2/nios2eds/bin/gnu/h-i686-mingw32/bin/../lib/gcc/nios2-elf/4.1.2/../../../../nios2-elf/lib\libc.a(lib_a-s_isinfd.o)
 .bss           0x018221c0        0x0 c:/altera/12.0sp2/nios2eds/bin/gnu/h-i686-mingw32/bin/../lib/gcc/nios2-elf/4.1.2/../../../../nios2-elf/lib\libc.a(lib_a-sbrkr.o)
 .bss           0x018221c0        0x0 c:/altera/12.0sp2/nios2eds/bin/gnu/h-i686-mingw32/bin/../lib/gcc/nios2-elf/4.1.2/../../../../nios2-elf/lib\libc.a(lib_a-stdio.o)
 .bss           0x018221c0        0x0 c:/altera/12.0sp2/nios2eds/bin/gnu/h-i686-mingw32/bin/../lib/gcc/nios2-elf/4.1.2/../../../../nios2-elf/lib\libc.a(lib_a-strcmp.o)
 .bss           0x018221c0        0x0 c:/altera/12.0sp2/nios2eds/bin/gnu/h-i686-mingw32/bin/../lib/gcc/nios2-elf/4.1.2/../../../../nios2-elf/lib\libc.a(lib_a-strlen.o)
 .bss           0x018221c0        0x0 c:/altera/12.0sp2/nios2eds/bin/gnu/h-i686-mingw32/bin/../lib/gcc/nios2-elf/4.1.2/../../../../nios2-elf/lib\libc.a(lib_a-writer.o)
 .bss           0x018221c0        0x0 c:/altera/12.0sp2/nios2eds/bin/gnu/h-i686-mingw32/bin/../lib/gcc/nios2-elf/4.1.2/../../../../nios2-elf/lib\libc.a(lib_a-callocr.o)
 .bss           0x018221c0        0x0 c:/altera/12.0sp2/nios2eds/bin/gnu/h-i686-mingw32/bin/../lib/gcc/nios2-elf/4.1.2/../../../../nios2-elf/lib\libc.a(lib_a-closer.o)
 .bss           0x018221c0        0x0 c:/altera/12.0sp2/nios2eds/bin/gnu/h-i686-mingw32/bin/../lib/gcc/nios2-elf/4.1.2/../../../../nios2-elf/lib\libc.a(lib_a-fclose.o)
 .bss           0x018221c0        0x0 c:/altera/12.0sp2/nios2eds/bin/gnu/h-i686-mingw32/bin/../lib/gcc/nios2-elf/4.1.2/../../../../nios2-elf/lib\libc.a(lib_a-fstatr.o)
 .bss           0x018221c0        0x0 c:/altera/12.0sp2/nios2eds/bin/gnu/h-i686-mingw32/bin/../lib/gcc/nios2-elf/4.1.2/../../../../nios2-elf/lib\libc.a(lib_a-int_errno.o)
 .bss           0x018221c0        0x0 c:/altera/12.0sp2/nios2eds/bin/gnu/h-i686-mingw32/bin/../lib/gcc/nios2-elf/4.1.2/../../../../nios2-elf/lib\libc.a(lib_a-isattyr.o)
 .bss           0x018221c0        0x0 c:/altera/12.0sp2/nios2eds/bin/gnu/h-i686-mingw32/bin/../lib/gcc/nios2-elf/4.1.2/../../../../nios2-elf/lib\libc.a(lib_a-lseekr.o)
 .bss           0x018221c0        0x0 c:/altera/12.0sp2/nios2eds/bin/gnu/h-i686-mingw32/bin/../lib/gcc/nios2-elf/4.1.2/../../../../nios2-elf/lib\libc.a(lib_a-readr.o)
 .bss           0x018221c0        0x0 c:/altera/12.0sp2/nios2eds/bin/gnu/h-i686-mingw32/bin/../lib/gcc/nios2-elf/4.1.2\libgcc.a(_udivdi3.o)
 .bss           0x018221c0        0x0 c:/altera/12.0sp2/nios2eds/bin/gnu/h-i686-mingw32/bin/../lib/gcc/nios2-elf/4.1.2\libgcc.a(_umoddi3.o)
 .bss           0x018221c0        0x0 c:/altera/12.0sp2/nios2eds/bin/gnu/h-i686-mingw32/bin/../lib/gcc/nios2-elf/4.1.2\libgcc.a(_ne_df.o)
 .bss           0x018221c0        0x0 c:/altera/12.0sp2/nios2eds/bin/gnu/h-i686-mingw32/bin/../lib/gcc/nios2-elf/4.1.2\libgcc.a(_usi_to_df.o)
 .bss           0x018221c0        0x0 ../microCTest_bsp/\libucosii_bsp.a(alt_close.o)
 .bss           0x018221c0        0x0 ../microCTest_bsp/\libucosii_bsp.a(alt_dev.o)
 .bss           0x018221c0        0x0 ../microCTest_bsp/\libucosii_bsp.a(alt_errno.o)
 .bss           0x018221c0        0x0 ../microCTest_bsp/\libucosii_bsp.a(alt_fstat.o)
 .bss           0x018221c0        0x0 ../microCTest_bsp/\libucosii_bsp.a(alt_isatty.o)
 .bss           0x018221c0        0x0 ../microCTest_bsp/\libucosii_bsp.a(alt_lseek.o)
 .bss           0x018221c0        0x0 ../microCTest_bsp/\libucosii_bsp.a(alt_main.o)
 .bss           0x018221c0        0x0 ../microCTest_bsp/\libucosii_bsp.a(alt_read.o)
 .bss           0x018221c0        0x0 ../microCTest_bsp/\libucosii_bsp.a(alt_release_fd.o)
 .bss           0x018221c0        0x0 ../microCTest_bsp/\libucosii_bsp.a(alt_sbrk.o)
 .bss           0x018221c0        0x0 ../microCTest_bsp/\libucosii_bsp.a(alt_usleep.o)
 .bss           0x018221c0        0x0 ../microCTest_bsp/\libucosii_bsp.a(alt_write.o)
 .bss           0x018221c0        0x0 ../microCTest_bsp/\libucosii_bsp.a(alt_env_lock.o)
 .bss           0x018221c0        0x0 ../microCTest_bsp/\libucosii_bsp.a(alt_malloc_lock.o)
 .bss           0x018221c0        0x0 ../microCTest_bsp/\libucosii_bsp.a(os_core.o)
 .bss           0x018221c0        0x0 ../microCTest_bsp/\libucosii_bsp.a(os_dbg.o)
 .bss           0x018221c0        0x0 ../microCTest_bsp/\libucosii_bsp.a(os_flag.o)
 .bss           0x018221c0        0x0 ../microCTest_bsp/\libucosii_bsp.a(os_mem.o)
 .bss           0x018221c0        0x0 ../microCTest_bsp/\libucosii_bsp.a(os_q.o)
 .bss           0x018221c0        0x0 ../microCTest_bsp/\libucosii_bsp.a(os_sem.o)
 .bss           0x018221c0        0x0 ../microCTest_bsp/\libucosii_bsp.a(os_task.o)
 .bss           0x018221c0        0x0 ../microCTest_bsp/\libucosii_bsp.a(os_time.o)
 .bss           0x018221c0        0x0 ../microCTest_bsp/\libucosii_bsp.a(alt_sys_init.o)
 .bss           0x018221c0        0x0 ../microCTest_bsp/\libucosii_bsp.a(altera_avalon_cfi_flash.o)
 .bss           0x018221c0        0x0 ../microCTest_bsp/\libucosii_bsp.a(altera_avalon_cfi_flash_table.o)
 .bss           0x018221c0        0x0 ../microCTest_bsp/\libucosii_bsp.a(altera_avalon_jtag_uart_fd.o)
 .bss           0x018221c0        0x0 ../microCTest_bsp/\libucosii_bsp.a(altera_avalon_jtag_uart_init.o)
 .bss           0x018221c0        0x0 ../microCTest_bsp/\libucosii_bsp.a(altera_avalon_jtag_uart_ioctl.o)
 .bss           0x018221c0        0x0 ../microCTest_bsp/\libucosii_bsp.a(altera_avalon_jtag_uart_read.o)
 .bss           0x018221c0        0x0 ../microCTest_bsp/\libucosii_bsp.a(altera_avalon_jtag_uart_write.o)
 .bss           0x018221c0        0x0 ../microCTest_bsp/\libucosii_bsp.a(altera_avalon_lcd_16207.o)
 .bss           0x018221c0        0x0 ../microCTest_bsp/\libucosii_bsp.a(altera_avalon_lcd_16207_fd.o)
 .bss           0x018221c0        0x0 ../microCTest_bsp/\libucosii_bsp.a(altera_avalon_timer_sc.o)
 .bss           0x018221c0        0x0 ../microCTest_bsp/\libucosii_bsp.a(altera_avalon_timer_vars.o)
 .bss           0x018221c0        0x0 ../microCTest_bsp/\libucosii_bsp.a(altera_avalon_uart_fd.o)
 .bss           0x018221c0        0x0 ../microCTest_bsp/\libucosii_bsp.a(altera_avalon_uart_init.o)
 .bss           0x018221c0        0x0 ../microCTest_bsp/\libucosii_bsp.a(altera_avalon_uart_read.o)
 .bss           0x018221c0        0x0 ../microCTest_bsp/\libucosii_bsp.a(altera_avalon_uart_write.o)
 .bss           0x018221c0        0x0 ../microCTest_bsp/\libucosii_bsp.a(alt_alarm_start.o)
 .bss           0x018221c0        0x0 ../microCTest_bsp/\libucosii_bsp.a(alt_busy_sleep.o)
 .bss           0x018221c0        0x0 ../microCTest_bsp/\libucosii_bsp.a(alt_dcache_flush.o)
 .bss           0x018221c0        0x0 ../microCTest_bsp/\libucosii_bsp.a(alt_dev_llist_insert.o)
 .bss           0x018221c0        0x0 ../microCTest_bsp/\libucosii_bsp.a(alt_do_ctors.o)
 .bss           0x018221c0        0x0 ../microCTest_bsp/\libucosii_bsp.a(alt_do_dtors.o)
 .bss           0x018221c0        0x0 ../microCTest_bsp/\libucosii_bsp.a(alt_flash_dev.o)
 .bss           0x018221c0        0x0 ../microCTest_bsp/\libucosii_bsp.a(alt_iic.o)
 .bss           0x018221c0        0x0 ../microCTest_bsp/\libucosii_bsp.a(alt_iic_isr_register.o)
 .bss           0x018221c0        0x0 ../microCTest_bsp/\libucosii_bsp.a(alt_io_redirect.o)
 .bss           0x018221c0        0x0 ../microCTest_bsp/\libucosii_bsp.a(alt_irq_entry.o)
 .bss           0x018221c0        0x0 ../microCTest_bsp/\libucosii_bsp.a(alt_irq_handler.o)
 .bss           0x018221c0        0x0 ../microCTest_bsp/\libucosii_bsp.a(alt_irq_vars.o)
 .bss           0x018221c0        0x0 ../microCTest_bsp/\libucosii_bsp.a(alt_open.o)
 .bss           0x018221c0        0x0 ../microCTest_bsp/\libucosii_bsp.a(alt_tick.o)
 .bss           0x018221c0        0x0 ../microCTest_bsp/\libucosii_bsp.a(altera_nios2_irq.o)
 .bss           0x018221c0        0x0 ../microCTest_bsp/\libucosii_bsp.a(os_cpu_a.o)
 .bss           0x018221c0        0x0 ../microCTest_bsp/\libucosii_bsp.a(os_cpu_c.o)
 .bss           0x018221c0        0x0 ../microCTest_bsp/\libucosii_bsp.a(altera_avalon_cfi_flash_amd.o)
 .bss           0x018221c0        0x0 ../microCTest_bsp/\libucosii_bsp.a(altera_avalon_cfi_flash_intel.o)
 .bss           0x018221c0        0x0 ../microCTest_bsp/\libucosii_bsp.a(alt_exception_entry.o)
 .bss           0x018221c0        0x0 ../microCTest_bsp/\libucosii_bsp.a(alt_find_dev.o)
 .bss           0x018221c0        0x0 ../microCTest_bsp/\libucosii_bsp.a(alt_find_file.o)
 .bss           0x018221c0        0x0 ../microCTest_bsp/\libucosii_bsp.a(alt_get_fd.o)
 .bss           0x018221c0        0x0 ../microCTest_bsp/\libucosii_bsp.a(alt_instruction_exception_entry.o)
 .bss           0x018221c0        0x0 c:/altera/12.0sp2/nios2eds/bin/gnu/h-i686-mingw32/bin/../lib/gcc/nios2-elf/4.1.2/../../../../nios2-elf/lib\libc.a(lib_a-atexit.o)
 .bss           0x018221c0        0x0 c:/altera/12.0sp2/nios2eds/bin/gnu/h-i686-mingw32/bin/../lib/gcc/nios2-elf/4.1.2/../../../../nios2-elf/lib\libc.a(lib_a-ctype_.o)
 .bss           0x018221c0        0x0 c:/altera/12.0sp2/nios2eds/bin/gnu/h-i686-mingw32/bin/../lib/gcc/nios2-elf/4.1.2/../../../../nios2-elf/lib\libc.a(lib_a-exit.o)
 .bss           0x018221c0        0x0 c:/altera/12.0sp2/nios2eds/bin/gnu/h-i686-mingw32/bin/../lib/gcc/nios2-elf/4.1.2/../../../../nios2-elf/lib\libc.a(lib_a-memcmp.o)
 .bss           0x018221c0        0x0 c:/altera/12.0sp2/nios2eds/bin/gnu/h-i686-mingw32/bin/../lib/gcc/nios2-elf/4.1.2/../../../../nios2-elf/lib\libc.a(lib_a-__atexit.o)
 .bss           0x018221c0        0x0 c:/altera/12.0sp2/nios2eds/bin/gnu/h-i686-mingw32/bin/../lib/gcc/nios2-elf/4.1.2/../../../../nios2-elf/lib\libc.a(lib_a-__call_atexit.o)
 .bss           0x018221c0        0x0 ../microCTest_bsp/\libucosii_bsp.a(alt_exit.o)
 *(COMMON)
 COMMON         0x018221c0     0x6050 obj/default/hello_ucosii.o
                0x018221c0                task1_stk
                0x018241c0                filterOut_stk
                0x018261c0                button
                0x01826204                keypadCheck_stk
                0x01828204                solution2
 COMMON         0x01828210     0x3224 ../microCTest_bsp/\libucosii_bsp.a(os_core.o)
                0x01828210                OSFlagTbl
                0x01828580                OSMemTbl
                0x018291b0                OSTaskStatStk
                0x018299b0                OSQTbl
                0x01829b90                OSTaskIdleStk
                0x0182a390                OSEventTbl
                0x0182aed0                OSTCBTbl
                0x0182b3e0                OSTCBPrioTbl
 COMMON         0x0182b434      0x100 ../microCTest_bsp/\libucosii_bsp.a(alt_irq_handler.o)
                0x0182b434                alt_irq
 COMMON         0x0182b534      0x190 c:/altera/12.0sp2/nios2eds/bin/gnu/h-i686-mingw32/bin/../lib/gcc/nios2-elf/4.1.2/../../../../nios2-elf/lib\libc.a(lib_a-atexit.o)
                0x0182b534                _atexit0
                0x0182b6c4                . = ALIGN (0x4)
                0x0182b6c4                __bss_end = ABSOLUTE (.)

.sdram          0x0182b6c4        0x0
                0x0182b6c4                PROVIDE (_alt_partition_sdram_start, ABSOLUTE (.))
 *(.sdram. sdram.*)
                0x0182b6c4                . = ALIGN (0x4)
                0x0182b6c4                PROVIDE (_alt_partition_sdram_end, ABSOLUTE (.))
                0x0182b6c4                _end = ABSOLUTE (.)
                0x0182b6c4                end = ABSOLUTE (.)
                0x0182b6c4                __alt_stack_base = ABSOLUTE (.)
                0x0182b6c4                PROVIDE (_alt_partition_sdram_load_addr, LOADADDR (.sdram))

.cfi_flash      0x02400020        0x0
                0x02400020                PROVIDE (_alt_partition_cfi_flash_start, ABSOLUTE (.))
 *(.cfi_flash. cfi_flash.*)
                0x02400020                . = ALIGN (0x4)
                0x02400020                PROVIDE (_alt_partition_cfi_flash_end, ABSOLUTE (.))
                0x02400020                PROVIDE (_alt_partition_cfi_flash_load_addr, LOADADDR (.cfi_flash))

.onchip_mem     0x02808234        0x0
                0x02808234                PROVIDE (_alt_partition_onchip_mem_start, ABSOLUTE (.))
 *(.onchip_mem. onchip_mem.*)
                0x02808234                . = ALIGN (0x4)
                0x02808234                PROVIDE (_alt_partition_onchip_mem_end, ABSOLUTE (.))
                0x02808234                PROVIDE (_alt_partition_onchip_mem_load_addr, LOADADDR (.onchip_mem))

.stab
 *(.stab)

.stabstr
 *(.stabstr)

.stab.excl
 *(.stab.excl)

.stab.exclstr
 *(.stab.exclstr)

.stab.index
 *(.stab.index)

.stab.indexstr
 *(.stab.indexstr)

.comment        0x00000000       0x26
 *(.comment)
 .comment       0x00000000       0x26 obj/default/IK.o
                                 0x27 (size before relaxing)
 .comment       0x00000000       0x27 obj/default/hello_ucosii.o
 .comment       0x00000000       0x27 obj/default/keypad.o
 .comment       0x00000000       0x27 obj/default/lcd.o
 .comment       0x00000000       0x27 obj/default/pwm.o
 .comment       0x00000000       0x27 obj/default/utilities.o
 .comment       0x00000000       0x27 c:/altera/12.0sp2/nios2eds/bin/gnu/h-i686-mingw32/bin/../lib/gcc/nios2-elf/4.1.2/../../../../nios2-elf/lib\libm.a(lib_a-s_cos.o)
 .comment       0x00000000       0x27 c:/altera/12.0sp2/nios2eds/bin/gnu/h-i686-mingw32/bin/../lib/gcc/nios2-elf/4.1.2/../../../../nios2-elf/lib\libm.a(lib_a-s_round.o)
 .comment       0x00000000       0x27 c:/altera/12.0sp2/nios2eds/bin/gnu/h-i686-mingw32/bin/../lib/gcc/nios2-elf/4.1.2/../../../../nios2-elf/lib\libm.a(lib_a-s_sin.o)
 .comment       0x00000000       0x27 c:/altera/12.0sp2/nios2eds/bin/gnu/h-i686-mingw32/bin/../lib/gcc/nios2-elf/4.1.2/../../../../nios2-elf/lib\libm.a(lib_a-w_atan2.o)
 .comment       0x00000000       0x27 c:/altera/12.0sp2/nios2eds/bin/gnu/h-i686-mingw32/bin/../lib/gcc/nios2-elf/4.1.2/../../../../nios2-elf/lib\libm.a(lib_a-w_sqrt.o)
 .comment       0x00000000       0x27 c:/altera/12.0sp2/nios2eds/bin/gnu/h-i686-mingw32/bin/../lib/gcc/nios2-elf/4.1.2/../../../../nios2-elf/lib\libm.a(lib_a-e_atan2.o)
 .comment       0x00000000       0x27 c:/altera/12.0sp2/nios2eds/bin/gnu/h-i686-mingw32/bin/../lib/gcc/nios2-elf/4.1.2/../../../../nios2-elf/lib\libm.a(lib_a-e_rem_pio2.o)
 .comment       0x00000000       0x27 c:/altera/12.0sp2/nios2eds/bin/gnu/h-i686-mingw32/bin/../lib/gcc/nios2-elf/4.1.2/../../../../nios2-elf/lib\libm.a(lib_a-e_sqrt.o)
 .comment       0x00000000       0x27 c:/altera/12.0sp2/nios2eds/bin/gnu/h-i686-mingw32/bin/../lib/gcc/nios2-elf/4.1.2/../../../../nios2-elf/lib\libm.a(lib_a-k_cos.o)
 .comment       0x00000000       0x27 c:/altera/12.0sp2/nios2eds/bin/gnu/h-i686-mingw32/bin/../lib/gcc/nios2-elf/4.1.2/../../../../nios2-elf/lib\libm.a(lib_a-k_rem_pio2.o)
 .comment       0x00000000       0x27 c:/altera/12.0sp2/nios2eds/bin/gnu/h-i686-mingw32/bin/../lib/gcc/nios2-elf/4.1.2/../../../../nios2-elf/lib\libm.a(lib_a-k_sin.o)
 .comment       0x00000000       0x27 c:/altera/12.0sp2/nios2eds/bin/gnu/h-i686-mingw32/bin/../lib/gcc/nios2-elf/4.1.2/../../../../nios2-elf/lib\libm.a(lib_a-s_atan.o)
 .comment       0x00000000       0x27 c:/altera/12.0sp2/nios2eds/bin/gnu/h-i686-mingw32/bin/../lib/gcc/nios2-elf/4.1.2/../../../../nios2-elf/lib\libm.a(lib_a-s_fabs.o)
 .comment       0x00000000       0x27 c:/altera/12.0sp2/nios2eds/bin/gnu/h-i686-mingw32/bin/../lib/gcc/nios2-elf/4.1.2/../../../../nios2-elf/lib\libm.a(lib_a-s_floor.o)
 .comment       0x00000000       0x27 c:/altera/12.0sp2/nios2eds/bin/gnu/h-i686-mingw32/bin/../lib/gcc/nios2-elf/4.1.2/../../../../nios2-elf/lib\libm.a(lib_a-s_isnand.o)
 .comment       0x00000000       0x27 c:/altera/12.0sp2/nios2eds/bin/gnu/h-i686-mingw32/bin/../lib/gcc/nios2-elf/4.1.2/../../../../nios2-elf/lib\libm.a(lib_a-s_lib_ver.o)
 .comment       0x00000000       0x27 c:/altera/12.0sp2/nios2eds/bin/gnu/h-i686-mingw32/bin/../lib/gcc/nios2-elf/4.1.2/../../../../nios2-elf/lib\libm.a(lib_a-s_matherr.o)
 .comment       0x00000000       0x27 c:/altera/12.0sp2/nios2eds/bin/gnu/h-i686-mingw32/bin/../lib/gcc/nios2-elf/4.1.2/../../../../nios2-elf/lib\libm.a(lib_a-s_scalbn.o)
 .comment       0x00000000       0x27 c:/altera/12.0sp2/nios2eds/bin/gnu/h-i686-mingw32/bin/../lib/gcc/nios2-elf/4.1.2/../../../../nios2-elf/lib\libm.a(lib_a-s_copysign.o)
 .comment       0x00000000       0x27 c:/altera/12.0sp2/nios2eds/bin/gnu/h-i686-mingw32/bin/../lib/gcc/nios2-elf/4.1.2\libgcc.a(_div_sf.o)
 .comment       0x00000000       0x27 c:/altera/12.0sp2/nios2eds/bin/gnu/h-i686-mingw32/bin/../lib/gcc/nios2-elf/4.1.2\libgcc.a(_si_to_sf.o)
 .comment       0x00000000       0x27 c:/altera/12.0sp2/nios2eds/bin/gnu/h-i686-mingw32/bin/../lib/gcc/nios2-elf/4.1.2\libgcc.a(_sf_to_df.o)
 .comment       0x00000000       0x27 c:/altera/12.0sp2/nios2eds/bin/gnu/h-i686-mingw32/bin/../lib/gcc/nios2-elf/4.1.2\libgcc.a(_thenan_sf.o)
 .comment       0x00000000       0x27 c:/altera/12.0sp2/nios2eds/bin/gnu/h-i686-mingw32/bin/../lib/gcc/nios2-elf/4.1.2\libgcc.a(_addsub_df.o)
 .comment       0x00000000       0x27 c:/altera/12.0sp2/nios2eds/bin/gnu/h-i686-mingw32/bin/../lib/gcc/nios2-elf/4.1.2\libgcc.a(_mul_df.o)
 .comment       0x00000000       0x27 c:/altera/12.0sp2/nios2eds/bin/gnu/h-i686-mingw32/bin/../lib/gcc/nios2-elf/4.1.2\libgcc.a(_div_df.o)
 .comment       0x00000000       0x27 c:/altera/12.0sp2/nios2eds/bin/gnu/h-i686-mingw32/bin/../lib/gcc/nios2-elf/4.1.2\libgcc.a(_eq_df.o)
 .comment       0x00000000       0x27 c:/altera/12.0sp2/nios2eds/bin/gnu/h-i686-mingw32/bin/../lib/gcc/nios2-elf/4.1.2\libgcc.a(_gt_df.o)
 .comment       0x00000000       0x27 c:/altera/12.0sp2/nios2eds/bin/gnu/h-i686-mingw32/bin/../lib/gcc/nios2-elf/4.1.2\libgcc.a(_ge_df.o)
 .comment       0x00000000       0x27 c:/altera/12.0sp2/nios2eds/bin/gnu/h-i686-mingw32/bin/../lib/gcc/nios2-elf/4.1.2\libgcc.a(_lt_df.o)
 .comment       0x00000000       0x27 c:/altera/12.0sp2/nios2eds/bin/gnu/h-i686-mingw32/bin/../lib/gcc/nios2-elf/4.1.2\libgcc.a(_si_to_df.o)
 .comment       0x00000000       0x27 c:/altera/12.0sp2/nios2eds/bin/gnu/h-i686-mingw32/bin/../lib/gcc/nios2-elf/4.1.2\libgcc.a(_df_to_si.o)
 .comment       0x00000000       0x27 c:/altera/12.0sp2/nios2eds/bin/gnu/h-i686-mingw32/bin/../lib/gcc/nios2-elf/4.1.2\libgcc.a(_make_df.o)
 .comment       0x00000000       0x27 c:/altera/12.0sp2/nios2eds/bin/gnu/h-i686-mingw32/bin/../lib/gcc/nios2-elf/4.1.2\libgcc.a(_df_to_sf.o)
 .comment       0x00000000       0x27 c:/altera/12.0sp2/nios2eds/bin/gnu/h-i686-mingw32/bin/../lib/gcc/nios2-elf/4.1.2\libgcc.a(_thenan_df.o)
 .comment       0x00000000       0x27 c:/altera/12.0sp2/nios2eds/bin/gnu/h-i686-mingw32/bin/../lib/gcc/nios2-elf/4.1.2\libgcc.a(lib2-divmod.o)
 .comment       0x00000000       0x27 c:/altera/12.0sp2/nios2eds/bin/gnu/h-i686-mingw32/bin/../lib/gcc/nios2-elf/4.1.2\libgcc.a(_muldi3.o)
 .comment       0x00000000       0x27 c:/altera/12.0sp2/nios2eds/bin/gnu/h-i686-mingw32/bin/../lib/gcc/nios2-elf/4.1.2\libgcc.a(_clzsi2.o)
 .comment       0x00000000       0x27 c:/altera/12.0sp2/nios2eds/bin/gnu/h-i686-mingw32/bin/../lib/gcc/nios2-elf/4.1.2\libgcc.a(_pack_sf.o)
 .comment       0x00000000       0x27 c:/altera/12.0sp2/nios2eds/bin/gnu/h-i686-mingw32/bin/../lib/gcc/nios2-elf/4.1.2\libgcc.a(_unpack_sf.o)
 .comment       0x00000000       0x27 c:/altera/12.0sp2/nios2eds/bin/gnu/h-i686-mingw32/bin/../lib/gcc/nios2-elf/4.1.2\libgcc.a(_make_sf.o)
 .comment       0x00000000       0x27 c:/altera/12.0sp2/nios2eds/bin/gnu/h-i686-mingw32/bin/../lib/gcc/nios2-elf/4.1.2\libgcc.a(_pack_df.o)
 .comment       0x00000000       0x27 c:/altera/12.0sp2/nios2eds/bin/gnu/h-i686-mingw32/bin/../lib/gcc/nios2-elf/4.1.2\libgcc.a(_unpack_df.o)
 .comment       0x00000000       0x27 c:/altera/12.0sp2/nios2eds/bin/gnu/h-i686-mingw32/bin/../lib/gcc/nios2-elf/4.1.2\libgcc.a(_fpcmp_parts_df.o)
 .comment       0x00000000       0x27 c:/altera/12.0sp2/nios2eds/bin/gnu/h-i686-mingw32/bin/../lib/gcc/nios2-elf/4.1.2\libgcc.a(_clz.o)
 .comment       0x00000000       0x27 c:/altera/12.0sp2/nios2eds/bin/gnu/h-i686-mingw32/bin/../lib/gcc/nios2-elf/4.1.2/../../../../nios2-elf/lib\libc.a(lib_a-errno.o)
 .comment       0x00000000       0x27 c:/altera/12.0sp2/nios2eds/bin/gnu/h-i686-mingw32/bin/../lib/gcc/nios2-elf/4.1.2/../../../../nios2-elf/lib\libc.a(lib_a-impure.o)
 .comment       0x00000000       0x27 c:/altera/12.0sp2/nios2eds/bin/gnu/h-i686-mingw32/bin/../lib/gcc/nios2-elf/4.1.2/../../../../nios2-elf/lib\libc.a(lib_a-memcpy.o)
 .comment       0x00000000       0x27 c:/altera/12.0sp2/nios2eds/bin/gnu/h-i686-mingw32/bin/../lib/gcc/nios2-elf/4.1.2/../../../../nios2-elf/lib\libc.a(lib_a-memset.o)
 .comment       0x00000000       0x27 c:/altera/12.0sp2/nios2eds/bin/gnu/h-i686-mingw32/bin/../lib/gcc/nios2-elf/4.1.2/../../../../nios2-elf/lib\libc.a(lib_a-printf.o)
 .comment       0x00000000       0x27 c:/altera/12.0sp2/nios2eds/bin/gnu/h-i686-mingw32/bin/../lib/gcc/nios2-elf/4.1.2/../../../../nios2-elf/lib\libc.a(lib_a-sprintf.o)
 .comment       0x00000000       0x27 c:/altera/12.0sp2/nios2eds/bin/gnu/h-i686-mingw32/bin/../lib/gcc/nios2-elf/4.1.2/../../../../nios2-elf/lib\libc.a(lib_a-vfprintf.o)
 .comment       0x00000000       0x27 c:/altera/12.0sp2/nios2eds/bin/gnu/h-i686-mingw32/bin/../lib/gcc/nios2-elf/4.1.2/../../../../nios2-elf/lib\libc.a(lib_a-wsetup.o)
 .comment       0x00000000       0x27 c:/altera/12.0sp2/nios2eds/bin/gnu/h-i686-mingw32/bin/../lib/gcc/nios2-elf/4.1.2/../../../../nios2-elf/lib\libc.a(lib_a-dtoa.o)
 .comment       0x00000000       0x27 c:/altera/12.0sp2/nios2eds/bin/gnu/h-i686-mingw32/bin/../lib/gcc/nios2-elf/4.1.2/../../../../nios2-elf/lib\libc.a(lib_a-fflush.o)
 .comment       0x00000000       0x27 c:/altera/12.0sp2/nios2eds/bin/gnu/h-i686-mingw32/bin/../lib/gcc/nios2-elf/4.1.2/../../../../nios2-elf/lib\libc.a(lib_a-findfp.o)
 .comment       0x00000000       0x27 c:/altera/12.0sp2/nios2eds/bin/gnu/h-i686-mingw32/bin/../lib/gcc/nios2-elf/4.1.2/../../../../nios2-elf/lib\libc.a(lib_a-freer.o)
 .comment       0x00000000       0x27 c:/altera/12.0sp2/nios2eds/bin/gnu/h-i686-mingw32/bin/../lib/gcc/nios2-elf/4.1.2/../../../../nios2-elf/lib\libc.a(lib_a-fvwrite.o)
 .comment       0x00000000       0x27 c:/altera/12.0sp2/nios2eds/bin/gnu/h-i686-mingw32/bin/../lib/gcc/nios2-elf/4.1.2/../../../../nios2-elf/lib\libc.a(lib_a-fwalk.o)
 .comment       0x00000000       0x27 c:/altera/12.0sp2/nios2eds/bin/gnu/h-i686-mingw32/bin/../lib/gcc/nios2-elf/4.1.2/../../../../nios2-elf/lib\libc.a(lib_a-locale.o)
 .comment       0x00000000       0x27 c:/altera/12.0sp2/nios2eds/bin/gnu/h-i686-mingw32/bin/../lib/gcc/nios2-elf/4.1.2/../../../../nios2-elf/lib\libc.a(lib_a-makebuf.o)
 .comment       0x00000000       0x27 c:/altera/12.0sp2/nios2eds/bin/gnu/h-i686-mingw32/bin/../lib/gcc/nios2-elf/4.1.2/../../../../nios2-elf/lib\libc.a(lib_a-mallocr.o)
 .comment       0x00000000       0x27 c:/altera/12.0sp2/nios2eds/bin/gnu/h-i686-mingw32/bin/../lib/gcc/nios2-elf/4.1.2/../../../../nios2-elf/lib\libc.a(lib_a-memchr.o)
 .comment       0x00000000       0x27 c:/altera/12.0sp2/nios2eds/bin/gnu/h-i686-mingw32/bin/../lib/gcc/nios2-elf/4.1.2/../../../../nios2-elf/lib\libc.a(lib_a-memmove.o)
 .comment       0x00000000       0x27 c:/altera/12.0sp2/nios2eds/bin/gnu/h-i686-mingw32/bin/../lib/gcc/nios2-elf/4.1.2/../../../../nios2-elf/lib\libc.a(lib_a-mprec.o)
 .comment       0x00000000       0x27 c:/altera/12.0sp2/nios2eds/bin/gnu/h-i686-mingw32/bin/../lib/gcc/nios2-elf/4.1.2/../../../../nios2-elf/lib\libc.a(lib_a-reallocr.o)
 .comment       0x00000000       0x27 c:/altera/12.0sp2/nios2eds/bin/gnu/h-i686-mingw32/bin/../lib/gcc/nios2-elf/4.1.2/../../../../nios2-elf/lib\libc.a(lib_a-s_isinfd.o)
 .comment       0x00000000       0x27 c:/altera/12.0sp2/nios2eds/bin/gnu/h-i686-mingw32/bin/../lib/gcc/nios2-elf/4.1.2/../../../../nios2-elf/lib\libc.a(lib_a-sbrkr.o)
 .comment       0x00000000       0x27 c:/altera/12.0sp2/nios2eds/bin/gnu/h-i686-mingw32/bin/../lib/gcc/nios2-elf/4.1.2/../../../../nios2-elf/lib\libc.a(lib_a-stdio.o)
 .comment       0x00000000       0x27 c:/altera/12.0sp2/nios2eds/bin/gnu/h-i686-mingw32/bin/../lib/gcc/nios2-elf/4.1.2/../../../../nios2-elf/lib\libc.a(lib_a-strcmp.o)
 .comment       0x00000000       0x27 c:/altera/12.0sp2/nios2eds/bin/gnu/h-i686-mingw32/bin/../lib/gcc/nios2-elf/4.1.2/../../../../nios2-elf/lib\libc.a(lib_a-strlen.o)
 .comment       0x00000000       0x27 c:/altera/12.0sp2/nios2eds/bin/gnu/h-i686-mingw32/bin/../lib/gcc/nios2-elf/4.1.2/../../../../nios2-elf/lib\libc.a(lib_a-writer.o)
 .comment       0x00000000       0x27 c:/altera/12.0sp2/nios2eds/bin/gnu/h-i686-mingw32/bin/../lib/gcc/nios2-elf/4.1.2/../../../../nios2-elf/lib\libc.a(lib_a-callocr.o)
 .comment       0x00000000       0x27 c:/altera/12.0sp2/nios2eds/bin/gnu/h-i686-mingw32/bin/../lib/gcc/nios2-elf/4.1.2/../../../../nios2-elf/lib\libc.a(lib_a-closer.o)
 .comment       0x00000000       0x27 c:/altera/12.0sp2/nios2eds/bin/gnu/h-i686-mingw32/bin/../lib/gcc/nios2-elf/4.1.2/../../../../nios2-elf/lib\libc.a(lib_a-fclose.o)
 .comment       0x00000000       0x27 c:/altera/12.0sp2/nios2eds/bin/gnu/h-i686-mingw32/bin/../lib/gcc/nios2-elf/4.1.2/../../../../nios2-elf/lib\libc.a(lib_a-fstatr.o)
 .comment       0x00000000       0x27 c:/altera/12.0sp2/nios2eds/bin/gnu/h-i686-mingw32/bin/../lib/gcc/nios2-elf/4.1.2/../../../../nios2-elf/lib\libc.a(lib_a-int_errno.o)
 .comment       0x00000000       0x27 c:/altera/12.0sp2/nios2eds/bin/gnu/h-i686-mingw32/bin/../lib/gcc/nios2-elf/4.1.2/../../../../nios2-elf/lib\libc.a(lib_a-isattyr.o)
 .comment       0x00000000       0x27 c:/altera/12.0sp2/nios2eds/bin/gnu/h-i686-mingw32/bin/../lib/gcc/nios2-elf/4.1.2/../../../../nios2-elf/lib\libc.a(lib_a-lseekr.o)
 .comment       0x00000000       0x27 c:/altera/12.0sp2/nios2eds/bin/gnu/h-i686-mingw32/bin/../lib/gcc/nios2-elf/4.1.2/../../../../nios2-elf/lib\libc.a(lib_a-readr.o)
 .comment       0x00000000       0x27 c:/altera/12.0sp2/nios2eds/bin/gnu/h-i686-mingw32/bin/../lib/gcc/nios2-elf/4.1.2\libgcc.a(_udivdi3.o)
 .comment       0x00000000       0x27 c:/altera/12.0sp2/nios2eds/bin/gnu/h-i686-mingw32/bin/../lib/gcc/nios2-elf/4.1.2\libgcc.a(_umoddi3.o)
 .comment       0x00000000       0x27 c:/altera/12.0sp2/nios2eds/bin/gnu/h-i686-mingw32/bin/../lib/gcc/nios2-elf/4.1.2\libgcc.a(_ne_df.o)
 .comment       0x00000000       0x27 c:/altera/12.0sp2/nios2eds/bin/gnu/h-i686-mingw32/bin/../lib/gcc/nios2-elf/4.1.2\libgcc.a(_usi_to_df.o)
 .comment       0x00000000       0x27 ../microCTest_bsp/\libucosii_bsp.a(alt_close.o)
 .comment       0x00000000       0x27 ../microCTest_bsp/\libucosii_bsp.a(alt_dev.o)
 .comment       0x00000000       0x27 ../microCTest_bsp/\libucosii_bsp.a(alt_errno.o)
 .comment       0x00000000       0x27 ../microCTest_bsp/\libucosii_bsp.a(alt_fstat.o)
 .comment       0x00000000       0x27 ../microCTest_bsp/\libucosii_bsp.a(alt_isatty.o)
 .comment       0x00000000       0x27 ../microCTest_bsp/\libucosii_bsp.a(alt_lseek.o)
 .comment       0x00000000       0x27 ../microCTest_bsp/\libucosii_bsp.a(alt_main.o)
 .comment       0x00000000       0x27 ../microCTest_bsp/\libucosii_bsp.a(alt_read.o)
 .comment       0x00000000       0x27 ../microCTest_bsp/\libucosii_bsp.a(alt_release_fd.o)
 .comment       0x00000000       0x27 ../microCTest_bsp/\libucosii_bsp.a(alt_sbrk.o)
 .comment       0x00000000       0x27 ../microCTest_bsp/\libucosii_bsp.a(alt_usleep.o)
 .comment       0x00000000       0x27 ../microCTest_bsp/\libucosii_bsp.a(alt_write.o)
 .comment       0x00000000       0x27 ../microCTest_bsp/\libucosii_bsp.a(alt_env_lock.o)
 .comment       0x00000000       0x27 ../microCTest_bsp/\libucosii_bsp.a(alt_malloc_lock.o)
 .comment       0x00000000       0x27 ../microCTest_bsp/\libucosii_bsp.a(os_core.o)
 .comment       0x00000000       0x27 ../microCTest_bsp/\libucosii_bsp.a(os_dbg.o)
 .comment       0x00000000       0x27 ../microCTest_bsp/\libucosii_bsp.a(os_flag.o)
 .comment       0x00000000       0x27 ../microCTest_bsp/\libucosii_bsp.a(os_mem.o)
 .comment       0x00000000       0x27 ../microCTest_bsp/\libucosii_bsp.a(os_q.o)
 .comment       0x00000000       0x27 ../microCTest_bsp/\libucosii_bsp.a(os_sem.o)
 .comment       0x00000000       0x27 ../microCTest_bsp/\libucosii_bsp.a(os_task.o)
 .comment       0x00000000       0x27 ../microCTest_bsp/\libucosii_bsp.a(os_time.o)
 .comment       0x00000000       0x27 ../microCTest_bsp/\libucosii_bsp.a(alt_sys_init.o)
 .comment       0x00000000       0x27 ../microCTest_bsp/\libucosii_bsp.a(altera_avalon_cfi_flash.o)
 .comment       0x00000000       0x27 ../microCTest_bsp/\libucosii_bsp.a(altera_avalon_cfi_flash_table.o)
 .comment       0x00000000       0x27 ../microCTest_bsp/\libucosii_bsp.a(altera_avalon_jtag_uart_fd.o)
 .comment       0x00000000       0x27 ../microCTest_bsp/\libucosii_bsp.a(altera_avalon_jtag_uart_init.o)
 .comment       0x00000000       0x27 ../microCTest_bsp/\libucosii_bsp.a(altera_avalon_jtag_uart_ioctl.o)
 .comment       0x00000000       0x27 ../microCTest_bsp/\libucosii_bsp.a(altera_avalon_jtag_uart_read.o)
 .comment       0x00000000       0x27 ../microCTest_bsp/\libucosii_bsp.a(altera_avalon_jtag_uart_write.o)
 .comment       0x00000000       0x27 ../microCTest_bsp/\libucosii_bsp.a(altera_avalon_lcd_16207.o)
 .comment       0x00000000       0x27 ../microCTest_bsp/\libucosii_bsp.a(altera_avalon_lcd_16207_fd.o)
 .comment       0x00000000       0x27 ../microCTest_bsp/\libucosii_bsp.a(altera_avalon_timer_sc.o)
 .comment       0x00000000       0x27 ../microCTest_bsp/\libucosii_bsp.a(altera_avalon_timer_vars.o)
 .comment       0x00000000       0x27 ../microCTest_bsp/\libucosii_bsp.a(altera_avalon_uart_fd.o)
 .comment       0x00000000       0x27 ../microCTest_bsp/\libucosii_bsp.a(altera_avalon_uart_init.o)
 .comment       0x00000000       0x27 ../microCTest_bsp/\libucosii_bsp.a(altera_avalon_uart_read.o)
 .comment       0x00000000       0x27 ../microCTest_bsp/\libucosii_bsp.a(altera_avalon_uart_write.o)
 .comment       0x00000000       0x27 ../microCTest_bsp/\libucosii_bsp.a(alt_alarm_start.o)
 .comment       0x00000000       0x27 ../microCTest_bsp/\libucosii_bsp.a(alt_busy_sleep.o)
 .comment       0x00000000       0x27 ../microCTest_bsp/\libucosii_bsp.a(alt_dcache_flush.o)
 .comment       0x00000000       0x27 ../microCTest_bsp/\libucosii_bsp.a(alt_dev_llist_insert.o)
 .comment       0x00000000       0x27 ../microCTest_bsp/\libucosii_bsp.a(alt_do_ctors.o)
 .comment       0x00000000       0x27 ../microCTest_bsp/\libucosii_bsp.a(alt_do_dtors.o)
 .comment       0x00000000       0x27 ../microCTest_bsp/\libucosii_bsp.a(alt_flash_dev.o)
 .comment       0x00000000       0x27 ../microCTest_bsp/\libucosii_bsp.a(alt_iic.o)
 .comment       0x00000000       0x27 ../microCTest_bsp/\libucosii_bsp.a(alt_iic_isr_register.o)
 .comment       0x00000000       0x27 ../microCTest_bsp/\libucosii_bsp.a(alt_io_redirect.o)
 .comment       0x00000000       0x27 ../microCTest_bsp/\libucosii_bsp.a(alt_irq_handler.o)
 .comment       0x00000000       0x27 ../microCTest_bsp/\libucosii_bsp.a(alt_irq_vars.o)
 .comment       0x00000000       0x27 ../microCTest_bsp/\libucosii_bsp.a(alt_open.o)
 .comment       0x00000000       0x27 ../microCTest_bsp/\libucosii_bsp.a(alt_tick.o)
 .comment       0x00000000       0x27 ../microCTest_bsp/\libucosii_bsp.a(altera_nios2_irq.o)
 .comment       0x00000000       0x27 ../microCTest_bsp/\libucosii_bsp.a(os_cpu_c.o)
 .comment       0x00000000       0x27 ../microCTest_bsp/\libucosii_bsp.a(altera_avalon_cfi_flash_amd.o)
 .comment       0x00000000       0x27 ../microCTest_bsp/\libucosii_bsp.a(altera_avalon_cfi_flash_intel.o)
 .comment       0x00000000       0x27 ../microCTest_bsp/\libucosii_bsp.a(alt_find_dev.o)
 .comment       0x00000000       0x27 ../microCTest_bsp/\libucosii_bsp.a(alt_find_file.o)
 .comment       0x00000000       0x27 ../microCTest_bsp/\libucosii_bsp.a(alt_get_fd.o)
 .comment       0x00000000       0x27 ../microCTest_bsp/\libucosii_bsp.a(alt_instruction_exception_entry.o)
 .comment       0x00000000       0x27 c:/altera/12.0sp2/nios2eds/bin/gnu/h-i686-mingw32/bin/../lib/gcc/nios2-elf/4.1.2/../../../../nios2-elf/lib\libc.a(lib_a-atexit.o)
 .comment       0x00000000       0x27 c:/altera/12.0sp2/nios2eds/bin/gnu/h-i686-mingw32/bin/../lib/gcc/nios2-elf/4.1.2/../../../../nios2-elf/lib\libc.a(lib_a-ctype_.o)
 .comment       0x00000000       0x27 c:/altera/12.0sp2/nios2eds/bin/gnu/h-i686-mingw32/bin/../lib/gcc/nios2-elf/4.1.2/../../../../nios2-elf/lib\libc.a(lib_a-exit.o)
 .comment       0x00000000       0x27 c:/altera/12.0sp2/nios2eds/bin/gnu/h-i686-mingw32/bin/../lib/gcc/nios2-elf/4.1.2/../../../../nios2-elf/lib\libc.a(lib_a-memcmp.o)
 .comment       0x00000000       0x27 c:/altera/12.0sp2/nios2eds/bin/gnu/h-i686-mingw32/bin/../lib/gcc/nios2-elf/4.1.2/../../../../nios2-elf/lib\libc.a(lib_a-__atexit.o)
 .comment       0x00000000       0x27 c:/altera/12.0sp2/nios2eds/bin/gnu/h-i686-mingw32/bin/../lib/gcc/nios2-elf/4.1.2/../../../../nios2-elf/lib\libc.a(lib_a-__call_atexit.o)
 .comment       0x00000000       0x27 ../microCTest_bsp/\libucosii_bsp.a(alt_exit.o)

.debug
 *(.debug)

.line
 *(.line)

.debug_srcinfo
 *(.debug_srcinfo)

.debug_sfnames
 *(.debug_sfnames)

.debug_aranges  0x00000000     0x1318
 *(.debug_aranges)
 .debug_aranges
                0x00000000       0x20 ../microCTest_bsp//obj/HAL/src/crt0.o
 .debug_aranges
                0x00000020       0x20 obj/default/IK.o
 .debug_aranges
                0x00000040       0x20 obj/default/hello_ucosii.o
 .debug_aranges
                0x00000060       0x20 obj/default/keypad.o
 .debug_aranges
                0x00000080       0x20 obj/default/lcd.o
 .debug_aranges
                0x000000a0       0x20 obj/default/pwm.o
 .debug_aranges
                0x000000c0       0x20 obj/default/utilities.o
 .debug_aranges
                0x000000e0       0x20 c:/altera/12.0sp2/nios2eds/bin/gnu/h-i686-mingw32/bin/../lib/gcc/nios2-elf/4.1.2/../../../../nios2-elf/lib\libm.a(lib_a-s_cos.o)
 .debug_aranges
                0x00000100       0x20 c:/altera/12.0sp2/nios2eds/bin/gnu/h-i686-mingw32/bin/../lib/gcc/nios2-elf/4.1.2/../../../../nios2-elf/lib\libm.a(lib_a-s_round.o)
 .debug_aranges
                0x00000120       0x20 c:/altera/12.0sp2/nios2eds/bin/gnu/h-i686-mingw32/bin/../lib/gcc/nios2-elf/4.1.2/../../../../nios2-elf/lib\libm.a(lib_a-s_sin.o)
 .debug_aranges
                0x00000140       0x20 c:/altera/12.0sp2/nios2eds/bin/gnu/h-i686-mingw32/bin/../lib/gcc/nios2-elf/4.1.2/../../../../nios2-elf/lib\libm.a(lib_a-w_atan2.o)
 .debug_aranges
                0x00000160       0x20 c:/altera/12.0sp2/nios2eds/bin/gnu/h-i686-mingw32/bin/../lib/gcc/nios2-elf/4.1.2/../../../../nios2-elf/lib\libm.a(lib_a-w_sqrt.o)
 .debug_aranges
                0x00000180       0x20 c:/altera/12.0sp2/nios2eds/bin/gnu/h-i686-mingw32/bin/../lib/gcc/nios2-elf/4.1.2/../../../../nios2-elf/lib\libm.a(lib_a-e_atan2.o)
 .debug_aranges
                0x000001a0       0x20 c:/altera/12.0sp2/nios2eds/bin/gnu/h-i686-mingw32/bin/../lib/gcc/nios2-elf/4.1.2/../../../../nios2-elf/lib\libm.a(lib_a-e_rem_pio2.o)
 .debug_aranges
                0x000001c0       0x20 c:/altera/12.0sp2/nios2eds/bin/gnu/h-i686-mingw32/bin/../lib/gcc/nios2-elf/4.1.2/../../../../nios2-elf/lib\libm.a(lib_a-e_sqrt.o)
 .debug_aranges
                0x000001e0       0x20 c:/altera/12.0sp2/nios2eds/bin/gnu/h-i686-mingw32/bin/../lib/gcc/nios2-elf/4.1.2/../../../../nios2-elf/lib\libm.a(lib_a-k_cos.o)
 .debug_aranges
                0x00000200       0x20 c:/altera/12.0sp2/nios2eds/bin/gnu/h-i686-mingw32/bin/../lib/gcc/nios2-elf/4.1.2/../../../../nios2-elf/lib\libm.a(lib_a-k_rem_pio2.o)
 .debug_aranges
                0x00000220       0x20 c:/altera/12.0sp2/nios2eds/bin/gnu/h-i686-mingw32/bin/../lib/gcc/nios2-elf/4.1.2/../../../../nios2-elf/lib\libm.a(lib_a-k_sin.o)
 .debug_aranges
                0x00000240       0x20 c:/altera/12.0sp2/nios2eds/bin/gnu/h-i686-mingw32/bin/../lib/gcc/nios2-elf/4.1.2/../../../../nios2-elf/lib\libm.a(lib_a-s_atan.o)
 .debug_aranges
                0x00000260       0x20 c:/altera/12.0sp2/nios2eds/bin/gnu/h-i686-mingw32/bin/../lib/gcc/nios2-elf/4.1.2/../../../../nios2-elf/lib\libm.a(lib_a-s_fabs.o)
 .debug_aranges
                0x00000280       0x20 c:/altera/12.0sp2/nios2eds/bin/gnu/h-i686-mingw32/bin/../lib/gcc/nios2-elf/4.1.2/../../../../nios2-elf/lib\libm.a(lib_a-s_floor.o)
 .debug_aranges
                0x000002a0       0x20 c:/altera/12.0sp2/nios2eds/bin/gnu/h-i686-mingw32/bin/../lib/gcc/nios2-elf/4.1.2/../../../../nios2-elf/lib\libm.a(lib_a-s_isnand.o)
 .debug_aranges
                0x000002c0       0x20 c:/altera/12.0sp2/nios2eds/bin/gnu/h-i686-mingw32/bin/../lib/gcc/nios2-elf/4.1.2/../../../../nios2-elf/lib\libm.a(lib_a-s_matherr.o)
 .debug_aranges
                0x000002e0       0x20 c:/altera/12.0sp2/nios2eds/bin/gnu/h-i686-mingw32/bin/../lib/gcc/nios2-elf/4.1.2/../../../../nios2-elf/lib\libm.a(lib_a-s_scalbn.o)
 .debug_aranges
                0x00000300       0x20 c:/altera/12.0sp2/nios2eds/bin/gnu/h-i686-mingw32/bin/../lib/gcc/nios2-elf/4.1.2/../../../../nios2-elf/lib\libm.a(lib_a-s_copysign.o)
 .debug_aranges
                0x00000320       0x20 c:/altera/12.0sp2/nios2eds/bin/gnu/h-i686-mingw32/bin/../lib/gcc/nios2-elf/4.1.2\libgcc.a(_div_sf.o)
 .debug_aranges
                0x00000340       0x20 c:/altera/12.0sp2/nios2eds/bin/gnu/h-i686-mingw32/bin/../lib/gcc/nios2-elf/4.1.2\libgcc.a(_si_to_sf.o)
 .debug_aranges
                0x00000360       0x20 c:/altera/12.0sp2/nios2eds/bin/gnu/h-i686-mingw32/bin/../lib/gcc/nios2-elf/4.1.2\libgcc.a(_sf_to_df.o)
 .debug_aranges
                0x00000380       0x20 c:/altera/12.0sp2/nios2eds/bin/gnu/h-i686-mingw32/bin/../lib/gcc/nios2-elf/4.1.2\libgcc.a(_addsub_df.o)
 .debug_aranges
                0x000003a0       0x20 c:/altera/12.0sp2/nios2eds/bin/gnu/h-i686-mingw32/bin/../lib/gcc/nios2-elf/4.1.2\libgcc.a(_mul_df.o)
 .debug_aranges
                0x000003c0       0x20 c:/altera/12.0sp2/nios2eds/bin/gnu/h-i686-mingw32/bin/../lib/gcc/nios2-elf/4.1.2\libgcc.a(_div_df.o)
 .debug_aranges
                0x000003e0       0x20 c:/altera/12.0sp2/nios2eds/bin/gnu/h-i686-mingw32/bin/../lib/gcc/nios2-elf/4.1.2\libgcc.a(_eq_df.o)
 .debug_aranges
                0x00000400       0x20 c:/altera/12.0sp2/nios2eds/bin/gnu/h-i686-mingw32/bin/../lib/gcc/nios2-elf/4.1.2\libgcc.a(_gt_df.o)
 .debug_aranges
                0x00000420       0x20 c:/altera/12.0sp2/nios2eds/bin/gnu/h-i686-mingw32/bin/../lib/gcc/nios2-elf/4.1.2\libgcc.a(_ge_df.o)
 .debug_aranges
                0x00000440       0x20 c:/altera/12.0sp2/nios2eds/bin/gnu/h-i686-mingw32/bin/../lib/gcc/nios2-elf/4.1.2\libgcc.a(_lt_df.o)
 .debug_aranges
                0x00000460       0x20 c:/altera/12.0sp2/nios2eds/bin/gnu/h-i686-mingw32/bin/../lib/gcc/nios2-elf/4.1.2\libgcc.a(_si_to_df.o)
 .debug_aranges
                0x00000480       0x20 c:/altera/12.0sp2/nios2eds/bin/gnu/h-i686-mingw32/bin/../lib/gcc/nios2-elf/4.1.2\libgcc.a(_df_to_si.o)
 .debug_aranges
                0x000004a0       0x20 c:/altera/12.0sp2/nios2eds/bin/gnu/h-i686-mingw32/bin/../lib/gcc/nios2-elf/4.1.2\libgcc.a(_make_df.o)
 .debug_aranges
                0x000004c0       0x20 c:/altera/12.0sp2/nios2eds/bin/gnu/h-i686-mingw32/bin/../lib/gcc/nios2-elf/4.1.2\libgcc.a(_df_to_sf.o)
 .debug_aranges
                0x000004e0       0x20 c:/altera/12.0sp2/nios2eds/bin/gnu/h-i686-mingw32/bin/../lib/gcc/nios2-elf/4.1.2\libgcc.a(lib2-divmod.o)
 .debug_aranges
                0x00000500       0x20 c:/altera/12.0sp2/nios2eds/bin/gnu/h-i686-mingw32/bin/../lib/gcc/nios2-elf/4.1.2\libgcc.a(_muldi3.o)
 .debug_aranges
                0x00000520       0x20 c:/altera/12.0sp2/nios2eds/bin/gnu/h-i686-mingw32/bin/../lib/gcc/nios2-elf/4.1.2\libgcc.a(_clzsi2.o)
 .debug_aranges
                0x00000540       0x20 c:/altera/12.0sp2/nios2eds/bin/gnu/h-i686-mingw32/bin/../lib/gcc/nios2-elf/4.1.2\libgcc.a(_pack_sf.o)
 .debug_aranges
                0x00000560       0x20 c:/altera/12.0sp2/nios2eds/bin/gnu/h-i686-mingw32/bin/../lib/gcc/nios2-elf/4.1.2\libgcc.a(_unpack_sf.o)
 .debug_aranges
                0x00000580       0x20 c:/altera/12.0sp2/nios2eds/bin/gnu/h-i686-mingw32/bin/../lib/gcc/nios2-elf/4.1.2\libgcc.a(_make_sf.o)
 .debug_aranges
                0x000005a0       0x20 c:/altera/12.0sp2/nios2eds/bin/gnu/h-i686-mingw32/bin/../lib/gcc/nios2-elf/4.1.2\libgcc.a(_pack_df.o)
 .debug_aranges
                0x000005c0       0x20 c:/altera/12.0sp2/nios2eds/bin/gnu/h-i686-mingw32/bin/../lib/gcc/nios2-elf/4.1.2\libgcc.a(_unpack_df.o)
 .debug_aranges
                0x000005e0       0x20 c:/altera/12.0sp2/nios2eds/bin/gnu/h-i686-mingw32/bin/../lib/gcc/nios2-elf/4.1.2\libgcc.a(_fpcmp_parts_df.o)
 .debug_aranges
                0x00000600       0x20 c:/altera/12.0sp2/nios2eds/bin/gnu/h-i686-mingw32/bin/../lib/gcc/nios2-elf/4.1.2/../../../../nios2-elf/lib\libc.a(lib_a-errno.o)
 .debug_aranges
                0x00000620       0x20 c:/altera/12.0sp2/nios2eds/bin/gnu/h-i686-mingw32/bin/../lib/gcc/nios2-elf/4.1.2/../../../../nios2-elf/lib\libc.a(lib_a-memcpy.o)
 .debug_aranges
                0x00000640       0x20 c:/altera/12.0sp2/nios2eds/bin/gnu/h-i686-mingw32/bin/../lib/gcc/nios2-elf/4.1.2/../../../../nios2-elf/lib\libc.a(lib_a-memset.o)
 .debug_aranges
                0x00000660       0x20 c:/altera/12.0sp2/nios2eds/bin/gnu/h-i686-mingw32/bin/../lib/gcc/nios2-elf/4.1.2/../../../../nios2-elf/lib\libc.a(lib_a-printf.o)
 .debug_aranges
                0x00000680       0x20 c:/altera/12.0sp2/nios2eds/bin/gnu/h-i686-mingw32/bin/../lib/gcc/nios2-elf/4.1.2/../../../../nios2-elf/lib\libc.a(lib_a-sprintf.o)
 .debug_aranges
                0x000006a0       0x20 c:/altera/12.0sp2/nios2eds/bin/gnu/h-i686-mingw32/bin/../lib/gcc/nios2-elf/4.1.2/../../../../nios2-elf/lib\libc.a(lib_a-vfprintf.o)
 .debug_aranges
                0x000006c0       0x20 c:/altera/12.0sp2/nios2eds/bin/gnu/h-i686-mingw32/bin/../lib/gcc/nios2-elf/4.1.2/../../../../nios2-elf/lib\libc.a(lib_a-wsetup.o)
 .debug_aranges
                0x000006e0       0x20 c:/altera/12.0sp2/nios2eds/bin/gnu/h-i686-mingw32/bin/../lib/gcc/nios2-elf/4.1.2/../../../../nios2-elf/lib\libc.a(lib_a-dtoa.o)
 .debug_aranges
                0x00000700       0x20 c:/altera/12.0sp2/nios2eds/bin/gnu/h-i686-mingw32/bin/../lib/gcc/nios2-elf/4.1.2/../../../../nios2-elf/lib\libc.a(lib_a-fflush.o)
 .debug_aranges
                0x00000720       0x20 c:/altera/12.0sp2/nios2eds/bin/gnu/h-i686-mingw32/bin/../lib/gcc/nios2-elf/4.1.2/../../../../nios2-elf/lib\libc.a(lib_a-findfp.o)
 .debug_aranges
                0x00000740       0x20 c:/altera/12.0sp2/nios2eds/bin/gnu/h-i686-mingw32/bin/../lib/gcc/nios2-elf/4.1.2/../../../../nios2-elf/lib\libc.a(lib_a-freer.o)
 .debug_aranges
                0x00000760       0x20 c:/altera/12.0sp2/nios2eds/bin/gnu/h-i686-mingw32/bin/../lib/gcc/nios2-elf/4.1.2/../../../../nios2-elf/lib\libc.a(lib_a-fvwrite.o)
 .debug_aranges
                0x00000780       0x20 c:/altera/12.0sp2/nios2eds/bin/gnu/h-i686-mingw32/bin/../lib/gcc/nios2-elf/4.1.2/../../../../nios2-elf/lib\libc.a(lib_a-fwalk.o)
 .debug_aranges
                0x000007a0       0x20 c:/altera/12.0sp2/nios2eds/bin/gnu/h-i686-mingw32/bin/../lib/gcc/nios2-elf/4.1.2/../../../../nios2-elf/lib\libc.a(lib_a-locale.o)
 .debug_aranges
                0x000007c0       0x20 c:/altera/12.0sp2/nios2eds/bin/gnu/h-i686-mingw32/bin/../lib/gcc/nios2-elf/4.1.2/../../../../nios2-elf/lib\libc.a(lib_a-makebuf.o)
 .debug_aranges
                0x000007e0       0x20 c:/altera/12.0sp2/nios2eds/bin/gnu/h-i686-mingw32/bin/../lib/gcc/nios2-elf/4.1.2/../../../../nios2-elf/lib\libc.a(lib_a-mallocr.o)
 .debug_aranges
                0x00000800       0x20 c:/altera/12.0sp2/nios2eds/bin/gnu/h-i686-mingw32/bin/../lib/gcc/nios2-elf/4.1.2/../../../../nios2-elf/lib\libc.a(lib_a-memchr.o)
 .debug_aranges
                0x00000820       0x20 c:/altera/12.0sp2/nios2eds/bin/gnu/h-i686-mingw32/bin/../lib/gcc/nios2-elf/4.1.2/../../../../nios2-elf/lib\libc.a(lib_a-memmove.o)
 .debug_aranges
                0x00000840       0x20 c:/altera/12.0sp2/nios2eds/bin/gnu/h-i686-mingw32/bin/../lib/gcc/nios2-elf/4.1.2/../../../../nios2-elf/lib\libc.a(lib_a-mprec.o)
 .debug_aranges
                0x00000860       0x20 c:/altera/12.0sp2/nios2eds/bin/gnu/h-i686-mingw32/bin/../lib/gcc/nios2-elf/4.1.2/../../../../nios2-elf/lib\libc.a(lib_a-reallocr.o)
 .debug_aranges
                0x00000880       0x20 c:/altera/12.0sp2/nios2eds/bin/gnu/h-i686-mingw32/bin/../lib/gcc/nios2-elf/4.1.2/../../../../nios2-elf/lib\libc.a(lib_a-s_isinfd.o)
 .debug_aranges
                0x000008a0       0x20 c:/altera/12.0sp2/nios2eds/bin/gnu/h-i686-mingw32/bin/../lib/gcc/nios2-elf/4.1.2/../../../../nios2-elf/lib\libc.a(lib_a-sbrkr.o)
 .debug_aranges
                0x000008c0       0x20 c:/altera/12.0sp2/nios2eds/bin/gnu/h-i686-mingw32/bin/../lib/gcc/nios2-elf/4.1.2/../../../../nios2-elf/lib\libc.a(lib_a-stdio.o)
 .debug_aranges
                0x000008e0       0x20 c:/altera/12.0sp2/nios2eds/bin/gnu/h-i686-mingw32/bin/../lib/gcc/nios2-elf/4.1.2/../../../../nios2-elf/lib\libc.a(lib_a-strcmp.o)
 .debug_aranges
                0x00000900       0x20 c:/altera/12.0sp2/nios2eds/bin/gnu/h-i686-mingw32/bin/../lib/gcc/nios2-elf/4.1.2/../../../../nios2-elf/lib\libc.a(lib_a-strlen.o)
 .debug_aranges
                0x00000920       0x20 c:/altera/12.0sp2/nios2eds/bin/gnu/h-i686-mingw32/bin/../lib/gcc/nios2-elf/4.1.2/../../../../nios2-elf/lib\libc.a(lib_a-writer.o)
 .debug_aranges
                0x00000940       0x20 c:/altera/12.0sp2/nios2eds/bin/gnu/h-i686-mingw32/bin/../lib/gcc/nios2-elf/4.1.2/../../../../nios2-elf/lib\libc.a(lib_a-callocr.o)
 .debug_aranges
                0x00000960       0x20 c:/altera/12.0sp2/nios2eds/bin/gnu/h-i686-mingw32/bin/../lib/gcc/nios2-elf/4.1.2/../../../../nios2-elf/lib\libc.a(lib_a-closer.o)
 .debug_aranges
                0x00000980       0x20 c:/altera/12.0sp2/nios2eds/bin/gnu/h-i686-mingw32/bin/../lib/gcc/nios2-elf/4.1.2/../../../../nios2-elf/lib\libc.a(lib_a-fclose.o)
 .debug_aranges
                0x000009a0       0x20 c:/altera/12.0sp2/nios2eds/bin/gnu/h-i686-mingw32/bin/../lib/gcc/nios2-elf/4.1.2/../../../../nios2-elf/lib\libc.a(lib_a-fstatr.o)
 .debug_aranges
                0x000009c0       0x20 c:/altera/12.0sp2/nios2eds/bin/gnu/h-i686-mingw32/bin/../lib/gcc/nios2-elf/4.1.2/../../../../nios2-elf/lib\libc.a(lib_a-isattyr.o)
 .debug_aranges
                0x000009e0       0x20 c:/altera/12.0sp2/nios2eds/bin/gnu/h-i686-mingw32/bin/../lib/gcc/nios2-elf/4.1.2/../../../../nios2-elf/lib\libc.a(lib_a-lseekr.o)
 .debug_aranges
                0x00000a00       0x20 c:/altera/12.0sp2/nios2eds/bin/gnu/h-i686-mingw32/bin/../lib/gcc/nios2-elf/4.1.2/../../../../nios2-elf/lib\libc.a(lib_a-readr.o)
 .debug_aranges
                0x00000a20       0x20 c:/altera/12.0sp2/nios2eds/bin/gnu/h-i686-mingw32/bin/../lib/gcc/nios2-elf/4.1.2\libgcc.a(_udivdi3.o)
 .debug_aranges
                0x00000a40       0x20 c:/altera/12.0sp2/nios2eds/bin/gnu/h-i686-mingw32/bin/../lib/gcc/nios2-elf/4.1.2\libgcc.a(_umoddi3.o)
 .debug_aranges
                0x00000a60       0x20 c:/altera/12.0sp2/nios2eds/bin/gnu/h-i686-mingw32/bin/../lib/gcc/nios2-elf/4.1.2\libgcc.a(_ne_df.o)
 .debug_aranges
                0x00000a80       0x20 c:/altera/12.0sp2/nios2eds/bin/gnu/h-i686-mingw32/bin/../lib/gcc/nios2-elf/4.1.2\libgcc.a(_usi_to_df.o)
 .debug_aranges
                0x00000aa0       0x20 ../microCTest_bsp/\libucosii_bsp.a(alt_close.o)
 .debug_aranges
                0x00000ac0       0x20 ../microCTest_bsp/\libucosii_bsp.a(alt_dev.o)
 .debug_aranges
                0x00000ae0       0x20 ../microCTest_bsp/\libucosii_bsp.a(alt_fstat.o)
 .debug_aranges
                0x00000b00       0x20 ../microCTest_bsp/\libucosii_bsp.a(alt_isatty.o)
 .debug_aranges
                0x00000b20       0x20 ../microCTest_bsp/\libucosii_bsp.a(alt_lseek.o)
 .debug_aranges
                0x00000b40       0x20 ../microCTest_bsp/\libucosii_bsp.a(alt_main.o)
 .debug_aranges
                0x00000b60       0x20 ../microCTest_bsp/\libucosii_bsp.a(alt_read.o)
 .debug_aranges
                0x00000b80       0x20 ../microCTest_bsp/\libucosii_bsp.a(alt_release_fd.o)
 .debug_aranges
                0x00000ba0       0x20 ../microCTest_bsp/\libucosii_bsp.a(alt_sbrk.o)
 .debug_aranges
                0x00000bc0       0x20 ../microCTest_bsp/\libucosii_bsp.a(alt_usleep.o)
 .debug_aranges
                0x00000be0       0x20 ../microCTest_bsp/\libucosii_bsp.a(alt_write.o)
 .debug_aranges
                0x00000c00       0x20 ../microCTest_bsp/\libucosii_bsp.a(alt_env_lock.o)
 .debug_aranges
                0x00000c20       0x20 ../microCTest_bsp/\libucosii_bsp.a(alt_malloc_lock.o)
 .debug_aranges
                0x00000c40       0x20 ../microCTest_bsp/\libucosii_bsp.a(os_core.o)
 .debug_aranges
                0x00000c60       0x20 ../microCTest_bsp/\libucosii_bsp.a(os_dbg.o)
 .debug_aranges
                0x00000c80       0x20 ../microCTest_bsp/\libucosii_bsp.a(os_flag.o)
 .debug_aranges
                0x00000ca0       0x20 ../microCTest_bsp/\libucosii_bsp.a(os_mem.o)
 .debug_aranges
                0x00000cc0       0x20 ../microCTest_bsp/\libucosii_bsp.a(os_q.o)
 .debug_aranges
                0x00000ce0       0x20 ../microCTest_bsp/\libucosii_bsp.a(os_sem.o)
 .debug_aranges
                0x00000d00       0x20 ../microCTest_bsp/\libucosii_bsp.a(os_task.o)
 .debug_aranges
                0x00000d20       0x20 ../microCTest_bsp/\libucosii_bsp.a(os_time.o)
 .debug_aranges
                0x00000d40       0x20 ../microCTest_bsp/\libucosii_bsp.a(alt_sys_init.o)
 .debug_aranges
                0x00000d60       0x20 ../microCTest_bsp/\libucosii_bsp.a(altera_avalon_cfi_flash.o)
 .debug_aranges
                0x00000d80       0x20 ../microCTest_bsp/\libucosii_bsp.a(altera_avalon_cfi_flash_table.o)
 .debug_aranges
                0x00000da0       0x20 ../microCTest_bsp/\libucosii_bsp.a(altera_avalon_jtag_uart_fd.o)
 .debug_aranges
                0x00000dc0       0x20 ../microCTest_bsp/\libucosii_bsp.a(altera_avalon_jtag_uart_init.o)
 .debug_aranges
                0x00000de0       0x20 ../microCTest_bsp/\libucosii_bsp.a(altera_avalon_jtag_uart_ioctl.o)
 .debug_aranges
                0x00000e00       0x20 ../microCTest_bsp/\libucosii_bsp.a(altera_avalon_jtag_uart_read.o)
 .debug_aranges
                0x00000e20       0x20 ../microCTest_bsp/\libucosii_bsp.a(altera_avalon_jtag_uart_write.o)
 .debug_aranges
                0x00000e40       0x20 ../microCTest_bsp/\libucosii_bsp.a(altera_avalon_lcd_16207.o)
 .debug_aranges
                0x00000e60       0x20 ../microCTest_bsp/\libucosii_bsp.a(altera_avalon_lcd_16207_fd.o)
 .debug_aranges
                0x00000e80       0x20 ../microCTest_bsp/\libucosii_bsp.a(altera_avalon_timer_sc.o)
 .debug_aranges
                0x00000ea0       0x20 ../microCTest_bsp/\libucosii_bsp.a(altera_avalon_uart_fd.o)
 .debug_aranges
                0x00000ec0       0x20 ../microCTest_bsp/\libucosii_bsp.a(altera_avalon_uart_init.o)
 .debug_aranges
                0x00000ee0       0x20 ../microCTest_bsp/\libucosii_bsp.a(altera_avalon_uart_read.o)
 .debug_aranges
                0x00000f00       0x20 ../microCTest_bsp/\libucosii_bsp.a(altera_avalon_uart_write.o)
 .debug_aranges
                0x00000f20       0x20 ../microCTest_bsp/\libucosii_bsp.a(alt_alarm_start.o)
 .debug_aranges
                0x00000f40       0x20 ../microCTest_bsp/\libucosii_bsp.a(alt_busy_sleep.o)
 .debug_aranges
                0x00000f60       0x20 ../microCTest_bsp/\libucosii_bsp.a(alt_dcache_flush.o)
 .debug_aranges
                0x00000f80       0x20 ../microCTest_bsp/\libucosii_bsp.a(alt_dev_llist_insert.o)
 .debug_aranges
                0x00000fa0       0x20 ../microCTest_bsp/\libucosii_bsp.a(alt_do_ctors.o)
 .debug_aranges
                0x00000fc0       0x20 ../microCTest_bsp/\libucosii_bsp.a(alt_do_dtors.o)
 .debug_aranges
                0x00000fe0       0x20 ../microCTest_bsp/\libucosii_bsp.a(alt_flash_dev.o)
 .debug_aranges
                0x00001000       0x20 ../microCTest_bsp/\libucosii_bsp.a(alt_iic.o)
 .debug_aranges
                0x00001020       0x20 ../microCTest_bsp/\libucosii_bsp.a(alt_iic_isr_register.o)
 .debug_aranges
                0x00001040       0x20 ../microCTest_bsp/\libucosii_bsp.a(alt_io_redirect.o)
 .debug_aranges
                0x00001060       0x30 ../microCTest_bsp/\libucosii_bsp.a(alt_irq_entry.o)
 .debug_aranges
                0x00001090       0x28 ../microCTest_bsp/\libucosii_bsp.a(alt_irq_handler.o)
 .debug_aranges
                0x000010b8       0x20 ../microCTest_bsp/\libucosii_bsp.a(alt_open.o)
 .debug_aranges
                0x000010d8       0x20 ../microCTest_bsp/\libucosii_bsp.a(alt_tick.o)
 .debug_aranges
                0x000010f8       0x20 ../microCTest_bsp/\libucosii_bsp.a(altera_nios2_irq.o)
 .debug_aranges
                0x00001118       0x20 ../microCTest_bsp/\libucosii_bsp.a(os_cpu_a.o)
 .debug_aranges
                0x00001138       0x20 ../microCTest_bsp/\libucosii_bsp.a(os_cpu_c.o)
 .debug_aranges
                0x00001158       0x20 ../microCTest_bsp/\libucosii_bsp.a(altera_avalon_cfi_flash_amd.o)
 .debug_aranges
                0x00001178       0x20 ../microCTest_bsp/\libucosii_bsp.a(altera_avalon_cfi_flash_intel.o)
 .debug_aranges
                0x00001198       0x38 ../microCTest_bsp/\libucosii_bsp.a(alt_exception_entry.o)
 .debug_aranges
                0x000011d0       0x20 ../microCTest_bsp/\libucosii_bsp.a(alt_find_dev.o)
 .debug_aranges
                0x000011f0       0x20 ../microCTest_bsp/\libucosii_bsp.a(alt_find_file.o)
 .debug_aranges
                0x00001210       0x20 ../microCTest_bsp/\libucosii_bsp.a(alt_get_fd.o)
 .debug_aranges
                0x00001230       0x28 ../microCTest_bsp/\libucosii_bsp.a(alt_instruction_exception_entry.o)
 .debug_aranges
                0x00001258       0x20 c:/altera/12.0sp2/nios2eds/bin/gnu/h-i686-mingw32/bin/../lib/gcc/nios2-elf/4.1.2/../../../../nios2-elf/lib\libc.a(lib_a-atexit.o)
 .debug_aranges
                0x00001278       0x20 c:/altera/12.0sp2/nios2eds/bin/gnu/h-i686-mingw32/bin/../lib/gcc/nios2-elf/4.1.2/../../../../nios2-elf/lib\libc.a(lib_a-exit.o)
 .debug_aranges
                0x00001298       0x20 c:/altera/12.0sp2/nios2eds/bin/gnu/h-i686-mingw32/bin/../lib/gcc/nios2-elf/4.1.2/../../../../nios2-elf/lib\libc.a(lib_a-memcmp.o)
 .debug_aranges
                0x000012b8       0x20 c:/altera/12.0sp2/nios2eds/bin/gnu/h-i686-mingw32/bin/../lib/gcc/nios2-elf/4.1.2/../../../../nios2-elf/lib\libc.a(lib_a-__atexit.o)
 .debug_aranges
                0x000012d8       0x20 c:/altera/12.0sp2/nios2eds/bin/gnu/h-i686-mingw32/bin/../lib/gcc/nios2-elf/4.1.2/../../../../nios2-elf/lib\libc.a(lib_a-__call_atexit.o)
 .debug_aranges
                0x000012f8       0x20 ../microCTest_bsp/\libucosii_bsp.a(alt_exit.o)

.debug_pubnames
                0x00000000     0x2b9f
 *(.debug_pubnames)
 .debug_pubnames
                0x00000000       0x19 obj/default/IK.o
 .debug_pubnames
                0x00000019       0x90 obj/default/hello_ucosii.o
 .debug_pubnames
                0x000000a9       0x7d obj/default/keypad.o
 .debug_pubnames
                0x00000126       0x43 obj/default/lcd.o
 .debug_pubnames
                0x00000169       0x4c obj/default/pwm.o
 .debug_pubnames
                0x000001b5       0x29 obj/default/utilities.o
 .debug_pubnames
                0x000001de       0x1a c:/altera/12.0sp2/nios2eds/bin/gnu/h-i686-mingw32/bin/../lib/gcc/nios2-elf/4.1.2/../../../../nios2-elf/lib\libm.a(lib_a-s_cos.o)
 .debug_pubnames
                0x000001f8       0x1c c:/altera/12.0sp2/nios2eds/bin/gnu/h-i686-mingw32/bin/../lib/gcc/nios2-elf/4.1.2/../../../../nios2-elf/lib\libm.a(lib_a-s_round.o)
 .debug_pubnames
                0x00000214       0x1a c:/altera/12.0sp2/nios2eds/bin/gnu/h-i686-mingw32/bin/../lib/gcc/nios2-elf/4.1.2/../../../../nios2-elf/lib\libm.a(lib_a-s_sin.o)
 .debug_pubnames
                0x0000022e       0x1c c:/altera/12.0sp2/nios2eds/bin/gnu/h-i686-mingw32/bin/../lib/gcc/nios2-elf/4.1.2/../../../../nios2-elf/lib\libm.a(lib_a-w_atan2.o)
 .debug_pubnames
                0x0000024a       0x1b c:/altera/12.0sp2/nios2eds/bin/gnu/h-i686-mingw32/bin/../lib/gcc/nios2-elf/4.1.2/../../../../nios2-elf/lib\libm.a(lib_a-w_sqrt.o)
 .debug_pubnames
                0x00000265       0x26 c:/altera/12.0sp2/nios2eds/bin/gnu/h-i686-mingw32/bin/../lib/gcc/nios2-elf/4.1.2/../../../../nios2-elf/lib\libm.a(lib_a-e_atan2.o)
 .debug_pubnames
                0x0000028b       0x29 c:/altera/12.0sp2/nios2eds/bin/gnu/h-i686-mingw32/bin/../lib/gcc/nios2-elf/4.1.2/../../../../nios2-elf/lib\libm.a(lib_a-e_rem_pio2.o)
 .debug_pubnames
                0x000002b4       0x25 c:/altera/12.0sp2/nios2eds/bin/gnu/h-i686-mingw32/bin/../lib/gcc/nios2-elf/4.1.2/../../../../nios2-elf/lib\libm.a(lib_a-e_sqrt.o)
 .debug_pubnames
                0x000002d9       0x23 c:/altera/12.0sp2/nios2eds/bin/gnu/h-i686-mingw32/bin/../lib/gcc/nios2-elf/4.1.2/../../../../nios2-elf/lib\libm.a(lib_a-k_cos.o)
 .debug_pubnames
                0x000002fc       0x28 c:/altera/12.0sp2/nios2eds/bin/gnu/h-i686-mingw32/bin/../lib/gcc/nios2-elf/4.1.2/../../../../nios2-elf/lib\libm.a(lib_a-k_rem_pio2.o)
 .debug_pubnames
                0x00000324       0x23 c:/altera/12.0sp2/nios2eds/bin/gnu/h-i686-mingw32/bin/../lib/gcc/nios2-elf/4.1.2/../../../../nios2-elf/lib\libm.a(lib_a-k_sin.o)
 .debug_pubnames
                0x00000347       0x1b c:/altera/12.0sp2/nios2eds/bin/gnu/h-i686-mingw32/bin/../lib/gcc/nios2-elf/4.1.2/../../../../nios2-elf/lib\libm.a(lib_a-s_atan.o)
 .debug_pubnames
                0x00000362       0x1b c:/altera/12.0sp2/nios2eds/bin/gnu/h-i686-mingw32/bin/../lib/gcc/nios2-elf/4.1.2/../../../../nios2-elf/lib\libm.a(lib_a-s_fabs.o)
 .debug_pubnames
                0x0000037d       0x1c c:/altera/12.0sp2/nios2eds/bin/gnu/h-i686-mingw32/bin/../lib/gcc/nios2-elf/4.1.2/../../../../nios2-elf/lib\libm.a(lib_a-s_floor.o)
 .debug_pubnames
                0x00000399       0x1f c:/altera/12.0sp2/nios2eds/bin/gnu/h-i686-mingw32/bin/../lib/gcc/nios2-elf/4.1.2/../../../../nios2-elf/lib\libm.a(lib_a-s_isnand.o)
 .debug_pubnames
                0x000003b8       0x26 c:/altera/12.0sp2/nios2eds/bin/gnu/h-i686-mingw32/bin/../lib/gcc/nios2-elf/4.1.2/../../../../nios2-elf/lib\libm.a(lib_a-s_lib_ver.o)
 .debug_pubnames
                0x000003de       0x1e c:/altera/12.0sp2/nios2eds/bin/gnu/h-i686-mingw32/bin/../lib/gcc/nios2-elf/4.1.2/../../../../nios2-elf/lib\libm.a(lib_a-s_matherr.o)
 .debug_pubnames
                0x000003fc       0x1d c:/altera/12.0sp2/nios2eds/bin/gnu/h-i686-mingw32/bin/../lib/gcc/nios2-elf/4.1.2/../../../../nios2-elf/lib\libm.a(lib_a-s_scalbn.o)
 .debug_pubnames
                0x00000419       0x1f c:/altera/12.0sp2/nios2eds/bin/gnu/h-i686-mingw32/bin/../lib/gcc/nios2-elf/4.1.2/../../../../nios2-elf/lib\libm.a(lib_a-s_copysign.o)
 .debug_pubnames
                0x00000438       0x1f c:/altera/12.0sp2/nios2eds/bin/gnu/h-i686-mingw32/bin/../lib/gcc/nios2-elf/4.1.2\libgcc.a(_div_sf.o)
 .debug_pubnames
                0x00000457       0x22 c:/altera/12.0sp2/nios2eds/bin/gnu/h-i686-mingw32/bin/../lib/gcc/nios2-elf/4.1.2\libgcc.a(_si_to_sf.o)
 .debug_pubnames
                0x00000479       0x24 c:/altera/12.0sp2/nios2eds/bin/gnu/h-i686-mingw32/bin/../lib/gcc/nios2-elf/4.1.2\libgcc.a(_sf_to_df.o)
 .debug_pubnames
                0x0000049d       0x22 c:/altera/12.0sp2/nios2eds/bin/gnu/h-i686-mingw32/bin/../lib/gcc/nios2-elf/4.1.2\libgcc.a(_thenan_sf.o)
 .debug_pubnames
                0x000004bf       0x2c c:/altera/12.0sp2/nios2eds/bin/gnu/h-i686-mingw32/bin/../lib/gcc/nios2-elf/4.1.2\libgcc.a(_addsub_df.o)
 .debug_pubnames
                0x000004eb       0x1f c:/altera/12.0sp2/nios2eds/bin/gnu/h-i686-mingw32/bin/../lib/gcc/nios2-elf/4.1.2\libgcc.a(_mul_df.o)
 .debug_pubnames
                0x0000050a       0x1f c:/altera/12.0sp2/nios2eds/bin/gnu/h-i686-mingw32/bin/../lib/gcc/nios2-elf/4.1.2\libgcc.a(_div_df.o)
 .debug_pubnames
                0x00000529       0x1e c:/altera/12.0sp2/nios2eds/bin/gnu/h-i686-mingw32/bin/../lib/gcc/nios2-elf/4.1.2\libgcc.a(_eq_df.o)
 .debug_pubnames
                0x00000547       0x1e c:/altera/12.0sp2/nios2eds/bin/gnu/h-i686-mingw32/bin/../lib/gcc/nios2-elf/4.1.2\libgcc.a(_gt_df.o)
 .debug_pubnames
                0x00000565       0x1e c:/altera/12.0sp2/nios2eds/bin/gnu/h-i686-mingw32/bin/../lib/gcc/nios2-elf/4.1.2\libgcc.a(_ge_df.o)
 .debug_pubnames
                0x00000583       0x1e c:/altera/12.0sp2/nios2eds/bin/gnu/h-i686-mingw32/bin/../lib/gcc/nios2-elf/4.1.2\libgcc.a(_lt_df.o)
 .debug_pubnames
                0x000005a1       0x22 c:/altera/12.0sp2/nios2eds/bin/gnu/h-i686-mingw32/bin/../lib/gcc/nios2-elf/4.1.2\libgcc.a(_si_to_df.o)
 .debug_pubnames
                0x000005c3       0x20 c:/altera/12.0sp2/nios2eds/bin/gnu/h-i686-mingw32/bin/../lib/gcc/nios2-elf/4.1.2\libgcc.a(_df_to_si.o)
 .debug_pubnames
                0x000005e3       0x20 c:/altera/12.0sp2/nios2eds/bin/gnu/h-i686-mingw32/bin/../lib/gcc/nios2-elf/4.1.2\libgcc.a(_make_df.o)
 .debug_pubnames
                0x00000603       0x23 c:/altera/12.0sp2/nios2eds/bin/gnu/h-i686-mingw32/bin/../lib/gcc/nios2-elf/4.1.2\libgcc.a(_df_to_sf.o)
 .debug_pubnames
                0x00000626       0x22 c:/altera/12.0sp2/nios2eds/bin/gnu/h-i686-mingw32/bin/../lib/gcc/nios2-elf/4.1.2\libgcc.a(_thenan_df.o)
 .debug_pubnames
                0x00000648       0x48 c:/altera/12.0sp2/nios2eds/bin/gnu/h-i686-mingw32/bin/../lib/gcc/nios2-elf/4.1.2\libgcc.a(lib2-divmod.o)
 .debug_pubnames
                0x00000690       0x1f c:/altera/12.0sp2/nios2eds/bin/gnu/h-i686-mingw32/bin/../lib/gcc/nios2-elf/4.1.2\libgcc.a(_muldi3.o)
 .debug_pubnames
                0x000006af       0x1f c:/altera/12.0sp2/nios2eds/bin/gnu/h-i686-mingw32/bin/../lib/gcc/nios2-elf/4.1.2\libgcc.a(_clzsi2.o)
 .debug_pubnames
                0x000006ce       0x1f c:/altera/12.0sp2/nios2eds/bin/gnu/h-i686-mingw32/bin/../lib/gcc/nios2-elf/4.1.2\libgcc.a(_pack_sf.o)
 .debug_pubnames
                0x000006ed       0x21 c:/altera/12.0sp2/nios2eds/bin/gnu/h-i686-mingw32/bin/../lib/gcc/nios2-elf/4.1.2\libgcc.a(_unpack_sf.o)
 .debug_pubnames
                0x0000070e       0x20 c:/altera/12.0sp2/nios2eds/bin/gnu/h-i686-mingw32/bin/../lib/gcc/nios2-elf/4.1.2\libgcc.a(_make_sf.o)
 .debug_pubnames
                0x0000072e       0x1f c:/altera/12.0sp2/nios2eds/bin/gnu/h-i686-mingw32/bin/../lib/gcc/nios2-elf/4.1.2\libgcc.a(_pack_df.o)
 .debug_pubnames
                0x0000074d       0x21 c:/altera/12.0sp2/nios2eds/bin/gnu/h-i686-mingw32/bin/../lib/gcc/nios2-elf/4.1.2\libgcc.a(_unpack_df.o)
 .debug_pubnames
                0x0000076e       0x26 c:/altera/12.0sp2/nios2eds/bin/gnu/h-i686-mingw32/bin/../lib/gcc/nios2-elf/4.1.2\libgcc.a(_fpcmp_parts_df.o)
 .debug_pubnames
                0x00000794       0x20 c:/altera/12.0sp2/nios2eds/bin/gnu/h-i686-mingw32/bin/../lib/gcc/nios2-elf/4.1.2\libgcc.a(_clz.o)
 .debug_pubnames
                0x000007b4       0x1e c:/altera/12.0sp2/nios2eds/bin/gnu/h-i686-mingw32/bin/../lib/gcc/nios2-elf/4.1.2/../../../../nios2-elf/lib\libc.a(lib_a-errno.o)
 .debug_pubnames
                0x000007d2       0x39 c:/altera/12.0sp2/nios2eds/bin/gnu/h-i686-mingw32/bin/../lib/gcc/nios2-elf/4.1.2/../../../../nios2-elf/lib\libc.a(lib_a-impure.o)
 .debug_pubnames
                0x0000080b       0x1d c:/altera/12.0sp2/nios2eds/bin/gnu/h-i686-mingw32/bin/../lib/gcc/nios2-elf/4.1.2/../../../../nios2-elf/lib\libc.a(lib_a-memcpy.o)
 .debug_pubnames
                0x00000828       0x1d c:/altera/12.0sp2/nios2eds/bin/gnu/h-i686-mingw32/bin/../lib/gcc/nios2-elf/4.1.2/../../../../nios2-elf/lib\libc.a(lib_a-memset.o)
 .debug_pubnames
                0x00000845       0x2b c:/altera/12.0sp2/nios2eds/bin/gnu/h-i686-mingw32/bin/../lib/gcc/nios2-elf/4.1.2/../../../../nios2-elf/lib\libc.a(lib_a-printf.o)
 .debug_pubnames
                0x00000870       0x2d c:/altera/12.0sp2/nios2eds/bin/gnu/h-i686-mingw32/bin/../lib/gcc/nios2-elf/4.1.2/../../../../nios2-elf/lib\libc.a(lib_a-sprintf.o)
 .debug_pubnames
                0x0000089d       0x45 c:/altera/12.0sp2/nios2eds/bin/gnu/h-i686-mingw32/bin/../lib/gcc/nios2-elf/4.1.2/../../../../nios2-elf/lib\libc.a(lib_a-vfprintf.o)
 .debug_pubnames
                0x000008e2       0x22 c:/altera/12.0sp2/nios2eds/bin/gnu/h-i686-mingw32/bin/../lib/gcc/nios2-elf/4.1.2/../../../../nios2-elf/lib\libc.a(lib_a-wsetup.o)
 .debug_pubnames
                0x00000904       0x1e c:/altera/12.0sp2/nios2eds/bin/gnu/h-i686-mingw32/bin/../lib/gcc/nios2-elf/4.1.2/../../../../nios2-elf/lib\libc.a(lib_a-dtoa.o)
 .debug_pubnames
                0x00000922       0x2b c:/altera/12.0sp2/nios2eds/bin/gnu/h-i686-mingw32/bin/../lib/gcc/nios2-elf/4.1.2/../../../../nios2-elf/lib\libc.a(lib_a-fflush.o)
 .debug_pubnames
                0x0000094d       0xdb c:/altera/12.0sp2/nios2eds/bin/gnu/h-i686-mingw32/bin/../lib/gcc/nios2-elf/4.1.2/../../../../nios2-elf/lib\libc.a(lib_a-findfp.o)
 .debug_pubnames
                0x00000a28       0x31 c:/altera/12.0sp2/nios2eds/bin/gnu/h-i686-mingw32/bin/../lib/gcc/nios2-elf/4.1.2/../../../../nios2-elf/lib\libc.a(lib_a-freer.o)
 .debug_pubnames
                0x00000a59       0x23 c:/altera/12.0sp2/nios2eds/bin/gnu/h-i686-mingw32/bin/../lib/gcc/nios2-elf/4.1.2/../../../../nios2-elf/lib\libc.a(lib_a-fvwrite.o)
 .debug_pubnames
                0x00000a7c       0x2e c:/altera/12.0sp2/nios2eds/bin/gnu/h-i686-mingw32/bin/../lib/gcc/nios2-elf/4.1.2/../../../../nios2-elf/lib\libc.a(lib_a-fwalk.o)
 .debug_pubnames
                0x00000aaa       0xc3 c:/altera/12.0sp2/nios2eds/bin/gnu/h-i686-mingw32/bin/../lib/gcc/nios2-elf/4.1.2/../../../../nios2-elf/lib\libc.a(lib_a-locale.o)
 .debug_pubnames
                0x00000b6d       0x23 c:/altera/12.0sp2/nios2eds/bin/gnu/h-i686-mingw32/bin/../lib/gcc/nios2-elf/4.1.2/../../../../nios2-elf/lib\libc.a(lib_a-makebuf.o)
 .debug_pubnames
                0x00000b90       0xce c:/altera/12.0sp2/nios2eds/bin/gnu/h-i686-mingw32/bin/../lib/gcc/nios2-elf/4.1.2/../../../../nios2-elf/lib\libc.a(lib_a-mallocr.o)
 .debug_pubnames
                0x00000c5e       0x1d c:/altera/12.0sp2/nios2eds/bin/gnu/h-i686-mingw32/bin/../lib/gcc/nios2-elf/4.1.2/../../../../nios2-elf/lib\libc.a(lib_a-memchr.o)
 .debug_pubnames
                0x00000c7b       0x1e c:/altera/12.0sp2/nios2eds/bin/gnu/h-i686-mingw32/bin/../lib/gcc/nios2-elf/4.1.2/../../../../nios2-elf/lib\libc.a(lib_a-memmove.o)
 .debug_pubnames
                0x00000c99      0x13a c:/altera/12.0sp2/nios2eds/bin/gnu/h-i686-mingw32/bin/../lib/gcc/nios2-elf/4.1.2/../../../../nios2-elf/lib\libc.a(lib_a-mprec.o)
 .debug_pubnames
                0x00000dd3       0x21 c:/altera/12.0sp2/nios2eds/bin/gnu/h-i686-mingw32/bin/../lib/gcc/nios2-elf/4.1.2/../../../../nios2-elf/lib\libc.a(lib_a-reallocr.o)
 .debug_pubnames
                0x00000df4       0x1f c:/altera/12.0sp2/nios2eds/bin/gnu/h-i686-mingw32/bin/../lib/gcc/nios2-elf/4.1.2/../../../../nios2-elf/lib\libc.a(lib_a-s_isinfd.o)
 .debug_pubnames
                0x00000e13       0x1e c:/altera/12.0sp2/nios2eds/bin/gnu/h-i686-mingw32/bin/../lib/gcc/nios2-elf/4.1.2/../../../../nios2-elf/lib\libc.a(lib_a-sbrkr.o)
 .debug_pubnames
                0x00000e31       0x44 c:/altera/12.0sp2/nios2eds/bin/gnu/h-i686-mingw32/bin/../lib/gcc/nios2-elf/4.1.2/../../../../nios2-elf/lib\libc.a(lib_a-stdio.o)
 .debug_pubnames
                0x00000e75       0x1d c:/altera/12.0sp2/nios2eds/bin/gnu/h-i686-mingw32/bin/../lib/gcc/nios2-elf/4.1.2/../../../../nios2-elf/lib\libc.a(lib_a-strcmp.o)
 .debug_pubnames
                0x00000e92       0x1d c:/altera/12.0sp2/nios2eds/bin/gnu/h-i686-mingw32/bin/../lib/gcc/nios2-elf/4.1.2/../../../../nios2-elf/lib\libc.a(lib_a-strlen.o)
 .debug_pubnames
                0x00000eaf       0x1f c:/altera/12.0sp2/nios2eds/bin/gnu/h-i686-mingw32/bin/../lib/gcc/nios2-elf/4.1.2/../../../../nios2-elf/lib\libc.a(lib_a-writer.o)
 .debug_pubnames
                0x00000ece       0x20 c:/altera/12.0sp2/nios2eds/bin/gnu/h-i686-mingw32/bin/../lib/gcc/nios2-elf/4.1.2/../../../../nios2-elf/lib\libc.a(lib_a-callocr.o)
 .debug_pubnames
                0x00000eee       0x1f c:/altera/12.0sp2/nios2eds/bin/gnu/h-i686-mingw32/bin/../lib/gcc/nios2-elf/4.1.2/../../../../nios2-elf/lib\libc.a(lib_a-closer.o)
 .debug_pubnames
                0x00000f0d       0x2b c:/altera/12.0sp2/nios2eds/bin/gnu/h-i686-mingw32/bin/../lib/gcc/nios2-elf/4.1.2/../../../../nios2-elf/lib\libc.a(lib_a-fclose.o)
 .debug_pubnames
                0x00000f38       0x1f c:/altera/12.0sp2/nios2eds/bin/gnu/h-i686-mingw32/bin/../lib/gcc/nios2-elf/4.1.2/../../../../nios2-elf/lib\libc.a(lib_a-fstatr.o)
 .debug_pubnames
                0x00000f57       0x1c c:/altera/12.0sp2/nios2eds/bin/gnu/h-i686-mingw32/bin/../lib/gcc/nios2-elf/4.1.2/../../../../nios2-elf/lib\libc.a(lib_a-int_errno.o)
 .debug_pubnames
                0x00000f73       0x20 c:/altera/12.0sp2/nios2eds/bin/gnu/h-i686-mingw32/bin/../lib/gcc/nios2-elf/4.1.2/../../../../nios2-elf/lib\libc.a(lib_a-isattyr.o)
 .debug_pubnames
                0x00000f93       0x1f c:/altera/12.0sp2/nios2eds/bin/gnu/h-i686-mingw32/bin/../lib/gcc/nios2-elf/4.1.2/../../../../nios2-elf/lib\libc.a(lib_a-lseekr.o)
 .debug_pubnames
                0x00000fb2       0x1e c:/altera/12.0sp2/nios2eds/bin/gnu/h-i686-mingw32/bin/../lib/gcc/nios2-elf/4.1.2/../../../../nios2-elf/lib\libc.a(lib_a-readr.o)
 .debug_pubnames
                0x00000fd0       0x20 c:/altera/12.0sp2/nios2eds/bin/gnu/h-i686-mingw32/bin/../lib/gcc/nios2-elf/4.1.2\libgcc.a(_udivdi3.o)
 .debug_pubnames
                0x00000ff0       0x20 c:/altera/12.0sp2/nios2eds/bin/gnu/h-i686-mingw32/bin/../lib/gcc/nios2-elf/4.1.2\libgcc.a(_umoddi3.o)
 .debug_pubnames
                0x00001010       0x1e c:/altera/12.0sp2/nios2eds/bin/gnu/h-i686-mingw32/bin/../lib/gcc/nios2-elf/4.1.2\libgcc.a(_ne_df.o)
 .debug_pubnames
                0x0000102e       0x24 c:/altera/12.0sp2/nios2eds/bin/gnu/h-i686-mingw32/bin/../lib/gcc/nios2-elf/4.1.2\libgcc.a(_usi_to_df.o)
 .debug_pubnames
                0x00001052       0x1c ../microCTest_bsp/\libucosii_bsp.a(alt_close.o)
 .debug_pubnames
                0x0000106e       0x78 ../microCTest_bsp/\libucosii_bsp.a(alt_dev.o)
 .debug_pubnames
                0x000010e6       0x20 ../microCTest_bsp/\libucosii_bsp.a(alt_errno.o)
 .debug_pubnames
                0x00001106       0x1c ../microCTest_bsp/\libucosii_bsp.a(alt_fstat.o)
 .debug_pubnames
                0x00001122       0x1d ../microCTest_bsp/\libucosii_bsp.a(alt_isatty.o)
 .debug_pubnames
                0x0000113f       0x1c ../microCTest_bsp/\libucosii_bsp.a(alt_lseek.o)
 .debug_pubnames
                0x0000115b       0x46 ../microCTest_bsp/\libucosii_bsp.a(alt_main.o)
 .debug_pubnames
                0x000011a1       0x1b ../microCTest_bsp/\libucosii_bsp.a(alt_read.o)
 .debug_pubnames
                0x000011bc       0x25 ../microCTest_bsp/\libucosii_bsp.a(alt_release_fd.o)
 .debug_pubnames
                0x000011e1       0x1b ../microCTest_bsp/\libucosii_bsp.a(alt_sbrk.o)
 .debug_pubnames
                0x000011fc       0x1d ../microCTest_bsp/\libucosii_bsp.a(alt_usleep.o)
 .debug_pubnames
                0x00001219       0x1c ../microCTest_bsp/\libucosii_bsp.a(alt_write.o)
 .debug_pubnames
                0x00001235       0x41 ../microCTest_bsp/\libucosii_bsp.a(alt_env_lock.o)
 .debug_pubnames
                0x00001276       0x48 ../microCTest_bsp/\libucosii_bsp.a(alt_malloc_lock.o)
 .debug_pubnames
                0x000012be      0x3f8 ../microCTest_bsp/\libucosii_bsp.a(os_core.o)
 .debug_pubnames
                0x000016b6      0x3c5 ../microCTest_bsp/\libucosii_bsp.a(os_dbg.o)
 .debug_pubnames
                0x00001a7b       0xd0 ../microCTest_bsp/\libucosii_bsp.a(os_flag.o)
 .debug_pubnames
                0x00001b4b       0x7c ../microCTest_bsp/\libucosii_bsp.a(os_mem.o)
 .debug_pubnames
                0x00001bc7       0xa9 ../microCTest_bsp/\libucosii_bsp.a(os_q.o)
 .debug_pubnames
                0x00001c70       0x8a ../microCTest_bsp/\libucosii_bsp.a(os_sem.o)
 .debug_pubnames
                0x00001cfa       0xe5 ../microCTest_bsp/\libucosii_bsp.a(os_task.o)
 .debug_pubnames
                0x00001ddf       0x62 ../microCTest_bsp/\libucosii_bsp.a(os_time.o)
 .debug_pubnames
                0x00001e41       0x34 ../microCTest_bsp/\libucosii_bsp.a(alt_sys_init.o)
 .debug_pubnames
                0x00001e75       0xac ../microCTest_bsp/\libucosii_bsp.a(altera_avalon_cfi_flash.o)
 .debug_pubnames
                0x00001f21      0x27a ../microCTest_bsp/\libucosii_bsp.a(altera_avalon_cfi_flash_table.o)
 .debug_pubnames
                0x0000219b       0xa5 ../microCTest_bsp/\libucosii_bsp.a(altera_avalon_jtag_uart_fd.o)
 .debug_pubnames
                0x00002240       0x55 ../microCTest_bsp/\libucosii_bsp.a(altera_avalon_jtag_uart_init.o)
 .debug_pubnames
                0x00002295       0x34 ../microCTest_bsp/\libucosii_bsp.a(altera_avalon_jtag_uart_ioctl.o)
 .debug_pubnames
                0x000022c9       0x33 ../microCTest_bsp/\libucosii_bsp.a(altera_avalon_jtag_uart_read.o)
 .debug_pubnames
                0x000022fc       0x34 ../microCTest_bsp/\libucosii_bsp.a(altera_avalon_jtag_uart_write.o)
 .debug_pubnames
                0x00002330       0x55 ../microCTest_bsp/\libucosii_bsp.a(altera_avalon_lcd_16207.o)
 .debug_pubnames
                0x00002385       0x37 ../microCTest_bsp/\libucosii_bsp.a(altera_avalon_lcd_16207_fd.o)
 .debug_pubnames
                0x000023bc       0x2f ../microCTest_bsp/\libucosii_bsp.a(altera_avalon_timer_sc.o)
 .debug_pubnames
                0x000023eb       0x52 ../microCTest_bsp/\libucosii_bsp.a(altera_avalon_timer_vars.o)
 .debug_pubnames
                0x0000243d       0x71 ../microCTest_bsp/\libucosii_bsp.a(altera_avalon_uart_fd.o)
 .debug_pubnames
                0x000024ae       0x4b ../microCTest_bsp/\libucosii_bsp.a(altera_avalon_uart_init.o)
 .debug_pubnames
                0x000024f9       0x2e ../microCTest_bsp/\libucosii_bsp.a(altera_avalon_uart_read.o)
 .debug_pubnames
                0x00002527       0x2f ../microCTest_bsp/\libucosii_bsp.a(altera_avalon_uart_write.o)
 .debug_pubnames
                0x00002556       0x26 ../microCTest_bsp/\libucosii_bsp.a(alt_alarm_start.o)
 .debug_pubnames
                0x0000257c       0x25 ../microCTest_bsp/\libucosii_bsp.a(alt_busy_sleep.o)
 .debug_pubnames
                0x000025a1       0x27 ../microCTest_bsp/\libucosii_bsp.a(alt_dcache_flush.o)
 .debug_pubnames
                0x000025c8       0x2b ../microCTest_bsp/\libucosii_bsp.a(alt_dev_llist_insert.o)
 .debug_pubnames
                0x000025f3       0x20 ../microCTest_bsp/\libucosii_bsp.a(alt_do_ctors.o)
 .debug_pubnames
                0x00002613       0x20 ../microCTest_bsp/\libucosii_bsp.a(alt_do_dtors.o)
 .debug_pubnames
                0x00002633       0x58 ../microCTest_bsp/\libucosii_bsp.a(alt_flash_dev.o)
 .debug_pubnames
                0x0000268b       0x6e ../microCTest_bsp/\libucosii_bsp.a(alt_iic.o)
 .debug_pubnames
                0x000026f9       0x2b ../microCTest_bsp/\libucosii_bsp.a(alt_iic_isr_register.o)
 .debug_pubnames
                0x00002724       0x26 ../microCTest_bsp/\libucosii_bsp.a(alt_io_redirect.o)
 .debug_pubnames
                0x0000274a       0x32 ../microCTest_bsp/\libucosii_bsp.a(alt_irq_handler.o)
 .debug_pubnames
                0x0000277c       0x3b ../microCTest_bsp/\libucosii_bsp.a(alt_irq_vars.o)
 .debug_pubnames
                0x000027b7       0x1b ../microCTest_bsp/\libucosii_bsp.a(alt_open.o)
 .debug_pubnames
                0x000027d2       0x68 ../microCTest_bsp/\libucosii_bsp.a(alt_tick.o)
 .debug_pubnames
                0x0000283a       0x2c ../microCTest_bsp/\libucosii_bsp.a(altera_nios2_irq.o)
 .debug_pubnames
                0x00002866       0xcd ../microCTest_bsp/\libucosii_bsp.a(os_cpu_c.o)
 .debug_pubnames
                0x00002933       0x3e ../microCTest_bsp/\libucosii_bsp.a(altera_avalon_cfi_flash_amd.o)
 .debug_pubnames
                0x00002971       0x42 ../microCTest_bsp/\libucosii_bsp.a(altera_avalon_cfi_flash_intel.o)
 .debug_pubnames
                0x000029b3       0x23 ../microCTest_bsp/\libucosii_bsp.a(alt_find_dev.o)
 .debug_pubnames
                0x000029d6       0x24 ../microCTest_bsp/\libucosii_bsp.a(alt_find_file.o)
 .debug_pubnames
                0x000029fa       0x21 ../microCTest_bsp/\libucosii_bsp.a(alt_get_fd.o)
 .debug_pubnames
                0x00002a1b       0x87 ../microCTest_bsp/\libucosii_bsp.a(alt_instruction_exception_entry.o)
 .debug_pubnames
                0x00002aa2       0x2a c:/altera/12.0sp2/nios2eds/bin/gnu/h-i686-mingw32/bin/../lib/gcc/nios2-elf/4.1.2/../../../../nios2-elf/lib\libc.a(lib_a-atexit.o)
 .debug_pubnames
                0x00002acc       0x2e c:/altera/12.0sp2/nios2eds/bin/gnu/h-i686-mingw32/bin/../lib/gcc/nios2-elf/4.1.2/../../../../nios2-elf/lib\libc.a(lib_a-ctype_.o)
 .debug_pubnames
                0x00002afa       0x1b c:/altera/12.0sp2/nios2eds/bin/gnu/h-i686-mingw32/bin/../lib/gcc/nios2-elf/4.1.2/../../../../nios2-elf/lib\libc.a(lib_a-exit.o)
 .debug_pubnames
                0x00002b15       0x1d c:/altera/12.0sp2/nios2eds/bin/gnu/h-i686-mingw32/bin/../lib/gcc/nios2-elf/4.1.2/../../../../nios2-elf/lib\libc.a(lib_a-memcmp.o)
 .debug_pubnames
                0x00002b32       0x2a c:/altera/12.0sp2/nios2eds/bin/gnu/h-i686-mingw32/bin/../lib/gcc/nios2-elf/4.1.2/../../../../nios2-elf/lib\libc.a(lib_a-__atexit.o)
 .debug_pubnames
                0x00002b5c       0x27 c:/altera/12.0sp2/nios2eds/bin/gnu/h-i686-mingw32/bin/../lib/gcc/nios2-elf/4.1.2/../../../../nios2-elf/lib\libc.a(lib_a-__call_atexit.o)
 .debug_pubnames
                0x00002b83       0x1c ../microCTest_bsp/\libucosii_bsp.a(alt_exit.o)

.debug_info     0x00000000    0x3bc26
 *(.debug_info .gnu.linkonce.wi.*)
 .debug_info    0x00000000       0xa0 ../microCTest_bsp//obj/HAL/src/crt0.o
 .debug_info    0x000000a0      0x2bc obj/default/IK.o
 .debug_info    0x0000035c      0x586 obj/default/hello_ucosii.o
 .debug_info    0x000008e2      0x2c9 obj/default/keypad.o
 .debug_info    0x00000bab      0x1e4 obj/default/lcd.o
 .debug_info    0x00000d8f      0x272 obj/default/pwm.o
 .debug_info    0x00001001      0x263 obj/default/utilities.o
 .debug_info    0x00001264       0xfd c:/altera/12.0sp2/nios2eds/bin/gnu/h-i686-mingw32/bin/../lib/gcc/nios2-elf/4.1.2/../../../../nios2-elf/lib\libm.a(lib_a-s_cos.o)
 .debug_info    0x00001361      0x1cc c:/altera/12.0sp2/nios2eds/bin/gnu/h-i686-mingw32/bin/../lib/gcc/nios2-elf/4.1.2/../../../../nios2-elf/lib\libm.a(lib_a-s_round.o)
 .debug_info    0x0000152d       0xfd c:/altera/12.0sp2/nios2eds/bin/gnu/h-i686-mingw32/bin/../lib/gcc/nios2-elf/4.1.2/../../../../nios2-elf/lib\libm.a(lib_a-s_sin.o)
 .debug_info    0x0000162a       0xc1 c:/altera/12.0sp2/nios2eds/bin/gnu/h-i686-mingw32/bin/../lib/gcc/nios2-elf/4.1.2/../../../../nios2-elf/lib\libm.a(lib_a-w_atan2.o)
 .debug_info    0x000016eb      0x18c c:/altera/12.0sp2/nios2eds/bin/gnu/h-i686-mingw32/bin/../lib/gcc/nios2-elf/4.1.2/../../../../nios2-elf/lib\libm.a(lib_a-w_sqrt.o)
 .debug_info    0x00001877      0x29a c:/altera/12.0sp2/nios2eds/bin/gnu/h-i686-mingw32/bin/../lib/gcc/nios2-elf/4.1.2/../../../../nios2-elf/lib\libm.a(lib_a-e_atan2.o)
 .debug_info    0x00001b11      0x364 c:/altera/12.0sp2/nios2eds/bin/gnu/h-i686-mingw32/bin/../lib/gcc/nios2-elf/4.1.2/../../../../nios2-elf/lib\libm.a(lib_a-e_rem_pio2.o)
 .debug_info    0x00001e75      0x23a c:/altera/12.0sp2/nios2eds/bin/gnu/h-i686-mingw32/bin/../lib/gcc/nios2-elf/4.1.2/../../../../nios2-elf/lib\libm.a(lib_a-e_sqrt.o)
 .debug_info    0x000020af      0x21f c:/altera/12.0sp2/nios2eds/bin/gnu/h-i686-mingw32/bin/../lib/gcc/nios2-elf/4.1.2/../../../../nios2-elf/lib\libm.a(lib_a-k_cos.o)
 .debug_info    0x000022ce      0x2e6 c:/altera/12.0sp2/nios2eds/bin/gnu/h-i686-mingw32/bin/../lib/gcc/nios2-elf/4.1.2/../../../../nios2-elf/lib\libm.a(lib_a-k_rem_pio2.o)
 .debug_info    0x000025b4      0x19e c:/altera/12.0sp2/nios2eds/bin/gnu/h-i686-mingw32/bin/../lib/gcc/nios2-elf/4.1.2/../../../../nios2-elf/lib\libm.a(lib_a-k_sin.o)
 .debug_info    0x00002752      0x278 c:/altera/12.0sp2/nios2eds/bin/gnu/h-i686-mingw32/bin/../lib/gcc/nios2-elf/4.1.2/../../../../nios2-elf/lib\libm.a(lib_a-s_atan.o)
 .debug_info    0x000029ca      0x13b c:/altera/12.0sp2/nios2eds/bin/gnu/h-i686-mingw32/bin/../lib/gcc/nios2-elf/4.1.2/../../../../nios2-elf/lib\libm.a(lib_a-s_fabs.o)
 .debug_info    0x00002b05      0x1bf c:/altera/12.0sp2/nios2eds/bin/gnu/h-i686-mingw32/bin/../lib/gcc/nios2-elf/4.1.2/../../../../nios2-elf/lib\libm.a(lib_a-s_floor.o)
 .debug_info    0x00002cc4       0xd5 c:/altera/12.0sp2/nios2eds/bin/gnu/h-i686-mingw32/bin/../lib/gcc/nios2-elf/4.1.2/../../../../nios2-elf/lib\libm.a(lib_a-s_isnand.o)
 .debug_info    0x00002d99       0xc7 c:/altera/12.0sp2/nios2eds/bin/gnu/h-i686-mingw32/bin/../lib/gcc/nios2-elf/4.1.2/../../../../nios2-elf/lib\libm.a(lib_a-s_lib_ver.o)
 .debug_info    0x00002e60      0x133 c:/altera/12.0sp2/nios2eds/bin/gnu/h-i686-mingw32/bin/../lib/gcc/nios2-elf/4.1.2/../../../../nios2-elf/lib\libm.a(lib_a-s_matherr.o)
 .debug_info    0x00002f93      0x225 c:/altera/12.0sp2/nios2eds/bin/gnu/h-i686-mingw32/bin/../lib/gcc/nios2-elf/4.1.2/../../../../nios2-elf/lib\libm.a(lib_a-s_scalbn.o)
 .debug_info    0x000031b8      0x154 c:/altera/12.0sp2/nios2eds/bin/gnu/h-i686-mingw32/bin/../lib/gcc/nios2-elf/4.1.2/../../../../nios2-elf/lib\libm.a(lib_a-s_copysign.o)
 .debug_info    0x0000330c      0x391 c:/altera/12.0sp2/nios2eds/bin/gnu/h-i686-mingw32/bin/../lib/gcc/nios2-elf/4.1.2\libgcc.a(_div_sf.o)
 .debug_info    0x0000369d      0x214 c:/altera/12.0sp2/nios2eds/bin/gnu/h-i686-mingw32/bin/../lib/gcc/nios2-elf/4.1.2\libgcc.a(_si_to_sf.o)
 .debug_info    0x000038b1      0x245 c:/altera/12.0sp2/nios2eds/bin/gnu/h-i686-mingw32/bin/../lib/gcc/nios2-elf/4.1.2\libgcc.a(_sf_to_df.o)
 .debug_info    0x00003af6      0x164 c:/altera/12.0sp2/nios2eds/bin/gnu/h-i686-mingw32/bin/../lib/gcc/nios2-elf/4.1.2\libgcc.a(_thenan_sf.o)
 .debug_info    0x00003c5a      0x493 c:/altera/12.0sp2/nios2eds/bin/gnu/h-i686-mingw32/bin/../lib/gcc/nios2-elf/4.1.2\libgcc.a(_addsub_df.o)
 .debug_info    0x000040ed      0x488 c:/altera/12.0sp2/nios2eds/bin/gnu/h-i686-mingw32/bin/../lib/gcc/nios2-elf/4.1.2\libgcc.a(_mul_df.o)
 .debug_info    0x00004575      0x39b c:/altera/12.0sp2/nios2eds/bin/gnu/h-i686-mingw32/bin/../lib/gcc/nios2-elf/4.1.2\libgcc.a(_div_df.o)
 .debug_info    0x00004910      0x29d c:/altera/12.0sp2/nios2eds/bin/gnu/h-i686-mingw32/bin/../lib/gcc/nios2-elf/4.1.2\libgcc.a(_eq_df.o)
 .debug_info    0x00004bad      0x29d c:/altera/12.0sp2/nios2eds/bin/gnu/h-i686-mingw32/bin/../lib/gcc/nios2-elf/4.1.2\libgcc.a(_gt_df.o)
 .debug_info    0x00004e4a      0x29d c:/altera/12.0sp2/nios2eds/bin/gnu/h-i686-mingw32/bin/../lib/gcc/nios2-elf/4.1.2\libgcc.a(_ge_df.o)
 .debug_info    0x000050e7      0x29d c:/altera/12.0sp2/nios2eds/bin/gnu/h-i686-mingw32/bin/../lib/gcc/nios2-elf/4.1.2\libgcc.a(_lt_df.o)
 .debug_info    0x00005384      0x218 c:/altera/12.0sp2/nios2eds/bin/gnu/h-i686-mingw32/bin/../lib/gcc/nios2-elf/4.1.2\libgcc.a(_si_to_df.o)
 .debug_info    0x0000559c      0x2cd c:/altera/12.0sp2/nios2eds/bin/gnu/h-i686-mingw32/bin/../lib/gcc/nios2-elf/4.1.2\libgcc.a(_df_to_si.o)
 .debug_info    0x00005869      0x1d6 c:/altera/12.0sp2/nios2eds/bin/gnu/h-i686-mingw32/bin/../lib/gcc/nios2-elf/4.1.2\libgcc.a(_make_df.o)
 .debug_info    0x00005a3f      0x261 c:/altera/12.0sp2/nios2eds/bin/gnu/h-i686-mingw32/bin/../lib/gcc/nios2-elf/4.1.2\libgcc.a(_df_to_sf.o)
 .debug_info    0x00005ca0      0x164 c:/altera/12.0sp2/nios2eds/bin/gnu/h-i686-mingw32/bin/../lib/gcc/nios2-elf/4.1.2\libgcc.a(_thenan_df.o)
 .debug_info    0x00005e04      0x21c c:/altera/12.0sp2/nios2eds/bin/gnu/h-i686-mingw32/bin/../lib/gcc/nios2-elf/4.1.2\libgcc.a(lib2-divmod.o)
 .debug_info    0x00006020      0x215 c:/altera/12.0sp2/nios2eds/bin/gnu/h-i686-mingw32/bin/../lib/gcc/nios2-elf/4.1.2\libgcc.a(_muldi3.o)
 .debug_info    0x00006235      0x130 c:/altera/12.0sp2/nios2eds/bin/gnu/h-i686-mingw32/bin/../lib/gcc/nios2-elf/4.1.2\libgcc.a(_clzsi2.o)
 .debug_info    0x00006365      0x2f2 c:/altera/12.0sp2/nios2eds/bin/gnu/h-i686-mingw32/bin/../lib/gcc/nios2-elf/4.1.2\libgcc.a(_pack_sf.o)
 .debug_info    0x00006657      0x25a c:/altera/12.0sp2/nios2eds/bin/gnu/h-i686-mingw32/bin/../lib/gcc/nios2-elf/4.1.2\libgcc.a(_unpack_sf.o)
 .debug_info    0x000068b1      0x1d7 c:/altera/12.0sp2/nios2eds/bin/gnu/h-i686-mingw32/bin/../lib/gcc/nios2-elf/4.1.2\libgcc.a(_make_sf.o)
 .debug_info    0x00006a88      0x2fc c:/altera/12.0sp2/nios2eds/bin/gnu/h-i686-mingw32/bin/../lib/gcc/nios2-elf/4.1.2\libgcc.a(_pack_df.o)
 .debug_info    0x00006d84      0x268 c:/altera/12.0sp2/nios2eds/bin/gnu/h-i686-mingw32/bin/../lib/gcc/nios2-elf/4.1.2\libgcc.a(_unpack_df.o)
 .debug_info    0x00006fec      0x21b c:/altera/12.0sp2/nios2eds/bin/gnu/h-i686-mingw32/bin/../lib/gcc/nios2-elf/4.1.2\libgcc.a(_fpcmp_parts_df.o)
 .debug_info    0x00007207       0xc9 c:/altera/12.0sp2/nios2eds/bin/gnu/h-i686-mingw32/bin/../lib/gcc/nios2-elf/4.1.2\libgcc.a(_clz.o)
 .debug_info    0x000072d0      0x92e c:/altera/12.0sp2/nios2eds/bin/gnu/h-i686-mingw32/bin/../lib/gcc/nios2-elf/4.1.2/../../../../nios2-elf/lib\libc.a(lib_a-errno.o)
 .debug_info    0x00007bfe      0x93d c:/altera/12.0sp2/nios2eds/bin/gnu/h-i686-mingw32/bin/../lib/gcc/nios2-elf/4.1.2/../../../../nios2-elf/lib\libc.a(lib_a-impure.o)
 .debug_info    0x0000853b      0x106 c:/altera/12.0sp2/nios2eds/bin/gnu/h-i686-mingw32/bin/../lib/gcc/nios2-elf/4.1.2/../../../../nios2-elf/lib\libc.a(lib_a-memcpy.o)
 .debug_info    0x00008641      0x113 c:/altera/12.0sp2/nios2eds/bin/gnu/h-i686-mingw32/bin/../lib/gcc/nios2-elf/4.1.2/../../../../nios2-elf/lib\libc.a(lib_a-memset.o)
 .debug_info    0x00008754      0x9d1 c:/altera/12.0sp2/nios2eds/bin/gnu/h-i686-mingw32/bin/../lib/gcc/nios2-elf/4.1.2/../../../../nios2-elf/lib\libc.a(lib_a-printf.o)
 .debug_info    0x00009125      0xa16 c:/altera/12.0sp2/nios2eds/bin/gnu/h-i686-mingw32/bin/../lib/gcc/nios2-elf/4.1.2/../../../../nios2-elf/lib\libc.a(lib_a-sprintf.o)
 .debug_info    0x00009b3b     0x10d5 c:/altera/12.0sp2/nios2eds/bin/gnu/h-i686-mingw32/bin/../lib/gcc/nios2-elf/4.1.2/../../../../nios2-elf/lib\libc.a(lib_a-vfprintf.o)
 .debug_info    0x0000ac10      0x95d c:/altera/12.0sp2/nios2eds/bin/gnu/h-i686-mingw32/bin/../lib/gcc/nios2-elf/4.1.2/../../../../nios2-elf/lib\libc.a(lib_a-wsetup.o)
 .debug_info    0x0000b56d      0xd6f c:/altera/12.0sp2/nios2eds/bin/gnu/h-i686-mingw32/bin/../lib/gcc/nios2-elf/4.1.2/../../../../nios2-elf/lib\libc.a(lib_a-dtoa.o)
 .debug_info    0x0000c2dc      0x9fe c:/altera/12.0sp2/nios2eds/bin/gnu/h-i686-mingw32/bin/../lib/gcc/nios2-elf/4.1.2/../../../../nios2-elf/lib\libc.a(lib_a-fflush.o)
 .debug_info    0x0000ccda      0xb72 c:/altera/12.0sp2/nios2eds/bin/gnu/h-i686-mingw32/bin/../lib/gcc/nios2-elf/4.1.2/../../../../nios2-elf/lib\libc.a(lib_a-findfp.o)
 .debug_info    0x0000d84c      0xbc9 c:/altera/12.0sp2/nios2eds/bin/gnu/h-i686-mingw32/bin/../lib/gcc/nios2-elf/4.1.2/../../../../nios2-elf/lib\libc.a(lib_a-freer.o)
 .debug_info    0x0000e415      0xa88 c:/altera/12.0sp2/nios2eds/bin/gnu/h-i686-mingw32/bin/../lib/gcc/nios2-elf/4.1.2/../../../../nios2-elf/lib\libc.a(lib_a-fvwrite.o)
 .debug_info    0x0000ee9d      0xaed c:/altera/12.0sp2/nios2eds/bin/gnu/h-i686-mingw32/bin/../lib/gcc/nios2-elf/4.1.2/../../../../nios2-elf/lib\libc.a(lib_a-fwalk.o)
 .debug_info    0x0000f98a      0xb97 c:/altera/12.0sp2/nios2eds/bin/gnu/h-i686-mingw32/bin/../lib/gcc/nios2-elf/4.1.2/../../../../nios2-elf/lib\libc.a(lib_a-locale.o)
 .debug_info    0x00010521      0xb1a c:/altera/12.0sp2/nios2eds/bin/gnu/h-i686-mingw32/bin/../lib/gcc/nios2-elf/4.1.2/../../../../nios2-elf/lib\libc.a(lib_a-makebuf.o)
 .debug_info    0x0001103b      0xcd0 c:/altera/12.0sp2/nios2eds/bin/gnu/h-i686-mingw32/bin/../lib/gcc/nios2-elf/4.1.2/../../../../nios2-elf/lib\libc.a(lib_a-mallocr.o)
 .debug_info    0x00011d0b      0x138 c:/altera/12.0sp2/nios2eds/bin/gnu/h-i686-mingw32/bin/../lib/gcc/nios2-elf/4.1.2/../../../../nios2-elf/lib\libc.a(lib_a-memchr.o)
 .debug_info    0x00011e43      0x13e c:/altera/12.0sp2/nios2eds/bin/gnu/h-i686-mingw32/bin/../lib/gcc/nios2-elf/4.1.2/../../../../nios2-elf/lib\libc.a(lib_a-memmove.o)
 .debug_info    0x00011f81     0x1437 c:/altera/12.0sp2/nios2eds/bin/gnu/h-i686-mingw32/bin/../lib/gcc/nios2-elf/4.1.2/../../../../nios2-elf/lib\libc.a(lib_a-mprec.o)
 .debug_info    0x000133b8      0xbd7 c:/altera/12.0sp2/nios2eds/bin/gnu/h-i686-mingw32/bin/../lib/gcc/nios2-elf/4.1.2/../../../../nios2-elf/lib\libc.a(lib_a-reallocr.o)
 .debug_info    0x00013f8f       0xd7 c:/altera/12.0sp2/nios2eds/bin/gnu/h-i686-mingw32/bin/../lib/gcc/nios2-elf/4.1.2/../../../../nios2-elf/lib\libc.a(lib_a-s_isinfd.o)
 .debug_info    0x00014066      0x962 c:/altera/12.0sp2/nios2eds/bin/gnu/h-i686-mingw32/bin/../lib/gcc/nios2-elf/4.1.2/../../../../nios2-elf/lib\libc.a(lib_a-sbrkr.o)
 .debug_info    0x000149c8      0xaac c:/altera/12.0sp2/nios2eds/bin/gnu/h-i686-mingw32/bin/../lib/gcc/nios2-elf/4.1.2/../../../../nios2-elf/lib\libc.a(lib_a-stdio.o)
 .debug_info    0x00015474       0xdd c:/altera/12.0sp2/nios2eds/bin/gnu/h-i686-mingw32/bin/../lib/gcc/nios2-elf/4.1.2/../../../../nios2-elf/lib\libc.a(lib_a-strcmp.o)
 .debug_info    0x00015551       0xdb c:/altera/12.0sp2/nios2eds/bin/gnu/h-i686-mingw32/bin/../lib/gcc/nios2-elf/4.1.2/../../../../nios2-elf/lib\libc.a(lib_a-strlen.o)
 .debug_info    0x0001562c      0x993 c:/altera/12.0sp2/nios2eds/bin/gnu/h-i686-mingw32/bin/../lib/gcc/nios2-elf/4.1.2/../../../../nios2-elf/lib\libc.a(lib_a-writer.o)
 .debug_info    0x00015fbf      0xa1b c:/altera/12.0sp2/nios2eds/bin/gnu/h-i686-mingw32/bin/../lib/gcc/nios2-elf/4.1.2/../../../../nios2-elf/lib\libc.a(lib_a-callocr.o)
 .debug_info    0x000169da      0x958 c:/altera/12.0sp2/nios2eds/bin/gnu/h-i686-mingw32/bin/../lib/gcc/nios2-elf/4.1.2/../../../../nios2-elf/lib\libc.a(lib_a-closer.o)
 .debug_info    0x00017332      0x994 c:/altera/12.0sp2/nios2eds/bin/gnu/h-i686-mingw32/bin/../lib/gcc/nios2-elf/4.1.2/../../../../nios2-elf/lib\libc.a(lib_a-fclose.o)
 .debug_info    0x00017cc6      0xafc c:/altera/12.0sp2/nios2eds/bin/gnu/h-i686-mingw32/bin/../lib/gcc/nios2-elf/4.1.2/../../../../nios2-elf/lib\libc.a(lib_a-fstatr.o)
 .debug_info    0x000187c2       0x8c c:/altera/12.0sp2/nios2eds/bin/gnu/h-i686-mingw32/bin/../lib/gcc/nios2-elf/4.1.2/../../../../nios2-elf/lib\libc.a(lib_a-int_errno.o)
 .debug_info    0x0001884e      0x958 c:/altera/12.0sp2/nios2eds/bin/gnu/h-i686-mingw32/bin/../lib/gcc/nios2-elf/4.1.2/../../../../nios2-elf/lib\libc.a(lib_a-isattyr.o)
 .debug_info    0x000191a6      0x981 c:/altera/12.0sp2/nios2eds/bin/gnu/h-i686-mingw32/bin/../lib/gcc/nios2-elf/4.1.2/../../../../nios2-elf/lib\libc.a(lib_a-lseekr.o)
 .debug_info    0x00019b27      0x98c c:/altera/12.0sp2/nios2eds/bin/gnu/h-i686-mingw32/bin/../lib/gcc/nios2-elf/4.1.2/../../../../nios2-elf/lib\libc.a(lib_a-readr.o)
 .debug_info    0x0001a4b3      0x724 c:/altera/12.0sp2/nios2eds/bin/gnu/h-i686-mingw32/bin/../lib/gcc/nios2-elf/4.1.2\libgcc.a(_udivdi3.o)
 .debug_info    0x0001abd7      0x751 c:/altera/12.0sp2/nios2eds/bin/gnu/h-i686-mingw32/bin/../lib/gcc/nios2-elf/4.1.2\libgcc.a(_umoddi3.o)
 .debug_info    0x0001b328      0x29d c:/altera/12.0sp2/nios2eds/bin/gnu/h-i686-mingw32/bin/../lib/gcc/nios2-elf/4.1.2\libgcc.a(_ne_df.o)
 .debug_info    0x0001b5c5      0x213 c:/altera/12.0sp2/nios2eds/bin/gnu/h-i686-mingw32/bin/../lib/gcc/nios2-elf/4.1.2\libgcc.a(_usi_to_df.o)
 .debug_info    0x0001b7d8      0x4dc ../microCTest_bsp/\libucosii_bsp.a(alt_close.o)
 .debug_info    0x0001bcb4      0x7fe ../microCTest_bsp/\libucosii_bsp.a(alt_dev.o)
 .debug_info    0x0001c4b2      0x185 ../microCTest_bsp/\libucosii_bsp.a(alt_errno.o)
 .debug_info    0x0001c637      0x6d5 ../microCTest_bsp/\libucosii_bsp.a(alt_fstat.o)
 .debug_info    0x0001cd0c      0x6db ../microCTest_bsp/\libucosii_bsp.a(alt_isatty.o)
 .debug_info    0x0001d3e7      0x50f ../microCTest_bsp/\libucosii_bsp.a(alt_lseek.o)
 .debug_info    0x0001d8f6      0x3fe ../microCTest_bsp/\libucosii_bsp.a(alt_main.o)
 .debug_info    0x0001dcf4      0x6ff ../microCTest_bsp/\libucosii_bsp.a(alt_read.o)
 .debug_info    0x0001e3f3      0x470 ../microCTest_bsp/\libucosii_bsp.a(alt_release_fd.o)
 .debug_info    0x0001e863      0x2d8 ../microCTest_bsp/\libucosii_bsp.a(alt_sbrk.o)
 .debug_info    0x0001eb3b      0x255 ../microCTest_bsp/\libucosii_bsp.a(alt_usleep.o)
 .debug_info    0x0001ed90      0x708 ../microCTest_bsp/\libucosii_bsp.a(alt_write.o)
 .debug_info    0x0001f498     0x11f4 ../microCTest_bsp/\libucosii_bsp.a(alt_env_lock.o)
 .debug_info    0x0002068c     0x1350 ../microCTest_bsp/\libucosii_bsp.a(alt_malloc_lock.o)
 .debug_info    0x000219dc     0x1c0a ../microCTest_bsp/\libucosii_bsp.a(os_core.o)
 .debug_info    0x000235e6     0x114f ../microCTest_bsp/\libucosii_bsp.a(os_dbg.o)
 .debug_info    0x00024735     0x1265 ../microCTest_bsp/\libucosii_bsp.a(os_flag.o)
 .debug_info    0x0002599a      0x82f ../microCTest_bsp/\libucosii_bsp.a(os_mem.o)
 .debug_info    0x000261c9     0x109f ../microCTest_bsp/\libucosii_bsp.a(os_q.o)
 .debug_info    0x00027268      0xd07 ../microCTest_bsp/\libucosii_bsp.a(os_sem.o)
 .debug_info    0x00027f6f     0x137d ../microCTest_bsp/\libucosii_bsp.a(os_task.o)
 .debug_info    0x000292ec      0xa01 ../microCTest_bsp/\libucosii_bsp.a(os_time.o)
 .debug_info    0x00029ced     0x11f8 ../microCTest_bsp/\libucosii_bsp.a(alt_sys_init.o)
 .debug_info    0x0002aee5      0xb6a ../microCTest_bsp/\libucosii_bsp.a(altera_avalon_cfi_flash.o)
 .debug_info    0x0002ba4f      0xe56 ../microCTest_bsp/\libucosii_bsp.a(altera_avalon_cfi_flash_table.o)
 .debug_info    0x0002c8a5      0x9f3 ../microCTest_bsp/\libucosii_bsp.a(altera_avalon_jtag_uart_fd.o)
 .debug_info    0x0002d298      0x971 ../microCTest_bsp/\libucosii_bsp.a(altera_avalon_jtag_uart_init.o)
 .debug_info    0x0002dc09      0x65d ../microCTest_bsp/\libucosii_bsp.a(altera_avalon_jtag_uart_ioctl.o)
 .debug_info    0x0002e266      0x819 ../microCTest_bsp/\libucosii_bsp.a(altera_avalon_jtag_uart_read.o)
 .debug_info    0x0002ea7f      0x810 ../microCTest_bsp/\libucosii_bsp.a(altera_avalon_jtag_uart_write.o)
 .debug_info    0x0002f28f      0xabf ../microCTest_bsp/\libucosii_bsp.a(altera_avalon_lcd_16207.o)
 .debug_info    0x0002fd4e      0x857 ../microCTest_bsp/\libucosii_bsp.a(altera_avalon_lcd_16207_fd.o)
 .debug_info    0x000305a5      0x3ac ../microCTest_bsp/\libucosii_bsp.a(altera_avalon_timer_sc.o)
 .debug_info    0x00030951      0x228 ../microCTest_bsp/\libucosii_bsp.a(altera_avalon_timer_vars.o)
 .debug_info    0x00030b79      0x893 ../microCTest_bsp/\libucosii_bsp.a(altera_avalon_uart_fd.o)
 .debug_info    0x0003140c      0x85f ../microCTest_bsp/\libucosii_bsp.a(altera_avalon_uart_init.o)
 .debug_info    0x00031c6b      0x7e1 ../microCTest_bsp/\libucosii_bsp.a(altera_avalon_uart_read.o)
 .debug_info    0x0003244c      0x7d0 ../microCTest_bsp/\libucosii_bsp.a(altera_avalon_uart_write.o)
 .debug_info    0x00032c1c      0x463 ../microCTest_bsp/\libucosii_bsp.a(alt_alarm_start.o)
 .debug_info    0x0003307f      0x1cc ../microCTest_bsp/\libucosii_bsp.a(alt_busy_sleep.o)
 .debug_info    0x0003324b      0x1c5 ../microCTest_bsp/\libucosii_bsp.a(alt_dcache_flush.o)
 .debug_info    0x00033410      0x2d8 ../microCTest_bsp/\libucosii_bsp.a(alt_dev_llist_insert.o)
 .debug_info    0x000336e8      0x130 ../microCTest_bsp/\libucosii_bsp.a(alt_do_ctors.o)
 .debug_info    0x00033818      0x12f ../microCTest_bsp/\libucosii_bsp.a(alt_do_dtors.o)
 .debug_info    0x00033947      0x60e ../microCTest_bsp/\libucosii_bsp.a(alt_flash_dev.o)
 .debug_info    0x00033f55      0x4b4 ../microCTest_bsp/\libucosii_bsp.a(alt_iic.o)
 .debug_info    0x00034409      0x335 ../microCTest_bsp/\libucosii_bsp.a(alt_iic_isr_register.o)
 .debug_info    0x0003473e      0x70a ../microCTest_bsp/\libucosii_bsp.a(alt_io_redirect.o)
 .debug_info    0x00034e48       0xa5 ../microCTest_bsp/\libucosii_bsp.a(alt_irq_entry.o)
 .debug_info    0x00034eed      0x2db ../microCTest_bsp/\libucosii_bsp.a(alt_irq_handler.o)
 .debug_info    0x000351c8      0x188 ../microCTest_bsp/\libucosii_bsp.a(alt_irq_vars.o)
 .debug_info    0x00035350      0x58b ../microCTest_bsp/\libucosii_bsp.a(alt_open.o)
 .debug_info    0x000358db      0x432 ../microCTest_bsp/\libucosii_bsp.a(alt_tick.o)
 .debug_info    0x00035d0d      0x17a ../microCTest_bsp/\libucosii_bsp.a(altera_nios2_irq.o)
 .debug_info    0x00035e87       0xa4 ../microCTest_bsp/\libucosii_bsp.a(os_cpu_a.o)
 .debug_info    0x00035f2b     0x12f4 ../microCTest_bsp/\libucosii_bsp.a(os_cpu_c.o)
 .debug_info    0x0003721f      0x90a ../microCTest_bsp/\libucosii_bsp.a(altera_avalon_cfi_flash_amd.o)
 .debug_info    0x00037b29      0x900 ../microCTest_bsp/\libucosii_bsp.a(altera_avalon_cfi_flash_intel.o)
 .debug_info    0x00038429       0xab ../microCTest_bsp/\libucosii_bsp.a(alt_exception_entry.o)
 .debug_info    0x000384d4      0x48d ../microCTest_bsp/\libucosii_bsp.a(alt_find_dev.o)
 .debug_info    0x00038961      0x494 ../microCTest_bsp/\libucosii_bsp.a(alt_find_file.o)
 .debug_info    0x00038df5      0x626 ../microCTest_bsp/\libucosii_bsp.a(alt_get_fd.o)
 .debug_info    0x0003941b      0x5ef ../microCTest_bsp/\libucosii_bsp.a(alt_instruction_exception_entry.o)
 .debug_info    0x00039a0a      0x181 c:/altera/12.0sp2/nios2eds/bin/gnu/h-i686-mingw32/bin/../lib/gcc/nios2-elf/4.1.2/../../../../nios2-elf/lib\libc.a(lib_a-atexit.o)
 .debug_info    0x00039b8b       0xa0 c:/altera/12.0sp2/nios2eds/bin/gnu/h-i686-mingw32/bin/../lib/gcc/nios2-elf/4.1.2/../../../../nios2-elf/lib\libc.a(lib_a-ctype_.o)
 .debug_info    0x00039c2b      0x93f c:/altera/12.0sp2/nios2eds/bin/gnu/h-i686-mingw32/bin/../lib/gcc/nios2-elf/4.1.2/../../../../nios2-elf/lib\libc.a(lib_a-exit.o)
 .debug_info    0x0003a56a      0x115 c:/altera/12.0sp2/nios2eds/bin/gnu/h-i686-mingw32/bin/../lib/gcc/nios2-elf/4.1.2/../../../../nios2-elf/lib\libc.a(lib_a-memcmp.o)
 .debug_info    0x0003a67f      0x99c c:/altera/12.0sp2/nios2eds/bin/gnu/h-i686-mingw32/bin/../lib/gcc/nios2-elf/4.1.2/../../../../nios2-elf/lib\libc.a(lib_a-__atexit.o)
 .debug_info    0x0003b01b      0x9e2 c:/altera/12.0sp2/nios2eds/bin/gnu/h-i686-mingw32/bin/../lib/gcc/nios2-elf/4.1.2/../../../../nios2-elf/lib\libc.a(lib_a-__call_atexit.o)
 .debug_info    0x0003b9fd      0x229 ../microCTest_bsp/\libucosii_bsp.a(alt_exit.o)

.debug_abbrev   0x00000000     0xc2c8
 *(.debug_abbrev)
 .debug_abbrev  0x00000000       0x14 ../microCTest_bsp//obj/HAL/src/crt0.o
 .debug_abbrev  0x00000014       0x8d obj/default/IK.o
 .debug_abbrev  0x000000a1      0x10b obj/default/hello_ucosii.o
 .debug_abbrev  0x000001ac       0xda obj/default/keypad.o
 .debug_abbrev  0x00000286       0x77 obj/default/lcd.o
 .debug_abbrev  0x000002fd       0x78 obj/default/pwm.o
 .debug_abbrev  0x00000375       0x78 obj/default/utilities.o
 .debug_abbrev  0x000003ed       0x9a c:/altera/12.0sp2/nios2eds/bin/gnu/h-i686-mingw32/bin/../lib/gcc/nios2-elf/4.1.2/../../../../nios2-elf/lib\libm.a(lib_a-s_cos.o)
 .debug_abbrev  0x00000487       0xea c:/altera/12.0sp2/nios2eds/bin/gnu/h-i686-mingw32/bin/../lib/gcc/nios2-elf/4.1.2/../../../../nios2-elf/lib\libm.a(lib_a-s_round.o)
 .debug_abbrev  0x00000571       0x9a c:/altera/12.0sp2/nios2eds/bin/gnu/h-i686-mingw32/bin/../lib/gcc/nios2-elf/4.1.2/../../../../nios2-elf/lib\libm.a(lib_a-s_sin.o)
 .debug_abbrev  0x0000060b       0x50 c:/altera/12.0sp2/nios2eds/bin/gnu/h-i686-mingw32/bin/../lib/gcc/nios2-elf/4.1.2/../../../../nios2-elf/lib\libm.a(lib_a-w_atan2.o)
 .debug_abbrev  0x0000065b       0xe5 c:/altera/12.0sp2/nios2eds/bin/gnu/h-i686-mingw32/bin/../lib/gcc/nios2-elf/4.1.2/../../../../nios2-elf/lib\libm.a(lib_a-w_sqrt.o)
 .debug_abbrev  0x00000740      0x102 c:/altera/12.0sp2/nios2eds/bin/gnu/h-i686-mingw32/bin/../lib/gcc/nios2-elf/4.1.2/../../../../nios2-elf/lib\libm.a(lib_a-e_atan2.o)
 .debug_abbrev  0x00000842      0x135 c:/altera/12.0sp2/nios2eds/bin/gnu/h-i686-mingw32/bin/../lib/gcc/nios2-elf/4.1.2/../../../../nios2-elf/lib\libm.a(lib_a-e_rem_pio2.o)
 .debug_abbrev  0x00000977      0x122 c:/altera/12.0sp2/nios2eds/bin/gnu/h-i686-mingw32/bin/../lib/gcc/nios2-elf/4.1.2/../../../../nios2-elf/lib\libm.a(lib_a-e_sqrt.o)
 .debug_abbrev  0x00000a99       0xec c:/altera/12.0sp2/nios2eds/bin/gnu/h-i686-mingw32/bin/../lib/gcc/nios2-elf/4.1.2/../../../../nios2-elf/lib\libm.a(lib_a-k_cos.o)
 .debug_abbrev  0x00000b85      0x104 c:/altera/12.0sp2/nios2eds/bin/gnu/h-i686-mingw32/bin/../lib/gcc/nios2-elf/4.1.2/../../../../nios2-elf/lib\libm.a(lib_a-k_rem_pio2.o)
 .debug_abbrev  0x00000c89       0xa0 c:/altera/12.0sp2/nios2eds/bin/gnu/h-i686-mingw32/bin/../lib/gcc/nios2-elf/4.1.2/../../../../nios2-elf/lib\libm.a(lib_a-k_sin.o)
 .debug_abbrev  0x00000d29      0x12e c:/altera/12.0sp2/nios2eds/bin/gnu/h-i686-mingw32/bin/../lib/gcc/nios2-elf/4.1.2/../../../../nios2-elf/lib\libm.a(lib_a-s_atan.o)
 .debug_abbrev  0x00000e57       0xc3 c:/altera/12.0sp2/nios2eds/bin/gnu/h-i686-mingw32/bin/../lib/gcc/nios2-elf/4.1.2/../../../../nios2-elf/lib\libm.a(lib_a-s_fabs.o)
 .debug_abbrev  0x00000f1a       0xea c:/altera/12.0sp2/nios2eds/bin/gnu/h-i686-mingw32/bin/../lib/gcc/nios2-elf/4.1.2/../../../../nios2-elf/lib\libm.a(lib_a-s_floor.o)
 .debug_abbrev  0x00001004       0x79 c:/altera/12.0sp2/nios2eds/bin/gnu/h-i686-mingw32/bin/../lib/gcc/nios2-elf/4.1.2/../../../../nios2-elf/lib\libm.a(lib_a-s_isnand.o)
 .debug_abbrev  0x0000107d       0x53 c:/altera/12.0sp2/nios2eds/bin/gnu/h-i686-mingw32/bin/../lib/gcc/nios2-elf/4.1.2/../../../../nios2-elf/lib\libm.a(lib_a-s_lib_ver.o)
 .debug_abbrev  0x000010d0       0x95 c:/altera/12.0sp2/nios2eds/bin/gnu/h-i686-mingw32/bin/../lib/gcc/nios2-elf/4.1.2/../../../../nios2-elf/lib\libm.a(lib_a-s_matherr.o)
 .debug_abbrev  0x00001165       0xf5 c:/altera/12.0sp2/nios2eds/bin/gnu/h-i686-mingw32/bin/../lib/gcc/nios2-elf/4.1.2/../../../../nios2-elf/lib\libm.a(lib_a-s_scalbn.o)
 .debug_abbrev  0x0000125a       0xc3 c:/altera/12.0sp2/nios2eds/bin/gnu/h-i686-mingw32/bin/../lib/gcc/nios2-elf/4.1.2/../../../../nios2-elf/lib\libm.a(lib_a-s_copysign.o)
 .debug_abbrev  0x0000131d      0x1e5 c:/altera/12.0sp2/nios2eds/bin/gnu/h-i686-mingw32/bin/../lib/gcc/nios2-elf/4.1.2\libgcc.a(_div_sf.o)
 .debug_abbrev  0x00001502      0x13d c:/altera/12.0sp2/nios2eds/bin/gnu/h-i686-mingw32/bin/../lib/gcc/nios2-elf/4.1.2\libgcc.a(_si_to_sf.o)
 .debug_abbrev  0x0000163f      0x128 c:/altera/12.0sp2/nios2eds/bin/gnu/h-i686-mingw32/bin/../lib/gcc/nios2-elf/4.1.2\libgcc.a(_sf_to_df.o)
 .debug_abbrev  0x00001767       0xba c:/altera/12.0sp2/nios2eds/bin/gnu/h-i686-mingw32/bin/../lib/gcc/nios2-elf/4.1.2\libgcc.a(_thenan_sf.o)
 .debug_abbrev  0x00001821      0x1d2 c:/altera/12.0sp2/nios2eds/bin/gnu/h-i686-mingw32/bin/../lib/gcc/nios2-elf/4.1.2\libgcc.a(_addsub_df.o)
 .debug_abbrev  0x000019f3      0x204 c:/altera/12.0sp2/nios2eds/bin/gnu/h-i686-mingw32/bin/../lib/gcc/nios2-elf/4.1.2\libgcc.a(_mul_df.o)
 .debug_abbrev  0x00001bf7      0x1e3 c:/altera/12.0sp2/nios2eds/bin/gnu/h-i686-mingw32/bin/../lib/gcc/nios2-elf/4.1.2\libgcc.a(_div_df.o)
 .debug_abbrev  0x00001dda      0x151 c:/altera/12.0sp2/nios2eds/bin/gnu/h-i686-mingw32/bin/../lib/gcc/nios2-elf/4.1.2\libgcc.a(_eq_df.o)
 .debug_abbrev  0x00001f2b      0x151 c:/altera/12.0sp2/nios2eds/bin/gnu/h-i686-mingw32/bin/../lib/gcc/nios2-elf/4.1.2\libgcc.a(_gt_df.o)
 .debug_abbrev  0x0000207c      0x151 c:/altera/12.0sp2/nios2eds/bin/gnu/h-i686-mingw32/bin/../lib/gcc/nios2-elf/4.1.2\libgcc.a(_ge_df.o)
 .debug_abbrev  0x000021cd      0x151 c:/altera/12.0sp2/nios2eds/bin/gnu/h-i686-mingw32/bin/../lib/gcc/nios2-elf/4.1.2\libgcc.a(_lt_df.o)
 .debug_abbrev  0x0000231e      0x13f c:/altera/12.0sp2/nios2eds/bin/gnu/h-i686-mingw32/bin/../lib/gcc/nios2-elf/4.1.2\libgcc.a(_si_to_df.o)
 .debug_abbrev  0x0000245d      0x176 c:/altera/12.0sp2/nios2eds/bin/gnu/h-i686-mingw32/bin/../lib/gcc/nios2-elf/4.1.2\libgcc.a(_df_to_si.o)
 .debug_abbrev  0x000025d3      0x10f c:/altera/12.0sp2/nios2eds/bin/gnu/h-i686-mingw32/bin/../lib/gcc/nios2-elf/4.1.2\libgcc.a(_make_df.o)
 .debug_abbrev  0x000026e2      0x137 c:/altera/12.0sp2/nios2eds/bin/gnu/h-i686-mingw32/bin/../lib/gcc/nios2-elf/4.1.2\libgcc.a(_df_to_sf.o)
 .debug_abbrev  0x00002819       0xba c:/altera/12.0sp2/nios2eds/bin/gnu/h-i686-mingw32/bin/../lib/gcc/nios2-elf/4.1.2\libgcc.a(_thenan_df.o)
 .debug_abbrev  0x000028d3       0xe0 c:/altera/12.0sp2/nios2eds/bin/gnu/h-i686-mingw32/bin/../lib/gcc/nios2-elf/4.1.2\libgcc.a(lib2-divmod.o)
 .debug_abbrev  0x000029b3       0xee c:/altera/12.0sp2/nios2eds/bin/gnu/h-i686-mingw32/bin/../lib/gcc/nios2-elf/4.1.2\libgcc.a(_muldi3.o)
 .debug_abbrev  0x00002aa1       0xb9 c:/altera/12.0sp2/nios2eds/bin/gnu/h-i686-mingw32/bin/../lib/gcc/nios2-elf/4.1.2\libgcc.a(_clzsi2.o)
 .debug_abbrev  0x00002b5a      0x1aa c:/altera/12.0sp2/nios2eds/bin/gnu/h-i686-mingw32/bin/../lib/gcc/nios2-elf/4.1.2\libgcc.a(_pack_sf.o)
 .debug_abbrev  0x00002d04      0x158 c:/altera/12.0sp2/nios2eds/bin/gnu/h-i686-mingw32/bin/../lib/gcc/nios2-elf/4.1.2\libgcc.a(_unpack_sf.o)
 .debug_abbrev  0x00002e5c      0x100 c:/altera/12.0sp2/nios2eds/bin/gnu/h-i686-mingw32/bin/../lib/gcc/nios2-elf/4.1.2\libgcc.a(_make_sf.o)
 .debug_abbrev  0x00002f5c      0x1b1 c:/altera/12.0sp2/nios2eds/bin/gnu/h-i686-mingw32/bin/../lib/gcc/nios2-elf/4.1.2\libgcc.a(_pack_df.o)
 .debug_abbrev  0x0000310d      0x149 c:/altera/12.0sp2/nios2eds/bin/gnu/h-i686-mingw32/bin/../lib/gcc/nios2-elf/4.1.2\libgcc.a(_unpack_df.o)
 .debug_abbrev  0x00003256      0x132 c:/altera/12.0sp2/nios2eds/bin/gnu/h-i686-mingw32/bin/../lib/gcc/nios2-elf/4.1.2\libgcc.a(_fpcmp_parts_df.o)
 .debug_abbrev  0x00003388       0x61 c:/altera/12.0sp2/nios2eds/bin/gnu/h-i686-mingw32/bin/../lib/gcc/nios2-elf/4.1.2\libgcc.a(_clz.o)
 .debug_abbrev  0x000033e9      0x15f c:/altera/12.0sp2/nios2eds/bin/gnu/h-i686-mingw32/bin/../lib/gcc/nios2-elf/4.1.2/../../../../nios2-elf/lib\libc.a(lib_a-errno.o)
 .debug_abbrev  0x00003548      0x157 c:/altera/12.0sp2/nios2eds/bin/gnu/h-i686-mingw32/bin/../lib/gcc/nios2-elf/4.1.2/../../../../nios2-elf/lib\libc.a(lib_a-impure.o)
 .debug_abbrev  0x0000369f       0xb5 c:/altera/12.0sp2/nios2eds/bin/gnu/h-i686-mingw32/bin/../lib/gcc/nios2-elf/4.1.2/../../../../nios2-elf/lib\libc.a(lib_a-memcpy.o)
 .debug_abbrev  0x00003754       0xb8 c:/altera/12.0sp2/nios2eds/bin/gnu/h-i686-mingw32/bin/../lib/gcc/nios2-elf/4.1.2/../../../../nios2-elf/lib\libc.a(lib_a-memset.o)
 .debug_abbrev  0x0000380c      0x191 c:/altera/12.0sp2/nios2eds/bin/gnu/h-i686-mingw32/bin/../lib/gcc/nios2-elf/4.1.2/../../../../nios2-elf/lib\libc.a(lib_a-printf.o)
 .debug_abbrev  0x0000399d      0x191 c:/altera/12.0sp2/nios2eds/bin/gnu/h-i686-mingw32/bin/../lib/gcc/nios2-elf/4.1.2/../../../../nios2-elf/lib\libc.a(lib_a-sprintf.o)
 .debug_abbrev  0x00003b2e      0x30a c:/altera/12.0sp2/nios2eds/bin/gnu/h-i686-mingw32/bin/../lib/gcc/nios2-elf/4.1.2/../../../../nios2-elf/lib\libc.a(lib_a-vfprintf.o)
 .debug_abbrev  0x00003e38      0x170 c:/altera/12.0sp2/nios2eds/bin/gnu/h-i686-mingw32/bin/../lib/gcc/nios2-elf/4.1.2/../../../../nios2-elf/lib\libc.a(lib_a-wsetup.o)
 .debug_abbrev  0x00003fa8      0x232 c:/altera/12.0sp2/nios2eds/bin/gnu/h-i686-mingw32/bin/../lib/gcc/nios2-elf/4.1.2/../../../../nios2-elf/lib\libc.a(lib_a-dtoa.o)
 .debug_abbrev  0x000041da      0x1c6 c:/altera/12.0sp2/nios2eds/bin/gnu/h-i686-mingw32/bin/../lib/gcc/nios2-elf/4.1.2/../../../../nios2-elf/lib\libc.a(lib_a-fflush.o)
 .debug_abbrev  0x000043a0      0x24c c:/altera/12.0sp2/nios2eds/bin/gnu/h-i686-mingw32/bin/../lib/gcc/nios2-elf/4.1.2/../../../../nios2-elf/lib\libc.a(lib_a-findfp.o)
 .debug_abbrev  0x000045ec      0x1d9 c:/altera/12.0sp2/nios2eds/bin/gnu/h-i686-mingw32/bin/../lib/gcc/nios2-elf/4.1.2/../../../../nios2-elf/lib\libc.a(lib_a-freer.o)
 .debug_abbrev  0x000047c5      0x1a3 c:/altera/12.0sp2/nios2eds/bin/gnu/h-i686-mingw32/bin/../lib/gcc/nios2-elf/4.1.2/../../../../nios2-elf/lib\libc.a(lib_a-fvwrite.o)
 .debug_abbrev  0x00004968      0x1e3 c:/altera/12.0sp2/nios2eds/bin/gnu/h-i686-mingw32/bin/../lib/gcc/nios2-elf/4.1.2/../../../../nios2-elf/lib\libc.a(lib_a-fwalk.o)
 .debug_abbrev  0x00004b4b      0x1ed c:/altera/12.0sp2/nios2eds/bin/gnu/h-i686-mingw32/bin/../lib/gcc/nios2-elf/4.1.2/../../../../nios2-elf/lib\libc.a(lib_a-locale.o)
 .debug_abbrev  0x00004d38      0x197 c:/altera/12.0sp2/nios2eds/bin/gnu/h-i686-mingw32/bin/../lib/gcc/nios2-elf/4.1.2/../../../../nios2-elf/lib\libc.a(lib_a-makebuf.o)
 .debug_abbrev  0x00004ecf      0x216 c:/altera/12.0sp2/nios2eds/bin/gnu/h-i686-mingw32/bin/../lib/gcc/nios2-elf/4.1.2/../../../../nios2-elf/lib\libc.a(lib_a-mallocr.o)
 .debug_abbrev  0x000050e5       0xb5 c:/altera/12.0sp2/nios2eds/bin/gnu/h-i686-mingw32/bin/../lib/gcc/nios2-elf/4.1.2/../../../../nios2-elf/lib\libc.a(lib_a-memchr.o)
 .debug_abbrev  0x0000519a       0xb5 c:/altera/12.0sp2/nios2eds/bin/gnu/h-i686-mingw32/bin/../lib/gcc/nios2-elf/4.1.2/../../../../nios2-elf/lib\libc.a(lib_a-memmove.o)
 .debug_abbrev  0x0000524f      0x297 c:/altera/12.0sp2/nios2eds/bin/gnu/h-i686-mingw32/bin/../lib/gcc/nios2-elf/4.1.2/../../../../nios2-elf/lib\libc.a(lib_a-mprec.o)
 .debug_abbrev  0x000054e6      0x1c3 c:/altera/12.0sp2/nios2eds/bin/gnu/h-i686-mingw32/bin/../lib/gcc/nios2-elf/4.1.2/../../../../nios2-elf/lib\libc.a(lib_a-reallocr.o)
 .debug_abbrev  0x000056a9       0x79 c:/altera/12.0sp2/nios2eds/bin/gnu/h-i686-mingw32/bin/../lib/gcc/nios2-elf/4.1.2/../../../../nios2-elf/lib\libc.a(lib_a-s_isinfd.o)
 .debug_abbrev  0x00005722      0x18c c:/altera/12.0sp2/nios2eds/bin/gnu/h-i686-mingw32/bin/../lib/gcc/nios2-elf/4.1.2/../../../../nios2-elf/lib\libc.a(lib_a-sbrkr.o)
 .debug_abbrev  0x000058ae      0x1c9 c:/altera/12.0sp2/nios2eds/bin/gnu/h-i686-mingw32/bin/../lib/gcc/nios2-elf/4.1.2/../../../../nios2-elf/lib\libc.a(lib_a-stdio.o)
 .debug_abbrev  0x00005a77       0x80 c:/altera/12.0sp2/nios2eds/bin/gnu/h-i686-mingw32/bin/../lib/gcc/nios2-elf/4.1.2/../../../../nios2-elf/lib\libc.a(lib_a-strcmp.o)
 .debug_abbrev  0x00005af7       0x8b c:/altera/12.0sp2/nios2eds/bin/gnu/h-i686-mingw32/bin/../lib/gcc/nios2-elf/4.1.2/../../../../nios2-elf/lib\libc.a(lib_a-strlen.o)
 .debug_abbrev  0x00005b82      0x184 c:/altera/12.0sp2/nios2eds/bin/gnu/h-i686-mingw32/bin/../lib/gcc/nios2-elf/4.1.2/../../../../nios2-elf/lib\libc.a(lib_a-writer.o)
 .debug_abbrev  0x00005d06      0x1b8 c:/altera/12.0sp2/nios2eds/bin/gnu/h-i686-mingw32/bin/../lib/gcc/nios2-elf/4.1.2/../../../../nios2-elf/lib\libc.a(lib_a-callocr.o)
 .debug_abbrev  0x00005ebe      0x17f c:/altera/12.0sp2/nios2eds/bin/gnu/h-i686-mingw32/bin/../lib/gcc/nios2-elf/4.1.2/../../../../nios2-elf/lib\libc.a(lib_a-closer.o)
 .debug_abbrev  0x0000603d      0x1a7 c:/altera/12.0sp2/nios2eds/bin/gnu/h-i686-mingw32/bin/../lib/gcc/nios2-elf/4.1.2/../../../../nios2-elf/lib\libc.a(lib_a-fclose.o)
 .debug_abbrev  0x000061e4      0x18e c:/altera/12.0sp2/nios2eds/bin/gnu/h-i686-mingw32/bin/../lib/gcc/nios2-elf/4.1.2/../../../../nios2-elf/lib\libc.a(lib_a-fstatr.o)
 .debug_abbrev  0x00006372       0x3b c:/altera/12.0sp2/nios2eds/bin/gnu/h-i686-mingw32/bin/../lib/gcc/nios2-elf/4.1.2/../../../../nios2-elf/lib\libc.a(lib_a-int_errno.o)
 .debug_abbrev  0x000063ad      0x17f c:/altera/12.0sp2/nios2eds/bin/gnu/h-i686-mingw32/bin/../lib/gcc/nios2-elf/4.1.2/../../../../nios2-elf/lib\libc.a(lib_a-isattyr.o)
 .debug_abbrev  0x0000652c      0x18e c:/altera/12.0sp2/nios2eds/bin/gnu/h-i686-mingw32/bin/../lib/gcc/nios2-elf/4.1.2/../../../../nios2-elf/lib\libc.a(lib_a-lseekr.o)
 .debug_abbrev  0x000066ba      0x17f c:/altera/12.0sp2/nios2eds/bin/gnu/h-i686-mingw32/bin/../lib/gcc/nios2-elf/4.1.2/../../../../nios2-elf/lib\libc.a(lib_a-readr.o)
 .debug_abbrev  0x00006839      0x16b c:/altera/12.0sp2/nios2eds/bin/gnu/h-i686-mingw32/bin/../lib/gcc/nios2-elf/4.1.2\libgcc.a(_udivdi3.o)
 .debug_abbrev  0x000069a4      0x18e c:/altera/12.0sp2/nios2eds/bin/gnu/h-i686-mingw32/bin/../lib/gcc/nios2-elf/4.1.2\libgcc.a(_umoddi3.o)
 .debug_abbrev  0x00006b32      0x151 c:/altera/12.0sp2/nios2eds/bin/gnu/h-i686-mingw32/bin/../lib/gcc/nios2-elf/4.1.2\libgcc.a(_ne_df.o)
 .debug_abbrev  0x00006c83      0x155 c:/altera/12.0sp2/nios2eds/bin/gnu/h-i686-mingw32/bin/../lib/gcc/nios2-elf/4.1.2\libgcc.a(_usi_to_df.o)
 .debug_abbrev  0x00006dd8      0x102 ../microCTest_bsp/\libucosii_bsp.a(alt_close.o)
 .debug_abbrev  0x00006eda      0x10a ../microCTest_bsp/\libucosii_bsp.a(alt_dev.o)
 .debug_abbrev  0x00006fe4       0x5e ../microCTest_bsp/\libucosii_bsp.a(alt_errno.o)
 .debug_abbrev  0x00007042      0x102 ../microCTest_bsp/\libucosii_bsp.a(alt_fstat.o)
 .debug_abbrev  0x00007144      0x102 ../microCTest_bsp/\libucosii_bsp.a(alt_isatty.o)
 .debug_abbrev  0x00007246      0x102 ../microCTest_bsp/\libucosii_bsp.a(alt_lseek.o)
 .debug_abbrev  0x00007348      0x120 ../microCTest_bsp/\libucosii_bsp.a(alt_main.o)
 .debug_abbrev  0x00007468      0x102 ../microCTest_bsp/\libucosii_bsp.a(alt_read.o)
 .debug_abbrev  0x0000756a       0xd3 ../microCTest_bsp/\libucosii_bsp.a(alt_release_fd.o)
 .debug_abbrev  0x0000763d      0x115 ../microCTest_bsp/\libucosii_bsp.a(alt_sbrk.o)
 .debug_abbrev  0x00007752       0xb7 ../microCTest_bsp/\libucosii_bsp.a(alt_usleep.o)
 .debug_abbrev  0x00007809      0x107 ../microCTest_bsp/\libucosii_bsp.a(alt_write.o)
 .debug_abbrev  0x00007910      0x1b3 ../microCTest_bsp/\libucosii_bsp.a(alt_env_lock.o)
 .debug_abbrev  0x00007ac3      0x234 ../microCTest_bsp/\libucosii_bsp.a(alt_malloc_lock.o)
 .debug_abbrev  0x00007cf7      0x2aa ../microCTest_bsp/\libucosii_bsp.a(os_core.o)
 .debug_abbrev  0x00007fa1      0x114 ../microCTest_bsp/\libucosii_bsp.a(os_dbg.o)
 .debug_abbrev  0x000080b5      0x21b ../microCTest_bsp/\libucosii_bsp.a(os_flag.o)
 .debug_abbrev  0x000082d0      0x235 ../microCTest_bsp/\libucosii_bsp.a(os_mem.o)
 .debug_abbrev  0x00008505      0x20d ../microCTest_bsp/\libucosii_bsp.a(os_q.o)
 .debug_abbrev  0x00008712      0x20d ../microCTest_bsp/\libucosii_bsp.a(os_sem.o)
 .debug_abbrev  0x0000891f      0x20e ../microCTest_bsp/\libucosii_bsp.a(os_task.o)
 .debug_abbrev  0x00008b2d      0x1de ../microCTest_bsp/\libucosii_bsp.a(os_time.o)
 .debug_abbrev  0x00008d0b      0x1c8 ../microCTest_bsp/\libucosii_bsp.a(alt_sys_init.o)
 .debug_abbrev  0x00008ed3      0x1bf ../microCTest_bsp/\libucosii_bsp.a(altera_avalon_cfi_flash.o)
 .debug_abbrev  0x00009092      0x185 ../microCTest_bsp/\libucosii_bsp.a(altera_avalon_cfi_flash_table.o)
 .debug_abbrev  0x00009217      0x13c ../microCTest_bsp/\libucosii_bsp.a(altera_avalon_jtag_uart_fd.o)
 .debug_abbrev  0x00009353      0x21e ../microCTest_bsp/\libucosii_bsp.a(altera_avalon_jtag_uart_init.o)
 .debug_abbrev  0x00009571      0x135 ../microCTest_bsp/\libucosii_bsp.a(altera_avalon_jtag_uart_ioctl.o)
 .debug_abbrev  0x000096a6      0x1ee ../microCTest_bsp/\libucosii_bsp.a(altera_avalon_jtag_uart_read.o)
 .debug_abbrev  0x00009894      0x1ea ../microCTest_bsp/\libucosii_bsp.a(altera_avalon_jtag_uart_write.o)
 .debug_abbrev  0x00009a7e      0x235 ../microCTest_bsp/\libucosii_bsp.a(altera_avalon_lcd_16207.o)
 .debug_abbrev  0x00009cb3      0x12f ../microCTest_bsp/\libucosii_bsp.a(altera_avalon_lcd_16207_fd.o)
 .debug_abbrev  0x00009de2      0x137 ../microCTest_bsp/\libucosii_bsp.a(altera_avalon_timer_sc.o)
 .debug_abbrev  0x00009f19       0x87 ../microCTest_bsp/\libucosii_bsp.a(altera_avalon_timer_vars.o)
 .debug_abbrev  0x00009fa0      0x124 ../microCTest_bsp/\libucosii_bsp.a(altera_avalon_uart_fd.o)
 .debug_abbrev  0x0000a0c4      0x204 ../microCTest_bsp/\libucosii_bsp.a(altera_avalon_uart_init.o)
 .debug_abbrev  0x0000a2c8      0x1b9 ../microCTest_bsp/\libucosii_bsp.a(altera_avalon_uart_read.o)
 .debug_abbrev  0x0000a481      0x1c0 ../microCTest_bsp/\libucosii_bsp.a(altera_avalon_uart_write.o)
 .debug_abbrev  0x0000a641      0x172 ../microCTest_bsp/\libucosii_bsp.a(alt_alarm_start.o)
 .debug_abbrev  0x0000a7b3       0x6c ../microCTest_bsp/\libucosii_bsp.a(alt_busy_sleep.o)
 .debug_abbrev  0x0000a81f       0x7a ../microCTest_bsp/\libucosii_bsp.a(alt_dcache_flush.o)
 .debug_abbrev  0x0000a899       0xf6 ../microCTest_bsp/\libucosii_bsp.a(alt_dev_llist_insert.o)
 .debug_abbrev  0x0000a98f       0x76 ../microCTest_bsp/\libucosii_bsp.a(alt_do_ctors.o)
 .debug_abbrev  0x0000aa05       0x76 ../microCTest_bsp/\libucosii_bsp.a(alt_do_dtors.o)
 .debug_abbrev  0x0000aa7b      0x128 ../microCTest_bsp/\libucosii_bsp.a(alt_flash_dev.o)
 .debug_abbrev  0x0000aba3      0x134 ../microCTest_bsp/\libucosii_bsp.a(alt_iic.o)
 .debug_abbrev  0x0000acd7      0x14e ../microCTest_bsp/\libucosii_bsp.a(alt_iic_isr_register.o)
 .debug_abbrev  0x0000ae25       0xf7 ../microCTest_bsp/\libucosii_bsp.a(alt_io_redirect.o)
 .debug_abbrev  0x0000af1c       0x12 ../microCTest_bsp/\libucosii_bsp.a(alt_irq_entry.o)
 .debug_abbrev  0x0000af2e      0x124 ../microCTest_bsp/\libucosii_bsp.a(alt_irq_handler.o)
 .debug_abbrev  0x0000b052       0x44 ../microCTest_bsp/\libucosii_bsp.a(alt_irq_vars.o)
 .debug_abbrev  0x0000b096      0x119 ../microCTest_bsp/\libucosii_bsp.a(alt_open.o)
 .debug_abbrev  0x0000b1af      0x150 ../microCTest_bsp/\libucosii_bsp.a(alt_tick.o)
 .debug_abbrev  0x0000b2ff       0x3f ../microCTest_bsp/\libucosii_bsp.a(altera_nios2_irq.o)
 .debug_abbrev  0x0000b33e       0x14 ../microCTest_bsp/\libucosii_bsp.a(os_cpu_a.o)
 .debug_abbrev  0x0000b352      0x1d0 ../microCTest_bsp/\libucosii_bsp.a(os_cpu_c.o)
 .debug_abbrev  0x0000b522      0x14d ../microCTest_bsp/\libucosii_bsp.a(altera_avalon_cfi_flash_amd.o)
 .debug_abbrev  0x0000b66f      0x14d ../microCTest_bsp/\libucosii_bsp.a(altera_avalon_cfi_flash_intel.o)
 .debug_abbrev  0x0000b7bc       0x12 ../microCTest_bsp/\libucosii_bsp.a(alt_exception_entry.o)
 .debug_abbrev  0x0000b7ce       0xd6 ../microCTest_bsp/\libucosii_bsp.a(alt_find_dev.o)
 .debug_abbrev  0x0000b8a4       0xd6 ../microCTest_bsp/\libucosii_bsp.a(alt_find_file.o)
 .debug_abbrev  0x0000b97a      0x173 ../microCTest_bsp/\libucosii_bsp.a(alt_get_fd.o)
 .debug_abbrev  0x0000baed       0xa3 ../microCTest_bsp/\libucosii_bsp.a(alt_instruction_exception_entry.o)
 .debug_abbrev  0x0000bb90       0xb7 c:/altera/12.0sp2/nios2eds/bin/gnu/h-i686-mingw32/bin/../lib/gcc/nios2-elf/4.1.2/../../../../nios2-elf/lib\libc.a(lib_a-atexit.o)
 .debug_abbrev  0x0000bc47       0x61 c:/altera/12.0sp2/nios2eds/bin/gnu/h-i686-mingw32/bin/../lib/gcc/nios2-elf/4.1.2/../../../../nios2-elf/lib\libc.a(lib_a-ctype_.o)
 .debug_abbrev  0x0000bca8      0x16e c:/altera/12.0sp2/nios2eds/bin/gnu/h-i686-mingw32/bin/../lib/gcc/nios2-elf/4.1.2/../../../../nios2-elf/lib\libc.a(lib_a-exit.o)
 .debug_abbrev  0x0000be16       0x7c c:/altera/12.0sp2/nios2eds/bin/gnu/h-i686-mingw32/bin/../lib/gcc/nios2-elf/4.1.2/../../../../nios2-elf/lib\libc.a(lib_a-memcmp.o)
 .debug_abbrev  0x0000be92      0x1ae c:/altera/12.0sp2/nios2eds/bin/gnu/h-i686-mingw32/bin/../lib/gcc/nios2-elf/4.1.2/../../../../nios2-elf/lib\libc.a(lib_a-__atexit.o)
 .debug_abbrev  0x0000c040      0x1de c:/altera/12.0sp2/nios2eds/bin/gnu/h-i686-mingw32/bin/../lib/gcc/nios2-elf/4.1.2/../../../../nios2-elf/lib\libc.a(lib_a-__call_atexit.o)
 .debug_abbrev  0x0000c21e       0xaa ../microCTest_bsp/\libucosii_bsp.a(alt_exit.o)

.debug_line     0x00000000    0x240e6
 *(.debug_line)
 .debug_line    0x00000000       0x57 ../microCTest_bsp//obj/HAL/src/crt0.o
 .debug_line    0x00000057      0x2a5 obj/default/IK.o
 .debug_line    0x000002fc      0x582 obj/default/hello_ucosii.o
 .debug_line    0x0000087e      0x483 obj/default/keypad.o
 .debug_line    0x00000d01      0x140 obj/default/lcd.o
 .debug_line    0x00000e41      0x37d obj/default/pwm.o
 .debug_line    0x000011be      0x1c1 obj/default/utilities.o
 .debug_line    0x0000137f      0x29f c:/altera/12.0sp2/nios2eds/bin/gnu/h-i686-mingw32/bin/../lib/gcc/nios2-elf/4.1.2/../../../../nios2-elf/lib\libm.a(lib_a-s_cos.o)
 .debug_line    0x0000161e      0x2f7 c:/altera/12.0sp2/nios2eds/bin/gnu/h-i686-mingw32/bin/../lib/gcc/nios2-elf/4.1.2/../../../../nios2-elf/lib\libm.a(lib_a-s_round.o)
 .debug_line    0x00001915      0x29f c:/altera/12.0sp2/nios2eds/bin/gnu/h-i686-mingw32/bin/../lib/gcc/nios2-elf/4.1.2/../../../../nios2-elf/lib\libm.a(lib_a-s_sin.o)
 .debug_line    0x00001bb4      0x224 c:/altera/12.0sp2/nios2eds/bin/gnu/h-i686-mingw32/bin/../lib/gcc/nios2-elf/4.1.2/../../../../nios2-elf/lib\libm.a(lib_a-w_atan2.o)
 .debug_line    0x00001dd8      0x30d c:/altera/12.0sp2/nios2eds/bin/gnu/h-i686-mingw32/bin/../lib/gcc/nios2-elf/4.1.2/../../../../nios2-elf/lib\libm.a(lib_a-w_sqrt.o)
 .debug_line    0x000020e5      0x383 c:/altera/12.0sp2/nios2eds/bin/gnu/h-i686-mingw32/bin/../lib/gcc/nios2-elf/4.1.2/../../../../nios2-elf/lib\libm.a(lib_a-e_atan2.o)
 .debug_line    0x00002468      0x658 c:/altera/12.0sp2/nios2eds/bin/gnu/h-i686-mingw32/bin/../lib/gcc/nios2-elf/4.1.2/../../../../nios2-elf/lib\libm.a(lib_a-e_rem_pio2.o)
 .debug_line    0x00002ac0      0x4e0 c:/altera/12.0sp2/nios2eds/bin/gnu/h-i686-mingw32/bin/../lib/gcc/nios2-elf/4.1.2/../../../../nios2-elf/lib\libm.a(lib_a-e_sqrt.o)
 .debug_line    0x00002fa0      0x2c3 c:/altera/12.0sp2/nios2eds/bin/gnu/h-i686-mingw32/bin/../lib/gcc/nios2-elf/4.1.2/../../../../nios2-elf/lib\libm.a(lib_a-k_cos.o)
 .debug_line    0x00003263      0x8d8 c:/altera/12.0sp2/nios2eds/bin/gnu/h-i686-mingw32/bin/../lib/gcc/nios2-elf/4.1.2/../../../../nios2-elf/lib\libm.a(lib_a-k_rem_pio2.o)
 .debug_line    0x00003b3b      0x2af c:/altera/12.0sp2/nios2eds/bin/gnu/h-i686-mingw32/bin/../lib/gcc/nios2-elf/4.1.2/../../../../nios2-elf/lib\libm.a(lib_a-k_sin.o)
 .debug_line    0x00003dea      0x392 c:/altera/12.0sp2/nios2eds/bin/gnu/h-i686-mingw32/bin/../lib/gcc/nios2-elf/4.1.2/../../../../nios2-elf/lib\libm.a(lib_a-s_atan.o)
 .debug_line    0x0000417c      0x228 c:/altera/12.0sp2/nios2eds/bin/gnu/h-i686-mingw32/bin/../lib/gcc/nios2-elf/4.1.2/../../../../nios2-elf/lib\libm.a(lib_a-s_fabs.o)
 .debug_line    0x000043a4      0x307 c:/altera/12.0sp2/nios2eds/bin/gnu/h-i686-mingw32/bin/../lib/gcc/nios2-elf/4.1.2/../../../../nios2-elf/lib\libm.a(lib_a-s_floor.o)
 .debug_line    0x000046ab      0x21a c:/altera/12.0sp2/nios2eds/bin/gnu/h-i686-mingw32/bin/../lib/gcc/nios2-elf/4.1.2/../../../../nios2-elf/lib\libm.a(lib_a-s_isnand.o)
 .debug_line    0x000048c5      0x1f9 c:/altera/12.0sp2/nios2eds/bin/gnu/h-i686-mingw32/bin/../lib/gcc/nios2-elf/4.1.2/../../../../nios2-elf/lib\libm.a(lib_a-s_lib_ver.o)
 .debug_line    0x00004abe      0x20b c:/altera/12.0sp2/nios2eds/bin/gnu/h-i686-mingw32/bin/../lib/gcc/nios2-elf/4.1.2/../../../../nios2-elf/lib\libm.a(lib_a-s_matherr.o)
 .debug_line    0x00004cc9      0x32e c:/altera/12.0sp2/nios2eds/bin/gnu/h-i686-mingw32/bin/../lib/gcc/nios2-elf/4.1.2/../../../../nios2-elf/lib\libm.a(lib_a-s_scalbn.o)
 .debug_line    0x00004ff7      0x22c c:/altera/12.0sp2/nios2eds/bin/gnu/h-i686-mingw32/bin/../lib/gcc/nios2-elf/4.1.2/../../../../nios2-elf/lib\libm.a(lib_a-s_copysign.o)
 .debug_line    0x00005223      0x26a c:/altera/12.0sp2/nios2eds/bin/gnu/h-i686-mingw32/bin/../lib/gcc/nios2-elf/4.1.2\libgcc.a(_div_sf.o)
 .debug_line    0x0000548d      0x187 c:/altera/12.0sp2/nios2eds/bin/gnu/h-i686-mingw32/bin/../lib/gcc/nios2-elf/4.1.2\libgcc.a(_si_to_sf.o)
 .debug_line    0x00005614       0xd1 c:/altera/12.0sp2/nios2eds/bin/gnu/h-i686-mingw32/bin/../lib/gcc/nios2-elf/4.1.2\libgcc.a(_sf_to_df.o)
 .debug_line    0x000056e5       0x94 c:/altera/12.0sp2/nios2eds/bin/gnu/h-i686-mingw32/bin/../lib/gcc/nios2-elf/4.1.2\libgcc.a(_thenan_sf.o)
 .debug_line    0x00005779      0x430 c:/altera/12.0sp2/nios2eds/bin/gnu/h-i686-mingw32/bin/../lib/gcc/nios2-elf/4.1.2\libgcc.a(_addsub_df.o)
 .debug_line    0x00005ba9      0x3e5 c:/altera/12.0sp2/nios2eds/bin/gnu/h-i686-mingw32/bin/../lib/gcc/nios2-elf/4.1.2\libgcc.a(_mul_df.o)
 .debug_line    0x00005f8e      0x301 c:/altera/12.0sp2/nios2eds/bin/gnu/h-i686-mingw32/bin/../lib/gcc/nios2-elf/4.1.2\libgcc.a(_div_df.o)
 .debug_line    0x0000628f      0x129 c:/altera/12.0sp2/nios2eds/bin/gnu/h-i686-mingw32/bin/../lib/gcc/nios2-elf/4.1.2\libgcc.a(_eq_df.o)
 .debug_line    0x000063b8      0x129 c:/altera/12.0sp2/nios2eds/bin/gnu/h-i686-mingw32/bin/../lib/gcc/nios2-elf/4.1.2\libgcc.a(_gt_df.o)
 .debug_line    0x000064e1      0x129 c:/altera/12.0sp2/nios2eds/bin/gnu/h-i686-mingw32/bin/../lib/gcc/nios2-elf/4.1.2\libgcc.a(_ge_df.o)
 .debug_line    0x0000660a      0x129 c:/altera/12.0sp2/nios2eds/bin/gnu/h-i686-mingw32/bin/../lib/gcc/nios2-elf/4.1.2\libgcc.a(_lt_df.o)
 .debug_line    0x00006733      0x175 c:/altera/12.0sp2/nios2eds/bin/gnu/h-i686-mingw32/bin/../lib/gcc/nios2-elf/4.1.2\libgcc.a(_si_to_df.o)
 .debug_line    0x000068a8      0x149 c:/altera/12.0sp2/nios2eds/bin/gnu/h-i686-mingw32/bin/../lib/gcc/nios2-elf/4.1.2\libgcc.a(_df_to_si.o)
 .debug_line    0x000069f1       0xe9 c:/altera/12.0sp2/nios2eds/bin/gnu/h-i686-mingw32/bin/../lib/gcc/nios2-elf/4.1.2\libgcc.a(_make_df.o)
 .debug_line    0x00006ada      0x121 c:/altera/12.0sp2/nios2eds/bin/gnu/h-i686-mingw32/bin/../lib/gcc/nios2-elf/4.1.2\libgcc.a(_df_to_sf.o)
 .debug_line    0x00006bfb       0x94 c:/altera/12.0sp2/nios2eds/bin/gnu/h-i686-mingw32/bin/../lib/gcc/nios2-elf/4.1.2\libgcc.a(_thenan_df.o)
 .debug_line    0x00006c8f      0x24f c:/altera/12.0sp2/nios2eds/bin/gnu/h-i686-mingw32/bin/../lib/gcc/nios2-elf/4.1.2\libgcc.a(lib2-divmod.o)
 .debug_line    0x00006ede      0x11f c:/altera/12.0sp2/nios2eds/bin/gnu/h-i686-mingw32/bin/../lib/gcc/nios2-elf/4.1.2\libgcc.a(_muldi3.o)
 .debug_line    0x00006ffd      0x105 c:/altera/12.0sp2/nios2eds/bin/gnu/h-i686-mingw32/bin/../lib/gcc/nios2-elf/4.1.2\libgcc.a(_clzsi2.o)
 .debug_line    0x00007102      0x1ca c:/altera/12.0sp2/nios2eds/bin/gnu/h-i686-mingw32/bin/../lib/gcc/nios2-elf/4.1.2\libgcc.a(_pack_sf.o)
 .debug_line    0x000072cc      0x197 c:/altera/12.0sp2/nios2eds/bin/gnu/h-i686-mingw32/bin/../lib/gcc/nios2-elf/4.1.2\libgcc.a(_unpack_sf.o)
 .debug_line    0x00007463       0xe1 c:/altera/12.0sp2/nios2eds/bin/gnu/h-i686-mingw32/bin/../lib/gcc/nios2-elf/4.1.2\libgcc.a(_make_sf.o)
 .debug_line    0x00007544      0x222 c:/altera/12.0sp2/nios2eds/bin/gnu/h-i686-mingw32/bin/../lib/gcc/nios2-elf/4.1.2\libgcc.a(_pack_df.o)
 .debug_line    0x00007766      0x1e4 c:/altera/12.0sp2/nios2eds/bin/gnu/h-i686-mingw32/bin/../lib/gcc/nios2-elf/4.1.2\libgcc.a(_unpack_df.o)
 .debug_line    0x0000794a      0x187 c:/altera/12.0sp2/nios2eds/bin/gnu/h-i686-mingw32/bin/../lib/gcc/nios2-elf/4.1.2\libgcc.a(_fpcmp_parts_df.o)
 .debug_line    0x00007ad1       0xaa c:/altera/12.0sp2/nios2eds/bin/gnu/h-i686-mingw32/bin/../lib/gcc/nios2-elf/4.1.2\libgcc.a(_clz.o)
 .debug_line    0x00007b7b      0x1ec c:/altera/12.0sp2/nios2eds/bin/gnu/h-i686-mingw32/bin/../lib/gcc/nios2-elf/4.1.2/../../../../nios2-elf/lib\libc.a(lib_a-errno.o)
 .debug_line    0x00007d67      0x22d c:/altera/12.0sp2/nios2eds/bin/gnu/h-i686-mingw32/bin/../lib/gcc/nios2-elf/4.1.2/../../../../nios2-elf/lib\libc.a(lib_a-impure.o)
 .debug_line    0x00007f94      0x1ac c:/altera/12.0sp2/nios2eds/bin/gnu/h-i686-mingw32/bin/../lib/gcc/nios2-elf/4.1.2/../../../../nios2-elf/lib\libc.a(lib_a-memcpy.o)
 .debug_line    0x00008140      0x301 c:/altera/12.0sp2/nios2eds/bin/gnu/h-i686-mingw32/bin/../lib/gcc/nios2-elf/4.1.2/../../../../nios2-elf/lib\libc.a(lib_a-memset.o)
 .debug_line    0x00008441      0x29b c:/altera/12.0sp2/nios2eds/bin/gnu/h-i686-mingw32/bin/../lib/gcc/nios2-elf/4.1.2/../../../../nios2-elf/lib\libc.a(lib_a-printf.o)
 .debug_line    0x000086dc      0x322 c:/altera/12.0sp2/nios2eds/bin/gnu/h-i686-mingw32/bin/../lib/gcc/nios2-elf/4.1.2/../../../../nios2-elf/lib\libc.a(lib_a-sprintf.o)
 .debug_line    0x000089fe     0x110c c:/altera/12.0sp2/nios2eds/bin/gnu/h-i686-mingw32/bin/../lib/gcc/nios2-elf/4.1.2/../../../../nios2-elf/lib\libc.a(lib_a-vfprintf.o)
 .debug_line    0x00009b0a      0x2f0 c:/altera/12.0sp2/nios2eds/bin/gnu/h-i686-mingw32/bin/../lib/gcc/nios2-elf/4.1.2/../../../../nios2-elf/lib\libc.a(lib_a-wsetup.o)
 .debug_line    0x00009dfa     0x12c6 c:/altera/12.0sp2/nios2eds/bin/gnu/h-i686-mingw32/bin/../lib/gcc/nios2-elf/4.1.2/../../../../nios2-elf/lib\libc.a(lib_a-dtoa.o)
 .debug_line    0x0000b0c0      0x40d c:/altera/12.0sp2/nios2eds/bin/gnu/h-i686-mingw32/bin/../lib/gcc/nios2-elf/4.1.2/../../../../nios2-elf/lib\libc.a(lib_a-fflush.o)
 .debug_line    0x0000b4cd      0x601 c:/altera/12.0sp2/nios2eds/bin/gnu/h-i686-mingw32/bin/../lib/gcc/nios2-elf/4.1.2/../../../../nios2-elf/lib\libc.a(lib_a-findfp.o)
 .debug_line    0x0000bace      0x5eb c:/altera/12.0sp2/nios2eds/bin/gnu/h-i686-mingw32/bin/../lib/gcc/nios2-elf/4.1.2/../../../../nios2-elf/lib\libc.a(lib_a-freer.o)
 .debug_line    0x0000c0b9      0x641 c:/altera/12.0sp2/nios2eds/bin/gnu/h-i686-mingw32/bin/../lib/gcc/nios2-elf/4.1.2/../../../../nios2-elf/lib\libc.a(lib_a-fvwrite.o)
 .debug_line    0x0000c6fa      0x34a c:/altera/12.0sp2/nios2eds/bin/gnu/h-i686-mingw32/bin/../lib/gcc/nios2-elf/4.1.2/../../../../nios2-elf/lib\libc.a(lib_a-fwalk.o)
 .debug_line    0x0000ca44      0x2c8 c:/altera/12.0sp2/nios2eds/bin/gnu/h-i686-mingw32/bin/../lib/gcc/nios2-elf/4.1.2/../../../../nios2-elf/lib\libc.a(lib_a-locale.o)
 .debug_line    0x0000cd0c      0x3c3 c:/altera/12.0sp2/nios2eds/bin/gnu/h-i686-mingw32/bin/../lib/gcc/nios2-elf/4.1.2/../../../../nios2-elf/lib\libc.a(lib_a-makebuf.o)
 .debug_line    0x0000d0cf      0x80a c:/altera/12.0sp2/nios2eds/bin/gnu/h-i686-mingw32/bin/../lib/gcc/nios2-elf/4.1.2/../../../../nios2-elf/lib\libc.a(lib_a-mallocr.o)
 .debug_line    0x0000d8d9      0x303 c:/altera/12.0sp2/nios2eds/bin/gnu/h-i686-mingw32/bin/../lib/gcc/nios2-elf/4.1.2/../../../../nios2-elf/lib\libc.a(lib_a-memchr.o)
 .debug_line    0x0000dbdc      0x30a c:/altera/12.0sp2/nios2eds/bin/gnu/h-i686-mingw32/bin/../lib/gcc/nios2-elf/4.1.2/../../../../nios2-elf/lib\libc.a(lib_a-memmove.o)
 .debug_line    0x0000dee6     0x1243 c:/altera/12.0sp2/nios2eds/bin/gnu/h-i686-mingw32/bin/../lib/gcc/nios2-elf/4.1.2/../../../../nios2-elf/lib\libc.a(lib_a-mprec.o)
 .debug_line    0x0000f129      0x58a c:/altera/12.0sp2/nios2eds/bin/gnu/h-i686-mingw32/bin/../lib/gcc/nios2-elf/4.1.2/../../../../nios2-elf/lib\libc.a(lib_a-reallocr.o)
 .debug_line    0x0000f6b3      0x222 c:/altera/12.0sp2/nios2eds/bin/gnu/h-i686-mingw32/bin/../lib/gcc/nios2-elf/4.1.2/../../../../nios2-elf/lib\libc.a(lib_a-s_isinfd.o)
 .debug_line    0x0000f8d5      0x299 c:/altera/12.0sp2/nios2eds/bin/gnu/h-i686-mingw32/bin/../lib/gcc/nios2-elf/4.1.2/../../../../nios2-elf/lib\libc.a(lib_a-sbrkr.o)
 .debug_line    0x0000fb6e      0x38c c:/altera/12.0sp2/nios2eds/bin/gnu/h-i686-mingw32/bin/../lib/gcc/nios2-elf/4.1.2/../../../../nios2-elf/lib\libc.a(lib_a-stdio.o)
 .debug_line    0x0000fefa      0x2d5 c:/altera/12.0sp2/nios2eds/bin/gnu/h-i686-mingw32/bin/../lib/gcc/nios2-elf/4.1.2/../../../../nios2-elf/lib\libc.a(lib_a-strcmp.o)
 .debug_line    0x000101cf      0x26d c:/altera/12.0sp2/nios2eds/bin/gnu/h-i686-mingw32/bin/../lib/gcc/nios2-elf/4.1.2/../../../../nios2-elf/lib\libc.a(lib_a-strlen.o)
 .debug_line    0x0001043c      0x29a c:/altera/12.0sp2/nios2eds/bin/gnu/h-i686-mingw32/bin/../lib/gcc/nios2-elf/4.1.2/../../../../nios2-elf/lib\libc.a(lib_a-writer.o)
 .debug_line    0x000106d6      0x25c c:/altera/12.0sp2/nios2eds/bin/gnu/h-i686-mingw32/bin/../lib/gcc/nios2-elf/4.1.2/../../../../nios2-elf/lib\libc.a(lib_a-callocr.o)
 .debug_line    0x00010932      0x29a c:/altera/12.0sp2/nios2eds/bin/gnu/h-i686-mingw32/bin/../lib/gcc/nios2-elf/4.1.2/../../../../nios2-elf/lib\libc.a(lib_a-closer.o)
 .debug_line    0x00010bcc      0x2e8 c:/altera/12.0sp2/nios2eds/bin/gnu/h-i686-mingw32/bin/../lib/gcc/nios2-elf/4.1.2/../../../../nios2-elf/lib\libc.a(lib_a-fclose.o)
 .debug_line    0x00010eb4      0x264 c:/altera/12.0sp2/nios2eds/bin/gnu/h-i686-mingw32/bin/../lib/gcc/nios2-elf/4.1.2/../../../../nios2-elf/lib\libc.a(lib_a-fstatr.o)
 .debug_line    0x00011118      0x1df c:/altera/12.0sp2/nios2eds/bin/gnu/h-i686-mingw32/bin/../lib/gcc/nios2-elf/4.1.2/../../../../nios2-elf/lib\libc.a(lib_a-int_errno.o)
 .debug_line    0x000112f7      0x29b c:/altera/12.0sp2/nios2eds/bin/gnu/h-i686-mingw32/bin/../lib/gcc/nios2-elf/4.1.2/../../../../nios2-elf/lib\libc.a(lib_a-isattyr.o)
 .debug_line    0x00011592      0x29a c:/altera/12.0sp2/nios2eds/bin/gnu/h-i686-mingw32/bin/../lib/gcc/nios2-elf/4.1.2/../../../../nios2-elf/lib\libc.a(lib_a-lseekr.o)
 .debug_line    0x0001182c      0x299 c:/altera/12.0sp2/nios2eds/bin/gnu/h-i686-mingw32/bin/../lib/gcc/nios2-elf/4.1.2/../../../../nios2-elf/lib\libc.a(lib_a-readr.o)
 .debug_line    0x00011ac5      0x2f2 c:/altera/12.0sp2/nios2eds/bin/gnu/h-i686-mingw32/bin/../lib/gcc/nios2-elf/4.1.2\libgcc.a(_udivdi3.o)
 .debug_line    0x00011db7      0x37d c:/altera/12.0sp2/nios2eds/bin/gnu/h-i686-mingw32/bin/../lib/gcc/nios2-elf/4.1.2\libgcc.a(_umoddi3.o)
 .debug_line    0x00012134      0x129 c:/altera/12.0sp2/nios2eds/bin/gnu/h-i686-mingw32/bin/../lib/gcc/nios2-elf/4.1.2\libgcc.a(_ne_df.o)
 .debug_line    0x0001225d      0x189 c:/altera/12.0sp2/nios2eds/bin/gnu/h-i686-mingw32/bin/../lib/gcc/nios2-elf/4.1.2\libgcc.a(_usi_to_df.o)
 .debug_line    0x000123e6      0x2f9 ../microCTest_bsp/\libucosii_bsp.a(alt_close.o)
 .debug_line    0x000126df      0x2ba ../microCTest_bsp/\libucosii_bsp.a(alt_dev.o)
 .debug_line    0x00012999      0x1aa ../microCTest_bsp/\libucosii_bsp.a(alt_errno.o)
 .debug_line    0x00012b43      0x301 ../microCTest_bsp/\libucosii_bsp.a(alt_fstat.o)
 .debug_line    0x00012e44      0x302 ../microCTest_bsp/\libucosii_bsp.a(alt_isatty.o)
 .debug_line    0x00013146      0x301 ../microCTest_bsp/\libucosii_bsp.a(alt_lseek.o)
 .debug_line    0x00013447      0x349 ../microCTest_bsp/\libucosii_bsp.a(alt_main.o)
 .debug_line    0x00013790      0x328 ../microCTest_bsp/\libucosii_bsp.a(alt_read.o)
 .debug_line    0x00013ab8      0x279 ../microCTest_bsp/\libucosii_bsp.a(alt_release_fd.o)
 .debug_line    0x00013d31      0x261 ../microCTest_bsp/\libucosii_bsp.a(alt_sbrk.o)
 .debug_line    0x00013f92      0x2ad ../microCTest_bsp/\libucosii_bsp.a(alt_usleep.o)
 .debug_line    0x0001423f      0x329 ../microCTest_bsp/\libucosii_bsp.a(alt_write.o)
 .debug_line    0x00014568      0x2bf ../microCTest_bsp/\libucosii_bsp.a(alt_env_lock.o)
 .debug_line    0x00014827      0x37b ../microCTest_bsp/\libucosii_bsp.a(alt_malloc_lock.o)
 .debug_line    0x00014ba2     0x1663 ../microCTest_bsp/\libucosii_bsp.a(os_core.o)
 .debug_line    0x00016205      0x388 ../microCTest_bsp/\libucosii_bsp.a(os_dbg.o)
 .debug_line    0x0001658d     0x11e7 ../microCTest_bsp/\libucosii_bsp.a(os_flag.o)
 .debug_line    0x00017774      0x78a ../microCTest_bsp/\libucosii_bsp.a(os_mem.o)
 .debug_line    0x00017efe      0xe6b ../microCTest_bsp/\libucosii_bsp.a(os_q.o)
 .debug_line    0x00018d69      0xa23 ../microCTest_bsp/\libucosii_bsp.a(os_sem.o)
 .debug_line    0x0001978c     0x112c ../microCTest_bsp/\libucosii_bsp.a(os_task.o)
 .debug_line    0x0001a8b8      0x52f ../microCTest_bsp/\libucosii_bsp.a(os_time.o)
 .debug_line    0x0001ade7      0x3db ../microCTest_bsp/\libucosii_bsp.a(alt_sys_init.o)
 .debug_line    0x0001b1c2      0x573 ../microCTest_bsp/\libucosii_bsp.a(altera_avalon_cfi_flash.o)
 .debug_line    0x0001b735      0x951 ../microCTest_bsp/\libucosii_bsp.a(altera_avalon_cfi_flash_table.o)
 .debug_line    0x0001c086      0x319 ../microCTest_bsp/\libucosii_bsp.a(altera_avalon_jtag_uart_fd.o)
 .debug_line    0x0001c39f      0x598 ../microCTest_bsp/\libucosii_bsp.a(altera_avalon_jtag_uart_init.o)
 .debug_line    0x0001c937      0x356 ../microCTest_bsp/\libucosii_bsp.a(altera_avalon_jtag_uart_ioctl.o)
 .debug_line    0x0001cc8d      0x494 ../microCTest_bsp/\libucosii_bsp.a(altera_avalon_jtag_uart_read.o)
 .debug_line    0x0001d121      0x4a2 ../microCTest_bsp/\libucosii_bsp.a(altera_avalon_jtag_uart_write.o)
 .debug_line    0x0001d5c3      0x940 ../microCTest_bsp/\libucosii_bsp.a(altera_avalon_lcd_16207.o)
 .debug_line    0x0001df03      0x2b9 ../microCTest_bsp/\libucosii_bsp.a(altera_avalon_lcd_16207_fd.o)
 .debug_line    0x0001e1bc      0x2b3 ../microCTest_bsp/\libucosii_bsp.a(altera_avalon_timer_sc.o)
 .debug_line    0x0001e46f      0x242 ../microCTest_bsp/\libucosii_bsp.a(altera_avalon_timer_vars.o)
 .debug_line    0x0001e6b1      0x2f7 ../microCTest_bsp/\libucosii_bsp.a(altera_avalon_uart_fd.o)
 .debug_line    0x0001e9a8      0x567 ../microCTest_bsp/\libucosii_bsp.a(altera_avalon_uart_init.o)
 .debug_line    0x0001ef0f      0x4b3 ../microCTest_bsp/\libucosii_bsp.a(altera_avalon_uart_read.o)
 .debug_line    0x0001f3c2      0x495 ../microCTest_bsp/\libucosii_bsp.a(altera_avalon_uart_write.o)
 .debug_line    0x0001f857      0x2dc ../microCTest_bsp/\libucosii_bsp.a(alt_alarm_start.o)
 .debug_line    0x0001fb33      0x25c ../microCTest_bsp/\libucosii_bsp.a(alt_busy_sleep.o)
 .debug_line    0x0001fd8f      0x1e1 ../microCTest_bsp/\libucosii_bsp.a(alt_dcache_flush.o)
 .debug_line    0x0001ff70      0x25a ../microCTest_bsp/\libucosii_bsp.a(alt_dev_llist_insert.o)
 .debug_line    0x000201ca       0x83 ../microCTest_bsp/\libucosii_bsp.a(alt_do_ctors.o)
 .debug_line    0x0002024d       0x83 ../microCTest_bsp/\libucosii_bsp.a(alt_do_dtors.o)
 .debug_line    0x000202d0      0x2c8 ../microCTest_bsp/\libucosii_bsp.a(alt_flash_dev.o)
 .debug_line    0x00020598      0x2c8 ../microCTest_bsp/\libucosii_bsp.a(alt_iic.o)
 .debug_line    0x00020860      0x249 ../microCTest_bsp/\libucosii_bsp.a(alt_iic_isr_register.o)
 .debug_line    0x00020aa9      0x323 ../microCTest_bsp/\libucosii_bsp.a(alt_io_redirect.o)
 .debug_line    0x00020dcc       0x6b ../microCTest_bsp/\libucosii_bsp.a(alt_irq_entry.o)
 .debug_line    0x00020e37      0x2c4 ../microCTest_bsp/\libucosii_bsp.a(alt_irq_handler.o)
 .debug_line    0x000210fb       0x72 ../microCTest_bsp/\libucosii_bsp.a(alt_irq_vars.o)
 .debug_line    0x0002116d      0x35f ../microCTest_bsp/\libucosii_bsp.a(alt_open.o)
 .debug_line    0x000214cc      0x316 ../microCTest_bsp/\libucosii_bsp.a(alt_tick.o)
 .debug_line    0x000217e2      0x1c9 ../microCTest_bsp/\libucosii_bsp.a(altera_nios2_irq.o)
 .debug_line    0x000219ab       0x86 ../microCTest_bsp/\libucosii_bsp.a(os_cpu_a.o)
 .debug_line    0x00021a31      0x328 ../microCTest_bsp/\libucosii_bsp.a(os_cpu_c.o)
 .debug_line    0x00021d59      0x445 ../microCTest_bsp/\libucosii_bsp.a(altera_avalon_cfi_flash_amd.o)
 .debug_line    0x0002219e      0x437 ../microCTest_bsp/\libucosii_bsp.a(altera_avalon_cfi_flash_intel.o)
 .debug_line    0x000225d5       0xb1 ../microCTest_bsp/\libucosii_bsp.a(alt_exception_entry.o)
 .debug_line    0x00022686      0x2da ../microCTest_bsp/\libucosii_bsp.a(alt_find_dev.o)
 .debug_line    0x00022960      0x2eb ../microCTest_bsp/\libucosii_bsp.a(alt_find_file.o)
 .debug_line    0x00022c4b      0x31b ../microCTest_bsp/\libucosii_bsp.a(alt_get_fd.o)
 .debug_line    0x00022f66      0x13b ../microCTest_bsp/\libucosii_bsp.a(alt_instruction_exception_entry.o)
 .debug_line    0x000230a1      0x200 c:/altera/12.0sp2/nios2eds/bin/gnu/h-i686-mingw32/bin/../lib/gcc/nios2-elf/4.1.2/../../../../nios2-elf/lib\libc.a(lib_a-atexit.o)
 .debug_line    0x000232a1       0x7e c:/altera/12.0sp2/nios2eds/bin/gnu/h-i686-mingw32/bin/../lib/gcc/nios2-elf/4.1.2/../../../../nios2-elf/lib\libc.a(lib_a-ctype_.o)
 .debug_line    0x0002331f      0x238 c:/altera/12.0sp2/nios2eds/bin/gnu/h-i686-mingw32/bin/../lib/gcc/nios2-elf/4.1.2/../../../../nios2-elf/lib\libc.a(lib_a-exit.o)
 .debug_line    0x00023557      0x29f c:/altera/12.0sp2/nios2eds/bin/gnu/h-i686-mingw32/bin/../lib/gcc/nios2-elf/4.1.2/../../../../nios2-elf/lib\libc.a(lib_a-memcmp.o)
 .debug_line    0x000237f6      0x313 c:/altera/12.0sp2/nios2eds/bin/gnu/h-i686-mingw32/bin/../lib/gcc/nios2-elf/4.1.2/../../../../nios2-elf/lib\libc.a(lib_a-__atexit.o)
 .debug_line    0x00023b09      0x367 c:/altera/12.0sp2/nios2eds/bin/gnu/h-i686-mingw32/bin/../lib/gcc/nios2-elf/4.1.2/../../../../nios2-elf/lib\libc.a(lib_a-__call_atexit.o)
 .debug_line    0x00023e70      0x276 ../microCTest_bsp/\libucosii_bsp.a(alt_exit.o)

.debug_frame    0x00000000     0x31b8
 *(.debug_frame)
 .debug_frame   0x00000000       0x38 obj/default/IK.o
 .debug_frame   0x00000038       0x8c obj/default/hello_ucosii.o
 .debug_frame   0x000000c4       0x9c obj/default/keypad.o
 .debug_frame   0x00000160       0x64 obj/default/lcd.o
 .debug_frame   0x000001c4       0x64 obj/default/pwm.o
 .debug_frame   0x00000228       0x4c obj/default/utilities.o
 .debug_frame   0x00000274       0x28 c:/altera/12.0sp2/nios2eds/bin/gnu/h-i686-mingw32/bin/../lib/gcc/nios2-elf/4.1.2/../../../../nios2-elf/lib\libm.a(lib_a-s_cos.o)
 .debug_frame   0x0000029c       0x28 c:/altera/12.0sp2/nios2eds/bin/gnu/h-i686-mingw32/bin/../lib/gcc/nios2-elf/4.1.2/../../../../nios2-elf/lib\libm.a(lib_a-s_round.o)
 .debug_frame   0x000002c4       0x28 c:/altera/12.0sp2/nios2eds/bin/gnu/h-i686-mingw32/bin/../lib/gcc/nios2-elf/4.1.2/../../../../nios2-elf/lib\libm.a(lib_a-s_sin.o)
 .debug_frame   0x000002ec       0x20 c:/altera/12.0sp2/nios2eds/bin/gnu/h-i686-mingw32/bin/../lib/gcc/nios2-elf/4.1.2/../../../../nios2-elf/lib\libm.a(lib_a-w_atan2.o)
 .debug_frame   0x0000030c       0x34 c:/altera/12.0sp2/nios2eds/bin/gnu/h-i686-mingw32/bin/../lib/gcc/nios2-elf/4.1.2/../../../../nios2-elf/lib\libm.a(lib_a-w_sqrt.o)
 .debug_frame   0x00000340       0x2c c:/altera/12.0sp2/nios2eds/bin/gnu/h-i686-mingw32/bin/../lib/gcc/nios2-elf/4.1.2/../../../../nios2-elf/lib\libm.a(lib_a-e_atan2.o)
 .debug_frame   0x0000036c       0x3c c:/altera/12.0sp2/nios2eds/bin/gnu/h-i686-mingw32/bin/../lib/gcc/nios2-elf/4.1.2/../../../../nios2-elf/lib\libm.a(lib_a-e_rem_pio2.o)
 .debug_frame   0x000003a8       0x2c c:/altera/12.0sp2/nios2eds/bin/gnu/h-i686-mingw32/bin/../lib/gcc/nios2-elf/4.1.2/../../../../nios2-elf/lib\libm.a(lib_a-e_sqrt.o)
 .debug_frame   0x000003d4       0x38 c:/altera/12.0sp2/nios2eds/bin/gnu/h-i686-mingw32/bin/../lib/gcc/nios2-elf/4.1.2/../../../../nios2-elf/lib\libm.a(lib_a-k_cos.o)
 .debug_frame   0x0000040c       0x3c c:/altera/12.0sp2/nios2eds/bin/gnu/h-i686-mingw32/bin/../lib/gcc/nios2-elf/4.1.2/../../../../nios2-elf/lib\libm.a(lib_a-k_rem_pio2.o)
 .debug_frame   0x00000448       0x38 c:/altera/12.0sp2/nios2eds/bin/gnu/h-i686-mingw32/bin/../lib/gcc/nios2-elf/4.1.2/../../../../nios2-elf/lib\libm.a(lib_a-k_sin.o)
 .debug_frame   0x00000480       0x3c c:/altera/12.0sp2/nios2eds/bin/gnu/h-i686-mingw32/bin/../lib/gcc/nios2-elf/4.1.2/../../../../nios2-elf/lib\libm.a(lib_a-s_atan.o)
 .debug_frame   0x000004bc       0x20 c:/altera/12.0sp2/nios2eds/bin/gnu/h-i686-mingw32/bin/../lib/gcc/nios2-elf/4.1.2/../../../../nios2-elf/lib\libm.a(lib_a-s_fabs.o)
 .debug_frame   0x000004dc       0x3c c:/altera/12.0sp2/nios2eds/bin/gnu/h-i686-mingw32/bin/../lib/gcc/nios2-elf/4.1.2/../../../../nios2-elf/lib\libm.a(lib_a-s_floor.o)
 .debug_frame   0x00000518       0x20 c:/altera/12.0sp2/nios2eds/bin/gnu/h-i686-mingw32/bin/../lib/gcc/nios2-elf/4.1.2/../../../../nios2-elf/lib\libm.a(lib_a-s_isnand.o)
 .debug_frame   0x00000538       0x20 c:/altera/12.0sp2/nios2eds/bin/gnu/h-i686-mingw32/bin/../lib/gcc/nios2-elf/4.1.2/../../../../nios2-elf/lib\libm.a(lib_a-s_matherr.o)
 .debug_frame   0x00000558       0x2c c:/altera/12.0sp2/nios2eds/bin/gnu/h-i686-mingw32/bin/../lib/gcc/nios2-elf/4.1.2/../../../../nios2-elf/lib\libm.a(lib_a-s_scalbn.o)
 .debug_frame   0x00000584       0x20 c:/altera/12.0sp2/nios2eds/bin/gnu/h-i686-mingw32/bin/../lib/gcc/nios2-elf/4.1.2/../../../../nios2-elf/lib\libm.a(lib_a-s_copysign.o)
 .debug_frame   0x000005a4       0x2c c:/altera/12.0sp2/nios2eds/bin/gnu/h-i686-mingw32/bin/../lib/gcc/nios2-elf/4.1.2\libgcc.a(_div_sf.o)
 .debug_frame   0x000005d0       0x28 c:/altera/12.0sp2/nios2eds/bin/gnu/h-i686-mingw32/bin/../lib/gcc/nios2-elf/4.1.2\libgcc.a(_si_to_sf.o)
 .debug_frame   0x000005f8       0x28 c:/altera/12.0sp2/nios2eds/bin/gnu/h-i686-mingw32/bin/../lib/gcc/nios2-elf/4.1.2\libgcc.a(_sf_to_df.o)
 .debug_frame   0x00000620       0x70 c:/altera/12.0sp2/nios2eds/bin/gnu/h-i686-mingw32/bin/../lib/gcc/nios2-elf/4.1.2\libgcc.a(_addsub_df.o)
 .debug_frame   0x00000690       0x3c c:/altera/12.0sp2/nios2eds/bin/gnu/h-i686-mingw32/bin/../lib/gcc/nios2-elf/4.1.2\libgcc.a(_mul_df.o)
 .debug_frame   0x000006cc       0x30 c:/altera/12.0sp2/nios2eds/bin/gnu/h-i686-mingw32/bin/../lib/gcc/nios2-elf/4.1.2\libgcc.a(_div_df.o)
 .debug_frame   0x000006fc       0x2c c:/altera/12.0sp2/nios2eds/bin/gnu/h-i686-mingw32/bin/../lib/gcc/nios2-elf/4.1.2\libgcc.a(_eq_df.o)
 .debug_frame   0x00000728       0x2c c:/altera/12.0sp2/nios2eds/bin/gnu/h-i686-mingw32/bin/../lib/gcc/nios2-elf/4.1.2\libgcc.a(_gt_df.o)
 .debug_frame   0x00000754       0x2c c:/altera/12.0sp2/nios2eds/bin/gnu/h-i686-mingw32/bin/../lib/gcc/nios2-elf/4.1.2\libgcc.a(_ge_df.o)
 .debug_frame   0x00000780       0x2c c:/altera/12.0sp2/nios2eds/bin/gnu/h-i686-mingw32/bin/../lib/gcc/nios2-elf/4.1.2\libgcc.a(_lt_df.o)
 .debug_frame   0x000007ac       0x30 c:/altera/12.0sp2/nios2eds/bin/gnu/h-i686-mingw32/bin/../lib/gcc/nios2-elf/4.1.2\libgcc.a(_si_to_df.o)
 .debug_frame   0x000007dc       0x28 c:/altera/12.0sp2/nios2eds/bin/gnu/h-i686-mingw32/bin/../lib/gcc/nios2-elf/4.1.2\libgcc.a(_df_to_si.o)
 .debug_frame   0x00000804       0x28 c:/altera/12.0sp2/nios2eds/bin/gnu/h-i686-mingw32/bin/../lib/gcc/nios2-elf/4.1.2\libgcc.a(_make_df.o)
 .debug_frame   0x0000082c       0x28 c:/altera/12.0sp2/nios2eds/bin/gnu/h-i686-mingw32/bin/../lib/gcc/nios2-elf/4.1.2\libgcc.a(_df_to_sf.o)
 .debug_frame   0x00000854       0x70 c:/altera/12.0sp2/nios2eds/bin/gnu/h-i686-mingw32/bin/../lib/gcc/nios2-elf/4.1.2\libgcc.a(lib2-divmod.o)
 .debug_frame   0x000008c4       0x2c c:/altera/12.0sp2/nios2eds/bin/gnu/h-i686-mingw32/bin/../lib/gcc/nios2-elf/4.1.2\libgcc.a(_muldi3.o)
 .debug_frame   0x000008f0       0x20 c:/altera/12.0sp2/nios2eds/bin/gnu/h-i686-mingw32/bin/../lib/gcc/nios2-elf/4.1.2\libgcc.a(_clzsi2.o)
 .debug_frame   0x00000910       0x20 c:/altera/12.0sp2/nios2eds/bin/gnu/h-i686-mingw32/bin/../lib/gcc/nios2-elf/4.1.2\libgcc.a(_pack_sf.o)
 .debug_frame   0x00000930       0x20 c:/altera/12.0sp2/nios2eds/bin/gnu/h-i686-mingw32/bin/../lib/gcc/nios2-elf/4.1.2\libgcc.a(_unpack_sf.o)
 .debug_frame   0x00000950       0x28 c:/altera/12.0sp2/nios2eds/bin/gnu/h-i686-mingw32/bin/../lib/gcc/nios2-elf/4.1.2\libgcc.a(_make_sf.o)
 .debug_frame   0x00000978       0x2c c:/altera/12.0sp2/nios2eds/bin/gnu/h-i686-mingw32/bin/../lib/gcc/nios2-elf/4.1.2\libgcc.a(_pack_df.o)
 .debug_frame   0x000009a4       0x20 c:/altera/12.0sp2/nios2eds/bin/gnu/h-i686-mingw32/bin/../lib/gcc/nios2-elf/4.1.2\libgcc.a(_unpack_df.o)
 .debug_frame   0x000009c4       0x20 c:/altera/12.0sp2/nios2eds/bin/gnu/h-i686-mingw32/bin/../lib/gcc/nios2-elf/4.1.2\libgcc.a(_fpcmp_parts_df.o)
 .debug_frame   0x000009e4       0x20 c:/altera/12.0sp2/nios2eds/bin/gnu/h-i686-mingw32/bin/../lib/gcc/nios2-elf/4.1.2/../../../../nios2-elf/lib\libc.a(lib_a-errno.o)
 .debug_frame   0x00000a04       0x20 c:/altera/12.0sp2/nios2eds/bin/gnu/h-i686-mingw32/bin/../lib/gcc/nios2-elf/4.1.2/../../../../nios2-elf/lib\libc.a(lib_a-memcpy.o)
 .debug_frame   0x00000a24       0x20 c:/altera/12.0sp2/nios2eds/bin/gnu/h-i686-mingw32/bin/../lib/gcc/nios2-elf/4.1.2/../../../../nios2-elf/lib\libc.a(lib_a-memset.o)
 .debug_frame   0x00000a44       0x40 c:/altera/12.0sp2/nios2eds/bin/gnu/h-i686-mingw32/bin/../lib/gcc/nios2-elf/4.1.2/../../../../nios2-elf/lib\libc.a(lib_a-printf.o)
 .debug_frame   0x00000a84       0x40 c:/altera/12.0sp2/nios2eds/bin/gnu/h-i686-mingw32/bin/../lib/gcc/nios2-elf/4.1.2/../../../../nios2-elf/lib\libc.a(lib_a-sprintf.o)
 .debug_frame   0x00000ac4       0x64 c:/altera/12.0sp2/nios2eds/bin/gnu/h-i686-mingw32/bin/../lib/gcc/nios2-elf/4.1.2/../../../../nios2-elf/lib\libc.a(lib_a-vfprintf.o)
 .debug_frame   0x00000b28       0x2c c:/altera/12.0sp2/nios2eds/bin/gnu/h-i686-mingw32/bin/../lib/gcc/nios2-elf/4.1.2/../../../../nios2-elf/lib\libc.a(lib_a-wsetup.o)
 .debug_frame   0x00000b54       0x64 c:/altera/12.0sp2/nios2eds/bin/gnu/h-i686-mingw32/bin/../lib/gcc/nios2-elf/4.1.2/../../../../nios2-elf/lib\libc.a(lib_a-dtoa.o)
 .debug_frame   0x00000bb8       0x40 c:/altera/12.0sp2/nios2eds/bin/gnu/h-i686-mingw32/bin/../lib/gcc/nios2-elf/4.1.2/../../../../nios2-elf/lib\libc.a(lib_a-fflush.o)
 .debug_frame   0x00000bf8      0x118 c:/altera/12.0sp2/nios2eds/bin/gnu/h-i686-mingw32/bin/../lib/gcc/nios2-elf/4.1.2/../../../../nios2-elf/lib\libc.a(lib_a-findfp.o)
 .debug_frame   0x00000d10       0x4c c:/altera/12.0sp2/nios2eds/bin/gnu/h-i686-mingw32/bin/../lib/gcc/nios2-elf/4.1.2/../../../../nios2-elf/lib\libc.a(lib_a-freer.o)
 .debug_frame   0x00000d5c       0x38 c:/altera/12.0sp2/nios2eds/bin/gnu/h-i686-mingw32/bin/../lib/gcc/nios2-elf/4.1.2/../../../../nios2-elf/lib\libc.a(lib_a-fvwrite.o)
 .debug_frame   0x00000d94       0x60 c:/altera/12.0sp2/nios2eds/bin/gnu/h-i686-mingw32/bin/../lib/gcc/nios2-elf/4.1.2/../../../../nios2-elf/lib\libc.a(lib_a-fwalk.o)
 .debug_frame   0x00000df4       0x70 c:/altera/12.0sp2/nios2eds/bin/gnu/h-i686-mingw32/bin/../lib/gcc/nios2-elf/4.1.2/../../../../nios2-elf/lib\libc.a(lib_a-locale.o)
 .debug_frame   0x00000e64       0x2c c:/altera/12.0sp2/nios2eds/bin/gnu/h-i686-mingw32/bin/../lib/gcc/nios2-elf/4.1.2/../../../../nios2-elf/lib\libc.a(lib_a-makebuf.o)
 .debug_frame   0x00000e90       0x38 c:/altera/12.0sp2/nios2eds/bin/gnu/h-i686-mingw32/bin/../lib/gcc/nios2-elf/4.1.2/../../../../nios2-elf/lib\libc.a(lib_a-mallocr.o)
 .debug_frame   0x00000ec8       0x20 c:/altera/12.0sp2/nios2eds/bin/gnu/h-i686-mingw32/bin/../lib/gcc/nios2-elf/4.1.2/../../../../nios2-elf/lib\libc.a(lib_a-memchr.o)
 .debug_frame   0x00000ee8       0x20 c:/altera/12.0sp2/nios2eds/bin/gnu/h-i686-mingw32/bin/../lib/gcc/nios2-elf/4.1.2/../../../../nios2-elf/lib\libc.a(lib_a-memmove.o)
 .debug_frame   0x00000f08      0x218 c:/altera/12.0sp2/nios2eds/bin/gnu/h-i686-mingw32/bin/../lib/gcc/nios2-elf/4.1.2/../../../../nios2-elf/lib\libc.a(lib_a-mprec.o)
 .debug_frame   0x00001120       0x38 c:/altera/12.0sp2/nios2eds/bin/gnu/h-i686-mingw32/bin/../lib/gcc/nios2-elf/4.1.2/../../../../nios2-elf/lib\libc.a(lib_a-reallocr.o)
 .debug_frame   0x00001158       0x20 c:/altera/12.0sp2/nios2eds/bin/gnu/h-i686-mingw32/bin/../lib/gcc/nios2-elf/4.1.2/../../../../nios2-elf/lib\libc.a(lib_a-s_isinfd.o)
 .debug_frame   0x00001178       0x2c c:/altera/12.0sp2/nios2eds/bin/gnu/h-i686-mingw32/bin/../lib/gcc/nios2-elf/4.1.2/../../../../nios2-elf/lib\libc.a(lib_a-sbrkr.o)
 .debug_frame   0x000011a4       0x78 c:/altera/12.0sp2/nios2eds/bin/gnu/h-i686-mingw32/bin/../lib/gcc/nios2-elf/4.1.2/../../../../nios2-elf/lib\libc.a(lib_a-stdio.o)
 .debug_frame   0x0000121c       0x20 c:/altera/12.0sp2/nios2eds/bin/gnu/h-i686-mingw32/bin/../lib/gcc/nios2-elf/4.1.2/../../../../nios2-elf/lib\libc.a(lib_a-strcmp.o)
 .debug_frame   0x0000123c       0x20 c:/altera/12.0sp2/nios2eds/bin/gnu/h-i686-mingw32/bin/../lib/gcc/nios2-elf/4.1.2/../../../../nios2-elf/lib\libc.a(lib_a-strlen.o)
 .debug_frame   0x0000125c       0x2c c:/altera/12.0sp2/nios2eds/bin/gnu/h-i686-mingw32/bin/../lib/gcc/nios2-elf/4.1.2/../../../../nios2-elf/lib\libc.a(lib_a-writer.o)
 .debug_frame   0x00001288       0x28 c:/altera/12.0sp2/nios2eds/bin/gnu/h-i686-mingw32/bin/../lib/gcc/nios2-elf/4.1.2/../../../../nios2-elf/lib\libc.a(lib_a-callocr.o)
 .debug_frame   0x000012b0       0x2c c:/altera/12.0sp2/nios2eds/bin/gnu/h-i686-mingw32/bin/../lib/gcc/nios2-elf/4.1.2/../../../../nios2-elf/lib\libc.a(lib_a-closer.o)
 .debug_frame   0x000012dc       0x3c c:/altera/12.0sp2/nios2eds/bin/gnu/h-i686-mingw32/bin/../lib/gcc/nios2-elf/4.1.2/../../../../nios2-elf/lib\libc.a(lib_a-fclose.o)
 .debug_frame   0x00001318       0x2c c:/altera/12.0sp2/nios2eds/bin/gnu/h-i686-mingw32/bin/../lib/gcc/nios2-elf/4.1.2/../../../../nios2-elf/lib\libc.a(lib_a-fstatr.o)
 .debug_frame   0x00001344       0x2c c:/altera/12.0sp2/nios2eds/bin/gnu/h-i686-mingw32/bin/../lib/gcc/nios2-elf/4.1.2/../../../../nios2-elf/lib\libc.a(lib_a-isattyr.o)
 .debug_frame   0x00001370       0x2c c:/altera/12.0sp2/nios2eds/bin/gnu/h-i686-mingw32/bin/../lib/gcc/nios2-elf/4.1.2/../../../../nios2-elf/lib\libc.a(lib_a-lseekr.o)
 .debug_frame   0x0000139c       0x2c c:/altera/12.0sp2/nios2eds/bin/gnu/h-i686-mingw32/bin/../lib/gcc/nios2-elf/4.1.2/../../../../nios2-elf/lib\libc.a(lib_a-readr.o)
 .debug_frame   0x000013c8       0x38 c:/altera/12.0sp2/nios2eds/bin/gnu/h-i686-mingw32/bin/../lib/gcc/nios2-elf/4.1.2\libgcc.a(_udivdi3.o)
 .debug_frame   0x00001400       0x38 c:/altera/12.0sp2/nios2eds/bin/gnu/h-i686-mingw32/bin/../lib/gcc/nios2-elf/4.1.2\libgcc.a(_umoddi3.o)
 .debug_frame   0x00001438       0x2c c:/altera/12.0sp2/nios2eds/bin/gnu/h-i686-mingw32/bin/../lib/gcc/nios2-elf/4.1.2\libgcc.a(_ne_df.o)
 .debug_frame   0x00001464       0x38 c:/altera/12.0sp2/nios2eds/bin/gnu/h-i686-mingw32/bin/../lib/gcc/nios2-elf/4.1.2\libgcc.a(_usi_to_df.o)
 .debug_frame   0x0000149c       0x48 ../microCTest_bsp/\libucosii_bsp.a(alt_close.o)
 .debug_frame   0x000014e4       0x2c ../microCTest_bsp/\libucosii_bsp.a(alt_dev.o)
 .debug_frame   0x00001510       0x48 ../microCTest_bsp/\libucosii_bsp.a(alt_fstat.o)
 .debug_frame   0x00001558       0x48 ../microCTest_bsp/\libucosii_bsp.a(alt_isatty.o)
 .debug_frame   0x000015a0       0x48 ../microCTest_bsp/\libucosii_bsp.a(alt_lseek.o)
 .debug_frame   0x000015e8       0x2c ../microCTest_bsp/\libucosii_bsp.a(alt_main.o)
 .debug_frame   0x00001614       0x48 ../microCTest_bsp/\libucosii_bsp.a(alt_read.o)
 .debug_frame   0x0000165c       0x2c ../microCTest_bsp/\libucosii_bsp.a(alt_release_fd.o)
 .debug_frame   0x00001688       0x2c ../microCTest_bsp/\libucosii_bsp.a(alt_sbrk.o)
 .debug_frame   0x000016b4       0x2c ../microCTest_bsp/\libucosii_bsp.a(alt_usleep.o)
 .debug_frame   0x000016e0       0x48 ../microCTest_bsp/\libucosii_bsp.a(alt_write.o)
 .debug_frame   0x00001728       0x4c ../microCTest_bsp/\libucosii_bsp.a(alt_env_lock.o)
 .debug_frame   0x00001774       0x4c ../microCTest_bsp/\libucosii_bsp.a(alt_malloc_lock.o)
 .debug_frame   0x000017c0      0x3e4 ../microCTest_bsp/\libucosii_bsp.a(os_core.o)
 .debug_frame   0x00001ba4       0x2c ../microCTest_bsp/\libucosii_bsp.a(os_dbg.o)
 .debug_frame   0x00001bd0      0x180 ../microCTest_bsp/\libucosii_bsp.a(os_flag.o)
 .debug_frame   0x00001d50       0xd4 ../microCTest_bsp/\libucosii_bsp.a(os_mem.o)
 .debug_frame   0x00001e24      0x144 ../microCTest_bsp/\libucosii_bsp.a(os_q.o)
 .debug_frame   0x00001f68       0xf0 ../microCTest_bsp/\libucosii_bsp.a(os_sem.o)
 .debug_frame   0x00002058      0x160 ../microCTest_bsp/\libucosii_bsp.a(os_task.o)
 .debug_frame   0x000021b8       0x9c ../microCTest_bsp/\libucosii_bsp.a(os_time.o)
 .debug_frame   0x00002254       0x64 ../microCTest_bsp/\libucosii_bsp.a(alt_sys_init.o)
 .debug_frame   0x000022b8       0xd4 ../microCTest_bsp/\libucosii_bsp.a(altera_avalon_cfi_flash.o)
 .debug_frame   0x0000238c      0x210 ../microCTest_bsp/\libucosii_bsp.a(altera_avalon_cfi_flash_table.o)
 .debug_frame   0x0000259c       0x80 ../microCTest_bsp/\libucosii_bsp.a(altera_avalon_jtag_uart_fd.o)
 .debug_frame   0x0000261c       0x80 ../microCTest_bsp/\libucosii_bsp.a(altera_avalon_jtag_uart_init.o)
 .debug_frame   0x0000269c       0x2c ../microCTest_bsp/\libucosii_bsp.a(altera_avalon_jtag_uart_ioctl.o)
 .debug_frame   0x000026c8       0x2c ../microCTest_bsp/\libucosii_bsp.a(altera_avalon_jtag_uart_read.o)
 .debug_frame   0x000026f4       0x2c ../microCTest_bsp/\libucosii_bsp.a(altera_avalon_jtag_uart_write.o)
 .debug_frame   0x00002720      0x10c ../microCTest_bsp/\libucosii_bsp.a(altera_avalon_lcd_16207.o)
 .debug_frame   0x0000282c       0x2c ../microCTest_bsp/\libucosii_bsp.a(altera_avalon_lcd_16207_fd.o)
 .debug_frame   0x00002858       0x48 ../microCTest_bsp/\libucosii_bsp.a(altera_avalon_timer_sc.o)
 .debug_frame   0x000028a0       0x64 ../microCTest_bsp/\libucosii_bsp.a(altera_avalon_uart_fd.o)
 .debug_frame   0x00002904       0x9c ../microCTest_bsp/\libucosii_bsp.a(altera_avalon_uart_init.o)
 .debug_frame   0x000029a0       0x48 ../microCTest_bsp/\libucosii_bsp.a(altera_avalon_uart_read.o)
 .debug_frame   0x000029e8       0x48 ../microCTest_bsp/\libucosii_bsp.a(altera_avalon_uart_write.o)
 .debug_frame   0x00002a30       0x2c ../microCTest_bsp/\libucosii_bsp.a(alt_alarm_start.o)
 .debug_frame   0x00002a5c       0x2c ../microCTest_bsp/\libucosii_bsp.a(alt_busy_sleep.o)
 .debug_frame   0x00002a88       0x2c ../microCTest_bsp/\libucosii_bsp.a(alt_dcache_flush.o)
 .debug_frame   0x00002ab4       0x48 ../microCTest_bsp/\libucosii_bsp.a(alt_dev_llist_insert.o)
 .debug_frame   0x00002afc       0x2c ../microCTest_bsp/\libucosii_bsp.a(alt_do_ctors.o)
 .debug_frame   0x00002b28       0x2c ../microCTest_bsp/\libucosii_bsp.a(alt_do_dtors.o)
 .debug_frame   0x00002b54       0x48 ../microCTest_bsp/\libucosii_bsp.a(alt_flash_dev.o)
 .debug_frame   0x00002b9c       0x80 ../microCTest_bsp/\libucosii_bsp.a(alt_iic.o)
 .debug_frame   0x00002c1c       0x2c ../microCTest_bsp/\libucosii_bsp.a(alt_iic_isr_register.o)
 .debug_frame   0x00002c48       0x48 ../microCTest_bsp/\libucosii_bsp.a(alt_io_redirect.o)
 .debug_frame   0x00002c90       0x2c ../microCTest_bsp/\libucosii_bsp.a(alt_irq_handler.o)
 .debug_frame   0x00002cbc       0x64 ../microCTest_bsp/\libucosii_bsp.a(alt_open.o)
 .debug_frame   0x00002d20       0x48 ../microCTest_bsp/\libucosii_bsp.a(alt_tick.o)
 .debug_frame   0x00002d68       0x2c ../microCTest_bsp/\libucosii_bsp.a(altera_nios2_irq.o)
 .debug_frame   0x00002d94      0x128 ../microCTest_bsp/\libucosii_bsp.a(os_cpu_c.o)
 .debug_frame   0x00002ebc       0x80 ../microCTest_bsp/\libucosii_bsp.a(altera_avalon_cfi_flash_amd.o)
 .debug_frame   0x00002f3c       0x80 ../microCTest_bsp/\libucosii_bsp.a(altera_avalon_cfi_flash_intel.o)
 .debug_frame   0x00002fbc       0x2c ../microCTest_bsp/\libucosii_bsp.a(alt_find_dev.o)
 .debug_frame   0x00002fe8       0x2c ../microCTest_bsp/\libucosii_bsp.a(alt_find_file.o)
 .debug_frame   0x00003014       0x2c ../microCTest_bsp/\libucosii_bsp.a(alt_get_fd.o)
 .debug_frame   0x00003040       0x48 ../microCTest_bsp/\libucosii_bsp.a(alt_instruction_exception_entry.o)
 .debug_frame   0x00003088       0x20 c:/altera/12.0sp2/nios2eds/bin/gnu/h-i686-mingw32/bin/../lib/gcc/nios2-elf/4.1.2/../../../../nios2-elf/lib\libc.a(lib_a-atexit.o)
 .debug_frame   0x000030a8       0x28 c:/altera/12.0sp2/nios2eds/bin/gnu/h-i686-mingw32/bin/../lib/gcc/nios2-elf/4.1.2/../../../../nios2-elf/lib\libc.a(lib_a-exit.o)
 .debug_frame   0x000030d0       0x20 c:/altera/12.0sp2/nios2eds/bin/gnu/h-i686-mingw32/bin/../lib/gcc/nios2-elf/4.1.2/../../../../nios2-elf/lib\libc.a(lib_a-memcmp.o)
 .debug_frame   0x000030f0       0x34 c:/altera/12.0sp2/nios2eds/bin/gnu/h-i686-mingw32/bin/../lib/gcc/nios2-elf/4.1.2/../../../../nios2-elf/lib\libc.a(lib_a-__atexit.o)
 .debug_frame   0x00003124       0x4c c:/altera/12.0sp2/nios2eds/bin/gnu/h-i686-mingw32/bin/../lib/gcc/nios2-elf/4.1.2/../../../../nios2-elf/lib\libc.a(lib_a-__call_atexit.o)
 .debug_frame   0x00003170       0x48 ../microCTest_bsp/\libucosii_bsp.a(alt_exit.o)

.debug_str      0x00000000     0x2f9e
 *(.debug_str)
 .debug_str     0x00000000       0x12 obj/default/IK.o
 .debug_str     0x00000012       0x1b obj/default/hello_ucosii.o
 .debug_str     0x0000002d       0x12 obj/default/keypad.o
 .debug_str     0x0000003f       0x12 obj/default/pwm.o
 .debug_str     0x00000051       0x12 obj/default/utilities.o
 .debug_str     0x00000063      0x134 c:/altera/12.0sp2/nios2eds/bin/gnu/h-i686-mingw32/bin/../lib/gcc/nios2-elf/4.1.2/../../../../nios2-elf/lib\libm.a(lib_a-s_cos.o)
                                0x17a (size before relaxing)
 .debug_str     0x00000197      0x11b c:/altera/12.0sp2/nios2eds/bin/gnu/h-i686-mingw32/bin/../lib/gcc/nios2-elf/4.1.2/../../../../nios2-elf/lib\libm.a(lib_a-s_round.o)
                                0x1df (size before relaxing)
 .debug_str     0x000002b2       0x38 c:/altera/12.0sp2/nios2eds/bin/gnu/h-i686-mingw32/bin/../lib/gcc/nios2-elf/4.1.2/../../../../nios2-elf/lib\libm.a(lib_a-s_sin.o)
                                0x17a (size before relaxing)
 .debug_str     0x000002ea       0x3a c:/altera/12.0sp2/nios2eds/bin/gnu/h-i686-mingw32/bin/../lib/gcc/nios2-elf/4.1.2/../../../../nios2-elf/lib\libm.a(lib_a-w_atan2.o)
                                0x178 (size before relaxing)
 .debug_str     0x00000324       0xb4 c:/altera/12.0sp2/nios2eds/bin/gnu/h-i686-mingw32/bin/../lib/gcc/nios2-elf/4.1.2/../../../../nios2-elf/lib\libm.a(lib_a-w_sqrt.o)
                                0x1f6 (size before relaxing)
 .debug_str     0x000003d8       0x68 c:/altera/12.0sp2/nios2eds/bin/gnu/h-i686-mingw32/bin/../lib/gcc/nios2-elf/4.1.2/../../../../nios2-elf/lib\libm.a(lib_a-e_atan2.o)
                                0x1e2 (size before relaxing)
 .debug_str     0x00000440       0xaf c:/altera/12.0sp2/nios2eds/bin/gnu/h-i686-mingw32/bin/../lib/gcc/nios2-elf/4.1.2/../../../../nios2-elf/lib\libm.a(lib_a-e_rem_pio2.o)
                                0x229 (size before relaxing)
 .debug_str     0x000004ef       0x48 c:/altera/12.0sp2/nios2eds/bin/gnu/h-i686-mingw32/bin/../lib/gcc/nios2-elf/4.1.2/../../../../nios2-elf/lib\libm.a(lib_a-e_sqrt.o)
                                0x1cc (size before relaxing)
 .debug_str     0x00000537       0x45 c:/altera/12.0sp2/nios2eds/bin/gnu/h-i686-mingw32/bin/../lib/gcc/nios2-elf/4.1.2/../../../../nios2-elf/lib\libm.a(lib_a-k_cos.o)
                                0x1ba (size before relaxing)
 .debug_str     0x0000057c       0x79 c:/altera/12.0sp2/nios2eds/bin/gnu/h-i686-mingw32/bin/../lib/gcc/nios2-elf/4.1.2/../../../../nios2-elf/lib\libm.a(lib_a-k_rem_pio2.o)
                                0x1cb (size before relaxing)
 .debug_str     0x000005f5       0x45 c:/altera/12.0sp2/nios2eds/bin/gnu/h-i686-mingw32/bin/../lib/gcc/nios2-elf/4.1.2/../../../../nios2-elf/lib\libm.a(lib_a-k_sin.o)
                                0x18c (size before relaxing)
 .debug_str     0x0000063a       0x56 c:/altera/12.0sp2/nios2eds/bin/gnu/h-i686-mingw32/bin/../lib/gcc/nios2-elf/4.1.2/../../../../nios2-elf/lib\libm.a(lib_a-s_atan.o)
                                0x1cb (size before relaxing)
 .debug_str     0x00000690       0x3e c:/altera/12.0sp2/nios2eds/bin/gnu/h-i686-mingw32/bin/../lib/gcc/nios2-elf/4.1.2/../../../../nios2-elf/lib\libm.a(lib_a-s_fabs.o)
                                0x1ae (size before relaxing)
 .debug_str     0x000006ce       0x40 c:/altera/12.0sp2/nios2eds/bin/gnu/h-i686-mingw32/bin/../lib/gcc/nios2-elf/4.1.2/../../../../nios2-elf/lib\libm.a(lib_a-s_floor.o)
                                0x1bf (size before relaxing)
 .debug_str     0x0000070e       0x46 c:/altera/12.0sp2/nios2eds/bin/gnu/h-i686-mingw32/bin/../lib/gcc/nios2-elf/4.1.2/../../../../nios2-elf/lib\libm.a(lib_a-s_isnand.o)
                                0x18a (size before relaxing)
 .debug_str     0x00000754       0x3e c:/altera/12.0sp2/nios2eds/bin/gnu/h-i686-mingw32/bin/../lib/gcc/nios2-elf/4.1.2/../../../../nios2-elf/lib\libm.a(lib_a-s_lib_ver.o)
                                0x1d3 (size before relaxing)
 .debug_str     0x00000792       0x46 c:/altera/12.0sp2/nios2eds/bin/gnu/h-i686-mingw32/bin/../lib/gcc/nios2-elf/4.1.2/../../../../nios2-elf/lib\libm.a(lib_a-s_matherr.o)
                                0x1a5 (size before relaxing)
 .debug_str     0x000007d8       0x51 c:/altera/12.0sp2/nios2eds/bin/gnu/h-i686-mingw32/bin/../lib/gcc/nios2-elf/4.1.2/../../../../nios2-elf/lib\libm.a(lib_a-s_scalbn.o)
                                0x1dc (size before relaxing)
 .debug_str     0x00000829       0x48 c:/altera/12.0sp2/nios2eds/bin/gnu/h-i686-mingw32/bin/../lib/gcc/nios2-elf/4.1.2/../../../../nios2-elf/lib\libm.a(lib_a-s_copysign.o)
                                0x1b5 (size before relaxing)
 .debug_str     0x00000871      0x17f c:/altera/12.0sp2/nios2eds/bin/gnu/h-i686-mingw32/bin/../lib/gcc/nios2-elf/4.1.2\libgcc.a(_div_sf.o)
                                0x22b (size before relaxing)
 .debug_str     0x000009f0       0x18 c:/altera/12.0sp2/nios2eds/bin/gnu/h-i686-mingw32/bin/../lib/gcc/nios2-elf/4.1.2\libgcc.a(_si_to_sf.o)
                                0x1de (size before relaxing)
 .debug_str     0x00000a08       0x15 c:/altera/12.0sp2/nios2eds/bin/gnu/h-i686-mingw32/bin/../lib/gcc/nios2-elf/4.1.2\libgcc.a(_sf_to_df.o)
                                0x1f2 (size before relaxing)
 .debug_str     0x00000000      0x1a3 c:/altera/12.0sp2/nios2eds/bin/gnu/h-i686-mingw32/bin/../lib/gcc/nios2-elf/4.1.2\libgcc.a(_thenan_sf.o)
 .debug_str     0x00000a1d       0x8a c:/altera/12.0sp2/nios2eds/bin/gnu/h-i686-mingw32/bin/../lib/gcc/nios2-elf/4.1.2\libgcc.a(_addsub_df.o)
                                0x26f (size before relaxing)
 .debug_str     0x00000aa7       0x40 c:/altera/12.0sp2/nios2eds/bin/gnu/h-i686-mingw32/bin/../lib/gcc/nios2-elf/4.1.2\libgcc.a(_mul_df.o)
                                0x241 (size before relaxing)
 .debug_str     0x00000ae7        0x9 c:/altera/12.0sp2/nios2eds/bin/gnu/h-i686-mingw32/bin/../lib/gcc/nios2-elf/4.1.2\libgcc.a(_div_df.o)
                                0x231 (size before relaxing)
 .debug_str     0x00000af0        0x8 c:/altera/12.0sp2/nios2eds/bin/gnu/h-i686-mingw32/bin/../lib/gcc/nios2-elf/4.1.2\libgcc.a(_eq_df.o)
                                0x1fe (size before relaxing)
 .debug_str     0x00000af8        0x8 c:/altera/12.0sp2/nios2eds/bin/gnu/h-i686-mingw32/bin/../lib/gcc/nios2-elf/4.1.2\libgcc.a(_gt_df.o)
                                0x1fe (size before relaxing)
 .debug_str     0x00000b00        0x8 c:/altera/12.0sp2/nios2eds/bin/gnu/h-i686-mingw32/bin/../lib/gcc/nios2-elf/4.1.2\libgcc.a(_ge_df.o)
                                0x1fe (size before relaxing)
 .debug_str     0x00000b08        0x8 c:/altera/12.0sp2/nios2eds/bin/gnu/h-i686-mingw32/bin/../lib/gcc/nios2-elf/4.1.2\libgcc.a(_lt_df.o)
                                0x1fe (size before relaxing)
 .debug_str     0x00000b10        0xc c:/altera/12.0sp2/nios2eds/bin/gnu/h-i686-mingw32/bin/../lib/gcc/nios2-elf/4.1.2\libgcc.a(_si_to_df.o)
                                0x1de (size before relaxing)
 .debug_str     0x00000b1c        0xa c:/altera/12.0sp2/nios2eds/bin/gnu/h-i686-mingw32/bin/../lib/gcc/nios2-elf/4.1.2\libgcc.a(_df_to_si.o)
                                0x207 (size before relaxing)
 .debug_str     0x00000b26        0xa c:/altera/12.0sp2/nios2eds/bin/gnu/h-i686-mingw32/bin/../lib/gcc/nios2-elf/4.1.2\libgcc.a(_make_df.o)
                                0x1b9 (size before relaxing)
 .debug_str     0x00000b30       0x14 c:/altera/12.0sp2/nios2eds/bin/gnu/h-i686-mingw32/bin/../lib/gcc/nios2-elf/4.1.2\libgcc.a(_df_to_sf.o)
                                0x1fe (size before relaxing)
 .debug_str     0x00000000      0x1a3 c:/altera/12.0sp2/nios2eds/bin/gnu/h-i686-mingw32/bin/../lib/gcc/nios2-elf/4.1.2\libgcc.a(_thenan_df.o)
 .debug_str     0x00000b44       0x93 c:/altera/12.0sp2/nios2eds/bin/gnu/h-i686-mingw32/bin/../lib/gcc/nios2-elf/4.1.2\libgcc.a(lib2-divmod.o)
                                0x1b4 (size before relaxing)
 .debug_str     0x00000bd7       0x62 c:/altera/12.0sp2/nios2eds/bin/gnu/h-i686-mingw32/bin/../lib/gcc/nios2-elf/4.1.2\libgcc.a(_muldi3.o)
                                0x1ac (size before relaxing)
 .debug_str     0x00000c39       0x20 c:/altera/12.0sp2/nios2eds/bin/gnu/h-i686-mingw32/bin/../lib/gcc/nios2-elf/4.1.2\libgcc.a(_clzsi2.o)
                                0x17e (size before relaxing)
 .debug_str     0x00000c59       0x10 c:/altera/12.0sp2/nios2eds/bin/gnu/h-i686-mingw32/bin/../lib/gcc/nios2-elf/4.1.2\libgcc.a(_pack_sf.o)
                                0x200 (size before relaxing)
 .debug_str     0x00000c69        0xb c:/altera/12.0sp2/nios2eds/bin/gnu/h-i686-mingw32/bin/../lib/gcc/nios2-elf/4.1.2\libgcc.a(_unpack_sf.o)
                                0x1e2 (size before relaxing)
 .debug_str     0x00000c74        0xa c:/altera/12.0sp2/nios2eds/bin/gnu/h-i686-mingw32/bin/../lib/gcc/nios2-elf/4.1.2\libgcc.a(_make_sf.o)
                                0x1b9 (size before relaxing)
 .debug_str     0x00000c7e        0x9 c:/altera/12.0sp2/nios2eds/bin/gnu/h-i686-mingw32/bin/../lib/gcc/nios2-elf/4.1.2\libgcc.a(_pack_df.o)
                                0x206 (size before relaxing)
 .debug_str     0x00000c87        0xb c:/altera/12.0sp2/nios2eds/bin/gnu/h-i686-mingw32/bin/../lib/gcc/nios2-elf/4.1.2\libgcc.a(_unpack_df.o)
                                0x1e8 (size before relaxing)
 .debug_str     0x00000c92       0x10 c:/altera/12.0sp2/nios2eds/bin/gnu/h-i686-mingw32/bin/../lib/gcc/nios2-elf/4.1.2\libgcc.a(_fpcmp_parts_df.o)
                                0x1c6 (size before relaxing)
 .debug_str     0x00000000      0x161 c:/altera/12.0sp2/nios2eds/bin/gnu/h-i686-mingw32/bin/../lib/gcc/nios2-elf/4.1.2\libgcc.a(_clz.o)
 .debug_str     0x00000ca2      0x426 c:/altera/12.0sp2/nios2eds/bin/gnu/h-i686-mingw32/bin/../lib/gcc/nios2-elf/4.1.2/../../../../nios2-elf/lib\libc.a(lib_a-errno.o)
                                0x502 (size before relaxing)
 .debug_str     0x000010c8       0xe4 c:/altera/12.0sp2/nios2eds/bin/gnu/h-i686-mingw32/bin/../lib/gcc/nios2-elf/4.1.2/../../../../nios2-elf/lib\libc.a(lib_a-impure.o)
                                0x51a (size before relaxing)
 .debug_str     0x000011ac       0xf5 c:/altera/12.0sp2/nios2eds/bin/gnu/h-i686-mingw32/bin/../lib/gcc/nios2-elf/4.1.2/../../../../nios2-elf/lib\libc.a(lib_a-memcpy.o)
                                0x128 (size before relaxing)
 .debug_str     0x000012a1       0x56 c:/altera/12.0sp2/nios2eds/bin/gnu/h-i686-mingw32/bin/../lib/gcc/nios2-elf/4.1.2/../../../../nios2-elf/lib\libc.a(lib_a-memset.o)
                                0x17e (size before relaxing)
 .debug_str     0x000012f7       0xde c:/altera/12.0sp2/nios2eds/bin/gnu/h-i686-mingw32/bin/../lib/gcc/nios2-elf/4.1.2/../../../../nios2-elf/lib\libc.a(lib_a-printf.o)
                                0x523 (size before relaxing)
 .debug_str     0x000013d5       0x4e c:/altera/12.0sp2/nios2eds/bin/gnu/h-i686-mingw32/bin/../lib/gcc/nios2-elf/4.1.2/../../../../nios2-elf/lib\libc.a(lib_a-sprintf.o)
                                0x52b (size before relaxing)
 .debug_str     0x00001423      0x1aa c:/altera/12.0sp2/nios2eds/bin/gnu/h-i686-mingw32/bin/../lib/gcc/nios2-elf/4.1.2/../../../../nios2-elf/lib\libc.a(lib_a-vfprintf.o)
                                0x6f8 (size before relaxing)
 .debug_str     0x000015cd       0x46 c:/altera/12.0sp2/nios2eds/bin/gnu/h-i686-mingw32/bin/../lib/gcc/nios2-elf/4.1.2/../../../../nios2-elf/lib\libc.a(lib_a-wsetup.o)
                                0x50c (size before relaxing)
 .debug_str     0x00001613      0x188 c:/altera/12.0sp2/nios2eds/bin/gnu/h-i686-mingw32/bin/../lib/gcc/nios2-elf/4.1.2/../../../../nios2-elf/lib\libc.a(lib_a-dtoa.o)
                                0x601 (size before relaxing)
 .debug_str     0x0000179b       0x52 c:/altera/12.0sp2/nios2eds/bin/gnu/h-i686-mingw32/bin/../lib/gcc/nios2-elf/4.1.2/../../../../nios2-elf/lib\libc.a(lib_a-fflush.o)
                                0x532 (size before relaxing)
 .debug_str     0x000017ed      0x102 c:/altera/12.0sp2/nios2eds/bin/gnu/h-i686-mingw32/bin/../lib/gcc/nios2-elf/4.1.2/../../../../nios2-elf/lib\libc.a(lib_a-findfp.o)
                                0x5f4 (size before relaxing)
 .debug_str     0x000018ef      0x15b c:/altera/12.0sp2/nios2eds/bin/gnu/h-i686-mingw32/bin/../lib/gcc/nios2-elf/4.1.2/../../../../nios2-elf/lib\libc.a(lib_a-freer.o)
                                0x643 (size before relaxing)
 .debug_str     0x00001a4a       0x66 c:/altera/12.0sp2/nios2eds/bin/gnu/h-i686-mingw32/bin/../lib/gcc/nios2-elf/4.1.2/../../../../nios2-elf/lib\libc.a(lib_a-fvwrite.o)
                                0x563 (size before relaxing)
 .debug_str     0x00001ab0       0x5e c:/altera/12.0sp2/nios2eds/bin/gnu/h-i686-mingw32/bin/../lib/gcc/nios2-elf/4.1.2/../../../../nios2-elf/lib\libc.a(lib_a-fwalk.o)
                                0x535 (size before relaxing)
 .debug_str     0x00001b0e      0x225 c:/altera/12.0sp2/nios2eds/bin/gnu/h-i686-mingw32/bin/../lib/gcc/nios2-elf/4.1.2/../../../../nios2-elf/lib\libc.a(lib_a-locale.o)
                                0x6a9 (size before relaxing)
 .debug_str     0x00001d33      0x123 c:/altera/12.0sp2/nios2eds/bin/gnu/h-i686-mingw32/bin/../lib/gcc/nios2-elf/4.1.2/../../../../nios2-elf/lib\libc.a(lib_a-makebuf.o)
                                0x606 (size before relaxing)
 .debug_str     0x00001e56       0xef c:/altera/12.0sp2/nios2eds/bin/gnu/h-i686-mingw32/bin/../lib/gcc/nios2-elf/4.1.2/../../../../nios2-elf/lib\libc.a(lib_a-mallocr.o)
                                0x6f1 (size before relaxing)
 .debug_str     0x00001f45       0x50 c:/altera/12.0sp2/nios2eds/bin/gnu/h-i686-mingw32/bin/../lib/gcc/nios2-elf/4.1.2/../../../../nios2-elf/lib\libc.a(lib_a-memchr.o)
                                0x18b (size before relaxing)
 .debug_str     0x00001f95       0x4d c:/altera/12.0sp2/nios2eds/bin/gnu/h-i686-mingw32/bin/../lib/gcc/nios2-elf/4.1.2/../../../../nios2-elf/lib\libc.a(lib_a-memmove.o)
                                0x19d (size before relaxing)
 .debug_str     0x00001fe2       0xf8 c:/altera/12.0sp2/nios2eds/bin/gnu/h-i686-mingw32/bin/../lib/gcc/nios2-elf/4.1.2/../../../../nios2-elf/lib\libc.a(lib_a-mprec.o)
                                0x60e (size before relaxing)
 .debug_str     0x000020da       0x59 c:/altera/12.0sp2/nios2eds/bin/gnu/h-i686-mingw32/bin/../lib/gcc/nios2-elf/4.1.2/../../../../nios2-elf/lib\libc.a(lib_a-reallocr.o)
                                0x5c3 (size before relaxing)
 .debug_str     0x00002133       0x46 c:/altera/12.0sp2/nios2eds/bin/gnu/h-i686-mingw32/bin/../lib/gcc/nios2-elf/4.1.2/../../../../nios2-elf/lib\libc.a(lib_a-s_isinfd.o)
                                0x18a (size before relaxing)
 .debug_str     0x00002179       0x50 c:/altera/12.0sp2/nios2eds/bin/gnu/h-i686-mingw32/bin/../lib/gcc/nios2-elf/4.1.2/../../../../nios2-elf/lib\libc.a(lib_a-sbrkr.o)
                                0x50b (size before relaxing)
 .debug_str     0x000021c9       0x62 c:/altera/12.0sp2/nios2eds/bin/gnu/h-i686-mingw32/bin/../lib/gcc/nios2-elf/4.1.2/../../../../nios2-elf/lib\libc.a(lib_a-stdio.o)
                                0x531 (size before relaxing)
 .debug_str     0x0000222b       0x42 c:/altera/12.0sp2/nios2eds/bin/gnu/h-i686-mingw32/bin/../lib/gcc/nios2-elf/4.1.2/../../../../nios2-elf/lib\libc.a(lib_a-strcmp.o)
                                0x163 (size before relaxing)
 .debug_str     0x0000226d       0x42 c:/altera/12.0sp2/nios2eds/bin/gnu/h-i686-mingw32/bin/../lib/gcc/nios2-elf/4.1.2/../../../../nios2-elf/lib\libc.a(lib_a-strlen.o)
                                0x17d (size before relaxing)
 .debug_str     0x000022af       0x4c c:/altera/12.0sp2/nios2eds/bin/gnu/h-i686-mingw32/bin/../lib/gcc/nios2-elf/4.1.2/../../../../nios2-elf/lib\libc.a(lib_a-writer.o)
                                0x50e (size before relaxing)
 .debug_str     0x000022fb       0x19 c:/altera/12.0sp2/nios2eds/bin/gnu/h-i686-mingw32/bin/../lib/gcc/nios2-elf/4.1.2/../../../../nios2-elf/lib\libc.a(lib_a-callocr.o)
                                0x542 (size before relaxing)
 .debug_str     0x00002314       0x43 c:/altera/12.0sp2/nios2eds/bin/gnu/h-i686-mingw32/bin/../lib/gcc/nios2-elf/4.1.2/../../../../nios2-elf/lib\libc.a(lib_a-closer.o)
                                0x4fe (size before relaxing)
 .debug_str     0x00002357       0x4b c:/altera/12.0sp2/nios2eds/bin/gnu/h-i686-mingw32/bin/../lib/gcc/nios2-elf/4.1.2/../../../../nios2-elf/lib\libc.a(lib_a-fclose.o)
                                0x516 (size before relaxing)
 .debug_str     0x000023a2       0x49 c:/altera/12.0sp2/nios2eds/bin/gnu/h-i686-mingw32/bin/../lib/gcc/nios2-elf/4.1.2/../../../../nios2-elf/lib\libc.a(lib_a-fstatr.o)
                                0x5f1 (size before relaxing)
 .debug_str     0x000023eb       0x3d c:/altera/12.0sp2/nios2eds/bin/gnu/h-i686-mingw32/bin/../lib/gcc/nios2-elf/4.1.2/../../../../nios2-elf/lib\libc.a(lib_a-int_errno.o)
                                0x163 (size before relaxing)
 .debug_str     0x00002428       0x45 c:/altera/12.0sp2/nios2eds/bin/gnu/h-i686-mingw32/bin/../lib/gcc/nios2-elf/4.1.2/../../../../nios2-elf/lib\libc.a(lib_a-isattyr.o)
                                0x500 (size before relaxing)
 .debug_str     0x0000246d       0x43 c:/altera/12.0sp2/nios2eds/bin/gnu/h-i686-mingw32/bin/../lib/gcc/nios2-elf/4.1.2/../../../../nios2-elf/lib\libc.a(lib_a-lseekr.o)
                                0x50c (size before relaxing)
 .debug_str     0x000024b0       0x41 c:/altera/12.0sp2/nios2eds/bin/gnu/h-i686-mingw32/bin/../lib/gcc/nios2-elf/4.1.2/../../../../nios2-elf/lib\libc.a(lib_a-readr.o)
                                0x50c (size before relaxing)
 .debug_str     0x000024f1       0x35 c:/altera/12.0sp2/nios2eds/bin/gnu/h-i686-mingw32/bin/../lib/gcc/nios2-elf/4.1.2\libgcc.a(_udivdi3.o)
                                0x1f7 (size before relaxing)
 .debug_str     0x00002526        0xa c:/altera/12.0sp2/nios2eds/bin/gnu/h-i686-mingw32/bin/../lib/gcc/nios2-elf/4.1.2\libgcc.a(_umoddi3.o)
                                0x1f7 (size before relaxing)
 .debug_str     0x00002530        0x8 c:/altera/12.0sp2/nios2eds/bin/gnu/h-i686-mingw32/bin/../lib/gcc/nios2-elf/4.1.2\libgcc.a(_ne_df.o)
                                0x1fe (size before relaxing)
 .debug_str     0x00002538       0x14 c:/altera/12.0sp2/nios2eds/bin/gnu/h-i686-mingw32/bin/../lib/gcc/nios2-elf/4.1.2\libgcc.a(_usi_to_df.o)
                                0x1da (size before relaxing)
 .debug_str     0x0000254c       0x12 ../microCTest_bsp/\libucosii_bsp.a(alt_close.o)
 .debug_str     0x0000255e       0x12 ../microCTest_bsp/\libucosii_bsp.a(alt_dev.o)
 .debug_str     0x00002570       0x12 ../microCTest_bsp/\libucosii_bsp.a(alt_errno.o)
 .debug_str     0x00002582       0x12 ../microCTest_bsp/\libucosii_bsp.a(alt_fstat.o)
 .debug_str     0x00002594       0x12 ../microCTest_bsp/\libucosii_bsp.a(alt_isatty.o)
 .debug_str     0x000025a6       0x12 ../microCTest_bsp/\libucosii_bsp.a(alt_lseek.o)
 .debug_str     0x000025b8       0x12 ../microCTest_bsp/\libucosii_bsp.a(alt_main.o)
 .debug_str     0x000025ca       0x12 ../microCTest_bsp/\libucosii_bsp.a(alt_read.o)
 .debug_str     0x000025dc       0x12 ../microCTest_bsp/\libucosii_bsp.a(alt_release_fd.o)
 .debug_str     0x000025ee       0x1a ../microCTest_bsp/\libucosii_bsp.a(alt_sbrk.o)
 .debug_str     0x00002608       0x12 ../microCTest_bsp/\libucosii_bsp.a(alt_usleep.o)
 .debug_str     0x0000261a       0x12 ../microCTest_bsp/\libucosii_bsp.a(alt_write.o)
 .debug_str     0x0000262c       0x36 ../microCTest_bsp/\libucosii_bsp.a(alt_env_lock.o)
 .debug_str     0x00002662       0x36 ../microCTest_bsp/\libucosii_bsp.a(alt_malloc_lock.o)
 .debug_str     0x00002698       0x46 ../microCTest_bsp/\libucosii_bsp.a(os_core.o)
 .debug_str     0x000026de       0x2b ../microCTest_bsp/\libucosii_bsp.a(os_dbg.o)
 .debug_str     0x00002709       0x4e ../microCTest_bsp/\libucosii_bsp.a(os_flag.o)
 .debug_str     0x00002757       0x2c ../microCTest_bsp/\libucosii_bsp.a(os_mem.o)
 .debug_str     0x00002783       0x36 ../microCTest_bsp/\libucosii_bsp.a(os_q.o)
 .debug_str     0x000027b9       0x36 ../microCTest_bsp/\libucosii_bsp.a(os_sem.o)
 .debug_str     0x000027ef       0x23 ../microCTest_bsp/\libucosii_bsp.a(os_task.o)
 .debug_str     0x00002812       0x1f ../microCTest_bsp/\libucosii_bsp.a(os_time.o)
 .debug_str     0x00002831       0x54 ../microCTest_bsp/\libucosii_bsp.a(alt_sys_init.o)
 .debug_str     0x00002885       0x82 ../microCTest_bsp/\libucosii_bsp.a(altera_avalon_cfi_flash.o)
 .debug_str     0x00002907       0x6d ../microCTest_bsp/\libucosii_bsp.a(altera_avalon_cfi_flash_table.o)
 .debug_str     0x00002974       0x12 ../microCTest_bsp/\libucosii_bsp.a(altera_avalon_jtag_uart_fd.o)
 .debug_str     0x00002986       0x1a ../microCTest_bsp/\libucosii_bsp.a(altera_avalon_jtag_uart_init.o)
 .debug_str     0x000029a0       0x12 ../microCTest_bsp/\libucosii_bsp.a(altera_avalon_jtag_uart_ioctl.o)
 .debug_str     0x000029b2       0x22 ../microCTest_bsp/\libucosii_bsp.a(altera_avalon_jtag_uart_read.o)
 .debug_str     0x000029d4       0x22 ../microCTest_bsp/\libucosii_bsp.a(altera_avalon_jtag_uart_write.o)
 .debug_str     0x000029f6       0x25 ../microCTest_bsp/\libucosii_bsp.a(altera_avalon_lcd_16207.o)
 .debug_str     0x00002a1b       0x12 ../microCTest_bsp/\libucosii_bsp.a(altera_avalon_lcd_16207_fd.o)
 .debug_str     0x00002a2d       0x12 ../microCTest_bsp/\libucosii_bsp.a(altera_avalon_timer_sc.o)
 .debug_str     0x00002a3f       0x12 ../microCTest_bsp/\libucosii_bsp.a(altera_avalon_timer_vars.o)
 .debug_str     0x00002a51       0x12 ../microCTest_bsp/\libucosii_bsp.a(altera_avalon_uart_fd.o)
 .debug_str     0x00002a63       0x1f ../microCTest_bsp/\libucosii_bsp.a(altera_avalon_uart_init.o)
 .debug_str     0x00002a82       0x1a ../microCTest_bsp/\libucosii_bsp.a(altera_avalon_uart_read.o)
 .debug_str     0x00002a9c       0x1a ../microCTest_bsp/\libucosii_bsp.a(altera_avalon_uart_write.o)
 .debug_str     0x00002ab6       0x23 ../microCTest_bsp/\libucosii_bsp.a(alt_alarm_start.o)
 .debug_str     0x00002ad9       0x12 ../microCTest_bsp/\libucosii_bsp.a(alt_busy_sleep.o)
 .debug_str     0x00002aeb       0x12 ../microCTest_bsp/\libucosii_bsp.a(alt_dcache_flush.o)
 .debug_str     0x00002afd       0x12 ../microCTest_bsp/\libucosii_bsp.a(alt_dev_llist_insert.o)
 .debug_str     0x00002b0f       0x2d ../microCTest_bsp/\libucosii_bsp.a(alt_flash_dev.o)
 .debug_str     0x00002b3c       0x18 ../microCTest_bsp/\libucosii_bsp.a(alt_iic.o)
 .debug_str     0x00002b54       0x1a ../microCTest_bsp/\libucosii_bsp.a(alt_iic_isr_register.o)
 .debug_str     0x00002b6e       0x12 ../microCTest_bsp/\libucosii_bsp.a(alt_io_redirect.o)
 .debug_str     0x00002b80       0x12 ../microCTest_bsp/\libucosii_bsp.a(alt_irq_handler.o)
 .debug_str     0x00002b92       0x12 ../microCTest_bsp/\libucosii_bsp.a(alt_open.o)
 .debug_str     0x00002ba4       0x1a ../microCTest_bsp/\libucosii_bsp.a(alt_tick.o)
 .debug_str     0x00002bbe       0x12 ../microCTest_bsp/\libucosii_bsp.a(altera_nios2_irq.o)
 .debug_str     0x00002bd0       0x20 ../microCTest_bsp/\libucosii_bsp.a(os_cpu_c.o)
 .debug_str     0x00002bf0       0x76 ../microCTest_bsp/\libucosii_bsp.a(altera_avalon_cfi_flash_amd.o)
 .debug_str     0x00002c66       0x7d ../microCTest_bsp/\libucosii_bsp.a(altera_avalon_cfi_flash_intel.o)
 .debug_str     0x00002ce3       0x12 ../microCTest_bsp/\libucosii_bsp.a(alt_find_dev.o)
 .debug_str     0x00002cf5       0x12 ../microCTest_bsp/\libucosii_bsp.a(alt_find_file.o)
 .debug_str     0x00002d07       0x12 ../microCTest_bsp/\libucosii_bsp.a(alt_get_fd.o)
 .debug_str     0x00002d19       0x3b c:/altera/12.0sp2/nios2eds/bin/gnu/h-i686-mingw32/bin/../lib/gcc/nios2-elf/4.1.2/../../../../nios2-elf/lib\libc.a(lib_a-atexit.o)
                                0x1bf (size before relaxing)
 .debug_str     0x00002d54       0xe2 c:/altera/12.0sp2/nios2eds/bin/gnu/h-i686-mingw32/bin/../lib/gcc/nios2-elf/4.1.2/../../../../nios2-elf/lib\libc.a(lib_a-ctype_.o)
                                0x105 (size before relaxing)
 .debug_str     0x00002e36       0x3e c:/altera/12.0sp2/nios2eds/bin/gnu/h-i686-mingw32/bin/../lib/gcc/nios2-elf/4.1.2/../../../../nios2-elf/lib\libc.a(lib_a-exit.o)
                                0x50c (size before relaxing)
 .debug_str     0x00002e74       0x42 c:/altera/12.0sp2/nios2eds/bin/gnu/h-i686-mingw32/bin/../lib/gcc/nios2-elf/4.1.2/../../../../nios2-elf/lib\libc.a(lib_a-memcmp.o)
                                0x16a (size before relaxing)
 .debug_str     0x00002eb6       0x51 c:/altera/12.0sp2/nios2eds/bin/gnu/h-i686-mingw32/bin/../lib/gcc/nios2-elf/4.1.2/../../../../nios2-elf/lib\libc.a(lib_a-__atexit.o)
                                0x524 (size before relaxing)
 .debug_str     0x00002f07       0x7b c:/altera/12.0sp2/nios2eds/bin/gnu/h-i686-mingw32/bin/../lib/gcc/nios2-elf/4.1.2/../../../../nios2-elf/lib\libc.a(lib_a-__call_atexit.o)
                                0x54e (size before relaxing)
 .debug_str     0x00002f82       0x1c ../microCTest_bsp/\libucosii_bsp.a(alt_exit.o)

.debug_loc      0x00000000    0x103ef
 *(.debug_loc)
 .debug_loc     0x00000000       0x2c obj/default/IK.o
 .debug_loc     0x0000002c       0xae obj/default/hello_ucosii.o
 .debug_loc     0x000000da       0xd7 obj/default/keypad.o
 .debug_loc     0x000001b1       0x81 obj/default/lcd.o
 .debug_loc     0x00000232       0x81 obj/default/pwm.o
 .debug_loc     0x000002b3       0x56 obj/default/utilities.o
 .debug_loc     0x00000309       0x90 c:/altera/12.0sp2/nios2eds/bin/gnu/h-i686-mingw32/bin/../lib/gcc/nios2-elf/4.1.2/../../../../nios2-elf/lib\libm.a(lib_a-s_cos.o)
 .debug_loc     0x00000399      0x205 c:/altera/12.0sp2/nios2eds/bin/gnu/h-i686-mingw32/bin/../lib/gcc/nios2-elf/4.1.2/../../../../nios2-elf/lib\libm.a(lib_a-s_round.o)
 .debug_loc     0x0000059e       0x90 c:/altera/12.0sp2/nios2eds/bin/gnu/h-i686-mingw32/bin/../lib/gcc/nios2-elf/4.1.2/../../../../nios2-elf/lib\libm.a(lib_a-s_sin.o)
 .debug_loc     0x0000062e       0x30 c:/altera/12.0sp2/nios2eds/bin/gnu/h-i686-mingw32/bin/../lib/gcc/nios2-elf/4.1.2/../../../../nios2-elf/lib\libm.a(lib_a-w_atan2.o)
 .debug_loc     0x0000065e       0x9f c:/altera/12.0sp2/nios2eds/bin/gnu/h-i686-mingw32/bin/../lib/gcc/nios2-elf/4.1.2/../../../../nios2-elf/lib\libm.a(lib_a-w_sqrt.o)
 .debug_loc     0x000006fd      0x453 c:/altera/12.0sp2/nios2eds/bin/gnu/h-i686-mingw32/bin/../lib/gcc/nios2-elf/4.1.2/../../../../nios2-elf/lib\libm.a(lib_a-e_atan2.o)
 .debug_loc     0x00000b50      0x33c c:/altera/12.0sp2/nios2eds/bin/gnu/h-i686-mingw32/bin/../lib/gcc/nios2-elf/4.1.2/../../../../nios2-elf/lib\libm.a(lib_a-e_rem_pio2.o)
 .debug_loc     0x00000e8c      0x41e c:/altera/12.0sp2/nios2eds/bin/gnu/h-i686-mingw32/bin/../lib/gcc/nios2-elf/4.1.2/../../../../nios2-elf/lib\libm.a(lib_a-e_sqrt.o)
 .debug_loc     0x000012aa      0x18c c:/altera/12.0sp2/nios2eds/bin/gnu/h-i686-mingw32/bin/../lib/gcc/nios2-elf/4.1.2/../../../../nios2-elf/lib\libm.a(lib_a-k_cos.o)
 .debug_loc     0x00001436      0xc76 c:/altera/12.0sp2/nios2eds/bin/gnu/h-i686-mingw32/bin/../lib/gcc/nios2-elf/4.1.2/../../../../nios2-elf/lib\libm.a(lib_a-k_rem_pio2.o)
 .debug_loc     0x000020ac       0xbe c:/altera/12.0sp2/nios2eds/bin/gnu/h-i686-mingw32/bin/../lib/gcc/nios2-elf/4.1.2/../../../../nios2-elf/lib\libm.a(lib_a-k_sin.o)
 .debug_loc     0x0000216a      0x1ae c:/altera/12.0sp2/nios2eds/bin/gnu/h-i686-mingw32/bin/../lib/gcc/nios2-elf/4.1.2/../../../../nios2-elf/lib\libm.a(lib_a-s_atan.o)
 .debug_loc     0x00002318      0x221 c:/altera/12.0sp2/nios2eds/bin/gnu/h-i686-mingw32/bin/../lib/gcc/nios2-elf/4.1.2/../../../../nios2-elf/lib\libm.a(lib_a-s_floor.o)
 .debug_loc     0x00002539       0x18 c:/altera/12.0sp2/nios2eds/bin/gnu/h-i686-mingw32/bin/../lib/gcc/nios2-elf/4.1.2/../../../../nios2-elf/lib\libm.a(lib_a-s_isnand.o)
 .debug_loc     0x00002551      0x228 c:/altera/12.0sp2/nios2eds/bin/gnu/h-i686-mingw32/bin/../lib/gcc/nios2-elf/4.1.2/../../../../nios2-elf/lib\libm.a(lib_a-s_scalbn.o)
 .debug_loc     0x00002779      0x11d c:/altera/12.0sp2/nios2eds/bin/gnu/h-i686-mingw32/bin/../lib/gcc/nios2-elf/4.1.2\libgcc.a(_div_sf.o)
 .debug_loc     0x00002896       0x8f c:/altera/12.0sp2/nios2eds/bin/gnu/h-i686-mingw32/bin/../lib/gcc/nios2-elf/4.1.2\libgcc.a(_si_to_sf.o)
 .debug_loc     0x00002925       0x32 c:/altera/12.0sp2/nios2eds/bin/gnu/h-i686-mingw32/bin/../lib/gcc/nios2-elf/4.1.2\libgcc.a(_sf_to_df.o)
 .debug_loc     0x00002957      0x47a c:/altera/12.0sp2/nios2eds/bin/gnu/h-i686-mingw32/bin/../lib/gcc/nios2-elf/4.1.2\libgcc.a(_addsub_df.o)
 .debug_loc     0x00002dd1      0x3b4 c:/altera/12.0sp2/nios2eds/bin/gnu/h-i686-mingw32/bin/../lib/gcc/nios2-elf/4.1.2\libgcc.a(_mul_df.o)
 .debug_loc     0x00003185      0x1df c:/altera/12.0sp2/nios2eds/bin/gnu/h-i686-mingw32/bin/../lib/gcc/nios2-elf/4.1.2\libgcc.a(_div_df.o)
 .debug_loc     0x00003364       0x70 c:/altera/12.0sp2/nios2eds/bin/gnu/h-i686-mingw32/bin/../lib/gcc/nios2-elf/4.1.2\libgcc.a(_eq_df.o)
 .debug_loc     0x000033d4       0x70 c:/altera/12.0sp2/nios2eds/bin/gnu/h-i686-mingw32/bin/../lib/gcc/nios2-elf/4.1.2\libgcc.a(_gt_df.o)
 .debug_loc     0x00003444       0x70 c:/altera/12.0sp2/nios2eds/bin/gnu/h-i686-mingw32/bin/../lib/gcc/nios2-elf/4.1.2\libgcc.a(_ge_df.o)
 .debug_loc     0x000034b4       0x70 c:/altera/12.0sp2/nios2eds/bin/gnu/h-i686-mingw32/bin/../lib/gcc/nios2-elf/4.1.2\libgcc.a(_lt_df.o)
 .debug_loc     0x00003524       0x9a c:/altera/12.0sp2/nios2eds/bin/gnu/h-i686-mingw32/bin/../lib/gcc/nios2-elf/4.1.2\libgcc.a(_si_to_df.o)
 .debug_loc     0x000035be       0x8b c:/altera/12.0sp2/nios2eds/bin/gnu/h-i686-mingw32/bin/../lib/gcc/nios2-elf/4.1.2\libgcc.a(_df_to_si.o)
 .debug_loc     0x00003649       0x58 c:/altera/12.0sp2/nios2eds/bin/gnu/h-i686-mingw32/bin/../lib/gcc/nios2-elf/4.1.2\libgcc.a(_make_df.o)
 .debug_loc     0x000036a1       0x6a c:/altera/12.0sp2/nios2eds/bin/gnu/h-i686-mingw32/bin/../lib/gcc/nios2-elf/4.1.2\libgcc.a(_df_to_sf.o)
 .debug_loc     0x0000370b      0x1d2 c:/altera/12.0sp2/nios2eds/bin/gnu/h-i686-mingw32/bin/../lib/gcc/nios2-elf/4.1.2\libgcc.a(lib2-divmod.o)
 .debug_loc     0x000038dd       0xc4 c:/altera/12.0sp2/nios2eds/bin/gnu/h-i686-mingw32/bin/../lib/gcc/nios2-elf/4.1.2\libgcc.a(_muldi3.o)
 .debug_loc     0x000039a1       0x1e c:/altera/12.0sp2/nios2eds/bin/gnu/h-i686-mingw32/bin/../lib/gcc/nios2-elf/4.1.2\libgcc.a(_clzsi2.o)
 .debug_loc     0x000039bf       0xf9 c:/altera/12.0sp2/nios2eds/bin/gnu/h-i686-mingw32/bin/../lib/gcc/nios2-elf/4.1.2\libgcc.a(_pack_sf.o)
 .debug_loc     0x00003ab8       0x31 c:/altera/12.0sp2/nios2eds/bin/gnu/h-i686-mingw32/bin/../lib/gcc/nios2-elf/4.1.2\libgcc.a(_unpack_sf.o)
 .debug_loc     0x00003ae9       0x6b c:/altera/12.0sp2/nios2eds/bin/gnu/h-i686-mingw32/bin/../lib/gcc/nios2-elf/4.1.2\libgcc.a(_make_sf.o)
 .debug_loc     0x00003b54      0x184 c:/altera/12.0sp2/nios2eds/bin/gnu/h-i686-mingw32/bin/../lib/gcc/nios2-elf/4.1.2\libgcc.a(_pack_df.o)
 .debug_loc     0x00003cd8       0xe5 c:/altera/12.0sp2/nios2eds/bin/gnu/h-i686-mingw32/bin/../lib/gcc/nios2-elf/4.1.2\libgcc.a(_unpack_df.o)
 .debug_loc     0x00003dbd       0xca c:/altera/12.0sp2/nios2eds/bin/gnu/h-i686-mingw32/bin/../lib/gcc/nios2-elf/4.1.2/../../../../nios2-elf/lib\libc.a(lib_a-memcpy.o)
 .debug_loc     0x00003e87       0xa1 c:/altera/12.0sp2/nios2eds/bin/gnu/h-i686-mingw32/bin/../lib/gcc/nios2-elf/4.1.2/../../../../nios2-elf/lib\libc.a(lib_a-memset.o)
 .debug_loc     0x00003f28       0xcb c:/altera/12.0sp2/nios2eds/bin/gnu/h-i686-mingw32/bin/../lib/gcc/nios2-elf/4.1.2/../../../../nios2-elf/lib\libc.a(lib_a-printf.o)
 .debug_loc     0x00003ff3       0xc0 c:/altera/12.0sp2/nios2eds/bin/gnu/h-i686-mingw32/bin/../lib/gcc/nios2-elf/4.1.2/../../../../nios2-elf/lib\libc.a(lib_a-sprintf.o)
 .debug_loc     0x000040b3     0x1e0d c:/altera/12.0sp2/nios2eds/bin/gnu/h-i686-mingw32/bin/../lib/gcc/nios2-elf/4.1.2/../../../../nios2-elf/lib\libc.a(lib_a-vfprintf.o)
 .debug_loc     0x00005ec0       0x7c c:/altera/12.0sp2/nios2eds/bin/gnu/h-i686-mingw32/bin/../lib/gcc/nios2-elf/4.1.2/../../../../nios2-elf/lib\libc.a(lib_a-wsetup.o)
 .debug_loc     0x00005f3c     0x1dfa c:/altera/12.0sp2/nios2eds/bin/gnu/h-i686-mingw32/bin/../lib/gcc/nios2-elf/4.1.2/../../../../nios2-elf/lib\libc.a(lib_a-dtoa.o)
 .debug_loc     0x00007d36      0x1f6 c:/altera/12.0sp2/nios2eds/bin/gnu/h-i686-mingw32/bin/../lib/gcc/nios2-elf/4.1.2/../../../../nios2-elf/lib\libc.a(lib_a-fflush.o)
 .debug_loc     0x00007f2c      0x19f c:/altera/12.0sp2/nios2eds/bin/gnu/h-i686-mingw32/bin/../lib/gcc/nios2-elf/4.1.2/../../../../nios2-elf/lib\libc.a(lib_a-findfp.o)
 .debug_loc     0x000080cb      0x4a7 c:/altera/12.0sp2/nios2eds/bin/gnu/h-i686-mingw32/bin/../lib/gcc/nios2-elf/4.1.2/../../../../nios2-elf/lib\libc.a(lib_a-freer.o)
 .debug_loc     0x00008572      0x4e4 c:/altera/12.0sp2/nios2eds/bin/gnu/h-i686-mingw32/bin/../lib/gcc/nios2-elf/4.1.2/../../../../nios2-elf/lib\libc.a(lib_a-fvwrite.o)
 .debug_loc     0x00008a56      0x1d2 c:/altera/12.0sp2/nios2eds/bin/gnu/h-i686-mingw32/bin/../lib/gcc/nios2-elf/4.1.2/../../../../nios2-elf/lib\libc.a(lib_a-fwalk.o)
 .debug_loc     0x00008c28       0xe1 c:/altera/12.0sp2/nios2eds/bin/gnu/h-i686-mingw32/bin/../lib/gcc/nios2-elf/4.1.2/../../../../nios2-elf/lib\libc.a(lib_a-locale.o)
 .debug_loc     0x00008d09      0x11c c:/altera/12.0sp2/nios2eds/bin/gnu/h-i686-mingw32/bin/../lib/gcc/nios2-elf/4.1.2/../../../../nios2-elf/lib\libc.a(lib_a-makebuf.o)
 .debug_loc     0x00008e25      0xaeb c:/altera/12.0sp2/nios2eds/bin/gnu/h-i686-mingw32/bin/../lib/gcc/nios2-elf/4.1.2/../../../../nios2-elf/lib\libc.a(lib_a-mallocr.o)
 .debug_loc     0x00009910      0x106 c:/altera/12.0sp2/nios2eds/bin/gnu/h-i686-mingw32/bin/../lib/gcc/nios2-elf/4.1.2/../../../../nios2-elf/lib\libc.a(lib_a-memchr.o)
 .debug_loc     0x00009a16      0x117 c:/altera/12.0sp2/nios2eds/bin/gnu/h-i686-mingw32/bin/../lib/gcc/nios2-elf/4.1.2/../../../../nios2-elf/lib\libc.a(lib_a-memmove.o)
 .debug_loc     0x00009b2d     0x14d6 c:/altera/12.0sp2/nios2eds/bin/gnu/h-i686-mingw32/bin/../lib/gcc/nios2-elf/4.1.2/../../../../nios2-elf/lib\libc.a(lib_a-mprec.o)
 .debug_loc     0x0000b003      0x8c0 c:/altera/12.0sp2/nios2eds/bin/gnu/h-i686-mingw32/bin/../lib/gcc/nios2-elf/4.1.2/../../../../nios2-elf/lib\libc.a(lib_a-reallocr.o)
 .debug_loc     0x0000b8c3       0x36 c:/altera/12.0sp2/nios2eds/bin/gnu/h-i686-mingw32/bin/../lib/gcc/nios2-elf/4.1.2/../../../../nios2-elf/lib\libc.a(lib_a-s_isinfd.o)
 .debug_loc     0x0000b8f9       0x5b c:/altera/12.0sp2/nios2eds/bin/gnu/h-i686-mingw32/bin/../lib/gcc/nios2-elf/4.1.2/../../../../nios2-elf/lib\libc.a(lib_a-sbrkr.o)
 .debug_loc     0x0000b954      0x21f c:/altera/12.0sp2/nios2eds/bin/gnu/h-i686-mingw32/bin/../lib/gcc/nios2-elf/4.1.2/../../../../nios2-elf/lib\libc.a(lib_a-stdio.o)
 .debug_loc     0x0000bb73       0x65 c:/altera/12.0sp2/nios2eds/bin/gnu/h-i686-mingw32/bin/../lib/gcc/nios2-elf/4.1.2/../../../../nios2-elf/lib\libc.a(lib_a-strcmp.o)
 .debug_loc     0x0000bbd8       0x3c c:/altera/12.0sp2/nios2eds/bin/gnu/h-i686-mingw32/bin/../lib/gcc/nios2-elf/4.1.2/../../../../nios2-elf/lib\libc.a(lib_a-strlen.o)
 .debug_loc     0x0000bc14       0x97 c:/altera/12.0sp2/nios2eds/bin/gnu/h-i686-mingw32/bin/../lib/gcc/nios2-elf/4.1.2/../../../../nios2-elf/lib\libc.a(lib_a-writer.o)
 .debug_loc     0x0000bcab       0xe9 c:/altera/12.0sp2/nios2eds/bin/gnu/h-i686-mingw32/bin/../lib/gcc/nios2-elf/4.1.2/../../../../nios2-elf/lib\libc.a(lib_a-callocr.o)
 .debug_loc     0x0000bd94       0x5b c:/altera/12.0sp2/nios2eds/bin/gnu/h-i686-mingw32/bin/../lib/gcc/nios2-elf/4.1.2/../../../../nios2-elf/lib\libc.a(lib_a-closer.o)
 .debug_loc     0x0000bdef       0xe4 c:/altera/12.0sp2/nios2eds/bin/gnu/h-i686-mingw32/bin/../lib/gcc/nios2-elf/4.1.2/../../../../nios2-elf/lib\libc.a(lib_a-fclose.o)
 .debug_loc     0x0000bed3       0x79 c:/altera/12.0sp2/nios2eds/bin/gnu/h-i686-mingw32/bin/../lib/gcc/nios2-elf/4.1.2/../../../../nios2-elf/lib\libc.a(lib_a-fstatr.o)
 .debug_loc     0x0000bf4c       0x5b c:/altera/12.0sp2/nios2eds/bin/gnu/h-i686-mingw32/bin/../lib/gcc/nios2-elf/4.1.2/../../../../nios2-elf/lib\libc.a(lib_a-isattyr.o)
 .debug_loc     0x0000bfa7       0x97 c:/altera/12.0sp2/nios2eds/bin/gnu/h-i686-mingw32/bin/../lib/gcc/nios2-elf/4.1.2/../../../../nios2-elf/lib\libc.a(lib_a-lseekr.o)
 .debug_loc     0x0000c03e       0x97 c:/altera/12.0sp2/nios2eds/bin/gnu/h-i686-mingw32/bin/../lib/gcc/nios2-elf/4.1.2/../../../../nios2-elf/lib\libc.a(lib_a-readr.o)
 .debug_loc     0x0000c0d5      0xc12 c:/altera/12.0sp2/nios2eds/bin/gnu/h-i686-mingw32/bin/../lib/gcc/nios2-elf/4.1.2\libgcc.a(_udivdi3.o)
 .debug_loc     0x0000cce7      0xc31 c:/altera/12.0sp2/nios2eds/bin/gnu/h-i686-mingw32/bin/../lib/gcc/nios2-elf/4.1.2\libgcc.a(_umoddi3.o)
 .debug_loc     0x0000d918       0x70 c:/altera/12.0sp2/nios2eds/bin/gnu/h-i686-mingw32/bin/../lib/gcc/nios2-elf/4.1.2\libgcc.a(_ne_df.o)
 .debug_loc     0x0000d988       0x5b c:/altera/12.0sp2/nios2eds/bin/gnu/h-i686-mingw32/bin/../lib/gcc/nios2-elf/4.1.2\libgcc.a(_usi_to_df.o)
 .debug_loc     0x0000d9e3       0x56 ../microCTest_bsp/\libucosii_bsp.a(alt_close.o)
 .debug_loc     0x0000da39       0x2b ../microCTest_bsp/\libucosii_bsp.a(alt_dev.o)
 .debug_loc     0x0000da64       0x56 ../microCTest_bsp/\libucosii_bsp.a(alt_fstat.o)
 .debug_loc     0x0000daba       0x57 ../microCTest_bsp/\libucosii_bsp.a(alt_isatty.o)
 .debug_loc     0x0000db11       0x56 ../microCTest_bsp/\libucosii_bsp.a(alt_lseek.o)
 .debug_loc     0x0000db67       0x2b ../microCTest_bsp/\libucosii_bsp.a(alt_main.o)
 .debug_loc     0x0000db92       0x56 ../microCTest_bsp/\libucosii_bsp.a(alt_read.o)
 .debug_loc     0x0000dbe8       0x2b ../microCTest_bsp/\libucosii_bsp.a(alt_release_fd.o)
 .debug_loc     0x0000dc13       0x2b ../microCTest_bsp/\libucosii_bsp.a(alt_sbrk.o)
 .debug_loc     0x0000dc3e       0x2b ../microCTest_bsp/\libucosii_bsp.a(alt_usleep.o)
 .debug_loc     0x0000dc69       0x56 ../microCTest_bsp/\libucosii_bsp.a(alt_write.o)
 .debug_loc     0x0000dcbf       0x57 ../microCTest_bsp/\libucosii_bsp.a(alt_env_lock.o)
 .debug_loc     0x0000dd16       0x57 ../microCTest_bsp/\libucosii_bsp.a(alt_malloc_lock.o)
 .debug_loc     0x0000dd6d      0x5e2 ../microCTest_bsp/\libucosii_bsp.a(os_core.o)
 .debug_loc     0x0000e34f       0x2b ../microCTest_bsp/\libucosii_bsp.a(os_dbg.o)
 .debug_loc     0x0000e37a      0x232 ../microCTest_bsp/\libucosii_bsp.a(os_flag.o)
 .debug_loc     0x0000e5ac      0x12d ../microCTest_bsp/\libucosii_bsp.a(os_mem.o)
 .debug_loc     0x0000e6d9      0x1da ../microCTest_bsp/\libucosii_bsp.a(os_q.o)
 .debug_loc     0x0000e8b3      0x158 ../microCTest_bsp/\libucosii_bsp.a(os_sem.o)
 .debug_loc     0x0000ea0b      0x207 ../microCTest_bsp/\libucosii_bsp.a(os_task.o)
 .debug_loc     0x0000ec12       0xd7 ../microCTest_bsp/\libucosii_bsp.a(os_time.o)
 .debug_loc     0x0000ece9       0x81 ../microCTest_bsp/\libucosii_bsp.a(alt_sys_init.o)
 .debug_loc     0x0000ed6a      0x12e ../microCTest_bsp/\libucosii_bsp.a(altera_avalon_cfi_flash.o)
 .debug_loc     0x0000ee98      0x306 ../microCTest_bsp/\libucosii_bsp.a(altera_avalon_cfi_flash_table.o)
 .debug_loc     0x0000f19e       0xac ../microCTest_bsp/\libucosii_bsp.a(altera_avalon_jtag_uart_fd.o)
 .debug_loc     0x0000f24a       0xac ../microCTest_bsp/\libucosii_bsp.a(altera_avalon_jtag_uart_init.o)
 .debug_loc     0x0000f2f6       0x2b ../microCTest_bsp/\libucosii_bsp.a(altera_avalon_jtag_uart_ioctl.o)
 .debug_loc     0x0000f321       0x2c ../microCTest_bsp/\libucosii_bsp.a(altera_avalon_jtag_uart_read.o)
 .debug_loc     0x0000f34d       0x2c ../microCTest_bsp/\libucosii_bsp.a(altera_avalon_jtag_uart_write.o)
 .debug_loc     0x0000f379      0x184 ../microCTest_bsp/\libucosii_bsp.a(altera_avalon_lcd_16207.o)
 .debug_loc     0x0000f4fd       0x2b ../microCTest_bsp/\libucosii_bsp.a(altera_avalon_lcd_16207_fd.o)
 .debug_loc     0x0000f528       0x56 ../microCTest_bsp/\libucosii_bsp.a(altera_avalon_timer_sc.o)
 .debug_loc     0x0000f57e       0x81 ../microCTest_bsp/\libucosii_bsp.a(altera_avalon_uart_fd.o)
 .debug_loc     0x0000f5ff       0xd8 ../microCTest_bsp/\libucosii_bsp.a(altera_avalon_uart_init.o)
 .debug_loc     0x0000f6d7       0x57 ../microCTest_bsp/\libucosii_bsp.a(altera_avalon_uart_read.o)
 .debug_loc     0x0000f72e       0x57 ../microCTest_bsp/\libucosii_bsp.a(altera_avalon_uart_write.o)
 .debug_loc     0x0000f785       0x2b ../microCTest_bsp/\libucosii_bsp.a(alt_alarm_start.o)
 .debug_loc     0x0000f7b0       0x2b ../microCTest_bsp/\libucosii_bsp.a(alt_busy_sleep.o)
 .debug_loc     0x0000f7db       0x2b ../microCTest_bsp/\libucosii_bsp.a(alt_dcache_flush.o)
 .debug_loc     0x0000f806       0x56 ../microCTest_bsp/\libucosii_bsp.a(alt_dev_llist_insert.o)
 .debug_loc     0x0000f85c       0x2b ../microCTest_bsp/\libucosii_bsp.a(alt_do_ctors.o)
 .debug_loc     0x0000f887       0x2b ../microCTest_bsp/\libucosii_bsp.a(alt_do_dtors.o)
 .debug_loc     0x0000f8b2       0x56 ../microCTest_bsp/\libucosii_bsp.a(alt_flash_dev.o)
 .debug_loc     0x0000f908       0xac ../microCTest_bsp/\libucosii_bsp.a(alt_iic.o)
 .debug_loc     0x0000f9b4       0x2b ../microCTest_bsp/\libucosii_bsp.a(alt_iic_isr_register.o)
 .debug_loc     0x0000f9df       0x56 ../microCTest_bsp/\libucosii_bsp.a(alt_io_redirect.o)
 .debug_loc     0x0000fa35       0x2b ../microCTest_bsp/\libucosii_bsp.a(alt_irq_handler.o)
 .debug_loc     0x0000fa60       0x81 ../microCTest_bsp/\libucosii_bsp.a(alt_open.o)
 .debug_loc     0x0000fae1       0x56 ../microCTest_bsp/\libucosii_bsp.a(alt_tick.o)
 .debug_loc     0x0000fb37       0x2b ../microCTest_bsp/\libucosii_bsp.a(altera_nios2_irq.o)
 .debug_loc     0x0000fb62      0x1ae ../microCTest_bsp/\libucosii_bsp.a(os_cpu_c.o)
 .debug_loc     0x0000fd10       0xac ../microCTest_bsp/\libucosii_bsp.a(altera_avalon_cfi_flash_amd.o)
 .debug_loc     0x0000fdbc       0xac ../microCTest_bsp/\libucosii_bsp.a(altera_avalon_cfi_flash_intel.o)
 .debug_loc     0x0000fe68       0x2b ../microCTest_bsp/\libucosii_bsp.a(alt_find_dev.o)
 .debug_loc     0x0000fe93       0x2b ../microCTest_bsp/\libucosii_bsp.a(alt_find_file.o)
 .debug_loc     0x0000febe       0x2b ../microCTest_bsp/\libucosii_bsp.a(alt_get_fd.o)
 .debug_loc     0x0000fee9       0x56 ../microCTest_bsp/\libucosii_bsp.a(alt_instruction_exception_entry.o)
 .debug_loc     0x0000ff3f       0x1e c:/altera/12.0sp2/nios2eds/bin/gnu/h-i686-mingw32/bin/../lib/gcc/nios2-elf/4.1.2/../../../../nios2-elf/lib\libc.a(lib_a-atexit.o)
 .debug_loc     0x0000ff5d       0x3d c:/altera/12.0sp2/nios2eds/bin/gnu/h-i686-mingw32/bin/../lib/gcc/nios2-elf/4.1.2/../../../../nios2-elf/lib\libc.a(lib_a-exit.o)
 .debug_loc     0x0000ff9a      0x114 c:/altera/12.0sp2/nios2eds/bin/gnu/h-i686-mingw32/bin/../lib/gcc/nios2-elf/4.1.2/../../../../nios2-elf/lib\libc.a(lib_a-memcmp.o)
 .debug_loc     0x000100ae      0x120 c:/altera/12.0sp2/nios2eds/bin/gnu/h-i686-mingw32/bin/../lib/gcc/nios2-elf/4.1.2/../../../../nios2-elf/lib\libc.a(lib_a-__atexit.o)
 .debug_loc     0x000101ce      0x1cb c:/altera/12.0sp2/nios2eds/bin/gnu/h-i686-mingw32/bin/../lib/gcc/nios2-elf/4.1.2/../../../../nios2-elf/lib\libc.a(lib_a-__call_atexit.o)
 .debug_loc     0x00010399       0x56 ../microCTest_bsp/\libucosii_bsp.a(alt_exit.o)

.debug_macinfo
 *(.debug_macinfo)

.debug_weaknames
 *(.debug_weaknames)

.debug_funcnames
 *(.debug_funcnames)

.debug_typenames
 *(.debug_typenames)

.debug_varnames
 *(.debug_varnames)

.debug_alt_sim_info
                0x00000000       0x50
 *(.debug_alt_sim_info)
 .debug_alt_sim_info
                0x00000000       0x20 ../microCTest_bsp//obj/HAL/src/crt0.o
 .debug_alt_sim_info
                0x00000020       0x30 ../microCTest_bsp/\libucosii_bsp.a(alt_busy_sleep.o)
                0x02000000                __alt_data_end = 0x2000000
                0x02000000                PROVIDE (__alt_stack_pointer, __alt_data_end)
                0x0182b6c4                PROVIDE (__alt_stack_limit, __alt_stack_base)
                0x0182b6c4                PROVIDE (__alt_heap_start, end)
                0x02000000                PROVIDE (__alt_heap_limit, 0x2000000)
OUTPUT(microCTest.elf elf32-littlenios2)

.debug_ranges   0x00000000      0xb40
 .debug_ranges  0x00000000       0x30 c:/altera/12.0sp2/nios2eds/bin/gnu/h-i686-mingw32/bin/../lib/gcc/nios2-elf/4.1.2/../../../../nios2-elf/lib\libm.a(lib_a-s_round.o)
 .debug_ranges  0x00000030       0x18 c:/altera/12.0sp2/nios2eds/bin/gnu/h-i686-mingw32/bin/../lib/gcc/nios2-elf/4.1.2/../../../../nios2-elf/lib\libm.a(lib_a-e_atan2.o)
 .debug_ranges  0x00000048       0x40 c:/altera/12.0sp2/nios2eds/bin/gnu/h-i686-mingw32/bin/../lib/gcc/nios2-elf/4.1.2/../../../../nios2-elf/lib\libm.a(lib_a-e_rem_pio2.o)
 .debug_ranges  0x00000088       0x28 c:/altera/12.0sp2/nios2eds/bin/gnu/h-i686-mingw32/bin/../lib/gcc/nios2-elf/4.1.2/../../../../nios2-elf/lib\libm.a(lib_a-e_sqrt.o)
 .debug_ranges  0x000000b0       0x28 c:/altera/12.0sp2/nios2eds/bin/gnu/h-i686-mingw32/bin/../lib/gcc/nios2-elf/4.1.2/../../../../nios2-elf/lib\libm.a(lib_a-s_atan.o)
 .debug_ranges  0x000000d8       0x18 c:/altera/12.0sp2/nios2eds/bin/gnu/h-i686-mingw32/bin/../lib/gcc/nios2-elf/4.1.2/../../../../nios2-elf/lib\libm.a(lib_a-s_fabs.o)
 .debug_ranges  0x000000f0       0x20 c:/altera/12.0sp2/nios2eds/bin/gnu/h-i686-mingw32/bin/../lib/gcc/nios2-elf/4.1.2/../../../../nios2-elf/lib\libm.a(lib_a-s_scalbn.o)
 .debug_ranges  0x00000110       0x18 c:/altera/12.0sp2/nios2eds/bin/gnu/h-i686-mingw32/bin/../lib/gcc/nios2-elf/4.1.2/../../../../nios2-elf/lib\libm.a(lib_a-s_copysign.o)
 .debug_ranges  0x00000128       0x60 c:/altera/12.0sp2/nios2eds/bin/gnu/h-i686-mingw32/bin/../lib/gcc/nios2-elf/4.1.2\libgcc.a(_div_sf.o)
 .debug_ranges  0x00000188       0x18 c:/altera/12.0sp2/nios2eds/bin/gnu/h-i686-mingw32/bin/../lib/gcc/nios2-elf/4.1.2\libgcc.a(_si_to_sf.o)
 .debug_ranges  0x000001a0       0x30 c:/altera/12.0sp2/nios2eds/bin/gnu/h-i686-mingw32/bin/../lib/gcc/nios2-elf/4.1.2\libgcc.a(_addsub_df.o)
 .debug_ranges  0x000001d0       0x88 c:/altera/12.0sp2/nios2eds/bin/gnu/h-i686-mingw32/bin/../lib/gcc/nios2-elf/4.1.2\libgcc.a(_mul_df.o)
 .debug_ranges  0x00000258       0x50 c:/altera/12.0sp2/nios2eds/bin/gnu/h-i686-mingw32/bin/../lib/gcc/nios2-elf/4.1.2\libgcc.a(_div_df.o)
 .debug_ranges  0x000002a8       0x68 c:/altera/12.0sp2/nios2eds/bin/gnu/h-i686-mingw32/bin/../lib/gcc/nios2-elf/4.1.2\libgcc.a(_muldi3.o)
 .debug_ranges  0x00000310       0x28 c:/altera/12.0sp2/nios2eds/bin/gnu/h-i686-mingw32/bin/../lib/gcc/nios2-elf/4.1.2\libgcc.a(_clzsi2.o)
 .debug_ranges  0x00000338       0x28 c:/altera/12.0sp2/nios2eds/bin/gnu/h-i686-mingw32/bin/../lib/gcc/nios2-elf/4.1.2\libgcc.a(_pack_df.o)
 .debug_ranges  0x00000360      0x168 c:/altera/12.0sp2/nios2eds/bin/gnu/h-i686-mingw32/bin/../lib/gcc/nios2-elf/4.1.2/../../../../nios2-elf/lib\libc.a(lib_a-vfprintf.o)
 .debug_ranges  0x000004c8       0x20 c:/altera/12.0sp2/nios2eds/bin/gnu/h-i686-mingw32/bin/../lib/gcc/nios2-elf/4.1.2/../../../../nios2-elf/lib\libc.a(lib_a-fflush.o)
 .debug_ranges  0x000004e8       0x28 c:/altera/12.0sp2/nios2eds/bin/gnu/h-i686-mingw32/bin/../lib/gcc/nios2-elf/4.1.2/../../../../nios2-elf/lib\libc.a(lib_a-fvwrite.o)
 .debug_ranges  0x00000510       0xa0 c:/altera/12.0sp2/nios2eds/bin/gnu/h-i686-mingw32/bin/../lib/gcc/nios2-elf/4.1.2/../../../../nios2-elf/lib\libc.a(lib_a-fwalk.o)
 .debug_ranges  0x000005b0       0x70 c:/altera/12.0sp2/nios2eds/bin/gnu/h-i686-mingw32/bin/../lib/gcc/nios2-elf/4.1.2/../../../../nios2-elf/lib\libc.a(lib_a-mallocr.o)
 .debug_ranges  0x00000620      0x110 c:/altera/12.0sp2/nios2eds/bin/gnu/h-i686-mingw32/bin/../lib/gcc/nios2-elf/4.1.2/../../../../nios2-elf/lib\libc.a(lib_a-reallocr.o)
 .debug_ranges  0x00000730       0x38 c:/altera/12.0sp2/nios2eds/bin/gnu/h-i686-mingw32/bin/../lib/gcc/nios2-elf/4.1.2/../../../../nios2-elf/lib\libc.a(lib_a-callocr.o)
 .debug_ranges  0x00000768      0x188 c:/altera/12.0sp2/nios2eds/bin/gnu/h-i686-mingw32/bin/../lib/gcc/nios2-elf/4.1.2\libgcc.a(_udivdi3.o)
 .debug_ranges  0x000008f0      0x198 c:/altera/12.0sp2/nios2eds/bin/gnu/h-i686-mingw32/bin/../lib/gcc/nios2-elf/4.1.2\libgcc.a(_umoddi3.o)
 .debug_ranges  0x00000a88       0x18 c:/altera/12.0sp2/nios2eds/bin/gnu/h-i686-mingw32/bin/../lib/gcc/nios2-elf/4.1.2\libgcc.a(_usi_to_df.o)
 .debug_ranges  0x00000aa0       0x18 ../microCTest_bsp/\libucosii_bsp.a(altera_avalon_jtag_uart_init.o)
 .debug_ranges  0x00000ab8       0x18 ../microCTest_bsp/\libucosii_bsp.a(altera_avalon_uart_init.o)
 .debug_ranges  0x00000ad0       0x28 ../microCTest_bsp/\libucosii_bsp.a(alt_irq_entry.o)
 .debug_ranges  0x00000af8       0x30 ../microCTest_bsp/\libucosii_bsp.a(alt_exception_entry.o)
 .debug_ranges  0x00000b28       0x18 c:/altera/12.0sp2/nios2eds/bin/gnu/h-i686-mingw32/bin/../lib/gcc/nios2-elf/4.1.2/../../../../nios2-elf/lib\libc.a(lib_a-__call_atexit.o)
