
microCTest.elf:     file format elf32-littlenios2
microCTest.elf
architecture: nios2, flags 0x00000112:
EXEC_P, HAS_SYMS, D_PAGED
start address 0x01800000

Program Header:
    LOAD off    0x00001000 vaddr 0x01800000 paddr 0x01800000 align 2**12
         filesz 0x0002106c memsz 0x00028c3c flags rwx
    LOAD off    0x00023000 vaddr 0x02400000 paddr 0x02400000 align 2**12
         filesz 0x00000000 memsz 0x00000000 flags r-x
    LOAD off    0x00023020 vaddr 0x02808020 paddr 0x02808020 align 2**12
         filesz 0x00000214 memsz 0x00000214 flags r-x

Sections:
Idx Name          Size      VMA       LMA       File off  Algn
  0 .entry        00000000  02400000  02400000  00023000  2**5
                  CONTENTS, ALLOC, LOAD, READONLY, CODE
  1 .exceptions   00000214  02808020  02808020  00023020  2**2
                  CONTENTS, ALLOC, LOAD, READONLY, CODE
  2 .text         0001e814  01800000  01800000  00001000  2**2
                  CONTENTS, ALLOC, LOAD, READONLY, CODE
  3 .rodata       00000a94  0181e814  0181e814  0001f814  2**2
                  CONTENTS, ALLOC, LOAD, READONLY, DATA
  4 .rwdata       00001dc4  0181f2a8  0181f2a8  000202a8  2**2
                  CONTENTS, ALLOC, LOAD, DATA, SMALL_DATA
  5 .bss          00007bd0  0182106c  0182106c  0002206c  2**2
                  ALLOC, SMALL_DATA
  6 .comment      00000026  00000000  00000000  00023234  2**0
                  CONTENTS, READONLY
  7 .debug_aranges 000012b8  00000000  00000000  00023260  2**3
                  CONTENTS, READONLY, DEBUGGING
  8 .debug_pubnames 00002a7b  00000000  00000000  00024518  2**0
                  CONTENTS, READONLY, DEBUGGING
  9 .debug_info   0003ac67  00000000  00000000  00026f93  2**0
                  CONTENTS, READONLY, DEBUGGING
 10 .debug_abbrev 0000bfc6  00000000  00000000  00061bfa  2**0
                  CONTENTS, READONLY, DEBUGGING
 11 .debug_line   0002371d  00000000  00000000  0006dbc0  2**0
                  CONTENTS, READONLY, DEBUGGING
 12 .debug_frame  00003058  00000000  00000000  000912e0  2**2
                  CONTENTS, READONLY, DEBUGGING
 13 .debug_str    00002f35  00000000  00000000  00094338  2**0
                  CONTENTS, READONLY, DEBUGGING
 14 .debug_loc    000101ab  00000000  00000000  0009726d  2**0
                  CONTENTS, READONLY, DEBUGGING
 15 .debug_alt_sim_info 00000050  00000000  00000000  000a7418  2**2
                  CONTENTS, READONLY, DEBUGGING
 16 .debug_ranges 00000b40  00000000  00000000  000a7468  2**3
                  CONTENTS, READONLY, DEBUGGING
 17 .thread_model 00000006  00000000  00000000  000ad923  2**0
                  CONTENTS, READONLY
 18 .cpu          00000003  00000000  00000000  000ad929  2**0
                  CONTENTS, READONLY
 19 .simulation_enabled 00000001  00000000  00000000  000ad92c  2**0
                  CONTENTS, READONLY
 20 .sysid_hash   00000004  00000000  00000000  000ad92d  2**0
                  CONTENTS, READONLY
 21 .sysid_base   00000004  00000000  00000000  000ad931  2**0
                  CONTENTS, READONLY
 22 .sysid_time   00000004  00000000  00000000  000ad935  2**0
                  CONTENTS, READONLY
 23 .stderr_dev   00000009  00000000  00000000  000ad939  2**0
                  CONTENTS, READONLY
 24 .stdin_dev    00000009  00000000  00000000  000ad942  2**0
                  CONTENTS, READONLY
 25 .stdout_dev   00000009  00000000  00000000  000ad94b  2**0
                  CONTENTS, READONLY
 26 .sopc_system_name 00000008  00000000  00000000  000ad954  2**0
                  CONTENTS, READONLY
 27 .quartus_project_dir 00000052  00000000  00000000  000ad95c  2**0
                  CONTENTS, READONLY
 28 .jdi          0000418b  00000000  00000000  000ad9ae  2**0
                  CONTENTS, READONLY
 29 .sopcinfo     000c4d50  00000000  00000000  000b1b39  2**0
                  CONTENTS, READONLY
SYMBOL TABLE:
02400000 l    d  .entry	00000000 .entry
02808020 l    d  .exceptions	00000000 .exceptions
01800000 l    d  .text	00000000 .text
0181e814 l    d  .rodata	00000000 .rodata
0181f2a8 l    d  .rwdata	00000000 .rwdata
0182106c l    d  .bss	00000000 .bss
00000000 l    d  .comment	00000000 .comment
00000000 l    d  .debug_aranges	00000000 .debug_aranges
00000000 l    d  .debug_pubnames	00000000 .debug_pubnames
00000000 l    d  .debug_info	00000000 .debug_info
00000000 l    d  .debug_abbrev	00000000 .debug_abbrev
00000000 l    d  .debug_line	00000000 .debug_line
00000000 l    d  .debug_frame	00000000 .debug_frame
00000000 l    d  .debug_str	00000000 .debug_str
00000000 l    d  .debug_loc	00000000 .debug_loc
00000000 l    d  .debug_alt_sim_info	00000000 .debug_alt_sim_info
00000000 l    d  .debug_ranges	00000000 .debug_ranges
01800044 l       .text	00000000 alt_after_alt_main
00000000 l    df *ABS*	00000000 alt_irq_handler.c
00000000 l    df *ABS*	00000000 alt_instruction_exception_entry.c
00000000 l    df *ABS*	00000000 IK.c
00000000 l    df *ABS*	00000000 hello_ucosii.c
0181e814 l     O .rodata	00000150 C.1.3389
01821114 l     O .bss	00000640 filter.3419
0182106c l     O .bss	00000004 count.3416
00000000 l    df *ABS*	00000000 pwm.c
00000000 l    df *ABS*	00000000 utilities.c
00000000 l    df *ABS*	00000000 s_cos.c
00000000 l    df *ABS*	00000000 s_round.c
00000000 l    df *ABS*	00000000 s_sin.c
00000000 l    df *ABS*	00000000 w_atan2.c
00000000 l    df *ABS*	00000000 w_sqrt.c
00000000 l    df *ABS*	00000000 e_atan2.c
00000000 l    df *ABS*	00000000 e_rem_pio2.c
0181e9f8 l     O .rodata	00000108 two_over_pi
0181e978 l     O .rodata	00000080 npio2_hw
00000000 l    df *ABS*	00000000 e_sqrt.c
00000000 l    df *ABS*	00000000 k_cos.c
00000000 l    df *ABS*	00000000 k_rem_pio2.c
0181eb00 l     O .rodata	00000010 init_jk
0181eb10 l     O .rodata	00000040 PIo2
00000000 l    df *ABS*	00000000 k_sin.c
00000000 l    df *ABS*	00000000 s_atan.c
0181eb50 l     O .rodata	00000020 atanhi
0181eb70 l     O .rodata	00000020 atanlo
00000000 l    df *ABS*	00000000 s_fabs.c
00000000 l    df *ABS*	00000000 s_floor.c
00000000 l    df *ABS*	00000000 s_isnand.c
00000000 l    df *ABS*	00000000 s_lib_ver.c
00000000 l    df *ABS*	00000000 s_matherr.c
00000000 l    df *ABS*	00000000 s_scalbn.c
00000000 l    df *ABS*	00000000 s_copysign.c
00000000 l    df *ABS*	00000000 fp-bit.c
00000000 l    df *ABS*	00000000 fp-bit.c
00000000 l    df *ABS*	00000000 fp-bit.c
00000000 l    df *ABS*	00000000 fp-bit.c
00000000 l    df *ABS*	00000000 dp-bit.c
01805194 l     F .text	00000410 _fpadd_parts
00000000 l    df *ABS*	00000000 dp-bit.c
00000000 l    df *ABS*	00000000 dp-bit.c
00000000 l    df *ABS*	00000000 dp-bit.c
00000000 l    df *ABS*	00000000 dp-bit.c
00000000 l    df *ABS*	00000000 dp-bit.c
00000000 l    df *ABS*	00000000 dp-bit.c
00000000 l    df *ABS*	00000000 dp-bit.c
00000000 l    df *ABS*	00000000 dp-bit.c
00000000 l    df *ABS*	00000000 dp-bit.c
00000000 l    df *ABS*	00000000 dp-bit.c
00000000 l    df *ABS*	00000000 dp-bit.c
00000000 l    df *ABS*	00000000 lib2-divmod.c
01806150 l     F .text	0000007c udivmodsi4
00000000 l    df *ABS*	00000000 libgcc2.c
00000000 l    df *ABS*	00000000 libgcc2.c
00000000 l    df *ABS*	00000000 fp-bit.c
00000000 l    df *ABS*	00000000 fp-bit.c
00000000 l    df *ABS*	00000000 fp-bit.c
00000000 l    df *ABS*	00000000 dp-bit.c
00000000 l    df *ABS*	00000000 dp-bit.c
00000000 l    df *ABS*	00000000 dp-bit.c
00000000 l    df *ABS*	00000000 libgcc2.c
00000000 l    df *ABS*	00000000 errno.c
00000000 l    df *ABS*	00000000 impure.c
0181f2a8 l     O .rwdata	00000400 impure_data
00000000 l    df *ABS*	00000000 memcpy.c
00000000 l    df *ABS*	00000000 printf.c
00000000 l    df *ABS*	00000000 vfprintf.c
01806c44 l     F .text	00000058 __sprint_r
0181ed26 l     O .rodata	00000010 blanks.3452
0181ed16 l     O .rodata	00000010 zeroes.3453
00000000 l    df *ABS*	00000000 wsetup.c
00000000 l    df *ABS*	00000000 dtoa.c
01808ca8 l     F .text	00000218 quorem
00000000 l    df *ABS*	00000000 fflush.c
00000000 l    df *ABS*	00000000 findfp.c
0180a6a4 l     F .text	00000058 std
0180a7b0 l     F .text	00000008 __fp_lock
0180a7b8 l     F .text	00000008 __fp_unlock
00000000 l    df *ABS*	00000000 mallocr.c
00000000 l    df *ABS*	00000000 fvwrite.c
00000000 l    df *ABS*	00000000 fwalk.c
00000000 l    df *ABS*	00000000 locale.c
01820fac l     O .rwdata	00000004 charset
0181ed58 l     O .rodata	00000030 lconv
00000000 l    df *ABS*	00000000 makebuf.c
00000000 l    df *ABS*	00000000 mallocr.c
00000000 l    df *ABS*	00000000 memchr.c
00000000 l    df *ABS*	00000000 memmove.c
00000000 l    df *ABS*	00000000 memset.c
00000000 l    df *ABS*	00000000 mprec.c
0181eea0 l     O .rodata	0000000c p05.2458
00000000 l    df *ABS*	00000000 mallocr.c
00000000 l    df *ABS*	00000000 s_isinfd.c
00000000 l    df *ABS*	00000000 sbrkr.c
00000000 l    df *ABS*	00000000 stdio.c
00000000 l    df *ABS*	00000000 strcmp.c
00000000 l    df *ABS*	00000000 strlen.c
00000000 l    df *ABS*	00000000 writer.c
00000000 l    df *ABS*	00000000 mallocr.c
00000000 l    df *ABS*	00000000 closer.c
00000000 l    df *ABS*	00000000 fclose.c
00000000 l    df *ABS*	00000000 fstatr.c
00000000 l    df *ABS*	00000000 int_errno.c
00000000 l    df *ABS*	00000000 isattyr.c
00000000 l    df *ABS*	00000000 lseekr.c
00000000 l    df *ABS*	00000000 readr.c
00000000 l    df *ABS*	00000000 libgcc2.c
00000000 l    df *ABS*	00000000 libgcc2.c
00000000 l    df *ABS*	00000000 dp-bit.c
00000000 l    df *ABS*	00000000 dp-bit.c
00000000 l    df *ABS*	00000000 alt_close.c
0180ec00 l     F .text	00000060 alt_get_errno
00000000 l    df *ABS*	00000000 alt_dev.c
0180ec60 l     F .text	0000002c alt_dev_null_write
00000000 l    df *ABS*	00000000 alt_errno.c
00000000 l    df *ABS*	00000000 alt_fstat.c
0180ed60 l     F .text	00000060 alt_get_errno
00000000 l    df *ABS*	00000000 alt_isatty.c
0180ee80 l     F .text	00000060 alt_get_errno
00000000 l    df *ABS*	00000000 alt_lseek.c
0180efd0 l     F .text	00000060 alt_get_errno
00000000 l    df *ABS*	00000000 alt_main.c
00000000 l    df *ABS*	00000000 alt_read.c
0180f218 l     F .text	00000060 alt_get_errno
00000000 l    df *ABS*	00000000 alt_release_fd.c
00000000 l    df *ABS*	00000000 alt_sbrk.c
01820fd0 l     O .rwdata	00000004 heap_end
00000000 l    df *ABS*	00000000 alt_write.c
0180f4b4 l     F .text	00000060 alt_get_errno
00000000 l    df *ABS*	00000000 alt_env_lock.c
01820fd4 l     O .rwdata	00000004 lockid
0182109c l     O .bss	00000004 locks
00000000 l    df *ABS*	00000000 alt_malloc_lock.c
01820fd8 l     O .rwdata	00000004 lockid
018210a4 l     O .bss	00000004 locks
00000000 l    df *ABS*	00000000 os_core.c
01810eec l     F .text	00000044 OS_InitMisc
01810f30 l     F .text	0000006c OS_InitRdyList
01811094 l     F .text	000000e0 OS_InitTCBList
01810e10 l     F .text	000000dc OS_InitEventList
01810f9c l     F .text	0000007c OS_InitTaskIdle
01811018 l     F .text	0000007c OS_InitTaskStat
01811308 l     F .text	00000070 OS_SchedNew
00000000 l    df *ABS*	00000000 os_dbg.c
00000000 l    df *ABS*	00000000 os_flag.c
01813228 l     F .text	00000110 OS_FlagTaskRdy
01812f80 l     F .text	000001c4 OS_FlagBlock
00000000 l    df *ABS*	00000000 os_mem.c
00000000 l    df *ABS*	00000000 os_q.c
00000000 l    df *ABS*	00000000 os_sem.c
00000000 l    df *ABS*	00000000 os_task.c
00000000 l    df *ABS*	00000000 os_time.c
00000000 l    df *ABS*	00000000 alt_sys_init.c
0181fc64 l     O .rwdata	000000d8 cfi_flash
0181fd3c l     O .rwdata	0000106c jtag_uart
01820da8 l     O .rwdata	00000124 lcd
01820ecc l     O .rwdata	000000d0 uart
01817ba8 l     F .text	00000038 alt_dev_reg
00000000 l    df *ABS*	00000000 altera_avalon_cfi_flash.c
01817c7c l     F .text	00000038 alt_flash_device_register
00000000 l    df *ABS*	00000000 altera_avalon_cfi_flash_table.c
01818a7c l     F .text	0000007c alt_read_16bit_query_entry
00000000 l    df *ABS*	00000000 altera_avalon_jtag_uart_fd.c
00000000 l    df *ABS*	00000000 altera_avalon_jtag_uart_init.c
01819b80 l     F .text	000002c4 altera_avalon_jtag_uart_irq
01819e44 l     F .text	00000114 altera_avalon_jtag_uart_timeout
00000000 l    df *ABS*	00000000 altera_avalon_jtag_uart_ioctl.c
00000000 l    df *ABS*	00000000 altera_avalon_jtag_uart_read.c
00000000 l    df *ABS*	00000000 altera_avalon_jtag_uart_write.c
00000000 l    df *ABS*	00000000 altera_avalon_lcd_16207.c
01821050 l     O .rwdata	00000004 colstart
0181a65c l     F .text	000000b8 lcd_write_command
0181a714 l     F .text	000000d4 lcd_write_data
0181a7e8 l     F .text	000000c4 lcd_clear_screen
0181a8ac l     F .text	000001ec lcd_repaint_screen
0181aa98 l     F .text	000000c8 lcd_scroll_up
0181ab60 l     F .text	000002d0 lcd_handle_escape
0181b360 l     F .text	000000cc alt_lcd_16207_timeout
00000000 l    df *ABS*	00000000 altera_avalon_lcd_16207_fd.c
00000000 l    df *ABS*	00000000 altera_avalon_timer_sc.c
0181b5e8 l     F .text	00000070 alt_avalon_timer_sc_irq
00000000 l    df *ABS*	00000000 altera_avalon_timer_vars.c
00000000 l    df *ABS*	00000000 altera_avalon_uart_fd.c
00000000 l    df *ABS*	00000000 altera_avalon_uart_init.c
0181b964 l     F .text	0000009c altera_avalon_uart_irq
0181ba00 l     F .text	0000013c altera_avalon_uart_rxirq
0181bb3c l     F .text	000001c0 altera_avalon_uart_txirq
00000000 l    df *ABS*	00000000 altera_avalon_uart_read.c
0181c00c l     F .text	00000060 alt_get_errno
00000000 l    df *ABS*	00000000 altera_avalon_uart_write.c
0181c2b4 l     F .text	00000060 alt_get_errno
00000000 l    df *ABS*	00000000 alt_alarm_start.c
00000000 l    df *ABS*	00000000 alt_dcache_flush.c
00000000 l    df *ABS*	00000000 alt_dev_llist_insert.c
0181c594 l     F .text	00000060 alt_get_errno
00000000 l    df *ABS*	00000000 alt_do_ctors.c
00000000 l    df *ABS*	00000000 alt_do_dtors.c
00000000 l    df *ABS*	00000000 alt_flash_dev.c
00000000 l    df *ABS*	00000000 alt_iic.c
00000000 l    df *ABS*	00000000 alt_iic_isr_register.c
00000000 l    df *ABS*	00000000 alt_io_redirect.c
0181ca58 l     F .text	000000c4 alt_open_fd
00000000 l    df *ABS*	00000000 alt_irq_vars.c
00000000 l    df *ABS*	00000000 alt_open.c
0181cb94 l     F .text	000000dc alt_file_locked
0181cdf8 l     F .text	00000060 alt_get_errno
00000000 l    df *ABS*	00000000 alt_tick.c
00000000 l    df *ABS*	00000000 alt_usleep.c
00000000 l    df *ABS*	00000000 altera_nios2_irq.c
00000040 l       *ABS*	00000000 OSCtxSw_SWITCH_PC
00000000 l    df *ABS*	00000000 os_cpu_c.c
00000014 l       *ABS*	00000000 OSTCBNext_OFFSET
00000032 l       *ABS*	00000000 OSTCBPrio_OFFSET
00000000 l       *ABS*	00000000 OSTCBStkPtr_OFFSET
00000000 l    df *ABS*	00000000 altera_avalon_cfi_flash_amd.c
0181d9c4 l     F .text	000000bc alt_write_word_amd
0181d8a0 l     F .text	00000124 alt_wait_for_command_to_complete_amd
00000000 l    df *ABS*	00000000 altera_avalon_cfi_flash_intel.c
0181dc78 l     F .text	0000018c alt_unlock_block_intel
0181de04 l     F .text	000000dc alt_write_word_intel
00000000 l    df *ABS*	00000000 alt_busy_sleep.c
00000000 l    df *ABS*	00000000 alt_find_dev.c
00000000 l    df *ABS*	00000000 alt_find_file.c
00000000 l    df *ABS*	00000000 alt_get_fd.c
00000000 l    df *ABS*	00000000 atexit.c
00000000 l    df *ABS*	00000000 ctype_.c
0181f125 l     O .rodata	00000180 _ctype_b
00000000 l    df *ABS*	00000000 exit.c
00000000 l    df *ABS*	00000000 memcmp.c
00000000 l    df *ABS*	00000000 __atexit.c
00000000 l    df *ABS*	00000000 __call_atexit.c
0181e584 l     F .text	00000004 register_fini
00000000 l    df *ABS*	00000000 alt_exit.c
0181e738 l     F .text	00000040 alt_sim_halt
01821110 g     O .bss	00000004 alt_instruction_exception_handler
0180c3c0 g     F .text	00000094 _mprec_log10
01821026 g     O .rwdata	00000002 OSTaskNameSize
0180c4ac g     F .text	00000088 __any_on
0180dbfc g     F .text	00000070 _isatty_r
0181ee78 g     O .rodata	00000028 __mprec_tinytens
0180f030 g     F .text	000000c8 alt_main
0181853c g     F .text	00000048 alt_read_query_entry_32bit
018289ac g     O .bss	00000100 alt_irq
01804abc g     F .text	00000018 fabs
0180dc6c g     F .text	00000078 _lseek_r
01813b1c g     F .text	000000d0 OS_MemInit
01817cb4 g     F .text	000002c0 alt_flash_cfi_write
01801df4 g     F .text	00000130 sqrt
01817a54 g     F .text	00000064 OSTimeSet
01805cb4 g     F .text	00000088 __eqdf2
018018dc g     F .text	00000070 map
0180fa68 g     F .text	000006b4 OSEventPendMulti
01828c3c g       *ABS*	00000000 __alt_heap_start
0181d518 g     F .text	00000020 OSTaskCreateHook
0182177c g     O .bss	00002000 task1_stk
01806bcc g     F .text	00000044 printf
01820ffe g     O .rwdata	00000002 OSMboxEn
01810170 g     F .text	0000007c OSIntEnter
0180d654 g     F .text	00000068 __sseek
0180a70c g     F .text	000000a4 __sinit
0182100e g     O .rwdata	00000002 OSQEn
0180b3e4 g     F .text	00000084 _setlocale_r
0180a80c g     F .text	00000068 __sfmoreglue
0180f724 g     F .text	000000d0 __malloc_unlock
01801b78 g     F .text	0000010c round
0181d574 g     F .text	0000001c OSTaskStatHook
018210ac g     O .bss	00000001 OSLockNesting
01804f34 g     F .text	00000174 __divsf3
0182104c g     O .rwdata	00000002 OSDataSize
018210ad g     O .bss	00000001 OSRunning
01821100 g     O .bss	00000004 altera_avalon_timer_ts_freq
0180be3c g     F .text	000000e0 memmove
0181d5ac g     F .text	0000001c OSInitHookBegin
01821044 g     O .rwdata	00000002 OSTmrSize
0180a7fc g     F .text	00000010 _cleanup
0180c534 g     F .text	000000bc _Balloc
018210b0 g     O .bss	00000004 OSIdleCtr
01800048 g     F .text	00000dec IK
01805d3c g     F .text	00000088 __gtdf2
0181d1e4 g       .text	00000000 OSStartTsk
01806b1c g     F .text	00000010 __errno
0181163c g     F .text	000002e0 OS_TCBInit
018186c8 g     F .text	00000048 alt_write_flash_command_32bit_device_16bit_mode
02400000 g     F .entry	00000000 __reset
0182104a g     O .rwdata	00000002 OSTmrWheelTblSize
01820fea g     O .rwdata	00000002 OSEventSize
018210b4 g     O .bss	00000001 OSPrioHighRdy
0180db88 g     F .text	00000074 _fstat_r
0181d538 g     F .text	00000020 OSTaskDelHook
018181d0 g     F .text	000002e8 alt_flash_program_block
01821088 g     O .bss	00000004 errno
018060a4 g     F .text	00000038 __make_dp
01804ad4 g     F .text	00000224 floor
0181d1c4 g       .text	00000000 OSStartHighRdy
01816230 g     F .text	00000200 OSTaskCreateExt
01812a9c g     F .text	00000068 OSFlagPendGetFlagsRdy
0182102a g     O .rwdata	00000002 OSTaskStatStkSize
018065dc g     F .text	0000002c __make_fp
01811aa8 g     F .text	00000334 OSFlagAccept
01814254 g     F .text	000000c8 OSQFlush
01813bec g     F .text	00000154 OSQAccept
01821094 g     O .bss	00000004 alt_argv
01828f9c g       *ABS*	00000000 _gp
0181d000 g     F .text	00000118 usleep
0181605c g     F .text	000001d4 OSTaskCreate
01815ae8 g     F .text	00000574 OSTaskChangePrio
018210a8 g     O .bss	00000004 alt_heapsem
0181191c g     F .text	0000018c OSDebugInit
01816430 g     F .text	0000040c OSTaskDel
0181fae4 g     O .rwdata	00000180 alt_fd_list
01825788 g     O .bss	00000370 OSFlagTbl
01802274 g     F .text	00000828 __ieee754_rem_pio2
01810bec g     F .text	000000b8 OS_EventTaskRemove
0181e00c g     F .text	00000094 alt_find_dev
01806b2c g     F .text	000000a0 memcpy
01821014 g     O .rwdata	00000002 OSRdyTblSize
0180a7f0 g     F .text	0000000c _cleanup_r
01805ed4 g     F .text	000000f8 __floatsidf
0181cb1c g     F .text	00000078 alt_io_redirect
01805e4c g     F .text	00000088 __ltdf2
0181e814 g       *ABS*	00000000 __DTOR_END__
0181e2b4 g     F .text	000000dc alt_exception_cause_generated_bad_addr
0180f7f4 g     F .text	00000130 OSEventNameGet
01820ff8 g     O .rwdata	00000002 OSFlagMax
0181d118 g     F .text	00000020 altera_nios2_irq_init
0180c310 g     F .text	000000b0 __ratio
018101ec g     F .text	00000100 OSIntExit
01821032 g     O .rwdata	00000002 OSTCBSize
018210b5 g     O .bss	00000001 OSPrioCur
0181a0c0 g     F .text	000002c0 altera_avalon_jtag_uart_read
00000000  w      *UND*	00000000 malloc
01806c10 g     F .text	00000034 _printf_r
0180628c g     F .text	00000008 __udivsi3
0180edc0 g     F .text	000000c0 isatty
01821018 g     O .rwdata	00000002 OSStkWidth
0181ed88 g     O .rodata	000000c8 __mprec_tens
0182100c g     O .rwdata	00000002 OSPtrSize
0180b3c0 g     F .text	00000008 __locale_charset
01802d64 g     F .text	0000052c __kernel_cos
01820fec g     O .rwdata	00000002 OSEventTblSize
0181d138 g       .text	00000000 OSCtxSw
0182107c g     O .bss	00000004 __malloc_top_pad
018210b8 g     O .bss	00000004 OSTCBList
0182108c g     O .bss	00000004 alt_fd_list_lock
01820fa8 g     O .rwdata	00000004 __mb_cur_max
0180b3c8 g     F .text	0000000c _localeconv_r
0180cc2c g     F .text	0000003c __i2b
0180ada4 g     F .text	0000049c __sfvwrite_r
01825af8 g     O .bss	00000c30 OSMemTbl
018210bc g     O .bss	00000001 OSTickStepState
0180d5dc g     F .text	00000070 _sbrk_r
0181da80 g     F .text	00000084 alt_program_intel
01821010 g     O .rwdata	00000002 OSQMax
01826728 g     O .bss	00000800 OSTaskStatStk
01813704 g     F .text	0000010c OSMemNameGet
01820ff0 g     O .rwdata	00000002 OSFlagEn
0180dce4 g     F .text	00000078 _read_r
01821036 g     O .rwdata	00000002 OSTimeTickHookEn
0181c468 g     F .text	00000078 alt_dcache_flush
018147b8 g     F .text	00000180 OSQPost
01813338 g     F .text	000000ac OS_FlagUnlink
0181f6a8 g     O .rwdata	0000000c __lc_ctype
01820fc8 g     O .rwdata	00000004 alt_max_fd
018184b8 g     F .text	00000040 alt_read_query_entry_8bit
018111c8 g     F .text	0000006c OS_MemCopy
01811234 g     F .text	000000d4 OS_Sched
0180691c g     F .text	00000138 __unpack_d
0180da64 g     F .text	00000110 _fclose_r
01813600 g     F .text	00000104 OSMemGet
01816b64 g     F .text	000001c4 OSTaskNameSet
0181db04 g     F .text	00000174 alt_erase_block_intel
0180a670 g     F .text	00000034 fflush
01821080 g     O .bss	00000004 __malloc_max_sbrked_mem
018210c0 g     O .bss	00000004 OSCtxSwCtr
0181d590 g     F .text	0000001c OSTimeTickHook
01820ffa g     O .rwdata	00000002 OSFlagNameSize
0180410c g     F .text	00000318 __kernel_sin
01805140 g     F .text	00000054 __extendsfdf2
01810ca4 g     F .text	00000104 OS_EventTaskRemoveMulti
01805624 g     F .text	00000074 __adddf3
01810a98 g     F .text	00000154 OS_EventTaskWaitMulti
0180c1f0 g     F .text	00000120 __b2d
01821012 g     O .rwdata	00000002 OSQSize
0180e338 g     F .text	000005b0 __umoddi3
0180eee0 g     F .text	000000f0 lseek
01815394 g     F .text	0000027c OSSemPend
01820f9c g     O .rwdata	00000004 __fdlib_version
01820fa4 g     O .rwdata	00000004 _global_impure_ptr
0180cfa8 g     F .text	000005f4 _realloc_r
01820ffc g     O .rwdata	00000002 OSLowestPrio
01828c3c g       *ABS*	00000000 __bss_end
0181c960 g     F .text	000000f8 alt_iic_isr_register
0181d600 g     F .text	00000020 OSTCBInitHook
01821042 g     O .rwdata	00000002 OSTmrCfgTicksPerSec
0181cef0 g     F .text	00000110 alt_tick
0180dd5c g     F .text	000005dc __udivdi3
01820fe4 g     O .rwdata	00000002 OSEventEn
0181ee50 g     O .rodata	00000028 __mprec_bigtens
0180ce88 g     F .text	00000120 __s2b
0182103e g     O .rwdata	00000002 OSTmrCfgNameSize
0180e970 g     F .text	00000194 __floatunsidf
0180c110 g     F .text	00000060 __mcmp
0181b7e0 g     F .text	00000184 altera_avalon_uart_init
01821068 g     O .rwdata	00000004 __ctype_ptr
0180a7d8 g     F .text	00000018 __fp_lock_all
0181c918 g     F .text	00000048 alt_ic_irq_enabled
01813144 g     F .text	000000e4 OS_FlagInit
0181ce58 g     F .text	00000098 alt_alarm_stop
01821020 g     O .rwdata	00000002 OSTaskIdleStkSize
01821104 g     O .bss	00000004 alt_irq_active
01814f20 g     F .text	000000c0 OSSemAccept
01813930 g     F .text	000000f0 OSMemPut
018133e4 g     F .text	0000021c OSMemCreate
018210c4 g     O .bss	00000004 OSIdleCtrMax
02808000 g       *ABS*	00000000 __alt_mem_onchip_mem
028080fc g     F .exceptions	000000d0 alt_irq_handler
0181fabc g     O .rwdata	00000028 alt_dev_null
01821034 g     O .rwdata	00000002 OSTicksPerSec
01801660 g     F .text	000000f8 setPwmDutyCycle
01803290 g     F .text	00000e7c __kernel_rem_pio2
01806514 g     F .text	000000c8 __unpack_f
018189d0 g     F .text	000000ac alt_set_flash_algorithm_func
0181d138 g       .text	00000000 OSIntCtxSw
0180bfdc g     F .text	00000070 __hi0bits
01805fcc g     F .text	000000d8 __fixdfsi
01818584 g     F .text	0000003c alt_write_flash_command_8bit_device_8bit_mode
018210c8 g     O .bss	00000004 OSTCBFreeList
01815610 g     F .text	0000017c OSSemPendAbort
01820fc0 g     O .rwdata	00000008 alt_dev_list
0180f394 g     F .text	00000120 write
01801f24 g     F .text	00000350 __ieee754_atan2
01821038 g     O .rwdata	00000002 OSVersionNbr
0180ec8c g     F .text	000000d4 fstat
01819824 g     F .text	000000dc alt_check_primary_table
01820fe0 g     O .rwdata	00000004 OSEndiannessTest
0180cd68 g     F .text	00000120 __pow5mult
01821070 g     O .bss	00000004 __nlocale_changed
01806294 g     F .text	00000008 __umodsi3
01818004 g     F .text	00000068 alt_flash_cfi_read
01818758 g     F .text	00000034 alt_write_native_8bit
01820ff2 g     O .rwdata	00000002 OSFlagGrpSize
01828c3c g       *ABS*	00000000 end
018063b4 g     F .text	00000160 __pack_f
018185c0 g     F .text	0000007c alt_write_flash_command_16bit_device_8bit_mode
0181ae30 g     F .text	00000530 altera_avalon_lcd_16207_write
0181c06c g     F .text	00000248 altera_avalon_uart_write
01818af8 g     F .text	00000580 alt_read_cfi_table
01819a48 g     F .text	00000138 altera_avalon_jtag_uart_init
018114ac g     F .text	000000c8 OS_TaskStat
028081cc g     F .exceptions	00000068 alt_instruction_exception_entry
0181e810 g       *ABS*	00000000 __CTOR_LIST__
02000000 g       *ABS*	00000000 __alt_stack_pointer
0181b658 g     F .text	00000090 alt_avalon_timer_sc_init
0181b740 g     F .text	00000058 altera_avalon_uart_write_fd
01806334 g     F .text	00000080 __clzsi2
0181b798 g     F .text	00000048 altera_avalon_uart_close_fd
0181a380 g     F .text	000002dc altera_avalon_jtag_uart_write
01801a10 g     F .text	00000168 cos
01817be0 g     F .text	0000009c alt_flash_cfi_init
0180a6fc g     F .text	00000004 __sfp_lock_acquire
0180bd58 g     F .text	000000e4 memchr
01811174 g     F .text	00000054 OS_MemClr
01806c9c g     F .text	00001eac ___vfprintf_internal_r
0181d208 g     F .text	00000310 OSTaskStkInit
01800e34 g     F .text	000002c8 task1
0180aa90 g     F .text	00000314 _free_r
018107f4 g     F .text	00000194 OS_EventTaskRdy
0181e588 g     F .text	000001b0 __call_exitprocs
018210cc g     O .bss	00000001 OSCPUUsage
01821074 g     O .bss	00000004 __mlocale_changed
01820fb4 g     O .rwdata	00000004 __malloc_sbrk_base
01800000 g     F .text	00000048 _start
018010fc g     F .text	000002e8 task2
01821108 g     O .bss	00000004 _alt_tick_rate
0181431c g     F .text	00000320 OSQPend
01801c84 g     F .text	0000016c sin
01817528 g     F .text	0000014c OSTimeDly
0180c8f8 g     F .text	0000014c __lshift
01801df0 g     F .text	00000004 atan2
0182110c g     O .bss	00000004 _alt_nticks
0180f0f8 g     F .text	00000120 read
01817aec g     F .text	000000bc alt_sys_init
018050a8 g     F .text	00000098 __floatsisf
0181e450 g     F .text	00000134 __register_exitproc
018210cd g     O .bss	00000001 OSTaskCtr
018184f8 g     F .text	00000044 alt_read_query_entry_16bit
01817674 g     F .text	0000016c OSTimeDlyHMSM
0180ca44 g     F .text	000001e8 __multiply
01819f58 g     F .text	00000074 altera_avalon_jtag_uart_close
01821754 g     O .bss	00000028 __malloc_current_mallinfo
01820fe6 g     O .rwdata	00000002 OSEventMax
018187f0 g     F .text	000001e0 alt_set_flash_width_func
0180c5f0 g     F .text	0000017c __d2b
0181578c g     F .text	00000128 OSSemPost
01810378 g     F .text	000000e4 OSSchedUnlock
01819900 g     F .text	00000058 altera_avalon_jtag_uart_read_fd
0181e1c0 g     F .text	000000f4 alt_get_fd
018210d0 g     O .bss	00000004 OSMemFreeList
018104cc g     F .text	000000ac OSStatInit
0181dee0 g     F .text	0000012c alt_busy_sleep
01812eac g     F .text	000000d4 OSFlagQuery
01806a54 g     F .text	000000c8 __fpcmp_parts_d
0182101c g     O .rwdata	00000002 OSTaskCreateExtEn
0180d9f4 g     F .text	00000070 _close_r
0181d688 g     F .text	00000218 alt_erase_block_amd
0181e3dc g     F .text	00000074 memcmp
018107d8 g     F .text	0000001c OS_Dummy
018199b0 g     F .text	00000048 altera_avalon_jtag_uart_close_fd
01828c3c g       *ABS*	00000000 __alt_stack_base
018199f8 g     F .text	00000050 altera_avalon_jtag_uart_ioctl_fd
0180194c g     F .text	000000c4 smoothstep
01808b6c g     F .text	0000013c __swsetup_r
01819078 g     F .text	000007ac alt_read_cfi_width
01826f28 g     O .bss	000001e0 OSQTbl
01805a5c g     F .text	00000258 __divdf3
0180a874 g     F .text	000000f0 __sfp
0180c454 g     F .text	00000058 __copybits
0181f6b4 g     O .rwdata	00000408 __malloc_av_
0180a708 g     F .text	00000004 __sinit_lock_release
018210d4 g     O .bss	00000004 OSTCBHighRdy
01805698 g     F .text	000003c4 __muldf3
0180d738 g     F .text	00000060 __sread
0182377c g     O .bss	0000000c solution2
0181eb90 g     O .rodata	00000010 __thenan_sf
018210d8 g     O .bss	00000004 OSQFreeList
0181e0a0 g     F .text	00000120 alt_find_file
0181c4e0 g     F .text	000000b4 alt_dev_llist_insert
0180f61c g     F .text	00000108 __malloc_lock
0180f2d8 g     F .text	000000bc sbrk
0180f924 g     F .text	00000144 OSEventNameSet
0180a474 g     F .text	000001fc _fflush_r
0180d940 g     F .text	000000b4 _calloc_r
018210dc g     O .bss	00000001 OSRdyGrp
01821054 g     O .rwdata	00000008 alt_flash_dev_list
01818684 g     F .text	00000044 alt_write_flash_command_16bit_device_16bit_mode
0182106c g       *ABS*	00000000 __bss_start
0180bf1c g     F .text	00000098 memset
018013e4 g     F .text	000000ac main
01821098 g     O .bss	00000004 alt_envp
01821084 g     O .bss	00000004 __malloc_max_total_mem
01819958 g     F .text	00000058 altera_avalon_jtag_uart_write_fd
0181eec8 g     O .rodata	00000100 OSUnMapTbl
0181b42c g     F .text	00000164 altera_avalon_lcd_16207_init
01821016 g     O .rwdata	00000002 OSSemEn
01812b04 g     F .text	000003a8 OSFlagPost
0180d64c g     F .text	00000008 __sclose
01804d28 g     F .text	00000008 matherr
02000000 g       *ABS*	00000000 __alt_heap_limit
0180db74 g     F .text	00000014 fclose
01810988 g     F .text	00000110 OS_EventTaskWait
01823788 g     O .bss	00002000 task2_stk
018060dc g     F .text	00000074 __truncdfsf2
01811574 g     F .text	000000c8 OS_TaskStatStkChk
01828aac g     O .bss	00000190 _atexit0
0181683c g     F .text	00000170 OSTaskDelReq
01808ec0 g     F .text	000015b4 _dtoa_r
0180b618 g     F .text	00000740 _malloc_r
01820fcc g     O .rwdata	00000004 alt_errno
0181045c g     F .text	00000070 OSStart
01818710 g     F .text	00000048 alt_write_flash_command_32bit_device_32bit_mode
0180f5c0 g     F .text	0000005c __env_unlock
0180b308 g     F .text	000000b8 _fwalk
01816d28 g     F .text	00000218 OSTaskResume
01813a20 g     F .text	000000fc OSMemQuery
01821028 g     O .rwdata	00000002 OSTaskStatEn
0181806c g     F .text	00000164 alt_write_value_to_flash
01821002 g     O .rwdata	00000002 OSMemMax
01814938 g     F .text	00000188 OSQPostFront
0181878c g     F .text	00000034 alt_write_native_16bit
018061cc g     F .text	00000060 __divsi3
018210dd g     O .bss	00000003 OSRdyTbl
01820fdc g     O .rwdata	00000002 OSDebugEn
02400000 g       *ABS*	00000000 __alt_mem_cfi_flash
0181eba0 g     O .rodata	00000014 __thenan_df
0180a964 g     F .text	0000012c _malloc_trim_r
0181e814 g       *ABS*	00000000 __CTOR_END__
01801758 g     F .text	00000184 setServoPosition
01820ff4 g     O .rwdata	00000002 OSFlagNodeSize
0182103c g     O .rwdata	00000002 OSTmrCfgMax
0180d798 g     F .text	000000bc strcmp
01813d40 g     F .text	00000214 OSQCreate
018169ac g     F .text	000001b8 OSTaskNameGet
01814ac0 g     F .text	00000234 OSQPostOpt
01810578 g     F .text	00000240 OSTimeTick
01821024 g     O .rwdata	00000002 OSTaskMax
0181e814 g       *ABS*	00000000 __DTOR_LIST__
01814fe0 g     F .text	00000114 OSSemCreate
01821048 g     O .rwdata	00000002 OSTmrWheelSize
01804f10 g     F .text	00000024 copysign
0180e8e8 g     F .text	00000088 __nedf2
0182101e g     O .rwdata	00000002 OSTaskDelEn
018158b4 g     F .text	00000130 OSSemQuery
01813f54 g     F .text	00000300 OSQDel
0181463c g     F .text	0000017c OSQPendAbort
01817ab8 g     F .text	00000034 alt_irq_init
0180f278 g     F .text	00000060 alt_release_fd
01804424 g     F .text	00000698 atan
0181ebb4 g     O .rodata	00000100 __clz_tab
01821078 g     O .bss	00000004 _PathLocale
0181e390 g     F .text	00000014 atexit
0180d8c8 g     F .text	00000078 _write_r
01801490 g     F .text	000001d0 initilisePwm
018102ec g     F .text	0000008c OSSchedLock
0180b468 g     F .text	0000001c setlocale
01811ddc g     F .text	0000013c OSFlagCreate
01820fa0 g     O .rwdata	00000004 _impure_ptr
01821090 g     O .bss	00000004 alt_argc
01804d30 g     F .text	000001e0 scalbn
018210fc g     O .bss	00000004 altera_avalon_timer_ts_base
0181c658 g     F .text	00000064 _do_dtors
01820fee g     O .rwdata	00000002 OSEventMultiEn
01811f18 g     F .text	000002a8 OSFlagDel
018210e0 g     O .bss	00000004 OSEventFreeList
02808020 g       .exceptions	00000000 alt_irq_entry
0180c170 g     F .text	00000080 __ulp
0180d59c g     F .text	00000040 __isinfd
01812458 g     F .text	00000644 OSFlagPend
0182103a g     O .rwdata	00000002 OSTmrEn
0180a7c0 g     F .text	00000018 __fp_unlock_all
0181b590 g     F .text	00000058 altera_avalon_lcd_16207_write_fd
01820fb8 g     O .rwdata	00000008 alt_fs_list
01811378 g     F .text	00000080 OS_StrCopy
0181863c g     F .text	00000048 alt_write_flash_command_32bit_device_8bit_mode
01821004 g     O .rwdata	00000002 OSMemNameSize
0181d5c8 g     F .text	0000001c OSInitHookEnd
01821030 g     O .rwdata	00000002 OSTCBPrioTblMax
0180b3d4 g     F .text	00000010 localeconv
01802a9c g     F .text	000002c8 __ieee754_sqrt
0182102c g     O .rwdata	00000002 OSTaskStatStkChkEn
0181c78c g     F .text	00000050 alt_ic_isr_register
01821000 g     O .rwdata	00000002 OSMemEn
0182100a g     O .rwdata	00000002 OSMutexEn
0182106c g       *ABS*	00000000 _edata
0181b6e8 g     F .text	00000058 altera_avalon_uart_read_fd
01828c3c g       *ABS*	00000000 _end
0181c6bc g     F .text	0000007c alt_flash_open_dev
018210e4 g     O .bss	00000001 OSIntNesting
01819fcc g     F .text	000000f4 altera_avalon_jtag_uart_ioctl
018177e0 g     F .text	00000210 OSTimeDlyResume
01812304 g     F .text	00000154 OSFlagNameSet
01816f40 g     F .text	000001fc OSTaskStkChk
0181c878 g     F .text	000000a0 alt_ic_irq_disable
01821006 g     O .rwdata	00000002 OSMemSize
0180d6bc g     F .text	0000007c __swrite
01820fb0 g     O .rwdata	00000004 __malloc_trim_threshold
018210e8 g     O .bss	00000004 OSTCBCur
0181e3a4 g     F .text	00000038 exit
01821008 g     O .rwdata	00000002 OSMemTblSize
0180b240 g     F .text	000000c8 _fwalk_reent
0180c76c g     F .text	0000018c __mdiff
0181c738 g     F .text	00000054 alt_flash_close_dev
0180622c g     F .text	00000060 __modsi3
02000000 g       *ABS*	00000000 __alt_data_end
02808020 g     F .exceptions	00000000 alt_exception
0180a700 g     F .text	00000004 __sfp_lock_release
0181011c g     F .text	00000054 OSInit
01800000 g       *ABS*	00000000 __alt_mem_sdram
01817368 g     F .text	00000144 OSTaskQuery
01814e74 g     F .text	000000ac OS_QInit
018113f8 g     F .text	00000058 OS_StrLen
01813810 g     F .text	00000120 OSMemNameSet
0181f024 g     O .rodata	00000101 _ctype_
01821022 g     O .rwdata	00000002 OSTaskProfileEn
018210ec g     O .bss	00000004 OSTime
0181bcfc g     F .text	00000060 altera_avalon_uart_close
01827108 g     O .bss	00000800 OSTaskIdleStk
0181e778 g     F .text	0000002c _exit
01804cf8 g     F .text	00000030 __isnand
0181c314 g     F .text	00000154 alt_alarm_start
018121c0 g     F .text	00000144 OSFlagNameGet
018179f0 g     F .text	00000064 OSTimeGet
0180629c g     F .text	00000098 __muldi3
0180b484 g     F .text	00000194 __smakebuf_r
018187c0 g     F .text	00000030 alt_write_native_32bit
0180d854 g     F .text	00000074 strlen
0181d558 g     F .text	0000001c OSTaskSwHook
0181cc70 g     F .text	00000188 open
01827908 g     O .bss	00000b40 OSEventTbl
01805dc4 g     F .text	00000088 __gedf2
01828448 g     O .bss	00000510 OSTCBTbl
018159e4 g     F .text	00000104 OSSemSet
01817f74 g     F .text	00000090 alt_flash_cfi_get_info
0182105c g     O .rwdata	00000004 alt_priority_mask
018150f4 g     F .text	000002a0 OSSemDel
018210f0 g     O .bss	00000004 OSFlagFreeList
0181c7dc g     F .text	0000009c alt_ic_irq_enable
01820fe8 g     O .rwdata	00000002 OSEventNameSize
01808b48 g     F .text	00000024 __vfprintf_internal
018210f4 g     O .bss	00000001 OSStatRdy
01828958 g     O .bss	00000054 OSTCBPrioTbl
0181bd5c g     F .text	000002b0 altera_avalon_uart_read
0180f514 g     F .text	000000ac __env_lock
0182102e g     O .rwdata	00000002 OSTaskSwHookEn
018055a4 g     F .text	00000080 __subdf3
0180c04c g     F .text	000000c4 __lo0bits
01821060 g     O .rwdata	00000008 alt_alarm_list
01820ff6 g     O .rwdata	00000002 OSFlagWidth
0181c5f4 g     F .text	00000064 _do_ctors
0180eb04 g     F .text	000000fc close
0181d620 g     F .text	00000068 alt_program_amd
018210a0 g     O .bss	00000004 alt_envsem
018210f8 g     O .bss	00000004 OSIdleCtrRun
018107b8 g     F .text	00000020 OSVersion
01821040 g     O .rwdata	00000002 OSTmrCfgWheelSize
018174ac g     F .text	0000007c OS_TaskStkClr
01806608 g     F .text	00000314 __pack_d
0182101a g     O .rwdata	00000002 OSTaskCreateEn
01810da8 g     F .text	00000068 OS_EventWaitListInit
0181d5e4 g     F .text	0000001c OSTaskIdleHook
00000000  w      *UND*	00000000 free
0180a704 g     F .text	00000004 __sinit_lock_acquire
0180cc68 g     F .text	00000100 __multadd
0181713c g     F .text	0000022c OSTaskSuspend
0180bfb4 g     F .text	00000028 _Bfree
01811450 g     F .text	0000005c OS_TaskIdle
01821046 g     O .rwdata	00000002 OSTmrTblSize
01814cf4 g     F .text	00000180 OSQQuery



Disassembly of section .exceptions:

02808020 <alt_exception>:
         * Process an exception.  For all exceptions we must preserve all
         * caller saved registers on the stack (See the Nios2 ABI
         * documentation for details).
         */

        addi  sp, sp, -76
 2808020:	deffed04 	addi	sp,sp,-76

#endif

#endif

        stw   ra,  0(sp)
 2808024:	dfc00015 	stw	ra,0(sp)
        /*
         * Leave a gap in the stack frame at 4(sp) for the muldiv handler to
         * store zero into.
         */

        stw   r1,   8(sp)
 2808028:	d8400215 	stw	at,8(sp)
        stw   r2,  12(sp)
 280802c:	d8800315 	stw	r2,12(sp)
        stw   r3,  16(sp)
 2808030:	d8c00415 	stw	r3,16(sp)
        stw   r4,  20(sp)
 2808034:	d9000515 	stw	r4,20(sp)
        stw   r5,  24(sp)
 2808038:	d9400615 	stw	r5,24(sp)
        stw   r6,  28(sp)
 280803c:	d9800715 	stw	r6,28(sp)
        stw   r7,  32(sp)
 2808040:	d9c00815 	stw	r7,32(sp)

        rdctl r5, estatus
 2808044:	000b307a 	rdctl	r5,estatus

        stw   r8,  36(sp)
 2808048:	da000915 	stw	r8,36(sp)
        stw   r9,  40(sp)
 280804c:	da400a15 	stw	r9,40(sp)
        stw   r10, 44(sp)
 2808050:	da800b15 	stw	r10,44(sp)
        stw   r11, 48(sp)
 2808054:	dac00c15 	stw	r11,48(sp)
        stw   r12, 52(sp)
 2808058:	db000d15 	stw	r12,52(sp)
        stw   r13, 56(sp)
 280805c:	db400e15 	stw	r13,56(sp)
        stw   r14, 60(sp)
 2808060:	db800f15 	stw	r14,60(sp)
        stw   r15, 64(sp)
 2808064:	dbc01015 	stw	r15,64(sp)
        /*
         * ea-4 contains the address of the instruction being executed
         * when the exception occured. For interrupt exceptions, we will
         * will be re-issue the isntruction. Store it in 72(sp)
         */
        stw   r5,  68(sp)  /* estatus */
 2808068:	d9401115 	stw	r5,68(sp)
        addi  r15, ea, -4  /* instruction that caused exception */
 280806c:	ebffff04 	addi	r15,ea,-4
        stw   r15,  72(sp)
 2808070:	dbc01215 	stw	r15,72(sp)
#else
        /*
         * Test to see if the exception was a software exception or caused 
         * by an external interrupt, and vector accordingly.
         */
        rdctl r4, ipending
 2808074:	0009313a 	rdctl	r4,ipending
        andi  r2, r5, 1
 2808078:	2880004c 	andi	r2,r5,1
        beq   r2, zero, .Lnot_irq
 280807c:	10000326 	beq	r2,zero,280808c <alt_exception+0x6c>
        beq   r4, zero, .Lnot_irq
 2808080:	20000226 	beq	r4,zero,280808c <alt_exception+0x6c>
        /*
         * Now that all necessary registers have been preserved, call 
         * alt_irq_handler() to process the interrupts.
         */

        call alt_irq_handler
 2808084:	28080fc0 	call	28080fc <alt_irq_handler>

        .section .exceptions.irqreturn, "xa"

        br    .Lexception_exit
 2808088:	00000706 	br	28080a8 <alt_exception+0x88>
         * upon completion, so we write ea (address of instruction *after*
         * the one where the exception occured) into 72(sp). The actual
         * instruction that caused the exception is written in r2, which these
         * handlers will utilize.
         */
        stw   ea,  72(sp)  /* Don't re-issue */
 280808c:	df401215 	stw	ea,72(sp)
        ldw   r2, -4(ea)   /* Instruction that caused exception */
 2808090:	e8bfff17 	ldw	r2,-4(ea)
         * debugger is present) or go into an infinite loop since the
         * handling behavior is undefined; in that case we will not return here.
         */

        /* Load exception-causing address as first argument (r4) */
        addi   r4, ea, -4
 2808094:	e93fff04 	addi	r4,ea,-4

        /* Call the instruction-exception entry */
        call   alt_instruction_exception_entry
 2808098:	28081cc0 	call	28081cc <alt_instruction_exception_entry>
         * instruction
         *
         * Return code was 0: Skip. The instruction after the exception is
         * already stored in 72(sp).
         */
        bne   r2, r0, .Lexception_exit
 280809c:	1000021e 	bne	r2,zero,28080a8 <alt_exception+0x88>

        /*
         * Otherwise, modify 72(sp) to re-issue the instruction that caused the
         * exception.
         */
        addi  r15, ea, -4  /* instruction that caused exception */
 28080a0:	ebffff04 	addi	r15,ea,-4
        stw   r15,  72(sp)
 28080a4:	dbc01215 	stw	r15,72(sp)
        /* 
         * Restore the saved registers, so that all general purpose registers 
         * have been restored to their state at the time the interrupt occured.
         */

        ldw   r5,  68(sp)
 28080a8:	d9401117 	ldw	r5,68(sp)
        ldw   ea,  72(sp)  /* This becomes the PC once eret is executed */
 28080ac:	df401217 	ldw	ea,72(sp)
        ldw   ra,   0(sp)
 28080b0:	dfc00017 	ldw	ra,0(sp)

        wrctl estatus, r5
 28080b4:	2801707a 	wrctl	estatus,r5

        ldw   r1,   8(sp)
 28080b8:	d8400217 	ldw	at,8(sp)
        ldw   r2,  12(sp)
 28080bc:	d8800317 	ldw	r2,12(sp)
        ldw   r3,  16(sp)
 28080c0:	d8c00417 	ldw	r3,16(sp)
        ldw   r4,  20(sp)
 28080c4:	d9000517 	ldw	r4,20(sp)
        ldw   r5,  24(sp)
 28080c8:	d9400617 	ldw	r5,24(sp)
        ldw   r6,  28(sp)
 28080cc:	d9800717 	ldw	r6,28(sp)
        ldw   r7,  32(sp)
 28080d0:	d9c00817 	ldw	r7,32(sp)
#ifdef ALT_STACK_CHECK
        ldw   et, %gprel(alt_exception_old_stack_limit)(gp)
#endif
#endif

        ldw   r8,  36(sp)
 28080d4:	da000917 	ldw	r8,36(sp)
        ldw   r9,  40(sp)
 28080d8:	da400a17 	ldw	r9,40(sp)
        ldw   r10, 44(sp)
 28080dc:	da800b17 	ldw	r10,44(sp)
        ldw   r11, 48(sp)
 28080e0:	dac00c17 	ldw	r11,48(sp)
        ldw   r12, 52(sp)
 28080e4:	db000d17 	ldw	r12,52(sp)
        ldw   r13, 56(sp)
 28080e8:	db400e17 	ldw	r13,56(sp)
        ldw   r14, 60(sp)
 28080ec:	db800f17 	ldw	r14,60(sp)
        ldw   r15, 64(sp)
 28080f0:	dbc01017 	ldw	r15,64(sp)
#endif

        ldw   sp,  76(sp)

#else
        addi  sp, sp, 76
 28080f4:	dec01304 	addi	sp,sp,76

        /*
         * Return to the interrupted instruction.
         */

        eret
 28080f8:	ef80083a 	eret

028080fc <alt_irq_handler>:
 * instruction is present if the macro ALT_CI_INTERRUPT_VECTOR defined.
 */

void alt_irq_handler (void) __attribute__ ((section (".exceptions")));
void alt_irq_handler (void)
{
 28080fc:	defff904 	addi	sp,sp,-28
 2808100:	dfc00615 	stw	ra,24(sp)
 2808104:	df000515 	stw	fp,20(sp)
 2808108:	df000504 	addi	fp,sp,20
  
  /*
   * Notify the operating system that we are at interrupt level.
   */ 
  
  ALT_OS_INT_ENTER();
 280810c:	18101700 	call	1810170 <OSIntEnter>
#ifndef NIOS2_EIC_PRESENT
static ALT_INLINE alt_u32 ALT_ALWAYS_INLINE alt_irq_pending (void)
{
  alt_u32 active;

  NIOS2_READ_IPENDING (active);
 2808110:	0005313a 	rdctl	r2,ipending
 2808114:	e0bffc15 	stw	r2,-16(fp)

  return active;
 2808118:	e0bffc17 	ldw	r2,-16(fp)
   * Consider the case where the high priority interupt is asserted during
   * the interrupt entry sequence for a lower priority interrupt to see why
   * this is the case.
   */

  active = alt_irq_pending ();
 280811c:	e0bfff15 	stw	r2,-4(fp)

  do
  {
    i = 0;
 2808120:	e03ffd15 	stw	zero,-12(fp)
    mask = 1;
 2808124:	00800044 	movi	r2,1
 2808128:	e0bffe15 	stw	r2,-8(fp)
     * called to clear the interrupt condition.
     */

    do
    {
      if (active & mask)
 280812c:	e0ffff17 	ldw	r3,-4(fp)
 2808130:	e0bffe17 	ldw	r2,-8(fp)
 2808134:	1884703a 	and	r2,r3,r2
 2808138:	1005003a 	cmpeq	r2,r2,zero
 280813c:	1000161e 	bne	r2,zero,2808198 <alt_irq_handler+0x9c>
      { 
#ifdef ALT_ENHANCED_INTERRUPT_API_PRESENT
        alt_irq[i].handler(alt_irq[i].context); 
 2808140:	e0bffd17 	ldw	r2,-12(fp)
 2808144:	00c060f4 	movhi	r3,387
 2808148:	18e26b04 	addi	r3,r3,-30292
 280814c:	100490fa 	slli	r2,r2,3
 2808150:	10c5883a 	add	r2,r2,r3
 2808154:	11400017 	ldw	r5,0(r2)
 2808158:	e0bffd17 	ldw	r2,-12(fp)
 280815c:	00c060f4 	movhi	r3,387
 2808160:	18e26b04 	addi	r3,r3,-30292
 2808164:	100490fa 	slli	r2,r2,3
 2808168:	10c5883a 	add	r2,r2,r3
 280816c:	10800104 	addi	r2,r2,4
 2808170:	11000017 	ldw	r4,0(r2)
 2808174:	283ee83a 	callr	r5
#ifndef NIOS2_EIC_PRESENT
static ALT_INLINE alt_u32 ALT_ALWAYS_INLINE alt_irq_pending (void)
{
  alt_u32 active;

  NIOS2_READ_IPENDING (active);
 2808178:	0005313a 	rdctl	r2,ipending
 280817c:	e0bffb15 	stw	r2,-20(fp)

  return active;
 2808180:	e0bffb17 	ldw	r2,-20(fp)
      mask <<= 1;
      i++;

    } while (1);

    active = alt_irq_pending ();
 2808184:	e0bfff15 	stw	r2,-4(fp)
    
  } while (active);
 2808188:	e0bfff17 	ldw	r2,-4(fp)
 280818c:	1004c03a 	cmpne	r2,r2,zero
 2808190:	103fe31e 	bne	r2,zero,2808120 <alt_irq_handler+0x24>
 2808194:	00000706 	br	28081b4 <alt_irq_handler+0xb8>
#else
        alt_irq[i].handler(alt_irq[i].context, i); 
#endif
        break;
      }
      mask <<= 1;
 2808198:	e0bffe17 	ldw	r2,-8(fp)
 280819c:	1085883a 	add	r2,r2,r2
 28081a0:	e0bffe15 	stw	r2,-8(fp)
      i++;
 28081a4:	e0bffd17 	ldw	r2,-12(fp)
 28081a8:	10800044 	addi	r2,r2,1
 28081ac:	e0bffd15 	stw	r2,-12(fp)

    } while (1);
 28081b0:	003fde06 	br	280812c <alt_irq_handler+0x30>

  /*
   * Notify the operating system that interrupt processing is complete.
   */ 

  ALT_OS_INT_EXIT();
 28081b4:	18101ec0 	call	18101ec <OSIntExit>
}
 28081b8:	e037883a 	mov	sp,fp
 28081bc:	dfc00117 	ldw	ra,4(sp)
 28081c0:	df000017 	ldw	fp,0(sp)
 28081c4:	dec00204 	addi	sp,sp,8
 28081c8:	f800283a 	ret

028081cc <alt_instruction_exception_entry>:
 * using alt_instruction_exception_register(). This routine will call
 * that handler if it has been registered. Absent a handler, it will
 * break break or hang as discussed below.
 */
int alt_instruction_exception_entry (alt_u32 exception_pc)
{
 28081cc:	defffa04 	addi	sp,sp,-24
 28081d0:	dfc00515 	stw	ra,20(sp)
 28081d4:	df000415 	stw	fp,16(sp)
 28081d8:	df000404 	addi	fp,sp,16
 28081dc:	e13ffe15 	stw	r4,-8(fp)
  cause = ( (cause & NIOS2_EXCEPTION_REG_CAUSE_MASK) >>
              NIOS2_EXCEPTION_REG_CAUSE_OFST );

  NIOS2_READ_BADADDR(badaddr);
#else
  cause = NIOS2_EXCEPTION_CAUSE_NOT_PRESENT;
 28081e0:	00bfffc4 	movi	r2,-1
 28081e4:	e0bffd15 	stw	r2,-12(fp)
  badaddr = 0;
 28081e8:	e03ffc15 	stw	zero,-16(fp)
#endif /* NIOS2_HAS_EXTRA_EXCEPTION_INFO */

  if(alt_instruction_exception_handler) {
 28081ec:	d0a05d17 	ldw	r2,-32396(gp)
 28081f0:	1005003a 	cmpeq	r2,r2,zero
 28081f4:	1000071e 	bne	r2,zero,2808214 <alt_instruction_exception_entry+0x48>
     * Call handler. Its return value indicates whether the exception-causing
     * instruction should be re-issued. The code that called us,
     * alt_eceptions_entry.S, will look at this value and adjust the ea
     * register as necessary
     */
    return alt_instruction_exception_handler(cause, exception_pc, badaddr);
 28081f8:	d0a05d17 	ldw	r2,-32396(gp)
 28081fc:	e13ffd17 	ldw	r4,-12(fp)
 2808200:	e17ffe17 	ldw	r5,-8(fp)
 2808204:	e1bffc17 	ldw	r6,-16(fp)
 2808208:	103ee83a 	callr	r2
 280820c:	e0bfff15 	stw	r2,-4(fp)
 2808210:	00000206 	br	280821c <alt_instruction_exception_entry+0x50>
   *    (a peripheral which negates its interrupt output before its
   *    interrupt handler has been executed will cause spurious interrupts)
   */
  else {
#ifdef NIOS2_HAS_DEBUG_STUB
    NIOS2_BREAK();
 2808214:	003da03a 	break	0
      ;
#endif /* NIOS2_HAS_DEBUG_STUB */
  }

  /* // We should not get here. Remove compiler warning. */
  return NIOS2_EXCEPTION_RETURN_REISSUE_INST;
 2808218:	e03fff15 	stw	zero,-4(fp)
 280821c:	e0bfff17 	ldw	r2,-4(fp)
}
 2808220:	e037883a 	mov	sp,fp
 2808224:	dfc00117 	ldw	ra,4(sp)
 2808228:	df000017 	ldw	fp,0(sp)
 280822c:	dec00204 	addi	sp,sp,8
 2808230:	f800283a 	ret

Disassembly of section .text:

01800000 <_start>:

    /* Assume the data cache size is always a power of two. */
#if NIOS2_DCACHE_SIZE > 0x8000
    movhi r2, %hi(NIOS2_DCACHE_SIZE)
#else
    movui r2, NIOS2_DCACHE_SIZE
 1800000:	00840014 	movui	r2,4096
#endif

0:
    initd 0(r2)
 1800004:	10000033 	initd	0(r2)
    addi r2, r2, -NIOS2_DCACHE_LINE_SIZE
 1800008:	10bff804 	addi	r2,r2,-32
    bgt r2, zero, 0b
 180000c:	00bffd16 	blt	zero,r2,1800004 <_start+0x4>
#if (NIOS2_NUM_OF_SHADOW_REG_SETS == 0)    
    /*
     * Now that the caches are initialized, set up the stack pointer.
     * The value provided by the linker is assumed to be correctly aligned.
     */
    movhi sp, %hi(__alt_stack_pointer)
 1800010:	06c08034 	movhi	sp,512
    ori sp, sp, %lo(__alt_stack_pointer)
 1800014:	dec00014 	ori	sp,sp,0

    /* Set up the global pointer. */
    movhi gp, %hi(_gp)
 1800018:	068060b4 	movhi	gp,386
    ori gp, gp, %lo(_gp)
 180001c:	d6a3e714 	ori	gp,gp,36764
 */
#ifndef ALT_SIM_OPTIMIZE
    /* Log that the BSS is about to be cleared. */
    ALT_LOG_PUTS(alt_log_msg_bss)

    movhi r2, %hi(__bss_start)
 1800020:	008060b4 	movhi	r2,386
    ori r2, r2, %lo(__bss_start)
 1800024:	10841b14 	ori	r2,r2,4204

    movhi r3, %hi(__bss_end)
 1800028:	00c060b4 	movhi	r3,386
    ori r3, r3, %lo(__bss_end)
 180002c:	18e30f14 	ori	r3,r3,35900

    beq r2, r3, 1f
 1800030:	10c00326 	beq	r2,r3,1800040 <_start+0x40>

0:
    stw zero, (r2)
 1800034:	10000015 	stw	zero,0(r2)
    addi r2, r2, 4
 1800038:	10800104 	addi	r2,r2,4
    bltu r2, r3, 0b
 180003c:	10fffd36 	bltu	r2,r3,1800034 <_start+0x34>

    /* Log that alt_main is about to be called. */
    ALT_LOG_PUTS(alt_log_msg_alt_main)

    /* Call the C entry point. It should never return. */
    call alt_main
 1800040:	180f0300 	call	180f030 <alt_main>

01800044 <alt_after_alt_main>:

    /* Wait in infinite loop in case alt_main does return. */
alt_after_alt_main:
    br alt_after_alt_main
 1800044:	003fff06 	br	1800044 <alt_after_alt_main>

01800048 <IK>:
#include "IK.h"
#include "math.h"

// length (l) only has 4 values but for compatibility with DH standard they start at index 1
float *IK(float l[5], float phi, float target[4], float solution[4])
{
 1800048:	deffe604 	addi	sp,sp,-104
 180004c:	dfc01915 	stw	ra,100(sp)
 1800050:	df001815 	stw	fp,96(sp)
 1800054:	dd401715 	stw	r21,92(sp)
 1800058:	dd001615 	stw	r20,88(sp)
 180005c:	dcc01515 	stw	r19,84(sp)
 1800060:	dc801415 	stw	r18,80(sp)
 1800064:	dc401315 	stw	r17,76(sp)
 1800068:	dc001215 	stw	r16,72(sp)
 180006c:	df001204 	addi	fp,sp,72
 1800070:	e13ffc15 	stw	r4,-16(fp)
 1800074:	e17ffd15 	stw	r5,-12(fp)
 1800078:	e1bffe15 	stw	r6,-8(fp)
 180007c:	e1ffff15 	stw	r7,-4(fp)

	float deg2rad = (float) M_PI/180;
 1800080:	008f23f4 	movhi	r2,15503
 1800084:	10be8d44 	addi	r2,r2,-1483
 1800088:	e0bffb15 	stw	r2,-20(fp)
	float rad2deg = (float) 180/M_PI;
 180008c:	00909974 	movhi	r2,16997
 1800090:	108bb804 	addi	r2,r2,12000
 1800094:	e0bffa15 	stw	r2,-24(fp)

//	printf("deg2rad: %f\n",deg2rad); //this print is needed to make the code work. no idea why.
//	printf("rad2deg: %f\n",rad2deg);

    float t1 = (float) atan2(target[1],target[0])*rad2deg; // theta 1
 1800098:	e0bffe17 	ldw	r2,-8(fp)
 180009c:	10800104 	addi	r2,r2,4
 18000a0:	10800017 	ldw	r2,0(r2)
 18000a4:	1009883a 	mov	r4,r2
 18000a8:	18051400 	call	1805140 <__extendsfdf2>
 18000ac:	1021883a 	mov	r16,r2
 18000b0:	1823883a 	mov	r17,r3
 18000b4:	e0bffe17 	ldw	r2,-8(fp)
 18000b8:	10800017 	ldw	r2,0(r2)
 18000bc:	1009883a 	mov	r4,r2
 18000c0:	18051400 	call	1805140 <__extendsfdf2>
 18000c4:	100f883a 	mov	r7,r2
 18000c8:	1811883a 	mov	r8,r3
 18000cc:	8009883a 	mov	r4,r16
 18000d0:	880b883a 	mov	r5,r17
 18000d4:	380d883a 	mov	r6,r7
 18000d8:	400f883a 	mov	r7,r8
 18000dc:	1801df00 	call	1801df0 <atan2>
 18000e0:	100b883a 	mov	r5,r2
 18000e4:	180d883a 	mov	r6,r3
 18000e8:	2809883a 	mov	r4,r5
 18000ec:	300b883a 	mov	r5,r6
 18000f0:	18060dc0 	call	18060dc <__truncdfsf2>
 18000f4:	1007883a 	mov	r3,r2
 18000f8:	e0bffa17 	ldw	r2,-24(fp)
 18000fc:	1885ff32 	custom	252,r2,r3,r2
 1800100:	e0bff915 	stw	r2,-28(fp)
    float z = (float) target[2]-(l[4]*sin(phi*deg2rad))-l[1];
 1800104:	e0bffe17 	ldw	r2,-8(fp)
 1800108:	10800204 	addi	r2,r2,8
 180010c:	10800017 	ldw	r2,0(r2)
 1800110:	1009883a 	mov	r4,r2
 1800114:	18051400 	call	1805140 <__extendsfdf2>
 1800118:	1025883a 	mov	r18,r2
 180011c:	1827883a 	mov	r19,r3
 1800120:	e0bffc17 	ldw	r2,-16(fp)
 1800124:	10800404 	addi	r2,r2,16
 1800128:	10800017 	ldw	r2,0(r2)
 180012c:	1009883a 	mov	r4,r2
 1800130:	18051400 	call	1805140 <__extendsfdf2>
 1800134:	1021883a 	mov	r16,r2
 1800138:	1823883a 	mov	r17,r3
 180013c:	e0fffd17 	ldw	r3,-12(fp)
 1800140:	e0bffb17 	ldw	r2,-20(fp)
 1800144:	1885ff32 	custom	252,r2,r3,r2
 1800148:	1009883a 	mov	r4,r2
 180014c:	18051400 	call	1805140 <__extendsfdf2>
 1800150:	100b883a 	mov	r5,r2
 1800154:	180d883a 	mov	r6,r3
 1800158:	2809883a 	mov	r4,r5
 180015c:	300b883a 	mov	r5,r6
 1800160:	1801c840 	call	1801c84 <sin>
 1800164:	100f883a 	mov	r7,r2
 1800168:	1811883a 	mov	r8,r3
 180016c:	8009883a 	mov	r4,r16
 1800170:	880b883a 	mov	r5,r17
 1800174:	380d883a 	mov	r6,r7
 1800178:	400f883a 	mov	r7,r8
 180017c:	18056980 	call	1805698 <__muldf3>
 1800180:	1009883a 	mov	r4,r2
 1800184:	180b883a 	mov	r5,r3
 1800188:	2005883a 	mov	r2,r4
 180018c:	2807883a 	mov	r3,r5
 1800190:	9009883a 	mov	r4,r18
 1800194:	980b883a 	mov	r5,r19
 1800198:	100d883a 	mov	r6,r2
 180019c:	180f883a 	mov	r7,r3
 18001a0:	18055a40 	call	18055a4 <__subdf3>
 18001a4:	1009883a 	mov	r4,r2
 18001a8:	180b883a 	mov	r5,r3
 18001ac:	2021883a 	mov	r16,r4
 18001b0:	2823883a 	mov	r17,r5
 18001b4:	e0bffc17 	ldw	r2,-16(fp)
 18001b8:	10800104 	addi	r2,r2,4
 18001bc:	10800017 	ldw	r2,0(r2)
 18001c0:	1009883a 	mov	r4,r2
 18001c4:	18051400 	call	1805140 <__extendsfdf2>
 18001c8:	100f883a 	mov	r7,r2
 18001cc:	1811883a 	mov	r8,r3
 18001d0:	8009883a 	mov	r4,r16
 18001d4:	880b883a 	mov	r5,r17
 18001d8:	380d883a 	mov	r6,r7
 18001dc:	400f883a 	mov	r7,r8
 18001e0:	18055a40 	call	18055a4 <__subdf3>
 18001e4:	1009883a 	mov	r4,r2
 18001e8:	180b883a 	mov	r5,r3
 18001ec:	2005883a 	mov	r2,r4
 18001f0:	2807883a 	mov	r3,r5
 18001f4:	1009883a 	mov	r4,r2
 18001f8:	180b883a 	mov	r5,r3
 18001fc:	18060dc0 	call	18060dc <__truncdfsf2>
 1800200:	e0bff815 	stw	r2,-32(fp)
    float xyHyp = (float) sqrt(pow(target[0],2)+pow(target[1],2))-(l[4]*cos(phi*deg2rad));
 1800204:	e0bffe17 	ldw	r2,-8(fp)
 1800208:	10800017 	ldw	r2,0(r2)
 180020c:	1009883a 	mov	r4,r2
 1800210:	18051400 	call	1805140 <__extendsfdf2>
 1800214:	100f883a 	mov	r7,r2
 1800218:	1811883a 	mov	r8,r3
 180021c:	3809883a 	mov	r4,r7
 1800220:	400b883a 	mov	r5,r8
 1800224:	380d883a 	mov	r6,r7
 1800228:	400f883a 	mov	r7,r8
 180022c:	18056980 	call	1805698 <__muldf3>
 1800230:	1009883a 	mov	r4,r2
 1800234:	180b883a 	mov	r5,r3
 1800238:	2005883a 	mov	r2,r4
 180023c:	2807883a 	mov	r3,r5
 1800240:	1021883a 	mov	r16,r2
 1800244:	1823883a 	mov	r17,r3
 1800248:	e0bffe17 	ldw	r2,-8(fp)
 180024c:	10800104 	addi	r2,r2,4
 1800250:	10800017 	ldw	r2,0(r2)
 1800254:	1009883a 	mov	r4,r2
 1800258:	18051400 	call	1805140 <__extendsfdf2>
 180025c:	100f883a 	mov	r7,r2
 1800260:	1811883a 	mov	r8,r3
 1800264:	3809883a 	mov	r4,r7
 1800268:	400b883a 	mov	r5,r8
 180026c:	380d883a 	mov	r6,r7
 1800270:	400f883a 	mov	r7,r8
 1800274:	18056980 	call	1805698 <__muldf3>
 1800278:	1009883a 	mov	r4,r2
 180027c:	180b883a 	mov	r5,r3
 1800280:	2005883a 	mov	r2,r4
 1800284:	2807883a 	mov	r3,r5
 1800288:	100f883a 	mov	r7,r2
 180028c:	1811883a 	mov	r8,r3
 1800290:	8009883a 	mov	r4,r16
 1800294:	880b883a 	mov	r5,r17
 1800298:	380d883a 	mov	r6,r7
 180029c:	400f883a 	mov	r7,r8
 18002a0:	18056240 	call	1805624 <__adddf3>
 18002a4:	1009883a 	mov	r4,r2
 18002a8:	180b883a 	mov	r5,r3
 18002ac:	2005883a 	mov	r2,r4
 18002b0:	2807883a 	mov	r3,r5
 18002b4:	1009883a 	mov	r4,r2
 18002b8:	180b883a 	mov	r5,r3
 18002bc:	1801df40 	call	1801df4 <sqrt>
 18002c0:	100b883a 	mov	r5,r2
 18002c4:	180d883a 	mov	r6,r3
 18002c8:	2809883a 	mov	r4,r5
 18002cc:	300b883a 	mov	r5,r6
 18002d0:	18060dc0 	call	18060dc <__truncdfsf2>
 18002d4:	1009883a 	mov	r4,r2
 18002d8:	18051400 	call	1805140 <__extendsfdf2>
 18002dc:	1025883a 	mov	r18,r2
 18002e0:	1827883a 	mov	r19,r3
 18002e4:	e0bffc17 	ldw	r2,-16(fp)
 18002e8:	10800404 	addi	r2,r2,16
 18002ec:	10800017 	ldw	r2,0(r2)
 18002f0:	1009883a 	mov	r4,r2
 18002f4:	18051400 	call	1805140 <__extendsfdf2>
 18002f8:	1021883a 	mov	r16,r2
 18002fc:	1823883a 	mov	r17,r3
 1800300:	e0fffd17 	ldw	r3,-12(fp)
 1800304:	e0bffb17 	ldw	r2,-20(fp)
 1800308:	1885ff32 	custom	252,r2,r3,r2
 180030c:	1009883a 	mov	r4,r2
 1800310:	18051400 	call	1805140 <__extendsfdf2>
 1800314:	100b883a 	mov	r5,r2
 1800318:	180d883a 	mov	r6,r3
 180031c:	2809883a 	mov	r4,r5
 1800320:	300b883a 	mov	r5,r6
 1800324:	1801a100 	call	1801a10 <cos>
 1800328:	100f883a 	mov	r7,r2
 180032c:	1811883a 	mov	r8,r3
 1800330:	8009883a 	mov	r4,r16
 1800334:	880b883a 	mov	r5,r17
 1800338:	380d883a 	mov	r6,r7
 180033c:	400f883a 	mov	r7,r8
 1800340:	18056980 	call	1805698 <__muldf3>
 1800344:	1009883a 	mov	r4,r2
 1800348:	180b883a 	mov	r5,r3
 180034c:	2005883a 	mov	r2,r4
 1800350:	2807883a 	mov	r3,r5
 1800354:	9009883a 	mov	r4,r18
 1800358:	980b883a 	mov	r5,r19
 180035c:	100d883a 	mov	r6,r2
 1800360:	180f883a 	mov	r7,r3
 1800364:	18055a40 	call	18055a4 <__subdf3>
 1800368:	1009883a 	mov	r4,r2
 180036c:	180b883a 	mov	r5,r3
 1800370:	2005883a 	mov	r2,r4
 1800374:	2807883a 	mov	r3,r5
 1800378:	1009883a 	mov	r4,r2
 180037c:	180b883a 	mov	r5,r3
 1800380:	18060dc0 	call	18060dc <__truncdfsf2>
 1800384:	e0bff715 	stw	r2,-36(fp)

    float cosT3 = (float) (pow(xyHyp,2)+pow(z,2)-pow(l[2],2)-pow(l[3],2))/(2*l[2]*l[3]);
 1800388:	e13ff717 	ldw	r4,-36(fp)
 180038c:	18051400 	call	1805140 <__extendsfdf2>
 1800390:	100f883a 	mov	r7,r2
 1800394:	1811883a 	mov	r8,r3
 1800398:	3809883a 	mov	r4,r7
 180039c:	400b883a 	mov	r5,r8
 18003a0:	380d883a 	mov	r6,r7
 18003a4:	400f883a 	mov	r7,r8
 18003a8:	18056980 	call	1805698 <__muldf3>
 18003ac:	1009883a 	mov	r4,r2
 18003b0:	180b883a 	mov	r5,r3
 18003b4:	2005883a 	mov	r2,r4
 18003b8:	2807883a 	mov	r3,r5
 18003bc:	1021883a 	mov	r16,r2
 18003c0:	1823883a 	mov	r17,r3
 18003c4:	e13ff817 	ldw	r4,-32(fp)
 18003c8:	18051400 	call	1805140 <__extendsfdf2>
 18003cc:	100f883a 	mov	r7,r2
 18003d0:	1811883a 	mov	r8,r3
 18003d4:	3809883a 	mov	r4,r7
 18003d8:	400b883a 	mov	r5,r8
 18003dc:	380d883a 	mov	r6,r7
 18003e0:	400f883a 	mov	r7,r8
 18003e4:	18056980 	call	1805698 <__muldf3>
 18003e8:	1009883a 	mov	r4,r2
 18003ec:	180b883a 	mov	r5,r3
 18003f0:	2005883a 	mov	r2,r4
 18003f4:	2807883a 	mov	r3,r5
 18003f8:	100f883a 	mov	r7,r2
 18003fc:	1811883a 	mov	r8,r3
 1800400:	8009883a 	mov	r4,r16
 1800404:	880b883a 	mov	r5,r17
 1800408:	380d883a 	mov	r6,r7
 180040c:	400f883a 	mov	r7,r8
 1800410:	18056240 	call	1805624 <__adddf3>
 1800414:	1009883a 	mov	r4,r2
 1800418:	180b883a 	mov	r5,r3
 180041c:	2021883a 	mov	r16,r4
 1800420:	2823883a 	mov	r17,r5
 1800424:	e0bffc17 	ldw	r2,-16(fp)
 1800428:	10800204 	addi	r2,r2,8
 180042c:	10800017 	ldw	r2,0(r2)
 1800430:	1009883a 	mov	r4,r2
 1800434:	18051400 	call	1805140 <__extendsfdf2>
 1800438:	100f883a 	mov	r7,r2
 180043c:	1811883a 	mov	r8,r3
 1800440:	3809883a 	mov	r4,r7
 1800444:	400b883a 	mov	r5,r8
 1800448:	380d883a 	mov	r6,r7
 180044c:	400f883a 	mov	r7,r8
 1800450:	18056980 	call	1805698 <__muldf3>
 1800454:	1009883a 	mov	r4,r2
 1800458:	180b883a 	mov	r5,r3
 180045c:	2005883a 	mov	r2,r4
 1800460:	2807883a 	mov	r3,r5
 1800464:	100f883a 	mov	r7,r2
 1800468:	1811883a 	mov	r8,r3
 180046c:	8009883a 	mov	r4,r16
 1800470:	880b883a 	mov	r5,r17
 1800474:	380d883a 	mov	r6,r7
 1800478:	400f883a 	mov	r7,r8
 180047c:	18055a40 	call	18055a4 <__subdf3>
 1800480:	1009883a 	mov	r4,r2
 1800484:	180b883a 	mov	r5,r3
 1800488:	2021883a 	mov	r16,r4
 180048c:	2823883a 	mov	r17,r5
 1800490:	e0bffc17 	ldw	r2,-16(fp)
 1800494:	10800304 	addi	r2,r2,12
 1800498:	10800017 	ldw	r2,0(r2)
 180049c:	1009883a 	mov	r4,r2
 18004a0:	18051400 	call	1805140 <__extendsfdf2>
 18004a4:	100f883a 	mov	r7,r2
 18004a8:	1811883a 	mov	r8,r3
 18004ac:	3809883a 	mov	r4,r7
 18004b0:	400b883a 	mov	r5,r8
 18004b4:	380d883a 	mov	r6,r7
 18004b8:	400f883a 	mov	r7,r8
 18004bc:	18056980 	call	1805698 <__muldf3>
 18004c0:	1009883a 	mov	r4,r2
 18004c4:	180b883a 	mov	r5,r3
 18004c8:	2005883a 	mov	r2,r4
 18004cc:	2807883a 	mov	r3,r5
 18004d0:	100f883a 	mov	r7,r2
 18004d4:	1811883a 	mov	r8,r3
 18004d8:	8009883a 	mov	r4,r16
 18004dc:	880b883a 	mov	r5,r17
 18004e0:	380d883a 	mov	r6,r7
 18004e4:	400f883a 	mov	r7,r8
 18004e8:	18055a40 	call	18055a4 <__subdf3>
 18004ec:	1009883a 	mov	r4,r2
 18004f0:	180b883a 	mov	r5,r3
 18004f4:	2005883a 	mov	r2,r4
 18004f8:	2807883a 	mov	r3,r5
 18004fc:	1009883a 	mov	r4,r2
 1800500:	180b883a 	mov	r5,r3
 1800504:	18060dc0 	call	18060dc <__truncdfsf2>
 1800508:	1009883a 	mov	r4,r2
 180050c:	e0bffc17 	ldw	r2,-16(fp)
 1800510:	10800204 	addi	r2,r2,8
 1800514:	10800017 	ldw	r2,0(r2)
 1800518:	1087ff72 	custom	253,r3,r2,r2
 180051c:	e0bffc17 	ldw	r2,-16(fp)
 1800520:	10800304 	addi	r2,r2,12
 1800524:	10800017 	ldw	r2,0(r2)
 1800528:	1885ff32 	custom	252,r2,r3,r2
 180052c:	100b883a 	mov	r5,r2
 1800530:	1804f340 	call	1804f34 <__divsf3>
 1800534:	e0bff615 	stw	r2,-40(fp)

    float t3a = (float) atan2(+sqrt(1-pow(cosT3,2)),cosT3)*rad2deg; // theta 3
 1800538:	e13ff617 	ldw	r4,-40(fp)
 180053c:	18051400 	call	1805140 <__extendsfdf2>
 1800540:	100f883a 	mov	r7,r2
 1800544:	1811883a 	mov	r8,r3
 1800548:	3809883a 	mov	r4,r7
 180054c:	400b883a 	mov	r5,r8
 1800550:	380d883a 	mov	r6,r7
 1800554:	400f883a 	mov	r7,r8
 1800558:	18056980 	call	1805698 <__muldf3>
 180055c:	1009883a 	mov	r4,r2
 1800560:	180b883a 	mov	r5,r3
 1800564:	2005883a 	mov	r2,r4
 1800568:	2807883a 	mov	r3,r5
 180056c:	100f883a 	mov	r7,r2
 1800570:	1811883a 	mov	r8,r3
 1800574:	0009883a 	mov	r4,zero
 1800578:	014ffc34 	movhi	r5,16368
 180057c:	380d883a 	mov	r6,r7
 1800580:	400f883a 	mov	r7,r8
 1800584:	18055a40 	call	18055a4 <__subdf3>
 1800588:	1009883a 	mov	r4,r2
 180058c:	180b883a 	mov	r5,r3
 1800590:	2005883a 	mov	r2,r4
 1800594:	2807883a 	mov	r3,r5
 1800598:	1009883a 	mov	r4,r2
 180059c:	180b883a 	mov	r5,r3
 18005a0:	1801df40 	call	1801df4 <sqrt>
 18005a4:	1021883a 	mov	r16,r2
 18005a8:	1823883a 	mov	r17,r3
 18005ac:	e13ff617 	ldw	r4,-40(fp)
 18005b0:	18051400 	call	1805140 <__extendsfdf2>
 18005b4:	100f883a 	mov	r7,r2
 18005b8:	1811883a 	mov	r8,r3
 18005bc:	8009883a 	mov	r4,r16
 18005c0:	880b883a 	mov	r5,r17
 18005c4:	380d883a 	mov	r6,r7
 18005c8:	400f883a 	mov	r7,r8
 18005cc:	1801df00 	call	1801df0 <atan2>
 18005d0:	100b883a 	mov	r5,r2
 18005d4:	180d883a 	mov	r6,r3
 18005d8:	2809883a 	mov	r4,r5
 18005dc:	300b883a 	mov	r5,r6
 18005e0:	18060dc0 	call	18060dc <__truncdfsf2>
 18005e4:	1007883a 	mov	r3,r2
 18005e8:	e0bffa17 	ldw	r2,-24(fp)
 18005ec:	1885ff32 	custom	252,r2,r3,r2
 18005f0:	e0bff515 	stw	r2,-44(fp)
    float t3b = (float) atan2(-sqrt(1-pow(cosT3,2)),cosT3)*rad2deg;
 18005f4:	e13ff617 	ldw	r4,-40(fp)
 18005f8:	18051400 	call	1805140 <__extendsfdf2>
 18005fc:	100f883a 	mov	r7,r2
 1800600:	1811883a 	mov	r8,r3
 1800604:	3809883a 	mov	r4,r7
 1800608:	400b883a 	mov	r5,r8
 180060c:	380d883a 	mov	r6,r7
 1800610:	400f883a 	mov	r7,r8
 1800614:	18056980 	call	1805698 <__muldf3>
 1800618:	1009883a 	mov	r4,r2
 180061c:	180b883a 	mov	r5,r3
 1800620:	2005883a 	mov	r2,r4
 1800624:	2807883a 	mov	r3,r5
 1800628:	100f883a 	mov	r7,r2
 180062c:	1811883a 	mov	r8,r3
 1800630:	0009883a 	mov	r4,zero
 1800634:	014ffc34 	movhi	r5,16368
 1800638:	380d883a 	mov	r6,r7
 180063c:	400f883a 	mov	r7,r8
 1800640:	18055a40 	call	18055a4 <__subdf3>
 1800644:	1009883a 	mov	r4,r2
 1800648:	180b883a 	mov	r5,r3
 180064c:	2005883a 	mov	r2,r4
 1800650:	2807883a 	mov	r3,r5
 1800654:	1009883a 	mov	r4,r2
 1800658:	180b883a 	mov	r5,r3
 180065c:	1801df40 	call	1801df4 <sqrt>
 1800660:	1009883a 	mov	r4,r2
 1800664:	180b883a 	mov	r5,r3
 1800668:	2021883a 	mov	r16,r4
 180066c:	2c60003c 	xorhi	r17,r5,32768
 1800670:	e13ff617 	ldw	r4,-40(fp)
 1800674:	18051400 	call	1805140 <__extendsfdf2>
 1800678:	100f883a 	mov	r7,r2
 180067c:	1811883a 	mov	r8,r3
 1800680:	8009883a 	mov	r4,r16
 1800684:	880b883a 	mov	r5,r17
 1800688:	380d883a 	mov	r6,r7
 180068c:	400f883a 	mov	r7,r8
 1800690:	1801df00 	call	1801df0 <atan2>
 1800694:	100b883a 	mov	r5,r2
 1800698:	180d883a 	mov	r6,r3
 180069c:	2809883a 	mov	r4,r5
 18006a0:	300b883a 	mov	r5,r6
 18006a4:	18060dc0 	call	18060dc <__truncdfsf2>
 18006a8:	1007883a 	mov	r3,r2
 18006ac:	e0bffa17 	ldw	r2,-24(fp)
 18006b0:	1885ff32 	custom	252,r2,r3,r2
 18006b4:	e0bff415 	stw	r2,-48(fp)

    float cosT2a = (float) ((xyHyp*(l[2]+(l[3]*cos(t3a*deg2rad))))+(z*l[3]*sin(t3a*deg2rad)))/(pow(xyHyp,2)+pow(z,2));
 18006b8:	e13ff717 	ldw	r4,-36(fp)
 18006bc:	18051400 	call	1805140 <__extendsfdf2>
 18006c0:	1029883a 	mov	r20,r2
 18006c4:	182b883a 	mov	r21,r3
 18006c8:	e0bffc17 	ldw	r2,-16(fp)
 18006cc:	10800204 	addi	r2,r2,8
 18006d0:	10800017 	ldw	r2,0(r2)
 18006d4:	1009883a 	mov	r4,r2
 18006d8:	18051400 	call	1805140 <__extendsfdf2>
 18006dc:	1025883a 	mov	r18,r2
 18006e0:	1827883a 	mov	r19,r3
 18006e4:	e0bffc17 	ldw	r2,-16(fp)
 18006e8:	10800304 	addi	r2,r2,12
 18006ec:	10800017 	ldw	r2,0(r2)
 18006f0:	1009883a 	mov	r4,r2
 18006f4:	18051400 	call	1805140 <__extendsfdf2>
 18006f8:	1021883a 	mov	r16,r2
 18006fc:	1823883a 	mov	r17,r3
 1800700:	e0fff517 	ldw	r3,-44(fp)
 1800704:	e0bffb17 	ldw	r2,-20(fp)
 1800708:	1885ff32 	custom	252,r2,r3,r2
 180070c:	1009883a 	mov	r4,r2
 1800710:	18051400 	call	1805140 <__extendsfdf2>
 1800714:	100b883a 	mov	r5,r2
 1800718:	180d883a 	mov	r6,r3
 180071c:	2809883a 	mov	r4,r5
 1800720:	300b883a 	mov	r5,r6
 1800724:	1801a100 	call	1801a10 <cos>
 1800728:	100f883a 	mov	r7,r2
 180072c:	1811883a 	mov	r8,r3
 1800730:	8009883a 	mov	r4,r16
 1800734:	880b883a 	mov	r5,r17
 1800738:	380d883a 	mov	r6,r7
 180073c:	400f883a 	mov	r7,r8
 1800740:	18056980 	call	1805698 <__muldf3>
 1800744:	1009883a 	mov	r4,r2
 1800748:	180b883a 	mov	r5,r3
 180074c:	2005883a 	mov	r2,r4
 1800750:	2807883a 	mov	r3,r5
 1800754:	9009883a 	mov	r4,r18
 1800758:	980b883a 	mov	r5,r19
 180075c:	100d883a 	mov	r6,r2
 1800760:	180f883a 	mov	r7,r3
 1800764:	18056240 	call	1805624 <__adddf3>
 1800768:	1009883a 	mov	r4,r2
 180076c:	180b883a 	mov	r5,r3
 1800770:	2005883a 	mov	r2,r4
 1800774:	2807883a 	mov	r3,r5
 1800778:	a009883a 	mov	r4,r20
 180077c:	a80b883a 	mov	r5,r21
 1800780:	100d883a 	mov	r6,r2
 1800784:	180f883a 	mov	r7,r3
 1800788:	18056980 	call	1805698 <__muldf3>
 180078c:	1009883a 	mov	r4,r2
 1800790:	180b883a 	mov	r5,r3
 1800794:	2025883a 	mov	r18,r4
 1800798:	2827883a 	mov	r19,r5
 180079c:	e0bffc17 	ldw	r2,-16(fp)
 18007a0:	10800304 	addi	r2,r2,12
 18007a4:	10c00017 	ldw	r3,0(r2)
 18007a8:	e0bff817 	ldw	r2,-32(fp)
 18007ac:	1885ff32 	custom	252,r2,r3,r2
 18007b0:	1009883a 	mov	r4,r2
 18007b4:	18051400 	call	1805140 <__extendsfdf2>
 18007b8:	1021883a 	mov	r16,r2
 18007bc:	1823883a 	mov	r17,r3
 18007c0:	e0fff517 	ldw	r3,-44(fp)
 18007c4:	e0bffb17 	ldw	r2,-20(fp)
 18007c8:	1885ff32 	custom	252,r2,r3,r2
 18007cc:	1009883a 	mov	r4,r2
 18007d0:	18051400 	call	1805140 <__extendsfdf2>
 18007d4:	100b883a 	mov	r5,r2
 18007d8:	180d883a 	mov	r6,r3
 18007dc:	2809883a 	mov	r4,r5
 18007e0:	300b883a 	mov	r5,r6
 18007e4:	1801c840 	call	1801c84 <sin>
 18007e8:	100f883a 	mov	r7,r2
 18007ec:	1811883a 	mov	r8,r3
 18007f0:	8009883a 	mov	r4,r16
 18007f4:	880b883a 	mov	r5,r17
 18007f8:	380d883a 	mov	r6,r7
 18007fc:	400f883a 	mov	r7,r8
 1800800:	18056980 	call	1805698 <__muldf3>
 1800804:	1009883a 	mov	r4,r2
 1800808:	180b883a 	mov	r5,r3
 180080c:	2005883a 	mov	r2,r4
 1800810:	2807883a 	mov	r3,r5
 1800814:	9009883a 	mov	r4,r18
 1800818:	980b883a 	mov	r5,r19
 180081c:	100d883a 	mov	r6,r2
 1800820:	180f883a 	mov	r7,r3
 1800824:	18056240 	call	1805624 <__adddf3>
 1800828:	1009883a 	mov	r4,r2
 180082c:	180b883a 	mov	r5,r3
 1800830:	2005883a 	mov	r2,r4
 1800834:	2807883a 	mov	r3,r5
 1800838:	1009883a 	mov	r4,r2
 180083c:	180b883a 	mov	r5,r3
 1800840:	18060dc0 	call	18060dc <__truncdfsf2>
 1800844:	1009883a 	mov	r4,r2
 1800848:	18051400 	call	1805140 <__extendsfdf2>
 180084c:	1025883a 	mov	r18,r2
 1800850:	1827883a 	mov	r19,r3
 1800854:	e13ff717 	ldw	r4,-36(fp)
 1800858:	18051400 	call	1805140 <__extendsfdf2>
 180085c:	100f883a 	mov	r7,r2
 1800860:	1811883a 	mov	r8,r3
 1800864:	3809883a 	mov	r4,r7
 1800868:	400b883a 	mov	r5,r8
 180086c:	380d883a 	mov	r6,r7
 1800870:	400f883a 	mov	r7,r8
 1800874:	18056980 	call	1805698 <__muldf3>
 1800878:	1009883a 	mov	r4,r2
 180087c:	180b883a 	mov	r5,r3
 1800880:	2005883a 	mov	r2,r4
 1800884:	2807883a 	mov	r3,r5
 1800888:	1021883a 	mov	r16,r2
 180088c:	1823883a 	mov	r17,r3
 1800890:	e13ff817 	ldw	r4,-32(fp)
 1800894:	18051400 	call	1805140 <__extendsfdf2>
 1800898:	100f883a 	mov	r7,r2
 180089c:	1811883a 	mov	r8,r3
 18008a0:	3809883a 	mov	r4,r7
 18008a4:	400b883a 	mov	r5,r8
 18008a8:	380d883a 	mov	r6,r7
 18008ac:	400f883a 	mov	r7,r8
 18008b0:	18056980 	call	1805698 <__muldf3>
 18008b4:	1009883a 	mov	r4,r2
 18008b8:	180b883a 	mov	r5,r3
 18008bc:	2005883a 	mov	r2,r4
 18008c0:	2807883a 	mov	r3,r5
 18008c4:	100f883a 	mov	r7,r2
 18008c8:	1811883a 	mov	r8,r3
 18008cc:	8009883a 	mov	r4,r16
 18008d0:	880b883a 	mov	r5,r17
 18008d4:	380d883a 	mov	r6,r7
 18008d8:	400f883a 	mov	r7,r8
 18008dc:	18056240 	call	1805624 <__adddf3>
 18008e0:	1009883a 	mov	r4,r2
 18008e4:	180b883a 	mov	r5,r3
 18008e8:	2005883a 	mov	r2,r4
 18008ec:	2807883a 	mov	r3,r5
 18008f0:	9009883a 	mov	r4,r18
 18008f4:	980b883a 	mov	r5,r19
 18008f8:	100d883a 	mov	r6,r2
 18008fc:	180f883a 	mov	r7,r3
 1800900:	1805a5c0 	call	1805a5c <__divdf3>
 1800904:	1009883a 	mov	r4,r2
 1800908:	180b883a 	mov	r5,r3
 180090c:	2005883a 	mov	r2,r4
 1800910:	2807883a 	mov	r3,r5
 1800914:	1009883a 	mov	r4,r2
 1800918:	180b883a 	mov	r5,r3
 180091c:	18060dc0 	call	18060dc <__truncdfsf2>
 1800920:	e0bff315 	stw	r2,-52(fp)
    float cosT2b = (float) ((xyHyp*(l[2]+(l[3]*cos(t3b*deg2rad))))+(z*l[3]*sin(t3b*deg2rad)))/(pow(xyHyp,2)+pow(z,2));
 1800924:	e13ff717 	ldw	r4,-36(fp)
 1800928:	18051400 	call	1805140 <__extendsfdf2>
 180092c:	1029883a 	mov	r20,r2
 1800930:	182b883a 	mov	r21,r3
 1800934:	e0bffc17 	ldw	r2,-16(fp)
 1800938:	10800204 	addi	r2,r2,8
 180093c:	10800017 	ldw	r2,0(r2)
 1800940:	1009883a 	mov	r4,r2
 1800944:	18051400 	call	1805140 <__extendsfdf2>
 1800948:	1025883a 	mov	r18,r2
 180094c:	1827883a 	mov	r19,r3
 1800950:	e0bffc17 	ldw	r2,-16(fp)
 1800954:	10800304 	addi	r2,r2,12
 1800958:	10800017 	ldw	r2,0(r2)
 180095c:	1009883a 	mov	r4,r2
 1800960:	18051400 	call	1805140 <__extendsfdf2>
 1800964:	1021883a 	mov	r16,r2
 1800968:	1823883a 	mov	r17,r3
 180096c:	e0fff417 	ldw	r3,-48(fp)
 1800970:	e0bffb17 	ldw	r2,-20(fp)
 1800974:	1885ff32 	custom	252,r2,r3,r2
 1800978:	1009883a 	mov	r4,r2
 180097c:	18051400 	call	1805140 <__extendsfdf2>
 1800980:	100b883a 	mov	r5,r2
 1800984:	180d883a 	mov	r6,r3
 1800988:	2809883a 	mov	r4,r5
 180098c:	300b883a 	mov	r5,r6
 1800990:	1801a100 	call	1801a10 <cos>
 1800994:	100f883a 	mov	r7,r2
 1800998:	1811883a 	mov	r8,r3
 180099c:	8009883a 	mov	r4,r16
 18009a0:	880b883a 	mov	r5,r17
 18009a4:	380d883a 	mov	r6,r7
 18009a8:	400f883a 	mov	r7,r8
 18009ac:	18056980 	call	1805698 <__muldf3>
 18009b0:	1009883a 	mov	r4,r2
 18009b4:	180b883a 	mov	r5,r3
 18009b8:	2005883a 	mov	r2,r4
 18009bc:	2807883a 	mov	r3,r5
 18009c0:	9009883a 	mov	r4,r18
 18009c4:	980b883a 	mov	r5,r19
 18009c8:	100d883a 	mov	r6,r2
 18009cc:	180f883a 	mov	r7,r3
 18009d0:	18056240 	call	1805624 <__adddf3>
 18009d4:	1009883a 	mov	r4,r2
 18009d8:	180b883a 	mov	r5,r3
 18009dc:	2005883a 	mov	r2,r4
 18009e0:	2807883a 	mov	r3,r5
 18009e4:	a009883a 	mov	r4,r20
 18009e8:	a80b883a 	mov	r5,r21
 18009ec:	100d883a 	mov	r6,r2
 18009f0:	180f883a 	mov	r7,r3
 18009f4:	18056980 	call	1805698 <__muldf3>
 18009f8:	1009883a 	mov	r4,r2
 18009fc:	180b883a 	mov	r5,r3
 1800a00:	2025883a 	mov	r18,r4
 1800a04:	2827883a 	mov	r19,r5
 1800a08:	e0bffc17 	ldw	r2,-16(fp)
 1800a0c:	10800304 	addi	r2,r2,12
 1800a10:	10c00017 	ldw	r3,0(r2)
 1800a14:	e0bff817 	ldw	r2,-32(fp)
 1800a18:	1885ff32 	custom	252,r2,r3,r2
 1800a1c:	1009883a 	mov	r4,r2
 1800a20:	18051400 	call	1805140 <__extendsfdf2>
 1800a24:	1021883a 	mov	r16,r2
 1800a28:	1823883a 	mov	r17,r3
 1800a2c:	e0fff417 	ldw	r3,-48(fp)
 1800a30:	e0bffb17 	ldw	r2,-20(fp)
 1800a34:	1885ff32 	custom	252,r2,r3,r2
 1800a38:	1009883a 	mov	r4,r2
 1800a3c:	18051400 	call	1805140 <__extendsfdf2>
 1800a40:	100b883a 	mov	r5,r2
 1800a44:	180d883a 	mov	r6,r3
 1800a48:	2809883a 	mov	r4,r5
 1800a4c:	300b883a 	mov	r5,r6
 1800a50:	1801c840 	call	1801c84 <sin>
 1800a54:	100f883a 	mov	r7,r2
 1800a58:	1811883a 	mov	r8,r3
 1800a5c:	8009883a 	mov	r4,r16
 1800a60:	880b883a 	mov	r5,r17
 1800a64:	380d883a 	mov	r6,r7
 1800a68:	400f883a 	mov	r7,r8
 1800a6c:	18056980 	call	1805698 <__muldf3>
 1800a70:	1009883a 	mov	r4,r2
 1800a74:	180b883a 	mov	r5,r3
 1800a78:	2005883a 	mov	r2,r4
 1800a7c:	2807883a 	mov	r3,r5
 1800a80:	9009883a 	mov	r4,r18
 1800a84:	980b883a 	mov	r5,r19
 1800a88:	100d883a 	mov	r6,r2
 1800a8c:	180f883a 	mov	r7,r3
 1800a90:	18056240 	call	1805624 <__adddf3>
 1800a94:	1009883a 	mov	r4,r2
 1800a98:	180b883a 	mov	r5,r3
 1800a9c:	2005883a 	mov	r2,r4
 1800aa0:	2807883a 	mov	r3,r5
 1800aa4:	1009883a 	mov	r4,r2
 1800aa8:	180b883a 	mov	r5,r3
 1800aac:	18060dc0 	call	18060dc <__truncdfsf2>
 1800ab0:	1009883a 	mov	r4,r2
 1800ab4:	18051400 	call	1805140 <__extendsfdf2>
 1800ab8:	1025883a 	mov	r18,r2
 1800abc:	1827883a 	mov	r19,r3
 1800ac0:	e13ff717 	ldw	r4,-36(fp)
 1800ac4:	18051400 	call	1805140 <__extendsfdf2>
 1800ac8:	100f883a 	mov	r7,r2
 1800acc:	1811883a 	mov	r8,r3
 1800ad0:	3809883a 	mov	r4,r7
 1800ad4:	400b883a 	mov	r5,r8
 1800ad8:	380d883a 	mov	r6,r7
 1800adc:	400f883a 	mov	r7,r8
 1800ae0:	18056980 	call	1805698 <__muldf3>
 1800ae4:	1009883a 	mov	r4,r2
 1800ae8:	180b883a 	mov	r5,r3
 1800aec:	2005883a 	mov	r2,r4
 1800af0:	2807883a 	mov	r3,r5
 1800af4:	1021883a 	mov	r16,r2
 1800af8:	1823883a 	mov	r17,r3
 1800afc:	e13ff817 	ldw	r4,-32(fp)
 1800b00:	18051400 	call	1805140 <__extendsfdf2>
 1800b04:	100f883a 	mov	r7,r2
 1800b08:	1811883a 	mov	r8,r3
 1800b0c:	3809883a 	mov	r4,r7
 1800b10:	400b883a 	mov	r5,r8
 1800b14:	380d883a 	mov	r6,r7
 1800b18:	400f883a 	mov	r7,r8
 1800b1c:	18056980 	call	1805698 <__muldf3>
 1800b20:	1009883a 	mov	r4,r2
 1800b24:	180b883a 	mov	r5,r3
 1800b28:	2005883a 	mov	r2,r4
 1800b2c:	2807883a 	mov	r3,r5
 1800b30:	100f883a 	mov	r7,r2
 1800b34:	1811883a 	mov	r8,r3
 1800b38:	8009883a 	mov	r4,r16
 1800b3c:	880b883a 	mov	r5,r17
 1800b40:	380d883a 	mov	r6,r7
 1800b44:	400f883a 	mov	r7,r8
 1800b48:	18056240 	call	1805624 <__adddf3>
 1800b4c:	1009883a 	mov	r4,r2
 1800b50:	180b883a 	mov	r5,r3
 1800b54:	2005883a 	mov	r2,r4
 1800b58:	2807883a 	mov	r3,r5
 1800b5c:	9009883a 	mov	r4,r18
 1800b60:	980b883a 	mov	r5,r19
 1800b64:	100d883a 	mov	r6,r2
 1800b68:	180f883a 	mov	r7,r3
 1800b6c:	1805a5c0 	call	1805a5c <__divdf3>
 1800b70:	1009883a 	mov	r4,r2
 1800b74:	180b883a 	mov	r5,r3
 1800b78:	2005883a 	mov	r2,r4
 1800b7c:	2807883a 	mov	r3,r5
 1800b80:	1009883a 	mov	r4,r2
 1800b84:	180b883a 	mov	r5,r3
 1800b88:	18060dc0 	call	18060dc <__truncdfsf2>
 1800b8c:	e0bff215 	stw	r2,-56(fp)

    float t2a = (float) atan2(+sqrt(1-pow(cosT2a,2)),cosT2a)*rad2deg; // theta 2
 1800b90:	e13ff317 	ldw	r4,-52(fp)
 1800b94:	18051400 	call	1805140 <__extendsfdf2>
 1800b98:	100f883a 	mov	r7,r2
 1800b9c:	1811883a 	mov	r8,r3
 1800ba0:	3809883a 	mov	r4,r7
 1800ba4:	400b883a 	mov	r5,r8
 1800ba8:	380d883a 	mov	r6,r7
 1800bac:	400f883a 	mov	r7,r8
 1800bb0:	18056980 	call	1805698 <__muldf3>
 1800bb4:	1009883a 	mov	r4,r2
 1800bb8:	180b883a 	mov	r5,r3
 1800bbc:	2005883a 	mov	r2,r4
 1800bc0:	2807883a 	mov	r3,r5
 1800bc4:	100f883a 	mov	r7,r2
 1800bc8:	1811883a 	mov	r8,r3
 1800bcc:	0009883a 	mov	r4,zero
 1800bd0:	014ffc34 	movhi	r5,16368
 1800bd4:	380d883a 	mov	r6,r7
 1800bd8:	400f883a 	mov	r7,r8
 1800bdc:	18055a40 	call	18055a4 <__subdf3>
 1800be0:	1009883a 	mov	r4,r2
 1800be4:	180b883a 	mov	r5,r3
 1800be8:	2005883a 	mov	r2,r4
 1800bec:	2807883a 	mov	r3,r5
 1800bf0:	1009883a 	mov	r4,r2
 1800bf4:	180b883a 	mov	r5,r3
 1800bf8:	1801df40 	call	1801df4 <sqrt>
 1800bfc:	1021883a 	mov	r16,r2
 1800c00:	1823883a 	mov	r17,r3
 1800c04:	e13ff317 	ldw	r4,-52(fp)
 1800c08:	18051400 	call	1805140 <__extendsfdf2>
 1800c0c:	100f883a 	mov	r7,r2
 1800c10:	1811883a 	mov	r8,r3
 1800c14:	8009883a 	mov	r4,r16
 1800c18:	880b883a 	mov	r5,r17
 1800c1c:	380d883a 	mov	r6,r7
 1800c20:	400f883a 	mov	r7,r8
 1800c24:	1801df00 	call	1801df0 <atan2>
 1800c28:	100b883a 	mov	r5,r2
 1800c2c:	180d883a 	mov	r6,r3
 1800c30:	2809883a 	mov	r4,r5
 1800c34:	300b883a 	mov	r5,r6
 1800c38:	18060dc0 	call	18060dc <__truncdfsf2>
 1800c3c:	1007883a 	mov	r3,r2
 1800c40:	e0bffa17 	ldw	r2,-24(fp)
 1800c44:	1885ff32 	custom	252,r2,r3,r2
 1800c48:	e0bff115 	stw	r2,-60(fp)
    float t2b = (float) atan2(+sqrt(1-pow(cosT2b,2)),cosT2b)*rad2deg;
 1800c4c:	e13ff217 	ldw	r4,-56(fp)
 1800c50:	18051400 	call	1805140 <__extendsfdf2>
 1800c54:	100f883a 	mov	r7,r2
 1800c58:	1811883a 	mov	r8,r3
 1800c5c:	3809883a 	mov	r4,r7
 1800c60:	400b883a 	mov	r5,r8
 1800c64:	380d883a 	mov	r6,r7
 1800c68:	400f883a 	mov	r7,r8
 1800c6c:	18056980 	call	1805698 <__muldf3>
 1800c70:	1009883a 	mov	r4,r2
 1800c74:	180b883a 	mov	r5,r3
 1800c78:	2005883a 	mov	r2,r4
 1800c7c:	2807883a 	mov	r3,r5
 1800c80:	100f883a 	mov	r7,r2
 1800c84:	1811883a 	mov	r8,r3
 1800c88:	0009883a 	mov	r4,zero
 1800c8c:	014ffc34 	movhi	r5,16368
 1800c90:	380d883a 	mov	r6,r7
 1800c94:	400f883a 	mov	r7,r8
 1800c98:	18055a40 	call	18055a4 <__subdf3>
 1800c9c:	1009883a 	mov	r4,r2
 1800ca0:	180b883a 	mov	r5,r3
 1800ca4:	2005883a 	mov	r2,r4
 1800ca8:	2807883a 	mov	r3,r5
 1800cac:	1009883a 	mov	r4,r2
 1800cb0:	180b883a 	mov	r5,r3
 1800cb4:	1801df40 	call	1801df4 <sqrt>
 1800cb8:	1021883a 	mov	r16,r2
 1800cbc:	1823883a 	mov	r17,r3
 1800cc0:	e13ff217 	ldw	r4,-56(fp)
 1800cc4:	18051400 	call	1805140 <__extendsfdf2>
 1800cc8:	100f883a 	mov	r7,r2
 1800ccc:	1811883a 	mov	r8,r3
 1800cd0:	8009883a 	mov	r4,r16
 1800cd4:	880b883a 	mov	r5,r17
 1800cd8:	380d883a 	mov	r6,r7
 1800cdc:	400f883a 	mov	r7,r8
 1800ce0:	1801df00 	call	1801df0 <atan2>
 1800ce4:	100b883a 	mov	r5,r2
 1800ce8:	180d883a 	mov	r6,r3
 1800cec:	2809883a 	mov	r4,r5
 1800cf0:	300b883a 	mov	r5,r6
 1800cf4:	18060dc0 	call	18060dc <__truncdfsf2>
 1800cf8:	1007883a 	mov	r3,r2
 1800cfc:	e0bffa17 	ldw	r2,-24(fp)
 1800d00:	1885ff32 	custom	252,r2,r3,r2
 1800d04:	e0bff015 	stw	r2,-64(fp)

    float t4a = (float) phi-(t2a+t3a)-90; // theta 4
 1800d08:	e0fff117 	ldw	r3,-60(fp)
 1800d0c:	e0bff517 	ldw	r2,-44(fp)
 1800d10:	1887ff72 	custom	253,r3,r3,r2
 1800d14:	e0bffd17 	ldw	r2,-12(fp)
 1800d18:	10c7ffb2 	custom	254,r3,r2,r3
 1800d1c:	0090ad34 	movhi	r2,17076
 1800d20:	1885ffb2 	custom	254,r2,r3,r2
 1800d24:	e0bfef15 	stw	r2,-68(fp)
    float t4b = (float) phi-(t2b+t3b)-90;
 1800d28:	e0fff017 	ldw	r3,-64(fp)
 1800d2c:	e0bff417 	ldw	r2,-48(fp)
 1800d30:	1887ff72 	custom	253,r3,r3,r2
 1800d34:	e0bffd17 	ldw	r2,-12(fp)
 1800d38:	10c7ffb2 	custom	254,r3,r2,r3
 1800d3c:	0090ad34 	movhi	r2,17076
 1800d40:	1885ffb2 	custom	254,r2,r3,r2
 1800d44:	e0bfee15 	stw	r2,-72(fp)
//	printf("t1: %f\n",t1);
//	printf("t2: %f\n",t2a);
//	printf("t3: %f\n",t3a);
//	printf("t4: %f\n",t4a);

    solution[0] = t1-90;
 1800d48:	e0fff917 	ldw	r3,-28(fp)
 1800d4c:	0090ad34 	movhi	r2,17076
 1800d50:	1887ffb2 	custom	254,r3,r3,r2
 1800d54:	e0bfff17 	ldw	r2,-4(fp)
 1800d58:	10c00015 	stw	r3,0(r2)
    solution[1] = -t2b+90;
 1800d5c:	e0bfff17 	ldw	r2,-4(fp)
 1800d60:	11000104 	addi	r4,r2,4
 1800d64:	00d0ad34 	movhi	r3,17076
 1800d68:	e0bff017 	ldw	r2,-64(fp)
 1800d6c:	1885ffb2 	custom	254,r2,r3,r2
 1800d70:	20800015 	stw	r2,0(r4)
    solution[2] = +90+t3b;
 1800d74:	e0bfff17 	ldw	r2,-4(fp)
 1800d78:	11000204 	addi	r4,r2,8
 1800d7c:	e0fff417 	ldw	r3,-48(fp)
 1800d80:	0090ad34 	movhi	r2,17076
 1800d84:	1885ff72 	custom	253,r2,r3,r2
 1800d88:	20800015 	stw	r2,0(r4)
    solution[3] = -t4b-90;
 1800d8c:	e0bfff17 	ldw	r2,-4(fp)
 1800d90:	11000304 	addi	r4,r2,12
 1800d94:	00f0ad34 	movhi	r3,49844
 1800d98:	e0bfee17 	ldw	r2,-72(fp)
 1800d9c:	1885ffb2 	custom	254,r2,r3,r2
 1800da0:	20800015 	stw	r2,0(r4)

    extern float solution2[3];
    solution2[0] = t1-90;
 1800da4:	e0fff917 	ldw	r3,-28(fp)
 1800da8:	0090ad34 	movhi	r2,17076
 1800dac:	1887ffb2 	custom	254,r3,r3,r2
 1800db0:	008060b4 	movhi	r2,386
 1800db4:	108ddf04 	addi	r2,r2,14204
 1800db8:	10c00015 	stw	r3,0(r2)
    solution2[1] = -t2b+90;
 1800dbc:	00d0ad34 	movhi	r3,17076
 1800dc0:	e0bff017 	ldw	r2,-64(fp)
 1800dc4:	1887ffb2 	custom	254,r3,r3,r2
 1800dc8:	008060b4 	movhi	r2,386
 1800dcc:	108ddf04 	addi	r2,r2,14204
 1800dd0:	10c00115 	stw	r3,4(r2)
    solution2[2] = +90+t3b;
 1800dd4:	e0fff417 	ldw	r3,-48(fp)
 1800dd8:	0090ad34 	movhi	r2,17076
 1800ddc:	1887ff72 	custom	253,r3,r3,r2
 1800de0:	008060b4 	movhi	r2,386
 1800de4:	108ddf04 	addi	r2,r2,14204
 1800de8:	10c00215 	stw	r3,8(r2)
    solution2[3] = -t4b-90;
 1800dec:	00f0ad34 	movhi	r3,49844
 1800df0:	e0bfee17 	ldw	r2,-72(fp)
 1800df4:	1887ffb2 	custom	254,r3,r3,r2
 1800df8:	008060b4 	movhi	r2,386
 1800dfc:	108ddf04 	addi	r2,r2,14204
 1800e00:	10c00315 	stw	r3,12(r2)
//    solution[0] = t1;
//    solution[1] = t2a-90;
//    solution[2] = 90-t3a;
//    solution[3] = t4a+279;

	return solution;
 1800e04:	e0bfff17 	ldw	r2,-4(fp)
}
 1800e08:	e037883a 	mov	sp,fp
 1800e0c:	dfc00717 	ldw	ra,28(sp)
 1800e10:	df000617 	ldw	fp,24(sp)
 1800e14:	dd400517 	ldw	r21,20(sp)
 1800e18:	dd000417 	ldw	r20,16(sp)
 1800e1c:	dcc00317 	ldw	r19,12(sp)
 1800e20:	dc800217 	ldw	r18,8(sp)
 1800e24:	dc400117 	ldw	r17,4(sp)
 1800e28:	dc000017 	ldw	r16,0(sp)
 1800e2c:	dec00804 	addi	sp,sp,32
 1800e30:	f800283a 	ret

01800e34 <task1>:
#define queueSize 32

float solution2[3];
/* Prints "Hello World" and sleeps for three seconds */
void task1(void* pdata)
{
 1800e34:	deff8504 	addi	sp,sp,-492
 1800e38:	dfc07a15 	stw	ra,488(sp)
 1800e3c:	df007915 	stw	fp,484(sp)
 1800e40:	dc007815 	stw	r16,480(sp)
 1800e44:	df007804 	addi	fp,sp,480
 1800e48:	e13fff15 	stw	r4,-4(fp)
	initilisePwm('W');
 1800e4c:	010015c4 	movi	r4,87
 1800e50:	18014900 	call	1801490 <initilisePwm>
	initilisePwm('E');
 1800e54:	01001144 	movi	r4,69
 1800e58:	18014900 	call	1801490 <initilisePwm>
	initilisePwm('S');
 1800e5c:	010014c4 	movi	r4,83
 1800e60:	18014900 	call	1801490 <initilisePwm>
	initilisePwm('s');
 1800e64:	01001cc4 	movi	r4,115
 1800e68:	18014900 	call	1801490 <initilisePwm>
	initilisePwm('B');
 1800e6c:	01001084 	movi	r4,66
 1800e70:	18014900 	call	1801490 <initilisePwm>
	////printf("initialise\n");
	int IKMode = 1; //to enable IK mode
 1800e74:	00800044 	movi	r2,1
 1800e78:	e0bf9115 	stw	r2,-444(fp)
	float lengths[5]; //in cm
				lengths[0] = 0;
 1800e7c:	e03f9215 	stw	zero,-440(fp)
				lengths[1] = 40;
 1800e80:	00908834 	movhi	r2,16928
 1800e84:	e0bf9315 	stw	r2,-436(fp)
				lengths[2] = 120;
 1800e88:	0090bc34 	movhi	r2,17136
 1800e8c:	e0bf9415 	stw	r2,-432(fp)
				lengths[3] = 120;
 1800e90:	0090bc34 	movhi	r2,17136
 1800e94:	e0bf9515 	stw	r2,-428(fp)
				lengths[4] = 120;
 1800e98:	0090bc34 	movhi	r2,17136
 1800e9c:	e0bf9615 	stw	r2,-424(fp)
	float target[4]; //in cm
	int noOfPositions = 14;
 1800ea0:	00800384 	movi	r2,14
 1800ea4:	e0bf9015 	stw	r2,-448(fp)
							{ 0,200,50,0,0, 10 },
							{ 0,200,150,0,0, 10 },
							{ 0,200,150,45,0, 10 },
							{ 0,200,150,-45,0, 100 },
							{ 0,200,150,0,0, 10 },
							{ 0,150,150,0,0, 10 }};
 1800ea8:	008060b4 	movhi	r2,386
 1800eac:	10ba0504 	addi	r2,r2,-6124
 1800eb0:	e13f9b04 	addi	r4,fp,-404
 1800eb4:	100b883a 	mov	r5,r2
 1800eb8:	01805404 	movi	r6,336
 1800ebc:	1806b2c0 	call	1806b2c <memcpy>
	int interpolations = 1000;
 1800ec0:	0080fa04 	movi	r2,1000
 1800ec4:	e0bf8f15 	stw	r2,-452(fp)
	int X = 0;
 1800ec8:	e03f8e15 	stw	zero,-456(fp)
	int i,j;
	int oldPosition = 0;
 1800ecc:	e03f8b15 	stw	zero,-468(fp)
	int newPosition = 0;
 1800ed0:	e03f8a15 	stw	zero,-472(fp)
	int oldPosition3d[6]= { 0,100,200,0,0, 10 };
 1800ed4:	e03fef15 	stw	zero,-68(fp)
 1800ed8:	00801904 	movi	r2,100
 1800edc:	e0bff015 	stw	r2,-64(fp)
 1800ee0:	00803204 	movi	r2,200
 1800ee4:	e0bff115 	stw	r2,-60(fp)
 1800ee8:	e03ff215 	stw	zero,-56(fp)
 1800eec:	e03ff315 	stw	zero,-52(fp)
 1800ef0:	00800284 	movi	r2,10
 1800ef4:	e0bff415 	stw	r2,-48(fp)
	int newPosition3d[6]= { 0,100,200,0,0, 10 };
 1800ef8:	e03ff515 	stw	zero,-44(fp)
 1800efc:	00801904 	movi	r2,100
 1800f00:	e0bff615 	stw	r2,-40(fp)
 1800f04:	00803204 	movi	r2,200
 1800f08:	e0bff715 	stw	r2,-36(fp)
 1800f0c:	e03ff815 	stw	zero,-32(fp)
 1800f10:	e03ff915 	stw	zero,-28(fp)
 1800f14:	00800284 	movi	r2,10
 1800f18:	e0bffa15 	stw	r2,-24(fp)
	int move = 0;
 1800f1c:	e03f8915 	stw	zero,-476(fp)
 1800f20:	00000006 	br	1800f24 <task1+0xf0>

	while (1) {
		if(IKMode==1)
 1800f24:	e0bf9117 	ldw	r2,-444(fp)
 1800f28:	10800058 	cmpnei	r2,r2,1
 1800f2c:	103ffd1e 	bne	r2,zero,1800f24 <task1+0xf0>
		{
			for (i = 0; i < 5; i++)
 1800f30:	e03f8d15 	stw	zero,-460(fp)
 1800f34:	00002206 	br	1800fc0 <task1+0x18c>
			{
				oldPosition3d[i] = newPosition3d[i] ;
 1800f38:	e0ff8d17 	ldw	r3,-460(fp)
 1800f3c:	e0bf8d17 	ldw	r2,-460(fp)
 1800f40:	1085883a 	add	r2,r2,r2
 1800f44:	1085883a 	add	r2,r2,r2
 1800f48:	e13f8804 	addi	r4,fp,-480
 1800f4c:	1105883a 	add	r2,r2,r4
 1800f50:	10806d04 	addi	r2,r2,436
 1800f54:	11000017 	ldw	r4,0(r2)
 1800f58:	18c5883a 	add	r2,r3,r3
 1800f5c:	1085883a 	add	r2,r2,r2
 1800f60:	e0ff8804 	addi	r3,fp,-480
 1800f64:	10c5883a 	add	r2,r2,r3
 1800f68:	10806704 	addi	r2,r2,412
 1800f6c:	11000015 	stw	r4,0(r2)
				newPosition3d[i] = positions3d[move][i];
 1800f70:	e13f8d17 	ldw	r4,-460(fp)
 1800f74:	e0bf8917 	ldw	r2,-476(fp)
 1800f78:	e0ff8d17 	ldw	r3,-460(fp)
 1800f7c:	108001a4 	muli	r2,r2,6
 1800f80:	10c5883a 	add	r2,r2,r3
 1800f84:	1085883a 	add	r2,r2,r2
 1800f88:	1085883a 	add	r2,r2,r2
 1800f8c:	e0ff8804 	addi	r3,fp,-480
 1800f90:	10c5883a 	add	r2,r2,r3
 1800f94:	10801304 	addi	r2,r2,76
 1800f98:	10c00017 	ldw	r3,0(r2)
 1800f9c:	2105883a 	add	r2,r4,r4
 1800fa0:	1085883a 	add	r2,r2,r2
 1800fa4:	e13f8804 	addi	r4,fp,-480
 1800fa8:	1105883a 	add	r2,r2,r4
 1800fac:	10806d04 	addi	r2,r2,436
 1800fb0:	10c00015 	stw	r3,0(r2)
	int move = 0;

	while (1) {
		if(IKMode==1)
		{
			for (i = 0; i < 5; i++)
 1800fb4:	e0bf8d17 	ldw	r2,-460(fp)
 1800fb8:	10800044 	addi	r2,r2,1
 1800fbc:	e0bf8d15 	stw	r2,-460(fp)
 1800fc0:	e0bf8d17 	ldw	r2,-460(fp)
 1800fc4:	10800150 	cmplti	r2,r2,5
 1800fc8:	103fdb1e 	bne	r2,zero,1800f38 <task1+0x104>
			{
				oldPosition3d[i] = newPosition3d[i] ;
				newPosition3d[i] = positions3d[move][i];
			}
			interpolations = positions3d[move][5];
 1800fcc:	e0bf8917 	ldw	r2,-476(fp)
 1800fd0:	10800624 	muli	r2,r2,24
 1800fd4:	e0ff8804 	addi	r3,fp,-480
 1800fd8:	10c5883a 	add	r2,r2,r3
 1800fdc:	10801804 	addi	r2,r2,96
 1800fe0:	10800017 	ldw	r2,0(r2)
 1800fe4:	e0bf8f15 	stw	r2,-452(fp)

			for (i = 0; i < interpolations; i++) {
 1800fe8:	e03f8d15 	stw	zero,-460(fp)
 1800fec:	00003406 	br	18010c0 <task1+0x28c>
				for (j = 0; j < 4; j++)
 1800ff0:	e03f8c15 	stw	zero,-464(fp)
 1800ff4:	00002006 	br	1801078 <task1+0x244>
				{
					oldPosition = oldPosition3d[j];
 1800ff8:	e0bf8c17 	ldw	r2,-464(fp)
 1800ffc:	1085883a 	add	r2,r2,r2
 1801000:	1085883a 	add	r2,r2,r2
 1801004:	e13f8804 	addi	r4,fp,-480
 1801008:	1105883a 	add	r2,r2,r4
 180100c:	10806704 	addi	r2,r2,412
 1801010:	10800017 	ldw	r2,0(r2)
 1801014:	e0bf8b15 	stw	r2,-468(fp)
					newPosition = newPosition3d[j];
 1801018:	e0bf8c17 	ldw	r2,-464(fp)
 180101c:	1085883a 	add	r2,r2,r2
 1801020:	1085883a 	add	r2,r2,r2
 1801024:	e0ff8804 	addi	r3,fp,-480
 1801028:	10c5883a 	add	r2,r2,r3
 180102c:	10806d04 	addi	r2,r2,436
 1801030:	10800017 	ldw	r2,0(r2)
 1801034:	e0bf8a15 	stw	r2,-472(fp)
					target[j] = smoothstep(oldPosition, newPosition, interpolations, i);
 1801038:	e43f8c17 	ldw	r16,-464(fp)
 180103c:	e13f8b17 	ldw	r4,-468(fp)
 1801040:	e17f8a17 	ldw	r5,-472(fp)
 1801044:	e1bf8f17 	ldw	r6,-452(fp)
 1801048:	e1ff8d17 	ldw	r7,-460(fp)
 180104c:	180194c0 	call	180194c <smoothstep>
 1801050:	1007883a 	mov	r3,r2
 1801054:	8405883a 	add	r2,r16,r16
 1801058:	1085883a 	add	r2,r2,r2
 180105c:	e13f8804 	addi	r4,fp,-480
 1801060:	1105883a 	add	r2,r2,r4
 1801064:	10800f04 	addi	r2,r2,60
 1801068:	10c00015 	stw	r3,0(r2)
				newPosition3d[i] = positions3d[move][i];
			}
			interpolations = positions3d[move][5];

			for (i = 0; i < interpolations; i++) {
				for (j = 0; j < 4; j++)
 180106c:	e0bf8c17 	ldw	r2,-464(fp)
 1801070:	10800044 	addi	r2,r2,1
 1801074:	e0bf8c15 	stw	r2,-464(fp)
 1801078:	e0bf8c17 	ldw	r2,-464(fp)
 180107c:	10800110 	cmplti	r2,r2,4
 1801080:	103fdd1e 	bne	r2,zero,1800ff8 <task1+0x1c4>
					newPosition = newPosition3d[j];
					target[j] = smoothstep(oldPosition, newPosition, interpolations, i);
				}

				float buf[4];
				float *solution = IK(lengths,target[3],target,buf);
 1801084:	e0bf9a17 	ldw	r2,-408(fp)
 1801088:	e13f9204 	addi	r4,fp,-440
 180108c:	e1bf9704 	addi	r6,fp,-420
 1801090:	e1fffb04 	addi	r7,fp,-20
 1801094:	100b883a 	mov	r5,r2
 1801098:	18000480 	call	1800048 <IK>
 180109c:	e0bf8815 	stw	r2,-480(fp)
//
//				setServoPosition('B', solution[0]);
//				setServoPosition('S', solution[1]);
//				setServoPosition('E', solution[2]);
//				setServoPosition('W', solution[3]);
			    OSTimeDlyHMSM(0, 0, 0, 100);
 18010a0:	0009883a 	mov	r4,zero
 18010a4:	000b883a 	mov	r5,zero
 18010a8:	000d883a 	mov	r6,zero
 18010ac:	01c01904 	movi	r7,100
 18010b0:	18176740 	call	1817674 <OSTimeDlyHMSM>
				oldPosition3d[i] = newPosition3d[i] ;
				newPosition3d[i] = positions3d[move][i];
			}
			interpolations = positions3d[move][5];

			for (i = 0; i < interpolations; i++) {
 18010b4:	e0bf8d17 	ldw	r2,-460(fp)
 18010b8:	10800044 	addi	r2,r2,1
 18010bc:	e0bf8d15 	stw	r2,-460(fp)
 18010c0:	e0ff8d17 	ldw	r3,-460(fp)
 18010c4:	e0bf8f17 	ldw	r2,-452(fp)
 18010c8:	18bfc916 	blt	r3,r2,1800ff0 <task1+0x1bc>
//				setServoPosition('S', solution[1]);
//				setServoPosition('E', solution[2]);
//				setServoPosition('W', solution[3]);
			    OSTimeDlyHMSM(0, 0, 0, 100);
			}
			move=move+1;
 18010cc:	e0bf8917 	ldw	r2,-476(fp)
 18010d0:	10800044 	addi	r2,r2,1
 18010d4:	e0bf8915 	stw	r2,-476(fp)
			if(move>=noOfPositions){move=0;}
 18010d8:	e0ff8917 	ldw	r3,-476(fp)
 18010dc:	e0bf9017 	ldw	r2,-448(fp)
 18010e0:	18800116 	blt	r3,r2,18010e8 <task1+0x2b4>
 18010e4:	e03f8915 	stw	zero,-476(fp)
			printf("here %d \n",move);
 18010e8:	010060b4 	movhi	r4,386
 18010ec:	213a5904 	addi	r4,r4,-5788
 18010f0:	e17f8917 	ldw	r5,-476(fp)
 18010f4:	1806bcc0 	call	1806bcc <printf>
		}
	}
 18010f8:	003f8a06 	br	1800f24 <task1+0xf0>

018010fc <task2>:
}
/* Prints "Hello World" and sleeps for three seconds */
void task2(void* pdata)
{
 18010fc:	defff704 	addi	sp,sp,-36
 1801100:	dfc00815 	stw	ra,32(sp)
 1801104:	df000715 	stw	fp,28(sp)
 1801108:	dc000615 	stw	r16,24(sp)
 180110c:	df000604 	addi	fp,sp,24
 1801110:	e13fff15 	stw	r4,-4(fp)
  while (1)
  { 
	extern float solution2[3];
	static int count = 0;
	int number = 100;
 1801114:	00801904 	movi	r2,100
 1801118:	e0bffb15 	stw	r2,-20(fp)
	int i;

	if (count >= number){count = 0;}
 180111c:	d0e03417 	ldw	r3,-32560(gp)
 1801120:	e0bffb17 	ldw	r2,-20(fp)
 1801124:	18800116 	blt	r3,r2,180112c <task2+0x30>
 1801128:	d0203415 	stw	zero,-32560(gp)

	static float filter[4][100];

	float output[3] = {0,0,0,0};
 180112c:	e03ffc15 	stw	zero,-16(fp)
 1801130:	e03ffd15 	stw	zero,-12(fp)
 1801134:	e03ffe15 	stw	zero,-8(fp)

	filter[0][count]=solution2[0];
 1801138:	d0e03417 	ldw	r3,-32560(gp)
 180113c:	008060b4 	movhi	r2,386
 1801140:	108ddf04 	addi	r2,r2,14204
 1801144:	11400017 	ldw	r5,0(r2)
 1801148:	010060b4 	movhi	r4,386
 180114c:	21044504 	addi	r4,r4,4372
 1801150:	18c5883a 	add	r2,r3,r3
 1801154:	1085883a 	add	r2,r2,r2
 1801158:	1105883a 	add	r2,r2,r4
 180115c:	11400015 	stw	r5,0(r2)
	filter[1][count]=solution2[1];
 1801160:	d0e03417 	ldw	r3,-32560(gp)
 1801164:	008060b4 	movhi	r2,386
 1801168:	108ddf04 	addi	r2,r2,14204
 180116c:	11400117 	ldw	r5,4(r2)
 1801170:	010060b4 	movhi	r4,386
 1801174:	21044504 	addi	r4,r4,4372
 1801178:	18c5883a 	add	r2,r3,r3
 180117c:	1085883a 	add	r2,r2,r2
 1801180:	1105883a 	add	r2,r2,r4
 1801184:	10806404 	addi	r2,r2,400
 1801188:	11400015 	stw	r5,0(r2)
	filter[2][count]=solution2[2];
 180118c:	d0e03417 	ldw	r3,-32560(gp)
 1801190:	008060b4 	movhi	r2,386
 1801194:	108ddf04 	addi	r2,r2,14204
 1801198:	11400217 	ldw	r5,8(r2)
 180119c:	010060b4 	movhi	r4,386
 18011a0:	21044504 	addi	r4,r4,4372
 18011a4:	18c5883a 	add	r2,r3,r3
 18011a8:	1085883a 	add	r2,r2,r2
 18011ac:	1105883a 	add	r2,r2,r4
 18011b0:	1080c804 	addi	r2,r2,800
 18011b4:	11400015 	stw	r5,0(r2)
	filter[3][count]=solution2[3];
 18011b8:	d0e03417 	ldw	r3,-32560(gp)
 18011bc:	008060b4 	movhi	r2,386
 18011c0:	108ddf04 	addi	r2,r2,14204
 18011c4:	11400317 	ldw	r5,12(r2)
 18011c8:	010060b4 	movhi	r4,386
 18011cc:	21044504 	addi	r4,r4,4372
 18011d0:	18c5883a 	add	r2,r3,r3
 18011d4:	1085883a 	add	r2,r2,r2
 18011d8:	1105883a 	add	r2,r2,r4
 18011dc:	10812c04 	addi	r2,r2,1200
 18011e0:	11400015 	stw	r5,0(r2)

	for (i = 0; i < number; i++){output[0] += filter[0][i];}
 18011e4:	e03ffa15 	stw	zero,-24(fp)
 18011e8:	00000d06 	br	1801220 <task2+0x124>
 18011ec:	e13ffc17 	ldw	r4,-16(fp)
 18011f0:	e0bffa17 	ldw	r2,-24(fp)
 18011f4:	00c060b4 	movhi	r3,386
 18011f8:	18c44504 	addi	r3,r3,4372
 18011fc:	1085883a 	add	r2,r2,r2
 1801200:	1085883a 	add	r2,r2,r2
 1801204:	10c5883a 	add	r2,r2,r3
 1801208:	10800017 	ldw	r2,0(r2)
 180120c:	2085ff72 	custom	253,r2,r4,r2
 1801210:	e0bffc15 	stw	r2,-16(fp)
 1801214:	e0bffa17 	ldw	r2,-24(fp)
 1801218:	10800044 	addi	r2,r2,1
 180121c:	e0bffa15 	stw	r2,-24(fp)
 1801220:	e0fffa17 	ldw	r3,-24(fp)
 1801224:	e0bffb17 	ldw	r2,-20(fp)
 1801228:	18bff016 	blt	r3,r2,18011ec <task2+0xf0>
	output[0] = output[0] / number;
 180122c:	e43ffc17 	ldw	r16,-16(fp)
 1801230:	e13ffb17 	ldw	r4,-20(fp)
 1801234:	18050a80 	call	18050a8 <__floatsisf>
 1801238:	8009883a 	mov	r4,r16
 180123c:	100b883a 	mov	r5,r2
 1801240:	1804f340 	call	1804f34 <__divsf3>
 1801244:	e0bffc15 	stw	r2,-16(fp)
	for (i = 0; i < number; i++){output[1] += filter[1][i];}
 1801248:	e03ffa15 	stw	zero,-24(fp)
 180124c:	00000e06 	br	1801288 <task2+0x18c>
 1801250:	e13ffd17 	ldw	r4,-12(fp)
 1801254:	e0bffa17 	ldw	r2,-24(fp)
 1801258:	00c060b4 	movhi	r3,386
 180125c:	18c44504 	addi	r3,r3,4372
 1801260:	1085883a 	add	r2,r2,r2
 1801264:	1085883a 	add	r2,r2,r2
 1801268:	10c5883a 	add	r2,r2,r3
 180126c:	10806404 	addi	r2,r2,400
 1801270:	10800017 	ldw	r2,0(r2)
 1801274:	2085ff72 	custom	253,r2,r4,r2
 1801278:	e0bffd15 	stw	r2,-12(fp)
 180127c:	e0bffa17 	ldw	r2,-24(fp)
 1801280:	10800044 	addi	r2,r2,1
 1801284:	e0bffa15 	stw	r2,-24(fp)
 1801288:	e0fffa17 	ldw	r3,-24(fp)
 180128c:	e0bffb17 	ldw	r2,-20(fp)
 1801290:	18bfef16 	blt	r3,r2,1801250 <task2+0x154>
	output[1] = output[1] / number;
 1801294:	e43ffd17 	ldw	r16,-12(fp)
 1801298:	e13ffb17 	ldw	r4,-20(fp)
 180129c:	18050a80 	call	18050a8 <__floatsisf>
 18012a0:	8009883a 	mov	r4,r16
 18012a4:	100b883a 	mov	r5,r2
 18012a8:	1804f340 	call	1804f34 <__divsf3>
 18012ac:	e0bffd15 	stw	r2,-12(fp)
	for (i = 0; i < number; i++){output[2] += filter[2][i];}
 18012b0:	e03ffa15 	stw	zero,-24(fp)
 18012b4:	00000e06 	br	18012f0 <task2+0x1f4>
 18012b8:	e13ffe17 	ldw	r4,-8(fp)
 18012bc:	e0bffa17 	ldw	r2,-24(fp)
 18012c0:	00c060b4 	movhi	r3,386
 18012c4:	18c44504 	addi	r3,r3,4372
 18012c8:	1085883a 	add	r2,r2,r2
 18012cc:	1085883a 	add	r2,r2,r2
 18012d0:	10c5883a 	add	r2,r2,r3
 18012d4:	1080c804 	addi	r2,r2,800
 18012d8:	10800017 	ldw	r2,0(r2)
 18012dc:	2085ff72 	custom	253,r2,r4,r2
 18012e0:	e0bffe15 	stw	r2,-8(fp)
 18012e4:	e0bffa17 	ldw	r2,-24(fp)
 18012e8:	10800044 	addi	r2,r2,1
 18012ec:	e0bffa15 	stw	r2,-24(fp)
 18012f0:	e0fffa17 	ldw	r3,-24(fp)
 18012f4:	e0bffb17 	ldw	r2,-20(fp)
 18012f8:	18bfef16 	blt	r3,r2,18012b8 <task2+0x1bc>
	output[2] = output[2] / number;
 18012fc:	e43ffe17 	ldw	r16,-8(fp)
 1801300:	e13ffb17 	ldw	r4,-20(fp)
 1801304:	18050a80 	call	18050a8 <__floatsisf>
 1801308:	8009883a 	mov	r4,r16
 180130c:	100b883a 	mov	r5,r2
 1801310:	1804f340 	call	1804f34 <__divsf3>
 1801314:	e0bffe15 	stw	r2,-8(fp)
	for (i = 0; i < number; i++){output[3] += filter[3][i];}
 1801318:	e03ffa15 	stw	zero,-24(fp)
 180131c:	00000e06 	br	1801358 <task2+0x25c>
 1801320:	e13fff17 	ldw	r4,-4(fp)
 1801324:	e0bffa17 	ldw	r2,-24(fp)
 1801328:	00c060b4 	movhi	r3,386
 180132c:	18c44504 	addi	r3,r3,4372
 1801330:	1085883a 	add	r2,r2,r2
 1801334:	1085883a 	add	r2,r2,r2
 1801338:	10c5883a 	add	r2,r2,r3
 180133c:	10812c04 	addi	r2,r2,1200
 1801340:	10800017 	ldw	r2,0(r2)
 1801344:	2085ff72 	custom	253,r2,r4,r2
 1801348:	e0bfff15 	stw	r2,-4(fp)
 180134c:	e0bffa17 	ldw	r2,-24(fp)
 1801350:	10800044 	addi	r2,r2,1
 1801354:	e0bffa15 	stw	r2,-24(fp)
 1801358:	e0fffa17 	ldw	r3,-24(fp)
 180135c:	e0bffb17 	ldw	r2,-20(fp)
 1801360:	18bfef16 	blt	r3,r2,1801320 <task2+0x224>
	output[3] = output[3] / number;
 1801364:	e43fff17 	ldw	r16,-4(fp)
 1801368:	e13ffb17 	ldw	r4,-20(fp)
 180136c:	18050a80 	call	18050a8 <__floatsisf>
 1801370:	8009883a 	mov	r4,r16
 1801374:	100b883a 	mov	r5,r2
 1801378:	1804f340 	call	1804f34 <__divsf3>
 180137c:	e0bfff15 	stw	r2,-4(fp)

	setServoPosition('B', output[0]);
 1801380:	e0bffc17 	ldw	r2,-16(fp)
 1801384:	01001084 	movi	r4,66
 1801388:	100b883a 	mov	r5,r2
 180138c:	18017580 	call	1801758 <setServoPosition>
	setServoPosition('S', output[1]);
 1801390:	e0bffd17 	ldw	r2,-12(fp)
 1801394:	010014c4 	movi	r4,83
 1801398:	100b883a 	mov	r5,r2
 180139c:	18017580 	call	1801758 <setServoPosition>
	setServoPosition('E', output[2]);
 18013a0:	e0bffe17 	ldw	r2,-8(fp)
 18013a4:	01001144 	movi	r4,69
 18013a8:	100b883a 	mov	r5,r2
 18013ac:	18017580 	call	1801758 <setServoPosition>
	setServoPosition('W', output[3]);
 18013b0:	e0bfff17 	ldw	r2,-4(fp)
 18013b4:	010015c4 	movi	r4,87
 18013b8:	100b883a 	mov	r5,r2
 18013bc:	18017580 	call	1801758 <setServoPosition>
	//printf(" %f    %f\n",solution2[1],output[1]);
	count++;
 18013c0:	d0a03417 	ldw	r2,-32560(gp)
 18013c4:	10800044 	addi	r2,r2,1
 18013c8:	d0a03415 	stw	r2,-32560(gp)
    OSTimeDlyHMSM(0, 0, 0, 10);
 18013cc:	0009883a 	mov	r4,zero
 18013d0:	000b883a 	mov	r5,zero
 18013d4:	000d883a 	mov	r6,zero
 18013d8:	01c00284 	movi	r7,10
 18013dc:	18176740 	call	1817674 <OSTimeDlyHMSM>
  }
 18013e0:	003f4c06 	br	1801114 <task2+0x18>

018013e4 <main>:
}
/* The main function creates two task and starts multi-tasking */
int main(void)
{
 18013e4:	defff904 	addi	sp,sp,-28
 18013e8:	dfc00615 	stw	ra,24(sp)
 18013ec:	df000515 	stw	fp,20(sp)
 18013f0:	df000504 	addi	fp,sp,20
  
  OSTaskCreateExt(task1,
 18013f4:	018060b4 	movhi	r6,386
 18013f8:	318dde04 	addi	r6,r6,14200
 18013fc:	00800084 	movi	r2,2
 1801400:	d8800015 	stw	r2,0(sp)
 1801404:	008060b4 	movhi	r2,386
 1801408:	1085df04 	addi	r2,r2,6012
 180140c:	d8800115 	stw	r2,4(sp)
 1801410:	00820004 	movi	r2,2048
 1801414:	d8800215 	stw	r2,8(sp)
 1801418:	d8000315 	stw	zero,12(sp)
 180141c:	d8000415 	stw	zero,16(sp)
 1801420:	01006034 	movhi	r4,384
 1801424:	21038d04 	addi	r4,r4,3636
 1801428:	000b883a 	mov	r5,zero
 180142c:	01c00084 	movi	r7,2
 1801430:	18162300 	call	1816230 <OSTaskCreateExt>
                  TASK_STACKSIZE,
                  NULL,
                  0);


  OSTaskCreateExt(task2,
 1801434:	018060b4 	movhi	r6,386
 1801438:	3195e104 	addi	r6,r6,22404
 180143c:	00800044 	movi	r2,1
 1801440:	d8800015 	stw	r2,0(sp)
 1801444:	008060b4 	movhi	r2,386
 1801448:	108de204 	addi	r2,r2,14216
 180144c:	d8800115 	stw	r2,4(sp)
 1801450:	00820004 	movi	r2,2048
 1801454:	d8800215 	stw	r2,8(sp)
 1801458:	d8000315 	stw	zero,12(sp)
 180145c:	d8000415 	stw	zero,16(sp)
 1801460:	01006034 	movhi	r4,384
 1801464:	21043f04 	addi	r4,r4,4348
 1801468:	000b883a 	mov	r5,zero
 180146c:	01c00044 	movi	r7,1
 1801470:	18162300 	call	1816230 <OSTaskCreateExt>
                  TASK2_PRIORITY,
                  task2_stk,
                  TASK_STACKSIZE,
                  NULL,
                  0);
  OSStart();
 1801474:	181045c0 	call	181045c <OSStart>
  return 0;
 1801478:	0005883a 	mov	r2,zero
}
 180147c:	e037883a 	mov	sp,fp
 1801480:	dfc00117 	ldw	ra,4(sp)
 1801484:	df000017 	ldw	fp,0(sp)
 1801488:	dec00204 	addi	sp,sp,8
 180148c:	f800283a 	ret

01801490 <initilisePwm>:
 *  Description : This module runs the start up sequence for whichever PWM module is specified
 *                by the input variable
 *
 **************************************************************************************************/
int initilisePwm(char moduleToInitilise)
{
 1801490:	defffb04 	addi	sp,sp,-20
 1801494:	df000415 	stw	fp,16(sp)
 1801498:	df000404 	addi	fp,sp,16
 180149c:	e13ffd05 	stb	r4,-12(fp)
    int address = 0;
 18014a0:	e03ffc15 	stw	zero,-16(fp)
    switch (moduleToInitilise)
 18014a4:	e0bffd07 	ldb	r2,-12(fp)
 18014a8:	10bfef84 	addi	r2,r2,-66
 18014ac:	e0bfff15 	stw	r2,-4(fp)
 18014b0:	e0ffff17 	ldw	r3,-4(fp)
 18014b4:	18800ca8 	cmpgeui	r2,r3,50
 18014b8:	10004d1e 	bne	r2,zero,18015f0 <initilisePwm+0x160>
 18014bc:	e13fff17 	ldw	r4,-4(fp)
 18014c0:	e13fff17 	ldw	r4,-4(fp)
 18014c4:	2105883a 	add	r2,r4,r4
 18014c8:	1087883a 	add	r3,r2,r2
 18014cc:	00806034 	movhi	r2,384
 18014d0:	10853804 	addi	r2,r2,5344
 18014d4:	1885883a 	add	r2,r3,r2
 18014d8:	10800017 	ldw	r2,0(r2)
 18014dc:	1000683a 	jmp	r2
 18014e0:	018015a8 	cmpgeui	r6,zero,86
 18014e4:	018015f0 	cmpltui	r6,zero,87
 18014e8:	018015f0 	cmpltui	r6,zero,87
 18014ec:	018015cc 	andi	r6,zero,87
 18014f0:	018015f0 	cmpltui	r6,zero,87
 18014f4:	018015e4 	muli	r6,zero,87
 18014f8:	018015f0 	cmpltui	r6,zero,87
 18014fc:	018015f0 	cmpltui	r6,zero,87
 1801500:	018015f0 	cmpltui	r6,zero,87
 1801504:	018015f0 	cmpltui	r6,zero,87
 1801508:	018015f0 	cmpltui	r6,zero,87
 180150c:	018015f0 	cmpltui	r6,zero,87
 1801510:	018015f0 	cmpltui	r6,zero,87
 1801514:	018015f0 	cmpltui	r6,zero,87
 1801518:	018015f0 	cmpltui	r6,zero,87
 180151c:	018015f0 	cmpltui	r6,zero,87
 1801520:	018015f0 	cmpltui	r6,zero,87
 1801524:	018015b4 	movhi	r6,86
 1801528:	018015f0 	cmpltui	r6,zero,87
 180152c:	018015f0 	cmpltui	r6,zero,87
 1801530:	018015f0 	cmpltui	r6,zero,87
 1801534:	018015d8 	cmpnei	r6,zero,87
 1801538:	018015f0 	cmpltui	r6,zero,87
 180153c:	018015f0 	cmpltui	r6,zero,87
 1801540:	018015f0 	cmpltui	r6,zero,87
 1801544:	018015f0 	cmpltui	r6,zero,87
 1801548:	018015f0 	cmpltui	r6,zero,87
 180154c:	018015f0 	cmpltui	r6,zero,87
 1801550:	018015f0 	cmpltui	r6,zero,87
 1801554:	018015f0 	cmpltui	r6,zero,87
 1801558:	018015f0 	cmpltui	r6,zero,87
 180155c:	018015f0 	cmpltui	r6,zero,87
 1801560:	018015f0 	cmpltui	r6,zero,87
 1801564:	018015f0 	cmpltui	r6,zero,87
 1801568:	018015f0 	cmpltui	r6,zero,87
 180156c:	018015f0 	cmpltui	r6,zero,87
 1801570:	018015f0 	cmpltui	r6,zero,87
 1801574:	018015f0 	cmpltui	r6,zero,87
 1801578:	018015f0 	cmpltui	r6,zero,87
 180157c:	018015f0 	cmpltui	r6,zero,87
 1801580:	018015f0 	cmpltui	r6,zero,87
 1801584:	018015f0 	cmpltui	r6,zero,87
 1801588:	018015f0 	cmpltui	r6,zero,87
 180158c:	018015f0 	cmpltui	r6,zero,87
 1801590:	018015f0 	cmpltui	r6,zero,87
 1801594:	018015f0 	cmpltui	r6,zero,87
 1801598:	018015f0 	cmpltui	r6,zero,87
 180159c:	018015f0 	cmpltui	r6,zero,87
 18015a0:	018015f0 	cmpltui	r6,zero,87
 18015a4:	018015c0 	call	18015c <OSCtxSw_SWITCH_PC+0x18011c>
    {
        case 'B' :
        	address = MY_PWM_5_BASE;
 18015a8:	00807804 	movi	r2,480
 18015ac:	e0bffc15 	stw	r2,-16(fp)
            break;
 18015b0:	00001106 	br	18015f8 <initilisePwm+0x168>
        case 'S' :
        	address = MY_PWM_3_BASE;
 18015b4:	00807004 	movi	r2,448
 18015b8:	e0bffc15 	stw	r2,-16(fp)
            break;
 18015bc:	00000e06 	br	18015f8 <initilisePwm+0x168>
        case 's' :
        	address = MY_PWM_4_BASE;
 18015c0:	00807404 	movi	r2,464
 18015c4:	e0bffc15 	stw	r2,-16(fp)
            break;
 18015c8:	00000b06 	br	18015f8 <initilisePwm+0x168>
        case 'E' :
        	address = MY_PWM_2_BASE;
 18015cc:	00806c04 	movi	r2,432
 18015d0:	e0bffc15 	stw	r2,-16(fp)
            break;
 18015d4:	00000806 	br	18015f8 <initilisePwm+0x168>
        case 'W' :
        	address = MY_PWM_1_BASE;
 18015d8:	00806804 	movi	r2,416
 18015dc:	e0bffc15 	stw	r2,-16(fp)
            break;
 18015e0:	00000506 	br	18015f8 <initilisePwm+0x168>
        case 'G' :
        	address = MY_PWM_0_BASE;
 18015e4:	00806404 	movi	r2,400
 18015e8:	e0bffc15 	stw	r2,-16(fp)
            break;
 18015ec:	00000206 	br	18015f8 <initilisePwm+0x168>
        default :
        	return 0;
 18015f0:	e03ffe15 	stw	zero,-8(fp)
 18015f4:	00001506 	br	180164c <initilisePwm+0x1bc>
        	break;
    }
		IOWR_ALTERA_AVALON_PWM_CLK_DIV(address,5);//100
 18015f8:	e0bffc17 	ldw	r2,-16(fp)
 18015fc:	10800104 	addi	r2,r2,4
 1801600:	1007883a 	mov	r3,r2
 1801604:	00800144 	movi	r2,5
 1801608:	18800035 	stwio	r2,0(r3)
		IOWR_ALTERA_AVALON_PWM_DUTY(address, 1500);
 180160c:	e0bffc17 	ldw	r2,-16(fp)
 1801610:	1007883a 	mov	r3,r2
 1801614:	00817704 	movi	r2,1500
 1801618:	18800035 	stwio	r2,0(r3)
		IOWR_ALTERA_AVALON_PWM_PERIOD(address, 20000);//1000
 180161c:	e0bffc17 	ldw	r2,-16(fp)
 1801620:	10800204 	addi	r2,r2,8
 1801624:	1007883a 	mov	r3,r2
 1801628:	00938804 	movi	r2,20000
 180162c:	18800035 	stwio	r2,0(r3)
		IOWR_ALTERA_AVALON_PWM_CONTROL(address, 1);
 1801630:	e0bffc17 	ldw	r2,-16(fp)
 1801634:	10800304 	addi	r2,r2,12
 1801638:	1007883a 	mov	r3,r2
 180163c:	00800044 	movi	r2,1
 1801640:	18800035 	stwio	r2,0(r3)

    return 1;
 1801644:	00800044 	movi	r2,1
 1801648:	e0bffe15 	stw	r2,-8(fp)
 180164c:	e0bffe17 	ldw	r2,-8(fp)
}
 1801650:	e037883a 	mov	sp,fp
 1801654:	df000017 	ldw	fp,0(sp)
 1801658:	dec00104 	addi	sp,sp,4
 180165c:	f800283a 	ret

01801660 <setPwmDutyCycle>:
 *
 *  Description : This module updates the duty cycle for the selected PWM module
 *
 **************************************************************************************************/
int setPwmDutyCycle ( int channel, int dutyCycle)
{
 1801660:	defffb04 	addi	sp,sp,-20
 1801664:	df000415 	stw	fp,16(sp)
 1801668:	df000404 	addi	fp,sp,16
 180166c:	e13ffd15 	stw	r4,-12(fp)
 1801670:	e17ffe15 	stw	r5,-8(fp)
    //get address of PWM Channel

    int address = 0;
 1801674:	e03ffc15 	stw	zero,-16(fp)

    switch (channel)
 1801678:	e0bffd17 	ldw	r2,-12(fp)
 180167c:	108001e8 	cmpgeui	r2,r2,7
 1801680:	1000211e 	bne	r2,zero,1801708 <setPwmDutyCycle+0xa8>
 1801684:	e0bffd17 	ldw	r2,-12(fp)
 1801688:	1085883a 	add	r2,r2,r2
 180168c:	1087883a 	add	r3,r2,r2
 1801690:	00806034 	movhi	r2,384
 1801694:	1085a904 	addi	r2,r2,5796
 1801698:	1885883a 	add	r2,r3,r2
 180169c:	10800017 	ldw	r2,0(r2)
 18016a0:	1000683a 	jmp	r2
 18016a4:	01801708 	cmpgei	r6,zero,92
 18016a8:	018016c0 	call	18016c <OSCtxSw_SWITCH_PC+0x18012c>
 18016ac:	018016cc 	andi	r6,zero,91
 18016b0:	018016d8 	cmpnei	r6,zero,91
 18016b4:	018016e4 	muli	r6,zero,91
 18016b8:	018016f0 	cmpltui	r6,zero,91
 18016bc:	018016fc 	xorhi	r6,zero,91
    {
        case 1 :
            address = MY_PWM_0_BASE;
 18016c0:	00806404 	movi	r2,400
 18016c4:	e0bffc15 	stw	r2,-16(fp)
            break;
 18016c8:	00001106 	br	1801710 <setPwmDutyCycle+0xb0>
        case 2 :
            address = MY_PWM_1_BASE;
 18016cc:	00806804 	movi	r2,416
 18016d0:	e0bffc15 	stw	r2,-16(fp)
            break;
 18016d4:	00000e06 	br	1801710 <setPwmDutyCycle+0xb0>
        case 3 :
            address = MY_PWM_2_BASE;
 18016d8:	00806c04 	movi	r2,432
 18016dc:	e0bffc15 	stw	r2,-16(fp)
            break;
 18016e0:	00000b06 	br	1801710 <setPwmDutyCycle+0xb0>
        case 4 :
            address = MY_PWM_3_BASE;
 18016e4:	00807004 	movi	r2,448
 18016e8:	e0bffc15 	stw	r2,-16(fp)
            break;
 18016ec:	00000806 	br	1801710 <setPwmDutyCycle+0xb0>
        case 5 :
            address = MY_PWM_4_BASE;
 18016f0:	00807404 	movi	r2,464
 18016f4:	e0bffc15 	stw	r2,-16(fp)
            break;
 18016f8:	00000506 	br	1801710 <setPwmDutyCycle+0xb0>
        case 6 :
            address = MY_PWM_5_BASE;
 18016fc:	00807804 	movi	r2,480
 1801700:	e0bffc15 	stw	r2,-16(fp)
            break;
 1801704:	00000206 	br	1801710 <setPwmDutyCycle+0xb0>
        default :
            //unrecognised channal selected
            return 0;
 1801708:	e03fff15 	stw	zero,-4(fp)
 180170c:	00000d06 	br	1801744 <setPwmDutyCycle+0xe4>

    }

    //check the desired PWM module is active
    if(IORD_ALTERA_AVALON_PWM_CONTROL(address) == 0)
 1801710:	e0bffc17 	ldw	r2,-16(fp)
 1801714:	10800304 	addi	r2,r2,12
 1801718:	10800037 	ldwio	r2,0(r2)
 180171c:	1004c03a 	cmpne	r2,r2,zero
 1801720:	1000021e 	bne	r2,zero,180172c <setPwmDutyCycle+0xcc>
    {
        return 0;
 1801724:	e03fff15 	stw	zero,-4(fp)
 1801728:	00000606 	br	1801744 <setPwmDutyCycle+0xe4>

    //check duty cycle is within bounds (0-100)
    //if(Duty_Cycle > 125) Duty_Cycle = 125;
    //if(Duty_Cycle < 25) Duty_Cycle = 0;
    //set the channel to the desired Duty Cycle
    IOWR_ALTERA_AVALON_PWM_DUTY(address, dutyCycle);
 180172c:	e0bffc17 	ldw	r2,-16(fp)
 1801730:	1007883a 	mov	r3,r2
 1801734:	e0bffe17 	ldw	r2,-8(fp)
 1801738:	18800035 	stwio	r2,0(r3)

    return 1;
 180173c:	00800044 	movi	r2,1
 1801740:	e0bfff15 	stw	r2,-4(fp)
 1801744:	e0bfff17 	ldw	r2,-4(fp)
}
 1801748:	e037883a 	mov	sp,fp
 180174c:	df000017 	ldw	fp,0(sp)
 1801750:	dec00104 	addi	sp,sp,4
 1801754:	f800283a 	ret

01801758 <setServoPosition>:
 *  Description : This module converts an input angle to a pulse width and passes it
 *  			  to the corresponding PWM module
 *
 **************************************************************************************************/
int setServoPosition (char servo, float position)
{
 1801758:	defff804 	addi	sp,sp,-32
 180175c:	dfc00715 	stw	ra,28(sp)
 1801760:	df000615 	stw	fp,24(sp)
 1801764:	df000604 	addi	fp,sp,24
 1801768:	e17ffd15 	stw	r5,-12(fp)
 180176c:	e13ffc05 	stb	r4,-16(fp)
	int pulseWidth = round(map(position,-90,90,400,2100));//50 to 250
 1801770:	009140f4 	movhi	r2,17667
 1801774:	10900004 	addi	r2,r2,16384
 1801778:	d8800015 	stw	r2,0(sp)
 180177c:	e13ffd17 	ldw	r4,-12(fp)
 1801780:	0170ad34 	movhi	r5,49844
 1801784:	0190ad34 	movhi	r6,17076
 1801788:	01d0f234 	movhi	r7,17352
 180178c:	18018dc0 	call	18018dc <map>
 1801790:	1009883a 	mov	r4,r2
 1801794:	18051400 	call	1805140 <__extendsfdf2>
 1801798:	100b883a 	mov	r5,r2
 180179c:	180d883a 	mov	r6,r3
 18017a0:	2809883a 	mov	r4,r5
 18017a4:	300b883a 	mov	r5,r6
 18017a8:	1801b780 	call	1801b78 <round>
 18017ac:	100b883a 	mov	r5,r2
 18017b0:	180d883a 	mov	r6,r3
 18017b4:	2809883a 	mov	r4,r5
 18017b8:	300b883a 	mov	r5,r6
 18017bc:	1805fcc0 	call	1805fcc <__fixdfsi>
 18017c0:	e0bffb15 	stw	r2,-20(fp)
    switch (servo)
 18017c4:	e0bffc07 	ldb	r2,-16(fp)
 18017c8:	10bfef84 	addi	r2,r2,-66
 18017cc:	e0bfff15 	stw	r2,-4(fp)
 18017d0:	e0ffff17 	ldw	r3,-4(fp)
 18017d4:	188005a8 	cmpgeui	r2,r3,22
 18017d8:	1000361e 	bne	r2,zero,18018b4 <setServoPosition+0x15c>
 18017dc:	e13fff17 	ldw	r4,-4(fp)
 18017e0:	e13fff17 	ldw	r4,-4(fp)
 18017e4:	2105883a 	add	r2,r4,r4
 18017e8:	1087883a 	add	r3,r2,r2
 18017ec:	00806034 	movhi	r2,384
 18017f0:	10860004 	addi	r2,r2,6144
 18017f4:	1885883a 	add	r2,r3,r2
 18017f8:	10800017 	ldw	r2,0(r2)
 18017fc:	1000683a 	jmp	r2
 1801800:	018018a4 	muli	r6,zero,98
 1801804:	018018b4 	movhi	r6,98
 1801808:	018018b4 	movhi	r6,98
 180180c:	01801878 	rdprs	r6,zero,97
 1801810:	018018b4 	movhi	r6,98
 1801814:	01801858 	cmpnei	r6,zero,97
 1801818:	018018b4 	movhi	r6,98
 180181c:	018018b4 	movhi	r6,98
 1801820:	018018b4 	movhi	r6,98
 1801824:	018018b4 	movhi	r6,98
 1801828:	018018b4 	movhi	r6,98
 180182c:	018018b4 	movhi	r6,98
 1801830:	018018b4 	movhi	r6,98
 1801834:	018018b4 	movhi	r6,98
 1801838:	018018b4 	movhi	r6,98
 180183c:	018018b4 	movhi	r6,98
 1801840:	018018b4 	movhi	r6,98
 1801844:	01801888 	cmpgei	r6,zero,98
 1801848:	018018b4 	movhi	r6,98
 180184c:	018018b4 	movhi	r6,98
 1801850:	018018b4 	movhi	r6,98
 1801854:	01801868 	cmpgeui	r6,zero,97
    {
        case 'G' :
        	setPwmDutyCycle(1, pulseWidth);
 1801858:	01000044 	movi	r4,1
 180185c:	e17ffb17 	ldw	r5,-20(fp)
 1801860:	18016600 	call	1801660 <setPwmDutyCycle>
            break;
 1801864:	00001506 	br	18018bc <setServoPosition+0x164>
        case 'W' :
        	setPwmDutyCycle(2, pulseWidth);
 1801868:	01000084 	movi	r4,2
 180186c:	e17ffb17 	ldw	r5,-20(fp)
 1801870:	18016600 	call	1801660 <setPwmDutyCycle>
            break;
 1801874:	00001106 	br	18018bc <setServoPosition+0x164>
        case 'E' :
        	setPwmDutyCycle(3, pulseWidth);
 1801878:	010000c4 	movi	r4,3
 180187c:	e17ffb17 	ldw	r5,-20(fp)
 1801880:	18016600 	call	1801660 <setPwmDutyCycle>
            break;
 1801884:	00000d06 	br	18018bc <setServoPosition+0x164>
        case 'S' :
        	setPwmDutyCycle(4, pulseWidth);
 1801888:	01000104 	movi	r4,4
 180188c:	e17ffb17 	ldw	r5,-20(fp)
 1801890:	18016600 	call	1801660 <setPwmDutyCycle>
        	setPwmDutyCycle(5, pulseWidth);
 1801894:	01000144 	movi	r4,5
 1801898:	e17ffb17 	ldw	r5,-20(fp)
 180189c:	18016600 	call	1801660 <setPwmDutyCycle>
            break;
 18018a0:	00000606 	br	18018bc <setServoPosition+0x164>
        case 'B' :
        	setPwmDutyCycle(6, pulseWidth);
 18018a4:	01000184 	movi	r4,6
 18018a8:	e17ffb17 	ldw	r5,-20(fp)
 18018ac:	18016600 	call	1801660 <setPwmDutyCycle>
            break;
 18018b0:	00000206 	br	18018bc <setServoPosition+0x164>
        default :
            //unrecognised channal selected
            return 0;
 18018b4:	e03ffe15 	stw	zero,-8(fp)
 18018b8:	00000206 	br	18018c4 <setServoPosition+0x16c>
    }
    return pulseWidth;
 18018bc:	e0bffb17 	ldw	r2,-20(fp)
 18018c0:	e0bffe15 	stw	r2,-8(fp)
 18018c4:	e0bffe17 	ldw	r2,-8(fp)
}
 18018c8:	e037883a 	mov	sp,fp
 18018cc:	dfc00117 	ldw	ra,4(sp)
 18018d0:	df000017 	ldw	fp,0(sp)
 18018d4:	dec00204 	addi	sp,sp,8
 18018d8:	f800283a 	ret

018018dc <map>:
 *  Description : This module allows a value between 2 bounds to be linearly mapped
 *  			  from one range to another.
 **************************************************************************************************/

float map(float x, float inMin, float inMax, float outMin, float outMax)
{
 18018dc:	defffa04 	addi	sp,sp,-24
 18018e0:	dfc00515 	stw	ra,20(sp)
 18018e4:	df000415 	stw	fp,16(sp)
 18018e8:	df000404 	addi	fp,sp,16
 18018ec:	e13ffc15 	stw	r4,-16(fp)
 18018f0:	e17ffd15 	stw	r5,-12(fp)
 18018f4:	e1bffe15 	stw	r6,-8(fp)
 18018f8:	e1ffff15 	stw	r7,-4(fp)
  return (float)(x - inMin) * (outMax - outMin) / (inMax - inMin) + outMin;
 18018fc:	e0fffc17 	ldw	r3,-16(fp)
 1801900:	e0bffd17 	ldw	r2,-12(fp)
 1801904:	1889ffb2 	custom	254,r4,r3,r2
 1801908:	e0c00217 	ldw	r3,8(fp)
 180190c:	e0bfff17 	ldw	r2,-4(fp)
 1801910:	1885ffb2 	custom	254,r2,r3,r2
 1801914:	2089ff32 	custom	252,r4,r4,r2
 1801918:	e0fffe17 	ldw	r3,-8(fp)
 180191c:	e0bffd17 	ldw	r2,-12(fp)
 1801920:	1885ffb2 	custom	254,r2,r3,r2
 1801924:	100b883a 	mov	r5,r2
 1801928:	1804f340 	call	1804f34 <__divsf3>
 180192c:	1007883a 	mov	r3,r2
 1801930:	e0bfff17 	ldw	r2,-4(fp)
 1801934:	1885ff72 	custom	253,r2,r3,r2
}
 1801938:	e037883a 	mov	sp,fp
 180193c:	dfc00117 	ldw	ra,4(sp)
 1801940:	df000017 	ldw	fp,0(sp)
 1801944:	dec00204 	addi	sp,sp,8
 1801948:	f800283a 	ret

0180194c <smoothstep>:
 *				  expensive interpolation technique
 *
 **************************************************************************************************/

float smoothstep(int startVal, int endVal, int totalItterations, int currentItteration)
{
 180194c:	defff704 	addi	sp,sp,-36
 1801950:	dfc00815 	stw	ra,32(sp)
 1801954:	df000715 	stw	fp,28(sp)
 1801958:	dc000615 	stw	r16,24(sp)
 180195c:	df000604 	addi	fp,sp,24
 1801960:	e13ffc15 	stw	r4,-16(fp)
 1801964:	e17ffd15 	stw	r5,-12(fp)
 1801968:	e1bffe15 	stw	r6,-8(fp)
 180196c:	e1ffff15 	stw	r7,-4(fp)
	float v; //temp value for progras through move between 0 and 1
	float v2;
	v = (float)currentItteration / totalItterations;
 1801970:	e13fff17 	ldw	r4,-4(fp)
 1801974:	18050a80 	call	18050a8 <__floatsisf>
 1801978:	1021883a 	mov	r16,r2
 180197c:	e13ffe17 	ldw	r4,-8(fp)
 1801980:	18050a80 	call	18050a8 <__floatsisf>
 1801984:	8009883a 	mov	r4,r16
 1801988:	100b883a 	mov	r5,r2
 180198c:	1804f340 	call	1804f34 <__divsf3>
 1801990:	e0bffb15 	stw	r2,-20(fp)
	v = ((v) * (v) * (3 - 2 * (v)));
 1801994:	e0fffb17 	ldw	r3,-20(fp)
 1801998:	e0bffb17 	ldw	r2,-20(fp)
 180199c:	1889ff32 	custom	252,r4,r3,r2
 18019a0:	e0fffb17 	ldw	r3,-20(fp)
 18019a4:	00b00034 	movhi	r2,49152
 18019a8:	1887ff32 	custom	252,r3,r3,r2
 18019ac:	00901034 	movhi	r2,16448
 18019b0:	1885ff72 	custom	253,r2,r3,r2
 18019b4:	2085ff32 	custom	252,r2,r4,r2
 18019b8:	e0bffb15 	stw	r2,-20(fp)
	v2 = (endVal * v) + (startVal * (1 - v));
 18019bc:	e13ffd17 	ldw	r4,-12(fp)
 18019c0:	18050a80 	call	18050a8 <__floatsisf>
 18019c4:	1007883a 	mov	r3,r2
 18019c8:	e0bffb17 	ldw	r2,-20(fp)
 18019cc:	18a1ff32 	custom	252,r16,r3,r2
 18019d0:	e13ffc17 	ldw	r4,-16(fp)
 18019d4:	18050a80 	call	18050a8 <__floatsisf>
 18019d8:	1009883a 	mov	r4,r2
 18019dc:	00cfe034 	movhi	r3,16256
 18019e0:	e0bffb17 	ldw	r2,-20(fp)
 18019e4:	1885ffb2 	custom	254,r2,r3,r2
 18019e8:	2085ff32 	custom	252,r2,r4,r2
 18019ec:	8085ff72 	custom	253,r2,r16,r2
 18019f0:	e0bffa15 	stw	r2,-24(fp)
	return  v2;
 18019f4:	e0bffa17 	ldw	r2,-24(fp)
}
 18019f8:	e037883a 	mov	sp,fp
 18019fc:	dfc00217 	ldw	ra,8(sp)
 1801a00:	df000117 	ldw	fp,4(sp)
 1801a04:	dc000017 	ldw	r16,0(sp)
 1801a08:	dec00304 	addi	sp,sp,12
 1801a0c:	f800283a 	ret

01801a10 <cos>:
 1801a10:	00a00034 	movhi	r2,32768
 1801a14:	10bfffc4 	addi	r2,r2,-1
 1801a18:	defffa04 	addi	sp,sp,-24
 1801a1c:	114c703a 	and	r6,r2,r5
 1801a20:	008ffa74 	movhi	r2,16361
 1801a24:	10887ec4 	addi	r2,r2,8699
 1801a28:	dfc00515 	stw	ra,20(sp)
 1801a2c:	2011883a 	mov	r8,r4
 1801a30:	1180210e 	bge	r2,r6,1801ab8 <cos+0xa8>
 1801a34:	009ffc34 	movhi	r2,32752
 1801a38:	10bfffc4 	addi	r2,r2,-1
 1801a3c:	11800a0e 	bge	r2,r6,1801a68 <cos+0x58>
 1801a40:	280f883a 	mov	r7,r5
 1801a44:	400d883a 	mov	r6,r8
 1801a48:	18055a40 	call	18055a4 <__subdf3>
 1801a4c:	100d883a 	mov	r6,r2
 1801a50:	180f883a 	mov	r7,r3
 1801a54:	3005883a 	mov	r2,r6
 1801a58:	3807883a 	mov	r3,r7
 1801a5c:	dfc00517 	ldw	ra,20(sp)
 1801a60:	dec00604 	addi	sp,sp,24
 1801a64:	f800283a 	ret
 1801a68:	d9800104 	addi	r6,sp,4
 1801a6c:	18022740 	call	1802274 <__ieee754_rem_pio2>
 1801a70:	10c000cc 	andi	r3,r2,3
 1801a74:	01000044 	movi	r4,1
 1801a78:	19001926 	beq	r3,r4,1801ae0 <cos+0xd0>
 1801a7c:	00800084 	movi	r2,2
 1801a80:	18803126 	beq	r3,r2,1801b48 <cos+0x138>
 1801a84:	1800231e 	bne	r3,zero,1801b14 <cos+0x104>
 1801a88:	d8800117 	ldw	r2,4(sp)
 1801a8c:	da000317 	ldw	r8,12(sp)
 1801a90:	d8c00217 	ldw	r3,8(sp)
 1801a94:	da400417 	ldw	r9,16(sp)
 1801a98:	400d883a 	mov	r6,r8
 1801a9c:	180b883a 	mov	r5,r3
 1801aa0:	480f883a 	mov	r7,r9
 1801aa4:	1009883a 	mov	r4,r2
 1801aa8:	1802d640 	call	1802d64 <__kernel_cos>
 1801aac:	100d883a 	mov	r6,r2
 1801ab0:	180f883a 	mov	r7,r3
 1801ab4:	003fe706 	br	1801a54 <cos+0x44>
 1801ab8:	000d883a 	mov	r6,zero
 1801abc:	000f883a 	mov	r7,zero
 1801ac0:	1802d640 	call	1802d64 <__kernel_cos>
 1801ac4:	100d883a 	mov	r6,r2
 1801ac8:	180f883a 	mov	r7,r3
 1801acc:	3005883a 	mov	r2,r6
 1801ad0:	3807883a 	mov	r3,r7
 1801ad4:	dfc00517 	ldw	ra,20(sp)
 1801ad8:	dec00604 	addi	sp,sp,24
 1801adc:	f800283a 	ret
 1801ae0:	d8800117 	ldw	r2,4(sp)
 1801ae4:	da000317 	ldw	r8,12(sp)
 1801ae8:	d8c00217 	ldw	r3,8(sp)
 1801aec:	da400417 	ldw	r9,16(sp)
 1801af0:	d9000015 	stw	r4,0(sp)
 1801af4:	400d883a 	mov	r6,r8
 1801af8:	480f883a 	mov	r7,r9
 1801afc:	180b883a 	mov	r5,r3
 1801b00:	1009883a 	mov	r4,r2
 1801b04:	180410c0 	call	180410c <__kernel_sin>
 1801b08:	100d883a 	mov	r6,r2
 1801b0c:	19e0003c 	xorhi	r7,r3,32768
 1801b10:	003fd006 	br	1801a54 <cos+0x44>
 1801b14:	d8800117 	ldw	r2,4(sp)
 1801b18:	da000317 	ldw	r8,12(sp)
 1801b1c:	d8c00217 	ldw	r3,8(sp)
 1801b20:	da400417 	ldw	r9,16(sp)
 1801b24:	d9000015 	stw	r4,0(sp)
 1801b28:	400d883a 	mov	r6,r8
 1801b2c:	480f883a 	mov	r7,r9
 1801b30:	180b883a 	mov	r5,r3
 1801b34:	1009883a 	mov	r4,r2
 1801b38:	180410c0 	call	180410c <__kernel_sin>
 1801b3c:	100d883a 	mov	r6,r2
 1801b40:	180f883a 	mov	r7,r3
 1801b44:	003fc306 	br	1801a54 <cos+0x44>
 1801b48:	d8800117 	ldw	r2,4(sp)
 1801b4c:	da000317 	ldw	r8,12(sp)
 1801b50:	d8c00217 	ldw	r3,8(sp)
 1801b54:	da400417 	ldw	r9,16(sp)
 1801b58:	400d883a 	mov	r6,r8
 1801b5c:	180b883a 	mov	r5,r3
 1801b60:	480f883a 	mov	r7,r9
 1801b64:	1009883a 	mov	r4,r2
 1801b68:	1802d640 	call	1802d64 <__kernel_cos>
 1801b6c:	100d883a 	mov	r6,r2
 1801b70:	19e0003c 	xorhi	r7,r3,32768
 1801b74:	003fb706 	br	1801a54 <cos+0x44>

01801b78 <round>:
 1801b78:	289ffc2c 	andhi	r2,r5,32752
 1801b7c:	101bd53a 	srai	r13,r2,20
 1801b80:	deffff04 	addi	sp,sp,-4
 1801b84:	008004c4 	movi	r2,19
 1801b88:	6abf0044 	addi	r10,r13,-1023
 1801b8c:	dfc00015 	stw	ra,0(sp)
 1801b90:	2011883a 	mov	r8,r4
 1801b94:	2813883a 	mov	r9,r5
 1801b98:	2817883a 	mov	r11,r5
 1801b9c:	12801316 	blt	r2,r10,1801bec <round+0x74>
 1801ba0:	50003016 	blt	r10,zero,1801c64 <round+0xec>
 1801ba4:	00800434 	movhi	r2,16
 1801ba8:	10bfffc4 	addi	r2,r2,-1
 1801bac:	1289d83a 	sra	r4,r2,r10
 1801bb0:	2146703a 	and	r3,r4,r5
 1801bb4:	18002926 	beq	r3,zero,1801c5c <round+0xe4>
 1801bb8:	00800234 	movhi	r2,8
 1801bbc:	1285d83a 	sra	r2,r2,r10
 1801bc0:	0106303a 	nor	r3,zero,r4
 1801bc4:	0009883a 	mov	r4,zero
 1801bc8:	5885883a 	add	r2,r11,r2
 1801bcc:	1896703a 	and	r11,r3,r2
 1801bd0:	2011883a 	mov	r8,r4
 1801bd4:	5813883a 	mov	r9,r11
 1801bd8:	4005883a 	mov	r2,r8
 1801bdc:	4807883a 	mov	r3,r9
 1801be0:	dfc00017 	ldw	ra,0(sp)
 1801be4:	dec00104 	addi	sp,sp,4
 1801be8:	f800283a 	ret
 1801bec:	03800cc4 	movi	r14,51
 1801bf0:	72800e16 	blt	r14,r10,1801c2c <round+0xb4>
 1801bf4:	68befb44 	addi	r2,r13,-1043
 1801bf8:	00ffffc4 	movi	r3,-1
 1801bfc:	188ad83a 	srl	r5,r3,r2
 1801c00:	2148703a 	and	r4,r4,r5
 1801c04:	203ff426 	beq	r4,zero,1801bd8 <round+0x60>
 1801c08:	7287c83a 	sub	r3,r14,r10
 1801c0c:	00800044 	movi	r2,1
 1801c10:	10c4983a 	sll	r2,r2,r3
 1801c14:	4087883a 	add	r3,r8,r2
 1801c18:	1a00012e 	bgeu	r3,r8,1801c20 <round+0xa8>
 1801c1c:	4ac00044 	addi	r11,r9,1
 1801c20:	0144303a 	nor	r2,zero,r5
 1801c24:	1888703a 	and	r4,r3,r2
 1801c28:	003fe906 	br	1801bd0 <round+0x58>
 1801c2c:	00810004 	movi	r2,1024
 1801c30:	50bfe91e 	bne	r10,r2,1801bd8 <round+0x60>
 1801c34:	400d883a 	mov	r6,r8
 1801c38:	280f883a 	mov	r7,r5
 1801c3c:	18056240 	call	1805624 <__adddf3>
 1801c40:	1011883a 	mov	r8,r2
 1801c44:	1813883a 	mov	r9,r3
 1801c48:	4005883a 	mov	r2,r8
 1801c4c:	4807883a 	mov	r3,r9
 1801c50:	dfc00017 	ldw	ra,0(sp)
 1801c54:	dec00104 	addi	sp,sp,4
 1801c58:	f800283a 	ret
 1801c5c:	403fd61e 	bne	r8,zero,1801bb8 <round+0x40>
 1801c60:	003fdd06 	br	1801bd8 <round+0x60>
 1801c64:	00bfffc4 	movi	r2,-1
 1801c68:	2ae0002c 	andhi	r11,r5,32768
 1801c6c:	50800226 	beq	r10,r2,1801c78 <round+0x100>
 1801c70:	0009883a 	mov	r4,zero
 1801c74:	003fd606 	br	1801bd0 <round+0x58>
 1801c78:	5acffc34 	orhi	r11,r11,16368
 1801c7c:	0009883a 	mov	r4,zero
 1801c80:	003fd306 	br	1801bd0 <round+0x58>

01801c84 <sin>:
 1801c84:	00a00034 	movhi	r2,32768
 1801c88:	10bfffc4 	addi	r2,r2,-1
 1801c8c:	defffa04 	addi	sp,sp,-24
 1801c90:	114c703a 	and	r6,r2,r5
 1801c94:	008ffa74 	movhi	r2,16361
 1801c98:	10887ec4 	addi	r2,r2,8699
 1801c9c:	dfc00515 	stw	ra,20(sp)
 1801ca0:	2011883a 	mov	r8,r4
 1801ca4:	1180220e 	bge	r2,r6,1801d30 <sin+0xac>
 1801ca8:	009ffc34 	movhi	r2,32752
 1801cac:	10bfffc4 	addi	r2,r2,-1
 1801cb0:	11800a0e 	bge	r2,r6,1801cdc <sin+0x58>
 1801cb4:	280f883a 	mov	r7,r5
 1801cb8:	400d883a 	mov	r6,r8
 1801cbc:	18055a40 	call	18055a4 <__subdf3>
 1801cc0:	100d883a 	mov	r6,r2
 1801cc4:	180f883a 	mov	r7,r3
 1801cc8:	3005883a 	mov	r2,r6
 1801ccc:	3807883a 	mov	r3,r7
 1801cd0:	dfc00517 	ldw	ra,20(sp)
 1801cd4:	dec00604 	addi	sp,sp,24
 1801cd8:	f800283a 	ret
 1801cdc:	d9800104 	addi	r6,sp,4
 1801ce0:	18022740 	call	1802274 <__ieee754_rem_pio2>
 1801ce4:	10c000cc 	andi	r3,r2,3
 1801ce8:	01000044 	movi	r4,1
 1801cec:	19001b26 	beq	r3,r4,1801d5c <sin+0xd8>
 1801cf0:	00800084 	movi	r2,2
 1801cf4:	18803126 	beq	r3,r2,1801dbc <sin+0x138>
 1801cf8:	1800241e 	bne	r3,zero,1801d8c <sin+0x108>
 1801cfc:	d8800117 	ldw	r2,4(sp)
 1801d00:	da000317 	ldw	r8,12(sp)
 1801d04:	d8c00217 	ldw	r3,8(sp)
 1801d08:	da400417 	ldw	r9,16(sp)
 1801d0c:	d9000015 	stw	r4,0(sp)
 1801d10:	400d883a 	mov	r6,r8
 1801d14:	480f883a 	mov	r7,r9
 1801d18:	180b883a 	mov	r5,r3
 1801d1c:	1009883a 	mov	r4,r2
 1801d20:	180410c0 	call	180410c <__kernel_sin>
 1801d24:	100d883a 	mov	r6,r2
 1801d28:	180f883a 	mov	r7,r3
 1801d2c:	003fe606 	br	1801cc8 <sin+0x44>
 1801d30:	000d883a 	mov	r6,zero
 1801d34:	000f883a 	mov	r7,zero
 1801d38:	d8000015 	stw	zero,0(sp)
 1801d3c:	180410c0 	call	180410c <__kernel_sin>
 1801d40:	100d883a 	mov	r6,r2
 1801d44:	180f883a 	mov	r7,r3
 1801d48:	3005883a 	mov	r2,r6
 1801d4c:	3807883a 	mov	r3,r7
 1801d50:	dfc00517 	ldw	ra,20(sp)
 1801d54:	dec00604 	addi	sp,sp,24
 1801d58:	f800283a 	ret
 1801d5c:	d8800117 	ldw	r2,4(sp)
 1801d60:	da000317 	ldw	r8,12(sp)
 1801d64:	d8c00217 	ldw	r3,8(sp)
 1801d68:	da400417 	ldw	r9,16(sp)
 1801d6c:	400d883a 	mov	r6,r8
 1801d70:	180b883a 	mov	r5,r3
 1801d74:	480f883a 	mov	r7,r9
 1801d78:	1009883a 	mov	r4,r2
 1801d7c:	1802d640 	call	1802d64 <__kernel_cos>
 1801d80:	100d883a 	mov	r6,r2
 1801d84:	180f883a 	mov	r7,r3
 1801d88:	003fcf06 	br	1801cc8 <sin+0x44>
 1801d8c:	d8800117 	ldw	r2,4(sp)
 1801d90:	da000317 	ldw	r8,12(sp)
 1801d94:	d8c00217 	ldw	r3,8(sp)
 1801d98:	da400417 	ldw	r9,16(sp)
 1801d9c:	400d883a 	mov	r6,r8
 1801da0:	180b883a 	mov	r5,r3
 1801da4:	480f883a 	mov	r7,r9
 1801da8:	1009883a 	mov	r4,r2
 1801dac:	1802d640 	call	1802d64 <__kernel_cos>
 1801db0:	100d883a 	mov	r6,r2
 1801db4:	19e0003c 	xorhi	r7,r3,32768
 1801db8:	003fc306 	br	1801cc8 <sin+0x44>
 1801dbc:	d8800117 	ldw	r2,4(sp)
 1801dc0:	da000317 	ldw	r8,12(sp)
 1801dc4:	d8c00217 	ldw	r3,8(sp)
 1801dc8:	da400417 	ldw	r9,16(sp)
 1801dcc:	d9000015 	stw	r4,0(sp)
 1801dd0:	400d883a 	mov	r6,r8
 1801dd4:	480f883a 	mov	r7,r9
 1801dd8:	180b883a 	mov	r5,r3
 1801ddc:	1009883a 	mov	r4,r2
 1801de0:	180410c0 	call	180410c <__kernel_sin>
 1801de4:	100d883a 	mov	r6,r2
 1801de8:	19e0003c 	xorhi	r7,r3,32768
 1801dec:	003fb606 	br	1801cc8 <sin+0x44>

01801df0 <atan2>:
 1801df0:	1801f241 	jmpi	1801f24 <__ieee754_atan2>

01801df4 <sqrt>:
 1801df4:	defff104 	addi	sp,sp,-60
 1801df8:	dd000d15 	stw	r20,52(sp)
 1801dfc:	050060b4 	movhi	r20,386
 1801e00:	a503e704 	addi	r20,r20,3996
 1801e04:	dcc00c15 	stw	r19,48(sp)
 1801e08:	dc800b15 	stw	r18,44(sp)
 1801e0c:	dc400a15 	stw	r17,40(sp)
 1801e10:	dc000915 	stw	r16,36(sp)
 1801e14:	2025883a 	mov	r18,r4
 1801e18:	dfc00e15 	stw	ra,56(sp)
 1801e1c:	2827883a 	mov	r19,r5
 1801e20:	1802a9c0 	call	1802a9c <__ieee754_sqrt>
 1801e24:	a1000017 	ldw	r4,0(r20)
 1801e28:	1021883a 	mov	r16,r2
 1801e2c:	00bfffc4 	movi	r2,-1
 1801e30:	1823883a 	mov	r17,r3
 1801e34:	20800a26 	beq	r4,r2,1801e60 <sqrt+0x6c>
 1801e38:	9009883a 	mov	r4,r18
 1801e3c:	980b883a 	mov	r5,r19
 1801e40:	1804cf80 	call	1804cf8 <__isnand>
 1801e44:	1000061e 	bne	r2,zero,1801e60 <sqrt+0x6c>
 1801e48:	000d883a 	mov	r6,zero
 1801e4c:	000f883a 	mov	r7,zero
 1801e50:	9009883a 	mov	r4,r18
 1801e54:	980b883a 	mov	r5,r19
 1801e58:	1805e4c0 	call	1805e4c <__ltdf2>
 1801e5c:	10000a16 	blt	r2,zero,1801e88 <sqrt+0x94>
 1801e60:	8005883a 	mov	r2,r16
 1801e64:	8807883a 	mov	r3,r17
 1801e68:	dfc00e17 	ldw	ra,56(sp)
 1801e6c:	dd000d17 	ldw	r20,52(sp)
 1801e70:	dcc00c17 	ldw	r19,48(sp)
 1801e74:	dc800b17 	ldw	r18,44(sp)
 1801e78:	dc400a17 	ldw	r17,40(sp)
 1801e7c:	dc000917 	ldw	r16,36(sp)
 1801e80:	dec00f04 	addi	sp,sp,60
 1801e84:	f800283a 	ret
 1801e88:	a4000017 	ldw	r16,0(r20)
 1801e8c:	00800044 	movi	r2,1
 1801e90:	00c060b4 	movhi	r3,386
 1801e94:	18fa5c04 	addi	r3,r3,-5776
 1801e98:	d8800015 	stw	r2,0(sp)
 1801e9c:	d8c00115 	stw	r3,4(sp)
 1801ea0:	dcc00315 	stw	r19,12(sp)
 1801ea4:	d8000815 	stw	zero,32(sp)
 1801ea8:	dc800415 	stw	r18,16(sp)
 1801eac:	dcc00515 	stw	r19,20(sp)
 1801eb0:	dc800215 	stw	r18,8(sp)
 1801eb4:	80000a1e 	bne	r16,zero,1801ee0 <sqrt+0xec>
 1801eb8:	d8000615 	stw	zero,24(sp)
 1801ebc:	d8000715 	stw	zero,28(sp)
 1801ec0:	d809883a 	mov	r4,sp
 1801ec4:	1804d280 	call	1804d28 <matherr>
 1801ec8:	10000e26 	beq	r2,zero,1801f04 <sqrt+0x110>
 1801ecc:	d8800817 	ldw	r2,32(sp)
 1801ed0:	1000101e 	bne	r2,zero,1801f14 <sqrt+0x120>
 1801ed4:	dc000617 	ldw	r16,24(sp)
 1801ed8:	dc400717 	ldw	r17,28(sp)
 1801edc:	003fe006 	br	1801e60 <sqrt+0x6c>
 1801ee0:	0009883a 	mov	r4,zero
 1801ee4:	000d883a 	mov	r6,zero
 1801ee8:	000b883a 	mov	r5,zero
 1801eec:	000f883a 	mov	r7,zero
 1801ef0:	1805a5c0 	call	1805a5c <__divdf3>
 1801ef4:	d8800615 	stw	r2,24(sp)
 1801ef8:	00800084 	movi	r2,2
 1801efc:	d8c00715 	stw	r3,28(sp)
 1801f00:	80bfef1e 	bne	r16,r2,1801ec0 <sqrt+0xcc>
 1801f04:	1806b1c0 	call	1806b1c <__errno>
 1801f08:	00c00844 	movi	r3,33
 1801f0c:	10c00015 	stw	r3,0(r2)
 1801f10:	003fee06 	br	1801ecc <sqrt+0xd8>
 1801f14:	1806b1c0 	call	1806b1c <__errno>
 1801f18:	d8c00817 	ldw	r3,32(sp)
 1801f1c:	10c00015 	stw	r3,0(r2)
 1801f20:	003fec06 	br	1801ed4 <sqrt+0xe0>

01801f24 <__ieee754_atan2>:
 1801f24:	3015883a 	mov	r10,r6
 1801f28:	3019883a 	mov	r12,r6
 1801f2c:	018dc83a 	sub	r6,zero,r6
 1801f30:	518cb03a 	or	r6,r10,r6
 1801f34:	300cd7fa 	srli	r6,r6,31
 1801f38:	03a00034 	movhi	r14,32768
 1801f3c:	73bfffc4 	addi	r14,r14,-1
 1801f40:	3b9e703a 	and	r15,r7,r14
 1801f44:	defffc04 	addi	sp,sp,-16
 1801f48:	33ccb03a 	or	r6,r6,r15
 1801f4c:	035ffc34 	movhi	r13,32752
 1801f50:	dc000015 	stw	r16,0(sp)
 1801f54:	dfc00315 	stw	ra,12(sp)
 1801f58:	dc800215 	stw	r18,8(sp)
 1801f5c:	dc400115 	stw	r17,4(sp)
 1801f60:	3817883a 	mov	r11,r7
 1801f64:	2011883a 	mov	r8,r4
 1801f68:	2813883a 	mov	r9,r5
 1801f6c:	3821883a 	mov	r16,r7
 1801f70:	69800736 	bltu	r13,r6,1801f90 <__ieee754_atan2+0x6c>
 1801f74:	0105c83a 	sub	r2,zero,r4
 1801f78:	2084b03a 	or	r2,r4,r2
 1801f7c:	1004d7fa 	srli	r2,r2,31
 1801f80:	2b8c703a 	and	r6,r5,r14
 1801f84:	2823883a 	mov	r17,r5
 1801f88:	1184b03a 	or	r2,r2,r6
 1801f8c:	68800d2e 	bgeu	r13,r2,1801fc4 <__ieee754_atan2+0xa0>
 1801f90:	4009883a 	mov	r4,r8
 1801f94:	500d883a 	mov	r6,r10
 1801f98:	18056240 	call	1805624 <__adddf3>
 1801f9c:	1011883a 	mov	r8,r2
 1801fa0:	1813883a 	mov	r9,r3
 1801fa4:	4005883a 	mov	r2,r8
 1801fa8:	4807883a 	mov	r3,r9
 1801fac:	dfc00317 	ldw	ra,12(sp)
 1801fb0:	dc800217 	ldw	r18,8(sp)
 1801fb4:	dc400117 	ldw	r17,4(sp)
 1801fb8:	dc000017 	ldw	r16,0(sp)
 1801fbc:	dec00404 	addi	sp,sp,16
 1801fc0:	f800283a 	ret
 1801fc4:	00b00434 	movhi	r2,49168
 1801fc8:	3885883a 	add	r2,r7,r2
 1801fcc:	5084b03a 	or	r2,r10,r2
 1801fd0:	10001026 	beq	r2,zero,1802014 <__ieee754_atan2+0xf0>
 1801fd4:	3805d7ba 	srai	r2,r7,30
 1801fd8:	2806d7fa 	srli	r3,r5,31
 1801fdc:	2188b03a 	or	r4,r4,r6
 1801fe0:	1080008c 	andi	r2,r2,2
 1801fe4:	18a4b03a 	or	r18,r3,r2
 1801fe8:	00800084 	movi	r2,2
 1801fec:	2000101e 	bne	r4,zero,1802030 <__ieee754_atan2+0x10c>
 1801ff0:	90803826 	beq	r18,r2,18020d4 <__ieee754_atan2+0x1b0>
 1801ff4:	14bfeb0e 	bge	r2,r18,1801fa4 <__ieee754_atan2+0x80>
 1801ff8:	008000c4 	movi	r2,3
 1801ffc:	90800c1e 	bne	r18,r2,1802030 <__ieee754_atan2+0x10c>
 1802000:	02151134 	movhi	r8,21572
 1802004:	420b4604 	addi	r8,r8,11544
 1802008:	02700274 	movhi	r9,49161
 180200c:	4a487ec4 	addi	r9,r9,8699
 1802010:	003fe406 	br	1801fa4 <__ieee754_atan2+0x80>
 1802014:	4009883a 	mov	r4,r8
 1802018:	dfc00317 	ldw	ra,12(sp)
 180201c:	dc800217 	ldw	r18,8(sp)
 1802020:	dc400117 	ldw	r17,4(sp)
 1802024:	dc000017 	ldw	r16,0(sp)
 1802028:	dec00404 	addi	sp,sp,16
 180202c:	18044241 	jmpi	1804424 <atan>
 1802030:	63c4b03a 	or	r2,r12,r15
 1802034:	10001426 	beq	r2,zero,1802088 <__ieee754_atan2+0x164>
 1802038:	009ffc34 	movhi	r2,32752
 180203c:	78801d26 	beq	r15,r2,18020b4 <__ieee754_atan2+0x190>
 1802040:	009ffc34 	movhi	r2,32752
 1802044:	30801026 	beq	r6,r2,1802088 <__ieee754_atan2+0x164>
 1802048:	33c5c83a 	sub	r2,r6,r15
 180204c:	1009d53a 	srai	r4,r2,20
 1802050:	00c00f04 	movi	r3,60
 1802054:	1900240e 	bge	r3,r4,18020e8 <__ieee754_atan2+0x1c4>
 1802058:	02951134 	movhi	r10,21572
 180205c:	528b4604 	addi	r10,r10,11544
 1802060:	02cffe74 	movhi	r11,16377
 1802064:	5ac87ec4 	addi	r11,r11,8699
 1802068:	00800044 	movi	r2,1
 180206c:	90802d26 	beq	r18,r2,1802124 <__ieee754_atan2+0x200>
 1802070:	00800084 	movi	r2,2
 1802074:	90804426 	beq	r18,r2,1802188 <__ieee754_atan2+0x264>
 1802078:	90002e1e 	bne	r18,zero,1802134 <__ieee754_atan2+0x210>
 180207c:	5011883a 	mov	r8,r10
 1802080:	5813883a 	mov	r9,r11
 1802084:	003fc706 	br	1801fa4 <__ieee754_atan2+0x80>
 1802088:	88000516 	blt	r17,zero,18020a0 <__ieee754_atan2+0x17c>
 180208c:	02151134 	movhi	r8,21572
 1802090:	420b4604 	addi	r8,r8,11544
 1802094:	024ffe74 	movhi	r9,16377
 1802098:	4a487ec4 	addi	r9,r9,8699
 180209c:	003fc106 	br	1801fa4 <__ieee754_atan2+0x80>
 18020a0:	02151134 	movhi	r8,21572
 18020a4:	420b4604 	addi	r8,r8,11544
 18020a8:	026ffe74 	movhi	r9,49145
 18020ac:	4a487ec4 	addi	r9,r9,8699
 18020b0:	003fbc06 	br	1801fa4 <__ieee754_atan2+0x80>
 18020b4:	33c04b26 	beq	r6,r15,18021e4 <__ieee754_atan2+0x2c0>
 18020b8:	00800044 	movi	r2,1
 18020bc:	90805726 	beq	r18,r2,180221c <__ieee754_atan2+0x2f8>
 18020c0:	14805116 	blt	r2,r18,1802208 <__ieee754_atan2+0x2e4>
 18020c4:	903fde1e 	bne	r18,zero,1802040 <__ieee754_atan2+0x11c>
 18020c8:	0011883a 	mov	r8,zero
 18020cc:	0013883a 	mov	r9,zero
 18020d0:	003fb406 	br	1801fa4 <__ieee754_atan2+0x80>
 18020d4:	02151134 	movhi	r8,21572
 18020d8:	420b4604 	addi	r8,r8,11544
 18020dc:	02500274 	movhi	r9,16393
 18020e0:	4a487ec4 	addi	r9,r9,8699
 18020e4:	003faf06 	br	1801fa4 <__ieee754_atan2+0x80>
 18020e8:	80003916 	blt	r16,zero,18021d0 <__ieee754_atan2+0x2ac>
 18020ec:	580f883a 	mov	r7,r11
 18020f0:	480b883a 	mov	r5,r9
 18020f4:	500d883a 	mov	r6,r10
 18020f8:	4009883a 	mov	r4,r8
 18020fc:	1805a5c0 	call	1805a5c <__divdf3>
 1802100:	180b883a 	mov	r5,r3
 1802104:	1009883a 	mov	r4,r2
 1802108:	1804abc0 	call	1804abc <fabs>
 180210c:	180b883a 	mov	r5,r3
 1802110:	1009883a 	mov	r4,r2
 1802114:	18044240 	call	1804424 <atan>
 1802118:	1015883a 	mov	r10,r2
 180211c:	1817883a 	mov	r11,r3
 1802120:	003fd106 	br	1802068 <__ieee754_atan2+0x144>
 1802124:	59a0003c 	xorhi	r6,r11,32768
 1802128:	5011883a 	mov	r8,r10
 180212c:	3013883a 	mov	r9,r6
 1802130:	003f9c06 	br	1801fa4 <__ieee754_atan2+0x80>
 1802134:	008cc534 	movhi	r2,13076
 1802138:	109701c4 	addi	r2,r2,23559
 180213c:	00cf28b4 	movhi	r3,15522
 1802140:	18e98984 	addi	r3,r3,-23002
 1802144:	580b883a 	mov	r5,r11
 1802148:	180f883a 	mov	r7,r3
 180214c:	5009883a 	mov	r4,r10
 1802150:	100d883a 	mov	r6,r2
 1802154:	18055a40 	call	18055a4 <__subdf3>
 1802158:	02151134 	movhi	r8,21572
 180215c:	420b4604 	addi	r8,r8,11544
 1802160:	02500274 	movhi	r9,16393
 1802164:	4a487ec4 	addi	r9,r9,8699
 1802168:	180b883a 	mov	r5,r3
 180216c:	480f883a 	mov	r7,r9
 1802170:	1009883a 	mov	r4,r2
 1802174:	400d883a 	mov	r6,r8
 1802178:	18055a40 	call	18055a4 <__subdf3>
 180217c:	1011883a 	mov	r8,r2
 1802180:	1813883a 	mov	r9,r3
 1802184:	003f8706 	br	1801fa4 <__ieee754_atan2+0x80>
 1802188:	008cc534 	movhi	r2,13076
 180218c:	109701c4 	addi	r2,r2,23559
 1802190:	00cf28b4 	movhi	r3,15522
 1802194:	18e98984 	addi	r3,r3,-23002
 1802198:	580b883a 	mov	r5,r11
 180219c:	180f883a 	mov	r7,r3
 18021a0:	5009883a 	mov	r4,r10
 18021a4:	100d883a 	mov	r6,r2
 18021a8:	18055a40 	call	18055a4 <__subdf3>
 18021ac:	02151134 	movhi	r8,21572
 18021b0:	420b4604 	addi	r8,r8,11544
 18021b4:	02500274 	movhi	r9,16393
 18021b8:	4a487ec4 	addi	r9,r9,8699
 18021bc:	480b883a 	mov	r5,r9
 18021c0:	180f883a 	mov	r7,r3
 18021c4:	4009883a 	mov	r4,r8
 18021c8:	100d883a 	mov	r6,r2
 18021cc:	003fea06 	br	1802178 <__ieee754_atan2+0x254>
 18021d0:	00bff104 	movi	r2,-60
 18021d4:	20bfc50e 	bge	r4,r2,18020ec <__ieee754_atan2+0x1c8>
 18021d8:	0015883a 	mov	r10,zero
 18021dc:	0017883a 	mov	r11,zero
 18021e0:	003fa106 	br	1802068 <__ieee754_atan2+0x144>
 18021e4:	00800044 	movi	r2,1
 18021e8:	90801826 	beq	r18,r2,180224c <__ieee754_atan2+0x328>
 18021ec:	14800e16 	blt	r2,r18,1802228 <__ieee754_atan2+0x304>
 18021f0:	903f931e 	bne	r18,zero,1802040 <__ieee754_atan2+0x11c>
 18021f4:	02151134 	movhi	r8,21572
 18021f8:	420b4604 	addi	r8,r8,11544
 18021fc:	024ffa74 	movhi	r9,16361
 1802200:	4a487ec4 	addi	r9,r9,8699
 1802204:	003f6706 	br	1801fa4 <__ieee754_atan2+0x80>
 1802208:	00800084 	movi	r2,2
 180220c:	90bfb126 	beq	r18,r2,18020d4 <__ieee754_atan2+0x1b0>
 1802210:	008000c4 	movi	r2,3
 1802214:	90bf8a1e 	bne	r18,r2,1802040 <__ieee754_atan2+0x11c>
 1802218:	003f7906 	br	1802000 <__ieee754_atan2+0xdc>
 180221c:	0011883a 	mov	r8,zero
 1802220:	02600034 	movhi	r9,32768
 1802224:	003f5f06 	br	1801fa4 <__ieee754_atan2+0x80>
 1802228:	00800084 	movi	r2,2
 180222c:	90800c26 	beq	r18,r2,1802260 <__ieee754_atan2+0x33c>
 1802230:	008000c4 	movi	r2,3
 1802234:	90bf821e 	bne	r18,r2,1802040 <__ieee754_atan2+0x11c>
 1802238:	021fccf4 	movhi	r8,32563
 180223c:	42087484 	addi	r8,r8,8658
 1802240:	027000f4 	movhi	r9,49155
 1802244:	4a765f04 	addi	r9,r9,-9860
 1802248:	003f5606 	br	1801fa4 <__ieee754_atan2+0x80>
 180224c:	02151134 	movhi	r8,21572
 1802250:	420b4604 	addi	r8,r8,11544
 1802254:	026ffa74 	movhi	r9,49129
 1802258:	4a487ec4 	addi	r9,r9,8699
 180225c:	003f5106 	br	1801fa4 <__ieee754_atan2+0x80>
 1802260:	021fccf4 	movhi	r8,32563
 1802264:	42087484 	addi	r8,r8,8658
 1802268:	025000f4 	movhi	r9,16387
 180226c:	4a765f04 	addi	r9,r9,-9860
 1802270:	003f4c06 	br	1801fa4 <__ieee754_atan2+0x80>

01802274 <__ieee754_rem_pio2>:
 1802274:	deffe304 	addi	sp,sp,-116
 1802278:	00a00034 	movhi	r2,32768
 180227c:	10bfffc4 	addi	r2,r2,-1
 1802280:	dd801915 	stw	r22,100(sp)
 1802284:	28ac703a 	and	r22,r5,r2
 1802288:	008ffa74 	movhi	r2,16361
 180228c:	10887ec4 	addi	r2,r2,8699
 1802290:	df001b15 	stw	fp,108(sp)
 1802294:	dfc01c15 	stw	ra,112(sp)
 1802298:	ddc01a15 	stw	r23,104(sp)
 180229c:	dd401815 	stw	r21,96(sp)
 18022a0:	dd001715 	stw	r20,92(sp)
 18022a4:	dcc01615 	stw	r19,88(sp)
 18022a8:	dc801515 	stw	r18,84(sp)
 18022ac:	dc401415 	stw	r17,80(sp)
 18022b0:	dc001315 	stw	r16,76(sp)
 18022b4:	2013883a 	mov	r9,r4
 18022b8:	d9400a15 	stw	r5,40(sp)
 18022bc:	3039883a 	mov	fp,r6
 18022c0:	15801216 	blt	r2,r22,180230c <__ieee754_rem_pio2+0x98>
 18022c4:	e1400115 	stw	r5,4(fp)
 18022c8:	30000315 	stw	zero,12(r6)
 18022cc:	e1000015 	stw	r4,0(fp)
 18022d0:	d8000b15 	stw	zero,44(sp)
 18022d4:	30000215 	stw	zero,8(r6)
 18022d8:	d8800b17 	ldw	r2,44(sp)
 18022dc:	dfc01c17 	ldw	ra,112(sp)
 18022e0:	df001b17 	ldw	fp,108(sp)
 18022e4:	ddc01a17 	ldw	r23,104(sp)
 18022e8:	dd801917 	ldw	r22,100(sp)
 18022ec:	dd401817 	ldw	r21,96(sp)
 18022f0:	dd001717 	ldw	r20,92(sp)
 18022f4:	dcc01617 	ldw	r19,88(sp)
 18022f8:	dc801517 	ldw	r18,84(sp)
 18022fc:	dc401417 	ldw	r17,80(sp)
 1802300:	dc001317 	ldw	r16,76(sp)
 1802304:	dec01d04 	addi	sp,sp,116
 1802308:	f800283a 	ret
 180230c:	009000f4 	movhi	r2,16387
 1802310:	10b65ec4 	addi	r2,r2,-9861
 1802314:	15800f0e 	bge	r2,r22,1802354 <__ieee754_rem_pio2+0xe0>
 1802318:	00904e74 	movhi	r2,16697
 180231c:	10887ec4 	addi	r2,r2,8699
 1802320:	1580330e 	bge	r2,r22,18023f0 <__ieee754_rem_pio2+0x17c>
 1802324:	009ffc34 	movhi	r2,32752
 1802328:	10bfffc4 	addi	r2,r2,-1
 180232c:	1580fe0e 	bge	r2,r22,1802728 <__ieee754_rem_pio2+0x4b4>
 1802330:	280f883a 	mov	r7,r5
 1802334:	480d883a 	mov	r6,r9
 1802338:	18055a40 	call	18055a4 <__subdf3>
 180233c:	e0c00115 	stw	r3,4(fp)
 1802340:	d8000b15 	stw	zero,44(sp)
 1802344:	e0800015 	stw	r2,0(fp)
 1802348:	e0800215 	stw	r2,8(fp)
 180234c:	e0c00315 	stw	r3,12(fp)
 1802350:	003fe106 	br	18022d8 <__ieee754_rem_pio2+0x64>
 1802354:	d9000a17 	ldw	r4,40(sp)
 1802358:	0100ce0e 	bge	zero,r4,1802694 <__ieee754_rem_pio2+0x420>
 180235c:	04151034 	movhi	r16,21568
 1802360:	044ffe74 	movhi	r17,16377
 1802364:	8c487ec4 	addi	r17,r17,8699
 1802368:	4809883a 	mov	r4,r9
 180236c:	800d883a 	mov	r6,r16
 1802370:	880f883a 	mov	r7,r17
 1802374:	18055a40 	call	18055a4 <__subdf3>
 1802378:	1025883a 	mov	r18,r2
 180237c:	1827883a 	mov	r19,r3
 1802380:	b4413c26 	beq	r22,r17,1802874 <__ieee754_rem_pio2+0x600>
 1802384:	040698b4 	movhi	r16,6754
 1802388:	8418cc44 	addi	r16,r16,25393
 180238c:	044f7474 	movhi	r17,15825
 1802390:	8c6d1844 	addi	r17,r17,-19359
 1802394:	1009883a 	mov	r4,r2
 1802398:	180b883a 	mov	r5,r3
 180239c:	800d883a 	mov	r6,r16
 18023a0:	880f883a 	mov	r7,r17
 18023a4:	18055a40 	call	18055a4 <__subdf3>
 18023a8:	100d883a 	mov	r6,r2
 18023ac:	9009883a 	mov	r4,r18
 18023b0:	980b883a 	mov	r5,r19
 18023b4:	180f883a 	mov	r7,r3
 18023b8:	e0800015 	stw	r2,0(fp)
 18023bc:	e0c00115 	stw	r3,4(fp)
 18023c0:	18055a40 	call	18055a4 <__subdf3>
 18023c4:	1009883a 	mov	r4,r2
 18023c8:	800d883a 	mov	r6,r16
 18023cc:	880f883a 	mov	r7,r17
 18023d0:	180b883a 	mov	r5,r3
 18023d4:	18055a40 	call	18055a4 <__subdf3>
 18023d8:	1009883a 	mov	r4,r2
 18023dc:	00800044 	movi	r2,1
 18023e0:	d8800b15 	stw	r2,44(sp)
 18023e4:	e0c00315 	stw	r3,12(fp)
 18023e8:	e1000215 	stw	r4,8(fp)
 18023ec:	003fba06 	br	18022d8 <__ieee754_rem_pio2+0x64>
 18023f0:	1804abc0 	call	1804abc <fabs>
 18023f4:	021b72b4 	movhi	r8,28106
 18023f8:	423220c4 	addi	r8,r8,-14205
 18023fc:	024ff934 	movhi	r9,16356
 1802400:	4a57cc04 	addi	r9,r9,24368
 1802404:	480f883a 	mov	r7,r9
 1802408:	400d883a 	mov	r6,r8
 180240c:	1009883a 	mov	r4,r2
 1802410:	180b883a 	mov	r5,r3
 1802414:	1025883a 	mov	r18,r2
 1802418:	1827883a 	mov	r19,r3
 180241c:	18056980 	call	1805698 <__muldf3>
 1802420:	0011883a 	mov	r8,zero
 1802424:	024ff834 	movhi	r9,16352
 1802428:	480f883a 	mov	r7,r9
 180242c:	400d883a 	mov	r6,r8
 1802430:	180b883a 	mov	r5,r3
 1802434:	1009883a 	mov	r4,r2
 1802438:	18056240 	call	1805624 <__adddf3>
 180243c:	180b883a 	mov	r5,r3
 1802440:	1009883a 	mov	r4,r2
 1802444:	1805fcc0 	call	1805fcc <__fixdfsi>
 1802448:	1009883a 	mov	r4,r2
 180244c:	d8800b15 	stw	r2,44(sp)
 1802450:	1805ed40 	call	1805ed4 <__floatsidf>
 1802454:	1823883a 	mov	r17,r3
 1802458:	1009883a 	mov	r4,r2
 180245c:	d8800c15 	stw	r2,48(sp)
 1802460:	00effe74 	movhi	r3,49145
 1802464:	18c87ec4 	addi	r3,r3,8699
 1802468:	00951034 	movhi	r2,21568
 180246c:	880b883a 	mov	r5,r17
 1802470:	180f883a 	mov	r7,r3
 1802474:	100d883a 	mov	r6,r2
 1802478:	dc400d15 	stw	r17,52(sp)
 180247c:	18056980 	call	1805698 <__muldf3>
 1802480:	180f883a 	mov	r7,r3
 1802484:	980b883a 	mov	r5,r19
 1802488:	9009883a 	mov	r4,r18
 180248c:	100d883a 	mov	r6,r2
 1802490:	18056240 	call	1805624 <__adddf3>
 1802494:	d9000c17 	ldw	r4,48(sp)
 1802498:	020698b4 	movhi	r8,6754
 180249c:	4218cc44 	addi	r8,r8,25393
 18024a0:	024f7474 	movhi	r9,15825
 18024a4:	4a6d1844 	addi	r9,r9,-19359
 18024a8:	880b883a 	mov	r5,r17
 18024ac:	480f883a 	mov	r7,r9
 18024b0:	400d883a 	mov	r6,r8
 18024b4:	1025883a 	mov	r18,r2
 18024b8:	1827883a 	mov	r19,r3
 18024bc:	18056980 	call	1805698 <__muldf3>
 18024c0:	d9000b17 	ldw	r4,44(sp)
 18024c4:	100f883a 	mov	r7,r2
 18024c8:	1811883a 	mov	r8,r3
 18024cc:	008007c4 	movi	r2,31
 18024d0:	dc800e15 	stw	r18,56(sp)
 18024d4:	3821883a 	mov	r16,r7
 18024d8:	dcc00f15 	stw	r19,60(sp)
 18024dc:	4023883a 	mov	r17,r8
 18024e0:	11010a0e 	bge	r2,r4,180290c <__ieee754_rem_pio2+0x698>
 18024e4:	d9000e17 	ldw	r4,56(sp)
 18024e8:	d9400f17 	ldw	r5,60(sp)
 18024ec:	800d883a 	mov	r6,r16
 18024f0:	880f883a 	mov	r7,r17
 18024f4:	18055a40 	call	18055a4 <__subdf3>
 18024f8:	1810d53a 	srli	r8,r3,20
 18024fc:	b02dd53a 	srai	r22,r22,20
 1802500:	1009883a 	mov	r4,r2
 1802504:	4201ffcc 	andi	r8,r8,2047
 1802508:	180b883a 	mov	r5,r3
 180250c:	b211c83a 	sub	r8,r22,r8
 1802510:	00800404 	movi	r2,16
 1802514:	dd801015 	stw	r22,64(sp)
 1802518:	e1000015 	stw	r4,0(fp)
 180251c:	e1400115 	stw	r5,4(fp)
 1802520:	1200430e 	bge	r2,r8,1802630 <__ieee754_rem_pio2+0x3bc>
 1802524:	d9000c17 	ldw	r4,48(sp)
 1802528:	d9400d17 	ldw	r5,52(sp)
 180252c:	00869834 	movhi	r2,6752
 1802530:	00cf7474 	movhi	r3,15825
 1802534:	18ed1844 	addi	r3,r3,-19359
 1802538:	180f883a 	mov	r7,r3
 180253c:	100d883a 	mov	r6,r2
 1802540:	18056980 	call	1805698 <__muldf3>
 1802544:	d9000e17 	ldw	r4,56(sp)
 1802548:	d9400f17 	ldw	r5,60(sp)
 180254c:	100d883a 	mov	r6,r2
 1802550:	180f883a 	mov	r7,r3
 1802554:	1025883a 	mov	r18,r2
 1802558:	1827883a 	mov	r19,r3
 180255c:	18055a40 	call	18055a4 <__subdf3>
 1802560:	d9000c17 	ldw	r4,48(sp)
 1802564:	d9400d17 	ldw	r5,52(sp)
 1802568:	058b80f4 	movhi	r22,11779
 180256c:	b59c1cc4 	addi	r22,r22,28787
 1802570:	05cee8f4 	movhi	r23,15267
 1802574:	bdc66284 	addi	r23,r23,6538
 1802578:	b00d883a 	mov	r6,r22
 180257c:	b80f883a 	mov	r7,r23
 1802580:	d8801115 	stw	r2,68(sp)
 1802584:	d8c01215 	stw	r3,72(sp)
 1802588:	d8800815 	stw	r2,32(sp)
 180258c:	18056980 	call	1805698 <__muldf3>
 1802590:	d9001217 	ldw	r4,72(sp)
 1802594:	d9400f17 	ldw	r5,60(sp)
 1802598:	d9800817 	ldw	r6,32(sp)
 180259c:	d9000915 	stw	r4,36(sp)
 18025a0:	d9c01217 	ldw	r7,72(sp)
 18025a4:	d9000e17 	ldw	r4,56(sp)
 18025a8:	1021883a 	mov	r16,r2
 18025ac:	1823883a 	mov	r17,r3
 18025b0:	18055a40 	call	18055a4 <__subdf3>
 18025b4:	180b883a 	mov	r5,r3
 18025b8:	900d883a 	mov	r6,r18
 18025bc:	980f883a 	mov	r7,r19
 18025c0:	1009883a 	mov	r4,r2
 18025c4:	18055a40 	call	18055a4 <__subdf3>
 18025c8:	180f883a 	mov	r7,r3
 18025cc:	880b883a 	mov	r5,r17
 18025d0:	8009883a 	mov	r4,r16
 18025d4:	100d883a 	mov	r6,r2
 18025d8:	18055a40 	call	18055a4 <__subdf3>
 18025dc:	d9000817 	ldw	r4,32(sp)
 18025e0:	d9401217 	ldw	r5,72(sp)
 18025e4:	180f883a 	mov	r7,r3
 18025e8:	100d883a 	mov	r6,r2
 18025ec:	1021883a 	mov	r16,r2
 18025f0:	1823883a 	mov	r17,r3
 18025f4:	18055a40 	call	18055a4 <__subdf3>
 18025f8:	1810d53a 	srli	r8,r3,20
 18025fc:	1009883a 	mov	r4,r2
 1802600:	d8801017 	ldw	r2,64(sp)
 1802604:	4201ffcc 	andi	r8,r8,2047
 1802608:	180b883a 	mov	r5,r3
 180260c:	1211c83a 	sub	r8,r2,r8
 1802610:	00800c44 	movi	r2,49
 1802614:	e1000015 	stw	r4,0(fp)
 1802618:	e1400115 	stw	r5,4(fp)
 180261c:	1200f016 	blt	r2,r8,18029e0 <__ieee754_rem_pio2+0x76c>
 1802620:	d8c00817 	ldw	r3,32(sp)
 1802624:	d9001217 	ldw	r4,72(sp)
 1802628:	d8c00e15 	stw	r3,56(sp)
 180262c:	d9000f15 	stw	r4,60(sp)
 1802630:	e1800017 	ldw	r6,0(fp)
 1802634:	e1c00117 	ldw	r7,4(fp)
 1802638:	d9400f17 	ldw	r5,60(sp)
 180263c:	d9000e17 	ldw	r4,56(sp)
 1802640:	18055a40 	call	18055a4 <__subdf3>
 1802644:	180b883a 	mov	r5,r3
 1802648:	800d883a 	mov	r6,r16
 180264c:	880f883a 	mov	r7,r17
 1802650:	1009883a 	mov	r4,r2
 1802654:	18055a40 	call	18055a4 <__subdf3>
 1802658:	d9400a17 	ldw	r5,40(sp)
 180265c:	e0800215 	stw	r2,8(fp)
 1802660:	e1800204 	addi	r6,fp,8
 1802664:	30c00115 	stw	r3,4(r6)
 1802668:	283f1b0e 	bge	r5,zero,18022d8 <__ieee754_rem_pio2+0x64>
 180266c:	e0c00117 	ldw	r3,4(fp)
 1802670:	d8800b17 	ldw	r2,44(sp)
 1802674:	18e0003c 	xorhi	r3,r3,32768
 1802678:	0085c83a 	sub	r2,zero,r2
 180267c:	e0c00115 	stw	r3,4(fp)
 1802680:	d8800b15 	stw	r2,44(sp)
 1802684:	30800117 	ldw	r2,4(r6)
 1802688:	10a0003c 	xorhi	r2,r2,32768
 180268c:	30800115 	stw	r2,4(r6)
 1802690:	003f1106 	br	18022d8 <__ieee754_rem_pio2+0x64>
 1802694:	04151034 	movhi	r16,21568
 1802698:	044ffe74 	movhi	r17,16377
 180269c:	8c487ec4 	addi	r17,r17,8699
 18026a0:	4809883a 	mov	r4,r9
 18026a4:	800d883a 	mov	r6,r16
 18026a8:	880f883a 	mov	r7,r17
 18026ac:	18056240 	call	1805624 <__adddf3>
 18026b0:	1025883a 	mov	r18,r2
 18026b4:	1827883a 	mov	r19,r3
 18026b8:	b440a326 	beq	r22,r17,1802948 <__ieee754_rem_pio2+0x6d4>
 18026bc:	040698b4 	movhi	r16,6754
 18026c0:	8418cc44 	addi	r16,r16,25393
 18026c4:	044f7474 	movhi	r17,15825
 18026c8:	8c6d1844 	addi	r17,r17,-19359
 18026cc:	1009883a 	mov	r4,r2
 18026d0:	180b883a 	mov	r5,r3
 18026d4:	800d883a 	mov	r6,r16
 18026d8:	880f883a 	mov	r7,r17
 18026dc:	18056240 	call	1805624 <__adddf3>
 18026e0:	100d883a 	mov	r6,r2
 18026e4:	9009883a 	mov	r4,r18
 18026e8:	980b883a 	mov	r5,r19
 18026ec:	180f883a 	mov	r7,r3
 18026f0:	e0800015 	stw	r2,0(fp)
 18026f4:	e0c00115 	stw	r3,4(fp)
 18026f8:	18055a40 	call	18055a4 <__subdf3>
 18026fc:	1009883a 	mov	r4,r2
 1802700:	800d883a 	mov	r6,r16
 1802704:	880f883a 	mov	r7,r17
 1802708:	180b883a 	mov	r5,r3
 180270c:	18056240 	call	1805624 <__adddf3>
 1802710:	1009883a 	mov	r4,r2
 1802714:	00bfffc4 	movi	r2,-1
 1802718:	d8800b15 	stw	r2,44(sp)
 180271c:	e0c00315 	stw	r3,12(fp)
 1802720:	e1000215 	stw	r4,8(fp)
 1802724:	003eec06 	br	18022d8 <__ieee754_rem_pio2+0x64>
 1802728:	b005d53a 	srai	r2,r22,20
 180272c:	4821883a 	mov	r16,r9
 1802730:	05505c34 	movhi	r21,16752
 1802734:	15fefa84 	addi	r23,r2,-1046
 1802738:	b826953a 	slli	r19,r23,20
 180273c:	0029883a 	mov	r20,zero
 1802740:	048000c4 	movi	r18,3
 1802744:	b4e7c83a 	sub	r19,r22,r19
 1802748:	980b883a 	mov	r5,r19
 180274c:	1805fcc0 	call	1805fcc <__fixdfsi>
 1802750:	1009883a 	mov	r4,r2
 1802754:	1805ed40 	call	1805ed4 <__floatsidf>
 1802758:	980b883a 	mov	r5,r19
 180275c:	8009883a 	mov	r4,r16
 1802760:	180f883a 	mov	r7,r3
 1802764:	100d883a 	mov	r6,r2
 1802768:	d8800215 	stw	r2,8(sp)
 180276c:	d8c00315 	stw	r3,12(sp)
 1802770:	18055a40 	call	18055a4 <__subdf3>
 1802774:	180b883a 	mov	r5,r3
 1802778:	a00d883a 	mov	r6,r20
 180277c:	a80f883a 	mov	r7,r21
 1802780:	1009883a 	mov	r4,r2
 1802784:	18056980 	call	1805698 <__muldf3>
 1802788:	180b883a 	mov	r5,r3
 180278c:	1009883a 	mov	r4,r2
 1802790:	1823883a 	mov	r17,r3
 1802794:	1021883a 	mov	r16,r2
 1802798:	1805fcc0 	call	1805fcc <__fixdfsi>
 180279c:	1009883a 	mov	r4,r2
 18027a0:	1805ed40 	call	1805ed4 <__floatsidf>
 18027a4:	880b883a 	mov	r5,r17
 18027a8:	8009883a 	mov	r4,r16
 18027ac:	180f883a 	mov	r7,r3
 18027b0:	100d883a 	mov	r6,r2
 18027b4:	d8800415 	stw	r2,16(sp)
 18027b8:	d8c00515 	stw	r3,20(sp)
 18027bc:	18055a40 	call	18055a4 <__subdf3>
 18027c0:	180b883a 	mov	r5,r3
 18027c4:	000d883a 	mov	r6,zero
 18027c8:	a80f883a 	mov	r7,r21
 18027cc:	1009883a 	mov	r4,r2
 18027d0:	18056980 	call	1805698 <__muldf3>
 18027d4:	d8c00715 	stw	r3,28(sp)
 18027d8:	d8800615 	stw	r2,24(sp)
 18027dc:	00000106 	br	18027e4 <__ieee754_rem_pio2+0x570>
 18027e0:	8025883a 	mov	r18,r16
 18027e4:	943fffc4 	addi	r16,r18,-1
 18027e8:	800890fa 	slli	r4,r16,3
 18027ec:	d9400204 	addi	r5,sp,8
 18027f0:	000d883a 	mov	r6,zero
 18027f4:	2149883a 	add	r4,r4,r5
 18027f8:	20c00117 	ldw	r3,4(r4)
 18027fc:	20800017 	ldw	r2,0(r4)
 1802800:	000f883a 	mov	r7,zero
 1802804:	180b883a 	mov	r5,r3
 1802808:	1009883a 	mov	r4,r2
 180280c:	1805cb40 	call	1805cb4 <__eqdf2>
 1802810:	103ff326 	beq	r2,zero,18027e0 <__ieee754_rem_pio2+0x56c>
 1802814:	00800084 	movi	r2,2
 1802818:	00c060b4 	movhi	r3,386
 180281c:	18fa7e04 	addi	r3,r3,-5640
 1802820:	b80d883a 	mov	r6,r23
 1802824:	900f883a 	mov	r7,r18
 1802828:	d9000204 	addi	r4,sp,8
 180282c:	e00b883a 	mov	r5,fp
 1802830:	d8800015 	stw	r2,0(sp)
 1802834:	d8c00115 	stw	r3,4(sp)
 1802838:	18032900 	call	1803290 <__kernel_rem_pio2>
 180283c:	d8800b15 	stw	r2,44(sp)
 1802840:	d8800a17 	ldw	r2,40(sp)
 1802844:	103ea40e 	bge	r2,zero,18022d8 <__ieee754_rem_pio2+0x64>
 1802848:	e0800117 	ldw	r2,4(fp)
 180284c:	d8c00b17 	ldw	r3,44(sp)
 1802850:	e1000204 	addi	r4,fp,8
 1802854:	10a0003c 	xorhi	r2,r2,32768
 1802858:	00c7c83a 	sub	r3,zero,r3
 180285c:	e0800115 	stw	r2,4(fp)
 1802860:	d8c00b15 	stw	r3,44(sp)
 1802864:	20c00117 	ldw	r3,4(r4)
 1802868:	18e0003c 	xorhi	r3,r3,32768
 180286c:	20c00115 	stw	r3,4(r4)
 1802870:	003e9906 	br	18022d8 <__ieee754_rem_pio2+0x64>
 1802874:	00869834 	movhi	r2,6752
 1802878:	00cf7474 	movhi	r3,15825
 180287c:	18ed1844 	addi	r3,r3,-19359
 1802880:	9009883a 	mov	r4,r18
 1802884:	980b883a 	mov	r5,r19
 1802888:	180f883a 	mov	r7,r3
 180288c:	100d883a 	mov	r6,r2
 1802890:	18055a40 	call	18055a4 <__subdf3>
 1802894:	048b80f4 	movhi	r18,11779
 1802898:	949c1cc4 	addi	r18,r18,28787
 180289c:	04cee8f4 	movhi	r19,15267
 18028a0:	9cc66284 	addi	r19,r19,6538
 18028a4:	1009883a 	mov	r4,r2
 18028a8:	180b883a 	mov	r5,r3
 18028ac:	900d883a 	mov	r6,r18
 18028b0:	980f883a 	mov	r7,r19
 18028b4:	1021883a 	mov	r16,r2
 18028b8:	1823883a 	mov	r17,r3
 18028bc:	18055a40 	call	18055a4 <__subdf3>
 18028c0:	100d883a 	mov	r6,r2
 18028c4:	8009883a 	mov	r4,r16
 18028c8:	880b883a 	mov	r5,r17
 18028cc:	180f883a 	mov	r7,r3
 18028d0:	e0800015 	stw	r2,0(fp)
 18028d4:	e0c00115 	stw	r3,4(fp)
 18028d8:	18055a40 	call	18055a4 <__subdf3>
 18028dc:	180b883a 	mov	r5,r3
 18028e0:	1009883a 	mov	r4,r2
 18028e4:	900d883a 	mov	r6,r18
 18028e8:	980f883a 	mov	r7,r19
 18028ec:	18055a40 	call	18055a4 <__subdf3>
 18028f0:	180b883a 	mov	r5,r3
 18028f4:	1009883a 	mov	r4,r2
 18028f8:	00c00044 	movi	r3,1
 18028fc:	d8c00b15 	stw	r3,44(sp)
 1802900:	e1400315 	stw	r5,12(fp)
 1802904:	e1000215 	stw	r4,8(fp)
 1802908:	003e7306 	br	18022d8 <__ieee754_rem_pio2+0x64>
 180290c:	2105883a 	add	r2,r4,r4
 1802910:	1085883a 	add	r2,r2,r2
 1802914:	00c060b4 	movhi	r3,386
 1802918:	18fa5e04 	addi	r3,r3,-5768
 180291c:	10c5883a 	add	r2,r2,r3
 1802920:	113fff17 	ldw	r4,-4(r2)
 1802924:	b13eef26 	beq	r22,r4,18024e4 <__ieee754_rem_pio2+0x270>
 1802928:	980b883a 	mov	r5,r19
 180292c:	400f883a 	mov	r7,r8
 1802930:	9009883a 	mov	r4,r18
 1802934:	800d883a 	mov	r6,r16
 1802938:	18055a40 	call	18055a4 <__subdf3>
 180293c:	e0c00115 	stw	r3,4(fp)
 1802940:	e0800015 	stw	r2,0(fp)
 1802944:	003f3a06 	br	1802630 <__ieee754_rem_pio2+0x3bc>
 1802948:	00869834 	movhi	r2,6752
 180294c:	00cf7474 	movhi	r3,15825
 1802950:	18ed1844 	addi	r3,r3,-19359
 1802954:	9009883a 	mov	r4,r18
 1802958:	980b883a 	mov	r5,r19
 180295c:	180f883a 	mov	r7,r3
 1802960:	100d883a 	mov	r6,r2
 1802964:	18056240 	call	1805624 <__adddf3>
 1802968:	048b80f4 	movhi	r18,11779
 180296c:	949c1cc4 	addi	r18,r18,28787
 1802970:	04cee8f4 	movhi	r19,15267
 1802974:	9cc66284 	addi	r19,r19,6538
 1802978:	1009883a 	mov	r4,r2
 180297c:	180b883a 	mov	r5,r3
 1802980:	900d883a 	mov	r6,r18
 1802984:	980f883a 	mov	r7,r19
 1802988:	1021883a 	mov	r16,r2
 180298c:	1823883a 	mov	r17,r3
 1802990:	18056240 	call	1805624 <__adddf3>
 1802994:	100d883a 	mov	r6,r2
 1802998:	8009883a 	mov	r4,r16
 180299c:	880b883a 	mov	r5,r17
 18029a0:	180f883a 	mov	r7,r3
 18029a4:	e0800015 	stw	r2,0(fp)
 18029a8:	e0c00115 	stw	r3,4(fp)
 18029ac:	18055a40 	call	18055a4 <__subdf3>
 18029b0:	180b883a 	mov	r5,r3
 18029b4:	1009883a 	mov	r4,r2
 18029b8:	900d883a 	mov	r6,r18
 18029bc:	980f883a 	mov	r7,r19
 18029c0:	18056240 	call	1805624 <__adddf3>
 18029c4:	180b883a 	mov	r5,r3
 18029c8:	1009883a 	mov	r4,r2
 18029cc:	00ffffc4 	movi	r3,-1
 18029d0:	d8c00b15 	stw	r3,44(sp)
 18029d4:	e1400315 	stw	r5,12(fp)
 18029d8:	e1000215 	stw	r4,8(fp)
 18029dc:	003e3e06 	br	18022d8 <__ieee754_rem_pio2+0x64>
 18029e0:	d9000c17 	ldw	r4,48(sp)
 18029e4:	d9400d17 	ldw	r5,52(sp)
 18029e8:	018b8034 	movhi	r6,11776
 18029ec:	b80f883a 	mov	r7,r23
 18029f0:	18056980 	call	1805698 <__muldf3>
 18029f4:	d9000817 	ldw	r4,32(sp)
 18029f8:	d9401217 	ldw	r5,72(sp)
 18029fc:	100d883a 	mov	r6,r2
 1802a00:	180f883a 	mov	r7,r3
 1802a04:	1025883a 	mov	r18,r2
 1802a08:	1827883a 	mov	r19,r3
 1802a0c:	18055a40 	call	18055a4 <__subdf3>
 1802a10:	d9400d17 	ldw	r5,52(sp)
 1802a14:	d9000c17 	ldw	r4,48(sp)
 1802a18:	02094834 	movhi	r8,9504
 1802a1c:	42127044 	addi	r8,r8,18881
 1802a20:	024e5f34 	movhi	r9,14716
 1802a24:	4a60e684 	addi	r9,r9,-31846
 1802a28:	480f883a 	mov	r7,r9
 1802a2c:	400d883a 	mov	r6,r8
 1802a30:	182b883a 	mov	r21,r3
 1802a34:	d8800e15 	stw	r2,56(sp)
 1802a38:	18056980 	call	1805698 <__muldf3>
 1802a3c:	d9000817 	ldw	r4,32(sp)
 1802a40:	d9401217 	ldw	r5,72(sp)
 1802a44:	d9800e17 	ldw	r6,56(sp)
 1802a48:	a80f883a 	mov	r7,r21
 1802a4c:	1021883a 	mov	r16,r2
 1802a50:	1823883a 	mov	r17,r3
 1802a54:	dd400f15 	stw	r21,60(sp)
 1802a58:	18055a40 	call	18055a4 <__subdf3>
 1802a5c:	180b883a 	mov	r5,r3
 1802a60:	900d883a 	mov	r6,r18
 1802a64:	980f883a 	mov	r7,r19
 1802a68:	1009883a 	mov	r4,r2
 1802a6c:	18055a40 	call	18055a4 <__subdf3>
 1802a70:	180f883a 	mov	r7,r3
 1802a74:	880b883a 	mov	r5,r17
 1802a78:	8009883a 	mov	r4,r16
 1802a7c:	100d883a 	mov	r6,r2
 1802a80:	18055a40 	call	18055a4 <__subdf3>
 1802a84:	d9000e17 	ldw	r4,56(sp)
 1802a88:	1021883a 	mov	r16,r2
 1802a8c:	1823883a 	mov	r17,r3
 1802a90:	a80b883a 	mov	r5,r21
 1802a94:	180f883a 	mov	r7,r3
 1802a98:	003fa606 	br	1802934 <__ieee754_rem_pio2+0x6c0>

01802a9c <__ieee754_sqrt>:
 1802a9c:	defffd04 	addi	sp,sp,-12
 1802aa0:	dc000015 	stw	r16,0(sp)
 1802aa4:	009ffc34 	movhi	r2,32752
 1802aa8:	2021883a 	mov	r16,r4
 1802aac:	291ffc2c 	andhi	r4,r5,32752
 1802ab0:	dc400115 	stw	r17,4(sp)
 1802ab4:	dfc00215 	stw	ra,8(sp)
 1802ab8:	2823883a 	mov	r17,r5
 1802abc:	280f883a 	mov	r7,r5
 1802ac0:	2807883a 	mov	r3,r5
 1802ac4:	8011883a 	mov	r8,r16
 1802ac8:	20807d26 	beq	r4,r2,1802cc0 <__ieee754_sqrt+0x224>
 1802acc:	01408d0e 	bge	zero,r5,1802d04 <__ieee754_sqrt+0x268>
 1802ad0:	380dd53a 	srai	r6,r7,20
 1802ad4:	3000131e 	bne	r6,zero,1802b24 <__ieee754_sqrt+0x88>
 1802ad8:	1800041e 	bne	r3,zero,1802aec <__ieee754_sqrt+0x50>
 1802adc:	400ed2fa 	srli	r7,r8,11
 1802ae0:	31bffac4 	addi	r6,r6,-21
 1802ae4:	4010957a 	slli	r8,r8,21
 1802ae8:	383ffc26 	beq	r7,zero,1802adc <__ieee754_sqrt+0x40>
 1802aec:	3880042c 	andhi	r2,r7,16
 1802af0:	1000991e 	bne	r2,zero,1802d58 <__ieee754_sqrt+0x2bc>
 1802af4:	0009883a 	mov	r4,zero
 1802af8:	39cf883a 	add	r7,r7,r7
 1802afc:	3880042c 	andhi	r2,r7,16
 1802b00:	21000044 	addi	r4,r4,1
 1802b04:	103ffc26 	beq	r2,zero,1802af8 <__ieee754_sqrt+0x5c>
 1802b08:	00800804 	movi	r2,32
 1802b0c:	1105c83a 	sub	r2,r2,r4
 1802b10:	4086d83a 	srl	r3,r8,r2
 1802b14:	4110983a 	sll	r8,r8,r4
 1802b18:	3105c83a 	sub	r2,r6,r4
 1802b1c:	38ceb03a 	or	r7,r7,r3
 1802b20:	11800044 	addi	r6,r2,1
 1802b24:	31bf0044 	addi	r6,r6,-1023
 1802b28:	30c0004c 	andi	r3,r6,1
 1802b2c:	00800434 	movhi	r2,16
 1802b30:	10bfffc4 	addi	r2,r2,-1
 1802b34:	3884703a 	and	r2,r7,r2
 1802b38:	1807003a 	cmpeq	r3,r3,zero
 1802b3c:	11000434 	orhi	r4,r2,16
 1802b40:	18005426 	beq	r3,zero,1802c94 <__ieee754_sqrt+0x1f8>
 1802b44:	4004d7fa 	srli	r2,r8,31
 1802b48:	4207883a 	add	r3,r8,r8
 1802b4c:	02800834 	movhi	r10,32
 1802b50:	1105883a 	add	r2,r2,r4
 1802b54:	2089883a 	add	r4,r4,r2
 1802b58:	0011883a 	mov	r8,zero
 1802b5c:	000b883a 	mov	r5,zero
 1802b60:	0013883a 	mov	r9,zero
 1802b64:	02c00584 	movi	r11,22
 1802b68:	520f883a 	add	r7,r10,r8
 1802b6c:	1804d7fa 	srli	r2,r3,31
 1802b70:	4a400044 	addi	r9,r9,1
 1802b74:	18c7883a 	add	r3,r3,r3
 1802b78:	21c00316 	blt	r4,r7,1802b88 <__ieee754_sqrt+0xec>
 1802b7c:	21c9c83a 	sub	r4,r4,r7
 1802b80:	2a8b883a 	add	r5,r5,r10
 1802b84:	51d1883a 	add	r8,r10,r7
 1802b88:	1105883a 	add	r2,r2,r4
 1802b8c:	5014d07a 	srli	r10,r10,1
 1802b90:	2089883a 	add	r4,r4,r2
 1802b94:	4afff41e 	bne	r9,r11,1802b68 <__ieee754_sqrt+0xcc>
 1802b98:	02600034 	movhi	r9,32768
 1802b9c:	0017883a 	mov	r11,zero
 1802ba0:	0019883a 	mov	r12,zero
 1802ba4:	0015883a 	mov	r10,zero
 1802ba8:	4821883a 	mov	r16,r9
 1802bac:	03c00804 	movi	r15,32
 1802bb0:	00000806 	br	1802bd4 <__ieee754_sqrt+0x138>
 1802bb4:	22003426 	beq	r4,r8,1802c88 <__ieee754_sqrt+0x1ec>
 1802bb8:	1804d7fa 	srli	r2,r3,31
 1802bbc:	52800044 	addi	r10,r10,1
 1802bc0:	18c7883a 	add	r3,r3,r3
 1802bc4:	1105883a 	add	r2,r2,r4
 1802bc8:	2089883a 	add	r4,r4,r2
 1802bcc:	4812d07a 	srli	r9,r9,1
 1802bd0:	53c01326 	beq	r10,r15,1802c20 <__ieee754_sqrt+0x184>
 1802bd4:	4acf883a 	add	r7,r9,r11
 1802bd8:	413ff60e 	bge	r8,r4,1802bb4 <__ieee754_sqrt+0x118>
 1802bdc:	38a0002c 	andhi	r2,r7,32768
 1802be0:	3a57883a 	add	r11,r7,r9
 1802be4:	14002426 	beq	r2,r16,1802c78 <__ieee754_sqrt+0x1dc>
 1802be8:	4005883a 	mov	r2,r8
 1802bec:	2209c83a 	sub	r4,r4,r8
 1802bf0:	19c0012e 	bgeu	r3,r7,1802bf8 <__ieee754_sqrt+0x15c>
 1802bf4:	213fffc4 	addi	r4,r4,-1
 1802bf8:	19c7c83a 	sub	r3,r3,r7
 1802bfc:	1011883a 	mov	r8,r2
 1802c00:	1804d7fa 	srli	r2,r3,31
 1802c04:	52800044 	addi	r10,r10,1
 1802c08:	6259883a 	add	r12,r12,r9
 1802c0c:	1105883a 	add	r2,r2,r4
 1802c10:	18c7883a 	add	r3,r3,r3
 1802c14:	2089883a 	add	r4,r4,r2
 1802c18:	4812d07a 	srli	r9,r9,1
 1802c1c:	53ffed1e 	bne	r10,r15,1802bd4 <__ieee754_sqrt+0x138>
 1802c20:	20c4b03a 	or	r2,r4,r3
 1802c24:	1000201e 	bne	r2,zero,1802ca8 <__ieee754_sqrt+0x20c>
 1802c28:	600ed07a 	srli	r7,r12,1
 1802c2c:	2880004c 	andi	r2,r5,1
 1802c30:	1005003a 	cmpeq	r2,r2,zero
 1802c34:	1000011e 	bne	r2,zero,1802c3c <__ieee754_sqrt+0x1a0>
 1802c38:	39e00034 	orhi	r7,r7,32768
 1802c3c:	300dd07a 	srai	r6,r6,1
 1802c40:	280bd07a 	srai	r5,r5,1
 1802c44:	010ff834 	movhi	r4,16352
 1802c48:	300c953a 	slli	r6,r6,20
 1802c4c:	290b883a 	add	r5,r5,r4
 1802c50:	3821883a 	mov	r16,r7
 1802c54:	299d883a 	add	r14,r5,r6
 1802c58:	7023883a 	mov	r17,r14
 1802c5c:	8005883a 	mov	r2,r16
 1802c60:	8807883a 	mov	r3,r17
 1802c64:	dfc00217 	ldw	ra,8(sp)
 1802c68:	dc400117 	ldw	r17,4(sp)
 1802c6c:	dc000017 	ldw	r16,0(sp)
 1802c70:	dec00304 	addi	sp,sp,12
 1802c74:	f800283a 	ret
 1802c78:	5884703a 	and	r2,r11,r2
 1802c7c:	103fda1e 	bne	r2,zero,1802be8 <__ieee754_sqrt+0x14c>
 1802c80:	40800044 	addi	r2,r8,1
 1802c84:	003fd906 	br	1802bec <__ieee754_sqrt+0x150>
 1802c88:	19ffd42e 	bgeu	r3,r7,1802bdc <__ieee754_sqrt+0x140>
 1802c8c:	2011883a 	mov	r8,r4
 1802c90:	003fc906 	br	1802bb8 <__ieee754_sqrt+0x11c>
 1802c94:	4004d7fa 	srli	r2,r8,31
 1802c98:	4211883a 	add	r8,r8,r8
 1802c9c:	1105883a 	add	r2,r2,r4
 1802ca0:	2089883a 	add	r4,r4,r2
 1802ca4:	003fa706 	br	1802b44 <__ieee754_sqrt+0xa8>
 1802ca8:	00bfffc4 	movi	r2,-1
 1802cac:	60802726 	beq	r12,r2,1802d4c <__ieee754_sqrt+0x2b0>
 1802cb0:	6080004c 	andi	r2,r12,1
 1802cb4:	6085883a 	add	r2,r12,r2
 1802cb8:	100ed07a 	srli	r7,r2,1
 1802cbc:	003fdb06 	br	1802c2c <__ieee754_sqrt+0x190>
 1802cc0:	8009883a 	mov	r4,r16
 1802cc4:	800d883a 	mov	r6,r16
 1802cc8:	18056980 	call	1805698 <__muldf3>
 1802ccc:	180f883a 	mov	r7,r3
 1802cd0:	880b883a 	mov	r5,r17
 1802cd4:	8009883a 	mov	r4,r16
 1802cd8:	100d883a 	mov	r6,r2
 1802cdc:	18056240 	call	1805624 <__adddf3>
 1802ce0:	1021883a 	mov	r16,r2
 1802ce4:	1823883a 	mov	r17,r3
 1802ce8:	8005883a 	mov	r2,r16
 1802cec:	8807883a 	mov	r3,r17
 1802cf0:	dfc00217 	ldw	ra,8(sp)
 1802cf4:	dc400117 	ldw	r17,4(sp)
 1802cf8:	dc000017 	ldw	r16,0(sp)
 1802cfc:	dec00304 	addi	sp,sp,12
 1802d00:	f800283a 	ret
 1802d04:	00a00034 	movhi	r2,32768
 1802d08:	10bfffc4 	addi	r2,r2,-1
 1802d0c:	2884703a 	and	r2,r5,r2
 1802d10:	8084b03a 	or	r2,r16,r2
 1802d14:	103fd126 	beq	r2,zero,1802c5c <__ieee754_sqrt+0x1c0>
 1802d18:	283f6d26 	beq	r5,zero,1802ad0 <__ieee754_sqrt+0x34>
 1802d1c:	280f883a 	mov	r7,r5
 1802d20:	8009883a 	mov	r4,r16
 1802d24:	800d883a 	mov	r6,r16
 1802d28:	18055a40 	call	18055a4 <__subdf3>
 1802d2c:	1009883a 	mov	r4,r2
 1802d30:	180b883a 	mov	r5,r3
 1802d34:	100d883a 	mov	r6,r2
 1802d38:	180f883a 	mov	r7,r3
 1802d3c:	1805a5c0 	call	1805a5c <__divdf3>
 1802d40:	1021883a 	mov	r16,r2
 1802d44:	1823883a 	mov	r17,r3
 1802d48:	003fc406 	br	1802c5c <__ieee754_sqrt+0x1c0>
 1802d4c:	29400044 	addi	r5,r5,1
 1802d50:	000f883a 	mov	r7,zero
 1802d54:	003fb506 	br	1802c2c <__ieee754_sqrt+0x190>
 1802d58:	0009883a 	mov	r4,zero
 1802d5c:	00800804 	movi	r2,32
 1802d60:	003f6b06 	br	1802b10 <__ieee754_sqrt+0x74>

01802d64 <__kernel_cos>:
 1802d64:	defff104 	addi	sp,sp,-60
 1802d68:	00a00034 	movhi	r2,32768
 1802d6c:	10bfffc4 	addi	r2,r2,-1
 1802d70:	dd800c15 	stw	r22,48(sp)
 1802d74:	116c703a 	and	r22,r2,r5
 1802d78:	0005883a 	mov	r2,zero
 1802d7c:	dd000a15 	stw	r20,40(sp)
 1802d80:	d8800215 	stw	r2,8(sp)
 1802d84:	2029883a 	mov	r20,r4
 1802d88:	008f9034 	movhi	r2,15936
 1802d8c:	10bfffc4 	addi	r2,r2,-1
 1802d90:	0009883a 	mov	r4,zero
 1802d94:	dd400b15 	stw	r21,44(sp)
 1802d98:	dfc00e15 	stw	ra,56(sp)
 1802d9c:	ddc00d15 	stw	r23,52(sp)
 1802da0:	dcc00915 	stw	r19,36(sp)
 1802da4:	dc800815 	stw	r18,32(sp)
 1802da8:	dc400715 	stw	r17,28(sp)
 1802dac:	dc000615 	stw	r16,24(sp)
 1802db0:	282b883a 	mov	r21,r5
 1802db4:	d9800415 	stw	r6,16(sp)
 1802db8:	d9c00515 	stw	r7,20(sp)
 1802dbc:	d9000315 	stw	r4,12(sp)
 1802dc0:	15809216 	blt	r2,r22,180300c <__kernel_cos+0x2a8>
 1802dc4:	a009883a 	mov	r4,r20
 1802dc8:	1805fcc0 	call	1805fcc <__fixdfsi>
 1802dcc:	10011c26 	beq	r2,zero,1803240 <__kernel_cos+0x4dc>
 1802dd0:	a009883a 	mov	r4,r20
 1802dd4:	a80b883a 	mov	r5,r21
 1802dd8:	a00d883a 	mov	r6,r20
 1802ddc:	a80f883a 	mov	r7,r21
 1802de0:	18056980 	call	1805698 <__muldf3>
 1802de4:	1021883a 	mov	r16,r2
 1802de8:	1823883a 	mov	r17,r3
 1802dec:	1025883a 	mov	r18,r2
 1802df0:	1827883a 	mov	r19,r3
 1802df4:	00afa234 	movhi	r2,48776
 1802df8:	108e3504 	addi	r2,r2,14548
 1802dfc:	00ef6a74 	movhi	r3,48553
 1802e00:	18feba44 	addi	r3,r3,-1303
 1802e04:	8009883a 	mov	r4,r16
 1802e08:	880b883a 	mov	r5,r17
 1802e0c:	180f883a 	mov	r7,r3
 1802e10:	100d883a 	mov	r6,r2
 1802e14:	18056980 	call	1805698 <__muldf3>
 1802e18:	022f6d74 	movhi	r8,48565
 1802e1c:	422c7104 	addi	r8,r8,-20028
 1802e20:	024f88b4 	movhi	r9,15906
 1802e24:	4a7ba784 	addi	r9,r9,-4450
 1802e28:	480f883a 	mov	r7,r9
 1802e2c:	400d883a 	mov	r6,r8
 1802e30:	180b883a 	mov	r5,r3
 1802e34:	1009883a 	mov	r4,r2
 1802e38:	18056240 	call	1805624 <__adddf3>
 1802e3c:	180f883a 	mov	r7,r3
 1802e40:	8009883a 	mov	r4,r16
 1802e44:	880b883a 	mov	r5,r17
 1802e48:	100d883a 	mov	r6,r2
 1802e4c:	18056980 	call	1805698 <__muldf3>
 1802e50:	02202734 	movhi	r8,32924
 1802e54:	4214ab44 	addi	r8,r8,21165
 1802e58:	024fa4b4 	movhi	r9,16018
 1802e5c:	4a5f93c4 	addi	r9,r9,32335
 1802e60:	480f883a 	mov	r7,r9
 1802e64:	400d883a 	mov	r6,r8
 1802e68:	180b883a 	mov	r5,r3
 1802e6c:	1009883a 	mov	r4,r2
 1802e70:	18055a40 	call	18055a4 <__subdf3>
 1802e74:	180f883a 	mov	r7,r3
 1802e78:	8009883a 	mov	r4,r16
 1802e7c:	880b883a 	mov	r5,r17
 1802e80:	100d883a 	mov	r6,r2
 1802e84:	18056980 	call	1805698 <__muldf3>
 1802e88:	020672f4 	movhi	r8,6603
 1802e8c:	42056404 	addi	r8,r8,5520
 1802e90:	024fbeb4 	movhi	r9,16122
 1802e94:	4a406804 	addi	r9,r9,416
 1802e98:	480f883a 	mov	r7,r9
 1802e9c:	400d883a 	mov	r6,r8
 1802ea0:	180b883a 	mov	r5,r3
 1802ea4:	1009883a 	mov	r4,r2
 1802ea8:	18056240 	call	1805624 <__adddf3>
 1802eac:	180f883a 	mov	r7,r3
 1802eb0:	8009883a 	mov	r4,r16
 1802eb4:	880b883a 	mov	r5,r17
 1802eb8:	100d883a 	mov	r6,r2
 1802ebc:	18056980 	call	1805698 <__muldf3>
 1802ec0:	0205b074 	movhi	r8,5825
 1802ec4:	42145dc4 	addi	r8,r8,20855
 1802ec8:	024fd5f4 	movhi	r9,16215
 1802ecc:	4a705b04 	addi	r9,r9,-16020
 1802ed0:	480f883a 	mov	r7,r9
 1802ed4:	400d883a 	mov	r6,r8
 1802ed8:	180b883a 	mov	r5,r3
 1802edc:	1009883a 	mov	r4,r2
 1802ee0:	18055a40 	call	18055a4 <__subdf3>
 1802ee4:	180f883a 	mov	r7,r3
 1802ee8:	8009883a 	mov	r4,r16
 1802eec:	880b883a 	mov	r5,r17
 1802ef0:	100d883a 	mov	r6,r2
 1802ef4:	18056980 	call	1805698 <__muldf3>
 1802ef8:	02155574 	movhi	r8,21845
 1802efc:	42155304 	addi	r8,r8,21836
 1802f00:	024fe974 	movhi	r9,16293
 1802f04:	4a555544 	addi	r9,r9,21845
 1802f08:	480f883a 	mov	r7,r9
 1802f0c:	400d883a 	mov	r6,r8
 1802f10:	180b883a 	mov	r5,r3
 1802f14:	1009883a 	mov	r4,r2
 1802f18:	18056240 	call	1805624 <__adddf3>
 1802f1c:	180f883a 	mov	r7,r3
 1802f20:	880b883a 	mov	r5,r17
 1802f24:	8009883a 	mov	r4,r16
 1802f28:	100d883a 	mov	r6,r2
 1802f2c:	18056980 	call	1805698 <__muldf3>
 1802f30:	1021883a 	mov	r16,r2
 1802f34:	1823883a 	mov	r17,r3
 1802f38:	0005883a 	mov	r2,zero
 1802f3c:	00cff834 	movhi	r3,16352
 1802f40:	9009883a 	mov	r4,r18
 1802f44:	980b883a 	mov	r5,r19
 1802f48:	180f883a 	mov	r7,r3
 1802f4c:	100d883a 	mov	r6,r2
 1802f50:	18056980 	call	1805698 <__muldf3>
 1802f54:	980b883a 	mov	r5,r19
 1802f58:	880f883a 	mov	r7,r17
 1802f5c:	9009883a 	mov	r4,r18
 1802f60:	800d883a 	mov	r6,r16
 1802f64:	1025883a 	mov	r18,r2
 1802f68:	1827883a 	mov	r19,r3
 1802f6c:	18056980 	call	1805698 <__muldf3>
 1802f70:	d9c00517 	ldw	r7,20(sp)
 1802f74:	d9800417 	ldw	r6,16(sp)
 1802f78:	a80b883a 	mov	r5,r21
 1802f7c:	a009883a 	mov	r4,r20
 1802f80:	1021883a 	mov	r16,r2
 1802f84:	1823883a 	mov	r17,r3
 1802f88:	18056980 	call	1805698 <__muldf3>
 1802f8c:	180f883a 	mov	r7,r3
 1802f90:	880b883a 	mov	r5,r17
 1802f94:	8009883a 	mov	r4,r16
 1802f98:	100d883a 	mov	r6,r2
 1802f9c:	18055a40 	call	18055a4 <__subdf3>
 1802fa0:	180f883a 	mov	r7,r3
 1802fa4:	980b883a 	mov	r5,r19
 1802fa8:	9009883a 	mov	r4,r18
 1802fac:	100d883a 	mov	r6,r2
 1802fb0:	18055a40 	call	18055a4 <__subdf3>
 1802fb4:	0011883a 	mov	r8,zero
 1802fb8:	024ffc34 	movhi	r9,16368
 1802fbc:	480b883a 	mov	r5,r9
 1802fc0:	180f883a 	mov	r7,r3
 1802fc4:	4009883a 	mov	r4,r8
 1802fc8:	100d883a 	mov	r6,r2
 1802fcc:	18055a40 	call	18055a4 <__subdf3>
 1802fd0:	100d883a 	mov	r6,r2
 1802fd4:	180f883a 	mov	r7,r3
 1802fd8:	3005883a 	mov	r2,r6
 1802fdc:	3807883a 	mov	r3,r7
 1802fe0:	dfc00e17 	ldw	ra,56(sp)
 1802fe4:	ddc00d17 	ldw	r23,52(sp)
 1802fe8:	dd800c17 	ldw	r22,48(sp)
 1802fec:	dd400b17 	ldw	r21,44(sp)
 1802ff0:	dd000a17 	ldw	r20,40(sp)
 1802ff4:	dcc00917 	ldw	r19,36(sp)
 1802ff8:	dc800817 	ldw	r18,32(sp)
 1802ffc:	dc400717 	ldw	r17,28(sp)
 1803000:	dc000617 	ldw	r16,24(sp)
 1803004:	dec00f04 	addi	sp,sp,60
 1803008:	f800283a 	ret
 180300c:	280f883a 	mov	r7,r5
 1803010:	a009883a 	mov	r4,r20
 1803014:	a00d883a 	mov	r6,r20
 1803018:	18056980 	call	1805698 <__muldf3>
 180301c:	1021883a 	mov	r16,r2
 1803020:	1823883a 	mov	r17,r3
 1803024:	1025883a 	mov	r18,r2
 1803028:	1827883a 	mov	r19,r3
 180302c:	00afa234 	movhi	r2,48776
 1803030:	108e3504 	addi	r2,r2,14548
 1803034:	00ef6a74 	movhi	r3,48553
 1803038:	18feba44 	addi	r3,r3,-1303
 180303c:	8009883a 	mov	r4,r16
 1803040:	880b883a 	mov	r5,r17
 1803044:	180f883a 	mov	r7,r3
 1803048:	100d883a 	mov	r6,r2
 180304c:	18056980 	call	1805698 <__muldf3>
 1803050:	022f6d74 	movhi	r8,48565
 1803054:	422c7104 	addi	r8,r8,-20028
 1803058:	024f88b4 	movhi	r9,15906
 180305c:	4a7ba784 	addi	r9,r9,-4450
 1803060:	480f883a 	mov	r7,r9
 1803064:	400d883a 	mov	r6,r8
 1803068:	180b883a 	mov	r5,r3
 180306c:	1009883a 	mov	r4,r2
 1803070:	18056240 	call	1805624 <__adddf3>
 1803074:	180f883a 	mov	r7,r3
 1803078:	8009883a 	mov	r4,r16
 180307c:	880b883a 	mov	r5,r17
 1803080:	100d883a 	mov	r6,r2
 1803084:	18056980 	call	1805698 <__muldf3>
 1803088:	02202734 	movhi	r8,32924
 180308c:	4214ab44 	addi	r8,r8,21165
 1803090:	024fa4b4 	movhi	r9,16018
 1803094:	4a5f93c4 	addi	r9,r9,32335
 1803098:	480f883a 	mov	r7,r9
 180309c:	400d883a 	mov	r6,r8
 18030a0:	180b883a 	mov	r5,r3
 18030a4:	1009883a 	mov	r4,r2
 18030a8:	18055a40 	call	18055a4 <__subdf3>
 18030ac:	180f883a 	mov	r7,r3
 18030b0:	8009883a 	mov	r4,r16
 18030b4:	880b883a 	mov	r5,r17
 18030b8:	100d883a 	mov	r6,r2
 18030bc:	18056980 	call	1805698 <__muldf3>
 18030c0:	020672f4 	movhi	r8,6603
 18030c4:	42056404 	addi	r8,r8,5520
 18030c8:	024fbeb4 	movhi	r9,16122
 18030cc:	4a406804 	addi	r9,r9,416
 18030d0:	480f883a 	mov	r7,r9
 18030d4:	400d883a 	mov	r6,r8
 18030d8:	180b883a 	mov	r5,r3
 18030dc:	1009883a 	mov	r4,r2
 18030e0:	18056240 	call	1805624 <__adddf3>
 18030e4:	180f883a 	mov	r7,r3
 18030e8:	8009883a 	mov	r4,r16
 18030ec:	880b883a 	mov	r5,r17
 18030f0:	100d883a 	mov	r6,r2
 18030f4:	18056980 	call	1805698 <__muldf3>
 18030f8:	0205b074 	movhi	r8,5825
 18030fc:	42145dc4 	addi	r8,r8,20855
 1803100:	024fd5f4 	movhi	r9,16215
 1803104:	4a705b04 	addi	r9,r9,-16020
 1803108:	480f883a 	mov	r7,r9
 180310c:	400d883a 	mov	r6,r8
 1803110:	180b883a 	mov	r5,r3
 1803114:	1009883a 	mov	r4,r2
 1803118:	18055a40 	call	18055a4 <__subdf3>
 180311c:	180f883a 	mov	r7,r3
 1803120:	8009883a 	mov	r4,r16
 1803124:	880b883a 	mov	r5,r17
 1803128:	100d883a 	mov	r6,r2
 180312c:	18056980 	call	1805698 <__muldf3>
 1803130:	02155574 	movhi	r8,21845
 1803134:	42155304 	addi	r8,r8,21836
 1803138:	024fe974 	movhi	r9,16293
 180313c:	4a555544 	addi	r9,r9,21845
 1803140:	480f883a 	mov	r7,r9
 1803144:	400d883a 	mov	r6,r8
 1803148:	180b883a 	mov	r5,r3
 180314c:	1009883a 	mov	r4,r2
 1803150:	18056240 	call	1805624 <__adddf3>
 1803154:	180f883a 	mov	r7,r3
 1803158:	880b883a 	mov	r5,r17
 180315c:	8009883a 	mov	r4,r16
 1803160:	100d883a 	mov	r6,r2
 1803164:	18056980 	call	1805698 <__muldf3>
 1803168:	1021883a 	mov	r16,r2
 180316c:	008ff4f4 	movhi	r2,16339
 1803170:	108ccc84 	addi	r2,r2,13106
 1803174:	1823883a 	mov	r17,r3
 1803178:	15bf6f0e 	bge	r2,r22,1802f38 <__kernel_cos+0x1d4>
 180317c:	008ffa74 	movhi	r2,16361
 1803180:	1580320e 	bge	r2,r22,180324c <__kernel_cos+0x4e8>
 1803184:	0005883a 	mov	r2,zero
 1803188:	010ff9f4 	movhi	r4,16359
 180318c:	002d883a 	mov	r22,zero
 1803190:	d8800015 	stw	r2,0(sp)
 1803194:	05cff4b4 	movhi	r23,16338
 1803198:	d9000115 	stw	r4,4(sp)
 180319c:	0005883a 	mov	r2,zero
 18031a0:	00cff834 	movhi	r3,16352
 18031a4:	9009883a 	mov	r4,r18
 18031a8:	980b883a 	mov	r5,r19
 18031ac:	180f883a 	mov	r7,r3
 18031b0:	100d883a 	mov	r6,r2
 18031b4:	18056980 	call	1805698 <__muldf3>
 18031b8:	180b883a 	mov	r5,r3
 18031bc:	b80f883a 	mov	r7,r23
 18031c0:	1009883a 	mov	r4,r2
 18031c4:	b00d883a 	mov	r6,r22
 18031c8:	18055a40 	call	18055a4 <__subdf3>
 18031cc:	980b883a 	mov	r5,r19
 18031d0:	880f883a 	mov	r7,r17
 18031d4:	9009883a 	mov	r4,r18
 18031d8:	800d883a 	mov	r6,r16
 18031dc:	1025883a 	mov	r18,r2
 18031e0:	1827883a 	mov	r19,r3
 18031e4:	18056980 	call	1805698 <__muldf3>
 18031e8:	d9c00517 	ldw	r7,20(sp)
 18031ec:	d9800417 	ldw	r6,16(sp)
 18031f0:	a80b883a 	mov	r5,r21
 18031f4:	a009883a 	mov	r4,r20
 18031f8:	1021883a 	mov	r16,r2
 18031fc:	1823883a 	mov	r17,r3
 1803200:	18056980 	call	1805698 <__muldf3>
 1803204:	180f883a 	mov	r7,r3
 1803208:	880b883a 	mov	r5,r17
 180320c:	8009883a 	mov	r4,r16
 1803210:	100d883a 	mov	r6,r2
 1803214:	18055a40 	call	18055a4 <__subdf3>
 1803218:	180f883a 	mov	r7,r3
 180321c:	980b883a 	mov	r5,r19
 1803220:	9009883a 	mov	r4,r18
 1803224:	100d883a 	mov	r6,r2
 1803228:	18055a40 	call	18055a4 <__subdf3>
 180322c:	d9400117 	ldw	r5,4(sp)
 1803230:	d9000017 	ldw	r4,0(sp)
 1803234:	180f883a 	mov	r7,r3
 1803238:	100d883a 	mov	r6,r2
 180323c:	003f6306 	br	1802fcc <__kernel_cos+0x268>
 1803240:	000d883a 	mov	r6,zero
 1803244:	01cffc34 	movhi	r7,16368
 1803248:	003f6306 	br	1802fd8 <__kernel_cos+0x274>
 180324c:	00bff834 	movhi	r2,65504
 1803250:	b0ad883a 	add	r22,r22,r2
 1803254:	dd800315 	stw	r22,12(sp)
 1803258:	d9000317 	ldw	r4,12(sp)
 180325c:	0005883a 	mov	r2,zero
 1803260:	00cffc34 	movhi	r3,16368
 1803264:	002d883a 	mov	r22,zero
 1803268:	200f883a 	mov	r7,r4
 180326c:	202f883a 	mov	r23,r4
 1803270:	180b883a 	mov	r5,r3
 1803274:	1009883a 	mov	r4,r2
 1803278:	b00d883a 	mov	r6,r22
 180327c:	d8800215 	stw	r2,8(sp)
 1803280:	18055a40 	call	18055a4 <__subdf3>
 1803284:	d8800015 	stw	r2,0(sp)
 1803288:	d8c00115 	stw	r3,4(sp)
 180328c:	003fc306 	br	180319c <__kernel_cos+0x438>

01803290 <__kernel_rem_pio2>:
 1803290:	deff5304 	addi	sp,sp,-692
 1803294:	d880ad17 	ldw	r2,692(sp)
 1803298:	d9009615 	stw	r4,600(sp)
 180329c:	d9409715 	stw	r5,604(sp)
 18032a0:	1087883a 	add	r3,r2,r2
 18032a4:	18c7883a 	add	r3,r3,r3
 18032a8:	008060b4 	movhi	r2,386
 18032ac:	10bac004 	addi	r2,r2,-5376
 18032b0:	1887883a 	add	r3,r3,r2
 18032b4:	18c00017 	ldw	r3,0(r3)
 18032b8:	313fff44 	addi	r4,r6,-3
 18032bc:	01400604 	movi	r5,24
 18032c0:	df00ab15 	stw	fp,684(sp)
 18032c4:	dc00a315 	stw	r16,652(sp)
 18032c8:	d8c09515 	stw	r3,596(sp)
 18032cc:	dfc0ac15 	stw	ra,688(sp)
 18032d0:	ddc0aa15 	stw	r23,680(sp)
 18032d4:	dd80a915 	stw	r22,676(sp)
 18032d8:	dd40a815 	stw	r21,672(sp)
 18032dc:	dd00a715 	stw	r20,668(sp)
 18032e0:	dcc0a615 	stw	r19,664(sp)
 18032e4:	dc80a515 	stw	r18,660(sp)
 18032e8:	dc40a415 	stw	r17,656(sp)
 18032ec:	3021883a 	mov	r16,r6
 18032f0:	d9c09815 	stw	r7,608(sp)
 18032f4:	18061cc0 	call	18061cc <__divsi3>
 18032f8:	d8c09817 	ldw	r3,608(sp)
 18032fc:	d8808c15 	stw	r2,560(sp)
 1803300:	1f3fffc4 	addi	fp,r3,-1
 1803304:	10031816 	blt	r2,zero,1803f68 <__kernel_rem_pio2+0xcd8>
 1803308:	d9008c17 	ldw	r4,560(sp)
 180330c:	d9409517 	ldw	r5,596(sp)
 1803310:	20bffa24 	muli	r2,r4,-24
 1803314:	2f07883a 	add	r3,r5,fp
 1803318:	8085883a 	add	r2,r16,r2
 180331c:	10bffa04 	addi	r2,r2,-24
 1803320:	d8809315 	stw	r2,588(sp)
 1803324:	18001516 	blt	r3,zero,180337c <__kernel_rem_pio2+0xec>
 1803328:	2721c83a 	sub	r16,r4,fp
 180332c:	d980ae17 	ldw	r6,696(sp)
 1803330:	8405883a 	add	r2,r16,r16
 1803334:	1085883a 	add	r2,r2,r2
 1803338:	30a3883a 	add	r17,r6,r2
 180333c:	80e7883a 	add	r19,r16,r3
 1803340:	dc801404 	addi	r18,sp,80
 1803344:	00000106 	br	180334c <__kernel_rem_pio2+0xbc>
 1803348:	84000044 	addi	r16,r16,1
 180334c:	0009883a 	mov	r4,zero
 1803350:	000b883a 	mov	r5,zero
 1803354:	80000416 	blt	r16,zero,1803368 <__kernel_rem_pio2+0xd8>
 1803358:	89000017 	ldw	r4,0(r17)
 180335c:	1805ed40 	call	1805ed4 <__floatsidf>
 1803360:	1009883a 	mov	r4,r2
 1803364:	180b883a 	mov	r5,r3
 1803368:	91400115 	stw	r5,4(r18)
 180336c:	91000015 	stw	r4,0(r18)
 1803370:	8c400104 	addi	r17,r17,4
 1803374:	94800204 	addi	r18,r18,8
 1803378:	84fff31e 	bne	r16,r19,1803348 <__kernel_rem_pio2+0xb8>
 180337c:	d9c09517 	ldw	r7,596(sp)
 1803380:	38002416 	blt	r7,zero,1803414 <__kernel_rem_pio2+0x184>
 1803384:	da809817 	ldw	r10,608(sp)
 1803388:	e029883a 	mov	r20,fp
 180338c:	dd406404 	addi	r21,sp,400
 1803390:	3aaf883a 	add	r23,r7,r10
 1803394:	e02c403a 	cmpge	r22,fp,zero
 1803398:	b0023e26 	beq	r22,zero,1803c94 <__kernel_rem_pio2+0xa04>
 180339c:	dcc09617 	ldw	r19,600(sp)
 18033a0:	0021883a 	mov	r16,zero
 18033a4:	0025883a 	mov	r18,zero
 18033a8:	0023883a 	mov	r17,zero
 18033ac:	a489c83a 	sub	r4,r20,r18
 18033b0:	200890fa 	slli	r4,r4,3
 18033b4:	99800017 	ldw	r6,0(r19)
 18033b8:	99c00117 	ldw	r7,4(r19)
 18033bc:	26c9883a 	add	r4,r4,sp
 18033c0:	20c01517 	ldw	r3,84(r4)
 18033c4:	20801417 	ldw	r2,80(r4)
 18033c8:	94800044 	addi	r18,r18,1
 18033cc:	180b883a 	mov	r5,r3
 18033d0:	1009883a 	mov	r4,r2
 18033d4:	18056980 	call	1805698 <__muldf3>
 18033d8:	180f883a 	mov	r7,r3
 18033dc:	880b883a 	mov	r5,r17
 18033e0:	8009883a 	mov	r4,r16
 18033e4:	100d883a 	mov	r6,r2
 18033e8:	18056240 	call	1805624 <__adddf3>
 18033ec:	1021883a 	mov	r16,r2
 18033f0:	d8809817 	ldw	r2,608(sp)
 18033f4:	9cc00204 	addi	r19,r19,8
 18033f8:	1823883a 	mov	r17,r3
 18033fc:	14bfeb1e 	bne	r2,r18,18033ac <__kernel_rem_pio2+0x11c>
 1803400:	a5000044 	addi	r20,r20,1
 1803404:	ac400115 	stw	r17,4(r21)
 1803408:	ac000015 	stw	r16,0(r21)
 180340c:	ad400204 	addi	r21,r21,8
 1803410:	a5ffe11e 	bne	r20,r23,1803398 <__kernel_rem_pio2+0x108>
 1803414:	d8c09517 	ldw	r3,596(sp)
 1803418:	d9409317 	ldw	r5,588(sp)
 180341c:	e038403a 	cmpge	fp,fp,zero
 1803420:	d8c08d15 	stw	r3,564(sp)
 1803424:	d9008d17 	ldw	r4,564(sp)
 1803428:	18c5883a 	add	r2,r3,r3
 180342c:	10c7883a 	add	r3,r2,r3
 1803430:	1907883a 	add	r3,r3,r4
 1803434:	1085883a 	add	r2,r2,r2
 1803438:	16c5883a 	add	r2,r2,sp
 180343c:	1ec7883a 	add	r3,r3,sp
 1803440:	29400050 	cmplti	r5,r5,1
 1803444:	df00a215 	stw	fp,648(sp)
 1803448:	d8809915 	stw	r2,612(sp)
 180344c:	d8c0a115 	stw	r3,644(sp)
 1803450:	d940a015 	stw	r5,640(sp)
 1803454:	d9808d17 	ldw	r6,564(sp)
 1803458:	300490fa 	slli	r2,r6,3
 180345c:	16c5883a 	add	r2,r2,sp
 1803460:	15006417 	ldw	r20,400(r2)
 1803464:	15406517 	ldw	r21,404(r2)
 1803468:	01802e0e 	bge	zero,r6,1803524 <__kernel_rem_pio2+0x294>
 180346c:	102d883a 	mov	r22,r2
 1803470:	302f883a 	mov	r23,r6
 1803474:	d839883a 	mov	fp,sp
 1803478:	0005883a 	mov	r2,zero
 180347c:	00cf9c34 	movhi	r3,15984
 1803480:	180f883a 	mov	r7,r3
 1803484:	100d883a 	mov	r6,r2
 1803488:	a009883a 	mov	r4,r20
 180348c:	a80b883a 	mov	r5,r21
 1803490:	18056980 	call	1805698 <__muldf3>
 1803494:	180b883a 	mov	r5,r3
 1803498:	1009883a 	mov	r4,r2
 180349c:	1805fcc0 	call	1805fcc <__fixdfsi>
 18034a0:	1009883a 	mov	r4,r2
 18034a4:	1805ed40 	call	1805ed4 <__floatsidf>
 18034a8:	1021883a 	mov	r16,r2
 18034ac:	1823883a 	mov	r17,r3
 18034b0:	0005883a 	mov	r2,zero
 18034b4:	00f05c34 	movhi	r3,49520
 18034b8:	180f883a 	mov	r7,r3
 18034bc:	8009883a 	mov	r4,r16
 18034c0:	880b883a 	mov	r5,r17
 18034c4:	100d883a 	mov	r6,r2
 18034c8:	18056980 	call	1805698 <__muldf3>
 18034cc:	180b883a 	mov	r5,r3
 18034d0:	a80f883a 	mov	r7,r21
 18034d4:	a00d883a 	mov	r6,r20
 18034d8:	1009883a 	mov	r4,r2
 18034dc:	18056240 	call	1805624 <__adddf3>
 18034e0:	180b883a 	mov	r5,r3
 18034e4:	1009883a 	mov	r4,r2
 18034e8:	1805fcc0 	call	1805fcc <__fixdfsi>
 18034ec:	e0800015 	stw	r2,0(fp)
 18034f0:	b5bffe04 	addi	r22,r22,-8
 18034f4:	b0806417 	ldw	r2,400(r22)
 18034f8:	b0c06517 	ldw	r3,404(r22)
 18034fc:	8009883a 	mov	r4,r16
 1803500:	880b883a 	mov	r5,r17
 1803504:	180f883a 	mov	r7,r3
 1803508:	100d883a 	mov	r6,r2
 180350c:	18056240 	call	1805624 <__adddf3>
 1803510:	bdffffc4 	addi	r23,r23,-1
 1803514:	e7000104 	addi	fp,fp,4
 1803518:	1029883a 	mov	r20,r2
 180351c:	182b883a 	mov	r21,r3
 1803520:	b83fd51e 	bne	r23,zero,1803478 <__kernel_rem_pio2+0x1e8>
 1803524:	d9809317 	ldw	r6,588(sp)
 1803528:	a80b883a 	mov	r5,r21
 180352c:	a009883a 	mov	r4,r20
 1803530:	1804d300 	call	1804d30 <scalbn>
 1803534:	0009883a 	mov	r4,zero
 1803538:	014ff034 	movhi	r5,16320
 180353c:	280f883a 	mov	r7,r5
 1803540:	200d883a 	mov	r6,r4
 1803544:	180b883a 	mov	r5,r3
 1803548:	1009883a 	mov	r4,r2
 180354c:	1021883a 	mov	r16,r2
 1803550:	1823883a 	mov	r17,r3
 1803554:	18056980 	call	1805698 <__muldf3>
 1803558:	180b883a 	mov	r5,r3
 180355c:	1009883a 	mov	r4,r2
 1803560:	1804ad40 	call	1804ad4 <floor>
 1803564:	0011883a 	mov	r8,zero
 1803568:	02700834 	movhi	r9,49184
 180356c:	480f883a 	mov	r7,r9
 1803570:	400d883a 	mov	r6,r8
 1803574:	180b883a 	mov	r5,r3
 1803578:	1009883a 	mov	r4,r2
 180357c:	18056980 	call	1805698 <__muldf3>
 1803580:	180f883a 	mov	r7,r3
 1803584:	100d883a 	mov	r6,r2
 1803588:	880b883a 	mov	r5,r17
 180358c:	8009883a 	mov	r4,r16
 1803590:	18056240 	call	1805624 <__adddf3>
 1803594:	180b883a 	mov	r5,r3
 1803598:	1009883a 	mov	r4,r2
 180359c:	1823883a 	mov	r17,r3
 18035a0:	1021883a 	mov	r16,r2
 18035a4:	1805fcc0 	call	1805fcc <__fixdfsi>
 18035a8:	1009883a 	mov	r4,r2
 18035ac:	d8809415 	stw	r2,592(sp)
 18035b0:	1805ed40 	call	1805ed4 <__floatsidf>
 18035b4:	880b883a 	mov	r5,r17
 18035b8:	8009883a 	mov	r4,r16
 18035bc:	180f883a 	mov	r7,r3
 18035c0:	100d883a 	mov	r6,r2
 18035c4:	18055a40 	call	18055a4 <__subdf3>
 18035c8:	d9c0a017 	ldw	r7,640(sp)
 18035cc:	180d883a 	mov	r6,r3
 18035d0:	1021883a 	mov	r16,r2
 18035d4:	1823883a 	mov	r17,r3
 18035d8:	38017d1e 	bne	r7,zero,1803bd0 <__kernel_rem_pio2+0x940>
 18035dc:	da808d17 	ldw	r10,564(sp)
 18035e0:	d9009317 	ldw	r4,588(sp)
 18035e4:	00c00604 	movi	r3,24
 18035e8:	50bfffc4 	addi	r2,r10,-1
 18035ec:	1085883a 	add	r2,r2,r2
 18035f0:	1085883a 	add	r2,r2,r2
 18035f4:	16c5883a 	add	r2,r2,sp
 18035f8:	11400017 	ldw	r5,0(r2)
 18035fc:	1907c83a 	sub	r3,r3,r4
 1803600:	d9c09317 	ldw	r7,588(sp)
 1803604:	28cdd83a 	sra	r6,r5,r3
 1803608:	010005c4 	movi	r4,23
 180360c:	da809417 	ldw	r10,592(sp)
 1803610:	30c6983a 	sll	r3,r6,r3
 1803614:	21c9c83a 	sub	r4,r4,r7
 1803618:	5195883a 	add	r10,r10,r6
 180361c:	28cbc83a 	sub	r5,r5,r3
 1803620:	2909d83a 	sra	r4,r5,r4
 1803624:	da809415 	stw	r10,592(sp)
 1803628:	11400015 	stw	r5,0(r2)
 180362c:	d9009215 	stw	r4,584(sp)
 1803630:	d9409217 	ldw	r5,584(sp)
 1803634:	0140270e 	bge	zero,r5,18036d4 <__kernel_rem_pio2+0x444>
 1803638:	d9809417 	ldw	r6,592(sp)
 180363c:	d9c08d17 	ldw	r7,564(sp)
 1803640:	31800044 	addi	r6,r6,1
 1803644:	d9809415 	stw	r6,592(sp)
 1803648:	01c1a50e 	bge	zero,r7,1803ce0 <__kernel_rem_pio2+0xa50>
 180364c:	002d883a 	mov	r22,zero
 1803650:	000b883a 	mov	r5,zero
 1803654:	d809883a 	mov	r4,sp
 1803658:	01c04034 	movhi	r7,256
 180365c:	01804034 	movhi	r6,256
 1803660:	31bfffc4 	addi	r6,r6,-1
 1803664:	00000806 	br	1803688 <__kernel_rem_pio2+0x3f8>
 1803668:	38c5c83a 	sub	r2,r7,r3
 180366c:	18000226 	beq	r3,zero,1803678 <__kernel_rem_pio2+0x3e8>
 1803670:	05800044 	movi	r22,1
 1803674:	20800015 	stw	r2,0(r4)
 1803678:	da808d17 	ldw	r10,564(sp)
 180367c:	29400044 	addi	r5,r5,1
 1803680:	21000104 	addi	r4,r4,4
 1803684:	51400926 	beq	r10,r5,18036ac <__kernel_rem_pio2+0x41c>
 1803688:	b004c03a 	cmpne	r2,r22,zero
 180368c:	20c00017 	ldw	r3,0(r4)
 1803690:	103ff526 	beq	r2,zero,1803668 <__kernel_rem_pio2+0x3d8>
 1803694:	da808d17 	ldw	r10,564(sp)
 1803698:	30c5c83a 	sub	r2,r6,r3
 180369c:	29400044 	addi	r5,r5,1
 18036a0:	20800015 	stw	r2,0(r4)
 18036a4:	21000104 	addi	r4,r4,4
 18036a8:	517ff71e 	bne	r10,r5,1803688 <__kernel_rem_pio2+0x3f8>
 18036ac:	d880a017 	ldw	r2,640(sp)
 18036b0:	1000051e 	bne	r2,zero,18036c8 <__kernel_rem_pio2+0x438>
 18036b4:	d8c09317 	ldw	r3,588(sp)
 18036b8:	00800044 	movi	r2,1
 18036bc:	18814e26 	beq	r3,r2,1803bf8 <__kernel_rem_pio2+0x968>
 18036c0:	00800084 	movi	r2,2
 18036c4:	18815826 	beq	r3,r2,1803c28 <__kernel_rem_pio2+0x998>
 18036c8:	d9c09217 	ldw	r7,584(sp)
 18036cc:	00800084 	movi	r2,2
 18036d0:	38806926 	beq	r7,r2,1803878 <__kernel_rem_pio2+0x5e8>
 18036d4:	000d883a 	mov	r6,zero
 18036d8:	000f883a 	mov	r7,zero
 18036dc:	8009883a 	mov	r4,r16
 18036e0:	880b883a 	mov	r5,r17
 18036e4:	1805cb40 	call	1805cb4 <__eqdf2>
 18036e8:	1000811e 	bne	r2,zero,18038f0 <__kernel_rem_pio2+0x660>
 18036ec:	da808d17 	ldw	r10,564(sp)
 18036f0:	d8809517 	ldw	r2,596(sp)
 18036f4:	51bfffc4 	addi	r6,r10,-1
 18036f8:	30800c16 	blt	r6,r2,180372c <__kernel_rem_pio2+0x49c>
 18036fc:	3185883a 	add	r2,r6,r6
 1803700:	1085883a 	add	r2,r2,r2
 1803704:	16c9883a 	add	r4,r2,sp
 1803708:	3007883a 	mov	r3,r6
 180370c:	000b883a 	mov	r5,zero
 1803710:	20800017 	ldw	r2,0(r4)
 1803714:	d9c09517 	ldw	r7,596(sp)
 1803718:	18ffffc4 	addi	r3,r3,-1
 180371c:	213fff04 	addi	r4,r4,-4
 1803720:	288ab03a 	or	r5,r5,r2
 1803724:	19fffa0e 	bge	r3,r7,1803710 <__kernel_rem_pio2+0x480>
 1803728:	2800791e 	bne	r5,zero,1803910 <__kernel_rem_pio2+0x680>
 180372c:	da809917 	ldw	r10,612(sp)
 1803730:	50bfff17 	ldw	r2,-4(r10)
 1803734:	1001511e 	bne	r2,zero,1803c7c <__kernel_rem_pio2+0x9ec>
 1803738:	d880a117 	ldw	r2,644(sp)
 180373c:	01000044 	movi	r4,1
 1803740:	10ffff04 	addi	r3,r2,-4
 1803744:	18ffff04 	addi	r3,r3,-4
 1803748:	18800017 	ldw	r2,0(r3)
 180374c:	21000044 	addi	r4,r4,1
 1803750:	103ffc26 	beq	r2,zero,1803744 <__kernel_rem_pio2+0x4b4>
 1803754:	d8c08d17 	ldw	r3,564(sp)
 1803758:	192f883a 	add	r23,r3,r4
 180375c:	1f000044 	addi	fp,r3,1
 1803760:	bf00020e 	bge	r23,fp,180376c <__kernel_rem_pio2+0x4dc>
 1803764:	ddc08d15 	stw	r23,564(sp)
 1803768:	003f3a06 	br	1803454 <__kernel_rem_pio2+0x1c4>
 180376c:	d9408c17 	ldw	r5,560(sp)
 1803770:	d9009817 	ldw	r4,608(sp)
 1803774:	da80ae17 	ldw	r10,696(sp)
 1803778:	1945883a 	add	r2,r3,r5
 180377c:	190f883a 	add	r7,r3,r4
 1803780:	1085883a 	add	r2,r2,r2
 1803784:	380a90fa 	slli	r5,r7,3
 1803788:	e00c90fa 	slli	r6,fp,3
 180378c:	1085883a 	add	r2,r2,r2
 1803790:	5085883a 	add	r2,r10,r2
 1803794:	d8c01404 	addi	r3,sp,80
 1803798:	d9006404 	addi	r4,sp,400
 180379c:	10800104 	addi	r2,r2,4
 18037a0:	196b883a 	add	r21,r3,r5
 18037a4:	21a1883a 	add	r16,r4,r6
 18037a8:	d8809115 	stw	r2,580(sp)
 18037ac:	d9c09015 	stw	r7,576(sp)
 18037b0:	d8809117 	ldw	r2,580(sp)
 18037b4:	11000017 	ldw	r4,0(r2)
 18037b8:	1805ed40 	call	1805ed4 <__floatsidf>
 18037bc:	a8c00115 	stw	r3,4(r21)
 18037c0:	d8c0a217 	ldw	r3,648(sp)
 18037c4:	a8800015 	stw	r2,0(r21)
 18037c8:	18002826 	beq	r3,zero,180386c <__kernel_rem_pio2+0x5dc>
 18037cc:	d9009017 	ldw	r4,576(sp)
 18037d0:	dd009617 	ldw	r20,600(sp)
 18037d4:	0023883a 	mov	r17,zero
 18037d8:	200490fa 	slli	r2,r4,3
 18037dc:	002d883a 	mov	r22,zero
 18037e0:	0025883a 	mov	r18,zero
 18037e4:	16e7883a 	add	r19,r2,sp
 18037e8:	98801417 	ldw	r2,80(r19)
 18037ec:	98c01517 	ldw	r3,84(r19)
 18037f0:	a1800017 	ldw	r6,0(r20)
 18037f4:	a1c00117 	ldw	r7,4(r20)
 18037f8:	180b883a 	mov	r5,r3
 18037fc:	1009883a 	mov	r4,r2
 1803800:	18056980 	call	1805698 <__muldf3>
 1803804:	180f883a 	mov	r7,r3
 1803808:	900b883a 	mov	r5,r18
 180380c:	8809883a 	mov	r4,r17
 1803810:	100d883a 	mov	r6,r2
 1803814:	18056240 	call	1805624 <__adddf3>
 1803818:	d9409817 	ldw	r5,608(sp)
 180381c:	b5800044 	addi	r22,r22,1
 1803820:	9cfffe04 	addi	r19,r19,-8
 1803824:	1023883a 	mov	r17,r2
 1803828:	1825883a 	mov	r18,r3
 180382c:	a5000204 	addi	r20,r20,8
 1803830:	2dbfed1e 	bne	r5,r22,18037e8 <__kernel_rem_pio2+0x558>
 1803834:	d9809117 	ldw	r6,580(sp)
 1803838:	d9c09017 	ldw	r7,576(sp)
 180383c:	e7000044 	addi	fp,fp,1
 1803840:	31800104 	addi	r6,r6,4
 1803844:	39c00044 	addi	r7,r7,1
 1803848:	84800115 	stw	r18,4(r16)
 180384c:	84400015 	stw	r17,0(r16)
 1803850:	d9809115 	stw	r6,580(sp)
 1803854:	ad400204 	addi	r21,r21,8
 1803858:	84000204 	addi	r16,r16,8
 180385c:	d9c09015 	stw	r7,576(sp)
 1803860:	bf3fd30e 	bge	r23,fp,18037b0 <__kernel_rem_pio2+0x520>
 1803864:	ddc08d15 	stw	r23,564(sp)
 1803868:	003efa06 	br	1803454 <__kernel_rem_pio2+0x1c4>
 180386c:	0023883a 	mov	r17,zero
 1803870:	0025883a 	mov	r18,zero
 1803874:	003fef06 	br	1803834 <__kernel_rem_pio2+0x5a4>
 1803878:	0029883a 	mov	r20,zero
 180387c:	054ffc34 	movhi	r21,16368
 1803880:	880f883a 	mov	r7,r17
 1803884:	800d883a 	mov	r6,r16
 1803888:	a009883a 	mov	r4,r20
 180388c:	a80b883a 	mov	r5,r21
 1803890:	18055a40 	call	18055a4 <__subdf3>
 1803894:	1025883a 	mov	r18,r2
 1803898:	b005003a 	cmpeq	r2,r22,zero
 180389c:	1827883a 	mov	r19,r3
 18038a0:	9021883a 	mov	r16,r18
 18038a4:	1823883a 	mov	r17,r3
 18038a8:	103f8a1e 	bne	r2,zero,18036d4 <__kernel_rem_pio2+0x444>
 18038ac:	d9809317 	ldw	r6,588(sp)
 18038b0:	0009883a 	mov	r4,zero
 18038b4:	a80b883a 	mov	r5,r21
 18038b8:	1804d300 	call	1804d30 <scalbn>
 18038bc:	180f883a 	mov	r7,r3
 18038c0:	9009883a 	mov	r4,r18
 18038c4:	980b883a 	mov	r5,r19
 18038c8:	100d883a 	mov	r6,r2
 18038cc:	18055a40 	call	18055a4 <__subdf3>
 18038d0:	1021883a 	mov	r16,r2
 18038d4:	1823883a 	mov	r17,r3
 18038d8:	000d883a 	mov	r6,zero
 18038dc:	000f883a 	mov	r7,zero
 18038e0:	8009883a 	mov	r4,r16
 18038e4:	880b883a 	mov	r5,r17
 18038e8:	1805cb40 	call	1805cb4 <__eqdf2>
 18038ec:	103f7f26 	beq	r2,zero,18036ec <__kernel_rem_pio2+0x45c>
 18038f0:	000d883a 	mov	r6,zero
 18038f4:	000f883a 	mov	r7,zero
 18038f8:	8009883a 	mov	r4,r16
 18038fc:	880b883a 	mov	r5,r17
 1803900:	1805cb40 	call	1805cb4 <__eqdf2>
 1803904:	10019a1e 	bne	r2,zero,1803f70 <__kernel_rem_pio2+0xce0>
 1803908:	da808d17 	ldw	r10,564(sp)
 180390c:	51bfffc4 	addi	r6,r10,-1
 1803910:	3185883a 	add	r2,r6,r6
 1803914:	1085883a 	add	r2,r2,r2
 1803918:	d9009317 	ldw	r4,588(sp)
 180391c:	16c5883a 	add	r2,r2,sp
 1803920:	10c00017 	ldw	r3,0(r2)
 1803924:	213ffa04 	addi	r4,r4,-24
 1803928:	d9009315 	stw	r4,588(sp)
 180392c:	1801d41e 	bne	r3,zero,1804080 <__kernel_rem_pio2+0xdf0>
 1803930:	d9808d15 	stw	r6,564(sp)
 1803934:	1007883a 	mov	r3,r2
 1803938:	d9408d17 	ldw	r5,564(sp)
 180393c:	d9809317 	ldw	r6,588(sp)
 1803940:	18ffff04 	addi	r3,r3,-4
 1803944:	18800017 	ldw	r2,0(r3)
 1803948:	297fffc4 	addi	r5,r5,-1
 180394c:	31bffa04 	addi	r6,r6,-24
 1803950:	d9408d15 	stw	r5,564(sp)
 1803954:	d9809315 	stw	r6,588(sp)
 1803958:	103ff726 	beq	r2,zero,1803938 <__kernel_rem_pio2+0x6a8>
 180395c:	d9809317 	ldw	r6,588(sp)
 1803960:	0005883a 	mov	r2,zero
 1803964:	00cffc34 	movhi	r3,16368
 1803968:	180b883a 	mov	r5,r3
 180396c:	1009883a 	mov	r4,r2
 1803970:	1804d300 	call	1804d30 <scalbn>
 1803974:	d9808d17 	ldw	r6,564(sp)
 1803978:	1021883a 	mov	r16,r2
 180397c:	1823883a 	mov	r17,r3
 1803980:	30004616 	blt	r6,zero,1803a9c <__kernel_rem_pio2+0x80c>
 1803984:	300690fa 	slli	r3,r6,3
 1803988:	3185883a 	add	r2,r6,r6
 180398c:	1085883a 	add	r2,r2,r2
 1803990:	16e9883a 	add	r20,r2,sp
 1803994:	1ee5883a 	add	r18,r3,sp
 1803998:	3027883a 	mov	r19,r6
 180399c:	057fffc4 	movi	r21,-1
 18039a0:	a1000017 	ldw	r4,0(r20)
 18039a4:	9cffffc4 	addi	r19,r19,-1
 18039a8:	a53fff04 	addi	r20,r20,-4
 18039ac:	1805ed40 	call	1805ed4 <__floatsidf>
 18039b0:	800d883a 	mov	r6,r16
 18039b4:	880f883a 	mov	r7,r17
 18039b8:	180b883a 	mov	r5,r3
 18039bc:	1009883a 	mov	r4,r2
 18039c0:	18056980 	call	1805698 <__muldf3>
 18039c4:	0015883a 	mov	r10,zero
 18039c8:	02cf9c34 	movhi	r11,15984
 18039cc:	880b883a 	mov	r5,r17
 18039d0:	8009883a 	mov	r4,r16
 18039d4:	90c06515 	stw	r3,404(r18)
 18039d8:	90806415 	stw	r2,400(r18)
 18039dc:	580f883a 	mov	r7,r11
 18039e0:	500d883a 	mov	r6,r10
 18039e4:	18056980 	call	1805698 <__muldf3>
 18039e8:	1021883a 	mov	r16,r2
 18039ec:	1823883a 	mov	r17,r3
 18039f0:	94bffe04 	addi	r18,r18,-8
 18039f4:	9d7fea1e 	bne	r19,r21,18039a0 <__kernel_rem_pio2+0x710>
 18039f8:	d9c09517 	ldw	r7,596(sp)
 18039fc:	dd808d17 	ldw	r22,564(sp)
 1803a00:	002b883a 	mov	r21,zero
 1803a04:	382e403a 	cmpge	r23,r7,zero
 1803a08:	b800aa26 	beq	r23,zero,1803cb4 <__kernel_rem_pio2+0xa24>
 1803a0c:	a800a916 	blt	r21,zero,1803cb4 <__kernel_rem_pio2+0xa24>
 1803a10:	b00690fa 	slli	r3,r22,3
 1803a14:	d8806404 	addi	r2,sp,400
 1803a18:	0021883a 	mov	r16,zero
 1803a1c:	10e9883a 	add	r20,r2,r3
 1803a20:	0027883a 	mov	r19,zero
 1803a24:	0023883a 	mov	r17,zero
 1803a28:	048060b4 	movhi	r18,386
 1803a2c:	94bac404 	addi	r18,r18,-5360
 1803a30:	00000106 	br	1803a38 <__kernel_rem_pio2+0x7a8>
 1803a34:	acc01116 	blt	r21,r19,1803a7c <__kernel_rem_pio2+0x7ec>
 1803a38:	91000017 	ldw	r4,0(r18)
 1803a3c:	91400117 	ldw	r5,4(r18)
 1803a40:	a1800017 	ldw	r6,0(r20)
 1803a44:	a1c00117 	ldw	r7,4(r20)
 1803a48:	9cc00044 	addi	r19,r19,1
 1803a4c:	94800204 	addi	r18,r18,8
 1803a50:	18056980 	call	1805698 <__muldf3>
 1803a54:	180f883a 	mov	r7,r3
 1803a58:	880b883a 	mov	r5,r17
 1803a5c:	8009883a 	mov	r4,r16
 1803a60:	100d883a 	mov	r6,r2
 1803a64:	18056240 	call	1805624 <__adddf3>
 1803a68:	da809517 	ldw	r10,596(sp)
 1803a6c:	a5000204 	addi	r20,r20,8
 1803a70:	1021883a 	mov	r16,r2
 1803a74:	1823883a 	mov	r17,r3
 1803a78:	54ffee0e 	bge	r10,r19,1803a34 <__kernel_rem_pio2+0x7a4>
 1803a7c:	a80490fa 	slli	r2,r21,3
 1803a80:	b5bfffc4 	addi	r22,r22,-1
 1803a84:	ad400044 	addi	r21,r21,1
 1803a88:	16c5883a 	add	r2,r2,sp
 1803a8c:	14403d15 	stw	r17,244(r2)
 1803a90:	14003c15 	stw	r16,240(r2)
 1803a94:	00bfffc4 	movi	r2,-1
 1803a98:	b0bfdb1e 	bne	r22,r2,1803a08 <__kernel_rem_pio2+0x778>
 1803a9c:	d8c0ad17 	ldw	r3,692(sp)
 1803aa0:	00800084 	movi	r2,2
 1803aa4:	10c09316 	blt	r2,r3,1803cf4 <__kernel_rem_pio2+0xa64>
 1803aa8:	00c1120e 	bge	zero,r3,1803ef4 <__kernel_rem_pio2+0xc64>
 1803aac:	d9808d17 	ldw	r6,564(sp)
 1803ab0:	30018d16 	blt	r6,zero,18040e8 <__kernel_rem_pio2+0xe58>
 1803ab4:	d8c08d17 	ldw	r3,564(sp)
 1803ab8:	0011883a 	mov	r8,zero
 1803abc:	0013883a 	mov	r9,zero
 1803ac0:	180490fa 	slli	r2,r3,3
 1803ac4:	1823883a 	mov	r17,r3
 1803ac8:	04bfffc4 	movi	r18,-1
 1803acc:	16e1883a 	add	r16,r2,sp
 1803ad0:	80803c17 	ldw	r2,240(r16)
 1803ad4:	80c03d17 	ldw	r3,244(r16)
 1803ad8:	480b883a 	mov	r5,r9
 1803adc:	4009883a 	mov	r4,r8
 1803ae0:	180f883a 	mov	r7,r3
 1803ae4:	100d883a 	mov	r6,r2
 1803ae8:	18056240 	call	1805624 <__adddf3>
 1803aec:	8c7fffc4 	addi	r17,r17,-1
 1803af0:	843ffe04 	addi	r16,r16,-8
 1803af4:	1011883a 	mov	r8,r2
 1803af8:	1813883a 	mov	r9,r3
 1803afc:	8cbff41e 	bne	r17,r18,1803ad0 <__kernel_rem_pio2+0x840>
 1803b00:	d9009217 	ldw	r4,584(sp)
 1803b04:	20015b1e 	bne	r4,zero,1804074 <__kernel_rem_pio2+0xde4>
 1803b08:	4009883a 	mov	r4,r8
 1803b0c:	480b883a 	mov	r5,r9
 1803b10:	d9809717 	ldw	r6,604(sp)
 1803b14:	d8803c17 	ldw	r2,240(sp)
 1803b18:	480f883a 	mov	r7,r9
 1803b1c:	31400115 	stw	r5,4(r6)
 1803b20:	31000015 	stw	r4,0(r6)
 1803b24:	d8c03d17 	ldw	r3,244(sp)
 1803b28:	400d883a 	mov	r6,r8
 1803b2c:	1009883a 	mov	r4,r2
 1803b30:	180b883a 	mov	r5,r3
 1803b34:	18055a40 	call	18055a4 <__subdf3>
 1803b38:	d9c08d17 	ldw	r7,564(sp)
 1803b3c:	1011883a 	mov	r8,r2
 1803b40:	1813883a 	mov	r9,r3
 1803b44:	01c00d0e 	bge	zero,r7,1803b7c <__kernel_rem_pio2+0x8ec>
 1803b48:	0023883a 	mov	r17,zero
 1803b4c:	dc003e04 	addi	r16,sp,248
 1803b50:	81800017 	ldw	r6,0(r16)
 1803b54:	81c00117 	ldw	r7,4(r16)
 1803b58:	480b883a 	mov	r5,r9
 1803b5c:	4009883a 	mov	r4,r8
 1803b60:	18056240 	call	1805624 <__adddf3>
 1803b64:	da808d17 	ldw	r10,564(sp)
 1803b68:	8c400044 	addi	r17,r17,1
 1803b6c:	1011883a 	mov	r8,r2
 1803b70:	1813883a 	mov	r9,r3
 1803b74:	84000204 	addi	r16,r16,8
 1803b78:	8abff51e 	bne	r17,r10,1803b50 <__kernel_rem_pio2+0x8c0>
 1803b7c:	d8809217 	ldw	r2,584(sp)
 1803b80:	10000226 	beq	r2,zero,1803b8c <__kernel_rem_pio2+0x8fc>
 1803b84:	48e0003c 	xorhi	r3,r9,32768
 1803b88:	1813883a 	mov	r9,r3
 1803b8c:	d8c09717 	ldw	r3,604(sp)
 1803b90:	1a400315 	stw	r9,12(r3)
 1803b94:	1a000215 	stw	r8,8(r3)
 1803b98:	d8c09417 	ldw	r3,592(sp)
 1803b9c:	188001cc 	andi	r2,r3,7
 1803ba0:	dfc0ac17 	ldw	ra,688(sp)
 1803ba4:	df00ab17 	ldw	fp,684(sp)
 1803ba8:	ddc0aa17 	ldw	r23,680(sp)
 1803bac:	dd80a917 	ldw	r22,676(sp)
 1803bb0:	dd40a817 	ldw	r21,672(sp)
 1803bb4:	dd00a717 	ldw	r20,668(sp)
 1803bb8:	dcc0a617 	ldw	r19,664(sp)
 1803bbc:	dc80a517 	ldw	r18,660(sp)
 1803bc0:	dc40a417 	ldw	r17,656(sp)
 1803bc4:	dc00a317 	ldw	r16,652(sp)
 1803bc8:	dec0ad04 	addi	sp,sp,692
 1803bcc:	f800283a 	ret
 1803bd0:	d8809317 	ldw	r2,588(sp)
 1803bd4:	10001f1e 	bne	r2,zero,1803c54 <__kernel_rem_pio2+0x9c4>
 1803bd8:	d8c08d17 	ldw	r3,564(sp)
 1803bdc:	18c5883a 	add	r2,r3,r3
 1803be0:	1085883a 	add	r2,r2,r2
 1803be4:	16c5883a 	add	r2,r2,sp
 1803be8:	10ffff17 	ldw	r3,-4(r2)
 1803bec:	1807d5fa 	srai	r3,r3,23
 1803bf0:	d8c09215 	stw	r3,584(sp)
 1803bf4:	003e8e06 	br	1803630 <__kernel_rem_pio2+0x3a0>
 1803bf8:	d9008d17 	ldw	r4,564(sp)
 1803bfc:	d9409317 	ldw	r5,588(sp)
 1803c00:	2145c83a 	sub	r2,r4,r5
 1803c04:	1085883a 	add	r2,r2,r2
 1803c08:	1085883a 	add	r2,r2,r2
 1803c0c:	16c5883a 	add	r2,r2,sp
 1803c10:	10c00017 	ldw	r3,0(r2)
 1803c14:	01002034 	movhi	r4,128
 1803c18:	213fffc4 	addi	r4,r4,-1
 1803c1c:	1906703a 	and	r3,r3,r4
 1803c20:	10c00015 	stw	r3,0(r2)
 1803c24:	003ea806 	br	18036c8 <__kernel_rem_pio2+0x438>
 1803c28:	d9808d17 	ldw	r6,564(sp)
 1803c2c:	01001034 	movhi	r4,64
 1803c30:	213fffc4 	addi	r4,r4,-1
 1803c34:	30bfffc4 	addi	r2,r6,-1
 1803c38:	1085883a 	add	r2,r2,r2
 1803c3c:	1085883a 	add	r2,r2,r2
 1803c40:	16c5883a 	add	r2,r2,sp
 1803c44:	10c00017 	ldw	r3,0(r2)
 1803c48:	1906703a 	and	r3,r3,r4
 1803c4c:	10c00015 	stw	r3,0(r2)
 1803c50:	003e9d06 	br	18036c8 <__kernel_rem_pio2+0x438>
 1803c54:	0005883a 	mov	r2,zero
 1803c58:	00cff834 	movhi	r3,16352
 1803c5c:	300b883a 	mov	r5,r6
 1803c60:	180f883a 	mov	r7,r3
 1803c64:	8009883a 	mov	r4,r16
 1803c68:	100d883a 	mov	r6,r2
 1803c6c:	1805dc40 	call	1805dc4 <__gedf2>
 1803c70:	10001d0e 	bge	r2,zero,1803ce8 <__kernel_rem_pio2+0xa58>
 1803c74:	d8009215 	stw	zero,584(sp)
 1803c78:	003e9606 	br	18036d4 <__kernel_rem_pio2+0x444>
 1803c7c:	d8c08d17 	ldw	r3,564(sp)
 1803c80:	01000044 	movi	r4,1
 1803c84:	192f883a 	add	r23,r3,r4
 1803c88:	1f000044 	addi	fp,r3,1
 1803c8c:	bf3eb516 	blt	r23,fp,1803764 <__kernel_rem_pio2+0x4d4>
 1803c90:	003eb606 	br	180376c <__kernel_rem_pio2+0x4dc>
 1803c94:	0021883a 	mov	r16,zero
 1803c98:	0023883a 	mov	r17,zero
 1803c9c:	a5000044 	addi	r20,r20,1
 1803ca0:	ac400115 	stw	r17,4(r21)
 1803ca4:	ac000015 	stw	r16,0(r21)
 1803ca8:	ad400204 	addi	r21,r21,8
 1803cac:	a5fdba1e 	bne	r20,r23,1803398 <__kernel_rem_pio2+0x108>
 1803cb0:	003dd806 	br	1803414 <__kernel_rem_pio2+0x184>
 1803cb4:	a80490fa 	slli	r2,r21,3
 1803cb8:	0021883a 	mov	r16,zero
 1803cbc:	0023883a 	mov	r17,zero
 1803cc0:	16c5883a 	add	r2,r2,sp
 1803cc4:	14403d15 	stw	r17,244(r2)
 1803cc8:	14003c15 	stw	r16,240(r2)
 1803ccc:	b5bfffc4 	addi	r22,r22,-1
 1803cd0:	00bfffc4 	movi	r2,-1
 1803cd4:	ad400044 	addi	r21,r21,1
 1803cd8:	b0bf4b1e 	bne	r22,r2,1803a08 <__kernel_rem_pio2+0x778>
 1803cdc:	003f6f06 	br	1803a9c <__kernel_rem_pio2+0x80c>
 1803ce0:	002d883a 	mov	r22,zero
 1803ce4:	003e7106 	br	18036ac <__kernel_rem_pio2+0x41c>
 1803ce8:	01000084 	movi	r4,2
 1803cec:	d9009215 	stw	r4,584(sp)
 1803cf0:	003e5106 	br	1803638 <__kernel_rem_pio2+0x3a8>
 1803cf4:	d900ad17 	ldw	r4,692(sp)
 1803cf8:	008000c4 	movi	r2,3
 1803cfc:	20bfa61e 	bne	r4,r2,1803b98 <__kernel_rem_pio2+0x908>
 1803d00:	d9c08d17 	ldw	r7,564(sp)
 1803d04:	01c02c0e 	bge	zero,r7,1803db8 <__kernel_rem_pio2+0xb28>
 1803d08:	3805883a 	mov	r2,r7
 1803d0c:	00000106 	br	1803d14 <__kernel_rem_pio2+0xa84>
 1803d10:	d8808e17 	ldw	r2,568(sp)
 1803d14:	113fffc4 	addi	r4,r2,-1
 1803d18:	100690fa 	slli	r3,r2,3
 1803d1c:	200490fa 	slli	r2,r4,3
 1803d20:	d9008e15 	stw	r4,568(sp)
 1803d24:	1ef9883a 	add	fp,r3,sp
 1803d28:	16c5883a 	add	r2,r2,sp
 1803d2c:	d8809a15 	stw	r2,616(sp)
 1803d30:	11403c04 	addi	r5,r2,240
 1803d34:	e1803c04 	addi	r6,fp,240
 1803d38:	14003c17 	ldw	r16,240(r2)
 1803d3c:	e5003c17 	ldw	r20,240(fp)
 1803d40:	d9409b15 	stw	r5,620(sp)
 1803d44:	d9809c15 	stw	r6,624(sp)
 1803d48:	35400117 	ldw	r21,4(r6)
 1803d4c:	2c400117 	ldw	r17,4(r5)
 1803d50:	8009883a 	mov	r4,r16
 1803d54:	a00d883a 	mov	r6,r20
 1803d58:	880b883a 	mov	r5,r17
 1803d5c:	a80f883a 	mov	r7,r21
 1803d60:	18056240 	call	1805624 <__adddf3>
 1803d64:	100d883a 	mov	r6,r2
 1803d68:	880b883a 	mov	r5,r17
 1803d6c:	8009883a 	mov	r4,r16
 1803d70:	180f883a 	mov	r7,r3
 1803d74:	1025883a 	mov	r18,r2
 1803d78:	1827883a 	mov	r19,r3
 1803d7c:	18055a40 	call	18055a4 <__subdf3>
 1803d80:	180f883a 	mov	r7,r3
 1803d84:	a80b883a 	mov	r5,r21
 1803d88:	a009883a 	mov	r4,r20
 1803d8c:	100d883a 	mov	r6,r2
 1803d90:	18056240 	call	1805624 <__adddf3>
 1803d94:	e0803c15 	stw	r2,240(fp)
 1803d98:	d9c09c17 	ldw	r7,624(sp)
 1803d9c:	38c00115 	stw	r3,4(r7)
 1803da0:	da809a17 	ldw	r10,616(sp)
 1803da4:	54803c15 	stw	r18,240(r10)
 1803da8:	d8809b17 	ldw	r2,620(sp)
 1803dac:	14c00115 	stw	r19,4(r2)
 1803db0:	d8c08e17 	ldw	r3,568(sp)
 1803db4:	183fd61e 	bne	r3,zero,1803d10 <__kernel_rem_pio2+0xa80>
 1803db8:	d9008d17 	ldw	r4,564(sp)
 1803dbc:	00800044 	movi	r2,1
 1803dc0:	1100cc0e 	bge	r2,r4,18040f4 <__kernel_rem_pio2+0xe64>
 1803dc4:	d8808d17 	ldw	r2,564(sp)
 1803dc8:	117fffc4 	addi	r5,r2,-1
 1803dcc:	100690fa 	slli	r3,r2,3
 1803dd0:	280490fa 	slli	r2,r5,3
 1803dd4:	d9408f15 	stw	r5,572(sp)
 1803dd8:	1ef9883a 	add	fp,r3,sp
 1803ddc:	16c5883a 	add	r2,r2,sp
 1803de0:	d8809d15 	stw	r2,628(sp)
 1803de4:	11803c04 	addi	r6,r2,240
 1803de8:	e1c03c04 	addi	r7,fp,240
 1803dec:	14003c17 	ldw	r16,240(r2)
 1803df0:	e5003c17 	ldw	r20,240(fp)
 1803df4:	d9809e15 	stw	r6,632(sp)
 1803df8:	d9c09f15 	stw	r7,636(sp)
 1803dfc:	34400117 	ldw	r17,4(r6)
 1803e00:	3d400117 	ldw	r21,4(r7)
 1803e04:	8009883a 	mov	r4,r16
 1803e08:	880b883a 	mov	r5,r17
 1803e0c:	a00d883a 	mov	r6,r20
 1803e10:	a80f883a 	mov	r7,r21
 1803e14:	18056240 	call	1805624 <__adddf3>
 1803e18:	100d883a 	mov	r6,r2
 1803e1c:	880b883a 	mov	r5,r17
 1803e20:	8009883a 	mov	r4,r16
 1803e24:	180f883a 	mov	r7,r3
 1803e28:	1025883a 	mov	r18,r2
 1803e2c:	1827883a 	mov	r19,r3
 1803e30:	18055a40 	call	18055a4 <__subdf3>
 1803e34:	180f883a 	mov	r7,r3
 1803e38:	a80b883a 	mov	r5,r21
 1803e3c:	a009883a 	mov	r4,r20
 1803e40:	100d883a 	mov	r6,r2
 1803e44:	18056240 	call	1805624 <__adddf3>
 1803e48:	e0803c15 	stw	r2,240(fp)
 1803e4c:	da809f17 	ldw	r10,636(sp)
 1803e50:	50c00115 	stw	r3,4(r10)
 1803e54:	d8c09d17 	ldw	r3,628(sp)
 1803e58:	d8808f17 	ldw	r2,572(sp)
 1803e5c:	1c803c15 	stw	r18,240(r3)
 1803e60:	d9009e17 	ldw	r4,632(sp)
 1803e64:	00c00044 	movi	r3,1
 1803e68:	24c00115 	stw	r19,4(r4)
 1803e6c:	d9408f17 	ldw	r5,572(sp)
 1803e70:	28ffd51e 	bne	r5,r3,1803dc8 <__kernel_rem_pio2+0xb38>
 1803e74:	dc008d17 	ldw	r16,564(sp)
 1803e78:	0011883a 	mov	r8,zero
 1803e7c:	1825883a 	mov	r18,r3
 1803e80:	800490fa 	slli	r2,r16,3
 1803e84:	0013883a 	mov	r9,zero
 1803e88:	16e3883a 	add	r17,r2,sp
 1803e8c:	88803c17 	ldw	r2,240(r17)
 1803e90:	88c03d17 	ldw	r3,244(r17)
 1803e94:	480b883a 	mov	r5,r9
 1803e98:	4009883a 	mov	r4,r8
 1803e9c:	180f883a 	mov	r7,r3
 1803ea0:	100d883a 	mov	r6,r2
 1803ea4:	18056240 	call	1805624 <__adddf3>
 1803ea8:	843fffc4 	addi	r16,r16,-1
 1803eac:	8c7ffe04 	addi	r17,r17,-8
 1803eb0:	1011883a 	mov	r8,r2
 1803eb4:	1813883a 	mov	r9,r3
 1803eb8:	84bff41e 	bne	r16,r18,1803e8c <__kernel_rem_pio2+0xbfc>
 1803ebc:	d9809217 	ldw	r6,584(sp)
 1803ec0:	30007a1e 	bne	r6,zero,18040ac <__kernel_rem_pio2+0xe1c>
 1803ec4:	d9c09717 	ldw	r7,604(sp)
 1803ec8:	d8803c17 	ldw	r2,240(sp)
 1803ecc:	d9003e17 	ldw	r4,248(sp)
 1803ed0:	3a400515 	stw	r9,20(r7)
 1803ed4:	d8c03d17 	ldw	r3,244(sp)
 1803ed8:	d9403f17 	ldw	r5,252(sp)
 1803edc:	3a000415 	stw	r8,16(r7)
 1803ee0:	38c00115 	stw	r3,4(r7)
 1803ee4:	39400315 	stw	r5,12(r7)
 1803ee8:	38800015 	stw	r2,0(r7)
 1803eec:	39000215 	stw	r4,8(r7)
 1803ef0:	003f2906 	br	1803b98 <__kernel_rem_pio2+0x908>
 1803ef4:	183f281e 	bne	r3,zero,1803b98 <__kernel_rem_pio2+0x908>
 1803ef8:	d9408d17 	ldw	r5,564(sp)
 1803efc:	28008016 	blt	r5,zero,1804100 <__kernel_rem_pio2+0xe70>
 1803f00:	dc008d17 	ldw	r16,564(sp)
 1803f04:	000d883a 	mov	r6,zero
 1803f08:	000f883a 	mov	r7,zero
 1803f0c:	800490fa 	slli	r2,r16,3
 1803f10:	04bfffc4 	movi	r18,-1
 1803f14:	16e3883a 	add	r17,r2,sp
 1803f18:	88803c17 	ldw	r2,240(r17)
 1803f1c:	88c03d17 	ldw	r3,244(r17)
 1803f20:	380b883a 	mov	r5,r7
 1803f24:	3009883a 	mov	r4,r6
 1803f28:	180f883a 	mov	r7,r3
 1803f2c:	100d883a 	mov	r6,r2
 1803f30:	18056240 	call	1805624 <__adddf3>
 1803f34:	843fffc4 	addi	r16,r16,-1
 1803f38:	8c7ffe04 	addi	r17,r17,-8
 1803f3c:	100d883a 	mov	r6,r2
 1803f40:	180f883a 	mov	r7,r3
 1803f44:	84bff41e 	bne	r16,r18,1803f18 <__kernel_rem_pio2+0xc88>
 1803f48:	da809217 	ldw	r10,584(sp)
 1803f4c:	50000226 	beq	r10,zero,1803f58 <__kernel_rem_pio2+0xcc8>
 1803f50:	38e0003c 	xorhi	r3,r7,32768
 1803f54:	180f883a 	mov	r7,r3
 1803f58:	d8809717 	ldw	r2,604(sp)
 1803f5c:	11c00115 	stw	r7,4(r2)
 1803f60:	11800015 	stw	r6,0(r2)
 1803f64:	003f0c06 	br	1803b98 <__kernel_rem_pio2+0x908>
 1803f68:	d8008c15 	stw	zero,560(sp)
 1803f6c:	003ce606 	br	1803308 <__kernel_rem_pio2+0x78>
 1803f70:	d9c09317 	ldw	r7,588(sp)
 1803f74:	880b883a 	mov	r5,r17
 1803f78:	8009883a 	mov	r4,r16
 1803f7c:	01cdc83a 	sub	r6,zero,r7
 1803f80:	1804d300 	call	1804d30 <scalbn>
 1803f84:	0011883a 	mov	r8,zero
 1803f88:	02505c34 	movhi	r9,16752
 1803f8c:	480f883a 	mov	r7,r9
 1803f90:	1009883a 	mov	r4,r2
 1803f94:	180b883a 	mov	r5,r3
 1803f98:	400d883a 	mov	r6,r8
 1803f9c:	102d883a 	mov	r22,r2
 1803fa0:	182f883a 	mov	r23,r3
 1803fa4:	1805dc40 	call	1805dc4 <__gedf2>
 1803fa8:	10003716 	blt	r2,zero,1804088 <__kernel_rem_pio2+0xdf8>
 1803fac:	0005883a 	mov	r2,zero
 1803fb0:	00cf9c34 	movhi	r3,15984
 1803fb4:	180f883a 	mov	r7,r3
 1803fb8:	100d883a 	mov	r6,r2
 1803fbc:	b009883a 	mov	r4,r22
 1803fc0:	b80b883a 	mov	r5,r23
 1803fc4:	18056980 	call	1805698 <__muldf3>
 1803fc8:	180b883a 	mov	r5,r3
 1803fcc:	1009883a 	mov	r4,r2
 1803fd0:	1805fcc0 	call	1805fcc <__fixdfsi>
 1803fd4:	1009883a 	mov	r4,r2
 1803fd8:	1805ed40 	call	1805ed4 <__floatsidf>
 1803fdc:	da808d17 	ldw	r10,564(sp)
 1803fe0:	1023883a 	mov	r17,r2
 1803fe4:	1825883a 	mov	r18,r3
 1803fe8:	0005883a 	mov	r2,zero
 1803fec:	00f05c34 	movhi	r3,49520
 1803ff0:	180f883a 	mov	r7,r3
 1803ff4:	8809883a 	mov	r4,r17
 1803ff8:	900b883a 	mov	r5,r18
 1803ffc:	100d883a 	mov	r6,r2
 1804000:	52ab883a 	add	r21,r10,r10
 1804004:	18056980 	call	1805698 <__muldf3>
 1804008:	180f883a 	mov	r7,r3
 180400c:	b80b883a 	mov	r5,r23
 1804010:	100d883a 	mov	r6,r2
 1804014:	b009883a 	mov	r4,r22
 1804018:	18056240 	call	1805624 <__adddf3>
 180401c:	100d883a 	mov	r6,r2
 1804020:	d8808d17 	ldw	r2,564(sp)
 1804024:	180b883a 	mov	r5,r3
 1804028:	3009883a 	mov	r4,r6
 180402c:	10800044 	addi	r2,r2,1
 1804030:	ad6b883a 	add	r21,r21,r21
 1804034:	d8808d15 	stw	r2,564(sp)
 1804038:	1805fcc0 	call	1805fcc <__fixdfsi>
 180403c:	d8c08d17 	ldw	r3,564(sp)
 1804040:	aeeb883a 	add	r21,r21,sp
 1804044:	8809883a 	mov	r4,r17
 1804048:	900b883a 	mov	r5,r18
 180404c:	a8800015 	stw	r2,0(r21)
 1804050:	18e1883a 	add	r16,r3,r3
 1804054:	1805fcc0 	call	1805fcc <__fixdfsi>
 1804058:	d9009317 	ldw	r4,588(sp)
 180405c:	8421883a 	add	r16,r16,r16
 1804060:	86e1883a 	add	r16,r16,sp
 1804064:	21000604 	addi	r4,r4,24
 1804068:	d9009315 	stw	r4,588(sp)
 180406c:	80800015 	stw	r2,0(r16)
 1804070:	003e3a06 	br	180395c <__kernel_rem_pio2+0x6cc>
 1804074:	4009883a 	mov	r4,r8
 1804078:	4960003c 	xorhi	r5,r9,32768
 180407c:	003ea406 	br	1803b10 <__kernel_rem_pio2+0x880>
 1804080:	d9808d15 	stw	r6,564(sp)
 1804084:	003e3506 	br	180395c <__kernel_rem_pio2+0x6cc>
 1804088:	d9408d17 	ldw	r5,564(sp)
 180408c:	b009883a 	mov	r4,r22
 1804090:	2961883a 	add	r16,r5,r5
 1804094:	8421883a 	add	r16,r16,r16
 1804098:	b80b883a 	mov	r5,r23
 180409c:	86e1883a 	add	r16,r16,sp
 18040a0:	1805fcc0 	call	1805fcc <__fixdfsi>
 18040a4:	80800015 	stw	r2,0(r16)
 18040a8:	003e2c06 	br	180395c <__kernel_rem_pio2+0x6cc>
 18040ac:	d8c03d17 	ldw	r3,244(sp)
 18040b0:	d9403f17 	ldw	r5,252(sp)
 18040b4:	da809717 	ldw	r10,604(sp)
 18040b8:	d8803c17 	ldw	r2,240(sp)
 18040bc:	d9003e17 	ldw	r4,248(sp)
 18040c0:	49e0003c 	xorhi	r7,r9,32768
 18040c4:	51c00515 	stw	r7,20(r10)
 18040c8:	19a0003c 	xorhi	r6,r3,32768
 18040cc:	29e0003c 	xorhi	r7,r5,32768
 18040d0:	51800115 	stw	r6,4(r10)
 18040d4:	51c00315 	stw	r7,12(r10)
 18040d8:	50800015 	stw	r2,0(r10)
 18040dc:	51000215 	stw	r4,8(r10)
 18040e0:	52000415 	stw	r8,16(r10)
 18040e4:	003eac06 	br	1803b98 <__kernel_rem_pio2+0x908>
 18040e8:	0011883a 	mov	r8,zero
 18040ec:	0013883a 	mov	r9,zero
 18040f0:	003e8306 	br	1803b00 <__kernel_rem_pio2+0x870>
 18040f4:	0011883a 	mov	r8,zero
 18040f8:	0013883a 	mov	r9,zero
 18040fc:	003f6f06 	br	1803ebc <__kernel_rem_pio2+0xc2c>
 1804100:	000d883a 	mov	r6,zero
 1804104:	000f883a 	mov	r7,zero
 1804108:	003f8f06 	br	1803f48 <__kernel_rem_pio2+0xcb8>

0180410c <__kernel_sin>:
 180410c:	00a00034 	movhi	r2,32768
 1804110:	10bfffc4 	addi	r2,r2,-1
 1804114:	deffef04 	addi	sp,sp,-68
 1804118:	1144703a 	and	r2,r2,r5
 180411c:	00cf9034 	movhi	r3,15936
 1804120:	18ffffc4 	addi	r3,r3,-1
 1804124:	dd400d15 	stw	r21,52(sp)
 1804128:	dd000c15 	stw	r20,48(sp)
 180412c:	dfc01015 	stw	ra,64(sp)
 1804130:	ddc00f15 	stw	r23,60(sp)
 1804134:	dd800e15 	stw	r22,56(sp)
 1804138:	dcc00b15 	stw	r19,44(sp)
 180413c:	dc800a15 	stw	r18,40(sp)
 1804140:	dc400915 	stw	r17,36(sp)
 1804144:	dc000815 	stw	r16,32(sp)
 1804148:	2029883a 	mov	r20,r4
 180414c:	282b883a 	mov	r21,r5
 1804150:	d9800415 	stw	r6,16(sp)
 1804154:	d9c00515 	stw	r7,20(sp)
 1804158:	18800216 	blt	r3,r2,1804164 <__kernel_sin+0x58>
 180415c:	1805fcc0 	call	1805fcc <__fixdfsi>
 1804160:	10008826 	beq	r2,zero,1804384 <__kernel_sin+0x278>
 1804164:	a009883a 	mov	r4,r20
 1804168:	a80b883a 	mov	r5,r21
 180416c:	a00d883a 	mov	r6,r20
 1804170:	a80f883a 	mov	r7,r21
 1804174:	18056980 	call	1805698 <__muldf3>
 1804178:	102d883a 	mov	r22,r2
 180417c:	a009883a 	mov	r4,r20
 1804180:	a80b883a 	mov	r5,r21
 1804184:	b00d883a 	mov	r6,r22
 1804188:	180f883a 	mov	r7,r3
 180418c:	182f883a 	mov	r23,r3
 1804190:	d8800215 	stw	r2,8(sp)
 1804194:	d8c00315 	stw	r3,12(sp)
 1804198:	18056980 	call	1805698 <__muldf3>
 180419c:	d9000217 	ldw	r4,8(sp)
 18041a0:	0216b434 	movhi	r8,23248
 18041a4:	42355f04 	addi	r8,r8,-10884
 18041a8:	024f79b4 	movhi	r9,15846
 18041ac:	4a764e84 	addi	r9,r9,-9926
 18041b0:	480f883a 	mov	r7,r9
 18041b4:	400d883a 	mov	r6,r8
 18041b8:	b80b883a 	mov	r5,r23
 18041bc:	d8800615 	stw	r2,24(sp)
 18041c0:	d8c00715 	stw	r3,28(sp)
 18041c4:	18056980 	call	1805698 <__muldf3>
 18041c8:	02228b34 	movhi	r8,35372
 18041cc:	42273ac4 	addi	r8,r8,-25365
 18041d0:	024f96f4 	movhi	r9,15963
 18041d4:	4a797984 	addi	r9,r9,-6682
 18041d8:	480f883a 	mov	r7,r9
 18041dc:	400d883a 	mov	r6,r8
 18041e0:	180b883a 	mov	r5,r3
 18041e4:	1009883a 	mov	r4,r2
 18041e8:	18055a40 	call	18055a4 <__subdf3>
 18041ec:	d9000217 	ldw	r4,8(sp)
 18041f0:	180f883a 	mov	r7,r3
 18041f4:	b80b883a 	mov	r5,r23
 18041f8:	100d883a 	mov	r6,r2
 18041fc:	18056980 	call	1805698 <__muldf3>
 1804200:	0215ecb4 	movhi	r8,22450
 1804204:	423f9f44 	addi	r8,r8,-387
 1804208:	024fb1f4 	movhi	r9,16071
 180420c:	4a4778c4 	addi	r9,r9,7651
 1804210:	480f883a 	mov	r7,r9
 1804214:	400d883a 	mov	r6,r8
 1804218:	180b883a 	mov	r5,r3
 180421c:	1009883a 	mov	r4,r2
 1804220:	18056240 	call	1805624 <__adddf3>
 1804224:	d9000217 	ldw	r4,8(sp)
 1804228:	180f883a 	mov	r7,r3
 180422c:	b80b883a 	mov	r5,r23
 1804230:	100d883a 	mov	r6,r2
 1804234:	18056980 	call	1805698 <__muldf3>
 1804238:	02067074 	movhi	r8,6593
 180423c:	42187544 	addi	r8,r8,25045
 1804240:	024fcab4 	movhi	r9,16170
 1804244:	4a406804 	addi	r9,r9,416
 1804248:	480f883a 	mov	r7,r9
 180424c:	400d883a 	mov	r6,r8
 1804250:	180b883a 	mov	r5,r3
 1804254:	1009883a 	mov	r4,r2
 1804258:	18055a40 	call	18055a4 <__subdf3>
 180425c:	d9000217 	ldw	r4,8(sp)
 1804260:	180f883a 	mov	r7,r3
 1804264:	b80b883a 	mov	r5,r23
 1804268:	100d883a 	mov	r6,r2
 180426c:	18056980 	call	1805698 <__muldf3>
 1804270:	02044474 	movhi	r8,4369
 1804274:	423e2984 	addi	r8,r8,-1882
 1804278:	024fe074 	movhi	r9,16257
 180427c:	4a444444 	addi	r9,r9,4369
 1804280:	180b883a 	mov	r5,r3
 1804284:	480f883a 	mov	r7,r9
 1804288:	1009883a 	mov	r4,r2
 180428c:	400d883a 	mov	r6,r8
 1804290:	18056240 	call	1805624 <__adddf3>
 1804294:	1021883a 	mov	r16,r2
 1804298:	d8800617 	ldw	r2,24(sp)
 180429c:	1823883a 	mov	r17,r3
 18042a0:	d8800015 	stw	r2,0(sp)
 18042a4:	d8800717 	ldw	r2,28(sp)
 18042a8:	d8800115 	stw	r2,4(sp)
 18042ac:	d8801117 	ldw	r2,68(sp)
 18042b0:	10004126 	beq	r2,zero,18043b8 <__kernel_sin+0x2ac>
 18042b4:	d9000417 	ldw	r4,16(sp)
 18042b8:	d9400517 	ldw	r5,20(sp)
 18042bc:	0005883a 	mov	r2,zero
 18042c0:	00cff834 	movhi	r3,16352
 18042c4:	180f883a 	mov	r7,r3
 18042c8:	100d883a 	mov	r6,r2
 18042cc:	18056980 	call	1805698 <__muldf3>
 18042d0:	d9000017 	ldw	r4,0(sp)
 18042d4:	d9400717 	ldw	r5,28(sp)
 18042d8:	800d883a 	mov	r6,r16
 18042dc:	880f883a 	mov	r7,r17
 18042e0:	1021883a 	mov	r16,r2
 18042e4:	1823883a 	mov	r17,r3
 18042e8:	18056980 	call	1805698 <__muldf3>
 18042ec:	180f883a 	mov	r7,r3
 18042f0:	880b883a 	mov	r5,r17
 18042f4:	8009883a 	mov	r4,r16
 18042f8:	100d883a 	mov	r6,r2
 18042fc:	18055a40 	call	18055a4 <__subdf3>
 1804300:	d9000217 	ldw	r4,8(sp)
 1804304:	b80b883a 	mov	r5,r23
 1804308:	180f883a 	mov	r7,r3
 180430c:	100d883a 	mov	r6,r2
 1804310:	18056980 	call	1805698 <__muldf3>
 1804314:	d9c00517 	ldw	r7,20(sp)
 1804318:	d9800417 	ldw	r6,16(sp)
 180431c:	180b883a 	mov	r5,r3
 1804320:	1009883a 	mov	r4,r2
 1804324:	18055a40 	call	18055a4 <__subdf3>
 1804328:	d9000017 	ldw	r4,0(sp)
 180432c:	d9400717 	ldw	r5,28(sp)
 1804330:	02155574 	movhi	r8,21845
 1804334:	42155244 	addi	r8,r8,21833
 1804338:	024ff174 	movhi	r9,16325
 180433c:	4a555544 	addi	r9,r9,21845
 1804340:	480f883a 	mov	r7,r9
 1804344:	400d883a 	mov	r6,r8
 1804348:	1021883a 	mov	r16,r2
 180434c:	1823883a 	mov	r17,r3
 1804350:	18056980 	call	1805698 <__muldf3>
 1804354:	180f883a 	mov	r7,r3
 1804358:	880b883a 	mov	r5,r17
 180435c:	8009883a 	mov	r4,r16
 1804360:	100d883a 	mov	r6,r2
 1804364:	18056240 	call	1805624 <__adddf3>
 1804368:	180f883a 	mov	r7,r3
 180436c:	a80b883a 	mov	r5,r21
 1804370:	a009883a 	mov	r4,r20
 1804374:	100d883a 	mov	r6,r2
 1804378:	18055a40 	call	18055a4 <__subdf3>
 180437c:	1029883a 	mov	r20,r2
 1804380:	182b883a 	mov	r21,r3
 1804384:	a005883a 	mov	r2,r20
 1804388:	a807883a 	mov	r3,r21
 180438c:	dfc01017 	ldw	ra,64(sp)
 1804390:	ddc00f17 	ldw	r23,60(sp)
 1804394:	dd800e17 	ldw	r22,56(sp)
 1804398:	dd400d17 	ldw	r21,52(sp)
 180439c:	dd000c17 	ldw	r20,48(sp)
 18043a0:	dcc00b17 	ldw	r19,44(sp)
 18043a4:	dc800a17 	ldw	r18,40(sp)
 18043a8:	dc400917 	ldw	r17,36(sp)
 18043ac:	dc000817 	ldw	r16,32(sp)
 18043b0:	dec01104 	addi	sp,sp,68
 18043b4:	f800283a 	ret
 18043b8:	d9000217 	ldw	r4,8(sp)
 18043bc:	b80b883a 	mov	r5,r23
 18043c0:	800d883a 	mov	r6,r16
 18043c4:	180f883a 	mov	r7,r3
 18043c8:	18056980 	call	1805698 <__muldf3>
 18043cc:	02155574 	movhi	r8,21845
 18043d0:	42155244 	addi	r8,r8,21833
 18043d4:	024ff174 	movhi	r9,16325
 18043d8:	4a555544 	addi	r9,r9,21845
 18043dc:	480f883a 	mov	r7,r9
 18043e0:	400d883a 	mov	r6,r8
 18043e4:	180b883a 	mov	r5,r3
 18043e8:	1009883a 	mov	r4,r2
 18043ec:	18055a40 	call	18055a4 <__subdf3>
 18043f0:	d9000017 	ldw	r4,0(sp)
 18043f4:	d9400717 	ldw	r5,28(sp)
 18043f8:	180f883a 	mov	r7,r3
 18043fc:	100d883a 	mov	r6,r2
 1804400:	18056980 	call	1805698 <__muldf3>
 1804404:	180f883a 	mov	r7,r3
 1804408:	a80b883a 	mov	r5,r21
 180440c:	a009883a 	mov	r4,r20
 1804410:	100d883a 	mov	r6,r2
 1804414:	18056240 	call	1805624 <__adddf3>
 1804418:	1029883a 	mov	r20,r2
 180441c:	182b883a 	mov	r21,r3
 1804420:	003fd806 	br	1804384 <__kernel_sin+0x278>

01804424 <atan>:
 1804424:	defff304 	addi	sp,sp,-52
 1804428:	00a00034 	movhi	r2,32768
 180442c:	10bfffc4 	addi	r2,r2,-1
 1804430:	dc000315 	stw	r16,12(sp)
 1804434:	28a0703a 	and	r16,r5,r2
 1804438:	00910434 	movhi	r2,17424
 180443c:	10bfffc4 	addi	r2,r2,-1
 1804440:	df000b15 	stw	fp,44(sp)
 1804444:	dfc00c15 	stw	ra,48(sp)
 1804448:	ddc00a15 	stw	r23,40(sp)
 180444c:	dd800915 	stw	r22,36(sp)
 1804450:	dd400815 	stw	r21,32(sp)
 1804454:	dd000715 	stw	r20,28(sp)
 1804458:	dcc00615 	stw	r19,24(sp)
 180445c:	dc800515 	stw	r18,20(sp)
 1804460:	dc400415 	stw	r17,16(sp)
 1804464:	d9000115 	stw	r4,4(sp)
 1804468:	d9400215 	stw	r5,8(sp)
 180446c:	2839883a 	mov	fp,r5
 1804470:	1400190e 	bge	r2,r16,18044d8 <atan+0xb4>
 1804474:	2005883a 	mov	r2,r4
 1804478:	011ffc34 	movhi	r4,32752
 180447c:	2400eb0e 	bge	r4,r16,180482c <atan+0x408>
 1804480:	d9000117 	ldw	r4,4(sp)
 1804484:	d9c00217 	ldw	r7,8(sp)
 1804488:	200d883a 	mov	r6,r4
 180448c:	18056240 	call	1805624 <__adddf3>
 1804490:	d8800115 	stw	r2,4(sp)
 1804494:	d8c00215 	stw	r3,8(sp)
 1804498:	d9000117 	ldw	r4,4(sp)
 180449c:	2005883a 	mov	r2,r4
 18044a0:	d9000217 	ldw	r4,8(sp)
 18044a4:	2007883a 	mov	r3,r4
 18044a8:	dfc00c17 	ldw	ra,48(sp)
 18044ac:	df000b17 	ldw	fp,44(sp)
 18044b0:	ddc00a17 	ldw	r23,40(sp)
 18044b4:	dd800917 	ldw	r22,36(sp)
 18044b8:	dd400817 	ldw	r21,32(sp)
 18044bc:	dd000717 	ldw	r20,28(sp)
 18044c0:	dcc00617 	ldw	r19,24(sp)
 18044c4:	dc800517 	ldw	r18,20(sp)
 18044c8:	dc400417 	ldw	r17,16(sp)
 18044cc:	dc000317 	ldw	r16,12(sp)
 18044d0:	dec00d04 	addi	sp,sp,52
 18044d4:	f800283a 	ret
 18044d8:	008ff734 	movhi	r2,16348
 18044dc:	10bfffc4 	addi	r2,r2,-1
 18044e0:	1400ec16 	blt	r2,r16,1804894 <atan+0x470>
 18044e4:	008f8834 	movhi	r2,15904
 18044e8:	10bfffc4 	addi	r2,r2,-1
 18044ec:	1400d80e 	bge	r2,r16,1804850 <atan+0x42c>
 18044f0:	00bfffc4 	movi	r2,-1
 18044f4:	d8800015 	stw	r2,0(sp)
 18044f8:	d9000117 	ldw	r4,4(sp)
 18044fc:	d9400217 	ldw	r5,8(sp)
 1804500:	200d883a 	mov	r6,r4
 1804504:	280f883a 	mov	r7,r5
 1804508:	18056980 	call	1805698 <__muldf3>
 180450c:	1009883a 	mov	r4,r2
 1804510:	180b883a 	mov	r5,r3
 1804514:	100d883a 	mov	r6,r2
 1804518:	180f883a 	mov	r7,r3
 180451c:	1025883a 	mov	r18,r2
 1804520:	1827883a 	mov	r19,r3
 1804524:	18056980 	call	1805698 <__muldf3>
 1804528:	1021883a 	mov	r16,r2
 180452c:	1823883a 	mov	r17,r3
 1804530:	00b8c8f4 	movhi	r2,58147
 1804534:	10b68444 	addi	r2,r2,-9711
 1804538:	00cfe474 	movhi	r3,16273
 180453c:	18eb4e84 	addi	r3,r3,-21190
 1804540:	180f883a 	mov	r7,r3
 1804544:	8009883a 	mov	r4,r16
 1804548:	880b883a 	mov	r5,r17
 180454c:	100d883a 	mov	r6,r2
 1804550:	18056980 	call	1805698 <__muldf3>
 1804554:	02091db4 	movhi	r8,9334
 1804558:	42037ac4 	addi	r8,r8,3563
 180455c:	024fea74 	movhi	r9,16297
 1804560:	4a5ed2c4 	addi	r9,r9,31563
 1804564:	480f883a 	mov	r7,r9
 1804568:	400d883a 	mov	r6,r8
 180456c:	180b883a 	mov	r5,r3
 1804570:	1009883a 	mov	r4,r2
 1804574:	18056240 	call	1805624 <__adddf3>
 1804578:	180f883a 	mov	r7,r3
 180457c:	8009883a 	mov	r4,r16
 1804580:	880b883a 	mov	r5,r17
 1804584:	100d883a 	mov	r6,r2
 1804588:	18056980 	call	1805698 <__muldf3>
 180458c:	02283434 	movhi	r8,41168
 1804590:	420f5444 	addi	r8,r8,15697
 1804594:	024fec74 	movhi	r9,16305
 1804598:	4a435984 	addi	r9,r9,3430
 180459c:	480f883a 	mov	r7,r9
 18045a0:	400d883a 	mov	r6,r8
 18045a4:	180b883a 	mov	r5,r3
 18045a8:	1009883a 	mov	r4,r2
 18045ac:	18056240 	call	1805624 <__adddf3>
 18045b0:	180f883a 	mov	r7,r3
 18045b4:	8009883a 	mov	r4,r16
 18045b8:	880b883a 	mov	r5,r17
 18045bc:	100d883a 	mov	r6,r2
 18045c0:	18056980 	call	1805698 <__muldf3>
 18045c4:	02315334 	movhi	r8,50508
 18045c8:	42081b84 	addi	r8,r8,8302
 18045cc:	024fedf4 	movhi	r9,16311
 18045d0:	4a517344 	addi	r9,r9,17869
 18045d4:	480f883a 	mov	r7,r9
 18045d8:	400d883a 	mov	r6,r8
 18045dc:	180b883a 	mov	r5,r3
 18045e0:	1009883a 	mov	r4,r2
 18045e4:	18056240 	call	1805624 <__adddf3>
 18045e8:	180f883a 	mov	r7,r3
 18045ec:	8009883a 	mov	r4,r16
 18045f0:	880b883a 	mov	r5,r17
 18045f4:	100d883a 	mov	r6,r2
 18045f8:	18056980 	call	1805698 <__muldf3>
 18045fc:	02248074 	movhi	r8,37377
 1804600:	4220ffc4 	addi	r8,r8,-31745
 1804604:	024ff0b4 	movhi	r9,16322
 1804608:	4a524904 	addi	r9,r9,18724
 180460c:	480f883a 	mov	r7,r9
 1804610:	400d883a 	mov	r6,r8
 1804614:	180b883a 	mov	r5,r3
 1804618:	1009883a 	mov	r4,r2
 180461c:	18056240 	call	1805624 <__adddf3>
 1804620:	180f883a 	mov	r7,r3
 1804624:	8009883a 	mov	r4,r16
 1804628:	880b883a 	mov	r5,r17
 180462c:	100d883a 	mov	r6,r2
 1804630:	18056980 	call	1805698 <__muldf3>
 1804634:	02155574 	movhi	r8,21845
 1804638:	42154344 	addi	r8,r8,21773
 180463c:	024ff574 	movhi	r9,16341
 1804640:	4a555544 	addi	r9,r9,21845
 1804644:	480f883a 	mov	r7,r9
 1804648:	400d883a 	mov	r6,r8
 180464c:	180b883a 	mov	r5,r3
 1804650:	1009883a 	mov	r4,r2
 1804654:	18056240 	call	1805624 <__adddf3>
 1804658:	180f883a 	mov	r7,r3
 180465c:	9009883a 	mov	r4,r18
 1804660:	980b883a 	mov	r5,r19
 1804664:	100d883a 	mov	r6,r2
 1804668:	18056980 	call	1805698 <__muldf3>
 180466c:	020b1ab4 	movhi	r8,11370
 1804670:	421b0bc4 	addi	r8,r8,27695
 1804674:	026fe8f4 	movhi	r9,49059
 1804678:	4a6d1104 	addi	r9,r9,-19388
 180467c:	480f883a 	mov	r7,r9
 1804680:	400d883a 	mov	r6,r8
 1804684:	8009883a 	mov	r4,r16
 1804688:	880b883a 	mov	r5,r17
 180468c:	102d883a 	mov	r22,r2
 1804690:	182f883a 	mov	r23,r3
 1804694:	18056980 	call	1805698 <__muldf3>
 1804698:	0214b7f4 	movhi	r8,21215
 180469c:	423f6684 	addi	r8,r8,-614
 18046a0:	024febb4 	movhi	r9,16302
 18046a4:	4a778b44 	addi	r9,r9,-8659
 18046a8:	480f883a 	mov	r7,r9
 18046ac:	400d883a 	mov	r6,r8
 18046b0:	180b883a 	mov	r5,r3
 18046b4:	1009883a 	mov	r4,r2
 18046b8:	18055a40 	call	18055a4 <__subdf3>
 18046bc:	180f883a 	mov	r7,r3
 18046c0:	8009883a 	mov	r4,r16
 18046c4:	880b883a 	mov	r5,r17
 18046c8:	100d883a 	mov	r6,r2
 18046cc:	18056980 	call	1805698 <__muldf3>
 18046d0:	022bdd74 	movhi	r8,44917
 18046d4:	42269b44 	addi	r8,r8,-26003
 18046d8:	024fed34 	movhi	r9,16308
 18046dc:	4a6c3c84 	addi	r9,r9,-20238
 18046e0:	480f883a 	mov	r7,r9
 18046e4:	400d883a 	mov	r6,r8
 18046e8:	180b883a 	mov	r5,r3
 18046ec:	1009883a 	mov	r4,r2
 18046f0:	18055a40 	call	18055a4 <__subdf3>
 18046f4:	180f883a 	mov	r7,r3
 18046f8:	8009883a 	mov	r4,r16
 18046fc:	880b883a 	mov	r5,r17
 1804700:	100d883a 	mov	r6,r2
 1804704:	18056980 	call	1805698 <__muldf3>
 1804708:	023f88f4 	movhi	r8,65059
 180470c:	42059c44 	addi	r8,r8,5745
 1804710:	024fef34 	movhi	r9,16316
 1804714:	4a5c7184 	addi	r9,r9,29126
 1804718:	480f883a 	mov	r7,r9
 180471c:	400d883a 	mov	r6,r8
 1804720:	180b883a 	mov	r5,r3
 1804724:	1009883a 	mov	r4,r2
 1804728:	18055a40 	call	18055a4 <__subdf3>
 180472c:	180f883a 	mov	r7,r3
 1804730:	8009883a 	mov	r4,r16
 1804734:	880b883a 	mov	r5,r17
 1804738:	100d883a 	mov	r6,r2
 180473c:	18056980 	call	1805698 <__muldf3>
 1804740:	02266674 	movhi	r8,39321
 1804744:	423af104 	addi	r8,r8,-5180
 1804748:	024ff2b4 	movhi	r9,16330
 180474c:	4a666644 	addi	r9,r9,-26215
 1804750:	480f883a 	mov	r7,r9
 1804754:	400d883a 	mov	r6,r8
 1804758:	180b883a 	mov	r5,r3
 180475c:	1009883a 	mov	r4,r2
 1804760:	18055a40 	call	18055a4 <__subdf3>
 1804764:	180f883a 	mov	r7,r3
 1804768:	8009883a 	mov	r4,r16
 180476c:	880b883a 	mov	r5,r17
 1804770:	100d883a 	mov	r6,r2
 1804774:	18056980 	call	1805698 <__muldf3>
 1804778:	100f883a 	mov	r7,r2
 180477c:	d8800017 	ldw	r2,0(sp)
 1804780:	b009883a 	mov	r4,r22
 1804784:	b80b883a 	mov	r5,r23
 1804788:	10006b16 	blt	r2,zero,1804938 <atan+0x514>
 180478c:	d8800017 	ldw	r2,0(sp)
 1804790:	380d883a 	mov	r6,r7
 1804794:	b80b883a 	mov	r5,r23
 1804798:	102490fa 	slli	r18,r2,3
 180479c:	008060b4 	movhi	r2,386
 18047a0:	10bad404 	addi	r2,r2,-5296
 18047a4:	180f883a 	mov	r7,r3
 18047a8:	9085883a 	add	r2,r18,r2
 18047ac:	14000017 	ldw	r16,0(r2)
 18047b0:	14400117 	ldw	r17,4(r2)
 18047b4:	18056240 	call	1805624 <__adddf3>
 18047b8:	d9000117 	ldw	r4,4(sp)
 18047bc:	d9400217 	ldw	r5,8(sp)
 18047c0:	180f883a 	mov	r7,r3
 18047c4:	100d883a 	mov	r6,r2
 18047c8:	18056980 	call	1805698 <__muldf3>
 18047cc:	010060b4 	movhi	r4,386
 18047d0:	213adc04 	addi	r4,r4,-5264
 18047d4:	9125883a 	add	r18,r18,r4
 18047d8:	92000017 	ldw	r8,0(r18)
 18047dc:	92400117 	ldw	r9,4(r18)
 18047e0:	180b883a 	mov	r5,r3
 18047e4:	400d883a 	mov	r6,r8
 18047e8:	480f883a 	mov	r7,r9
 18047ec:	1009883a 	mov	r4,r2
 18047f0:	18055a40 	call	18055a4 <__subdf3>
 18047f4:	d9c00217 	ldw	r7,8(sp)
 18047f8:	d9800117 	ldw	r6,4(sp)
 18047fc:	180b883a 	mov	r5,r3
 1804800:	1009883a 	mov	r4,r2
 1804804:	18055a40 	call	18055a4 <__subdf3>
 1804808:	180f883a 	mov	r7,r3
 180480c:	880b883a 	mov	r5,r17
 1804810:	8009883a 	mov	r4,r16
 1804814:	100d883a 	mov	r6,r2
 1804818:	18055a40 	call	18055a4 <__subdf3>
 180481c:	e0003f16 	blt	fp,zero,180491c <atan+0x4f8>
 1804820:	d8800115 	stw	r2,4(sp)
 1804824:	d8c00215 	stw	r3,8(sp)
 1804828:	003f1b06 	br	1804498 <atan+0x74>
 180482c:	81003f26 	beq	r16,r4,180492c <atan+0x508>
 1804830:	07005e0e 	bge	zero,fp,18049ac <atan+0x588>
 1804834:	01151134 	movhi	r4,21572
 1804838:	210b4604 	addi	r4,r4,11544
 180483c:	008ffe74 	movhi	r2,16377
 1804840:	10887ec4 	addi	r2,r2,8699
 1804844:	d9000115 	stw	r4,4(sp)
 1804848:	d8800215 	stw	r2,8(sp)
 180484c:	003f1206 	br	1804498 <atan+0x74>
 1804850:	d9000117 	ldw	r4,4(sp)
 1804854:	00a20034 	movhi	r2,34816
 1804858:	109d6704 	addi	r2,r2,30108
 180485c:	00df8e34 	movhi	r3,32312
 1804860:	18f90f04 	addi	r3,r3,-7108
 1804864:	180f883a 	mov	r7,r3
 1804868:	100d883a 	mov	r6,r2
 180486c:	18056240 	call	1805624 <__adddf3>
 1804870:	0011883a 	mov	r8,zero
 1804874:	024ffc34 	movhi	r9,16368
 1804878:	180b883a 	mov	r5,r3
 180487c:	480f883a 	mov	r7,r9
 1804880:	1009883a 	mov	r4,r2
 1804884:	400d883a 	mov	r6,r8
 1804888:	1805d3c0 	call	1805d3c <__gtdf2>
 180488c:	00bf0216 	blt	zero,r2,1804498 <atan+0x74>
 1804890:	003f1706 	br	18044f0 <atan+0xcc>
 1804894:	d9000117 	ldw	r4,4(sp)
 1804898:	1804abc0 	call	1804abc <fabs>
 180489c:	102d883a 	mov	r22,r2
 18048a0:	008ffcf4 	movhi	r2,16371
 18048a4:	10bfffc4 	addi	r2,r2,-1
 18048a8:	182f883a 	mov	r23,r3
 18048ac:	14003016 	blt	r2,r16,1804970 <atan+0x54c>
 18048b0:	008ff9b4 	movhi	r2,16358
 18048b4:	10bfffc4 	addi	r2,r2,-1
 18048b8:	1400430e 	bge	r2,r16,18049c8 <atan+0x5a4>
 18048bc:	044ffc34 	movhi	r17,16368
 18048c0:	0021883a 	mov	r16,zero
 18048c4:	800d883a 	mov	r6,r16
 18048c8:	880f883a 	mov	r7,r17
 18048cc:	b009883a 	mov	r4,r22
 18048d0:	180b883a 	mov	r5,r3
 18048d4:	18055a40 	call	18055a4 <__subdf3>
 18048d8:	880f883a 	mov	r7,r17
 18048dc:	000d883a 	mov	r6,zero
 18048e0:	b80b883a 	mov	r5,r23
 18048e4:	b009883a 	mov	r4,r22
 18048e8:	1021883a 	mov	r16,r2
 18048ec:	1823883a 	mov	r17,r3
 18048f0:	18056240 	call	1805624 <__adddf3>
 18048f4:	180f883a 	mov	r7,r3
 18048f8:	8009883a 	mov	r4,r16
 18048fc:	880b883a 	mov	r5,r17
 1804900:	100d883a 	mov	r6,r2
 1804904:	1805a5c0 	call	1805a5c <__divdf3>
 1804908:	01000044 	movi	r4,1
 180490c:	d8800115 	stw	r2,4(sp)
 1804910:	d8c00215 	stw	r3,8(sp)
 1804914:	d9000015 	stw	r4,0(sp)
 1804918:	003ef706 	br	18044f8 <atan+0xd4>
 180491c:	18e0003c 	xorhi	r3,r3,32768
 1804920:	d8800115 	stw	r2,4(sp)
 1804924:	d8c00215 	stw	r3,8(sp)
 1804928:	003edb06 	br	1804498 <atan+0x74>
 180492c:	103ed41e 	bne	r2,zero,1804480 <atan+0x5c>
 1804930:	073fc016 	blt	zero,fp,1804834 <atan+0x410>
 1804934:	00001d06 	br	18049ac <atan+0x588>
 1804938:	380d883a 	mov	r6,r7
 180493c:	180f883a 	mov	r7,r3
 1804940:	18056240 	call	1805624 <__adddf3>
 1804944:	d9000117 	ldw	r4,4(sp)
 1804948:	d9400217 	ldw	r5,8(sp)
 180494c:	180f883a 	mov	r7,r3
 1804950:	100d883a 	mov	r6,r2
 1804954:	18056980 	call	1805698 <__muldf3>
 1804958:	d9400217 	ldw	r5,8(sp)
 180495c:	d9000117 	ldw	r4,4(sp)
 1804960:	180f883a 	mov	r7,r3
 1804964:	100d883a 	mov	r6,r2
 1804968:	18055a40 	call	18055a4 <__subdf3>
 180496c:	003ec806 	br	1804490 <atan+0x6c>
 1804970:	009000f4 	movhi	r2,16387
 1804974:	109fffc4 	addi	r2,r2,32767
 1804978:	1400310e 	bge	r2,r16,1804a40 <atan+0x61c>
 180497c:	0005883a 	mov	r2,zero
 1804980:	00effc34 	movhi	r3,49136
 1804984:	1009883a 	mov	r4,r2
 1804988:	180b883a 	mov	r5,r3
 180498c:	b80f883a 	mov	r7,r23
 1804990:	b00d883a 	mov	r6,r22
 1804994:	1805a5c0 	call	1805a5c <__divdf3>
 1804998:	010000c4 	movi	r4,3
 180499c:	d8800115 	stw	r2,4(sp)
 18049a0:	d8c00215 	stw	r3,8(sp)
 18049a4:	d9000015 	stw	r4,0(sp)
 18049a8:	003ed306 	br	18044f8 <atan+0xd4>
 18049ac:	01151134 	movhi	r4,21572
 18049b0:	210b4604 	addi	r4,r4,11544
 18049b4:	00affe74 	movhi	r2,49145
 18049b8:	10887ec4 	addi	r2,r2,8699
 18049bc:	d9000115 	stw	r4,4(sp)
 18049c0:	d8800215 	stw	r2,8(sp)
 18049c4:	003eb406 	br	1804498 <atan+0x74>
 18049c8:	b009883a 	mov	r4,r22
 18049cc:	180b883a 	mov	r5,r3
 18049d0:	b00d883a 	mov	r6,r22
 18049d4:	180f883a 	mov	r7,r3
 18049d8:	18056240 	call	1805624 <__adddf3>
 18049dc:	0011883a 	mov	r8,zero
 18049e0:	024ffc34 	movhi	r9,16368
 18049e4:	480f883a 	mov	r7,r9
 18049e8:	400d883a 	mov	r6,r8
 18049ec:	180b883a 	mov	r5,r3
 18049f0:	1009883a 	mov	r4,r2
 18049f4:	18055a40 	call	18055a4 <__subdf3>
 18049f8:	0011883a 	mov	r8,zero
 18049fc:	02500034 	movhi	r9,16384
 1804a00:	480f883a 	mov	r7,r9
 1804a04:	400d883a 	mov	r6,r8
 1804a08:	b80b883a 	mov	r5,r23
 1804a0c:	b009883a 	mov	r4,r22
 1804a10:	1021883a 	mov	r16,r2
 1804a14:	1823883a 	mov	r17,r3
 1804a18:	18056240 	call	1805624 <__adddf3>
 1804a1c:	180f883a 	mov	r7,r3
 1804a20:	880b883a 	mov	r5,r17
 1804a24:	8009883a 	mov	r4,r16
 1804a28:	100d883a 	mov	r6,r2
 1804a2c:	1805a5c0 	call	1805a5c <__divdf3>
 1804a30:	d8800115 	stw	r2,4(sp)
 1804a34:	d8c00215 	stw	r3,8(sp)
 1804a38:	d8000015 	stw	zero,0(sp)
 1804a3c:	003eae06 	br	18044f8 <atan+0xd4>
 1804a40:	044ffe34 	movhi	r17,16376
 1804a44:	0021883a 	mov	r16,zero
 1804a48:	800d883a 	mov	r6,r16
 1804a4c:	880f883a 	mov	r7,r17
 1804a50:	b009883a 	mov	r4,r22
 1804a54:	180b883a 	mov	r5,r3
 1804a58:	18055a40 	call	18055a4 <__subdf3>
 1804a5c:	880f883a 	mov	r7,r17
 1804a60:	000d883a 	mov	r6,zero
 1804a64:	b80b883a 	mov	r5,r23
 1804a68:	b009883a 	mov	r4,r22
 1804a6c:	1021883a 	mov	r16,r2
 1804a70:	1823883a 	mov	r17,r3
 1804a74:	18056980 	call	1805698 <__muldf3>
 1804a78:	0011883a 	mov	r8,zero
 1804a7c:	024ffc34 	movhi	r9,16368
 1804a80:	480f883a 	mov	r7,r9
 1804a84:	400d883a 	mov	r6,r8
 1804a88:	180b883a 	mov	r5,r3
 1804a8c:	1009883a 	mov	r4,r2
 1804a90:	18056240 	call	1805624 <__adddf3>
 1804a94:	180f883a 	mov	r7,r3
 1804a98:	8009883a 	mov	r4,r16
 1804a9c:	880b883a 	mov	r5,r17
 1804aa0:	100d883a 	mov	r6,r2
 1804aa4:	1805a5c0 	call	1805a5c <__divdf3>
 1804aa8:	01000084 	movi	r4,2
 1804aac:	d8800115 	stw	r2,4(sp)
 1804ab0:	d8c00215 	stw	r3,8(sp)
 1804ab4:	d9000015 	stw	r4,0(sp)
 1804ab8:	003e8f06 	br	18044f8 <atan+0xd4>

01804abc <fabs>:
 1804abc:	01e00034 	movhi	r7,32768
 1804ac0:	39ffffc4 	addi	r7,r7,-1
 1804ac4:	394e703a 	and	r7,r7,r5
 1804ac8:	2005883a 	mov	r2,r4
 1804acc:	3807883a 	mov	r3,r7
 1804ad0:	f800283a 	ret

01804ad4 <floor>:
 1804ad4:	2805d53a 	srai	r2,r5,20
 1804ad8:	defff604 	addi	sp,sp,-40
 1804adc:	dd800615 	stw	r22,24(sp)
 1804ae0:	10c1ffcc 	andi	r3,r2,2047
 1804ae4:	1dbf0044 	addi	r22,r3,-1023
 1804ae8:	008004c4 	movi	r2,19
 1804aec:	ddc00715 	stw	r23,28(sp)
 1804af0:	dc800215 	stw	r18,8(sp)
 1804af4:	dc400115 	stw	r17,4(sp)
 1804af8:	dc000015 	stw	r16,0(sp)
 1804afc:	dfc00915 	stw	ra,36(sp)
 1804b00:	df000815 	stw	fp,32(sp)
 1804b04:	dd400515 	stw	r21,20(sp)
 1804b08:	dd000415 	stw	r20,16(sp)
 1804b0c:	dcc00315 	stw	r19,12(sp)
 1804b10:	2021883a 	mov	r16,r4
 1804b14:	2823883a 	mov	r17,r5
 1804b18:	282f883a 	mov	r23,r5
 1804b1c:	2025883a 	mov	r18,r4
 1804b20:	15802916 	blt	r2,r22,1804bc8 <floor+0xf4>
 1804b24:	b0004816 	blt	r22,zero,1804c48 <floor+0x174>
 1804b28:	00800434 	movhi	r2,16
 1804b2c:	10bfffc4 	addi	r2,r2,-1
 1804b30:	15b9d83a 	sra	fp,r2,r22
 1804b34:	282f883a 	mov	r23,r5
 1804b38:	e144703a 	and	r2,fp,r5
 1804b3c:	1104b03a 	or	r2,r2,r4
 1804b40:	10001326 	beq	r2,zero,1804b90 <floor+0xbc>
 1804b44:	00a20034 	movhi	r2,34816
 1804b48:	109d6704 	addi	r2,r2,30108
 1804b4c:	00df8e34 	movhi	r3,32312
 1804b50:	18f90f04 	addi	r3,r3,-7108
 1804b54:	180f883a 	mov	r7,r3
 1804b58:	100d883a 	mov	r6,r2
 1804b5c:	18056240 	call	1805624 <__adddf3>
 1804b60:	180b883a 	mov	r5,r3
 1804b64:	000d883a 	mov	r6,zero
 1804b68:	000f883a 	mov	r7,zero
 1804b6c:	1009883a 	mov	r4,r2
 1804b70:	1805d3c0 	call	1805d3c <__gtdf2>
 1804b74:	0080040e 	bge	zero,r2,1804b88 <floor+0xb4>
 1804b78:	88004416 	blt	r17,zero,1804c8c <floor+0x1b8>
 1804b7c:	0704303a 	nor	r2,zero,fp
 1804b80:	b8ae703a 	and	r23,r23,r2
 1804b84:	0025883a 	mov	r18,zero
 1804b88:	9021883a 	mov	r16,r18
 1804b8c:	b823883a 	mov	r17,r23
 1804b90:	8005883a 	mov	r2,r16
 1804b94:	8807883a 	mov	r3,r17
 1804b98:	dfc00917 	ldw	ra,36(sp)
 1804b9c:	df000817 	ldw	fp,32(sp)
 1804ba0:	ddc00717 	ldw	r23,28(sp)
 1804ba4:	dd800617 	ldw	r22,24(sp)
 1804ba8:	dd400517 	ldw	r21,20(sp)
 1804bac:	dd000417 	ldw	r20,16(sp)
 1804bb0:	dcc00317 	ldw	r19,12(sp)
 1804bb4:	dc800217 	ldw	r18,8(sp)
 1804bb8:	dc400117 	ldw	r17,4(sp)
 1804bbc:	dc000017 	ldw	r16,0(sp)
 1804bc0:	dec00a04 	addi	sp,sp,40
 1804bc4:	f800283a 	ret
 1804bc8:	00800cc4 	movi	r2,51
 1804bcc:	15801616 	blt	r2,r22,1804c28 <floor+0x154>
 1804bd0:	18befb44 	addi	r2,r3,-1043
 1804bd4:	00ffffc4 	movi	r3,-1
 1804bd8:	18b8d83a 	srl	fp,r3,r2
 1804bdc:	e104703a 	and	r2,fp,r4
 1804be0:	103feb26 	beq	r2,zero,1804b90 <floor+0xbc>
 1804be4:	00a20034 	movhi	r2,34816
 1804be8:	109d6704 	addi	r2,r2,30108
 1804bec:	00df8e34 	movhi	r3,32312
 1804bf0:	18f90f04 	addi	r3,r3,-7108
 1804bf4:	180f883a 	mov	r7,r3
 1804bf8:	100d883a 	mov	r6,r2
 1804bfc:	18056240 	call	1805624 <__adddf3>
 1804c00:	180b883a 	mov	r5,r3
 1804c04:	000d883a 	mov	r6,zero
 1804c08:	000f883a 	mov	r7,zero
 1804c0c:	1009883a 	mov	r4,r2
 1804c10:	1805d3c0 	call	1805d3c <__gtdf2>
 1804c14:	0080210e 	bge	zero,r2,1804c9c <floor+0x1c8>
 1804c18:	88002216 	blt	r17,zero,1804ca4 <floor+0x1d0>
 1804c1c:	0704303a 	nor	r2,zero,fp
 1804c20:	90a4703a 	and	r18,r18,r2
 1804c24:	003fd806 	br	1804b88 <floor+0xb4>
 1804c28:	00810004 	movi	r2,1024
 1804c2c:	b0bfd81e 	bne	r22,r2,1804b90 <floor+0xbc>
 1804c30:	800d883a 	mov	r6,r16
 1804c34:	280f883a 	mov	r7,r5
 1804c38:	18056240 	call	1805624 <__adddf3>
 1804c3c:	1021883a 	mov	r16,r2
 1804c40:	1823883a 	mov	r17,r3
 1804c44:	003fd206 	br	1804b90 <floor+0xbc>
 1804c48:	00a20034 	movhi	r2,34816
 1804c4c:	109d6704 	addi	r2,r2,30108
 1804c50:	00df8e34 	movhi	r3,32312
 1804c54:	18f90f04 	addi	r3,r3,-7108
 1804c58:	180f883a 	mov	r7,r3
 1804c5c:	100d883a 	mov	r6,r2
 1804c60:	18056240 	call	1805624 <__adddf3>
 1804c64:	180b883a 	mov	r5,r3
 1804c68:	000d883a 	mov	r6,zero
 1804c6c:	000f883a 	mov	r7,zero
 1804c70:	1009883a 	mov	r4,r2
 1804c74:	1805d3c0 	call	1805d3c <__gtdf2>
 1804c78:	00bfc30e 	bge	zero,r2,1804b88 <floor+0xb4>
 1804c7c:	88001416 	blt	r17,zero,1804cd0 <floor+0x1fc>
 1804c80:	002f883a 	mov	r23,zero
 1804c84:	0025883a 	mov	r18,zero
 1804c88:	003fbf06 	br	1804b88 <floor+0xb4>
 1804c8c:	00800434 	movhi	r2,16
 1804c90:	1585d83a 	sra	r2,r2,r22
 1804c94:	88af883a 	add	r23,r17,r2
 1804c98:	003fb806 	br	1804b7c <floor+0xa8>
 1804c9c:	882f883a 	mov	r23,r17
 1804ca0:	003fb906 	br	1804b88 <floor+0xb4>
 1804ca4:	00800504 	movi	r2,20
 1804ca8:	b0801126 	beq	r22,r2,1804cf0 <floor+0x21c>
 1804cac:	00c00d04 	movi	r3,52
 1804cb0:	1d87c83a 	sub	r3,r3,r22
 1804cb4:	00800044 	movi	r2,1
 1804cb8:	10c4983a 	sll	r2,r2,r3
 1804cbc:	8085883a 	add	r2,r16,r2
 1804cc0:	1400012e 	bgeu	r2,r16,1804cc8 <floor+0x1f4>
 1804cc4:	8dc00044 	addi	r23,r17,1
 1804cc8:	1025883a 	mov	r18,r2
 1804ccc:	003fd306 	br	1804c1c <floor+0x148>
 1804cd0:	00a00034 	movhi	r2,32768
 1804cd4:	10bfffc4 	addi	r2,r2,-1
 1804cd8:	8884703a 	and	r2,r17,r2
 1804cdc:	8084b03a 	or	r2,r16,r2
 1804ce0:	103fee26 	beq	r2,zero,1804c9c <floor+0x1c8>
 1804ce4:	05effc34 	movhi	r23,49136
 1804ce8:	0025883a 	mov	r18,zero
 1804cec:	003fa606 	br	1804b88 <floor+0xb4>
 1804cf0:	8dc00044 	addi	r23,r17,1
 1804cf4:	003fc906 	br	1804c1c <floor+0x148>

01804cf8 <__isnand>:
 1804cf8:	200d883a 	mov	r6,r4
 1804cfc:	0109c83a 	sub	r4,zero,r4
 1804d00:	2188b03a 	or	r4,r4,r6
 1804d04:	2008d7fa 	srli	r4,r4,31
 1804d08:	00a00034 	movhi	r2,32768
 1804d0c:	10bfffc4 	addi	r2,r2,-1
 1804d10:	1144703a 	and	r2,r2,r5
 1804d14:	2088b03a 	or	r4,r4,r2
 1804d18:	009ffc34 	movhi	r2,32752
 1804d1c:	1105c83a 	sub	r2,r2,r4
 1804d20:	1004d7fa 	srli	r2,r2,31
 1804d24:	f800283a 	ret

01804d28 <matherr>:
 1804d28:	0005883a 	mov	r2,zero
 1804d2c:	f800283a 	ret

01804d30 <scalbn>:
 1804d30:	2011883a 	mov	r8,r4
 1804d34:	291ffc2c 	andhi	r4,r5,32752
 1804d38:	2009d53a 	srai	r4,r4,20
 1804d3c:	defffd04 	addi	sp,sp,-12
 1804d40:	dc000015 	stw	r16,0(sp)
 1804d44:	dfc00215 	stw	ra,8(sp)
 1804d48:	dc400115 	stw	r17,4(sp)
 1804d4c:	2813883a 	mov	r9,r5
 1804d50:	2815883a 	mov	r10,r5
 1804d54:	3021883a 	mov	r16,r6
 1804d58:	2000281e 	bne	r4,zero,1804dfc <scalbn+0xcc>
 1804d5c:	00a00034 	movhi	r2,32768
 1804d60:	10bfffc4 	addi	r2,r2,-1
 1804d64:	2884703a 	and	r2,r5,r2
 1804d68:	4084b03a 	or	r2,r8,r2
 1804d6c:	10001826 	beq	r2,zero,1804dd0 <scalbn+0xa0>
 1804d70:	0005883a 	mov	r2,zero
 1804d74:	00d0d434 	movhi	r3,17232
 1804d78:	4009883a 	mov	r4,r8
 1804d7c:	100d883a 	mov	r6,r2
 1804d80:	180f883a 	mov	r7,r3
 1804d84:	18056980 	call	1805698 <__muldf3>
 1804d88:	100b883a 	mov	r5,r2
 1804d8c:	1011883a 	mov	r8,r2
 1804d90:	00bffff4 	movhi	r2,65535
 1804d94:	108f2c04 	addi	r2,r2,15536
 1804d98:	180d883a 	mov	r6,r3
 1804d9c:	1813883a 	mov	r9,r3
 1804da0:	8080120e 	bge	r16,r2,1804dec <scalbn+0xbc>
 1804da4:	00b0be74 	movhi	r2,49913
 1804da8:	10bcd644 	addi	r2,r2,-3239
 1804dac:	00c06974 	movhi	r3,421
 1804db0:	18db87c4 	addi	r3,r3,28191
 1804db4:	2809883a 	mov	r4,r5
 1804db8:	180f883a 	mov	r7,r3
 1804dbc:	300b883a 	mov	r5,r6
 1804dc0:	100d883a 	mov	r6,r2
 1804dc4:	18056980 	call	1805698 <__muldf3>
 1804dc8:	1011883a 	mov	r8,r2
 1804dcc:	1813883a 	mov	r9,r3
 1804dd0:	4005883a 	mov	r2,r8
 1804dd4:	4807883a 	mov	r3,r9
 1804dd8:	dfc00217 	ldw	ra,8(sp)
 1804ddc:	dc400117 	ldw	r17,4(sp)
 1804de0:	dc000017 	ldw	r16,0(sp)
 1804de4:	dec00304 	addi	sp,sp,12
 1804de8:	f800283a 	ret
 1804dec:	189ffc2c 	andhi	r2,r3,32752
 1804df0:	1005d53a 	srai	r2,r2,20
 1804df4:	1815883a 	mov	r10,r3
 1804df8:	113ff284 	addi	r4,r2,-54
 1804dfc:	0081ffc4 	movi	r2,2047
 1804e00:	20801126 	beq	r4,r2,1804e48 <scalbn+0x118>
 1804e04:	2409883a 	add	r4,r4,r16
 1804e08:	0081ff84 	movi	r2,2046
 1804e0c:	11001c16 	blt	r2,r4,1804e80 <scalbn+0x150>
 1804e10:	0100290e 	bge	zero,r4,1804eb8 <scalbn+0x188>
 1804e14:	200a953a 	slli	r5,r4,20
 1804e18:	01200434 	movhi	r4,32784
 1804e1c:	213fffc4 	addi	r4,r4,-1
 1804e20:	5108703a 	and	r4,r10,r4
 1804e24:	2148b03a 	or	r4,r4,r5
 1804e28:	2013883a 	mov	r9,r4
 1804e2c:	4005883a 	mov	r2,r8
 1804e30:	4807883a 	mov	r3,r9
 1804e34:	dfc00217 	ldw	ra,8(sp)
 1804e38:	dc400117 	ldw	r17,4(sp)
 1804e3c:	dc000017 	ldw	r16,0(sp)
 1804e40:	dec00304 	addi	sp,sp,12
 1804e44:	f800283a 	ret
 1804e48:	480f883a 	mov	r7,r9
 1804e4c:	4009883a 	mov	r4,r8
 1804e50:	480b883a 	mov	r5,r9
 1804e54:	400d883a 	mov	r6,r8
 1804e58:	18056240 	call	1805624 <__adddf3>
 1804e5c:	1011883a 	mov	r8,r2
 1804e60:	1813883a 	mov	r9,r3
 1804e64:	4005883a 	mov	r2,r8
 1804e68:	4807883a 	mov	r3,r9
 1804e6c:	dfc00217 	ldw	ra,8(sp)
 1804e70:	dc400117 	ldw	r17,4(sp)
 1804e74:	dc000017 	ldw	r16,0(sp)
 1804e78:	dec00304 	addi	sp,sp,12
 1804e7c:	f800283a 	ret
 1804e80:	04220034 	movhi	r16,34816
 1804e84:	841d6704 	addi	r16,r16,30108
 1804e88:	045f8e34 	movhi	r17,32312
 1804e8c:	8c790f04 	addi	r17,r17,-7108
 1804e90:	480f883a 	mov	r7,r9
 1804e94:	400d883a 	mov	r6,r8
 1804e98:	8009883a 	mov	r4,r16
 1804e9c:	880b883a 	mov	r5,r17
 1804ea0:	1804f100 	call	1804f10 <copysign>
 1804ea4:	180b883a 	mov	r5,r3
 1804ea8:	800d883a 	mov	r6,r16
 1804eac:	880f883a 	mov	r7,r17
 1804eb0:	1009883a 	mov	r4,r2
 1804eb4:	003fc306 	br	1804dc4 <scalbn+0x94>
 1804eb8:	00bff284 	movi	r2,-54
 1804ebc:	11000716 	blt	r2,r4,1804edc <scalbn+0x1ac>
 1804ec0:	00b0d414 	movui	r2,50000
 1804ec4:	143fee16 	blt	r2,r16,1804e80 <scalbn+0x150>
 1804ec8:	0430be74 	movhi	r16,49913
 1804ecc:	843cd644 	addi	r16,r16,-3239
 1804ed0:	04406974 	movhi	r17,421
 1804ed4:	8c5b87c4 	addi	r17,r17,28191
 1804ed8:	003fed06 	br	1804e90 <scalbn+0x160>
 1804edc:	21000d84 	addi	r4,r4,54
 1804ee0:	2008953a 	slli	r4,r4,20
 1804ee4:	01e00434 	movhi	r7,32784
 1804ee8:	39ffffc4 	addi	r7,r7,-1
 1804eec:	51ce703a 	and	r7,r10,r7
 1804ef0:	390eb03a 	or	r7,r7,r4
 1804ef4:	024f2434 	movhi	r9,15504
 1804ef8:	4009883a 	mov	r4,r8
 1804efc:	0011883a 	mov	r8,zero
 1804f00:	380b883a 	mov	r5,r7
 1804f04:	400d883a 	mov	r6,r8
 1804f08:	480f883a 	mov	r7,r9
 1804f0c:	003fad06 	br	1804dc4 <scalbn+0x94>

01804f10 <copysign>:
 1804f10:	3813883a 	mov	r9,r7
 1804f14:	01e00034 	movhi	r7,32768
 1804f18:	39ffffc4 	addi	r7,r7,-1
 1804f1c:	394e703a 	and	r7,r7,r5
 1804f20:	4aa0002c 	andhi	r10,r9,32768
 1804f24:	3a8eb03a 	or	r7,r7,r10
 1804f28:	2005883a 	mov	r2,r4
 1804f2c:	3807883a 	mov	r3,r7
 1804f30:	f800283a 	ret

01804f34 <__divsf3>:
 1804f34:	defff304 	addi	sp,sp,-52
 1804f38:	dc400b15 	stw	r17,44(sp)
 1804f3c:	dc400204 	addi	r17,sp,8
 1804f40:	dc000a15 	stw	r16,40(sp)
 1804f44:	d9000015 	stw	r4,0(sp)
 1804f48:	d9400115 	stw	r5,4(sp)
 1804f4c:	d809883a 	mov	r4,sp
 1804f50:	880b883a 	mov	r5,r17
 1804f54:	dc000604 	addi	r16,sp,24
 1804f58:	dfc00c15 	stw	ra,48(sp)
 1804f5c:	18065140 	call	1806514 <__unpack_f>
 1804f60:	d9000104 	addi	r4,sp,4
 1804f64:	800b883a 	mov	r5,r16
 1804f68:	18065140 	call	1806514 <__unpack_f>
 1804f6c:	d9000217 	ldw	r4,8(sp)
 1804f70:	00800044 	movi	r2,1
 1804f74:	01800104 	movi	r6,4
 1804f78:	11000a2e 	bgeu	r2,r4,1804fa4 <__divsf3+0x70>
 1804f7c:	d9400617 	ldw	r5,24(sp)
 1804f80:	1140432e 	bgeu	r2,r5,1805090 <__divsf3+0x15c>
 1804f84:	d8800317 	ldw	r2,12(sp)
 1804f88:	d8c00717 	ldw	r3,28(sp)
 1804f8c:	10c4f03a 	xor	r2,r2,r3
 1804f90:	d8800315 	stw	r2,12(sp)
 1804f94:	21800226 	beq	r4,r6,1804fa0 <__divsf3+0x6c>
 1804f98:	00800084 	movi	r2,2
 1804f9c:	2080101e 	bne	r4,r2,1804fe0 <__divsf3+0xac>
 1804fa0:	29000726 	beq	r5,r4,1804fc0 <__divsf3+0x8c>
 1804fa4:	8809883a 	mov	r4,r17
 1804fa8:	18063b40 	call	18063b4 <__pack_f>
 1804fac:	dfc00c17 	ldw	ra,48(sp)
 1804fb0:	dc400b17 	ldw	r17,44(sp)
 1804fb4:	dc000a17 	ldw	r16,40(sp)
 1804fb8:	dec00d04 	addi	sp,sp,52
 1804fbc:	f800283a 	ret
 1804fc0:	010060b4 	movhi	r4,386
 1804fc4:	213ae404 	addi	r4,r4,-5232
 1804fc8:	18063b40 	call	18063b4 <__pack_f>
 1804fcc:	dfc00c17 	ldw	ra,48(sp)
 1804fd0:	dc400b17 	ldw	r17,44(sp)
 1804fd4:	dc000a17 	ldw	r16,40(sp)
 1804fd8:	dec00d04 	addi	sp,sp,52
 1804fdc:	f800283a 	ret
 1804fe0:	29802d26 	beq	r5,r6,1805098 <__divsf3+0x164>
 1804fe4:	28801a26 	beq	r5,r2,1805050 <__divsf3+0x11c>
 1804fe8:	d8c00417 	ldw	r3,16(sp)
 1804fec:	d8800817 	ldw	r2,32(sp)
 1804ff0:	d9000517 	ldw	r4,20(sp)
 1804ff4:	d9800917 	ldw	r6,36(sp)
 1804ff8:	1885c83a 	sub	r2,r3,r2
 1804ffc:	d8800415 	stw	r2,16(sp)
 1805000:	2180032e 	bgeu	r4,r6,1805010 <__divsf3+0xdc>
 1805004:	10bfffc4 	addi	r2,r2,-1
 1805008:	d8800415 	stw	r2,16(sp)
 180500c:	2109883a 	add	r4,r4,r4
 1805010:	01500034 	movhi	r5,16384
 1805014:	0007883a 	mov	r3,zero
 1805018:	0005883a 	mov	r2,zero
 180501c:	01c007c4 	movi	r7,31
 1805020:	10800044 	addi	r2,r2,1
 1805024:	21800236 	bltu	r4,r6,1805030 <__divsf3+0xfc>
 1805028:	1946b03a 	or	r3,r3,r5
 180502c:	2189c83a 	sub	r4,r4,r6
 1805030:	280ad07a 	srli	r5,r5,1
 1805034:	2109883a 	add	r4,r4,r4
 1805038:	11fff91e 	bne	r2,r7,1805020 <__divsf3+0xec>
 180503c:	19401fcc 	andi	r5,r3,127
 1805040:	00801004 	movi	r2,64
 1805044:	28800a26 	beq	r5,r2,1805070 <__divsf3+0x13c>
 1805048:	d8c00515 	stw	r3,20(sp)
 180504c:	003fd506 	br	1804fa4 <__divsf3+0x70>
 1805050:	8809883a 	mov	r4,r17
 1805054:	d9800215 	stw	r6,8(sp)
 1805058:	18063b40 	call	18063b4 <__pack_f>
 180505c:	dfc00c17 	ldw	ra,48(sp)
 1805060:	dc400b17 	ldw	r17,44(sp)
 1805064:	dc000a17 	ldw	r16,40(sp)
 1805068:	dec00d04 	addi	sp,sp,52
 180506c:	f800283a 	ret
 1805070:	1880200c 	andi	r2,r3,128
 1805074:	103ff41e 	bne	r2,zero,1805048 <__divsf3+0x114>
 1805078:	203ff326 	beq	r4,zero,1805048 <__divsf3+0x114>
 180507c:	1947883a 	add	r3,r3,r5
 1805080:	00bfe004 	movi	r2,-128
 1805084:	1886703a 	and	r3,r3,r2
 1805088:	d8c00515 	stw	r3,20(sp)
 180508c:	003fc506 	br	1804fa4 <__divsf3+0x70>
 1805090:	8009883a 	mov	r4,r16
 1805094:	003fc406 	br	1804fa8 <__divsf3+0x74>
 1805098:	8809883a 	mov	r4,r17
 180509c:	d8000515 	stw	zero,20(sp)
 18050a0:	d8000415 	stw	zero,16(sp)
 18050a4:	003fc006 	br	1804fa8 <__divsf3+0x74>

018050a8 <__floatsisf>:
 18050a8:	2006d7fa 	srli	r3,r4,31
 18050ac:	defffa04 	addi	sp,sp,-24
 18050b0:	008000c4 	movi	r2,3
 18050b4:	dfc00515 	stw	ra,20(sp)
 18050b8:	dc000415 	stw	r16,16(sp)
 18050bc:	d8800015 	stw	r2,0(sp)
 18050c0:	d8c00115 	stw	r3,4(sp)
 18050c4:	2000081e 	bne	r4,zero,18050e8 <__floatsisf+0x40>
 18050c8:	00800084 	movi	r2,2
 18050cc:	d8800015 	stw	r2,0(sp)
 18050d0:	d809883a 	mov	r4,sp
 18050d4:	18063b40 	call	18063b4 <__pack_f>
 18050d8:	dfc00517 	ldw	ra,20(sp)
 18050dc:	dc000417 	ldw	r16,16(sp)
 18050e0:	dec00604 	addi	sp,sp,24
 18050e4:	f800283a 	ret
 18050e8:	00800784 	movi	r2,30
 18050ec:	1807003a 	cmpeq	r3,r3,zero
 18050f0:	d8800215 	stw	r2,8(sp)
 18050f4:	18000e1e 	bne	r3,zero,1805130 <__floatsisf+0x88>
 18050f8:	00a00034 	movhi	r2,32768
 18050fc:	20800e26 	beq	r4,r2,1805138 <__floatsisf+0x90>
 1805100:	0121c83a 	sub	r16,zero,r4
 1805104:	8009883a 	mov	r4,r16
 1805108:	dc000315 	stw	r16,12(sp)
 180510c:	18063340 	call	1806334 <__clzsi2>
 1805110:	117fffc4 	addi	r5,r2,-1
 1805114:	017fee0e 	bge	zero,r5,18050d0 <__floatsisf+0x28>
 1805118:	d8800217 	ldw	r2,8(sp)
 180511c:	8146983a 	sll	r3,r16,r5
 1805120:	1145c83a 	sub	r2,r2,r5
 1805124:	d8c00315 	stw	r3,12(sp)
 1805128:	d8800215 	stw	r2,8(sp)
 180512c:	003fe806 	br	18050d0 <__floatsisf+0x28>
 1805130:	2021883a 	mov	r16,r4
 1805134:	003ff306 	br	1805104 <__floatsisf+0x5c>
 1805138:	00b3c034 	movhi	r2,52992
 180513c:	003fe606 	br	18050d8 <__floatsisf+0x30>

01805140 <__extendsfdf2>:
 1805140:	defff904 	addi	sp,sp,-28
 1805144:	d9000115 	stw	r4,4(sp)
 1805148:	d9400204 	addi	r5,sp,8
 180514c:	d9000104 	addi	r4,sp,4
 1805150:	dfc00615 	stw	ra,24(sp)
 1805154:	18065140 	call	1806514 <__unpack_f>
 1805158:	d9c00517 	ldw	r7,20(sp)
 180515c:	0011883a 	mov	r8,zero
 1805160:	400697ba 	slli	r3,r8,30
 1805164:	3812d0ba 	srli	r9,r7,2
 1805168:	380497ba 	slli	r2,r7,30
 180516c:	d9000217 	ldw	r4,8(sp)
 1805170:	d9400317 	ldw	r5,12(sp)
 1805174:	d9800417 	ldw	r6,16(sp)
 1805178:	48c6b03a 	or	r3,r9,r3
 180517c:	100f883a 	mov	r7,r2
 1805180:	d8c00015 	stw	r3,0(sp)
 1805184:	18060a40 	call	18060a4 <__make_dp>
 1805188:	dfc00617 	ldw	ra,24(sp)
 180518c:	dec00704 	addi	sp,sp,28
 1805190:	f800283a 	ret

01805194 <_fpadd_parts>:
 1805194:	defff804 	addi	sp,sp,-32
 1805198:	dcc00315 	stw	r19,12(sp)
 180519c:	2027883a 	mov	r19,r4
 18051a0:	21000017 	ldw	r4,0(r4)
 18051a4:	00c00044 	movi	r3,1
 18051a8:	dd400515 	stw	r21,20(sp)
 18051ac:	dd000415 	stw	r20,16(sp)
 18051b0:	ddc00715 	stw	r23,28(sp)
 18051b4:	dd800615 	stw	r22,24(sp)
 18051b8:	dc800215 	stw	r18,8(sp)
 18051bc:	dc400115 	stw	r17,4(sp)
 18051c0:	dc000015 	stw	r16,0(sp)
 18051c4:	282b883a 	mov	r21,r5
 18051c8:	3029883a 	mov	r20,r6
 18051cc:	1900632e 	bgeu	r3,r4,180535c <_fpadd_parts+0x1c8>
 18051d0:	28800017 	ldw	r2,0(r5)
 18051d4:	1880812e 	bgeu	r3,r2,18053dc <_fpadd_parts+0x248>
 18051d8:	00c00104 	movi	r3,4
 18051dc:	20c0dc26 	beq	r4,r3,1805550 <_fpadd_parts+0x3bc>
 18051e0:	10c07e26 	beq	r2,r3,18053dc <_fpadd_parts+0x248>
 18051e4:	00c00084 	movi	r3,2
 18051e8:	10c06726 	beq	r2,r3,1805388 <_fpadd_parts+0x1f4>
 18051ec:	20c07b26 	beq	r4,r3,18053dc <_fpadd_parts+0x248>
 18051f0:	9dc00217 	ldw	r23,8(r19)
 18051f4:	28c00217 	ldw	r3,8(r5)
 18051f8:	9c400317 	ldw	r17,12(r19)
 18051fc:	2bc00317 	ldw	r15,12(r5)
 1805200:	b8cdc83a 	sub	r6,r23,r3
 1805204:	9c800417 	ldw	r18,16(r19)
 1805208:	2c000417 	ldw	r16,16(r5)
 180520c:	3009883a 	mov	r4,r6
 1805210:	30009716 	blt	r6,zero,1805470 <_fpadd_parts+0x2dc>
 1805214:	00800fc4 	movi	r2,63
 1805218:	11806b16 	blt	r2,r6,18053c8 <_fpadd_parts+0x234>
 180521c:	0100a40e 	bge	zero,r4,18054b0 <_fpadd_parts+0x31c>
 1805220:	35bff804 	addi	r22,r6,-32
 1805224:	b000bc16 	blt	r22,zero,1805518 <_fpadd_parts+0x384>
 1805228:	8596d83a 	srl	r11,r16,r22
 180522c:	0019883a 	mov	r12,zero
 1805230:	0013883a 	mov	r9,zero
 1805234:	01000044 	movi	r4,1
 1805238:	0015883a 	mov	r10,zero
 180523c:	b000be16 	blt	r22,zero,1805538 <_fpadd_parts+0x3a4>
 1805240:	2590983a 	sll	r8,r4,r22
 1805244:	000f883a 	mov	r7,zero
 1805248:	00bfffc4 	movi	r2,-1
 180524c:	3889883a 	add	r4,r7,r2
 1805250:	408b883a 	add	r5,r8,r2
 1805254:	21cd803a 	cmpltu	r6,r4,r7
 1805258:	314b883a 	add	r5,r6,r5
 180525c:	7904703a 	and	r2,r15,r4
 1805260:	8146703a 	and	r3,r16,r5
 1805264:	10c4b03a 	or	r2,r2,r3
 1805268:	10000226 	beq	r2,zero,1805274 <_fpadd_parts+0xe0>
 180526c:	02400044 	movi	r9,1
 1805270:	0015883a 	mov	r10,zero
 1805274:	5a5eb03a 	or	r15,r11,r9
 1805278:	62a0b03a 	or	r16,r12,r10
 180527c:	99400117 	ldw	r5,4(r19)
 1805280:	a8800117 	ldw	r2,4(r21)
 1805284:	28806e26 	beq	r5,r2,1805440 <_fpadd_parts+0x2ac>
 1805288:	28006626 	beq	r5,zero,1805424 <_fpadd_parts+0x290>
 180528c:	7c45c83a 	sub	r2,r15,r17
 1805290:	7889803a 	cmpltu	r4,r15,r2
 1805294:	8487c83a 	sub	r3,r16,r18
 1805298:	1909c83a 	sub	r4,r3,r4
 180529c:	100d883a 	mov	r6,r2
 18052a0:	200f883a 	mov	r7,r4
 18052a4:	38007716 	blt	r7,zero,1805484 <_fpadd_parts+0x2f0>
 18052a8:	a5c00215 	stw	r23,8(r20)
 18052ac:	a1c00415 	stw	r7,16(r20)
 18052b0:	a0000115 	stw	zero,4(r20)
 18052b4:	a1800315 	stw	r6,12(r20)
 18052b8:	a2000317 	ldw	r8,12(r20)
 18052bc:	a2400417 	ldw	r9,16(r20)
 18052c0:	00bfffc4 	movi	r2,-1
 18052c4:	408b883a 	add	r5,r8,r2
 18052c8:	2a09803a 	cmpltu	r4,r5,r8
 18052cc:	488d883a 	add	r6,r9,r2
 18052d0:	01c40034 	movhi	r7,4096
 18052d4:	39ffffc4 	addi	r7,r7,-1
 18052d8:	218d883a 	add	r6,r4,r6
 18052dc:	39801736 	bltu	r7,r6,180533c <_fpadd_parts+0x1a8>
 18052e0:	31c06526 	beq	r6,r7,1805478 <_fpadd_parts+0x2e4>
 18052e4:	a3000217 	ldw	r12,8(r20)
 18052e8:	4209883a 	add	r4,r8,r8
 18052ec:	00bfffc4 	movi	r2,-1
 18052f0:	220f803a 	cmpltu	r7,r4,r8
 18052f4:	4a4b883a 	add	r5,r9,r9
 18052f8:	394f883a 	add	r7,r7,r5
 18052fc:	2095883a 	add	r10,r4,r2
 1805300:	3897883a 	add	r11,r7,r2
 1805304:	510d803a 	cmpltu	r6,r10,r4
 1805308:	6099883a 	add	r12,r12,r2
 180530c:	32d7883a 	add	r11,r6,r11
 1805310:	00840034 	movhi	r2,4096
 1805314:	10bfffc4 	addi	r2,r2,-1
 1805318:	2011883a 	mov	r8,r4
