
LCDTest.elf:     file format elf32-littlenios2
LCDTest.elf
architecture: nios2, flags 0x00000112:
EXEC_P, HAS_SYMS, D_PAGED
start address 0x01800000

Program Header:
    LOAD off    0x00001000 vaddr 0x01800000 paddr 0x01800000 align 2**12
         filesz 0x00008234 memsz 0x000084e4 flags rwx
    LOAD off    0x0000a000 vaddr 0x02400000 paddr 0x02400000 align 2**12
         filesz 0x00000000 memsz 0x00000000 flags r-x
    LOAD off    0x0000a020 vaddr 0x02808020 paddr 0x02808020 align 2**12
         filesz 0x0000020c memsz 0x0000020c flags r-x

Sections:
Idx Name          Size      VMA       LMA       File off  Algn
  0 .entry        00000000  02400000  02400000  0000a000  2**5
                  CONTENTS, ALLOC, LOAD, READONLY, CODE
  1 .exceptions   0000020c  02808020  02808020  0000a020  2**2
                  CONTENTS, ALLOC, LOAD, READONLY, CODE
  2 .text         000065f4  01800000  01800000  00001000  2**2
                  CONTENTS, ALLOC, LOAD, READONLY, CODE
  3 .rodata       00000340  018065f4  018065f4  000075f4  2**2
                  CONTENTS, ALLOC, LOAD, READONLY, DATA
  4 .rwdata       00001900  01806934  01806934  00007934  2**2
                  CONTENTS, ALLOC, LOAD, DATA, SMALL_DATA
  5 .bss          000002b0  01808234  01808234  00009234  2**2
                  ALLOC, SMALL_DATA
  6 .comment      00000026  00000000  00000000  0000a22c  2**0
                  CONTENTS, READONLY
  7 .debug_aranges 000006d8  00000000  00000000  0000a258  2**3
                  CONTENTS, READONLY, DEBUGGING
  8 .debug_pubnames 00000e2d  00000000  00000000  0000a930  2**0
                  CONTENTS, READONLY, DEBUGGING
  9 .debug_info   000111ae  00000000  00000000  0000b75d  2**0
                  CONTENTS, READONLY, DEBUGGING
 10 .debug_abbrev 0000372e  00000000  00000000  0001c90b  2**0
                  CONTENTS, READONLY, DEBUGGING
 11 .debug_line   00009b7e  00000000  00000000  00020039  2**0
                  CONTENTS, READONLY, DEBUGGING
 12 .debug_frame  00000fc0  00000000  00000000  00029bb8  2**2
                  CONTENTS, READONLY, DEBUGGING
 13 .debug_str    00000ec4  00000000  00000000  0002ab78  2**0
                  CONTENTS, READONLY, DEBUGGING
 14 .debug_loc    00001828  00000000  00000000  0002ba3c  2**0
                  CONTENTS, READONLY, DEBUGGING
 15 .debug_alt_sim_info 00000050  00000000  00000000  0002d264  2**2
                  CONTENTS, READONLY, DEBUGGING
 16 .debug_ranges 00000070  00000000  00000000  0002d2b8  2**3
                  CONTENTS, READONLY, DEBUGGING
 17 .thread_model 00000003  00000000  00000000  0002f8fd  2**0
                  CONTENTS, READONLY
 18 .cpu          00000003  00000000  00000000  0002f900  2**0
                  CONTENTS, READONLY
 19 .simulation_enabled 00000001  00000000  00000000  0002f903  2**0
                  CONTENTS, READONLY
 20 .sysid_hash   00000004  00000000  00000000  0002f904  2**0
                  CONTENTS, READONLY
 21 .sysid_base   00000004  00000000  00000000  0002f908  2**0
                  CONTENTS, READONLY
 22 .sysid_time   00000004  00000000  00000000  0002f90c  2**0
                  CONTENTS, READONLY
 23 .stderr_dev   00000009  00000000  00000000  0002f910  2**0
                  CONTENTS, READONLY
 24 .stdin_dev    00000009  00000000  00000000  0002f919  2**0
                  CONTENTS, READONLY
 25 .stdout_dev   00000009  00000000  00000000  0002f922  2**0
                  CONTENTS, READONLY
 26 .sopc_system_name 00000008  00000000  00000000  0002f92b  2**0
                  CONTENTS, READONLY
 27 .quartus_project_dir 00000036  00000000  00000000  0002f933  2**0
                  CONTENTS, READONLY
 28 .jdi          00004101  00000000  00000000  0002f969  2**0
                  CONTENTS, READONLY
SYMBOL TABLE:
02400000 l    d  .entry	00000000 .entry
02808020 l    d  .exceptions	00000000 .exceptions
01800000 l    d  .text	00000000 .text
018065f4 l    d  .rodata	00000000 .rodata
01806934 l    d  .rwdata	00000000 .rwdata
01808234 l    d  .bss	00000000 .bss
00000000 l    d  .comment	00000000 .comment
00000000 l    d  .debug_aranges	00000000 .debug_aranges
00000000 l    d  .debug_pubnames	00000000 .debug_pubnames
00000000 l    d  .debug_info	00000000 .debug_info
00000000 l    d  .debug_abbrev	00000000 .debug_abbrev
00000000 l    d  .debug_line	00000000 .debug_line
00000000 l    d  .debug_frame	00000000 .debug_frame
00000000 l    d  .debug_str	00000000 .debug_str
00000000 l    d  .debug_loc	00000000 .debug_loc
00000000 l    d  .debug_alt_sim_info	00000000 .debug_alt_sim_info
00000000 l    d  .debug_ranges	00000000 .debug_ranges
01800044 l       .text	00000000 alt_after_alt_main
00000000 l    df *ABS*	00000000 alt_irq_handler.c
00000000 l    df *ABS*	00000000 alt_instruction_exception_entry.c
00000000 l    df *ABS*	00000000 hello_world.c
00000000 l    df *ABS*	00000000 memset.c
00000000 l    df *ABS*	00000000 alt_main.c
00000000 l    df *ABS*	00000000 alt_sys_init.c
01806934 l     O .rwdata	000000d8 cfi_flash
01806a0c l     O .rwdata	00001060 jtag_uart
01807a6c l     O .rwdata	00000120 lcd
01807b8c l     O .rwdata	000000c4 uart
01800294 l     F .text	00000038 alt_dev_reg
00000000 l    df *ABS*	00000000 altera_avalon_cfi_flash.c
01800368 l     F .text	00000038 alt_flash_device_register
00000000 l    df *ABS*	00000000 altera_avalon_cfi_flash_table.c
01801168 l     F .text	0000007c alt_read_16bit_query_entry
00000000 l    df *ABS*	00000000 altera_avalon_jtag_uart_fd.c
00000000 l    df *ABS*	00000000 altera_avalon_jtag_uart_init.c
018021f4 l     F .text	00000228 altera_avalon_jtag_uart_irq
0180241c l     F .text	000000b0 altera_avalon_jtag_uart_timeout
00000000 l    df *ABS*	00000000 altera_avalon_jtag_uart_ioctl.c
00000000 l    df *ABS*	00000000 altera_avalon_jtag_uart_read.c
00000000 l    df *ABS*	00000000 altera_avalon_jtag_uart_write.c
00000000 l    df *ABS*	00000000 altera_avalon_lcd_16207.c
018081f8 l     O .rwdata	00000004 colstart
01802a98 l     F .text	000000b8 lcd_write_command
01802b50 l     F .text	000000d4 lcd_write_data
01802c24 l     F .text	000000c4 lcd_clear_screen
01802ce8 l     F .text	000001ec lcd_repaint_screen
01802ed4 l     F .text	000000c8 lcd_scroll_up
01802f9c l     F .text	000002d0 lcd_handle_escape
01803770 l     F .text	000000cc alt_lcd_16207_timeout
00000000 l    df *ABS*	00000000 altera_avalon_lcd_16207_fd.c
00000000 l    df *ABS*	00000000 altera_avalon_timer_sc.c
018039d0 l     F .text	00000070 alt_avalon_timer_sc_irq
00000000 l    df *ABS*	00000000 altera_avalon_uart_fd.c
00000000 l    df *ABS*	00000000 altera_avalon_uart_init.c
01803c90 l     F .text	0000009c altera_avalon_uart_irq
01803d2c l     F .text	000000e0 altera_avalon_uart_rxirq
01803e0c l     F .text	0000015c altera_avalon_uart_txirq
00000000 l    df *ABS*	00000000 altera_avalon_uart_read.c
018041f8 l     F .text	00000060 alt_get_errno
00000000 l    df *ABS*	00000000 altera_avalon_uart_write.c
01804420 l     F .text	00000060 alt_get_errno
00000000 l    df *ABS*	00000000 alt_alarm_start.c
00000000 l    df *ABS*	00000000 alt_close.c
018046d0 l     F .text	00000060 alt_get_errno
00000000 l    df *ABS*	00000000 alt_dcache_flush.c
00000000 l    df *ABS*	00000000 alt_dev.c
018047a8 l     F .text	0000002c alt_dev_null_write
00000000 l    df *ABS*	00000000 alt_dev_llist_insert.c
01804888 l     F .text	00000060 alt_get_errno
00000000 l    df *ABS*	00000000 alt_do_ctors.c
00000000 l    df *ABS*	00000000 alt_do_dtors.c
00000000 l    df *ABS*	00000000 alt_errno.c
00000000 l    df *ABS*	00000000 alt_flash_dev.c
00000000 l    df *ABS*	00000000 alt_iic.c
00000000 l    df *ABS*	00000000 alt_iic_isr_register.c
00000000 l    df *ABS*	00000000 alt_io_redirect.c
01804d4c l     F .text	000000c4 alt_open_fd
00000000 l    df *ABS*	00000000 alt_irq_vars.c
00000000 l    df *ABS*	00000000 alt_open.c
01804e88 l     F .text	000000dc alt_file_locked
018050ec l     F .text	00000060 alt_get_errno
00000000 l    df *ABS*	00000000 alt_release_fd.c
00000000 l    df *ABS*	00000000 alt_tick.c
00000000 l    df *ABS*	00000000 alt_usleep.c
00000000 l    df *ABS*	00000000 altera_nios2_irq.c
00000000 l    df *ABS*	00000000 altera_avalon_cfi_flash_amd.c
01805744 l     F .text	000000bc alt_write_word_amd
01805620 l     F .text	00000124 alt_wait_for_command_to_complete_amd
00000000 l    df *ABS*	00000000 altera_avalon_cfi_flash_intel.c
018059f8 l     F .text	0000018c alt_unlock_block_intel
01805b84 l     F .text	000000dc alt_write_word_intel
00000000 l    df *ABS*	00000000 alt_busy_sleep.c
00000000 l    df *ABS*	00000000 alt_find_dev.c
00000000 l    df *ABS*	00000000 alt_find_file.c
00000000 l    df *ABS*	00000000 alt_get_fd.c
00000000 l    df *ABS*	00000000 atexit.c
00000000 l    df *ABS*	00000000 ctype_.c
018067ad l     O .rodata	00000180 _ctype_b
00000000 l    df *ABS*	00000000 exit.c
00000000 l    df *ABS*	00000000 impure.c
01807df8 l     O .rwdata	00000400 impure_data
00000000 l    df *ABS*	00000000 int_errno.c
00000000 l    df *ABS*	00000000 memcmp.c
00000000 l    df *ABS*	00000000 memcpy.c
00000000 l    df *ABS*	00000000 strlen.c
00000000 l    df *ABS*	00000000 __atexit.c
00000000 l    df *ABS*	00000000 __call_atexit.c
018063dc l     F .text	00000004 register_fini
00000000 l    df *ABS*	00000000 alt_exit.c
01806590 l     F .text	00000040 alt_sim_halt
0180824c g     O .bss	00000004 alt_instruction_exception_handler
01800158 g     F .text	0000006c alt_main
01800c28 g     F .text	00000048 alt_read_query_entry_32bit
01808254 g     O .bss	00000100 alt_irq
018003a0 g     F .text	000002c0 alt_flash_cfi_write
00000000  w      *UND*	00000000 __errno
01800db4 g     F .text	00000048 alt_write_flash_command_32bit_device_16bit_mode
02400000 g     F .entry	00000000 __reset
018008bc g     F .text	000002e8 alt_flash_program_block
01808250 g     O .bss	00000004 errno
01808238 g     O .bss	00000004 alt_argv
018101f8 g       *ABS*	00000000 _gp
01805350 g     F .text	00000030 usleep
01807c78 g     O .rwdata	00000180 alt_fd_list
01805d8c g     F .text	00000094 alt_find_dev
01806194 g     F .text	000000a0 memcpy
01804e10 g     F .text	00000078 alt_io_redirect
018065f4 g       *ABS*	00000000 __DTOR_END__
01805ff8 g     F .text	000000dc alt_exception_cause_generated_bad_addr
01805380 g     F .text	00000020 altera_nios2_irq_init
01802634 g     F .text	00000224 altera_avalon_jtag_uart_read
00000000  w      *UND*	00000000 malloc
01805800 g     F .text	00000084 alt_program_intel
01804730 g     F .text	00000078 alt_dcache_flush
0180820c g     O .rwdata	00000004 alt_max_fd
01800ba4 g     F .text	00000040 alt_read_query_entry_8bit
01805884 g     F .text	00000174 alt_erase_block_intel
01808230 g     O .rwdata	00000004 _global_impure_ptr
018084e4 g       *ABS*	00000000 __bss_end
01804c54 g     F .text	000000f8 alt_iic_isr_register
01805244 g     F .text	0000010c alt_tick
01803bc8 g     F .text	000000c8 altera_avalon_uart_init
01808228 g     O .rwdata	00000004 __ctype_ptr
01804c0c g     F .text	00000048 alt_ic_irq_enabled
018051ac g     F .text	00000098 alt_alarm_stop
01808240 g     O .bss	00000004 alt_irq_active
02808000 g       *ABS*	00000000 __alt_mem_onchip_mem
028080fc g     F .exceptions	000000c8 alt_irq_handler
01807c50 g     O .rwdata	00000028 alt_dev_null
018010bc g     F .text	000000ac alt_set_flash_algorithm_func
01800c70 g     F .text	0000003c alt_write_flash_command_8bit_device_8bit_mode
01808204 g     O .rwdata	00000008 alt_dev_list
01801f10 g     F .text	000000dc alt_check_primary_table
018006f0 g     F .text	00000068 alt_flash_cfi_read
01800e44 g     F .text	00000034 alt_write_native_8bit
018084e4 g       *ABS*	00000000 end
01800cac g     F .text	0000007c alt_write_flash_command_16bit_device_8bit_mode
0180326c g     F .text	00000504 altera_avalon_lcd_16207_write
01804258 g     F .text	000001c8 altera_avalon_uart_write
018011e4 g     F .text	00000580 alt_read_cfi_table
01802134 g     F .text	000000c0 altera_avalon_jtag_uart_init
028081c4 g     F .exceptions	00000068 alt_instruction_exception_entry
018065f0 g       *ABS*	00000000 __CTOR_LIST__
02000000 g       *ABS*	00000000 __alt_stack_pointer
01803a40 g     F .text	00000090 alt_avalon_timer_sc_init
01803b28 g     F .text	00000058 altera_avalon_uart_write_fd
01803b80 g     F .text	00000048 altera_avalon_uart_close_fd
01802858 g     F .text	00000240 altera_avalon_jtag_uart_write
018002cc g     F .text	0000009c alt_flash_cfi_init
018063e0 g     F .text	000001b0 __call_exitprocs
01800000 g     F .text	00000048 _start
01808244 g     O .bss	00000004 _alt_tick_rate
01808248 g     O .bss	00000004 _alt_nticks
018001f8 g     F .text	0000009c alt_sys_init
018062a8 g     F .text	00000134 __register_exitproc
01800be4 g     F .text	00000044 alt_read_query_entry_16bit
018024cc g     F .text	00000074 altera_avalon_jtag_uart_close
01800edc g     F .text	000001e0 alt_set_flash_width_func
01801fec g     F .text	00000058 altera_avalon_jtag_uart_read_fd
01805f40 g     F .text	000000b8 alt_get_fd
01805c60 g     F .text	0000012c alt_busy_sleep
01805408 g     F .text	00000218 alt_erase_block_amd
01806120 g     F .text	00000074 memcmp
0180209c g     F .text	00000048 altera_avalon_jtag_uart_close_fd
018084e4 g       *ABS*	00000000 __alt_stack_base
018020e4 g     F .text	00000050 altera_avalon_jtag_uart_ioctl_fd
01801764 g     F .text	000007ac alt_read_cfi_width
01805e20 g     F .text	00000120 alt_find_file
018047d4 g     F .text	000000b4 alt_dev_llist_insert
01808214 g     O .rwdata	00000008 alt_flash_dev_list
01800d70 g     F .text	00000044 alt_write_flash_command_16bit_device_16bit_mode
01808234 g       *ABS*	00000000 __bss_start
018000c0 g     F .text	00000098 memset
01800048 g     F .text	00000078 main
0180823c g     O .bss	00000004 alt_envp
01802044 g     F .text	00000058 altera_avalon_jtag_uart_write_fd
0180383c g     F .text	0000013c altera_avalon_lcd_16207_init
01808354 g     O .bss	00000190 _atexit0
01808210 g     O .rwdata	00000004 alt_errno
01800dfc g     F .text	00000048 alt_write_flash_command_32bit_device_32bit_mode
01800758 g     F .text	00000164 alt_write_value_to_flash
01800e78 g     F .text	00000034 alt_write_native_16bit
02400000 g       *ABS*	00000000 __alt_mem_cfi_flash
018065f4 g       *ABS*	00000000 __CTOR_END__
018065f4 g       *ABS*	00000000 __DTOR_LIST__
018001c4 g     F .text	00000034 alt_irq_init
0180514c g     F .text	00000060 alt_release_fd
018060d4 g     F .text	00000014 atexit
0180822c g     O .rwdata	00000004 _impure_ptr
01808234 g     O .bss	00000004 alt_argc
0180494c g     F .text	00000064 _do_dtors
02808020 g       .exceptions	00000000 alt_irq_entry
01803978 g     F .text	00000058 altera_avalon_lcd_16207_write_fd
018081fc g     O .rwdata	00000008 alt_fs_list
01800d28 g     F .text	00000048 alt_write_flash_command_32bit_device_8bit_mode
01804a80 g     F .text	00000050 alt_ic_isr_register
01808234 g       *ABS*	00000000 _edata
01803ad0 g     F .text	00000058 altera_avalon_uart_read_fd
018084e4 g       *ABS*	00000000 _end
018049b0 g     F .text	0000007c alt_flash_open_dev
01802540 g     F .text	000000f4 altera_avalon_jtag_uart_ioctl
01804b6c g     F .text	000000a0 alt_ic_irq_disable
018060e8 g     F .text	00000038 exit
01804a2c g     F .text	00000054 alt_flash_close_dev
02000000 g       *ABS*	00000000 __alt_data_end
02808020 g     F .exceptions	00000000 alt_exception
01800000 g       *ABS*	00000000 __alt_mem_sdram
018066ac g     O .rodata	00000101 _ctype_
01803f68 g     F .text	00000060 altera_avalon_uart_close
018065d0 g     F .text	00000020 _exit
01804480 g     F .text	00000154 alt_alarm_start
01800eac g     F .text	00000030 alt_write_native_32bit
01806234 g     F .text	00000074 strlen
01804f64 g     F .text	00000188 open
01800660 g     F .text	00000090 alt_flash_cfi_get_info
0180821c g     O .rwdata	00000004 alt_priority_mask
01804ad0 g     F .text	0000009c alt_ic_irq_enable
01803fc8 g     F .text	00000230 altera_avalon_uart_read
01808220 g     O .rwdata	00000008 alt_alarm_list
018048e8 g     F .text	00000064 _do_ctors
018045d4 g     F .text	000000fc close
018053a0 g     F .text	00000068 alt_program_amd
00000000  w      *UND*	00000000 free



Disassembly of section .exceptions:

02808020 <alt_exception>:
         * Process an exception.  For all exceptions we must preserve all
         * caller saved registers on the stack (See the Nios2 ABI
         * documentation for details).
         */

        addi  sp, sp, -76
 2808020:	deffed04 	addi	sp,sp,-76

#endif

#endif

        stw   ra,  0(sp)
 2808024:	dfc00015 	stw	ra,0(sp)
        /*
         * Leave a gap in the stack frame at 4(sp) for the muldiv handler to
         * store zero into.
         */

        stw   r1,   8(sp)
 2808028:	d8400215 	stw	at,8(sp)
        stw   r2,  12(sp)
 280802c:	d8800315 	stw	r2,12(sp)
        stw   r3,  16(sp)
 2808030:	d8c00415 	stw	r3,16(sp)
        stw   r4,  20(sp)
 2808034:	d9000515 	stw	r4,20(sp)
        stw   r5,  24(sp)
 2808038:	d9400615 	stw	r5,24(sp)
        stw   r6,  28(sp)
 280803c:	d9800715 	stw	r6,28(sp)
        stw   r7,  32(sp)
 2808040:	d9c00815 	stw	r7,32(sp)

        rdctl r5, estatus
 2808044:	000b307a 	rdctl	r5,estatus

        stw   r8,  36(sp)
 2808048:	da000915 	stw	r8,36(sp)
        stw   r9,  40(sp)
 280804c:	da400a15 	stw	r9,40(sp)
        stw   r10, 44(sp)
 2808050:	da800b15 	stw	r10,44(sp)
        stw   r11, 48(sp)
 2808054:	dac00c15 	stw	r11,48(sp)
        stw   r12, 52(sp)
 2808058:	db000d15 	stw	r12,52(sp)
        stw   r13, 56(sp)
 280805c:	db400e15 	stw	r13,56(sp)
        stw   r14, 60(sp)
 2808060:	db800f15 	stw	r14,60(sp)
        stw   r15, 64(sp)
 2808064:	dbc01015 	stw	r15,64(sp)
        /*
         * ea-4 contains the address of the instruction being executed
         * when the exception occured. For interrupt exceptions, we will
         * will be re-issue the isntruction. Store it in 72(sp)
         */
        stw   r5,  68(sp)  /* estatus */
 2808068:	d9401115 	stw	r5,68(sp)
        addi  r15, ea, -4  /* instruction that caused exception */
 280806c:	ebffff04 	addi	r15,ea,-4
        stw   r15,  72(sp)
 2808070:	dbc01215 	stw	r15,72(sp)
#else
        /*
         * Test to see if the exception was a software exception or caused 
         * by an external interrupt, and vector accordingly.
         */
        rdctl r4, ipending
 2808074:	0009313a 	rdctl	r4,ipending
        andi  r2, r5, 1
 2808078:	2880004c 	andi	r2,r5,1
        beq   r2, zero, .Lnot_irq
 280807c:	10000326 	beq	r2,zero,280808c <alt_exception+0x6c>
        beq   r4, zero, .Lnot_irq
 2808080:	20000226 	beq	r4,zero,280808c <alt_exception+0x6c>
        /*
         * Now that all necessary registers have been preserved, call 
         * alt_irq_handler() to process the interrupts.
         */

        call alt_irq_handler
 2808084:	28080fc0 	call	28080fc <alt_irq_handler>

        .section .exceptions.irqreturn, "xa"

        br    .Lexception_exit
 2808088:	00000706 	br	28080a8 <alt_exception+0x88>
         * upon completion, so we write ea (address of instruction *after*
         * the one where the exception occured) into 72(sp). The actual
         * instruction that caused the exception is written in r2, which these
         * handlers will utilize.
         */
        stw   ea,  72(sp)  /* Don't re-issue */
 280808c:	df401215 	stw	ea,72(sp)
        ldw   r2, -4(ea)   /* Instruction that caused exception */
 2808090:	e8bfff17 	ldw	r2,-4(ea)
         * debugger is present) or go into an infinite loop since the
         * handling behavior is undefined; in that case we will not return here.
         */

        /* Load exception-causing address as first argument (r4) */
        addi   r4, ea, -4
 2808094:	e93fff04 	addi	r4,ea,-4

        /* Call the instruction-exception entry */
        call   alt_instruction_exception_entry
 2808098:	28081c40 	call	28081c4 <alt_instruction_exception_entry>
         * instruction
         *
         * Return code was 0: Skip. The instruction after the exception is
         * already stored in 72(sp).
         */
        bne   r2, r0, .Lexception_exit
 280809c:	1000021e 	bne	r2,zero,28080a8 <alt_exception+0x88>

        /*
         * Otherwise, modify 72(sp) to re-issue the instruction that caused the
         * exception.
         */
        addi  r15, ea, -4  /* instruction that caused exception */
 28080a0:	ebffff04 	addi	r15,ea,-4
        stw   r15,  72(sp)
 28080a4:	dbc01215 	stw	r15,72(sp)
        /* 
         * Restore the saved registers, so that all general purpose registers 
         * have been restored to their state at the time the interrupt occured.
         */

        ldw   r5,  68(sp)
 28080a8:	d9401117 	ldw	r5,68(sp)
        ldw   ea,  72(sp)  /* This becomes the PC once eret is executed */
 28080ac:	df401217 	ldw	ea,72(sp)
        ldw   ra,   0(sp)
 28080b0:	dfc00017 	ldw	ra,0(sp)

        wrctl estatus, r5
 28080b4:	2801707a 	wrctl	estatus,r5

        ldw   r1,   8(sp)
 28080b8:	d8400217 	ldw	at,8(sp)
        ldw   r2,  12(sp)
 28080bc:	d8800317 	ldw	r2,12(sp)
        ldw   r3,  16(sp)
 28080c0:	d8c00417 	ldw	r3,16(sp)
        ldw   r4,  20(sp)
 28080c4:	d9000517 	ldw	r4,20(sp)
        ldw   r5,  24(sp)
 28080c8:	d9400617 	ldw	r5,24(sp)
        ldw   r6,  28(sp)
 28080cc:	d9800717 	ldw	r6,28(sp)
        ldw   r7,  32(sp)
 28080d0:	d9c00817 	ldw	r7,32(sp)
#ifdef ALT_STACK_CHECK
        ldw   et, %gprel(alt_exception_old_stack_limit)(gp)
#endif
#endif

        ldw   r8,  36(sp)
 28080d4:	da000917 	ldw	r8,36(sp)
        ldw   r9,  40(sp)
 28080d8:	da400a17 	ldw	r9,40(sp)
        ldw   r10, 44(sp)
 28080dc:	da800b17 	ldw	r10,44(sp)
        ldw   r11, 48(sp)
 28080e0:	dac00c17 	ldw	r11,48(sp)
        ldw   r12, 52(sp)
 28080e4:	db000d17 	ldw	r12,52(sp)
        ldw   r13, 56(sp)
 28080e8:	db400e17 	ldw	r13,56(sp)
        ldw   r14, 60(sp)
 28080ec:	db800f17 	ldw	r14,60(sp)
        ldw   r15, 64(sp)
 28080f0:	dbc01017 	ldw	r15,64(sp)
#endif

        ldw   sp,  76(sp)

#else
        addi  sp, sp, 76
 28080f4:	dec01304 	addi	sp,sp,76

        /*
         * Return to the interrupted instruction.
         */

        eret
 28080f8:	ef80083a 	eret

028080fc <alt_irq_handler>:
 * instruction is present if the macro ALT_CI_INTERRUPT_VECTOR defined.
 */

void alt_irq_handler (void) __attribute__ ((section (".exceptions")));
void alt_irq_handler (void)
{
 28080fc:	defff904 	addi	sp,sp,-28
 2808100:	dfc00615 	stw	ra,24(sp)
 2808104:	df000515 	stw	fp,20(sp)
 2808108:	df000504 	addi	fp,sp,20
#ifndef NIOS2_EIC_PRESENT
static ALT_INLINE alt_u32 ALT_ALWAYS_INLINE alt_irq_pending (void)
{
  alt_u32 active;

  NIOS2_READ_IPENDING (active);
 280810c:	0005313a 	rdctl	r2,ipending
 2808110:	e0bffc15 	stw	r2,-16(fp)

  return active;
 2808114:	e0bffc17 	ldw	r2,-16(fp)
   * Consider the case where the high priority interupt is asserted during
   * the interrupt entry sequence for a lower priority interrupt to see why
   * this is the case.
   */

  active = alt_irq_pending ();
 2808118:	e0bfff15 	stw	r2,-4(fp)

  do
  {
    i = 0;
 280811c:	e03ffd15 	stw	zero,-12(fp)
    mask = 1;
 2808120:	00800044 	movi	r2,1
 2808124:	e0bffe15 	stw	r2,-8(fp)
     * called to clear the interrupt condition.
     */

    do
    {
      if (active & mask)
 2808128:	e0ffff17 	ldw	r3,-4(fp)
 280812c:	e0bffe17 	ldw	r2,-8(fp)
 2808130:	1884703a 	and	r2,r3,r2
 2808134:	1005003a 	cmpeq	r2,r2,zero
 2808138:	1000161e 	bne	r2,zero,2808194 <alt_irq_handler+0x98>
      { 
#ifdef ALT_ENHANCED_INTERRUPT_API_PRESENT
        alt_irq[i].handler(alt_irq[i].context); 
 280813c:	e0bffd17 	ldw	r2,-12(fp)
 2808140:	00c06074 	movhi	r3,385
 2808144:	18e09504 	addi	r3,r3,-32172
 2808148:	100490fa 	slli	r2,r2,3
 280814c:	10c5883a 	add	r2,r2,r3
 2808150:	11400017 	ldw	r5,0(r2)
 2808154:	e0bffd17 	ldw	r2,-12(fp)
 2808158:	00c06074 	movhi	r3,385
 280815c:	18e09504 	addi	r3,r3,-32172
 2808160:	100490fa 	slli	r2,r2,3
 2808164:	10c5883a 	add	r2,r2,r3
 2808168:	10800104 	addi	r2,r2,4
 280816c:	11000017 	ldw	r4,0(r2)
 2808170:	283ee83a 	callr	r5
#ifndef NIOS2_EIC_PRESENT
static ALT_INLINE alt_u32 ALT_ALWAYS_INLINE alt_irq_pending (void)
{
  alt_u32 active;

  NIOS2_READ_IPENDING (active);
 2808174:	0005313a 	rdctl	r2,ipending
 2808178:	e0bffb15 	stw	r2,-20(fp)

  return active;
 280817c:	e0bffb17 	ldw	r2,-20(fp)
      mask <<= 1;
      i++;

    } while (1);

    active = alt_irq_pending ();
 2808180:	e0bfff15 	stw	r2,-4(fp)
    
  } while (active);
 2808184:	e0bfff17 	ldw	r2,-4(fp)
 2808188:	1004c03a 	cmpne	r2,r2,zero
 280818c:	103fe31e 	bne	r2,zero,280811c <alt_irq_handler+0x20>
 2808190:	00000706 	br	28081b0 <alt_irq_handler+0xb4>
#else
        alt_irq[i].handler(alt_irq[i].context, i); 
#endif
        break;
      }
      mask <<= 1;
 2808194:	e0bffe17 	ldw	r2,-8(fp)
 2808198:	1085883a 	add	r2,r2,r2
 280819c:	e0bffe15 	stw	r2,-8(fp)
      i++;
 28081a0:	e0bffd17 	ldw	r2,-12(fp)
 28081a4:	10800044 	addi	r2,r2,1
 28081a8:	e0bffd15 	stw	r2,-12(fp)

    } while (1);
 28081ac:	003fde06 	br	2808128 <alt_irq_handler+0x2c>
  /*
   * Notify the operating system that interrupt processing is complete.
   */ 

  ALT_OS_INT_EXIT();
}
 28081b0:	e037883a 	mov	sp,fp
 28081b4:	dfc00117 	ldw	ra,4(sp)
 28081b8:	df000017 	ldw	fp,0(sp)
 28081bc:	dec00204 	addi	sp,sp,8
 28081c0:	f800283a 	ret

028081c4 <alt_instruction_exception_entry>:
 * using alt_instruction_exception_register(). This routine will call
 * that handler if it has been registered. Absent a handler, it will
 * break break or hang as discussed below.
 */
int alt_instruction_exception_entry (alt_u32 exception_pc)
{
 28081c4:	defffa04 	addi	sp,sp,-24
 28081c8:	dfc00515 	stw	ra,20(sp)
 28081cc:	df000415 	stw	fp,16(sp)
 28081d0:	df000404 	addi	fp,sp,16
 28081d4:	e13ffe15 	stw	r4,-8(fp)
  cause = ( (cause & NIOS2_EXCEPTION_REG_CAUSE_MASK) >>
              NIOS2_EXCEPTION_REG_CAUSE_OFST );

  NIOS2_READ_BADADDR(badaddr);
#else
  cause = NIOS2_EXCEPTION_CAUSE_NOT_PRESENT;
 28081d8:	00bfffc4 	movi	r2,-1
 28081dc:	e0bffd15 	stw	r2,-12(fp)
  badaddr = 0;
 28081e0:	e03ffc15 	stw	zero,-16(fp)
#endif /* NIOS2_HAS_EXTRA_EXCEPTION_INFO */

  if(alt_instruction_exception_handler) {
 28081e4:	d0a01517 	ldw	r2,-32684(gp)
 28081e8:	1005003a 	cmpeq	r2,r2,zero
 28081ec:	1000071e 	bne	r2,zero,280820c <alt_instruction_exception_entry+0x48>
     * Call handler. Its return value indicates whether the exception-causing
     * instruction should be re-issued. The code that called us,
     * alt_eceptions_entry.S, will look at this value and adjust the ea
     * register as necessary
     */
    return alt_instruction_exception_handler(cause, exception_pc, badaddr);
 28081f0:	d0a01517 	ldw	r2,-32684(gp)
 28081f4:	e13ffd17 	ldw	r4,-12(fp)
 28081f8:	e17ffe17 	ldw	r5,-8(fp)
 28081fc:	e1bffc17 	ldw	r6,-16(fp)
 2808200:	103ee83a 	callr	r2
 2808204:	e0bfff15 	stw	r2,-4(fp)
 2808208:	00000206 	br	2808214 <alt_instruction_exception_entry+0x50>
   *    (a peripheral which negates its interrupt output before its
   *    interrupt handler has been executed will cause spurious interrupts)
   */
  else {
#ifdef NIOS2_HAS_DEBUG_STUB
    NIOS2_BREAK();
 280820c:	003da03a 	break	0
      ;
#endif /* NIOS2_HAS_DEBUG_STUB */
  }

  /* // We should not get here. Remove compiler warning. */
  return NIOS2_EXCEPTION_RETURN_REISSUE_INST;
 2808210:	e03fff15 	stw	zero,-4(fp)
 2808214:	e0bfff17 	ldw	r2,-4(fp)
}
 2808218:	e037883a 	mov	sp,fp
 280821c:	dfc00117 	ldw	ra,4(sp)
 2808220:	df000017 	ldw	fp,0(sp)
 2808224:	dec00204 	addi	sp,sp,8
 2808228:	f800283a 	ret

Disassembly of section .text:

01800000 <_start>:

    /* Assume the data cache size is always a power of two. */
#if NIOS2_DCACHE_SIZE > 0x8000
    movhi r2, %hi(NIOS2_DCACHE_SIZE)
#else
    movui r2, NIOS2_DCACHE_SIZE
 1800000:	00840014 	movui	r2,4096
#endif

0:
    initd 0(r2)
 1800004:	10000033 	initd	0(r2)
    addi r2, r2, -NIOS2_DCACHE_LINE_SIZE
 1800008:	10bff804 	addi	r2,r2,-32
    bgt r2, zero, 0b
 180000c:	00bffd16 	blt	zero,r2,1800004 <_start+0x4>
#if (NIOS2_NUM_OF_SHADOW_REG_SETS == 0)    
    /*
     * Now that the caches are initialized, set up the stack pointer.
     * The value provided by the linker is assumed to be correctly aligned.
     */
    movhi sp, %hi(__alt_stack_pointer)
 1800010:	06c08034 	movhi	sp,512
    ori sp, sp, %lo(__alt_stack_pointer)
 1800014:	dec00014 	ori	sp,sp,0

    /* Set up the global pointer. */
    movhi gp, %hi(_gp)
 1800018:	06806074 	movhi	gp,385
    ori gp, gp, %lo(_gp)
 180001c:	d6807e14 	ori	gp,gp,504
 */
#ifndef ALT_SIM_OPTIMIZE
    /* Log that the BSS is about to be cleared. */
    ALT_LOG_PUTS(alt_log_msg_bss)

    movhi r2, %hi(__bss_start)
 1800020:	00806034 	movhi	r2,384
    ori r2, r2, %lo(__bss_start)
 1800024:	10a08d14 	ori	r2,r2,33332

    movhi r3, %hi(__bss_end)
 1800028:	00c06034 	movhi	r3,384
    ori r3, r3, %lo(__bss_end)
 180002c:	18e13914 	ori	r3,r3,34020

    beq r2, r3, 1f
 1800030:	10c00326 	beq	r2,r3,1800040 <_start+0x40>

0:
    stw zero, (r2)
 1800034:	10000015 	stw	zero,0(r2)
    addi r2, r2, 4
 1800038:	10800104 	addi	r2,r2,4
    bltu r2, r3, 0b
 180003c:	10fffd36 	bltu	r2,r3,1800034 <_start+0x34>

    /* Log that alt_main is about to be called. */
    ALT_LOG_PUTS(alt_log_msg_alt_main)

    /* Call the C entry point. It should never return. */
    call alt_main
 1800040:	18001580 	call	1800158 <alt_main>

01800044 <alt_after_alt_main>:

    /* Wait in infinite loop in case alt_main does return. */
alt_after_alt_main:
    br alt_after_alt_main
 1800044:	003fff06 	br	1800044 <alt_after_alt_main>

01800048 <main>:
#include "altera_avalon_lcd_16207.h"
#include "altera_avalon_pio_regs.h"
#include "HAL/inc/sys/alt_sys_init.h"

int main()
{
 1800048:	deffe204 	addi	sp,sp,-120
 180004c:	dfc01d15 	stw	ra,116(sp)
 1800050:	df001c15 	stw	fp,112(sp)
 1800054:	df001c04 	addi	fp,sp,112
	alt_sys_init();
 1800058:	18001f80 	call	18001f8 <alt_sys_init>
	FILE *lcd_d = 0;
 180005c:	e03fe615 	stw	zero,-104(fp)
	char matt_Has_No_Penis[100] = "Hello";
 1800060:	00c06034 	movhi	r3,384
 1800064:	18d97d04 	addi	r3,r3,26100
 1800068:	18800017 	ldw	r2,0(r3)
 180006c:	e0bfe715 	stw	r2,-100(fp)
 1800070:	1880010b 	ldhu	r2,4(r3)
 1800074:	e0bfe80d 	sth	r2,-96(fp)
 1800078:	e13fe884 	addi	r4,fp,-94
 180007c:	01801784 	movi	r6,94
 1800080:	000b883a 	mov	r5,zero
 1800084:	18000c00 	call	18000c0 <memset>
	char *ptr = &matt_Has_No_Penis;
 1800088:	e0bfe704 	addi	r2,fp,-100
 180008c:	e0bfe515 	stw	r2,-108(fp)
	//char* point_To_Start = matt_Has_No_Penis[0];
	int len = 5;
 1800090:	00800144 	movi	r2,5
 1800094:	e0bfe415 	stw	r2,-112(fp)
	//lcd_d = fopen("LCD_NAME", "w");
	//printf("adrgfdfsdrfafaeaeraeraeraserserseertaert4tq34tqyHello Steve");
	altera_avalon_lcd_16207_write_fd(lcd_d, ptr, len);
 1800098:	e13fe617 	ldw	r4,-104(fp)
 180009c:	e17fe517 	ldw	r5,-108(fp)
 18000a0:	e1bfe417 	ldw	r6,-112(fp)
 18000a4:	18039780 	call	1803978 <altera_avalon_lcd_16207_write_fd>

 // printf("Hello from Nios II!\n");

  return 0;
 18000a8:	0005883a 	mov	r2,zero
}
 18000ac:	e037883a 	mov	sp,fp
 18000b0:	dfc00117 	ldw	ra,4(sp)
 18000b4:	df000017 	ldw	fp,0(sp)
 18000b8:	dec00204 	addi	sp,sp,8
 18000bc:	f800283a 	ret

018000c0 <memset>:
 18000c0:	008000c4 	movi	r2,3
 18000c4:	29403fcc 	andi	r5,r5,255
 18000c8:	2007883a 	mov	r3,r4
 18000cc:	1180022e 	bgeu	r2,r6,18000d8 <memset+0x18>
 18000d0:	2084703a 	and	r2,r4,r2
 18000d4:	10000826 	beq	r2,zero,18000f8 <memset+0x38>
 18000d8:	30000526 	beq	r6,zero,18000f0 <memset+0x30>
 18000dc:	2805883a 	mov	r2,r5
 18000e0:	30cd883a 	add	r6,r6,r3
 18000e4:	18800005 	stb	r2,0(r3)
 18000e8:	18c00044 	addi	r3,r3,1
 18000ec:	19bffd1e 	bne	r3,r6,18000e4 <memset+0x24>
 18000f0:	2005883a 	mov	r2,r4
 18000f4:	f800283a 	ret
 18000f8:	2804923a 	slli	r2,r5,8
 18000fc:	020003c4 	movi	r8,15
 1800100:	200f883a 	mov	r7,r4
 1800104:	2884b03a 	or	r2,r5,r2
 1800108:	1006943a 	slli	r3,r2,16
 180010c:	10c6b03a 	or	r3,r2,r3
 1800110:	41800a2e 	bgeu	r8,r6,180013c <memset+0x7c>
 1800114:	4005883a 	mov	r2,r8
 1800118:	31bffc04 	addi	r6,r6,-16
 180011c:	38c00015 	stw	r3,0(r7)
 1800120:	38c00115 	stw	r3,4(r7)
 1800124:	38c00215 	stw	r3,8(r7)
 1800128:	38c00315 	stw	r3,12(r7)
 180012c:	39c00404 	addi	r7,r7,16
 1800130:	11bff936 	bltu	r2,r6,1800118 <memset+0x58>
 1800134:	008000c4 	movi	r2,3
 1800138:	1180052e 	bgeu	r2,r6,1800150 <memset+0x90>
 180013c:	31bfff04 	addi	r6,r6,-4
 1800140:	008000c4 	movi	r2,3
 1800144:	38c00015 	stw	r3,0(r7)
 1800148:	39c00104 	addi	r7,r7,4
 180014c:	11bffb36 	bltu	r2,r6,180013c <memset+0x7c>
 1800150:	3807883a 	mov	r3,r7
 1800154:	003fe006 	br	18000d8 <memset+0x18>

01800158 <alt_main>:
 * devices/filesystems/components in the system; and call the entry point for
 * the users application, i.e. main().
 */

void alt_main (void)
{
 1800158:	defffd04 	addi	sp,sp,-12
 180015c:	dfc00215 	stw	ra,8(sp)
 1800160:	df000115 	stw	fp,4(sp)
 1800164:	df000104 	addi	fp,sp,4
#endif

  /* ALT LOG - please see HAL/sys/alt_log_printf.h for details */
  ALT_LOG_PRINT_BOOT("[alt_main.c] Entering alt_main, calling alt_irq_init.\r\n");
  /* Initialize the interrupt controller. */
  alt_irq_init (NULL);
 1800168:	0009883a 	mov	r4,zero
 180016c:	18001c40 	call	18001c4 <alt_irq_init>
  ALT_LOG_PRINT_BOOT("[alt_main.c] Done OS Init, calling alt_sem_create.\r\n");
  ALT_SEM_CREATE (&alt_fd_list_lock, 1);

  /* Initialize the device drivers/software components. */
  ALT_LOG_PRINT_BOOT("[alt_main.c] Calling alt_sys_init.\r\n");
  alt_sys_init();
 1800170:	18001f80 	call	18001f8 <alt_sys_init>
   * devices be present (not equal to /dev/null) and if direct drivers
   * aren't being used.
   */

    ALT_LOG_PRINT_BOOT("[alt_main.c] Redirecting IO.\r\n");
    alt_io_redirect(ALT_STDOUT, ALT_STDIN, ALT_STDERR);
 1800174:	01006034 	movhi	r4,384
 1800178:	21199604 	addi	r4,r4,26200
 180017c:	01406034 	movhi	r5,384
 1800180:	29599604 	addi	r5,r5,26200
 1800184:	01806034 	movhi	r6,384
 1800188:	31999604 	addi	r6,r6,26200
 180018c:	1804e100 	call	1804e10 <alt_io_redirect>
  /* 
   * Call the C++ constructors 
   */

  ALT_LOG_PRINT_BOOT("[alt_main.c] Calling C++ constructors.\r\n");
  _do_ctors ();
 1800190:	18048e80 	call	18048e8 <_do_ctors>
   * redefined as _exit()). This is in the interest of reducing code footprint,
   * in that the atexit() overhead is removed when it's not needed.
   */

  ALT_LOG_PRINT_BOOT("[alt_main.c] Calling atexit.\r\n");
  atexit (_do_dtors);
 1800194:	01006034 	movhi	r4,384
 1800198:	21125304 	addi	r4,r4,18764
 180019c:	18060d40 	call	18060d4 <atexit>
  ALT_LOG_PRINT_BOOT("[alt_main.c] Calling main.\r\n");

#ifdef ALT_NO_EXIT
  main (alt_argc, alt_argv, alt_envp);
#else
  result = main (alt_argc, alt_argv, alt_envp);
 18001a0:	d1200f17 	ldw	r4,-32708(gp)
 18001a4:	d1601017 	ldw	r5,-32704(gp)
 18001a8:	d1a01117 	ldw	r6,-32700(gp)
 18001ac:	18000480 	call	1800048 <main>
 18001b0:	e0bfff15 	stw	r2,-4(fp)
  close(STDOUT_FILENO);
 18001b4:	01000044 	movi	r4,1
 18001b8:	18045d40 	call	18045d4 <close>
  exit (result);
 18001bc:	e13fff17 	ldw	r4,-4(fp)
 18001c0:	18060e80 	call	18060e8 <exit>

018001c4 <alt_irq_init>:
 * The "base" parameter is ignored and only
 * present for backwards-compatibility.
 */

void alt_irq_init ( const void* base )
{
 18001c4:	defffd04 	addi	sp,sp,-12
 18001c8:	dfc00215 	stw	ra,8(sp)
 18001cc:	df000115 	stw	fp,4(sp)
 18001d0:	df000104 	addi	fp,sp,4
 18001d4:	e13fff15 	stw	r4,-4(fp)
    ALTERA_NIOS2_IRQ_INIT ( CPU, cpu);
 18001d8:	18053800 	call	1805380 <altera_nios2_irq_init>
 * alt_irq_cpu_enable_interrupts() enables the CPU to start taking interrupts.
 */
static ALT_INLINE void ALT_ALWAYS_INLINE 
       alt_irq_cpu_enable_interrupts ()
{
    NIOS2_WRITE_STATUS(NIOS2_STATUS_PIE_MSK
 18001dc:	00800044 	movi	r2,1
 18001e0:	1001703a 	wrctl	status,r2
    alt_irq_cpu_enable_interrupts();
}
 18001e4:	e037883a 	mov	sp,fp
 18001e8:	dfc00117 	ldw	ra,4(sp)
 18001ec:	df000017 	ldw	fp,0(sp)
 18001f0:	dec00204 	addi	sp,sp,8
 18001f4:	f800283a 	ret

018001f8 <alt_sys_init>:
 * Initialize the non-interrupt controller devices.
 * Called after alt_irq_init().
 */

void alt_sys_init( void )
{
 18001f8:	defffe04 	addi	sp,sp,-8
 18001fc:	dfc00115 	stw	ra,4(sp)
 1800200:	df000015 	stw	fp,0(sp)
 1800204:	d839883a 	mov	fp,sp
    ALTERA_AVALON_TIMER_INIT ( PROFILE_TIMER, profile_timer);
 1800208:	0009883a 	mov	r4,zero
 180020c:	000b883a 	mov	r5,zero
 1800210:	01800144 	movi	r6,5
 1800214:	01d38804 	movi	r7,20000
 1800218:	1803a400 	call	1803a40 <alt_avalon_timer_sc_init>
    ALTERA_AVALON_TIMER_INIT ( TIMER, timer);
    ALTERA_AVALON_TIMER_INIT ( USER_TIMER, user_timer);
    ALTERA_AVALON_CFI_FLASH_INIT ( CFI_FLASH, cfi_flash);
 180021c:	01006034 	movhi	r4,384
 1800220:	211a4d04 	addi	r4,r4,26932
 1800224:	18002cc0 	call	18002cc <alt_flash_cfi_init>
    ALTERA_AVALON_JTAG_UART_INIT ( JTAG_UART, jtag_uart);
 1800228:	01006034 	movhi	r4,384
 180022c:	211a8d04 	addi	r4,r4,27188
 1800230:	000b883a 	mov	r5,zero
 1800234:	000d883a 	mov	r6,zero
 1800238:	18021340 	call	1802134 <altera_avalon_jtag_uart_init>
 180023c:	01006034 	movhi	r4,384
 1800240:	211a8304 	addi	r4,r4,27148
 1800244:	18002940 	call	1800294 <alt_dev_reg>
    ALTERA_AVALON_LCD_16207_INIT ( LCD, lcd);
 1800248:	01006034 	movhi	r4,384
 180024c:	211ea504 	addi	r4,r4,31380
 1800250:	180383c0 	call	180383c <altera_avalon_lcd_16207_init>
 1800254:	01006034 	movhi	r4,384
 1800258:	211e9b04 	addi	r4,r4,31340
 180025c:	18002940 	call	1800294 <alt_dev_reg>
    ALTERA_AVALON_SYSID_INIT ( SYSID, sysid);
    ALTERA_AVALON_UART_INIT ( UART, uart);
 1800260:	01006034 	movhi	r4,384
 1800264:	211eed04 	addi	r4,r4,31668
 1800268:	000b883a 	mov	r5,zero
 180026c:	01800044 	movi	r6,1
 1800270:	1803bc80 	call	1803bc8 <altera_avalon_uart_init>
 1800274:	01006034 	movhi	r4,384
 1800278:	211ee304 	addi	r4,r4,31628
 180027c:	18002940 	call	1800294 <alt_dev_reg>
}
 1800280:	e037883a 	mov	sp,fp
 1800284:	dfc00117 	ldw	ra,4(sp)
 1800288:	df000017 	ldw	fp,0(sp)
 180028c:	dec00204 	addi	sp,sp,8
 1800290:	f800283a 	ret

01800294 <alt_dev_reg>:
 */

extern int alt_fs_reg  (alt_dev* dev); 

static ALT_INLINE int alt_dev_reg (alt_dev* dev)
{
 1800294:	defffd04 	addi	sp,sp,-12
 1800298:	dfc00215 	stw	ra,8(sp)
 180029c:	df000115 	stw	fp,4(sp)
 18002a0:	df000104 	addi	fp,sp,4
 18002a4:	e13fff15 	stw	r4,-4(fp)
  extern alt_llist alt_dev_list;

  return alt_dev_llist_insert ((alt_dev_llist*) dev, &alt_dev_list);
 18002a8:	e13fff17 	ldw	r4,-4(fp)
 18002ac:	01406074 	movhi	r5,385
 18002b0:	29608104 	addi	r5,r5,-32252
 18002b4:	18047d40 	call	18047d4 <alt_dev_llist_insert>
}
 18002b8:	e037883a 	mov	sp,fp
 18002bc:	dfc00117 	ldw	ra,4(sp)
 18002c0:	df000017 	ldw	fp,0(sp)
 18002c4:	dec00204 	addi	sp,sp,8
 18002c8:	f800283a 	ret

018002cc <alt_flash_cfi_init>:
 * Read the CFI table and fill out the alt_flash_cfi_dev structure with all the 
 * information we need to program the flash.
 * 
 */
int alt_flash_cfi_init( alt_flash_cfi_dev* flash  )
{
 18002cc:	defffc04 	addi	sp,sp,-16
 18002d0:	dfc00315 	stw	ra,12(sp)
 18002d4:	df000215 	stw	fp,8(sp)
 18002d8:	df000204 	addi	fp,sp,8
 18002dc:	e13fff15 	stw	r4,-4(fp)
  int ret_code = 0;
 18002e0:	e03ffe15 	stw	zero,-8(fp)
 
  ret_code = alt_read_cfi_width( flash );
 18002e4:	e13fff17 	ldw	r4,-4(fp)
 18002e8:	18017640 	call	1801764 <alt_read_cfi_width>
 18002ec:	e0bffe15 	stw	r2,-8(fp)
  
  if (!ret_code)
 18002f0:	e0bffe17 	ldw	r2,-8(fp)
 18002f4:	1004c03a 	cmpne	r2,r2,zero
 18002f8:	1000031e 	bne	r2,zero,1800308 <alt_flash_cfi_init+0x3c>
    ret_code = alt_set_flash_width_func( flash );
 18002fc:	e13fff17 	ldw	r4,-4(fp)
 1800300:	1800edc0 	call	1800edc <alt_set_flash_width_func>
 1800304:	e0bffe15 	stw	r2,-8(fp)
  
  if (!ret_code)
 1800308:	e0bffe17 	ldw	r2,-8(fp)
 180030c:	1004c03a 	cmpne	r2,r2,zero
 1800310:	1000031e 	bne	r2,zero,1800320 <alt_flash_cfi_init+0x54>
    ret_code = alt_read_cfi_table( flash );
 1800314:	e13fff17 	ldw	r4,-4(fp)
 1800318:	18011e40 	call	18011e4 <alt_read_cfi_table>
 180031c:	e0bffe15 	stw	r2,-8(fp)

  if (!ret_code) 
 1800320:	e0bffe17 	ldw	r2,-8(fp)
 1800324:	1004c03a 	cmpne	r2,r2,zero
 1800328:	1000031e 	bne	r2,zero,1800338 <alt_flash_cfi_init+0x6c>
    ret_code = alt_set_flash_algorithm_func( flash);
 180032c:	e13fff17 	ldw	r4,-4(fp)
 1800330:	18010bc0 	call	18010bc <alt_set_flash_algorithm_func>
 1800334:	e0bffe15 	stw	r2,-8(fp)

  /*
  *  Register this device as a valid flash device type
  */ 
  if (!ret_code)
 1800338:	e0bffe17 	ldw	r2,-8(fp)
 180033c:	1004c03a 	cmpne	r2,r2,zero
 1800340:	1000031e 	bne	r2,zero,1800350 <alt_flash_cfi_init+0x84>
    ret_code = alt_flash_device_register(&(flash->dev));
 1800344:	e13fff17 	ldw	r4,-4(fp)
 1800348:	18003680 	call	1800368 <alt_flash_device_register>
 180034c:	e0bffe15 	stw	r2,-8(fp)
 
  return ret_code;
 1800350:	e0bffe17 	ldw	r2,-8(fp)
}
 1800354:	e037883a 	mov	sp,fp
 1800358:	dfc00117 	ldw	ra,4(sp)
 180035c:	df000017 	ldw	fp,0(sp)
 1800360:	dec00204 	addi	sp,sp,8
 1800364:	f800283a 	ret

01800368 <alt_flash_device_register>:

typedef struct alt_flash_dev alt_flash_dev; 
typedef alt_flash_dev alt_flash_fd;

static ALT_INLINE int alt_flash_device_register( alt_flash_fd* fd)
{
 1800368:	defffd04 	addi	sp,sp,-12
 180036c:	dfc00215 	stw	ra,8(sp)
 1800370:	df000115 	stw	fp,4(sp)
 1800374:	df000104 	addi	fp,sp,4
 1800378:	e13fff15 	stw	r4,-4(fp)
  extern alt_llist alt_flash_dev_list;

  return alt_dev_llist_insert ((alt_dev_llist*) fd, &alt_flash_dev_list);
 180037c:	e13fff17 	ldw	r4,-4(fp)
 1800380:	01406074 	movhi	r5,385
 1800384:	29608504 	addi	r5,r5,-32236
 1800388:	18047d40 	call	18047d4 <alt_dev_llist_insert>
}
 180038c:	e037883a 	mov	sp,fp
 1800390:	dfc00117 	ldw	ra,4(sp)
 1800394:	df000017 	ldw	fp,0(sp)
 1800398:	dec00204 	addi	sp,sp,8
 180039c:	f800283a 	ret

018003a0 <alt_flash_cfi_write>:
 * large buffer to tie up in our programming library, when not all users will 
 * want that functionality.
 */
 int alt_flash_cfi_write( alt_flash_dev* flash_info, int offset, 
                          const void* src_addr, int length )
 {
 18003a0:	deffef04 	addi	sp,sp,-68
 18003a4:	dfc01015 	stw	ra,64(sp)
 18003a8:	df000f15 	stw	fp,60(sp)
 18003ac:	df000f04 	addi	fp,sp,60
 18003b0:	e13ffa15 	stw	r4,-24(fp)
 18003b4:	e17ffb15 	stw	r5,-20(fp)
 18003b8:	e1bffc15 	stw	r6,-16(fp)
 18003bc:	e1fffd15 	stw	r7,-12(fp)
  int         ret_code = 0;
 18003c0:	e03ff915 	stw	zero,-28(fp)
  int         i,j;
  int         data_to_write;
  int         full_length = length;
 18003c4:	e0bffd17 	ldw	r2,-12(fp)
 18003c8:	e0bff515 	stw	r2,-44(fp)
  int         current_offset;
  int         start_offset = offset;
 18003cc:	e0bffb17 	ldw	r2,-20(fp)
 18003d0:	e0bff315 	stw	r2,-52(fp)
  alt_flash_cfi_dev* flash = (alt_flash_cfi_dev*)flash_info;
 18003d4:	e0bffa17 	ldw	r2,-24(fp)
 18003d8:	e0bff215 	stw	r2,-56(fp)

  /*
   * First and foremost which sectors are affected?
   */   
  for(i=0;i<flash->dev.number_of_regions;i++)
 18003dc:	e03ff815 	stw	zero,-32(fp)
 18003e0:	00008e06 	br	180061c <alt_flash_cfi_write+0x27c>
  {
    /* Is it in this erase block region?*/
    if((offset >= flash->dev.region_info[i].offset) &&
 18003e4:	e0bff817 	ldw	r2,-32(fp)
 18003e8:	e0fff217 	ldw	r3,-56(fp)
 18003ec:	1004913a 	slli	r2,r2,4
 18003f0:	10c5883a 	add	r2,r2,r3
 18003f4:	10800d04 	addi	r2,r2,52
 18003f8:	10c00017 	ldw	r3,0(r2)
 18003fc:	e0bffb17 	ldw	r2,-20(fp)
 1800400:	10c08316 	blt	r2,r3,1800610 <alt_flash_cfi_write+0x270>
 1800404:	e0bff817 	ldw	r2,-32(fp)
 1800408:	e0fff217 	ldw	r3,-56(fp)
 180040c:	1004913a 	slli	r2,r2,4
 1800410:	10c5883a 	add	r2,r2,r3
 1800414:	10800d04 	addi	r2,r2,52
 1800418:	11000017 	ldw	r4,0(r2)
 180041c:	e0bff817 	ldw	r2,-32(fp)
 1800420:	e0fff217 	ldw	r3,-56(fp)
 1800424:	1004913a 	slli	r2,r2,4
 1800428:	10c5883a 	add	r2,r2,r3
 180042c:	10800e04 	addi	r2,r2,56
 1800430:	10800017 	ldw	r2,0(r2)
 1800434:	2087883a 	add	r3,r4,r2
 1800438:	e0bffb17 	ldw	r2,-20(fp)
 180043c:	10c0740e 	bge	r2,r3,1800610 <alt_flash_cfi_write+0x270>
      (offset < (flash->dev.region_info[i].offset + 
      flash->dev.region_info[i].region_size)))
    {
      current_offset = flash->dev.region_info[i].offset;
 1800440:	e0bff817 	ldw	r2,-32(fp)
 1800444:	e0fff217 	ldw	r3,-56(fp)
 1800448:	1004913a 	slli	r2,r2,4
 180044c:	10c5883a 	add	r2,r2,r3
 1800450:	10800d04 	addi	r2,r2,52
 1800454:	10800017 	ldw	r2,0(r2)
 1800458:	e0bff415 	stw	r2,-48(fp)

      for(j=0;j<flash->dev.region_info[i].number_of_blocks;j++)
 180045c:	e03ff715 	stw	zero,-36(fp)
 1800460:	00006306 	br	18005f0 <alt_flash_cfi_write+0x250>
      {
        if ((offset >= current_offset ) && 
 1800464:	e0fffb17 	ldw	r3,-20(fp)
 1800468:	e0bff417 	ldw	r2,-48(fp)
 180046c:	18805416 	blt	r3,r2,18005c0 <alt_flash_cfi_write+0x220>
 1800470:	e0bff817 	ldw	r2,-32(fp)
 1800474:	e0fff217 	ldw	r3,-56(fp)
 1800478:	1004913a 	slli	r2,r2,4
 180047c:	10c5883a 	add	r2,r2,r3
 1800480:	10801004 	addi	r2,r2,64
 1800484:	10c00017 	ldw	r3,0(r2)
 1800488:	e0bff417 	ldw	r2,-48(fp)
 180048c:	1887883a 	add	r3,r3,r2
 1800490:	e0bffb17 	ldw	r2,-20(fp)
 1800494:	10c04a0e 	bge	r2,r3,18005c0 <alt_flash_cfi_write+0x220>
        {
          /*
           * Check if the contents of the block are different
           * from the data we wish to put there
           */
          data_to_write = ( current_offset + flash->dev.region_info[i].block_size 
 1800498:	e0bff817 	ldw	r2,-32(fp)
 180049c:	e0fff217 	ldw	r3,-56(fp)
 18004a0:	1004913a 	slli	r2,r2,4
 18004a4:	10c5883a 	add	r2,r2,r3
 18004a8:	10801004 	addi	r2,r2,64
 18004ac:	10c00017 	ldw	r3,0(r2)
 18004b0:	e0bff417 	ldw	r2,-48(fp)
 18004b4:	1887883a 	add	r3,r3,r2
 18004b8:	e0bffb17 	ldw	r2,-20(fp)
 18004bc:	1885c83a 	sub	r2,r3,r2
 18004c0:	e0bff615 	stw	r2,-40(fp)
                            - offset); 
          data_to_write = MIN(data_to_write, length);
 18004c4:	e0bff617 	ldw	r2,-40(fp)
 18004c8:	e0bfff15 	stw	r2,-4(fp)
 18004cc:	e0fffd17 	ldw	r3,-12(fp)
 18004d0:	e0fffe15 	stw	r3,-8(fp)
 18004d4:	e0bfff17 	ldw	r2,-4(fp)
 18004d8:	e0fffe17 	ldw	r3,-8(fp)
 18004dc:	10c0020e 	bge	r2,r3,18004e8 <alt_flash_cfi_write+0x148>
 18004e0:	e0bfff17 	ldw	r2,-4(fp)
 18004e4:	e0bffe15 	stw	r2,-8(fp)
 18004e8:	e0fffe17 	ldw	r3,-8(fp)
 18004ec:	e0fff615 	stw	r3,-40(fp)
          if(memcmp(src_addr, 
 18004f0:	e0bff217 	ldw	r2,-56(fp)
 18004f4:	10800a17 	ldw	r2,40(r2)
 18004f8:	1007883a 	mov	r3,r2
 18004fc:	e0bffb17 	ldw	r2,-20(fp)
 1800500:	188b883a 	add	r5,r3,r2
 1800504:	e1bff617 	ldw	r6,-40(fp)
 1800508:	e13ffc17 	ldw	r4,-16(fp)
 180050c:	18061200 	call	1806120 <memcmp>
 1800510:	1005003a 	cmpeq	r2,r2,zero
 1800514:	1000131e 	bne	r2,zero,1800564 <alt_flash_cfi_write+0x1c4>
                    (alt_u8*)flash->dev.base_addr+offset,
                    data_to_write))
          {
            ret_code = (*flash->dev.erase_block)( &flash->dev, current_offset);
 1800518:	e0bff217 	ldw	r2,-56(fp)
 180051c:	10800817 	ldw	r2,32(r2)
 1800520:	e13ff217 	ldw	r4,-56(fp)
 1800524:	e17ff417 	ldw	r5,-48(fp)
 1800528:	103ee83a 	callr	r2
 180052c:	e0bff915 	stw	r2,-28(fp)

            if (!ret_code)
 1800530:	e0bff917 	ldw	r2,-28(fp)
 1800534:	1004c03a 	cmpne	r2,r2,zero
 1800538:	10000a1e 	bne	r2,zero,1800564 <alt_flash_cfi_write+0x1c4>
            {
              ret_code = (*flash->dev.write_block)( 
 180053c:	e0bff217 	ldw	r2,-56(fp)
 1800540:	10c00917 	ldw	r3,36(r2)
 1800544:	e13ff217 	ldw	r4,-56(fp)
 1800548:	e0bff617 	ldw	r2,-40(fp)
 180054c:	d8800015 	stw	r2,0(sp)
 1800550:	e17ff417 	ldw	r5,-48(fp)
 1800554:	e1bffb17 	ldw	r6,-20(fp)
 1800558:	e1fffc17 	ldw	r7,-16(fp)
 180055c:	183ee83a 	callr	r3
 1800560:	e0bff915 	stw	r2,-28(fp)
                                                  data_to_write);
            }
          }    
    
          /* Was this the last block? */    
          if ((length == data_to_write) || ret_code)
 1800564:	e0fffd17 	ldw	r3,-12(fp)
 1800568:	e0bff617 	ldw	r2,-40(fp)
 180056c:	18802f26 	beq	r3,r2,180062c <alt_flash_cfi_write+0x28c>
 1800570:	e0bff917 	ldw	r2,-28(fp)
 1800574:	1004c03a 	cmpne	r2,r2,zero
 1800578:	10002c1e 	bne	r2,zero,180062c <alt_flash_cfi_write+0x28c>
          {
            goto finished;
          }
          
          length -= data_to_write;
 180057c:	e0fffd17 	ldw	r3,-12(fp)
 1800580:	e0bff617 	ldw	r2,-40(fp)
 1800584:	1885c83a 	sub	r2,r3,r2
 1800588:	e0bffd15 	stw	r2,-12(fp)
          offset = current_offset + flash->dev.region_info[i].block_size;
 180058c:	e0bff817 	ldw	r2,-32(fp)
 1800590:	e0fff217 	ldw	r3,-56(fp)
 1800594:	1004913a 	slli	r2,r2,4
 1800598:	10c5883a 	add	r2,r2,r3
 180059c:	10801004 	addi	r2,r2,64
 18005a0:	10c00017 	ldw	r3,0(r2)
 18005a4:	e0bff417 	ldw	r2,-48(fp)
 18005a8:	1885883a 	add	r2,r3,r2
 18005ac:	e0bffb15 	stw	r2,-20(fp)
          src_addr = (alt_u8*)src_addr + data_to_write;
 18005b0:	e0fffc17 	ldw	r3,-16(fp)
 18005b4:	e0bff617 	ldw	r2,-40(fp)
 18005b8:	1885883a 	add	r2,r3,r2
 18005bc:	e0bffc15 	stw	r2,-16(fp)
        }
        current_offset += flash->dev.region_info[i].block_size;
 18005c0:	e0bff817 	ldw	r2,-32(fp)
 18005c4:	e0fff217 	ldw	r3,-56(fp)
 18005c8:	1004913a 	slli	r2,r2,4
 18005cc:	10c5883a 	add	r2,r2,r3
 18005d0:	10801004 	addi	r2,r2,64
 18005d4:	10c00017 	ldw	r3,0(r2)
 18005d8:	e0bff417 	ldw	r2,-48(fp)
 18005dc:	10c5883a 	add	r2,r2,r3
 18005e0:	e0bff415 	stw	r2,-48(fp)
      (offset < (flash->dev.region_info[i].offset + 
      flash->dev.region_info[i].region_size)))
    {
      current_offset = flash->dev.region_info[i].offset;

      for(j=0;j<flash->dev.region_info[i].number_of_blocks;j++)
 18005e4:	e0bff717 	ldw	r2,-36(fp)
 18005e8:	10800044 	addi	r2,r2,1
 18005ec:	e0bff715 	stw	r2,-36(fp)
 18005f0:	e0bff817 	ldw	r2,-32(fp)
 18005f4:	e0fff217 	ldw	r3,-56(fp)
 18005f8:	1004913a 	slli	r2,r2,4
 18005fc:	10c5883a 	add	r2,r2,r3
 1800600:	10800f04 	addi	r2,r2,60
 1800604:	10c00017 	ldw	r3,0(r2)
 1800608:	e0bff717 	ldw	r2,-36(fp)
 180060c:	10ff9516 	blt	r2,r3,1800464 <alt_flash_cfi_write+0xc4>
  alt_flash_cfi_dev* flash = (alt_flash_cfi_dev*)flash_info;

  /*
   * First and foremost which sectors are affected?
   */   
  for(i=0;i<flash->dev.number_of_regions;i++)
 1800610:	e0bff817 	ldw	r2,-32(fp)
 1800614:	10800044 	addi	r2,r2,1
 1800618:	e0bff815 	stw	r2,-32(fp)
 180061c:	e0bff217 	ldw	r2,-56(fp)
 1800620:	10c00c17 	ldw	r3,48(r2)
 1800624:	e0bff817 	ldw	r2,-32(fp)
 1800628:	10ff6e16 	blt	r2,r3,18003e4 <alt_flash_cfi_write+0x44>
      }     
    } 
  }
finished:    

  alt_dcache_flush((alt_u8*)flash->dev.base_addr+start_offset, full_length);
 180062c:	e0bff217 	ldw	r2,-56(fp)
 1800630:	10800a17 	ldw	r2,40(r2)
 1800634:	1007883a 	mov	r3,r2
 1800638:	e0bff317 	ldw	r2,-52(fp)
 180063c:	1889883a 	add	r4,r3,r2
 1800640:	e17ff517 	ldw	r5,-44(fp)
 1800644:	18047300 	call	1804730 <alt_dcache_flush>
  return ret_code;
 1800648:	e0bff917 	ldw	r2,-28(fp)
}
 180064c:	e037883a 	mov	sp,fp
 1800650:	dfc00117 	ldw	ra,4(sp)
 1800654:	df000017 	ldw	fp,0(sp)
 1800658:	dec00204 	addi	sp,sp,8
 180065c:	f800283a 	ret

01800660 <alt_flash_cfi_get_info>:
 * 
 *  Pass the table of erase blocks to the user
 */
int alt_flash_cfi_get_info( alt_flash_fd* fd, flash_region** info, 
                            int* number_of_regions)
{
 1800660:	defffa04 	addi	sp,sp,-24
 1800664:	df000515 	stw	fp,20(sp)
 1800668:	df000504 	addi	fp,sp,20
 180066c:	e13ffd15 	stw	r4,-12(fp)
 1800670:	e17ffe15 	stw	r5,-8(fp)
 1800674:	e1bfff15 	stw	r6,-4(fp)
  int ret_code = 0;
 1800678:	e03ffc15 	stw	zero,-16(fp)
  alt_flash_dev* flash = (alt_flash_dev*)fd;
 180067c:	e0bffd17 	ldw	r2,-12(fp)
 1800680:	e0bffb15 	stw	r2,-20(fp)

  *number_of_regions = flash->number_of_regions;
 1800684:	e0bffb17 	ldw	r2,-20(fp)
 1800688:	10c00c17 	ldw	r3,48(r2)
 180068c:	e0bfff17 	ldw	r2,-4(fp)
 1800690:	10c00015 	stw	r3,0(r2)

  if (!flash->number_of_regions)
 1800694:	e0bffb17 	ldw	r2,-20(fp)
 1800698:	10800c17 	ldw	r2,48(r2)
 180069c:	1004c03a 	cmpne	r2,r2,zero
 18006a0:	1000031e 	bne	r2,zero,18006b0 <alt_flash_cfi_get_info+0x50>
  {
    ret_code = -EIO;
 18006a4:	00bffec4 	movi	r2,-5
 18006a8:	e0bffc15 	stw	r2,-16(fp)
 18006ac:	00000b06 	br	18006dc <alt_flash_cfi_get_info+0x7c>
  }
  else if (flash->number_of_regions > ALT_MAX_NUMBER_OF_FLASH_REGIONS)
 18006b0:	e0bffb17 	ldw	r2,-20(fp)
 18006b4:	10800c17 	ldw	r2,48(r2)
 18006b8:	10800250 	cmplti	r2,r2,9
 18006bc:	1000031e 	bne	r2,zero,18006cc <alt_flash_cfi_get_info+0x6c>
  {
    ret_code = -ENOMEM;
 18006c0:	00bffd04 	movi	r2,-12
 18006c4:	e0bffc15 	stw	r2,-16(fp)
 18006c8:	00000406 	br	18006dc <alt_flash_cfi_get_info+0x7c>
  }
  else
  {
    *info = &flash->region_info[0];
 18006cc:	e0bffb17 	ldw	r2,-20(fp)
 18006d0:	10c00d04 	addi	r3,r2,52
 18006d4:	e0bffe17 	ldw	r2,-8(fp)
 18006d8:	10c00015 	stw	r3,0(r2)
  }

  return ret_code;
 18006dc:	e0bffc17 	ldw	r2,-16(fp)
}
 18006e0:	e037883a 	mov	sp,fp
 18006e4:	df000017 	ldw	fp,0(sp)
 18006e8:	dec00104 	addi	sp,sp,4
 18006ec:	f800283a 	ret

018006f0 <alt_flash_cfi_read>:
 *  Read from an area in flash, you could use memcopy yourself
 *  for these flash types, but we're trying to be generic and future proof
 */
int alt_flash_cfi_read( alt_flash_dev* flash_info, int offset, 
                        void* dest_addr, int length )
{
 18006f0:	defff904 	addi	sp,sp,-28
 18006f4:	dfc00615 	stw	ra,24(sp)
 18006f8:	df000515 	stw	fp,20(sp)
 18006fc:	df000504 	addi	fp,sp,20
 1800700:	e13ffc15 	stw	r4,-16(fp)
 1800704:	e17ffd15 	stw	r5,-12(fp)
 1800708:	e1bffe15 	stw	r6,-8(fp)
 180070c:	e1ffff15 	stw	r7,-4(fp)
  alt_flash_cfi_dev* flash = (alt_flash_cfi_dev*)flash_info;
 1800710:	e0bffc17 	ldw	r2,-16(fp)
 1800714:	e0bffb15 	stw	r2,-20(fp)
  memcpy(dest_addr, (alt_u8*)flash->dev.base_addr+offset, length);
 1800718:	e0bffb17 	ldw	r2,-20(fp)
 180071c:	10800a17 	ldw	r2,40(r2)
 1800720:	1007883a 	mov	r3,r2
 1800724:	e0bffd17 	ldw	r2,-12(fp)
 1800728:	1887883a 	add	r3,r3,r2
 180072c:	e1bfff17 	ldw	r6,-4(fp)
 1800730:	e0bffe17 	ldw	r2,-8(fp)
 1800734:	1009883a 	mov	r4,r2
 1800738:	180b883a 	mov	r5,r3
 180073c:	18061940 	call	1806194 <memcpy>
  return 0;
 1800740:	0005883a 	mov	r2,zero
}
 1800744:	e037883a 	mov	sp,fp
 1800748:	dfc00117 	ldw	ra,4(sp)
 180074c:	df000017 	ldw	fp,0(sp)
 1800750:	dec00204 	addi	sp,sp,8
 1800754:	f800283a 	ret

01800758 <alt_write_value_to_flash>:
* It writes the largest word size that the flash can support
* so if it's an 8 bit flash it writes bytes
* 16 bit half word etc.
*/
void alt_write_value_to_flash(alt_flash_cfi_dev* flash, int offset, const alt_u8* src_addr)
{
 1800758:	defffa04 	addi	sp,sp,-24
 180075c:	df000515 	stw	fp,20(sp)
 1800760:	df000504 	addi	fp,sp,20
 1800764:	e13ffd15 	stw	r4,-12(fp)
 1800768:	e17ffe15 	stw	r5,-8(fp)
 180076c:	e1bfff15 	stw	r6,-4(fp)
  alt_u16 half_word_value;
  alt_u32 word_value;

  if (flash->mode_width == 1)
 1800770:	e0bffd17 	ldw	r2,-12(fp)
 1800774:	10802e17 	ldw	r2,184(r2)
 1800778:	10800058 	cmpnei	r2,r2,1
 180077c:	10000b1e 	bne	r2,zero,18007ac <alt_write_value_to_flash+0x54>
  {
    IOWR_8DIRECT(flash->dev.base_addr, offset, *src_addr);
 1800780:	e0bffd17 	ldw	r2,-12(fp)
 1800784:	10800a17 	ldw	r2,40(r2)
 1800788:	1007883a 	mov	r3,r2
 180078c:	e0bffe17 	ldw	r2,-8(fp)
 1800790:	1889883a 	add	r4,r3,r2
 1800794:	e0bfff17 	ldw	r2,-4(fp)
 1800798:	10800003 	ldbu	r2,0(r2)
 180079c:	10c03fcc 	andi	r3,r2,255
 18007a0:	2005883a 	mov	r2,r4
 18007a4:	10c00025 	stbio	r3,0(r2)
 18007a8:	00004006 	br	18008ac <alt_write_value_to_flash+0x154>
  }
  else if (flash->mode_width == 2)
 18007ac:	e0bffd17 	ldw	r2,-12(fp)
 18007b0:	10802e17 	ldw	r2,184(r2)
 18007b4:	10800098 	cmpnei	r2,r2,2
 18007b8:	1000151e 	bne	r2,zero,1800810 <alt_write_value_to_flash+0xb8>
  {
    half_word_value = (alt_u16)(*src_addr);
 18007bc:	e0bfff17 	ldw	r2,-4(fp)
 18007c0:	10800003 	ldbu	r2,0(r2)
 18007c4:	10803fcc 	andi	r2,r2,255
 18007c8:	e0bffc0d 	sth	r2,-16(fp)
    half_word_value |= (alt_u16)(*(src_addr + 1)) << 8;
 18007cc:	e0bfff17 	ldw	r2,-4(fp)
 18007d0:	10800044 	addi	r2,r2,1
 18007d4:	10800003 	ldbu	r2,0(r2)
 18007d8:	10803fcc 	andi	r2,r2,255
 18007dc:	1004923a 	slli	r2,r2,8
 18007e0:	1007883a 	mov	r3,r2
 18007e4:	e0bffc0b 	ldhu	r2,-16(fp)
 18007e8:	1884b03a 	or	r2,r3,r2
 18007ec:	e0bffc0d 	sth	r2,-16(fp)
    IOWR_16DIRECT(flash->dev.base_addr, offset, half_word_value);
 18007f0:	e0bffd17 	ldw	r2,-12(fp)
 18007f4:	10800a17 	ldw	r2,40(r2)
 18007f8:	1007883a 	mov	r3,r2
 18007fc:	e0bffe17 	ldw	r2,-8(fp)
 1800800:	1885883a 	add	r2,r3,r2
 1800804:	e0fffc0b 	ldhu	r3,-16(fp)
 1800808:	10c0002d 	sthio	r3,0(r2)
 180080c:	00002706 	br	18008ac <alt_write_value_to_flash+0x154>
  }
  else if (flash->mode_width == 4)
 1800810:	e0bffd17 	ldw	r2,-12(fp)
 1800814:	10802e17 	ldw	r2,184(r2)
 1800818:	10800118 	cmpnei	r2,r2,4
 180081c:	1000231e 	bne	r2,zero,18008ac <alt_write_value_to_flash+0x154>
  {
    word_value = (alt_u32)(*src_addr);
 1800820:	e0bfff17 	ldw	r2,-4(fp)
 1800824:	10800003 	ldbu	r2,0(r2)
 1800828:	10803fcc 	andi	r2,r2,255
 180082c:	e0bffb15 	stw	r2,-20(fp)
    word_value |= ((alt_u32)(*(src_addr + 1)) << 8);
 1800830:	e0bfff17 	ldw	r2,-4(fp)
 1800834:	10800044 	addi	r2,r2,1
 1800838:	10800003 	ldbu	r2,0(r2)
 180083c:	10803fcc 	andi	r2,r2,255
 1800840:	1006923a 	slli	r3,r2,8
 1800844:	e0bffb17 	ldw	r2,-20(fp)
 1800848:	10c4b03a 	or	r2,r2,r3
 180084c:	e0bffb15 	stw	r2,-20(fp)
    word_value |= ((alt_u32)(*(src_addr + 2)) << 16);
 1800850:	e0bfff17 	ldw	r2,-4(fp)
 1800854:	10800084 	addi	r2,r2,2
 1800858:	10800003 	ldbu	r2,0(r2)
 180085c:	10803fcc 	andi	r2,r2,255
 1800860:	1006943a 	slli	r3,r2,16
 1800864:	e0bffb17 	ldw	r2,-20(fp)
 1800868:	10c4b03a 	or	r2,r2,r3
 180086c:	e0bffb15 	stw	r2,-20(fp)
    word_value |= ((alt_u32)(*(src_addr + 3)) << 24);
 1800870:	e0bfff17 	ldw	r2,-4(fp)
 1800874:	108000c4 	addi	r2,r2,3
 1800878:	10800003 	ldbu	r2,0(r2)
 180087c:	10803fcc 	andi	r2,r2,255
 1800880:	1006963a 	slli	r3,r2,24
 1800884:	e0bffb17 	ldw	r2,-20(fp)
 1800888:	10c4b03a 	or	r2,r2,r3
 180088c:	e0bffb15 	stw	r2,-20(fp)
    IOWR_32DIRECT(flash->dev.base_addr, offset, word_value);
 1800890:	e0bffd17 	ldw	r2,-12(fp)
 1800894:	10800a17 	ldw	r2,40(r2)
 1800898:	1007883a 	mov	r3,r2
 180089c:	e0bffe17 	ldw	r2,-8(fp)
 18008a0:	1885883a 	add	r2,r3,r2
 18008a4:	e0fffb17 	ldw	r3,-20(fp)
 18008a8:	10c00035 	stwio	r3,0(r2)
  }

  return;
}
 18008ac:	e037883a 	mov	sp,fp
 18008b0:	df000017 	ldw	fp,0(sp)
 18008b4:	dec00104 	addi	sp,sp,4
 18008b8:	f800283a 	ret

018008bc <alt_flash_program_block>:
*/
int alt_flash_program_block(  alt_flash_cfi_dev* flash, const int offset, 
                        const alt_u8* src_addr, 
                        const int length,
                        alt_program_word_fn program_word_func)
{
 18008bc:	defff304 	addi	sp,sp,-52
 18008c0:	dfc00c15 	stw	ra,48(sp)
 18008c4:	df000b15 	stw	fp,44(sp)
 18008c8:	df000b04 	addi	fp,sp,44
 18008cc:	e13ffc15 	stw	r4,-16(fp)
 18008d0:	e17ffd15 	stw	r5,-12(fp)
 18008d4:	e1bffe15 	stw	r6,-8(fp)
 18008d8:	e1ffff15 	stw	r7,-4(fp)
  int     ret_code = 0;
 18008dc:	e03ffa15 	stw	zero,-24(fp)

  /*
   * First take care of any writes which are on none native boundaries
   * as far as the flash is concerned.
   */
  bytes_to_preserve = ((int)((alt_u8*)flash->dev.base_addr + offset) % 
 18008e0:	e0bffc17 	ldw	r2,-16(fp)
 18008e4:	10800a17 	ldw	r2,40(r2)
 18008e8:	1007883a 	mov	r3,r2
 18008ec:	e0bffd17 	ldw	r2,-12(fp)
 18008f0:	1885883a 	add	r2,r3,r2
 18008f4:	1009883a 	mov	r4,r2
 18008f8:	e0bffc17 	ldw	r2,-16(fp)
 18008fc:	10c02e17 	ldw	r3,184(r2)
 1800900:	20c5283a 	div	r2,r4,r3
 1800904:	10c5383a 	mul	r2,r2,r3
 1800908:	2085c83a 	sub	r2,r4,r2
 180090c:	e0bff915 	stw	r2,-28(fp)
                      flash->mode_width);
  if ( bytes_to_preserve != 0)
 1800910:	e0bff917 	ldw	r2,-28(fp)
 1800914:	1005003a 	cmpeq	r2,r2,zero
 1800918:	10003a1e 	bne	r2,zero,1800a04 <alt_flash_program_block+0x148>
  {
    unaligned_bytes = flash->mode_width - bytes_to_preserve;
 180091c:	e0bffc17 	ldw	r2,-16(fp)
 1800920:	10c02e17 	ldw	r3,184(r2)
 1800924:	e0bff917 	ldw	r2,-28(fp)
 1800928:	1885c83a 	sub	r2,r3,r2
 180092c:	e0bff815 	stw	r2,-32(fp)
    /*
     * Read the bytes we wish to preserve out of flash
     */
    for (i=0;i<bytes_to_preserve;i++)
 1800930:	e03ff615 	stw	zero,-40(fp)
 1800934:	00001206 	br	1800980 <alt_flash_program_block+0xc4>
    {
      unaligned[i] = IORD_8DIRECT(flash->dev.base_addr, 
 1800938:	e17ff617 	ldw	r5,-40(fp)
 180093c:	e0bffc17 	ldw	r2,-16(fp)
 1800940:	10800a17 	ldw	r2,40(r2)
 1800944:	1009883a 	mov	r4,r2
 1800948:	e0fffd17 	ldw	r3,-12(fp)
 180094c:	e0bff917 	ldw	r2,-28(fp)
 1800950:	1887c83a 	sub	r3,r3,r2
 1800954:	e0bff617 	ldw	r2,-40(fp)
 1800958:	1885883a 	add	r2,r3,r2
 180095c:	2085883a 	add	r2,r4,r2
 1800960:	10800023 	ldbuio	r2,0(r2)
 1800964:	1007883a 	mov	r3,r2
 1800968:	e0bffb04 	addi	r2,fp,-20
 180096c:	1145883a 	add	r2,r2,r5
 1800970:	10c00005 	stb	r3,0(r2)
  {
    unaligned_bytes = flash->mode_width - bytes_to_preserve;
    /*
     * Read the bytes we wish to preserve out of flash
     */
    for (i=0;i<bytes_to_preserve;i++)
 1800974:	e0bff617 	ldw	r2,-40(fp)
 1800978:	10800044 	addi	r2,r2,1
 180097c:	e0bff615 	stw	r2,-40(fp)
 1800980:	e0fff617 	ldw	r3,-40(fp)
 1800984:	e0bff917 	ldw	r2,-28(fp)
 1800988:	18bfeb16 	blt	r3,r2,1800938 <alt_flash_program_block+0x7c>
    {
      unaligned[i] = IORD_8DIRECT(flash->dev.base_addr, 
                                offset-bytes_to_preserve+i);
    }

    for (i=0;i<unaligned_bytes;i++)
 180098c:	e03ff615 	stw	zero,-40(fp)
 1800990:	00000e06 	br	18009cc <alt_flash_program_block+0x110>
    {
      unaligned[bytes_to_preserve + i] = *(alt_u8*)(src_addr + i);
 1800994:	e0fff917 	ldw	r3,-28(fp)
 1800998:	e0bff617 	ldw	r2,-40(fp)
 180099c:	1889883a 	add	r4,r3,r2
 18009a0:	e0bff617 	ldw	r2,-40(fp)
 18009a4:	1007883a 	mov	r3,r2
 18009a8:	e0bffe17 	ldw	r2,-8(fp)
 18009ac:	1885883a 	add	r2,r3,r2
 18009b0:	10c00003 	ldbu	r3,0(r2)
 18009b4:	e0bffb04 	addi	r2,fp,-20
 18009b8:	1105883a 	add	r2,r2,r4
 18009bc:	10c00005 	stb	r3,0(r2)
    {
      unaligned[i] = IORD_8DIRECT(flash->dev.base_addr, 
                                offset-bytes_to_preserve+i);
    }

    for (i=0;i<unaligned_bytes;i++)
 18009c0:	e0bff617 	ldw	r2,-40(fp)
 18009c4:	10800044 	addi	r2,r2,1
 18009c8:	e0bff615 	stw	r2,-40(fp)
 18009cc:	e0fff617 	ldw	r3,-40(fp)
 18009d0:	e0bff817 	ldw	r2,-32(fp)
 18009d4:	18bfef16 	blt	r3,r2,1800994 <alt_flash_program_block+0xd8>
    {
      unaligned[bytes_to_preserve + i] = *(alt_u8*)(src_addr + i);
    }
    
    ret_code = (*program_word_func)(flash, offset-bytes_to_preserve, unaligned);
 18009d8:	e0fffd17 	ldw	r3,-12(fp)
 18009dc:	e0bff917 	ldw	r2,-28(fp)
 18009e0:	188bc83a 	sub	r5,r3,r2
 18009e4:	e1bffb04 	addi	r6,fp,-20
 18009e8:	e0800217 	ldw	r2,8(fp)
 18009ec:	e13ffc17 	ldw	r4,-16(fp)
 18009f0:	103ee83a 	callr	r2
 18009f4:	e0bffa15 	stw	r2,-24(fp)
    i = unaligned_bytes;
 18009f8:	e0bff817 	ldw	r2,-32(fp)
 18009fc:	e0bff615 	stw	r2,-40(fp)
 1800a00:	00000106 	br	1800a08 <alt_flash_program_block+0x14c>
  }
  else
  {
    i = 0;
 1800a04:	e03ff615 	stw	zero,-40(fp)
  }

  unaligned_end_bytes = (offset+length) % flash->mode_width;
 1800a08:	e0fffd17 	ldw	r3,-12(fp)
 1800a0c:	e0bfff17 	ldw	r2,-4(fp)
 1800a10:	1889883a 	add	r4,r3,r2
 1800a14:	e0bffc17 	ldw	r2,-16(fp)
 1800a18:	10c02e17 	ldw	r3,184(r2)
 1800a1c:	20c5283a 	div	r2,r4,r3
 1800a20:	10c5383a 	mul	r2,r2,r3
 1800a24:	2085c83a 	sub	r2,r4,r2
 1800a28:	e0bff715 	stw	r2,-36(fp)
  while ((ret_code == 0) && (i < (length-unaligned_end_bytes)))
 1800a2c:	00001006 	br	1800a70 <alt_flash_program_block+0x1b4>
  {
    ret_code = (*program_word_func)(flash, offset+i, src_addr+i);
 1800a30:	e0fffd17 	ldw	r3,-12(fp)
 1800a34:	e0bff617 	ldw	r2,-40(fp)
 1800a38:	188b883a 	add	r5,r3,r2
 1800a3c:	e0bff617 	ldw	r2,-40(fp)
 1800a40:	1007883a 	mov	r3,r2
 1800a44:	e0bffe17 	ldw	r2,-8(fp)
 1800a48:	188d883a 	add	r6,r3,r2
 1800a4c:	e0800217 	ldw	r2,8(fp)
 1800a50:	e13ffc17 	ldw	r4,-16(fp)
 1800a54:	103ee83a 	callr	r2
 1800a58:	e0bffa15 	stw	r2,-24(fp)
    i += flash->mode_width;     
 1800a5c:	e0bffc17 	ldw	r2,-16(fp)
 1800a60:	10c02e17 	ldw	r3,184(r2)
 1800a64:	e0bff617 	ldw	r2,-40(fp)
 1800a68:	10c5883a 	add	r2,r2,r3
 1800a6c:	e0bff615 	stw	r2,-40(fp)
  {
    i = 0;
  }

  unaligned_end_bytes = (offset+length) % flash->mode_width;
  while ((ret_code == 0) && (i < (length-unaligned_end_bytes)))
 1800a70:	e0bffa17 	ldw	r2,-24(fp)
 1800a74:	1004c03a 	cmpne	r2,r2,zero
 1800a78:	1000051e 	bne	r2,zero,1800a90 <alt_flash_program_block+0x1d4>
 1800a7c:	e0ffff17 	ldw	r3,-4(fp)
 1800a80:	e0bff717 	ldw	r2,-36(fp)
 1800a84:	1887c83a 	sub	r3,r3,r2
 1800a88:	e0bff617 	ldw	r2,-40(fp)
 1800a8c:	10ffe816 	blt	r2,r3,1800a30 <alt_flash_program_block+0x174>

  /*
   * Now take care of any writes at the end of the buffer which are on none 
   * native boundaries as far as the flash is concerned.
   */
  if (unaligned_end_bytes && !ret_code)
 1800a90:	e0bff717 	ldw	r2,-36(fp)
 1800a94:	1005003a 	cmpeq	r2,r2,zero
 1800a98:	10003c1e 	bne	r2,zero,1800b8c <alt_flash_program_block+0x2d0>
 1800a9c:	e0bffa17 	ldw	r2,-24(fp)
 1800aa0:	1004c03a 	cmpne	r2,r2,zero
 1800aa4:	1000391e 	bne	r2,zero,1800b8c <alt_flash_program_block+0x2d0>
  {
    bytes_to_preserve = flash->mode_width - unaligned_end_bytes;
 1800aa8:	e0bffc17 	ldw	r2,-16(fp)
 1800aac:	10c02e17 	ldw	r3,184(r2)
 1800ab0:	e0bff717 	ldw	r2,-36(fp)
 1800ab4:	1885c83a 	sub	r2,r3,r2
 1800ab8:	e0bff915 	stw	r2,-28(fp)
    
    for (j=0;j<unaligned_end_bytes;j++)
 1800abc:	e03ff515 	stw	zero,-44(fp)
 1800ac0:	00000e06 	br	1800afc <alt_flash_program_block+0x240>
    {
      unaligned[j] = *(alt_u8*)(src_addr+i+j);
 1800ac4:	e13ff517 	ldw	r4,-44(fp)
 1800ac8:	e0bff617 	ldw	r2,-40(fp)
 1800acc:	1007883a 	mov	r3,r2
 1800ad0:	e0bffe17 	ldw	r2,-8(fp)
 1800ad4:	1887883a 	add	r3,r3,r2
 1800ad8:	e0bff517 	ldw	r2,-44(fp)
 1800adc:	1885883a 	add	r2,r3,r2
 1800ae0:	10c00003 	ldbu	r3,0(r2)
 1800ae4:	e0bffb04 	addi	r2,fp,-20
 1800ae8:	1105883a 	add	r2,r2,r4
 1800aec:	10c00005 	stb	r3,0(r2)
   */
  if (unaligned_end_bytes && !ret_code)
  {
    bytes_to_preserve = flash->mode_width - unaligned_end_bytes;
    
    for (j=0;j<unaligned_end_bytes;j++)
 1800af0:	e0bff517 	ldw	r2,-44(fp)
 1800af4:	10800044 	addi	r2,r2,1
 1800af8:	e0bff515 	stw	r2,-44(fp)
 1800afc:	e0fff517 	ldw	r3,-44(fp)
 1800b00:	e0bff717 	ldw	r2,-36(fp)
 1800b04:	18bfef16 	blt	r3,r2,1800ac4 <alt_flash_program_block+0x208>
    {
      unaligned[j] = *(alt_u8*)(src_addr+i+j);
    }
    
    for (j=0;j<bytes_to_preserve;j++)
 1800b08:	e03ff515 	stw	zero,-44(fp)
 1800b0c:	00001406 	br	1800b60 <alt_flash_program_block+0x2a4>
    {
      unaligned[unaligned_end_bytes+j] = IORD_8DIRECT(flash->dev.base_addr, 
 1800b10:	e0fff717 	ldw	r3,-36(fp)
 1800b14:	e0bff517 	ldw	r2,-44(fp)
 1800b18:	188b883a 	add	r5,r3,r2
 1800b1c:	e0bffc17 	ldw	r2,-16(fp)
 1800b20:	10800a17 	ldw	r2,40(r2)
 1800b24:	1009883a 	mov	r4,r2
 1800b28:	e0fffd17 	ldw	r3,-12(fp)
 1800b2c:	e0bfff17 	ldw	r2,-4(fp)
 1800b30:	1887883a 	add	r3,r3,r2
 1800b34:	e0bff517 	ldw	r2,-44(fp)
 1800b38:	1885883a 	add	r2,r3,r2
 1800b3c:	2085883a 	add	r2,r4,r2
 1800b40:	10800023 	ldbuio	r2,0(r2)
 1800b44:	1007883a 	mov	r3,r2
 1800b48:	e0bffb04 	addi	r2,fp,-20
 1800b4c:	1145883a 	add	r2,r2,r5
 1800b50:	10c00005 	stb	r3,0(r2)
    for (j=0;j<unaligned_end_bytes;j++)
    {
      unaligned[j] = *(alt_u8*)(src_addr+i+j);
    }
    
    for (j=0;j<bytes_to_preserve;j++)
 1800b54:	e0bff517 	ldw	r2,-44(fp)
 1800b58:	10800044 	addi	r2,r2,1
 1800b5c:	e0bff515 	stw	r2,-44(fp)
 1800b60:	e0fff517 	ldw	r3,-44(fp)
 1800b64:	e0bff917 	ldw	r2,-28(fp)
 1800b68:	18bfe916 	blt	r3,r2,1800b10 <alt_flash_program_block+0x254>
    {
      unaligned[unaligned_end_bytes+j] = IORD_8DIRECT(flash->dev.base_addr, 
                                                      offset+length+j);
    }

    ret_code = (*program_word_func)(flash, offset+i, unaligned);      
 1800b6c:	e0fffd17 	ldw	r3,-12(fp)
 1800b70:	e0bff617 	ldw	r2,-40(fp)
 1800b74:	188b883a 	add	r5,r3,r2
 1800b78:	e1bffb04 	addi	r6,fp,-20
 1800b7c:	e0800217 	ldw	r2,8(fp)
 1800b80:	e13ffc17 	ldw	r4,-16(fp)
 1800b84:	103ee83a 	callr	r2
 1800b88:	e0bffa15 	stw	r2,-24(fp)
  }

  return ret_code;
 1800b8c:	e0bffa17 	ldw	r2,-24(fp)
}
 1800b90:	e037883a 	mov	sp,fp
 1800b94:	dfc00117 	ldw	ra,4(sp)
 1800b98:	df000017 	ldw	fp,0(sp)
 1800b9c:	dec00204 	addi	sp,sp,8
 1800ba0:	f800283a 	ret

01800ba4 <alt_read_query_entry_8bit>:

/*
 *  Read an 8 bit value from the CFI query table in flash
 */
alt_u8 alt_read_query_entry_8bit( alt_flash_cfi_dev* flash, int address)
{
 1800ba4:	defffd04 	addi	sp,sp,-12
 1800ba8:	df000215 	stw	fp,8(sp)
 1800bac:	df000204 	addi	fp,sp,8
 1800bb0:	e13ffe15 	stw	r4,-8(fp)
 1800bb4:	e17fff15 	stw	r5,-4(fp)
  return IORD_8DIRECT((alt_u8*)flash->dev.base_addr, address);
 1800bb8:	e0bffe17 	ldw	r2,-8(fp)
 1800bbc:	10800a17 	ldw	r2,40(r2)
 1800bc0:	1007883a 	mov	r3,r2
 1800bc4:	e0bfff17 	ldw	r2,-4(fp)
 1800bc8:	1885883a 	add	r2,r3,r2
 1800bcc:	10800023 	ldbuio	r2,0(r2)
 1800bd0:	10803fcc 	andi	r2,r2,255
}
 1800bd4:	e037883a 	mov	sp,fp
 1800bd8:	df000017 	ldw	fp,0(sp)
 1800bdc:	dec00104 	addi	sp,sp,4
 1800be0:	f800283a 	ret

01800be4 <alt_read_query_entry_16bit>:

alt_u8 alt_read_query_entry_16bit( alt_flash_cfi_dev* flash, int address)
{
 1800be4:	defffd04 	addi	sp,sp,-12
 1800be8:	df000215 	stw	fp,8(sp)
 1800bec:	df000204 	addi	fp,sp,8
 1800bf0:	e13ffe15 	stw	r4,-8(fp)
 1800bf4:	e17fff15 	stw	r5,-4(fp)
  return (IORD_16DIRECT((alt_u8*)flash->dev.base_addr, address*2) & 0xff);
 1800bf8:	e0bffe17 	ldw	r2,-8(fp)
 1800bfc:	10800a17 	ldw	r2,40(r2)
 1800c00:	1007883a 	mov	r3,r2
 1800c04:	e0bfff17 	ldw	r2,-4(fp)
 1800c08:	1085883a 	add	r2,r2,r2
 1800c0c:	1885883a 	add	r2,r3,r2
 1800c10:	1080002b 	ldhuio	r2,0(r2)
 1800c14:	10803fcc 	andi	r2,r2,255
}
 1800c18:	e037883a 	mov	sp,fp
 1800c1c:	df000017 	ldw	fp,0(sp)
 1800c20:	dec00104 	addi	sp,sp,4
 1800c24:	f800283a 	ret

01800c28 <alt_read_query_entry_32bit>:

alt_u8 alt_read_query_entry_32bit( alt_flash_cfi_dev* flash, int address)
{
 1800c28:	defffd04 	addi	sp,sp,-12
 1800c2c:	df000215 	stw	fp,8(sp)
 1800c30:	df000204 	addi	fp,sp,8
 1800c34:	e13ffe15 	stw	r4,-8(fp)
 1800c38:	e17fff15 	stw	r5,-4(fp)
  return (IORD_32DIRECT((alt_u8*)flash->dev.base_addr, address*4) & 0xff);
 1800c3c:	e0bffe17 	ldw	r2,-8(fp)
 1800c40:	10800a17 	ldw	r2,40(r2)
 1800c44:	1007883a 	mov	r3,r2
 1800c48:	e0bfff17 	ldw	r2,-4(fp)
 1800c4c:	1085883a 	add	r2,r2,r2
 1800c50:	1085883a 	add	r2,r2,r2
 1800c54:	1885883a 	add	r2,r3,r2
 1800c58:	10800037 	ldwio	r2,0(r2)
 1800c5c:	10803fcc 	andi	r2,r2,255
}
 1800c60:	e037883a 	mov	sp,fp
 1800c64:	df000017 	ldw	fp,0(sp)
 1800c68:	dec00104 	addi	sp,sp,4
 1800c6c:	f800283a 	ret

01800c70 <alt_write_flash_command_8bit_device_8bit_mode>:

/*
 * Write an 8 bit command to a flash
 */
void alt_write_flash_command_8bit_device_8bit_mode( void* base_addr, int offset, alt_u8 value)
{
 1800c70:	defffc04 	addi	sp,sp,-16
 1800c74:	df000315 	stw	fp,12(sp)
 1800c78:	df000304 	addi	fp,sp,12
 1800c7c:	e13ffd15 	stw	r4,-12(fp)
 1800c80:	e17ffe15 	stw	r5,-8(fp)
 1800c84:	e1bfff05 	stb	r6,-4(fp)
  IOWR_8DIRECT(base_addr, offset, value);
 1800c88:	e0fffd17 	ldw	r3,-12(fp)
 1800c8c:	e0bffe17 	ldw	r2,-8(fp)
 1800c90:	1885883a 	add	r2,r3,r2
 1800c94:	e0ffff03 	ldbu	r3,-4(fp)
 1800c98:	10c00025 	stbio	r3,0(r2)
  return;
}
 1800c9c:	e037883a 	mov	sp,fp
 1800ca0:	df000017 	ldw	fp,0(sp)
 1800ca4:	dec00104 	addi	sp,sp,4
 1800ca8:	f800283a 	ret

01800cac <alt_write_flash_command_16bit_device_8bit_mode>:

void alt_write_flash_command_16bit_device_8bit_mode( void* base_addr, int offset, alt_u8 value)
{
 1800cac:	defffc04 	addi	sp,sp,-16
 1800cb0:	df000315 	stw	fp,12(sp)
 1800cb4:	df000304 	addi	fp,sp,12
 1800cb8:	e13ffd15 	stw	r4,-12(fp)
 1800cbc:	e17ffe15 	stw	r5,-8(fp)
 1800cc0:	e1bfff05 	stb	r6,-4(fp)
  if (offset % 2)
 1800cc4:	e0bffe17 	ldw	r2,-8(fp)
 1800cc8:	1080004c 	andi	r2,r2,1
 1800ccc:	10803fcc 	andi	r2,r2,255
 1800cd0:	1005003a 	cmpeq	r2,r2,zero
 1800cd4:	1000081e 	bne	r2,zero,1800cf8 <alt_write_flash_command_16bit_device_8bit_mode+0x4c>
  {
    IOWR_8DIRECT(base_addr, offset*2, value);
 1800cd8:	e0bffe17 	ldw	r2,-8(fp)
 1800cdc:	1085883a 	add	r2,r2,r2
 1800ce0:	1007883a 	mov	r3,r2
 1800ce4:	e0bffd17 	ldw	r2,-12(fp)
 1800ce8:	1885883a 	add	r2,r3,r2
 1800cec:	e0ffff03 	ldbu	r3,-4(fp)
 1800cf0:	10c00025 	stbio	r3,0(r2)
 1800cf4:	00000806 	br	1800d18 <alt_write_flash_command_16bit_device_8bit_mode+0x6c>
  }
  else
  {
    IOWR_8DIRECT(base_addr, (offset*2)+1, value);
 1800cf8:	e0bffe17 	ldw	r2,-8(fp)
 1800cfc:	1085883a 	add	r2,r2,r2
 1800d00:	1007883a 	mov	r3,r2
 1800d04:	e0bffd17 	ldw	r2,-12(fp)
 1800d08:	1885883a 	add	r2,r3,r2
 1800d0c:	10800044 	addi	r2,r2,1
 1800d10:	e0ffff03 	ldbu	r3,-4(fp)
 1800d14:	10c00025 	stbio	r3,0(r2)
  }
  return;
}
 1800d18:	e037883a 	mov	sp,fp
 1800d1c:	df000017 	ldw	fp,0(sp)
 1800d20:	dec00104 	addi	sp,sp,4
 1800d24:	f800283a 	ret

01800d28 <alt_write_flash_command_32bit_device_8bit_mode>:

void alt_write_flash_command_32bit_device_8bit_mode( void* base_addr, int offset, alt_u8 value)
{
 1800d28:	defffc04 	addi	sp,sp,-16
 1800d2c:	df000315 	stw	fp,12(sp)
 1800d30:	df000304 	addi	fp,sp,12
 1800d34:	e13ffd15 	stw	r4,-12(fp)
 1800d38:	e17ffe15 	stw	r5,-8(fp)
 1800d3c:	e1bfff05 	stb	r6,-4(fp)
  IOWR_8DIRECT(base_addr, offset*4, value);
 1800d40:	e0bffe17 	ldw	r2,-8(fp)
 1800d44:	1085883a 	add	r2,r2,r2
 1800d48:	1085883a 	add	r2,r2,r2
 1800d4c:	1007883a 	mov	r3,r2
 1800d50:	e0bffd17 	ldw	r2,-12(fp)
 1800d54:	1885883a 	add	r2,r3,r2
 1800d58:	e0ffff03 	ldbu	r3,-4(fp)
 1800d5c:	10c00025 	stbio	r3,0(r2)
  return;
}
 1800d60:	e037883a 	mov	sp,fp
 1800d64:	df000017 	ldw	fp,0(sp)
 1800d68:	dec00104 	addi	sp,sp,4
 1800d6c:	f800283a 	ret

01800d70 <alt_write_flash_command_16bit_device_16bit_mode>:

void alt_write_flash_command_16bit_device_16bit_mode( void* base_addr, int offset, alt_u8 value)
{
 1800d70:	defffc04 	addi	sp,sp,-16
 1800d74:	df000315 	stw	fp,12(sp)
 1800d78:	df000304 	addi	fp,sp,12
 1800d7c:	e13ffd15 	stw	r4,-12(fp)
 1800d80:	e17ffe15 	stw	r5,-8(fp)
 1800d84:	e1bfff05 	stb	r6,-4(fp)
  IOWR_16DIRECT(base_addr, offset*2, ((alt_u16)value)& 0x00ff);
 1800d88:	e0bffe17 	ldw	r2,-8(fp)
 1800d8c:	1085883a 	add	r2,r2,r2
 1800d90:	1007883a 	mov	r3,r2
 1800d94:	e0bffd17 	ldw	r2,-12(fp)
 1800d98:	1885883a 	add	r2,r3,r2
 1800d9c:	e0ffff03 	ldbu	r3,-4(fp)
 1800da0:	10c0002d 	sthio	r3,0(r2)
  return;
}
 1800da4:	e037883a 	mov	sp,fp
 1800da8:	df000017 	ldw	fp,0(sp)
 1800dac:	dec00104 	addi	sp,sp,4
 1800db0:	f800283a 	ret

01800db4 <alt_write_flash_command_32bit_device_16bit_mode>:

void alt_write_flash_command_32bit_device_16bit_mode( void* base_addr, int offset, alt_u8 value)
{
 1800db4:	defffc04 	addi	sp,sp,-16
 1800db8:	df000315 	stw	fp,12(sp)
 1800dbc:	df000304 	addi	fp,sp,12
 1800dc0:	e13ffd15 	stw	r4,-12(fp)
 1800dc4:	e17ffe15 	stw	r5,-8(fp)
 1800dc8:	e1bfff05 	stb	r6,-4(fp)
  IOWR_16DIRECT(base_addr, offset*4, ((alt_u16)value)& 0x00ff);
 1800dcc:	e0bffe17 	ldw	r2,-8(fp)
 1800dd0:	1085883a 	add	r2,r2,r2
 1800dd4:	1085883a 	add	r2,r2,r2
 1800dd8:	1007883a 	mov	r3,r2
 1800ddc:	e0bffd17 	ldw	r2,-12(fp)
 1800de0:	1885883a 	add	r2,r3,r2
 1800de4:	e0ffff03 	ldbu	r3,-4(fp)
 1800de8:	10c0002d 	sthio	r3,0(r2)
  return;
}
 1800dec:	e037883a 	mov	sp,fp
 1800df0:	df000017 	ldw	fp,0(sp)
 1800df4:	dec00104 	addi	sp,sp,4
 1800df8:	f800283a 	ret

01800dfc <alt_write_flash_command_32bit_device_32bit_mode>:

void alt_write_flash_command_32bit_device_32bit_mode( void* base_addr, int offset, alt_u8 value)
{
 1800dfc:	defffc04 	addi	sp,sp,-16
 1800e00:	df000315 	stw	fp,12(sp)
 1800e04:	df000304 	addi	fp,sp,12
 1800e08:	e13ffd15 	stw	r4,-12(fp)
 1800e0c:	e17ffe15 	stw	r5,-8(fp)
 1800e10:	e1bfff05 	stb	r6,-4(fp)
  IOWR_32DIRECT(base_addr, offset*4, ((alt_u32)value)& 0x000000ff);
 1800e14:	e0bffe17 	ldw	r2,-8(fp)
 1800e18:	1085883a 	add	r2,r2,r2
 1800e1c:	1085883a 	add	r2,r2,r2
 1800e20:	1007883a 	mov	r3,r2
 1800e24:	e0bffd17 	ldw	r2,-12(fp)
 1800e28:	1885883a 	add	r2,r3,r2
 1800e2c:	e0ffff03 	ldbu	r3,-4(fp)
 1800e30:	10c00035 	stwio	r3,0(r2)
  return;
}
 1800e34:	e037883a 	mov	sp,fp
 1800e38:	df000017 	ldw	fp,0(sp)
 1800e3c:	dec00104 	addi	sp,sp,4
 1800e40:	f800283a 	ret

01800e44 <alt_write_native_8bit>:

/*
 * Write the value passed to the flash
 */
void alt_write_native_8bit( void* address, alt_u32 value)
{
 1800e44:	defffd04 	addi	sp,sp,-12
 1800e48:	df000215 	stw	fp,8(sp)
 1800e4c:	df000204 	addi	fp,sp,8
 1800e50:	e13ffe15 	stw	r4,-8(fp)
 1800e54:	e17fff15 	stw	r5,-4(fp)
  IOWR_8DIRECT(address, 0, (alt_u8)(value&0xff));
 1800e58:	e0bfff17 	ldw	r2,-4(fp)
 1800e5c:	10c03fcc 	andi	r3,r2,255
 1800e60:	e0bffe17 	ldw	r2,-8(fp)
 1800e64:	10c00025 	stbio	r3,0(r2)
  return;
}
 1800e68:	e037883a 	mov	sp,fp
 1800e6c:	df000017 	ldw	fp,0(sp)
 1800e70:	dec00104 	addi	sp,sp,4
 1800e74:	f800283a 	ret

01800e78 <alt_write_native_16bit>:

void alt_write_native_16bit( void* address, alt_u32 value)
{
 1800e78:	defffd04 	addi	sp,sp,-12
 1800e7c:	df000215 	stw	fp,8(sp)
 1800e80:	df000204 	addi	fp,sp,8
 1800e84:	e13ffe15 	stw	r4,-8(fp)
 1800e88:	e17fff15 	stw	r5,-4(fp)
  IOWR_16DIRECT(address, 0, ((alt_u16)value)& 0xffff);
 1800e8c:	e0bfff17 	ldw	r2,-4(fp)
 1800e90:	10ffffcc 	andi	r3,r2,65535
 1800e94:	e0bffe17 	ldw	r2,-8(fp)
 1800e98:	10c0002d 	sthio	r3,0(r2)
  return;
}
 1800e9c:	e037883a 	mov	sp,fp
 1800ea0:	df000017 	ldw	fp,0(sp)
 1800ea4:	dec00104 	addi	sp,sp,4
 1800ea8:	f800283a 	ret

01800eac <alt_write_native_32bit>:

void alt_write_native_32bit( void* address, alt_u32 value)
{
 1800eac:	defffd04 	addi	sp,sp,-12
 1800eb0:	df000215 	stw	fp,8(sp)
 1800eb4:	df000204 	addi	fp,sp,8
 1800eb8:	e13ffe15 	stw	r4,-8(fp)
 1800ebc:	e17fff15 	stw	r5,-4(fp)
  IOWR_32DIRECT(address, 0, value);
 1800ec0:	e0ffff17 	ldw	r3,-4(fp)
 1800ec4:	e0bffe17 	ldw	r2,-8(fp)
 1800ec8:	10c00035 	stwio	r3,0(r2)
  return;
}
 1800ecc:	e037883a 	mov	sp,fp
 1800ed0:	df000017 	ldw	fp,0(sp)
 1800ed4:	dec00104 	addi	sp,sp,4
 1800ed8:	f800283a 	ret

01800edc <alt_set_flash_width_func>:
 * 
 * Setup the function pointers for writing a byte to the flash for the width
 * of the device
 */
int alt_set_flash_width_func( alt_flash_cfi_dev* flash)
{ 
 1800edc:	defffb04 	addi	sp,sp,-20
 1800ee0:	df000415 	stw	fp,16(sp)
 1800ee4:	df000404 	addi	fp,sp,16
 1800ee8:	e13ffd15 	stw	r4,-12(fp)
  int ret_code = 0;
 1800eec:	e03ffc15 	stw	zero,-16(fp)
  
  switch(flash->mode_width)
 1800ef0:	e0bffd17 	ldw	r2,-12(fp)
 1800ef4:	10802e17 	ldw	r2,184(r2)
 1800ef8:	e0bfff15 	stw	r2,-4(fp)
 1800efc:	e0ffff17 	ldw	r3,-4(fp)
 1800f00:	188000a0 	cmpeqi	r2,r3,2
 1800f04:	1000261e 	bne	r2,zero,1800fa0 <alt_set_flash_width_func+0xc4>
 1800f08:	e0ffff17 	ldw	r3,-4(fp)
 1800f0c:	18800120 	cmpeqi	r2,r3,4
 1800f10:	1000391e 	bne	r2,zero,1800ff8 <alt_set_flash_width_func+0x11c>
 1800f14:	e0ffff17 	ldw	r3,-4(fp)
 1800f18:	18800060 	cmpeqi	r2,r3,1
 1800f1c:	1000011e 	bne	r2,zero,1800f24 <alt_set_flash_width_func+0x48>
 1800f20:	00003e06 	br	180101c <alt_set_flash_width_func+0x140>
  {
    case 1:
    {
      flash->write_native = alt_write_native_8bit;
 1800f24:	e0fffd17 	ldw	r3,-12(fp)
 1800f28:	00806034 	movhi	r2,384
 1800f2c:	10839104 	addi	r2,r2,3652
 1800f30:	18803515 	stw	r2,212(r3)

      if (flash->device_width == 1)
 1800f34:	e0bffd17 	ldw	r2,-12(fp)
 1800f38:	10802f17 	ldw	r2,188(r2)
 1800f3c:	10800058 	cmpnei	r2,r2,1
 1800f40:	1000051e 	bne	r2,zero,1800f58 <alt_set_flash_width_func+0x7c>
      {
        flash->write_command = alt_write_flash_command_8bit_device_8bit_mode;
 1800f44:	e0fffd17 	ldw	r3,-12(fp)
 1800f48:	00806034 	movhi	r2,384
 1800f4c:	10831c04 	addi	r2,r2,3184
 1800f50:	18803315 	stw	r2,204(r3)
 1800f54:	00003306 	br	1801024 <alt_set_flash_width_func+0x148>
      }
      else if (flash->device_width == 2)
 1800f58:	e0bffd17 	ldw	r2,-12(fp)
 1800f5c:	10802f17 	ldw	r2,188(r2)
 1800f60:	10800098 	cmpnei	r2,r2,2
 1800f64:	1000051e 	bne	r2,zero,1800f7c <alt_set_flash_width_func+0xa0>
      {
        flash->write_command = alt_write_flash_command_16bit_device_8bit_mode;
 1800f68:	e0fffd17 	ldw	r3,-12(fp)
 1800f6c:	00806034 	movhi	r2,384
 1800f70:	10832b04 	addi	r2,r2,3244
 1800f74:	18803315 	stw	r2,204(r3)
 1800f78:	00002a06 	br	1801024 <alt_set_flash_width_func+0x148>
      }
      else if (flash->device_width == 4)
 1800f7c:	e0bffd17 	ldw	r2,-12(fp)
 1800f80:	10802f17 	ldw	r2,188(r2)
 1800f84:	10800118 	cmpnei	r2,r2,4
 1800f88:	1000261e 	bne	r2,zero,1801024 <alt_set_flash_width_func+0x148>
      {
        flash->write_command = alt_write_flash_command_32bit_device_8bit_mode;
 1800f8c:	e0fffd17 	ldw	r3,-12(fp)
 1800f90:	00806034 	movhi	r2,384
 1800f94:	10834a04 	addi	r2,r2,3368
 1800f98:	18803315 	stw	r2,204(r3)
      }
      break;
 1800f9c:	00002106 	br	1801024 <alt_set_flash_width_func+0x148>
    }
    case 2:
    {
      flash->write_native = alt_write_native_16bit;
 1800fa0:	e0fffd17 	ldw	r3,-12(fp)
 1800fa4:	00806034 	movhi	r2,384
 1800fa8:	10839e04 	addi	r2,r2,3704
 1800fac:	18803515 	stw	r2,212(r3)

      if (flash->device_width == 2)
 1800fb0:	e0bffd17 	ldw	r2,-12(fp)
 1800fb4:	10802f17 	ldw	r2,188(r2)
 1800fb8:	10800098 	cmpnei	r2,r2,2
 1800fbc:	1000051e 	bne	r2,zero,1800fd4 <alt_set_flash_width_func+0xf8>
      {
        flash->write_command = alt_write_flash_command_16bit_device_16bit_mode;
 1800fc0:	e0fffd17 	ldw	r3,-12(fp)
 1800fc4:	00806034 	movhi	r2,384
 1800fc8:	10835c04 	addi	r2,r2,3440
 1800fcc:	18803315 	stw	r2,204(r3)
 1800fd0:	00001406 	br	1801024 <alt_set_flash_width_func+0x148>
      }
      else if (flash->device_width == 4)
 1800fd4:	e0bffd17 	ldw	r2,-12(fp)
 1800fd8:	10802f17 	ldw	r2,188(r2)
 1800fdc:	10800118 	cmpnei	r2,r2,4
 1800fe0:	1000101e 	bne	r2,zero,1801024 <alt_set_flash_width_func+0x148>
      {
        flash->write_command = alt_write_flash_command_32bit_device_16bit_mode;
 1800fe4:	e0fffd17 	ldw	r3,-12(fp)
 1800fe8:	00806034 	movhi	r2,384
 1800fec:	10836d04 	addi	r2,r2,3508
 1800ff0:	18803315 	stw	r2,204(r3)
      }

      break;
 1800ff4:	00000b06 	br	1801024 <alt_set_flash_width_func+0x148>
    }
    case 4:
    {
      flash->write_native = alt_write_native_32bit;
 1800ff8:	e0fffd17 	ldw	r3,-12(fp)
 1800ffc:	00806034 	movhi	r2,384
 1801000:	1083ab04 	addi	r2,r2,3756
 1801004:	18803515 	stw	r2,212(r3)
      flash->write_command = alt_write_flash_command_32bit_device_32bit_mode;
 1801008:	e0fffd17 	ldw	r3,-12(fp)
 180100c:	00806034 	movhi	r2,384
 1801010:	10837f04 	addi	r2,r2,3580
 1801014:	18803315 	stw	r2,204(r3)
      break;
 1801018:	00000206 	br	1801024 <alt_set_flash_width_func+0x148>
    }
    default:
    {
      ret_code = -EACCES;
 180101c:	00bffcc4 	movi	r2,-13
 1801020:	e0bffc15 	stw	r2,-16(fp)
    }
  }

  if (!ret_code)
 1801024:	e0bffc17 	ldw	r2,-16(fp)
 1801028:	1004c03a 	cmpne	r2,r2,zero
 180102c:	10001e1e 	bne	r2,zero,18010a8 <alt_set_flash_width_func+0x1cc>
  {
    switch(flash->device_width)
 1801030:	e0bffd17 	ldw	r2,-12(fp)
 1801034:	10802f17 	ldw	r2,188(r2)
 1801038:	e0bffe15 	stw	r2,-8(fp)
 180103c:	e0fffe17 	ldw	r3,-8(fp)
 1801040:	188000a0 	cmpeqi	r2,r3,2
 1801044:	10000c1e 	bne	r2,zero,1801078 <alt_set_flash_width_func+0x19c>
 1801048:	e0fffe17 	ldw	r3,-8(fp)
 180104c:	18800120 	cmpeqi	r2,r3,4
 1801050:	10000e1e 	bne	r2,zero,180108c <alt_set_flash_width_func+0x1b0>
 1801054:	e0fffe17 	ldw	r3,-8(fp)
 1801058:	18800060 	cmpeqi	r2,r3,1
 180105c:	1000011e 	bne	r2,zero,1801064 <alt_set_flash_width_func+0x188>
 1801060:	00000f06 	br	18010a0 <alt_set_flash_width_func+0x1c4>
    {
      case 1:
      {
        flash->read_query = alt_read_query_entry_8bit;
 1801064:	e0fffd17 	ldw	r3,-12(fp)
 1801068:	00806034 	movhi	r2,384
 180106c:	1082e904 	addi	r2,r2,2980
 1801070:	18803415 	stw	r2,208(r3)
        break;
 1801074:	00000c06 	br	18010a8 <alt_set_flash_width_func+0x1cc>
      }
      case 2:
      {
        flash->read_query = alt_read_query_entry_16bit;
 1801078:	e0fffd17 	ldw	r3,-12(fp)
 180107c:	00806034 	movhi	r2,384
 1801080:	1082f904 	addi	r2,r2,3044
 1801084:	18803415 	stw	r2,208(r3)
        break;
 1801088:	00000706 	br	18010a8 <alt_set_flash_width_func+0x1cc>
      }
      case 4:
      {
        flash->read_query = alt_read_query_entry_32bit;
 180108c:	e0fffd17 	ldw	r3,-12(fp)
 1801090:	00806034 	movhi	r2,384
 1801094:	10830a04 	addi	r2,r2,3112
 1801098:	18803415 	stw	r2,208(r3)
        break;
 180109c:	00000206 	br	18010a8 <alt_set_flash_width_func+0x1cc>
      }
      default:
      {
        ret_code = -EACCES;
 18010a0:	00bffcc4 	movi	r2,-13
 18010a4:	e0bffc15 	stw	r2,-16(fp)
      }
    }
  }

  return ret_code;
 18010a8:	e0bffc17 	ldw	r2,-16(fp)
}
 18010ac:	e037883a 	mov	sp,fp
 18010b0:	df000017 	ldw	fp,0(sp)
 18010b4:	dec00104 	addi	sp,sp,4
 18010b8:	f800283a 	ret

018010bc <alt_set_flash_algorithm_func>:
 * 
 * Setup the function pointers to the functions for this algorithm
 * 
 */
int alt_set_flash_algorithm_func( alt_flash_cfi_dev* flash)
{
 18010bc:	defffc04 	addi	sp,sp,-16
 18010c0:	df000315 	stw	fp,12(sp)
 18010c4:	df000304 	addi	fp,sp,12
 18010c8:	e13ffe15 	stw	r4,-8(fp)
  int ret_code = 0;
 18010cc:	e03ffd15 	stw	zero,-12(fp)
 
  switch(flash->algorithm)
 18010d0:	e0bffe17 	ldw	r2,-8(fp)
 18010d4:	10802d17 	ldw	r2,180(r2)
 18010d8:	e0bfff15 	stw	r2,-4(fp)
 18010dc:	e0ffff17 	ldw	r3,-4(fp)
 18010e0:	188000a0 	cmpeqi	r2,r3,2
 18010e4:	1000071e 	bne	r2,zero,1801104 <alt_set_flash_algorithm_func+0x48>
 18010e8:	e0ffff17 	ldw	r3,-4(fp)
 18010ec:	188000e0 	cmpeqi	r2,r3,3
 18010f0:	10000d1e 	bne	r2,zero,1801128 <alt_set_flash_algorithm_func+0x6c>
 18010f4:	e0ffff17 	ldw	r3,-4(fp)
 18010f8:	18800060 	cmpeqi	r2,r3,1
 18010fc:	10000a1e 	bne	r2,zero,1801128 <alt_set_flash_algorithm_func+0x6c>
 1801100:	00001206 	br	180114c <alt_set_flash_algorithm_func+0x90>
  {
    case CFI_ALG_AMD:
    {
      flash->dev.erase_block = alt_erase_block_amd;
 1801104:	e0fffe17 	ldw	r3,-8(fp)
 1801108:	00806034 	movhi	r2,384
 180110c:	10950204 	addi	r2,r2,21512
 1801110:	18800815 	stw	r2,32(r3)
      flash->dev.write_block = alt_program_amd;
 1801114:	e0fffe17 	ldw	r3,-8(fp)
 1801118:	00806034 	movhi	r2,384
 180111c:	1094e804 	addi	r2,r2,21408
 1801120:	18800915 	stw	r2,36(r3)
      break;
 1801124:	00000b06 	br	1801154 <alt_set_flash_algorithm_func+0x98>
    }
    case CFI_ALG_INTEL:
    case CFI_ALG_INTEL_STRATA:
    {
      flash->dev.erase_block = alt_erase_block_intel;
 1801128:	e0fffe17 	ldw	r3,-8(fp)
 180112c:	00806034 	movhi	r2,384
 1801130:	10962104 	addi	r2,r2,22660
 1801134:	18800815 	stw	r2,32(r3)
      flash->dev.write_block = alt_program_intel;
 1801138:	e0fffe17 	ldw	r3,-8(fp)
 180113c:	00806034 	movhi	r2,384
 1801140:	10960004 	addi	r2,r2,22528
 1801144:	18800915 	stw	r2,36(r3)
      break;
 1801148:	00000206 	br	1801154 <alt_set_flash_algorithm_func+0x98>
    }
    default:
    {
      ret_code = -EIO;
 180114c:	00bffec4 	movi	r2,-5
 1801150:	e0bffd15 	stw	r2,-12(fp)
    }
  } 
  return ret_code;  
 1801154:	e0bffd17 	ldw	r2,-12(fp)
}
 1801158:	e037883a 	mov	sp,fp
 180115c:	df000017 	ldw	fp,0(sp)
 1801160:	dec00104 	addi	sp,sp,4
 1801164:	f800283a 	ret

01801168 <alt_read_16bit_query_entry>:
 * read_16bit_query_entry
 * 
 * Read a 16 bit entry from the CFI Query table
 */
static alt_u16 alt_read_16bit_query_entry(alt_flash_cfi_dev* flash, int address)
{
 1801168:	defffb04 	addi	sp,sp,-20
 180116c:	dfc00415 	stw	ra,16(sp)
 1801170:	df000315 	stw	fp,12(sp)
 1801174:	df000304 	addi	fp,sp,12
 1801178:	e13ffe15 	stw	r4,-8(fp)
 180117c:	e17fff15 	stw	r5,-4(fp)
  alt_u16 ret_code;

  ret_code = (*flash->read_query)( flash, address);
 1801180:	e0bffe17 	ldw	r2,-8(fp)
 1801184:	10803417 	ldw	r2,208(r2)
 1801188:	e13ffe17 	ldw	r4,-8(fp)
 180118c:	e17fff17 	ldw	r5,-4(fp)
 1801190:	103ee83a 	callr	r2
 1801194:	10803fcc 	andi	r2,r2,255
 1801198:	e0bffd0d 	sth	r2,-12(fp)
  ret_code |= (((int)(*flash->read_query)(flash, address+1)) << 8);                   
 180119c:	e0bffe17 	ldw	r2,-8(fp)
 18011a0:	10c03417 	ldw	r3,208(r2)
 18011a4:	e0bfff17 	ldw	r2,-4(fp)
 18011a8:	11400044 	addi	r5,r2,1
 18011ac:	e13ffe17 	ldw	r4,-8(fp)
 18011b0:	183ee83a 	callr	r3
 18011b4:	10803fcc 	andi	r2,r2,255
 18011b8:	1004923a 	slli	r2,r2,8
 18011bc:	1007883a 	mov	r3,r2
 18011c0:	e0bffd0b 	ldhu	r2,-12(fp)
 18011c4:	1884b03a 	or	r2,r3,r2
 18011c8:	e0bffd0d 	sth	r2,-12(fp)

  return ret_code;
 18011cc:	e0bffd0b 	ldhu	r2,-12(fp)
}
 18011d0:	e037883a 	mov	sp,fp
 18011d4:	dfc00117 	ldw	ra,4(sp)
 18011d8:	df000017 	ldw	fp,0(sp)
 18011dc:	dec00204 	addi	sp,sp,8
 18011e0:	f800283a 	ret

018011e4 <alt_read_cfi_table>:
 * read_cfi_table
 * 
 * Read the CFI Table
 */
int alt_read_cfi_table(alt_flash_cfi_dev* flash)
{
 18011e4:	defff204 	addi	sp,sp,-56
 18011e8:	dfc00d15 	stw	ra,52(sp)
 18011ec:	df000c15 	stw	fp,48(sp)
 18011f0:	dc000b15 	stw	r16,44(sp)
 18011f4:	df000b04 	addi	fp,sp,44
 18011f8:	e13fff15 	stw	r4,-4(fp)
  int   i,j;
  int   device_size;
  int   ret_code = 0;
 18011fc:	e03ffb15 	stw	zero,-20(fp)
  int   size = 0;
 1801200:	e03ffa15 	stw	zero,-24(fp)
  int   swap;
  int   typical_timeout;
  int   max_timeout;
  int   offset = 0;
 1801204:	e03ff615 	stw	zero,-40(fp)
   
  /*
  * Check that the Primary Vendor Specific table
  * starts with the letters PRI                                                         
  */
  ret_code = alt_check_primary_table(flash);
 1801208:	e13fff17 	ldw	r4,-4(fp)
 180120c:	1801f100 	call	1801f10 <alt_check_primary_table>
 1801210:	e0bffb15 	stw	r2,-20(fp)

  if (!ret_code)
 1801214:	e0bffb17 	ldw	r2,-20(fp)
 1801218:	1004c03a 	cmpne	r2,r2,zero
 180121c:	10014a1e 	bne	r2,zero,1801748 <alt_read_cfi_table+0x564>
  {
    flash->algorithm = (*flash->read_query)(flash, 0x13);
 1801220:	e0bfff17 	ldw	r2,-4(fp)
 1801224:	10803417 	ldw	r2,208(r2)
 1801228:	e13fff17 	ldw	r4,-4(fp)
 180122c:	014004c4 	movi	r5,19
 1801230:	103ee83a 	callr	r2
 1801234:	10c03fcc 	andi	r3,r2,255
 1801238:	e0bfff17 	ldw	r2,-4(fp)
 180123c:	10c02d15 	stw	r3,180(r2)
  
    /* 
     * Let's read the write timeout values from the flash 
     * 
     */
    typical_timeout = (*flash->read_query)( flash, 0x1f);
 1801240:	e0bfff17 	ldw	r2,-4(fp)
 1801244:	10803417 	ldw	r2,208(r2)
 1801248:	e13fff17 	ldw	r4,-4(fp)
 180124c:	014007c4 	movi	r5,31
 1801250:	103ee83a 	callr	r2
 1801254:	10803fcc 	andi	r2,r2,255
 1801258:	e0bff815 	stw	r2,-32(fp)
    max_timeout = (*flash->read_query)( flash, 0x23);
 180125c:	e0bfff17 	ldw	r2,-4(fp)
 1801260:	10803417 	ldw	r2,208(r2)
 1801264:	e13fff17 	ldw	r4,-4(fp)
 1801268:	014008c4 	movi	r5,35
 180126c:	103ee83a 	callr	r2
 1801270:	10803fcc 	andi	r2,r2,255
 1801274:	e0bff715 	stw	r2,-36(fp)
    
    if ((typical_timeout == 0 ) || (max_timeout == 0))
 1801278:	e0bff817 	ldw	r2,-32(fp)
 180127c:	1005003a 	cmpeq	r2,r2,zero
 1801280:	1000031e 	bne	r2,zero,1801290 <alt_read_cfi_table+0xac>
 1801284:	e0bff717 	ldw	r2,-36(fp)
 1801288:	1004c03a 	cmpne	r2,r2,zero
 180128c:	1000041e 	bne	r2,zero,18012a0 <alt_read_cfi_table+0xbc>
    {
      flash->write_timeout = 1000; /* 1ms should be more than enough */
 1801290:	e0ffff17 	ldw	r3,-4(fp)
 1801294:	0080fa04 	movi	r2,1000
 1801298:	18803015 	stw	r2,192(r3)
     * 
     */
    typical_timeout = (*flash->read_query)( flash, 0x1f);
    max_timeout = (*flash->read_query)( flash, 0x23);
    
    if ((typical_timeout == 0 ) || (max_timeout == 0))
 180129c:	00000706 	br	18012bc <alt_read_cfi_table+0xd8>
    {
      flash->write_timeout = 1000; /* 1ms should be more than enough */
    }
    else
    {
      flash->write_timeout = (1 << typical_timeout) * (1 << max_timeout);
 18012a0:	00c00044 	movi	r3,1
 18012a4:	e0bff817 	ldw	r2,-32(fp)
 18012a8:	1886983a 	sll	r3,r3,r2
 18012ac:	e0bff717 	ldw	r2,-36(fp)
 18012b0:	1886983a 	sll	r3,r3,r2
 18012b4:	e0bfff17 	ldw	r2,-4(fp)
 18012b8:	10c03015 	stw	r3,192(r2)
    }
   
    /* Let's read the block erase timeout values from the flash */
    typical_timeout = (*flash->read_query)( flash, 0x21);
 18012bc:	e0bfff17 	ldw	r2,-4(fp)
 18012c0:	10803417 	ldw	r2,208(r2)
 18012c4:	e13fff17 	ldw	r4,-4(fp)
 18012c8:	01400844 	movi	r5,33
 18012cc:	103ee83a 	callr	r2
 18012d0:	10803fcc 	andi	r2,r2,255
 18012d4:	e0bff815 	stw	r2,-32(fp)
    max_timeout = (*flash->read_query)( flash, 0x25);
 18012d8:	e0bfff17 	ldw	r2,-4(fp)
 18012dc:	10803417 	ldw	r2,208(r2)
 18012e0:	e13fff17 	ldw	r4,-4(fp)
 18012e4:	01400944 	movi	r5,37
 18012e8:	103ee83a 	callr	r2
 18012ec:	10803fcc 	andi	r2,r2,255
 18012f0:	e0bff715 	stw	r2,-36(fp)
    
    if ((typical_timeout == 0 ) || (max_timeout == 0))
 18012f4:	e0bff817 	ldw	r2,-32(fp)
 18012f8:	1005003a 	cmpeq	r2,r2,zero
 18012fc:	1000031e 	bne	r2,zero,180130c <alt_read_cfi_table+0x128>
 1801300:	e0bff717 	ldw	r2,-36(fp)
 1801304:	1004c03a 	cmpne	r2,r2,zero
 1801308:	1000051e 	bne	r2,zero,1801320 <alt_read_cfi_table+0x13c>
    {
      flash->erase_timeout = 20000000; /* 20s should be more than enough */
 180130c:	e0ffff17 	ldw	r3,-4(fp)
 1801310:	00804c74 	movhi	r2,305
 1801314:	108b4004 	addi	r2,r2,11520
 1801318:	18803115 	stw	r2,196(r3)
   
    /* Let's read the block erase timeout values from the flash */
    typical_timeout = (*flash->read_query)( flash, 0x21);
    max_timeout = (*flash->read_query)( flash, 0x25);
    
    if ((typical_timeout == 0 ) || (max_timeout == 0))
 180131c:	00000806 	br	1801340 <alt_read_cfi_table+0x15c>
    {
      flash->erase_timeout = 20000000; /* 20s should be more than enough */
    }
    else
    {
      flash->erase_timeout = (1 << typical_timeout) * (1 << max_timeout) * 1000;
 1801320:	00c00044 	movi	r3,1
 1801324:	e0bff817 	ldw	r2,-32(fp)
 1801328:	1886983a 	sll	r3,r3,r2
 180132c:	e0bff717 	ldw	r2,-36(fp)
 1801330:	1884983a 	sll	r2,r3,r2
 1801334:	10c0fa24 	muli	r3,r2,1000
 1801338:	e0bfff17 	ldw	r2,-4(fp)
 180133c:	10c03115 	stw	r3,196(r2)
    }
   
    device_size = 0x1 << (*flash->read_query)( flash, 0x27);
 1801340:	e0bfff17 	ldw	r2,-4(fp)
 1801344:	10803417 	ldw	r2,208(r2)
 1801348:	e13fff17 	ldw	r4,-4(fp)
 180134c:	014009c4 	movi	r5,39
 1801350:	103ee83a 	callr	r2
 1801354:	10c03fcc 	andi	r3,r2,255
 1801358:	00800044 	movi	r2,1
 180135c:	10c4983a 	sll	r2,r2,r3
 1801360:	e0bffc15 	stw	r2,-16(fp)
  
    flash->dev.number_of_regions = (*flash->read_query)(flash, 0x2c);
 1801364:	e0bfff17 	ldw	r2,-4(fp)
 1801368:	10803417 	ldw	r2,208(r2)
 180136c:	e13fff17 	ldw	r4,-4(fp)
 1801370:	01400b04 	movi	r5,44
 1801374:	103ee83a 	callr	r2
 1801378:	10c03fcc 	andi	r3,r2,255
 180137c:	e0bfff17 	ldw	r2,-4(fp)
 1801380:	10c00c15 	stw	r3,48(r2)
    
    if (flash->dev.number_of_regions > ALT_MAX_NUMBER_OF_FLASH_REGIONS)
 1801384:	e0bfff17 	ldw	r2,-4(fp)
 1801388:	10800c17 	ldw	r2,48(r2)
 180138c:	10800250 	cmplti	r2,r2,9
 1801390:	1000031e 	bne	r2,zero,18013a0 <alt_read_cfi_table+0x1bc>
    {
      ret_code = -ENOMEM;
 1801394:	00bffd04 	movi	r2,-12
 1801398:	e0bffb15 	stw	r2,-20(fp)
 180139c:	00005e06 	br	1801518 <alt_read_cfi_table+0x334>
    }
    else
    {
      for(i=0;i<flash->dev.number_of_regions;i++)
 18013a0:	e03ffe15 	stw	zero,-8(fp)
 18013a4:	00005306 	br	18014f4 <alt_read_cfi_table+0x310>
      {
        flash->dev.region_info[i].number_of_blocks =  alt_read_16bit_query_entry( 
 18013a8:	e43ffe17 	ldw	r16,-8(fp)
 18013ac:	e0bffe17 	ldw	r2,-8(fp)
 18013b0:	1085883a 	add	r2,r2,r2
 18013b4:	1085883a 	add	r2,r2,r2
 18013b8:	11400b44 	addi	r5,r2,45
 18013bc:	e13fff17 	ldw	r4,-4(fp)
 18013c0:	18011680 	call	1801168 <alt_read_16bit_query_entry>
 18013c4:	113fffcc 	andi	r4,r2,65535
 18013c8:	e0ffff17 	ldw	r3,-4(fp)
 18013cc:	8004913a 	slli	r2,r16,4
 18013d0:	10c5883a 	add	r2,r2,r3
 18013d4:	10800f04 	addi	r2,r2,60
 18013d8:	11000015 	stw	r4,0(r2)
                                                            flash,
                                                            (0x2D+i*4));
        flash->dev.region_info[i].number_of_blocks += 1; 
 18013dc:	e17ffe17 	ldw	r5,-8(fp)
 18013e0:	e0bffe17 	ldw	r2,-8(fp)
 18013e4:	e0ffff17 	ldw	r3,-4(fp)
 18013e8:	1004913a 	slli	r2,r2,4
 18013ec:	10c5883a 	add	r2,r2,r3
 18013f0:	10800f04 	addi	r2,r2,60
 18013f4:	10800017 	ldw	r2,0(r2)
 18013f8:	11000044 	addi	r4,r2,1
 18013fc:	e0ffff17 	ldw	r3,-4(fp)
 1801400:	2804913a 	slli	r2,r5,4
 1801404:	10c5883a 	add	r2,r2,r3
 1801408:	10800f04 	addi	r2,r2,60
 180140c:	11000015 	stw	r4,0(r2)
        flash->dev.region_info[i].block_size =  alt_read_16bit_query_entry( flash, 
 1801410:	e43ffe17 	ldw	r16,-8(fp)
 1801414:	e0bffe17 	ldw	r2,-8(fp)
 1801418:	1085883a 	add	r2,r2,r2
 180141c:	1085883a 	add	r2,r2,r2
 1801420:	11400bc4 	addi	r5,r2,47
 1801424:	e13fff17 	ldw	r4,-4(fp)
 1801428:	18011680 	call	1801168 <alt_read_16bit_query_entry>
 180142c:	113fffcc 	andi	r4,r2,65535
 1801430:	e0ffff17 	ldw	r3,-4(fp)
 1801434:	8004913a 	slli	r2,r16,4
 1801438:	10c5883a 	add	r2,r2,r3
 180143c:	10801004 	addi	r2,r2,64
 1801440:	11000015 	stw	r4,0(r2)
                                                              (0x2F+i*4));
        flash->dev.region_info[i].block_size *= 256;
 1801444:	e17ffe17 	ldw	r5,-8(fp)
 1801448:	e0bffe17 	ldw	r2,-8(fp)
 180144c:	e0ffff17 	ldw	r3,-4(fp)
 1801450:	1004913a 	slli	r2,r2,4
 1801454:	10c5883a 	add	r2,r2,r3
 1801458:	10801004 	addi	r2,r2,64
 180145c:	10800017 	ldw	r2,0(r2)
 1801460:	1008923a 	slli	r4,r2,8
 1801464:	e0ffff17 	ldw	r3,-4(fp)
 1801468:	2804913a 	slli	r2,r5,4
 180146c:	10c5883a 	add	r2,r2,r3
 1801470:	10801004 	addi	r2,r2,64
 1801474:	11000015 	stw	r4,0(r2)
        flash->dev.region_info[i].region_size = 
 1801478:	e17ffe17 	ldw	r5,-8(fp)
 180147c:	e0bffe17 	ldw	r2,-8(fp)
 1801480:	e0ffff17 	ldw	r3,-4(fp)
 1801484:	1004913a 	slli	r2,r2,4
 1801488:	10c5883a 	add	r2,r2,r3
 180148c:	10800f04 	addi	r2,r2,60
 1801490:	11000017 	ldw	r4,0(r2)
 1801494:	e0bffe17 	ldw	r2,-8(fp)
 1801498:	e0ffff17 	ldw	r3,-4(fp)
 180149c:	1004913a 	slli	r2,r2,4
 18014a0:	10c5883a 	add	r2,r2,r3
 18014a4:	10801004 	addi	r2,r2,64
 18014a8:	10800017 	ldw	r2,0(r2)
 18014ac:	2089383a 	mul	r4,r4,r2
 18014b0:	e0ffff17 	ldw	r3,-4(fp)
 18014b4:	2804913a 	slli	r2,r5,4
 18014b8:	10c5883a 	add	r2,r2,r3
 18014bc:	10800e04 	addi	r2,r2,56
 18014c0:	11000015 	stw	r4,0(r2)
                                    flash->dev.region_info[i].number_of_blocks 
                                    * flash->dev.region_info[i].block_size;
        size += flash->dev.region_info[i].region_size;
 18014c4:	e0bffe17 	ldw	r2,-8(fp)
 18014c8:	e0ffff17 	ldw	r3,-4(fp)
 18014cc:	1004913a 	slli	r2,r2,4
 18014d0:	10c5883a 	add	r2,r2,r3
 18014d4:	10800e04 	addi	r2,r2,56
 18014d8:	10c00017 	ldw	r3,0(r2)
 18014dc:	e0bffa17 	ldw	r2,-24(fp)
 18014e0:	10c5883a 	add	r2,r2,r3
 18014e4:	e0bffa15 	stw	r2,-24(fp)
    {
      ret_code = -ENOMEM;
    }
    else
    {
      for(i=0;i<flash->dev.number_of_regions;i++)
 18014e8:	e0bffe17 	ldw	r2,-8(fp)
 18014ec:	10800044 	addi	r2,r2,1
 18014f0:	e0bffe15 	stw	r2,-8(fp)
 18014f4:	e0bfff17 	ldw	r2,-4(fp)
 18014f8:	10c00c17 	ldw	r3,48(r2)
 18014fc:	e0bffe17 	ldw	r2,-8(fp)
 1801500:	10ffa916 	blt	r2,r3,18013a8 <alt_read_cfi_table+0x1c4>
                                    flash->dev.region_info[i].number_of_blocks 
                                    * flash->dev.region_info[i].block_size;
        size += flash->dev.region_info[i].region_size;
      }
       
      if (size != device_size)
 1801504:	e0fffa17 	ldw	r3,-24(fp)
 1801508:	e0bffc17 	ldw	r2,-16(fp)
 180150c:	18800226 	beq	r3,r2,1801518 <alt_read_cfi_table+0x334>
      {
        ret_code = -ENODEV;
 1801510:	00bffb44 	movi	r2,-19
 1801514:	e0bffb15 	stw	r2,-20(fp)
      }
    }
    
    boot_mode = (*flash->read_query)( flash, flash->primary_address + 0xf);
 1801518:	e0bfff17 	ldw	r2,-4(fp)
 180151c:	10c03417 	ldw	r3,208(r2)
 1801520:	e0bfff17 	ldw	r2,-4(fp)
 1801524:	10803217 	ldw	r2,200(r2)
 1801528:	114003c4 	addi	r5,r2,15
 180152c:	e13fff17 	ldw	r4,-4(fp)
 1801530:	183ee83a 	callr	r3
 1801534:	e0bff505 	stb	r2,-44(fp)
     * Intel Flash parts describe the sections in the order they appear
     * for AMD they just put all the small ones first then the bigger ones
     * So if it's a top boot part we have to reverse the order of the sectors
     * so they're in the correct order
     */
    if ((flash->algorithm == CFI_ALG_AMD) && (boot_mode == TOP_BOOT_DEVICE))
 1801538:	e0bfff17 	ldw	r2,-4(fp)
 180153c:	10802d17 	ldw	r2,180(r2)
 1801540:	10800098 	cmpnei	r2,r2,2
 1801544:	1000601e 	bne	r2,zero,18016c8 <alt_read_cfi_table+0x4e4>
 1801548:	e0bff503 	ldbu	r2,-44(fp)
 180154c:	108000d8 	cmpnei	r2,r2,3
 1801550:	10005d1e 	bne	r2,zero,18016c8 <alt_read_cfi_table+0x4e4>
    {
      for(i=flash->dev.number_of_regions-1, j=0;
 1801554:	e0bfff17 	ldw	r2,-4(fp)
 1801558:	10800c17 	ldw	r2,48(r2)
 180155c:	10bfffc4 	addi	r2,r2,-1
 1801560:	e0bffe15 	stw	r2,-8(fp)
 1801564:	e03ffd15 	stw	zero,-12(fp)
          j<=i;i--,j++)
 1801568:	00005406 	br	18016bc <alt_read_cfi_table+0x4d8>
      {
        swap = flash->dev.region_info[i].region_size;
 180156c:	e0bffe17 	ldw	r2,-8(fp)
 1801570:	e0ffff17 	ldw	r3,-4(fp)
 1801574:	1004913a 	slli	r2,r2,4
 1801578:	10c5883a 	add	r2,r2,r3
 180157c:	10800e04 	addi	r2,r2,56
 1801580:	10800017 	ldw	r2,0(r2)
 1801584:	e0bff915 	stw	r2,-28(fp)
        flash->dev.region_info[i].region_size =  
 1801588:	e17ffe17 	ldw	r5,-8(fp)
 180158c:	e0bffd17 	ldw	r2,-12(fp)
 1801590:	e0ffff17 	ldw	r3,-4(fp)
 1801594:	1004913a 	slli	r2,r2,4
 1801598:	10c5883a 	add	r2,r2,r3
 180159c:	10800e04 	addi	r2,r2,56
 18015a0:	11000017 	ldw	r4,0(r2)
 18015a4:	e0ffff17 	ldw	r3,-4(fp)
 18015a8:	2804913a 	slli	r2,r5,4
 18015ac:	10c5883a 	add	r2,r2,r3
 18015b0:	10800e04 	addi	r2,r2,56
 18015b4:	11000015 	stw	r4,0(r2)
                                flash->dev.region_info[j].region_size;
        flash->dev.region_info[j].region_size = swap;
 18015b8:	e0bffd17 	ldw	r2,-12(fp)
 18015bc:	e0ffff17 	ldw	r3,-4(fp)
 18015c0:	1004913a 	slli	r2,r2,4
 18015c4:	10c5883a 	add	r2,r2,r3
 18015c8:	10c00e04 	addi	r3,r2,56
 18015cc:	e0bff917 	ldw	r2,-28(fp)
 18015d0:	18800015 	stw	r2,0(r3)

        swap = flash->dev.region_info[i].block_size;
 18015d4:	e0bffe17 	ldw	r2,-8(fp)
 18015d8:	e0ffff17 	ldw	r3,-4(fp)
 18015dc:	1004913a 	slli	r2,r2,4
 18015e0:	10c5883a 	add	r2,r2,r3
 18015e4:	10801004 	addi	r2,r2,64
 18015e8:	10800017 	ldw	r2,0(r2)
 18015ec:	e0bff915 	stw	r2,-28(fp)
        flash->dev.region_info[i].block_size =  
 18015f0:	e17ffe17 	ldw	r5,-8(fp)
 18015f4:	e0bffd17 	ldw	r2,-12(fp)
 18015f8:	e0ffff17 	ldw	r3,-4(fp)
 18015fc:	1004913a 	slli	r2,r2,4
 1801600:	10c5883a 	add	r2,r2,r3
 1801604:	10801004 	addi	r2,r2,64
 1801608:	11000017 	ldw	r4,0(r2)
 180160c:	e0ffff17 	ldw	r3,-4(fp)
 1801610:	2804913a 	slli	r2,r5,4
 1801614:	10c5883a 	add	r2,r2,r3
 1801618:	10801004 	addi	r2,r2,64
 180161c:	11000015 	stw	r4,0(r2)
                                flash->dev.region_info[j].block_size;
        flash->dev.region_info[j].block_size = swap;
 1801620:	e0bffd17 	ldw	r2,-12(fp)
 1801624:	e0ffff17 	ldw	r3,-4(fp)
 1801628:	1004913a 	slli	r2,r2,4
 180162c:	10c5883a 	add	r2,r2,r3
 1801630:	10c01004 	addi	r3,r2,64
 1801634:	e0bff917 	ldw	r2,-28(fp)
 1801638:	18800015 	stw	r2,0(r3)
 
        swap = flash->dev.region_info[i].number_of_blocks;
 180163c:	e0bffe17 	ldw	r2,-8(fp)
 1801640:	e0ffff17 	ldw	r3,-4(fp)
 1801644:	1004913a 	slli	r2,r2,4
 1801648:	10c5883a 	add	r2,r2,r3
 180164c:	10800f04 	addi	r2,r2,60
 1801650:	10800017 	ldw	r2,0(r2)
 1801654:	e0bff915 	stw	r2,-28(fp)
        flash->dev.region_info[i].number_of_blocks =  
 1801658:	e17ffe17 	ldw	r5,-8(fp)
 180165c:	e0bffd17 	ldw	r2,-12(fp)
 1801660:	e0ffff17 	ldw	r3,-4(fp)
 1801664:	1004913a 	slli	r2,r2,4
 1801668:	10c5883a 	add	r2,r2,r3
 180166c:	10800f04 	addi	r2,r2,60
 1801670:	11000017 	ldw	r4,0(r2)
 1801674:	e0ffff17 	ldw	r3,-4(fp)
 1801678:	2804913a 	slli	r2,r5,4
 180167c:	10c5883a 	add	r2,r2,r3
 1801680:	10800f04 	addi	r2,r2,60
 1801684:	11000015 	stw	r4,0(r2)
                                flash->dev.region_info[j].number_of_blocks;
        flash->dev.region_info[j].number_of_blocks = swap;
 1801688:	e0bffd17 	ldw	r2,-12(fp)
 180168c:	e0ffff17 	ldw	r3,-4(fp)
 1801690:	1004913a 	slli	r2,r2,4
 1801694:	10c5883a 	add	r2,r2,r3
 1801698:	10c00f04 	addi	r3,r2,60
 180169c:	e0bff917 	ldw	r2,-28(fp)
 18016a0:	18800015 	stw	r2,0(r3)
     * so they're in the correct order
     */
    if ((flash->algorithm == CFI_ALG_AMD) && (boot_mode == TOP_BOOT_DEVICE))
    {
      for(i=flash->dev.number_of_regions-1, j=0;
          j<=i;i--,j++)
 18016a4:	e0bffe17 	ldw	r2,-8(fp)
 18016a8:	10bfffc4 	addi	r2,r2,-1
 18016ac:	e0bffe15 	stw	r2,-8(fp)
 18016b0:	e0bffd17 	ldw	r2,-12(fp)
 18016b4:	10800044 	addi	r2,r2,1
 18016b8:	e0bffd15 	stw	r2,-12(fp)
 18016bc:	e0fffd17 	ldw	r3,-12(fp)
 18016c0:	e0bffe17 	ldw	r2,-8(fp)
 18016c4:	10ffa90e 	bge	r2,r3,180156c <alt_read_cfi_table+0x388>
        flash->dev.region_info[j].number_of_blocks = swap;

      } 
    }
    
    for(i=0;i<flash->dev.number_of_regions;i++)
 18016c8:	e03ffe15 	stw	zero,-8(fp)
 18016cc:	00001306 	br	180171c <alt_read_cfi_table+0x538>
    {
      flash->dev.region_info[i].offset = offset;
 18016d0:	e0bffe17 	ldw	r2,-8(fp)
 18016d4:	e0ffff17 	ldw	r3,-4(fp)
 18016d8:	1004913a 	slli	r2,r2,4
 18016dc:	10c5883a 	add	r2,r2,r3
 18016e0:	10c00d04 	addi	r3,r2,52
 18016e4:	e0bff617 	ldw	r2,-40(fp)
 18016e8:	18800015 	stw	r2,0(r3)
      offset += flash->dev.region_info[i].region_size;
 18016ec:	e0bffe17 	ldw	r2,-8(fp)
 18016f0:	e0ffff17 	ldw	r3,-4(fp)
 18016f4:	1004913a 	slli	r2,r2,4
 18016f8:	10c5883a 	add	r2,r2,r3
 18016fc:	10800e04 	addi	r2,r2,56
 1801700:	10c00017 	ldw	r3,0(r2)
 1801704:	e0bff617 	ldw	r2,-40(fp)
 1801708:	10c5883a 	add	r2,r2,r3
 180170c:	e0bff615 	stw	r2,-40(fp)
        flash->dev.region_info[j].number_of_blocks = swap;

      } 
    }
    
    for(i=0;i<flash->dev.number_of_regions;i++)
 1801710:	e0bffe17 	ldw	r2,-8(fp)
 1801714:	10800044 	addi	r2,r2,1
 1801718:	e0bffe15 	stw	r2,-8(fp)
 180171c:	e0bfff17 	ldw	r2,-4(fp)
 1801720:	10c00c17 	ldw	r3,48(r2)
 1801724:	e0bffe17 	ldw	r2,-8(fp)
 1801728:	10ffe916 	blt	r2,r3,18016d0 <alt_read_cfi_table+0x4ec>
    {
      flash->dev.region_info[i].offset = offset;
      offset += flash->dev.region_info[i].region_size;
    }
    
    (*flash->write_command)(flash->dev.base_addr, 
 180172c:	e0bfff17 	ldw	r2,-4(fp)
 1801730:	10c03317 	ldw	r3,204(r2)
 1801734:	e0bfff17 	ldw	r2,-4(fp)
 1801738:	11000a17 	ldw	r4,40(r2)
 180173c:	01401544 	movi	r5,85
 1801740:	01803fc4 	movi	r6,255
 1801744:	183ee83a 	callr	r3
                            0x55, 
                            READ_ARRAY_MODE);
  }  

  return ret_code;
 1801748:	e0bffb17 	ldw	r2,-20(fp)
}
 180174c:	e037883a 	mov	sp,fp
 1801750:	dfc00217 	ldw	ra,8(sp)
 1801754:	df000117 	ldw	fp,4(sp)
 1801758:	dc000017 	ldw	r16,0(sp)
 180175c:	dec00304 	addi	sp,sp,12
 1801760:	f800283a 	ret

01801764 <alt_read_cfi_width>:
 * 
 * Work out the width of the device we're talking to and sanity check that we  
 * can read the CFI and the Primary Vendor specific Table
 */
int alt_read_cfi_width(alt_flash_cfi_dev* flash)
{
 1801764:	defff704 	addi	sp,sp,-36
 1801768:	dfc00815 	stw	ra,32(sp)
 180176c:	df000715 	stw	fp,28(sp)
 1801770:	df000704 	addi	fp,sp,28
 1801774:	e13fff15 	stw	r4,-4(fp)
  int i;
  alt_u8 byte_id[12];
  alt_u16 iface;
  int ret_code = 0;
 1801778:	e03ff915 	stw	zero,-28(fp)

  /*
  * Check for 8 bit wide flash
  */
  alt_write_flash_command_8bit_device_8bit_mode(flash->dev.base_addr, 0x55, QUERY_MODE);
 180177c:	e0bfff17 	ldw	r2,-4(fp)
 1801780:	11000a17 	ldw	r4,40(r2)
 1801784:	01401544 	movi	r5,85
 1801788:	01802604 	movi	r6,152
 180178c:	1800c700 	call	1800c70 <alt_write_flash_command_8bit_device_8bit_mode>

  for(i=0;i<3;i++)
 1801790:	e03ffb15 	stw	zero,-20(fp)
 1801794:	00000f06 	br	18017d4 <alt_read_cfi_width+0x70>
  {
    byte_id[i] = IORD_8DIRECT(flash->dev.base_addr, QUERY_ADDR+i);
 1801798:	e13ffb17 	ldw	r4,-20(fp)
 180179c:	e0bfff17 	ldw	r2,-4(fp)
 18017a0:	10800a17 	ldw	r2,40(r2)
 18017a4:	1007883a 	mov	r3,r2
 18017a8:	e0bffb17 	ldw	r2,-20(fp)
 18017ac:	1885883a 	add	r2,r3,r2
 18017b0:	10800404 	addi	r2,r2,16
 18017b4:	10800023 	ldbuio	r2,0(r2)
 18017b8:	1007883a 	mov	r3,r2
 18017bc:	e0bffc04 	addi	r2,fp,-16
 18017c0:	1105883a 	add	r2,r2,r4
 18017c4:	10c00005 	stb	r3,0(r2)
  /*
  * Check for 8 bit wide flash
  */
  alt_write_flash_command_8bit_device_8bit_mode(flash->dev.base_addr, 0x55, QUERY_MODE);

  for(i=0;i<3;i++)
 18017c8:	e0bffb17 	ldw	r2,-20(fp)
 18017cc:	10800044 	addi	r2,r2,1
 18017d0:	e0bffb15 	stw	r2,-20(fp)
 18017d4:	e0bffb17 	ldw	r2,-20(fp)
 18017d8:	108000d0 	cmplti	r2,r2,3
 18017dc:	103fee1e 	bne	r2,zero,1801798 <alt_read_cfi_width+0x34>
  {
    byte_id[i] = IORD_8DIRECT(flash->dev.base_addr, QUERY_ADDR+i);
  }

  if ((byte_id[0] == 'Q') &&
 18017e0:	e0bffc03 	ldbu	r2,-16(fp)
 18017e4:	10803fcc 	andi	r2,r2,255
 18017e8:	10801458 	cmpnei	r2,r2,81
 18017ec:	10001d1e 	bne	r2,zero,1801864 <alt_read_cfi_width+0x100>
 18017f0:	e0bffc43 	ldbu	r2,-15(fp)
 18017f4:	10803fcc 	andi	r2,r2,255
 18017f8:	10801498 	cmpnei	r2,r2,82
 18017fc:	1000191e 	bne	r2,zero,1801864 <alt_read_cfi_width+0x100>
 1801800:	e0bffc83 	ldbu	r2,-14(fp)
 1801804:	10803fcc 	andi	r2,r2,255
 1801808:	10801658 	cmpnei	r2,r2,89
 180180c:	1000151e 	bne	r2,zero,1801864 <alt_read_cfi_width+0x100>
      (byte_id[1] == 'R') &&
      (byte_id[2] == 'Y'))
  {
    flash->mode_width = 1;
 1801810:	e0ffff17 	ldw	r3,-4(fp)
 1801814:	00800044 	movi	r2,1
 1801818:	18802e15 	stw	r2,184(r3)
    flash->device_width = 1; 
 180181c:	e0ffff17 	ldw	r3,-4(fp)
 1801820:	00800044 	movi	r2,1
 1801824:	18802f15 	stw	r2,188(r3)
    iface = IORD_16DIRECT(flash->dev.base_addr, INTERFACE_ADDR);
 1801828:	e0bfff17 	ldw	r2,-4(fp)
 180182c:	10800a17 	ldw	r2,40(r2)
 1801830:	10800a04 	addi	r2,r2,40
 1801834:	1080002b 	ldhuio	r2,0(r2)
 1801838:	e0bffa0d 	sth	r2,-24(fp)
    iface += 1;
 180183c:	e0bffa0b 	ldhu	r2,-24(fp)
 1801840:	10800044 	addi	r2,r2,1
 1801844:	e0bffa0d 	sth	r2,-24(fp)
    if (!(iface & 0x1))
 1801848:	e0bffa0b 	ldhu	r2,-24(fp)
 180184c:	1080004c 	andi	r2,r2,1
 1801850:	1004c03a 	cmpne	r2,r2,zero
 1801854:	1001a81e 	bne	r2,zero,1801ef8 <alt_read_cfi_width+0x794>
    {
      ret_code = -ENODEV;
 1801858:	00bffb44 	movi	r2,-19
 180185c:	e0bff915 	stw	r2,-28(fp)
  for(i=0;i<3;i++)
  {
    byte_id[i] = IORD_8DIRECT(flash->dev.base_addr, QUERY_ADDR+i);
  }

  if ((byte_id[0] == 'Q') &&
 1801860:	0001a506 	br	1801ef8 <alt_read_cfi_width+0x794>
  else
  {
    /*
    * Check for 8/16 bit in byte wide mode
    */
    alt_write_flash_command_16bit_device_8bit_mode(flash->dev.base_addr, 0x55, QUERY_MODE);
 1801864:	e0bfff17 	ldw	r2,-4(fp)
 1801868:	11000a17 	ldw	r4,40(r2)
 180186c:	01401544 	movi	r5,85
 1801870:	01802604 	movi	r6,152
 1801874:	1800cac0 	call	1800cac <alt_write_flash_command_16bit_device_8bit_mode>
    for(i=0;i<6;i++)
 1801878:	e03ffb15 	stw	zero,-20(fp)
 180187c:	00000f06 	br	18018bc <alt_read_cfi_width+0x158>
    {
      byte_id[i] = IORD_8DIRECT(flash->dev.base_addr, (QUERY_ADDR*2)+i);
 1801880:	e13ffb17 	ldw	r4,-20(fp)
 1801884:	e0bfff17 	ldw	r2,-4(fp)
 1801888:	10800a17 	ldw	r2,40(r2)
 180188c:	1007883a 	mov	r3,r2
 1801890:	e0bffb17 	ldw	r2,-20(fp)
 1801894:	1885883a 	add	r2,r3,r2
 1801898:	10800804 	addi	r2,r2,32
 180189c:	10800023 	ldbuio	r2,0(r2)
 18018a0:	1007883a 	mov	r3,r2
 18018a4:	e0bffc04 	addi	r2,fp,-16
 18018a8:	1105883a 	add	r2,r2,r4
 18018ac:	10c00005 	stb	r3,0(r2)
  {
    /*
    * Check for 8/16 bit in byte wide mode
    */
    alt_write_flash_command_16bit_device_8bit_mode(flash->dev.base_addr, 0x55, QUERY_MODE);
    for(i=0;i<6;i++)
 18018b0:	e0bffb17 	ldw	r2,-20(fp)
 18018b4:	10800044 	addi	r2,r2,1
 18018b8:	e0bffb15 	stw	r2,-20(fp)
 18018bc:	e0bffb17 	ldw	r2,-20(fp)
 18018c0:	10800190 	cmplti	r2,r2,6
 18018c4:	103fee1e 	bne	r2,zero,1801880 <alt_read_cfi_width+0x11c>
    {
      byte_id[i] = IORD_8DIRECT(flash->dev.base_addr, (QUERY_ADDR*2)+i);
    }

    if ((byte_id[0] == 'Q') && 
 18018c8:	e0bffc03 	ldbu	r2,-16(fp)
 18018cc:	10803fcc 	andi	r2,r2,255
 18018d0:	10801458 	cmpnei	r2,r2,81
 18018d4:	1000291e 	bne	r2,zero,180197c <alt_read_cfi_width+0x218>
 18018d8:	e0bffc43 	ldbu	r2,-15(fp)
 18018dc:	10803fcc 	andi	r2,r2,255
 18018e0:	10801458 	cmpnei	r2,r2,81
 18018e4:	1000251e 	bne	r2,zero,180197c <alt_read_cfi_width+0x218>
 18018e8:	e0bffc83 	ldbu	r2,-14(fp)
 18018ec:	10803fcc 	andi	r2,r2,255
 18018f0:	10801498 	cmpnei	r2,r2,82
 18018f4:	1000211e 	bne	r2,zero,180197c <alt_read_cfi_width+0x218>
 18018f8:	e0bffcc3 	ldbu	r2,-13(fp)
 18018fc:	10803fcc 	andi	r2,r2,255
 1801900:	10801498 	cmpnei	r2,r2,82
 1801904:	10001d1e 	bne	r2,zero,180197c <alt_read_cfi_width+0x218>
 1801908:	e0bffd03 	ldbu	r2,-12(fp)
 180190c:	10803fcc 	andi	r2,r2,255
 1801910:	10801658 	cmpnei	r2,r2,89
 1801914:	1000191e 	bne	r2,zero,180197c <alt_read_cfi_width+0x218>
 1801918:	e0bffd43 	ldbu	r2,-11(fp)
 180191c:	10803fcc 	andi	r2,r2,255
 1801920:	10801658 	cmpnei	r2,r2,89
 1801924:	1000151e 	bne	r2,zero,180197c <alt_read_cfi_width+0x218>
        (byte_id[2] == 'R') &&
        (byte_id[3] == 'R') && 
        (byte_id[4] == 'Y') && 
        (byte_id[5] == 'Y'))
    {
      flash->mode_width = 1;
 1801928:	e0ffff17 	ldw	r3,-4(fp)
 180192c:	00800044 	movi	r2,1
 1801930:	18802e15 	stw	r2,184(r3)
      flash->device_width = 2; 
 1801934:	e0ffff17 	ldw	r3,-4(fp)
 1801938:	00800084 	movi	r2,2
 180193c:	18802f15 	stw	r2,188(r3)
      iface = IORD_16DIRECT(flash->dev.base_addr, INTERFACE_ADDR*2);
 1801940:	e0bfff17 	ldw	r2,-4(fp)
 1801944:	10800a17 	ldw	r2,40(r2)
 1801948:	10801404 	addi	r2,r2,80
 180194c:	1080002b 	ldhuio	r2,0(r2)
 1801950:	e0bffa0d 	sth	r2,-24(fp)
      iface += 1;
 1801954:	e0bffa0b 	ldhu	r2,-24(fp)
 1801958:	10800044 	addi	r2,r2,1
 180195c:	e0bffa0d 	sth	r2,-24(fp)
      if (!(iface & 0x1))
 1801960:	e0bffa0b 	ldhu	r2,-24(fp)
 1801964:	1080004c 	andi	r2,r2,1
 1801968:	1004c03a 	cmpne	r2,r2,zero
 180196c:	1001621e 	bne	r2,zero,1801ef8 <alt_read_cfi_width+0x794>
      {
        ret_code = -ENODEV;
 1801970:	00bffb44 	movi	r2,-19
 1801974:	e0bff915 	stw	r2,-28(fp)
    for(i=0;i<6;i++)
    {
      byte_id[i] = IORD_8DIRECT(flash->dev.base_addr, (QUERY_ADDR*2)+i);
    }

    if ((byte_id[0] == 'Q') && 
 1801978:	00015f06 	br	1801ef8 <alt_read_cfi_width+0x794>
    else
    {
      /*
      * Check for 16 bit flash in word mode
      */
      alt_write_flash_command_16bit_device_16bit_mode(flash->dev.base_addr, 0x55, QUERY_MODE);
 180197c:	e0bfff17 	ldw	r2,-4(fp)
 1801980:	11000a17 	ldw	r4,40(r2)
 1801984:	01401544 	movi	r5,85
 1801988:	01802604 	movi	r6,152
 180198c:	1800d700 	call	1800d70 <alt_write_flash_command_16bit_device_16bit_mode>
      for(i=0;i<6;i++)
 1801990:	e03ffb15 	stw	zero,-20(fp)
 1801994:	00000f06 	br	18019d4 <alt_read_cfi_width+0x270>
      {
        byte_id[i] = IORD_8DIRECT(flash->dev.base_addr, (QUERY_ADDR*2)+i);
 1801998:	e13ffb17 	ldw	r4,-20(fp)
 180199c:	e0bfff17 	ldw	r2,-4(fp)
 18019a0:	10800a17 	ldw	r2,40(r2)
 18019a4:	1007883a 	mov	r3,r2
 18019a8:	e0bffb17 	ldw	r2,-20(fp)
 18019ac:	1885883a 	add	r2,r3,r2
 18019b0:	10800804 	addi	r2,r2,32
 18019b4:	10800023 	ldbuio	r2,0(r2)
 18019b8:	1007883a 	mov	r3,r2
 18019bc:	e0bffc04 	addi	r2,fp,-16
 18019c0:	1105883a 	add	r2,r2,r4
 18019c4:	10c00005 	stb	r3,0(r2)
    {
      /*
      * Check for 16 bit flash in word mode
      */
      alt_write_flash_command_16bit_device_16bit_mode(flash->dev.base_addr, 0x55, QUERY_MODE);
      for(i=0;i<6;i++)
 18019c8:	e0bffb17 	ldw	r2,-20(fp)
 18019cc:	10800044 	addi	r2,r2,1
 18019d0:	e0bffb15 	stw	r2,-20(fp)
 18019d4:	e0bffb17 	ldw	r2,-20(fp)
 18019d8:	10800190 	cmplti	r2,r2,6
 18019dc:	103fee1e 	bne	r2,zero,1801998 <alt_read_cfi_width+0x234>
      {
        byte_id[i] = IORD_8DIRECT(flash->dev.base_addr, (QUERY_ADDR*2)+i);
      }

      if ((byte_id[0] == 'Q') && 
 18019e0:	e0bffc03 	ldbu	r2,-16(fp)
 18019e4:	10803fcc 	andi	r2,r2,255
 18019e8:	10801458 	cmpnei	r2,r2,81
 18019ec:	1000291e 	bne	r2,zero,1801a94 <alt_read_cfi_width+0x330>
 18019f0:	e0bffc43 	ldbu	r2,-15(fp)
 18019f4:	10803fcc 	andi	r2,r2,255
 18019f8:	1004c03a 	cmpne	r2,r2,zero
 18019fc:	1000251e 	bne	r2,zero,1801a94 <alt_read_cfi_width+0x330>
 1801a00:	e0bffc83 	ldbu	r2,-14(fp)
 1801a04:	10803fcc 	andi	r2,r2,255
 1801a08:	10801498 	cmpnei	r2,r2,82
 1801a0c:	1000211e 	bne	r2,zero,1801a94 <alt_read_cfi_width+0x330>
 1801a10:	e0bffcc3 	ldbu	r2,-13(fp)
 1801a14:	10803fcc 	andi	r2,r2,255
 1801a18:	1004c03a 	cmpne	r2,r2,zero
 1801a1c:	10001d1e 	bne	r2,zero,1801a94 <alt_read_cfi_width+0x330>
 1801a20:	e0bffd03 	ldbu	r2,-12(fp)
 1801a24:	10803fcc 	andi	r2,r2,255
 1801a28:	10801658 	cmpnei	r2,r2,89
 1801a2c:	1000191e 	bne	r2,zero,1801a94 <alt_read_cfi_width+0x330>
 1801a30:	e0bffd43 	ldbu	r2,-11(fp)
 1801a34:	10803fcc 	andi	r2,r2,255
 1801a38:	1004c03a 	cmpne	r2,r2,zero
 1801a3c:	1000151e 	bne	r2,zero,1801a94 <alt_read_cfi_width+0x330>
          (byte_id[2] == 'R') && 
          (byte_id[3] == '\0') && 
          (byte_id[4] == 'Y') && 
          (byte_id[5] == '\0'))
      {
        flash->mode_width = 2;
 1801a40:	e0ffff17 	ldw	r3,-4(fp)
 1801a44:	00800084 	movi	r2,2
 1801a48:	18802e15 	stw	r2,184(r3)
        flash->device_width = 2; 
 1801a4c:	e0ffff17 	ldw	r3,-4(fp)
 1801a50:	00800084 	movi	r2,2
 1801a54:	18802f15 	stw	r2,188(r3)
        iface = IORD_16DIRECT(flash->dev.base_addr, INTERFACE_ADDR*2);
 1801a58:	e0bfff17 	ldw	r2,-4(fp)
 1801a5c:	10800a17 	ldw	r2,40(r2)
 1801a60:	10801404 	addi	r2,r2,80
 1801a64:	1080002b 	ldhuio	r2,0(r2)
 1801a68:	e0bffa0d 	sth	r2,-24(fp)
        iface += 1;
 1801a6c:	e0bffa0b 	ldhu	r2,-24(fp)
 1801a70:	10800044 	addi	r2,r2,1
 1801a74:	e0bffa0d 	sth	r2,-24(fp)
        if (!(iface & 0x2))
 1801a78:	e0bffa0b 	ldhu	r2,-24(fp)
 1801a7c:	1080008c 	andi	r2,r2,2
 1801a80:	1004c03a 	cmpne	r2,r2,zero
 1801a84:	10011c1e 	bne	r2,zero,1801ef8 <alt_read_cfi_width+0x794>
        {
          ret_code = -ENODEV;
 1801a88:	00bffb44 	movi	r2,-19
 1801a8c:	e0bff915 	stw	r2,-28(fp)
      for(i=0;i<6;i++)
      {
        byte_id[i] = IORD_8DIRECT(flash->dev.base_addr, (QUERY_ADDR*2)+i);
      }

      if ((byte_id[0] == 'Q') && 
 1801a90:	00011906 	br	1801ef8 <alt_read_cfi_width+0x794>
      else
      {
        /*
        * Check for 32bit wide flash in 32 bit mode
        */
        alt_write_flash_command_32bit_device_32bit_mode(flash->dev.base_addr, 0x55, QUERY_MODE);
 1801a94:	e0bfff17 	ldw	r2,-4(fp)
 1801a98:	11000a17 	ldw	r4,40(r2)
 1801a9c:	01401544 	movi	r5,85
 1801aa0:	01802604 	movi	r6,152
 1801aa4:	1800dfc0 	call	1800dfc <alt_write_flash_command_32bit_device_32bit_mode>
        for(i=0;i<12;i++)
 1801aa8:	e03ffb15 	stw	zero,-20(fp)
 1801aac:	00000f06 	br	1801aec <alt_read_cfi_width+0x388>
        {
          byte_id[i] = IORD_8DIRECT(flash->dev.base_addr, (QUERY_ADDR*4)+i);
 1801ab0:	e13ffb17 	ldw	r4,-20(fp)
 1801ab4:	e0bfff17 	ldw	r2,-4(fp)
 1801ab8:	10800a17 	ldw	r2,40(r2)
 1801abc:	1007883a 	mov	r3,r2
 1801ac0:	e0bffb17 	ldw	r2,-20(fp)
 1801ac4:	1885883a 	add	r2,r3,r2
 1801ac8:	10801004 	addi	r2,r2,64
 1801acc:	10800023 	ldbuio	r2,0(r2)
 1801ad0:	1007883a 	mov	r3,r2
 1801ad4:	e0bffc04 	addi	r2,fp,-16
 1801ad8:	1105883a 	add	r2,r2,r4
 1801adc:	10c00005 	stb	r3,0(r2)
      {
        /*
        * Check for 32bit wide flash in 32 bit mode
        */
        alt_write_flash_command_32bit_device_32bit_mode(flash->dev.base_addr, 0x55, QUERY_MODE);
        for(i=0;i<12;i++)
 1801ae0:	e0bffb17 	ldw	r2,-20(fp)
 1801ae4:	10800044 	addi	r2,r2,1
 1801ae8:	e0bffb15 	stw	r2,-20(fp)
 1801aec:	e0bffb17 	ldw	r2,-20(fp)
 1801af0:	10800310 	cmplti	r2,r2,12
 1801af4:	103fee1e 	bne	r2,zero,1801ab0 <alt_read_cfi_width+0x34c>
        {
          byte_id[i] = IORD_8DIRECT(flash->dev.base_addr, (QUERY_ADDR*4)+i);
        }

        if ((byte_id[0] == 'Q') &&
 1801af8:	e0bffc03 	ldbu	r2,-16(fp)
 1801afc:	10803fcc 	andi	r2,r2,255
 1801b00:	10801458 	cmpnei	r2,r2,81
 1801b04:	1000411e 	bne	r2,zero,1801c0c <alt_read_cfi_width+0x4a8>
 1801b08:	e0bffc43 	ldbu	r2,-15(fp)
 1801b0c:	10803fcc 	andi	r2,r2,255
 1801b10:	1004c03a 	cmpne	r2,r2,zero
 1801b14:	10003d1e 	bne	r2,zero,1801c0c <alt_read_cfi_width+0x4a8>
 1801b18:	e0bffc83 	ldbu	r2,-14(fp)
 1801b1c:	10803fcc 	andi	r2,r2,255
 1801b20:	1004c03a 	cmpne	r2,r2,zero
 1801b24:	1000391e 	bne	r2,zero,1801c0c <alt_read_cfi_width+0x4a8>
 1801b28:	e0bffcc3 	ldbu	r2,-13(fp)
 1801b2c:	10803fcc 	andi	r2,r2,255
 1801b30:	1004c03a 	cmpne	r2,r2,zero
 1801b34:	1000351e 	bne	r2,zero,1801c0c <alt_read_cfi_width+0x4a8>
 1801b38:	e0bffd03 	ldbu	r2,-12(fp)
 1801b3c:	10803fcc 	andi	r2,r2,255
 1801b40:	10801498 	cmpnei	r2,r2,82
 1801b44:	1000311e 	bne	r2,zero,1801c0c <alt_read_cfi_width+0x4a8>
 1801b48:	e0bffd43 	ldbu	r2,-11(fp)
 1801b4c:	10803fcc 	andi	r2,r2,255
 1801b50:	1004c03a 	cmpne	r2,r2,zero
 1801b54:	10002d1e 	bne	r2,zero,1801c0c <alt_read_cfi_width+0x4a8>
 1801b58:	e0bffd83 	ldbu	r2,-10(fp)
 1801b5c:	10803fcc 	andi	r2,r2,255
 1801b60:	1004c03a 	cmpne	r2,r2,zero
 1801b64:	1000291e 	bne	r2,zero,1801c0c <alt_read_cfi_width+0x4a8>
 1801b68:	e0bffdc3 	ldbu	r2,-9(fp)
 1801b6c:	10803fcc 	andi	r2,r2,255
 1801b70:	1004c03a 	cmpne	r2,r2,zero
 1801b74:	1000251e 	bne	r2,zero,1801c0c <alt_read_cfi_width+0x4a8>
 1801b78:	e0bffe03 	ldbu	r2,-8(fp)
 1801b7c:	10803fcc 	andi	r2,r2,255
 1801b80:	10801658 	cmpnei	r2,r2,89
 1801b84:	1000211e 	bne	r2,zero,1801c0c <alt_read_cfi_width+0x4a8>
 1801b88:	e0bffe43 	ldbu	r2,-7(fp)
 1801b8c:	10803fcc 	andi	r2,r2,255
 1801b90:	1004c03a 	cmpne	r2,r2,zero
 1801b94:	10001d1e 	bne	r2,zero,1801c0c <alt_read_cfi_width+0x4a8>
 1801b98:	e0bffe83 	ldbu	r2,-6(fp)
 1801b9c:	10803fcc 	andi	r2,r2,255
 1801ba0:	1004c03a 	cmpne	r2,r2,zero
 1801ba4:	1000191e 	bne	r2,zero,1801c0c <alt_read_cfi_width+0x4a8>
 1801ba8:	e0bffec3 	ldbu	r2,-5(fp)
 1801bac:	10803fcc 	andi	r2,r2,255
 1801bb0:	1004c03a 	cmpne	r2,r2,zero
 1801bb4:	1000151e 	bne	r2,zero,1801c0c <alt_read_cfi_width+0x4a8>
          (byte_id[8] == 'Y') && 
          (byte_id[9] == '\0') && 
          (byte_id[10] == '\0') && 
          (byte_id[11] == '\0'))
        {
          flash->mode_width = 4;
 1801bb8:	e0ffff17 	ldw	r3,-4(fp)
 1801bbc:	00800104 	movi	r2,4
 1801bc0:	18802e15 	stw	r2,184(r3)
          flash->device_width = 4; 
 1801bc4:	e0ffff17 	ldw	r3,-4(fp)
 1801bc8:	00800104 	movi	r2,4
 1801bcc:	18802f15 	stw	r2,188(r3)
          iface = IORD_32DIRECT(flash->dev.base_addr, INTERFACE_ADDR*4);
 1801bd0:	e0bfff17 	ldw	r2,-4(fp)
 1801bd4:	10800a17 	ldw	r2,40(r2)
 1801bd8:	10802804 	addi	r2,r2,160
 1801bdc:	10800037 	ldwio	r2,0(r2)
 1801be0:	e0bffa0d 	sth	r2,-24(fp)
          iface += 1;
 1801be4:	e0bffa0b 	ldhu	r2,-24(fp)
 1801be8:	10800044 	addi	r2,r2,1
 1801bec:	e0bffa0d 	sth	r2,-24(fp)
          if (!(iface & 0x4))
 1801bf0:	e0bffa0b 	ldhu	r2,-24(fp)
 1801bf4:	1080010c 	andi	r2,r2,4
 1801bf8:	1004c03a 	cmpne	r2,r2,zero
 1801bfc:	1000be1e 	bne	r2,zero,1801ef8 <alt_read_cfi_width+0x794>
          {
            ret_code = -ENODEV;
 1801c00:	00bffb44 	movi	r2,-19
 1801c04:	e0bff915 	stw	r2,-28(fp)
        for(i=0;i<12;i++)
        {
          byte_id[i] = IORD_8DIRECT(flash->dev.base_addr, (QUERY_ADDR*4)+i);
        }

        if ((byte_id[0] == 'Q') &&
 1801c08:	0000bb06 	br	1801ef8 <alt_read_cfi_width+0x794>
        else
        {
          /*
          * Check for 32 bit wide in 16 bit mode
          */
          alt_write_flash_command_32bit_device_16bit_mode(flash->dev.base_addr, 0x55, QUERY_MODE);
 1801c0c:	e0bfff17 	ldw	r2,-4(fp)
 1801c10:	11000a17 	ldw	r4,40(r2)
 1801c14:	01401544 	movi	r5,85
 1801c18:	01802604 	movi	r6,152
 1801c1c:	1800db40 	call	1800db4 <alt_write_flash_command_32bit_device_16bit_mode>
          for(i=0;i<12;i++)
 1801c20:	e03ffb15 	stw	zero,-20(fp)
 1801c24:	00000f06 	br	1801c64 <alt_read_cfi_width+0x500>
          {
            byte_id[i] = IORD_8DIRECT(flash->dev.base_addr, (QUERY_ADDR*4)+i);
 1801c28:	e13ffb17 	ldw	r4,-20(fp)
 1801c2c:	e0bfff17 	ldw	r2,-4(fp)
 1801c30:	10800a17 	ldw	r2,40(r2)
 1801c34:	1007883a 	mov	r3,r2
 1801c38:	e0bffb17 	ldw	r2,-20(fp)
 1801c3c:	1885883a 	add	r2,r3,r2
 1801c40:	10801004 	addi	r2,r2,64
 1801c44:	10800023 	ldbuio	r2,0(r2)
 1801c48:	1007883a 	mov	r3,r2
 1801c4c:	e0bffc04 	addi	r2,fp,-16
 1801c50:	1105883a 	add	r2,r2,r4
 1801c54:	10c00005 	stb	r3,0(r2)
        {
          /*
          * Check for 32 bit wide in 16 bit mode
          */
          alt_write_flash_command_32bit_device_16bit_mode(flash->dev.base_addr, 0x55, QUERY_MODE);
          for(i=0;i<12;i++)
 1801c58:	e0bffb17 	ldw	r2,-20(fp)
 1801c5c:	10800044 	addi	r2,r2,1
 1801c60:	e0bffb15 	stw	r2,-20(fp)
 1801c64:	e0bffb17 	ldw	r2,-20(fp)
 1801c68:	10800310 	cmplti	r2,r2,12
 1801c6c:	103fee1e 	bne	r2,zero,1801c28 <alt_read_cfi_width+0x4c4>
          {
            byte_id[i] = IORD_8DIRECT(flash->dev.base_addr, (QUERY_ADDR*4)+i);
          }

          if ((byte_id[0] == 'Q') &&
 1801c70:	e0bffc03 	ldbu	r2,-16(fp)
 1801c74:	10803fcc 	andi	r2,r2,255
 1801c78:	10801458 	cmpnei	r2,r2,81
 1801c7c:	1000411e 	bne	r2,zero,1801d84 <alt_read_cfi_width+0x620>
 1801c80:	e0bffc43 	ldbu	r2,-15(fp)
 1801c84:	10803fcc 	andi	r2,r2,255
 1801c88:	1004c03a 	cmpne	r2,r2,zero
 1801c8c:	10003d1e 	bne	r2,zero,1801d84 <alt_read_cfi_width+0x620>
 1801c90:	e0bffc83 	ldbu	r2,-14(fp)
 1801c94:	10803fcc 	andi	r2,r2,255
 1801c98:	10801458 	cmpnei	r2,r2,81
 1801c9c:	1000391e 	bne	r2,zero,1801d84 <alt_read_cfi_width+0x620>
 1801ca0:	e0bffcc3 	ldbu	r2,-13(fp)
 1801ca4:	10803fcc 	andi	r2,r2,255
 1801ca8:	1004c03a 	cmpne	r2,r2,zero
 1801cac:	1000351e 	bne	r2,zero,1801d84 <alt_read_cfi_width+0x620>
 1801cb0:	e0bffd03 	ldbu	r2,-12(fp)
 1801cb4:	10803fcc 	andi	r2,r2,255
 1801cb8:	10801498 	cmpnei	r2,r2,82
 1801cbc:	1000311e 	bne	r2,zero,1801d84 <alt_read_cfi_width+0x620>
 1801cc0:	e0bffd43 	ldbu	r2,-11(fp)
 1801cc4:	10803fcc 	andi	r2,r2,255
 1801cc8:	1004c03a 	cmpne	r2,r2,zero
 1801ccc:	10002d1e 	bne	r2,zero,1801d84 <alt_read_cfi_width+0x620>
 1801cd0:	e0bffd83 	ldbu	r2,-10(fp)
 1801cd4:	10803fcc 	andi	r2,r2,255
 1801cd8:	10801498 	cmpnei	r2,r2,82
 1801cdc:	1000291e 	bne	r2,zero,1801d84 <alt_read_cfi_width+0x620>
 1801ce0:	e0bffdc3 	ldbu	r2,-9(fp)
 1801ce4:	10803fcc 	andi	r2,r2,255
 1801ce8:	1004c03a 	cmpne	r2,r2,zero
 1801cec:	1000251e 	bne	r2,zero,1801d84 <alt_read_cfi_width+0x620>
 1801cf0:	e0bffe03 	ldbu	r2,-8(fp)
 1801cf4:	10803fcc 	andi	r2,r2,255
 1801cf8:	10801658 	cmpnei	r2,r2,89
 1801cfc:	1000211e 	bne	r2,zero,1801d84 <alt_read_cfi_width+0x620>
 1801d00:	e0bffe43 	ldbu	r2,-7(fp)
 1801d04:	10803fcc 	andi	r2,r2,255
 1801d08:	1004c03a 	cmpne	r2,r2,zero
 1801d0c:	10001d1e 	bne	r2,zero,1801d84 <alt_read_cfi_width+0x620>
 1801d10:	e0bffe83 	ldbu	r2,-6(fp)
 1801d14:	10803fcc 	andi	r2,r2,255
 1801d18:	10801658 	cmpnei	r2,r2,89
 1801d1c:	1000191e 	bne	r2,zero,1801d84 <alt_read_cfi_width+0x620>
 1801d20:	e0bffec3 	ldbu	r2,-5(fp)
 1801d24:	10803fcc 	andi	r2,r2,255
 1801d28:	1004c03a 	cmpne	r2,r2,zero
 1801d2c:	1000151e 	bne	r2,zero,1801d84 <alt_read_cfi_width+0x620>
              (byte_id[8] == 'Y') &&
              (byte_id[9] == '\0') &&
              (byte_id[10] == 'Y') &&
              (byte_id[11] == '\0'))
          {
            flash->mode_width = 2;
 1801d30:	e0ffff17 	ldw	r3,-4(fp)
 1801d34:	00800084 	movi	r2,2
 1801d38:	18802e15 	stw	r2,184(r3)
            flash->device_width = 4; 
 1801d3c:	e0ffff17 	ldw	r3,-4(fp)
 1801d40:	00800104 	movi	r2,4
 1801d44:	18802f15 	stw	r2,188(r3)
            iface = IORD_32DIRECT(flash->dev.base_addr, INTERFACE_ADDR*4);
 1801d48:	e0bfff17 	ldw	r2,-4(fp)
 1801d4c:	10800a17 	ldw	r2,40(r2)
 1801d50:	10802804 	addi	r2,r2,160
 1801d54:	10800037 	ldwio	r2,0(r2)
 1801d58:	e0bffa0d 	sth	r2,-24(fp)
            iface += 1;
 1801d5c:	e0bffa0b 	ldhu	r2,-24(fp)
 1801d60:	10800044 	addi	r2,r2,1
 1801d64:	e0bffa0d 	sth	r2,-24(fp)
            if (!(iface & 0x4))
 1801d68:	e0bffa0b 	ldhu	r2,-24(fp)
 1801d6c:	1080010c 	andi	r2,r2,4
 1801d70:	1004c03a 	cmpne	r2,r2,zero
 1801d74:	1000601e 	bne	r2,zero,1801ef8 <alt_read_cfi_width+0x794>
            {
              ret_code = -ENODEV;
 1801d78:	00bffb44 	movi	r2,-19
 1801d7c:	e0bff915 	stw	r2,-28(fp)
          for(i=0;i<12;i++)
          {
            byte_id[i] = IORD_8DIRECT(flash->dev.base_addr, (QUERY_ADDR*4)+i);
          }

          if ((byte_id[0] == 'Q') &&
 1801d80:	00005d06 	br	1801ef8 <alt_read_cfi_width+0x794>
          else
          {
            /*
            * 32 Bit wide flash in byte mode
            */
            alt_write_flash_command_32bit_device_8bit_mode(flash->dev.base_addr, 0x55, QUERY_MODE);
 1801d84:	e0bfff17 	ldw	r2,-4(fp)
 1801d88:	11000a17 	ldw	r4,40(r2)
 1801d8c:	01401544 	movi	r5,85
 1801d90:	01802604 	movi	r6,152
 1801d94:	1800d280 	call	1800d28 <alt_write_flash_command_32bit_device_8bit_mode>
            for(i=0;i<12;i++)
 1801d98:	e03ffb15 	stw	zero,-20(fp)
 1801d9c:	00000f06 	br	1801ddc <alt_read_cfi_width+0x678>
            {
              byte_id[i] = IORD_8DIRECT(flash->dev.base_addr, (QUERY_ADDR*4)+i);
 1801da0:	e13ffb17 	ldw	r4,-20(fp)
 1801da4:	e0bfff17 	ldw	r2,-4(fp)
 1801da8:	10800a17 	ldw	r2,40(r2)
 1801dac:	1007883a 	mov	r3,r2
 1801db0:	e0bffb17 	ldw	r2,-20(fp)
 1801db4:	1885883a 	add	r2,r3,r2
 1801db8:	10801004 	addi	r2,r2,64
 1801dbc:	10800023 	ldbuio	r2,0(r2)
 1801dc0:	1007883a 	mov	r3,r2
 1801dc4:	e0bffc04 	addi	r2,fp,-16
 1801dc8:	1105883a 	add	r2,r2,r4
 1801dcc:	10c00005 	stb	r3,0(r2)
          {
            /*
            * 32 Bit wide flash in byte mode
            */
            alt_write_flash_command_32bit_device_8bit_mode(flash->dev.base_addr, 0x55, QUERY_MODE);
            for(i=0;i<12;i++)
 1801dd0:	e0bffb17 	ldw	r2,-20(fp)
 1801dd4:	10800044 	addi	r2,r2,1
 1801dd8:	e0bffb15 	stw	r2,-20(fp)
 1801ddc:	e0bffb17 	ldw	r2,-20(fp)
 1801de0:	10800310 	cmplti	r2,r2,12
 1801de4:	103fee1e 	bne	r2,zero,1801da0 <alt_read_cfi_width+0x63c>
            {
              byte_id[i] = IORD_8DIRECT(flash->dev.base_addr, (QUERY_ADDR*4)+i);
            }

            if ((byte_id[0] == 'Q') &&
 1801de8:	e0bffc03 	ldbu	r2,-16(fp)
 1801dec:	10803fcc 	andi	r2,r2,255
 1801df0:	10801458 	cmpnei	r2,r2,81
 1801df4:	1000401e 	bne	r2,zero,1801ef8 <alt_read_cfi_width+0x794>
 1801df8:	e0bffc43 	ldbu	r2,-15(fp)
 1801dfc:	10803fcc 	andi	r2,r2,255
 1801e00:	10801458 	cmpnei	r2,r2,81
 1801e04:	10003c1e 	bne	r2,zero,1801ef8 <alt_read_cfi_width+0x794>
 1801e08:	e0bffc83 	ldbu	r2,-14(fp)
 1801e0c:	10803fcc 	andi	r2,r2,255
 1801e10:	10801458 	cmpnei	r2,r2,81
 1801e14:	1000381e 	bne	r2,zero,1801ef8 <alt_read_cfi_width+0x794>
 1801e18:	e0bffcc3 	ldbu	r2,-13(fp)
 1801e1c:	10803fcc 	andi	r2,r2,255
 1801e20:	10801458 	cmpnei	r2,r2,81
 1801e24:	1000341e 	bne	r2,zero,1801ef8 <alt_read_cfi_width+0x794>
 1801e28:	e0bffd03 	ldbu	r2,-12(fp)
 1801e2c:	10803fcc 	andi	r2,r2,255
 1801e30:	10801498 	cmpnei	r2,r2,82
 1801e34:	1000301e 	bne	r2,zero,1801ef8 <alt_read_cfi_width+0x794>
 1801e38:	e0bffd43 	ldbu	r2,-11(fp)
 1801e3c:	10803fcc 	andi	r2,r2,255
 1801e40:	10801498 	cmpnei	r2,r2,82
 1801e44:	10002c1e 	bne	r2,zero,1801ef8 <alt_read_cfi_width+0x794>
 1801e48:	e0bffd83 	ldbu	r2,-10(fp)
 1801e4c:	10803fcc 	andi	r2,r2,255
 1801e50:	10801498 	cmpnei	r2,r2,82
 1801e54:	1000281e 	bne	r2,zero,1801ef8 <alt_read_cfi_width+0x794>
 1801e58:	e0bffdc3 	ldbu	r2,-9(fp)
 1801e5c:	10803fcc 	andi	r2,r2,255
 1801e60:	10801498 	cmpnei	r2,r2,82
 1801e64:	1000241e 	bne	r2,zero,1801ef8 <alt_read_cfi_width+0x794>
 1801e68:	e0bffe03 	ldbu	r2,-8(fp)
 1801e6c:	10803fcc 	andi	r2,r2,255
 1801e70:	10801658 	cmpnei	r2,r2,89
 1801e74:	1000201e 	bne	r2,zero,1801ef8 <alt_read_cfi_width+0x794>
 1801e78:	e0bffe43 	ldbu	r2,-7(fp)
 1801e7c:	10803fcc 	andi	r2,r2,255
 1801e80:	10801658 	cmpnei	r2,r2,89
 1801e84:	10001c1e 	bne	r2,zero,1801ef8 <alt_read_cfi_width+0x794>
 1801e88:	e0bffe83 	ldbu	r2,-6(fp)
 1801e8c:	10803fcc 	andi	r2,r2,255
 1801e90:	10801658 	cmpnei	r2,r2,89
 1801e94:	1000181e 	bne	r2,zero,1801ef8 <alt_read_cfi_width+0x794>
 1801e98:	e0bffec3 	ldbu	r2,-5(fp)
 1801e9c:	10803fcc 	andi	r2,r2,255
 1801ea0:	10801658 	cmpnei	r2,r2,89
 1801ea4:	1000141e 	bne	r2,zero,1801ef8 <alt_read_cfi_width+0x794>
                (byte_id[8] == 'Y') && 
                (byte_id[9] == 'Y') && 
                (byte_id[10] == 'Y') && 
                (byte_id[11] == 'Y'))
            {
              flash->mode_width = 1;
 1801ea8:	e0ffff17 	ldw	r3,-4(fp)
 1801eac:	00800044 	movi	r2,1
 1801eb0:	18802e15 	stw	r2,184(r3)
              flash->device_width = 4; 
 1801eb4:	e0ffff17 	ldw	r3,-4(fp)
 1801eb8:	00800104 	movi	r2,4
 1801ebc:	18802f15 	stw	r2,188(r3)
              iface = IORD_32DIRECT(flash->dev.base_addr, INTERFACE_ADDR*4);
 1801ec0:	e0bfff17 	ldw	r2,-4(fp)
 1801ec4:	10800a17 	ldw	r2,40(r2)
 1801ec8:	10802804 	addi	r2,r2,160
 1801ecc:	10800037 	ldwio	r2,0(r2)
 1801ed0:	e0bffa0d 	sth	r2,-24(fp)
              iface += 1;
 1801ed4:	e0bffa0b 	ldhu	r2,-24(fp)
 1801ed8:	10800044 	addi	r2,r2,1
 1801edc:	e0bffa0d 	sth	r2,-24(fp)
              if (!(iface & 0x4))
 1801ee0:	e0bffa0b 	ldhu	r2,-24(fp)
 1801ee4:	1080010c 	andi	r2,r2,4
 1801ee8:	1004c03a 	cmpne	r2,r2,zero
 1801eec:	1000021e 	bne	r2,zero,1801ef8 <alt_read_cfi_width+0x794>
              {
                ret_code = -ENODEV;
 1801ef0:	00bffb44 	movi	r2,-19
 1801ef4:	e0bff915 	stw	r2,-28(fp)
        }
      }
    }
  }
  
  return ret_code;
 1801ef8:	e0bff917 	ldw	r2,-28(fp)
}
 1801efc:	e037883a 	mov	sp,fp
 1801f00:	dfc00117 	ldw	ra,4(sp)
 1801f04:	df000017 	ldw	fp,0(sp)
 1801f08:	dec00204 	addi	sp,sp,8
 1801f0c:	f800283a 	ret

01801f10 <alt_check_primary_table>:
 * 
 * Check that the primary Vendor table starts with the 
 * correct pattern
 */
int alt_check_primary_table(alt_flash_cfi_dev* flash)
{
 1801f10:	defff904 	addi	sp,sp,-28
 1801f14:	dfc00615 	stw	ra,24(sp)
 1801f18:	df000515 	stw	fp,20(sp)
 1801f1c:	dc000415 	stw	r16,16(sp)
 1801f20:	df000404 	addi	fp,sp,16
 1801f24:	e13fff15 	stw	r4,-4(fp)
  int i;
  int ret_code = 0;
 1801f28:	e03ffc15 	stw	zero,-16(fp)
  alt_u8 primary_query_string[3];
  
  flash->primary_address = alt_read_16bit_query_entry( flash, 
 1801f2c:	e13fff17 	ldw	r4,-4(fp)
 1801f30:	01400544 	movi	r5,21
 1801f34:	18011680 	call	1801168 <alt_read_16bit_query_entry>
 1801f38:	10ffffcc 	andi	r3,r2,65535
 1801f3c:	e0bfff17 	ldw	r2,-4(fp)
 1801f40:	10c03215 	stw	r3,200(r2)
                            PRIMARY_ADDR);
  
  for(i=0;i<3;i++)
 1801f44:	e03ffd15 	stw	zero,-12(fp)
 1801f48:	00001006 	br	1801f8c <alt_check_primary_table+0x7c>
  {
    primary_query_string[i] = 
 1801f4c:	e43ffd17 	ldw	r16,-12(fp)
 1801f50:	e0bfff17 	ldw	r2,-4(fp)
 1801f54:	11803417 	ldw	r6,208(r2)
 1801f58:	e0bfff17 	ldw	r2,-4(fp)
 1801f5c:	10c03217 	ldw	r3,200(r2)
 1801f60:	e0bffd17 	ldw	r2,-12(fp)
 1801f64:	188b883a 	add	r5,r3,r2
 1801f68:	e13fff17 	ldw	r4,-4(fp)
 1801f6c:	303ee83a 	callr	r6
 1801f70:	1007883a 	mov	r3,r2
 1801f74:	e0bffe04 	addi	r2,fp,-8
 1801f78:	1405883a 	add	r2,r2,r16
 1801f7c:	10c00005 	stb	r3,0(r2)
  alt_u8 primary_query_string[3];
  
  flash->primary_address = alt_read_16bit_query_entry( flash, 
                            PRIMARY_ADDR);
  
  for(i=0;i<3;i++)
 1801f80:	e0bffd17 	ldw	r2,-12(fp)
 1801f84:	10800044 	addi	r2,r2,1
 1801f88:	e0bffd15 	stw	r2,-12(fp)
 1801f8c:	e0bffd17 	ldw	r2,-12(fp)
 1801f90:	108000d0 	cmplti	r2,r2,3
 1801f94:	103fed1e 	bne	r2,zero,1801f4c <alt_check_primary_table+0x3c>
  {
    primary_query_string[i] = 
          (*flash->read_query)( flash,(flash->primary_address + i));
  }
    
  if ((primary_query_string[0] != 'P') ||
 1801f98:	e0bffe03 	ldbu	r2,-8(fp)
 1801f9c:	10803fcc 	andi	r2,r2,255
 1801fa0:	10801418 	cmpnei	r2,r2,80
 1801fa4:	1000081e 	bne	r2,zero,1801fc8 <alt_check_primary_table+0xb8>
 1801fa8:	e0bffe43 	ldbu	r2,-7(fp)
 1801fac:	10803fcc 	andi	r2,r2,255
 1801fb0:	10801498 	cmpnei	r2,r2,82
 1801fb4:	1000041e 	bne	r2,zero,1801fc8 <alt_check_primary_table+0xb8>
 1801fb8:	e0bffe83 	ldbu	r2,-6(fp)
 1801fbc:	10803fcc 	andi	r2,r2,255
 1801fc0:	10801260 	cmpeqi	r2,r2,73
 1801fc4:	1000021e 	bne	r2,zero,1801fd0 <alt_check_primary_table+0xc0>
      (primary_query_string[1] != 'R') ||
      (primary_query_string[2] != 'I'))
  {
    ret_code = -ENODEV;
 1801fc8:	00bffb44 	movi	r2,-19
 1801fcc:	e0bffc15 	stw	r2,-16(fp)
  }
  
  return ret_code;
 1801fd0:	e0bffc17 	ldw	r2,-16(fp)
}
 1801fd4:	e037883a 	mov	sp,fp
 1801fd8:	dfc00217 	ldw	ra,8(sp)
 1801fdc:	df000117 	ldw	fp,4(sp)
 1801fe0:	dc000017 	ldw	r16,0(sp)
 1801fe4:	dec00304 	addi	sp,sp,12
 1801fe8:	f800283a 	ret

01801fec <altera_avalon_jtag_uart_read_fd>:
 *
 */

int 
altera_avalon_jtag_uart_read_fd(alt_fd* fd, char* buffer, int space)
{
 1801fec:	defffa04 	addi	sp,sp,-24
 1801ff0:	dfc00515 	stw	ra,20(sp)
 1801ff4:	df000415 	stw	fp,16(sp)
 1801ff8:	df000404 	addi	fp,sp,16
 1801ffc:	e13ffd15 	stw	r4,-12(fp)
 1802000:	e17ffe15 	stw	r5,-8(fp)
 1802004:	e1bfff15 	stw	r6,-4(fp)
    altera_avalon_jtag_uart_dev* dev = (altera_avalon_jtag_uart_dev*) fd->dev; 
 1802008:	e0bffd17 	ldw	r2,-12(fp)
 180200c:	10800017 	ldw	r2,0(r2)
 1802010:	e0bffc15 	stw	r2,-16(fp)

    return altera_avalon_jtag_uart_read(&dev->state, buffer, space,
 1802014:	e0bffc17 	ldw	r2,-16(fp)
 1802018:	11000a04 	addi	r4,r2,40
 180201c:	e0bffd17 	ldw	r2,-12(fp)
 1802020:	11c00217 	ldw	r7,8(r2)
 1802024:	e17ffe17 	ldw	r5,-8(fp)
 1802028:	e1bfff17 	ldw	r6,-4(fp)
 180202c:	18026340 	call	1802634 <altera_avalon_jtag_uart_read>
      fd->fd_flags);
}
 1802030:	e037883a 	mov	sp,fp
 1802034:	dfc00117 	ldw	ra,4(sp)
 1802038:	df000017 	ldw	fp,0(sp)
 180203c:	dec00204 	addi	sp,sp,8
 1802040:	f800283a 	ret

01802044 <altera_avalon_jtag_uart_write_fd>:

int 
altera_avalon_jtag_uart_write_fd(alt_fd* fd, const char* buffer, int space)
{
 1802044:	defffa04 	addi	sp,sp,-24
 1802048:	dfc00515 	stw	ra,20(sp)
 180204c:	df000415 	stw	fp,16(sp)
 1802050:	df000404 	addi	fp,sp,16
 1802054:	e13ffd15 	stw	r4,-12(fp)
 1802058:	e17ffe15 	stw	r5,-8(fp)
 180205c:	e1bfff15 	stw	r6,-4(fp)
    altera_avalon_jtag_uart_dev* dev = (altera_avalon_jtag_uart_dev*) fd->dev; 
 1802060:	e0bffd17 	ldw	r2,-12(fp)
 1802064:	10800017 	ldw	r2,0(r2)
 1802068:	e0bffc15 	stw	r2,-16(fp)

    return altera_avalon_jtag_uart_write(&dev->state, buffer, space,
 180206c:	e0bffc17 	ldw	r2,-16(fp)
 1802070:	11000a04 	addi	r4,r2,40
 1802074:	e0bffd17 	ldw	r2,-12(fp)
 1802078:	11c00217 	ldw	r7,8(r2)
 180207c:	e17ffe17 	ldw	r5,-8(fp)
 1802080:	e1bfff17 	ldw	r6,-4(fp)
 1802084:	18028580 	call	1802858 <altera_avalon_jtag_uart_write>
      fd->fd_flags);
}
 1802088:	e037883a 	mov	sp,fp
 180208c:	dfc00117 	ldw	ra,4(sp)
 1802090:	df000017 	ldw	fp,0(sp)
 1802094:	dec00204 	addi	sp,sp,8
 1802098:	f800283a 	ret

0180209c <altera_avalon_jtag_uart_close_fd>:

#ifndef ALTERA_AVALON_JTAG_UART_SMALL

int 
altera_avalon_jtag_uart_close_fd(alt_fd* fd)
{
 180209c:	defffc04 	addi	sp,sp,-16
 18020a0:	dfc00315 	stw	ra,12(sp)
 18020a4:	df000215 	stw	fp,8(sp)
 18020a8:	df000204 	addi	fp,sp,8
 18020ac:	e13fff15 	stw	r4,-4(fp)
    altera_avalon_jtag_uart_dev* dev = (altera_avalon_jtag_uart_dev*) fd->dev; 
 18020b0:	e0bfff17 	ldw	r2,-4(fp)
 18020b4:	10800017 	ldw	r2,0(r2)
 18020b8:	e0bffe15 	stw	r2,-8(fp)

    return altera_avalon_jtag_uart_close(&dev->state, fd->fd_flags);
 18020bc:	e0bffe17 	ldw	r2,-8(fp)
 18020c0:	11000a04 	addi	r4,r2,40
 18020c4:	e0bfff17 	ldw	r2,-4(fp)
 18020c8:	11400217 	ldw	r5,8(r2)
 18020cc:	18024cc0 	call	18024cc <altera_avalon_jtag_uart_close>
}
 18020d0:	e037883a 	mov	sp,fp
 18020d4:	dfc00117 	ldw	ra,4(sp)
 18020d8:	df000017 	ldw	fp,0(sp)
 18020dc:	dec00204 	addi	sp,sp,8
 18020e0:	f800283a 	ret

018020e4 <altera_avalon_jtag_uart_ioctl_fd>:

int 
altera_avalon_jtag_uart_ioctl_fd(alt_fd* fd, int req, void* arg)
{
 18020e4:	defffa04 	addi	sp,sp,-24
 18020e8:	dfc00515 	stw	ra,20(sp)
 18020ec:	df000415 	stw	fp,16(sp)
 18020f0:	df000404 	addi	fp,sp,16
 18020f4:	e13ffd15 	stw	r4,-12(fp)
 18020f8:	e17ffe15 	stw	r5,-8(fp)
 18020fc:	e1bfff15 	stw	r6,-4(fp)
    altera_avalon_jtag_uart_dev* dev = (altera_avalon_jtag_uart_dev*) fd->dev;
 1802100:	e0bffd17 	ldw	r2,-12(fp)
 1802104:	10800017 	ldw	r2,0(r2)
 1802108:	e0bffc15 	stw	r2,-16(fp)

    return altera_avalon_jtag_uart_ioctl(&dev->state, req, arg);
 180210c:	e0bffc17 	ldw	r2,-16(fp)
 1802110:	11000a04 	addi	r4,r2,40
 1802114:	e17ffe17 	ldw	r5,-8(fp)
 1802118:	e1bfff17 	ldw	r6,-4(fp)
 180211c:	18025400 	call	1802540 <altera_avalon_jtag_uart_ioctl>
}
 1802120:	e037883a 	mov	sp,fp
 1802124:	dfc00117 	ldw	ra,4(sp)
 1802128:	df000017 	ldw	fp,0(sp)
 180212c:	dec00204 	addi	sp,sp,8
 1802130:	f800283a 	ret

01802134 <altera_avalon_jtag_uart_init>:
 * Return 1 on sucessful IRQ register and 0 on failure.
 */

void altera_avalon_jtag_uart_init(altera_avalon_jtag_uart_state* sp, 
                                  int irq_controller_id, int irq)
{
 1802134:	defffa04 	addi	sp,sp,-24
 1802138:	dfc00515 	stw	ra,20(sp)
 180213c:	df000415 	stw	fp,16(sp)
 1802140:	df000404 	addi	fp,sp,16
 1802144:	e13ffd15 	stw	r4,-12(fp)
 1802148:	e17ffe15 	stw	r5,-8(fp)
 180214c:	e1bfff15 	stw	r6,-4(fp)
  ALT_FLAG_CREATE(&sp->events, 0);
  ALT_SEM_CREATE(&sp->read_lock, 1);
  ALT_SEM_CREATE(&sp->write_lock, 1);

  /* enable read interrupts at the device */
  sp->irq_enable = ALTERA_AVALON_JTAG_UART_CONTROL_RE_MSK;
 1802150:	e0fffd17 	ldw	r3,-12(fp)
 1802154:	00800044 	movi	r2,1
 1802158:	18800815 	stw	r2,32(r3)

  IOWR_ALTERA_AVALON_JTAG_UART_CONTROL(sp->base, sp->irq_enable); 
 180215c:	e0bffd17 	ldw	r2,-12(fp)
 1802160:	10800017 	ldw	r2,0(r2)
 1802164:	11000104 	addi	r4,r2,4
 1802168:	e0bffd17 	ldw	r2,-12(fp)
 180216c:	10800817 	ldw	r2,32(r2)
 1802170:	1007883a 	mov	r3,r2
 1802174:	2005883a 	mov	r2,r4
 1802178:	10c00035 	stwio	r3,0(r2)
  
  /* register the interrupt handler */
#ifdef ALT_ENHANCED_INTERRUPT_API_PRESENT
  alt_ic_isr_register(irq_controller_id, irq, altera_avalon_jtag_uart_irq, 
 180217c:	e13ffe17 	ldw	r4,-8(fp)
 1802180:	e17fff17 	ldw	r5,-4(fp)
 1802184:	d8000015 	stw	zero,0(sp)
 1802188:	01806034 	movhi	r6,384
 180218c:	31887d04 	addi	r6,r6,8692
 1802190:	e1fffd17 	ldw	r7,-12(fp)
 1802194:	1804a800 	call	1804a80 <alt_ic_isr_register>
#else
  alt_irq_register(irq, sp, altera_avalon_jtag_uart_irq);
#endif  

  /* Register an alarm to go off every second to check for presence of host */
  sp->host_inactive = 0;
 1802198:	e0bffd17 	ldw	r2,-12(fp)
 180219c:	10000915 	stw	zero,36(r2)

  if (alt_alarm_start(&sp->alarm, alt_ticks_per_second(), 
 18021a0:	e0bffd17 	ldw	r2,-12(fp)
 18021a4:	11000204 	addi	r4,r2,8
 * Obtain the system clock rate in ticks/s. 
 */

static ALT_INLINE alt_u32 ALT_ALWAYS_INLINE alt_ticks_per_second (void)
{
  return _alt_tick_rate;
 18021a8:	00806074 	movhi	r2,385
 18021ac:	10a09104 	addi	r2,r2,-32188
 18021b0:	10800017 	ldw	r2,0(r2)
 18021b4:	100b883a 	mov	r5,r2
 18021b8:	01806034 	movhi	r6,384
 18021bc:	31890704 	addi	r6,r6,9244
 18021c0:	e1fffd17 	ldw	r7,-12(fp)
 18021c4:	18044800 	call	1804480 <alt_alarm_start>
 18021c8:	1004403a 	cmpge	r2,r2,zero
 18021cc:	1000041e 	bne	r2,zero,18021e0 <altera_avalon_jtag_uart_init+0xac>
    &altera_avalon_jtag_uart_timeout, sp) < 0)
  {
    /* If we can't set the alarm then record "don't know if host present" 
     * and behave as though the host is present.
     */
    sp->timeout = INT_MAX;
 18021d0:	e0fffd17 	ldw	r3,-12(fp)
 18021d4:	00a00034 	movhi	r2,32768
 18021d8:	10bfffc4 	addi	r2,r2,-1
 18021dc:	18800115 	stw	r2,4(r3)
  }

  /* ALT_LOG - see altera_hal/HAL/inc/sys/alt_log_printf.h */ 
  ALT_LOG_JTAG_UART_ALARM_REGISTER(sp, sp->base);
}
 18021e0:	e037883a 	mov	sp,fp
 18021e4:	dfc00117 	ldw	ra,4(sp)
 18021e8:	df000017 	ldw	fp,0(sp)
 18021ec:	dec00204 	addi	sp,sp,8
 18021f0:	f800283a 	ret

018021f4 <altera_avalon_jtag_uart_irq>:
#ifdef ALT_ENHANCED_INTERRUPT_API_PRESENT
static void altera_avalon_jtag_uart_irq(void* context)
#else
static void altera_avalon_jtag_uart_irq(void* context, alt_u32 id)
#endif
{
 18021f4:	defff804 	addi	sp,sp,-32
 18021f8:	df000715 	stw	fp,28(sp)
 18021fc:	df000704 	addi	fp,sp,28
 1802200:	e13fff15 	stw	r4,-4(fp)
  altera_avalon_jtag_uart_state* sp = (altera_avalon_jtag_uart_state*) context;
 1802204:	e0bfff17 	ldw	r2,-4(fp)
 1802208:	e0bffe15 	stw	r2,-8(fp)
  unsigned int base = sp->base;
 180220c:	e0bffe17 	ldw	r2,-8(fp)
 1802210:	10800017 	ldw	r2,0(r2)
 1802214:	e0bffd15 	stw	r2,-12(fp)
 1802218:	00000006 	br	180221c <altera_avalon_jtag_uart_irq+0x28>
  /* ALT_LOG - see altera_hal/HAL/inc/sys/alt_log_printf.h */ 
  ALT_LOG_JTAG_UART_ISR_FUNCTION(base, sp);

  for ( ; ; )
  {
    unsigned int control = IORD_ALTERA_AVALON_JTAG_UART_CONTROL(base);
 180221c:	e0bffd17 	ldw	r2,-12(fp)
 1802220:	10800104 	addi	r2,r2,4
 1802224:	10800037 	ldwio	r2,0(r2)
 1802228:	e0bffc15 	stw	r2,-16(fp)

    /* Return once nothing more to do */
    if ((control & (ALTERA_AVALON_JTAG_UART_CONTROL_RI_MSK | ALTERA_AVALON_JTAG_UART_CONTROL_WI_MSK)) == 0)
 180222c:	e0bffc17 	ldw	r2,-16(fp)
 1802230:	1080c00c 	andi	r2,r2,768
 1802234:	1005003a 	cmpeq	r2,r2,zero
 1802238:	1000741e 	bne	r2,zero,180240c <altera_avalon_jtag_uart_irq+0x218>
      break;

    if (control & ALTERA_AVALON_JTAG_UART_CONTROL_RI_MSK)
 180223c:	e0bffc17 	ldw	r2,-16(fp)
 1802240:	1080400c 	andi	r2,r2,256
 1802244:	1005003a 	cmpeq	r2,r2,zero
 1802248:	1000351e 	bne	r2,zero,1802320 <altera_avalon_jtag_uart_irq+0x12c>
    {
      /* process a read irq.  Start by assuming that there is data in the
       * receive FIFO (otherwise why would we have been interrupted?)
       */
      unsigned int data = 1 << ALTERA_AVALON_JTAG_UART_DATA_RAVAIL_OFST;
 180224c:	00800074 	movhi	r2,1
 1802250:	e0bffb15 	stw	r2,-20(fp)
      for ( ; ; )
      {
        /* Check whether there is space in the buffer.  If not then we must not
         * read any characters from the buffer as they will be lost.
         */
        unsigned int next = (sp->rx_in + 1) % ALTERA_AVALON_JTAG_UART_BUF_LEN;
 1802254:	e0bffe17 	ldw	r2,-8(fp)
 1802258:	10800a17 	ldw	r2,40(r2)
 180225c:	10800044 	addi	r2,r2,1
 1802260:	1081ffcc 	andi	r2,r2,2047
 1802264:	e0bffa15 	stw	r2,-24(fp)
        if (next == sp->rx_out)
 1802268:	e0bffe17 	ldw	r2,-8(fp)
 180226c:	10c00b17 	ldw	r3,44(r2)
 1802270:	e0bffa17 	ldw	r2,-24(fp)
 1802274:	18801626 	beq	r3,r2,18022d0 <altera_avalon_jtag_uart_irq+0xdc>
          break;

        /* Try to remove a character from the FIFO and find out whether there
         * are any more characters remaining.
         */
        data = IORD_ALTERA_AVALON_JTAG_UART_DATA(base);
 1802278:	e0bffd17 	ldw	r2,-12(fp)
 180227c:	10800037 	ldwio	r2,0(r2)
 1802280:	e0bffb15 	stw	r2,-20(fp)
        
        if ((data & ALTERA_AVALON_JTAG_UART_DATA_RVALID_MSK) == 0)
 1802284:	e0bffb17 	ldw	r2,-20(fp)
 1802288:	10a0000c 	andi	r2,r2,32768
 180228c:	1005003a 	cmpeq	r2,r2,zero
 1802290:	10000f1e 	bne	r2,zero,18022d0 <altera_avalon_jtag_uart_irq+0xdc>
          break;

        sp->rx_buf[sp->rx_in] = (data & ALTERA_AVALON_JTAG_UART_DATA_DATA_MSK) >> ALTERA_AVALON_JTAG_UART_DATA_DATA_OFST;
 1802294:	e0bffe17 	ldw	r2,-8(fp)
 1802298:	10c00a17 	ldw	r3,40(r2)
 180229c:	e0bffb17 	ldw	r2,-20(fp)
 18022a0:	1009883a 	mov	r4,r2
 18022a4:	e0bffe17 	ldw	r2,-8(fp)
 18022a8:	1885883a 	add	r2,r3,r2
 18022ac:	10800e04 	addi	r2,r2,56
 18022b0:	11000005 	stb	r4,0(r2)
        sp->rx_in = (sp->rx_in + 1) % ALTERA_AVALON_JTAG_UART_BUF_LEN;
 18022b4:	e0bffe17 	ldw	r2,-8(fp)
 18022b8:	10800a17 	ldw	r2,40(r2)
 18022bc:	10800044 	addi	r2,r2,1
 18022c0:	10c1ffcc 	andi	r3,r2,2047
 18022c4:	e0bffe17 	ldw	r2,-8(fp)
 18022c8:	10c00a15 	stw	r3,40(r2)

        /* Post an event to notify jtag_uart_read that a character has been read */
        ALT_FLAG_POST (sp->events, ALT_JTAG_UART_READ_RDY, OS_FLAG_SET);
      }
 18022cc:	003fe106 	br	1802254 <altera_avalon_jtag_uart_irq+0x60>

      if (data & ALTERA_AVALON_JTAG_UART_DATA_RAVAIL_MSK)
 18022d0:	e0bffb17 	ldw	r2,-20(fp)
 18022d4:	10bfffec 	andhi	r2,r2,65535
 18022d8:	1005003a 	cmpeq	r2,r2,zero
 18022dc:	1000101e 	bne	r2,zero,1802320 <altera_avalon_jtag_uart_irq+0x12c>
      {
        /* If there is still data available here then the buffer is full 
         * so turn off receive interrupts until some space becomes available.
         */
        sp->irq_enable &= ~ALTERA_AVALON_JTAG_UART_CONTROL_RE_MSK;
 18022e0:	e0bffe17 	ldw	r2,-8(fp)
 18022e4:	10c00817 	ldw	r3,32(r2)
 18022e8:	00bfff84 	movi	r2,-2
 18022ec:	1886703a 	and	r3,r3,r2
 18022f0:	e0bffe17 	ldw	r2,-8(fp)
 18022f4:	10c00815 	stw	r3,32(r2)
        IOWR_ALTERA_AVALON_JTAG_UART_CONTROL(base, sp->irq_enable);
 18022f8:	e0bffd17 	ldw	r2,-12(fp)
 18022fc:	11000104 	addi	r4,r2,4
 1802300:	e0bffe17 	ldw	r2,-8(fp)
 1802304:	10800817 	ldw	r2,32(r2)
 1802308:	1007883a 	mov	r3,r2
 180230c:	2005883a 	mov	r2,r4
 1802310:	10c00035 	stwio	r3,0(r2)
        
        /* Dummy read to ensure IRQ is cleared prior to ISR completion */
        IORD_ALTERA_AVALON_JTAG_UART_CONTROL(base);
 1802314:	e0bffd17 	ldw	r2,-12(fp)
 1802318:	10800104 	addi	r2,r2,4
 180231c:	10800037 	ldwio	r2,0(r2)
      }
    }

    if (control & ALTERA_AVALON_JTAG_UART_CONTROL_WI_MSK)
 1802320:	e0bffc17 	ldw	r2,-16(fp)
 1802324:	1080800c 	andi	r2,r2,512
 1802328:	1005003a 	cmpeq	r2,r2,zero
 180232c:	103fbb1e 	bne	r2,zero,180221c <altera_avalon_jtag_uart_irq+0x28>
    {
      /* process a write irq */
      unsigned int space = (control & ALTERA_AVALON_JTAG_UART_CONTROL_WSPACE_MSK) >> ALTERA_AVALON_JTAG_UART_CONTROL_WSPACE_OFST;
 1802330:	e0bffc17 	ldw	r2,-16(fp)
 1802334:	10bfffec 	andhi	r2,r2,65535
 1802338:	1004d43a 	srli	r2,r2,16
 180233c:	e0bff915 	stw	r2,-28(fp)

      while (space > 0 && sp->tx_out != sp->tx_in)
 1802340:	00001506 	br	1802398 <altera_avalon_jtag_uart_irq+0x1a4>
      {
        IOWR_ALTERA_AVALON_JTAG_UART_DATA(base, sp->tx_buf[sp->tx_out]);
 1802344:	e13ffd17 	ldw	r4,-12(fp)
 1802348:	e0bffe17 	ldw	r2,-8(fp)
 180234c:	10c00d17 	ldw	r3,52(r2)
 1802350:	e0bffe17 	ldw	r2,-8(fp)
 1802354:	1885883a 	add	r2,r3,r2
 1802358:	10820e04 	addi	r2,r2,2104
 180235c:	10800003 	ldbu	r2,0(r2)
 1802360:	10c03fcc 	andi	r3,r2,255
 1802364:	18c0201c 	xori	r3,r3,128
 1802368:	18ffe004 	addi	r3,r3,-128
 180236c:	2005883a 	mov	r2,r4
 1802370:	10c00035 	stwio	r3,0(r2)

        sp->tx_out = (sp->tx_out + 1) % ALTERA_AVALON_JTAG_UART_BUF_LEN;
 1802374:	e0bffe17 	ldw	r2,-8(fp)
 1802378:	10800d17 	ldw	r2,52(r2)
 180237c:	10800044 	addi	r2,r2,1
 1802380:	10c1ffcc 	andi	r3,r2,2047
 1802384:	e0bffe17 	ldw	r2,-8(fp)
 1802388:	10c00d15 	stw	r3,52(r2)

        /* Post an event to notify jtag_uart_write that a character has been written */
        ALT_FLAG_POST (sp->events, ALT_JTAG_UART_WRITE_RDY, OS_FLAG_SET);

        space--;
 180238c:	e0bff917 	ldw	r2,-28(fp)
 1802390:	10bfffc4 	addi	r2,r2,-1
 1802394:	e0bff915 	stw	r2,-28(fp)
    if (control & ALTERA_AVALON_JTAG_UART_CONTROL_WI_MSK)
    {
      /* process a write irq */
      unsigned int space = (control & ALTERA_AVALON_JTAG_UART_CONTROL_WSPACE_MSK) >> ALTERA_AVALON_JTAG_UART_CONTROL_WSPACE_OFST;

      while (space > 0 && sp->tx_out != sp->tx_in)
 1802398:	e0bff917 	ldw	r2,-28(fp)
 180239c:	1005003a 	cmpeq	r2,r2,zero
 18023a0:	1000051e 	bne	r2,zero,18023b8 <altera_avalon_jtag_uart_irq+0x1c4>
 18023a4:	e0bffe17 	ldw	r2,-8(fp)
 18023a8:	10c00d17 	ldw	r3,52(r2)
 18023ac:	e0bffe17 	ldw	r2,-8(fp)
 18023b0:	10800c17 	ldw	r2,48(r2)
 18023b4:	18bfe31e 	bne	r3,r2,1802344 <altera_avalon_jtag_uart_irq+0x150>
        ALT_FLAG_POST (sp->events, ALT_JTAG_UART_WRITE_RDY, OS_FLAG_SET);

        space--;
      }

      if (space > 0)
 18023b8:	e0bff917 	ldw	r2,-28(fp)
 18023bc:	1005003a 	cmpeq	r2,r2,zero
 18023c0:	103f961e 	bne	r2,zero,180221c <altera_avalon_jtag_uart_irq+0x28>
      {
        /* If we don't have any more data available then turn off the TX interrupt */
        sp->irq_enable &= ~ALTERA_AVALON_JTAG_UART_CONTROL_WE_MSK;
 18023c4:	e0bffe17 	ldw	r2,-8(fp)
 18023c8:	10c00817 	ldw	r3,32(r2)
 18023cc:	00bfff44 	movi	r2,-3
 18023d0:	1886703a 	and	r3,r3,r2
 18023d4:	e0bffe17 	ldw	r2,-8(fp)
 18023d8:	10c00815 	stw	r3,32(r2)
        IOWR_ALTERA_AVALON_JTAG_UART_CONTROL(sp->base, sp->irq_enable);
 18023dc:	e0bffe17 	ldw	r2,-8(fp)
 18023e0:	10800017 	ldw	r2,0(r2)
 18023e4:	11000104 	addi	r4,r2,4
 18023e8:	e0bffe17 	ldw	r2,-8(fp)
 18023ec:	10800817 	ldw	r2,32(r2)
 18023f0:	1007883a 	mov	r3,r2
 18023f4:	2005883a 	mov	r2,r4
 18023f8:	10c00035 	stwio	r3,0(r2)
        
        /* Dummy read to ensure IRQ is cleared prior to ISR completion */
        IORD_ALTERA_AVALON_JTAG_UART_CONTROL(base);
 18023fc:	e0bffd17 	ldw	r2,-12(fp)
 1802400:	10800104 	addi	r2,r2,4
 1802404:	10800037 	ldwio	r2,0(r2)
      }
    }
  }
 1802408:	003f8406 	br	180221c <altera_avalon_jtag_uart_irq+0x28>
}
 180240c:	e037883a 	mov	sp,fp
 1802410:	df000017 	ldw	fp,0(sp)
 1802414:	dec00104 	addi	sp,sp,4
 1802418:	f800283a 	ret

0180241c <altera_avalon_jtag_uart_timeout>:
 * Timeout routine is called every second
 */

static alt_u32 
altera_avalon_jtag_uart_timeout(void* context) 
{
 180241c:	defffc04 	addi	sp,sp,-16
 1802420:	df000315 	stw	fp,12(sp)
 1802424:	df000304 	addi	fp,sp,12
 1802428:	e13fff15 	stw	r4,-4(fp)
  altera_avalon_jtag_uart_state* sp = (altera_avalon_jtag_uart_state *) context;
 180242c:	e0bfff17 	ldw	r2,-4(fp)
 1802430:	e0bffe15 	stw	r2,-8(fp)

  unsigned int control = IORD_ALTERA_AVALON_JTAG_UART_CONTROL(sp->base);
 1802434:	e0bffe17 	ldw	r2,-8(fp)
 1802438:	10800017 	ldw	r2,0(r2)
 180243c:	10800104 	addi	r2,r2,4
 1802440:	10800037 	ldwio	r2,0(r2)
 1802444:	e0bffd15 	stw	r2,-12(fp)

  if (control & ALTERA_AVALON_JTAG_UART_CONTROL_AC_MSK)
 1802448:	e0bffd17 	ldw	r2,-12(fp)
 180244c:	1081000c 	andi	r2,r2,1024
 1802450:	1005003a 	cmpeq	r2,r2,zero
 1802454:	10000c1e 	bne	r2,zero,1802488 <altera_avalon_jtag_uart_timeout+0x6c>
  {
    IOWR_ALTERA_AVALON_JTAG_UART_CONTROL(sp->base, sp->irq_enable | ALTERA_AVALON_JTAG_UART_CONTROL_AC_MSK);
 1802458:	e0bffe17 	ldw	r2,-8(fp)
 180245c:	10800017 	ldw	r2,0(r2)
 1802460:	11000104 	addi	r4,r2,4
 1802464:	e0bffe17 	ldw	r2,-8(fp)
 1802468:	10800817 	ldw	r2,32(r2)
 180246c:	10810014 	ori	r2,r2,1024
 1802470:	1007883a 	mov	r3,r2
 1802474:	2005883a 	mov	r2,r4
 1802478:	10c00035 	stwio	r3,0(r2)
    sp->host_inactive = 0;
 180247c:	e0bffe17 	ldw	r2,-8(fp)
 1802480:	10000915 	stw	zero,36(r2)
 1802484:	00000a06 	br	18024b0 <altera_avalon_jtag_uart_timeout+0x94>
  }
  else if (sp->host_inactive < INT_MAX - 2) {
 1802488:	e0bffe17 	ldw	r2,-8(fp)
 180248c:	10c00917 	ldw	r3,36(r2)
 1802490:	00a00034 	movhi	r2,32768
 1802494:	10bfff04 	addi	r2,r2,-4
 1802498:	10c00536 	bltu	r2,r3,18024b0 <altera_avalon_jtag_uart_timeout+0x94>
    sp->host_inactive++;
 180249c:	e0bffe17 	ldw	r2,-8(fp)
 18024a0:	10800917 	ldw	r2,36(r2)
 18024a4:	10c00044 	addi	r3,r2,1
 18024a8:	e0bffe17 	ldw	r2,-8(fp)
 18024ac:	10c00915 	stw	r3,36(r2)
 18024b0:	00806074 	movhi	r2,385
 18024b4:	10a09104 	addi	r2,r2,-32188
 18024b8:	10800017 	ldw	r2,0(r2)
      ALT_FLAG_POST (sp->events, ALT_JTAG_UART_TIMEOUT, OS_FLAG_SET);
    }
  }

  return alt_ticks_per_second();
}
 18024bc:	e037883a 	mov	sp,fp
 18024c0:	df000017 	ldw	fp,0(sp)
 18024c4:	dec00104 	addi	sp,sp,4
 18024c8:	f800283a 	ret

018024cc <altera_avalon_jtag_uart_close>:
 * The close routine is not implemented for the small driver; instead it will
 * map to null. This is because the small driver simply waits while characters
 * are transmitted; there is no interrupt-serviced buffer to empty 
 */
int altera_avalon_jtag_uart_close(altera_avalon_jtag_uart_state* sp, int flags)
{
 18024cc:	defffc04 	addi	sp,sp,-16
 18024d0:	df000315 	stw	fp,12(sp)
 18024d4:	df000304 	addi	fp,sp,12
 18024d8:	e13ffd15 	stw	r4,-12(fp)
 18024dc:	e17ffe15 	stw	r5,-8(fp)
  /* 
   * Wait for all transmit data to be emptied by the JTAG UART ISR, or
   * for a host-inactivity timeout, in which case transmit data will be lost
   */
  while ( (sp->tx_out != sp->tx_in) && (sp->host_inactive < sp->timeout) ) {
 18024e0:	00000706 	br	1802500 <altera_avalon_jtag_uart_close+0x34>
    if (flags & O_NONBLOCK) {
 18024e4:	e0bffe17 	ldw	r2,-8(fp)
 18024e8:	1090000c 	andi	r2,r2,16384
 18024ec:	1005003a 	cmpeq	r2,r2,zero
 18024f0:	1000031e 	bne	r2,zero,1802500 <altera_avalon_jtag_uart_close+0x34>
      return -EWOULDBLOCK; 
 18024f4:	00bffd44 	movi	r2,-11
 18024f8:	e0bfff15 	stw	r2,-4(fp)
 18024fc:	00000b06 	br	180252c <altera_avalon_jtag_uart_close+0x60>
{
  /* 
   * Wait for all transmit data to be emptied by the JTAG UART ISR, or
   * for a host-inactivity timeout, in which case transmit data will be lost
   */
  while ( (sp->tx_out != sp->tx_in) && (sp->host_inactive < sp->timeout) ) {
 1802500:	e0bffd17 	ldw	r2,-12(fp)
 1802504:	10c00d17 	ldw	r3,52(r2)
 1802508:	e0bffd17 	ldw	r2,-12(fp)
 180250c:	10800c17 	ldw	r2,48(r2)
 1802510:	18800526 	beq	r3,r2,1802528 <altera_avalon_jtag_uart_close+0x5c>
 1802514:	e0bffd17 	ldw	r2,-12(fp)
 1802518:	10c00917 	ldw	r3,36(r2)
 180251c:	e0bffd17 	ldw	r2,-12(fp)
 1802520:	10800117 	ldw	r2,4(r2)
 1802524:	18bfef36 	bltu	r3,r2,18024e4 <altera_avalon_jtag_uart_close+0x18>
    if (flags & O_NONBLOCK) {
      return -EWOULDBLOCK; 
    }
  }

  return 0;
 1802528:	e03fff15 	stw	zero,-4(fp)
 180252c:	e0bfff17 	ldw	r2,-4(fp)
}
 1802530:	e037883a 	mov	sp,fp
 1802534:	df000017 	ldw	fp,0(sp)
 1802538:	dec00104 	addi	sp,sp,4
 180253c:	f800283a 	ret

01802540 <altera_avalon_jtag_uart_ioctl>:
/* ----------------------------------------------------------- */

int 
altera_avalon_jtag_uart_ioctl(altera_avalon_jtag_uart_state* sp, int req,
  void* arg)
{
 1802540:	defff804 	addi	sp,sp,-32
 1802544:	df000715 	stw	fp,28(sp)
 1802548:	df000704 	addi	fp,sp,28
 180254c:	e13ffb15 	stw	r4,-20(fp)
 1802550:	e17ffc15 	stw	r5,-16(fp)
 1802554:	e1bffd15 	stw	r6,-12(fp)
  int rc = -ENOTTY;
 1802558:	00bff9c4 	movi	r2,-25
 180255c:	e0bffa15 	stw	r2,-24(fp)

  switch (req)
 1802560:	e0bffc17 	ldw	r2,-16(fp)
 1802564:	e0bfff15 	stw	r2,-4(fp)
 1802568:	e0ffff17 	ldw	r3,-4(fp)
 180256c:	189a8060 	cmpeqi	r2,r3,27137
 1802570:	1000041e 	bne	r2,zero,1802584 <altera_avalon_jtag_uart_ioctl+0x44>
 1802574:	e0ffff17 	ldw	r3,-4(fp)
 1802578:	189a80a0 	cmpeqi	r2,r3,27138
 180257c:	10001b1e 	bne	r2,zero,18025ec <altera_avalon_jtag_uart_ioctl+0xac>
 1802580:	00002706 	br	1802620 <altera_avalon_jtag_uart_ioctl+0xe0>
  {
  case TIOCSTIMEOUT:
    /* Set the time to wait until assuming host is not connected */
    if (sp->timeout != INT_MAX)
 1802584:	e0bffb17 	ldw	r2,-20(fp)
 1802588:	10c00117 	ldw	r3,4(r2)
 180258c:	00a00034 	movhi	r2,32768
 1802590:	10bfffc4 	addi	r2,r2,-1
 1802594:	18802226 	beq	r3,r2,1802620 <altera_avalon_jtag_uart_ioctl+0xe0>
    {
      int timeout = *((int *)arg);
 1802598:	e0bffd17 	ldw	r2,-12(fp)
 180259c:	10800017 	ldw	r2,0(r2)
 18025a0:	e0bff915 	stw	r2,-28(fp)
      sp->timeout = (timeout >= 2 && timeout < INT_MAX) ? timeout : INT_MAX - 1;
 18025a4:	e0bff917 	ldw	r2,-28(fp)
 18025a8:	10800090 	cmplti	r2,r2,2
 18025ac:	1000071e 	bne	r2,zero,18025cc <altera_avalon_jtag_uart_ioctl+0x8c>
 18025b0:	e0fff917 	ldw	r3,-28(fp)
 18025b4:	00a00034 	movhi	r2,32768
 18025b8:	10bfffc4 	addi	r2,r2,-1
 18025bc:	18800326 	beq	r3,r2,18025cc <altera_avalon_jtag_uart_ioctl+0x8c>
 18025c0:	e0bff917 	ldw	r2,-28(fp)
 18025c4:	e0bffe15 	stw	r2,-8(fp)
 18025c8:	00000306 	br	18025d8 <altera_avalon_jtag_uart_ioctl+0x98>
 18025cc:	00e00034 	movhi	r3,32768
 18025d0:	18ffff84 	addi	r3,r3,-2
 18025d4:	e0fffe15 	stw	r3,-8(fp)
 18025d8:	e0bffb17 	ldw	r2,-20(fp)
 18025dc:	e0fffe17 	ldw	r3,-8(fp)
 18025e0:	10c00115 	stw	r3,4(r2)
      rc = 0;
 18025e4:	e03ffa15 	stw	zero,-24(fp)
    }
    break;
 18025e8:	00000d06 	br	1802620 <altera_avalon_jtag_uart_ioctl+0xe0>

  case TIOCGCONNECTED:
    /* Find out whether host is connected */
    if (sp->timeout != INT_MAX)
 18025ec:	e0bffb17 	ldw	r2,-20(fp)
 18025f0:	10c00117 	ldw	r3,4(r2)
 18025f4:	00a00034 	movhi	r2,32768
 18025f8:	10bfffc4 	addi	r2,r2,-1
 18025fc:	18800826 	beq	r3,r2,1802620 <altera_avalon_jtag_uart_ioctl+0xe0>
    {
      *((int *)arg) = (sp->host_inactive < sp->timeout) ? 1 : 0;
 1802600:	e13ffd17 	ldw	r4,-12(fp)
 1802604:	e0bffb17 	ldw	r2,-20(fp)
 1802608:	10c00917 	ldw	r3,36(r2)
 180260c:	e0bffb17 	ldw	r2,-20(fp)
 1802610:	10800117 	ldw	r2,4(r2)
 1802614:	1885803a 	cmpltu	r2,r3,r2
 1802618:	20800015 	stw	r2,0(r4)
      rc = 0;
 180261c:	e03ffa15 	stw	zero,-24(fp)

  default:
    break;
  }

  return rc;
 1802620:	e0bffa17 	ldw	r2,-24(fp)
}
 1802624:	e037883a 	mov	sp,fp
 1802628:	df000017 	ldw	fp,0(sp)
 180262c:	dec00104 	addi	sp,sp,4
 1802630:	f800283a 	ret

01802634 <altera_avalon_jtag_uart_read>:
/* ----------------------------------------------------------- */

int 
altera_avalon_jtag_uart_read(altera_avalon_jtag_uart_state* sp, 
  char * buffer, int space, int flags)
{
 1802634:	defff204 	addi	sp,sp,-56
 1802638:	dfc00d15 	stw	ra,52(sp)
 180263c:	df000c15 	stw	fp,48(sp)
 1802640:	df000c04 	addi	fp,sp,48
 1802644:	e13ffb15 	stw	r4,-20(fp)
 1802648:	e17ffc15 	stw	r5,-16(fp)
 180264c:	e1bffd15 	stw	r6,-12(fp)
 1802650:	e1fffe15 	stw	r7,-8(fp)
  char * ptr = buffer;
 1802654:	e0bffc17 	ldw	r2,-16(fp)
 1802658:	e0bffa15 	stw	r2,-24(fp)
   * When running in a multi threaded environment, obtain the "read_lock"
   * semaphore. This ensures that reading from the device is thread-safe.
   */
  ALT_SEM_PEND (sp->read_lock, 0);

  while (space > 0)
 180265c:	00004806 	br	1802780 <altera_avalon_jtag_uart_read+0x14c>
    unsigned int in, out;

    /* Read as much data as possible */
    do
    {
      in  = sp->rx_in;
 1802660:	e0bffb17 	ldw	r2,-20(fp)
 1802664:	10800a17 	ldw	r2,40(r2)
 1802668:	e0bff715 	stw	r2,-36(fp)
      out = sp->rx_out;
 180266c:	e0bffb17 	ldw	r2,-20(fp)
 1802670:	10800b17 	ldw	r2,44(r2)
 1802674:	e0bff615 	stw	r2,-40(fp)

      if (in >= out)
 1802678:	e0fff717 	ldw	r3,-36(fp)
 180267c:	e0bff617 	ldw	r2,-40(fp)
 1802680:	18800536 	bltu	r3,r2,1802698 <altera_avalon_jtag_uart_read+0x64>
        n = in - out;
 1802684:	e0bff717 	ldw	r2,-36(fp)
 1802688:	e0fff617 	ldw	r3,-40(fp)
 180268c:	10c5c83a 	sub	r2,r2,r3
 1802690:	e0bff815 	stw	r2,-32(fp)
 1802694:	00000406 	br	18026a8 <altera_avalon_jtag_uart_read+0x74>
      else
        n = ALTERA_AVALON_JTAG_UART_BUF_LEN - out;
 1802698:	00820004 	movi	r2,2048
 180269c:	e0fff617 	ldw	r3,-40(fp)
 18026a0:	10c5c83a 	sub	r2,r2,r3
 18026a4:	e0bff815 	stw	r2,-32(fp)

      if (n == 0)
 18026a8:	e0bff817 	ldw	r2,-32(fp)
 18026ac:	1005003a 	cmpeq	r2,r2,zero
 18026b0:	10001f1e 	bne	r2,zero,1802730 <altera_avalon_jtag_uart_read+0xfc>
        break; /* No more data available */

      if (n > space)
 18026b4:	e0fffd17 	ldw	r3,-12(fp)
 18026b8:	e0bff817 	ldw	r2,-32(fp)
 18026bc:	1880022e 	bgeu	r3,r2,18026c8 <altera_avalon_jtag_uart_read+0x94>
        n = space;
 18026c0:	e0bffd17 	ldw	r2,-12(fp)
 18026c4:	e0bff815 	stw	r2,-32(fp)

      memcpy(ptr, sp->rx_buf + out, n);
 18026c8:	e0bffb17 	ldw	r2,-20(fp)
 18026cc:	10c00e04 	addi	r3,r2,56
 18026d0:	e0bff617 	ldw	r2,-40(fp)
 18026d4:	1887883a 	add	r3,r3,r2
 18026d8:	e0bffa17 	ldw	r2,-24(fp)
 18026dc:	1009883a 	mov	r4,r2
 18026e0:	180b883a 	mov	r5,r3
 18026e4:	e1bff817 	ldw	r6,-32(fp)
 18026e8:	18061940 	call	1806194 <memcpy>
      ptr   += n;
 18026ec:	e0fff817 	ldw	r3,-32(fp)
 18026f0:	e0bffa17 	ldw	r2,-24(fp)
 18026f4:	10c5883a 	add	r2,r2,r3
 18026f8:	e0bffa15 	stw	r2,-24(fp)
      space -= n;
 18026fc:	e0fffd17 	ldw	r3,-12(fp)
 1802700:	e0bff817 	ldw	r2,-32(fp)
 1802704:	1885c83a 	sub	r2,r3,r2
 1802708:	e0bffd15 	stw	r2,-12(fp)

      sp->rx_out = (out + n) % ALTERA_AVALON_JTAG_UART_BUF_LEN;
 180270c:	e0fff617 	ldw	r3,-40(fp)
 1802710:	e0bff817 	ldw	r2,-32(fp)
 1802714:	1885883a 	add	r2,r3,r2
 1802718:	10c1ffcc 	andi	r3,r2,2047
 180271c:	e0bffb17 	ldw	r2,-20(fp)
 1802720:	10c00b15 	stw	r3,44(r2)
    }
    while (space > 0);
 1802724:	e0bffd17 	ldw	r2,-12(fp)
 1802728:	10800048 	cmpgei	r2,r2,1
 180272c:	103fcc1e 	bne	r2,zero,1802660 <altera_avalon_jtag_uart_read+0x2c>

    /* If we read any data then return it */
    if (ptr != buffer)
 1802730:	e0fffa17 	ldw	r3,-24(fp)
 1802734:	e0bffc17 	ldw	r2,-16(fp)
 1802738:	1880141e 	bne	r3,r2,180278c <altera_avalon_jtag_uart_read+0x158>
      break;

    /* If in non-blocking mode then return error */
    if (flags & O_NONBLOCK)
 180273c:	e0bffe17 	ldw	r2,-8(fp)
 1802740:	1090000c 	andi	r2,r2,16384
 1802744:	1004c03a 	cmpne	r2,r2,zero
 1802748:	1000101e 	bne	r2,zero,180278c <altera_avalon_jtag_uart_read+0x158>
      while (in == sp->rx_in && sp->host_inactive < sp->timeout)
        ;
    }
#else
    /* No OS: Always spin */
    while (in == sp->rx_in && sp->host_inactive < sp->timeout)
 180274c:	e0bffb17 	ldw	r2,-20(fp)
 1802750:	10c00a17 	ldw	r3,40(r2)
 1802754:	e0bff717 	ldw	r2,-36(fp)
 1802758:	1880051e 	bne	r3,r2,1802770 <altera_avalon_jtag_uart_read+0x13c>
 180275c:	e0bffb17 	ldw	r2,-20(fp)
 1802760:	10c00917 	ldw	r3,36(r2)
 1802764:	e0bffb17 	ldw	r2,-20(fp)
 1802768:	10800117 	ldw	r2,4(r2)
 180276c:	18bff736 	bltu	r3,r2,180274c <altera_avalon_jtag_uart_read+0x118>
      ;
#endif /* __ucosii__ */

    if (in == sp->rx_in)
 1802770:	e0bffb17 	ldw	r2,-20(fp)
 1802774:	10c00a17 	ldw	r3,40(r2)
 1802778:	e0bff717 	ldw	r2,-36(fp)
 180277c:	18800326 	beq	r3,r2,180278c <altera_avalon_jtag_uart_read+0x158>
   * When running in a multi threaded environment, obtain the "read_lock"
   * semaphore. This ensures that reading from the device is thread-safe.
   */
  ALT_SEM_PEND (sp->read_lock, 0);

  while (space > 0)
 1802780:	e0bffd17 	ldw	r2,-12(fp)
 1802784:	10800048 	cmpgei	r2,r2,1
 1802788:	103fb51e 	bne	r2,zero,1802660 <altera_avalon_jtag_uart_read+0x2c>
   * semaphore so that other threads can access the buffer.
   */

  ALT_SEM_POST (sp->read_lock);

  if (ptr != buffer)
 180278c:	e0fffa17 	ldw	r3,-24(fp)
 1802790:	e0bffc17 	ldw	r2,-16(fp)
 1802794:	18801926 	beq	r3,r2,18027fc <altera_avalon_jtag_uart_read+0x1c8>
static ALT_INLINE alt_irq_context ALT_ALWAYS_INLINE 
       alt_irq_disable_all (void)
{
  alt_irq_context context;

  NIOS2_READ_STATUS (context);
 1802798:	0005303a 	rdctl	r2,status
 180279c:	e0bff515 	stw	r2,-44(fp)

  NIOS2_WRITE_STATUS (context & ~NIOS2_STATUS_PIE_MSK);
 18027a0:	e0fff517 	ldw	r3,-44(fp)
 18027a4:	00bfff84 	movi	r2,-2
 18027a8:	1884703a 	and	r2,r3,r2
 18027ac:	1001703a 	wrctl	status,r2
  
  return context;
 18027b0:	e0bff517 	ldw	r2,-44(fp)
  {
    /* If we read any data then there is space in the buffer so enable interrupts */
    context = alt_irq_disable_all();
 18027b4:	e0bff915 	stw	r2,-28(fp)
    sp->irq_enable |= ALTERA_AVALON_JTAG_UART_CONTROL_RE_MSK;
 18027b8:	e0bffb17 	ldw	r2,-20(fp)
 18027bc:	10800817 	ldw	r2,32(r2)
 18027c0:	10c00054 	ori	r3,r2,1
 18027c4:	e0bffb17 	ldw	r2,-20(fp)
 18027c8:	10c00815 	stw	r3,32(r2)
    IOWR_ALTERA_AVALON_JTAG_UART_CONTROL(sp->base, sp->irq_enable);
 18027cc:	e0bffb17 	ldw	r2,-20(fp)
 18027d0:	10800017 	ldw	r2,0(r2)
 18027d4:	11000104 	addi	r4,r2,4
 18027d8:	e0bffb17 	ldw	r2,-20(fp)
 18027dc:	10800817 	ldw	r2,32(r2)
 18027e0:	1007883a 	mov	r3,r2
 18027e4:	2005883a 	mov	r2,r4
 18027e8:	10c00035 	stwio	r3,0(r2)
 18027ec:	e0bff917 	ldw	r2,-28(fp)
 18027f0:	e0bff415 	stw	r2,-48(fp)
  status &= ~NIOS2_STATUS_PIE_MSK;
  status |= (context & NIOS2_STATUS_PIE_MSK);
  
  NIOS2_WRITE_STATUS (status);
#else
  NIOS2_WRITE_STATUS (context);
 18027f4:	e0bff417 	ldw	r2,-48(fp)
 18027f8:	1001703a 	wrctl	status,r2
    alt_irq_enable_all(context);
  }

  if (ptr != buffer)
 18027fc:	e0fffa17 	ldw	r3,-24(fp)
 1802800:	e0bffc17 	ldw	r2,-16(fp)
 1802804:	18800526 	beq	r3,r2,180281c <altera_avalon_jtag_uart_read+0x1e8>
    return ptr - buffer;
 1802808:	e0fffa17 	ldw	r3,-24(fp)
 180280c:	e0bffc17 	ldw	r2,-16(fp)
 1802810:	1887c83a 	sub	r3,r3,r2
 1802814:	e0ffff15 	stw	r3,-4(fp)
 1802818:	00000906 	br	1802840 <altera_avalon_jtag_uart_read+0x20c>
  else if (flags & O_NONBLOCK)
 180281c:	e0bffe17 	ldw	r2,-8(fp)
 1802820:	1090000c 	andi	r2,r2,16384
 1802824:	1005003a 	cmpeq	r2,r2,zero
 1802828:	1000031e 	bne	r2,zero,1802838 <altera_avalon_jtag_uart_read+0x204>
    return -EWOULDBLOCK;
 180282c:	00bffd44 	movi	r2,-11
 1802830:	e0bfff15 	stw	r2,-4(fp)
 1802834:	00000206 	br	1802840 <altera_avalon_jtag_uart_read+0x20c>
  else
    return -EIO;
 1802838:	00bffec4 	movi	r2,-5
 180283c:	e0bfff15 	stw	r2,-4(fp)
 1802840:	e0bfff17 	ldw	r2,-4(fp)
}
 1802844:	e037883a 	mov	sp,fp
 1802848:	dfc00117 	ldw	ra,4(sp)
 180284c:	df000017 	ldw	fp,0(sp)
 1802850:	dec00204 	addi	sp,sp,8
 1802854:	f800283a 	ret

01802858 <altera_avalon_jtag_uart_write>:
/* ----------------------------------------------------------- */

int 
altera_avalon_jtag_uart_write(altera_avalon_jtag_uart_state* sp, 
  const char * ptr, int count, int flags)
{
 1802858:	defff204 	addi	sp,sp,-56
 180285c:	dfc00d15 	stw	ra,52(sp)
 1802860:	df000c15 	stw	fp,48(sp)
 1802864:	df000c04 	addi	fp,sp,48
 1802868:	e13ffb15 	stw	r4,-20(fp)
 180286c:	e17ffc15 	stw	r5,-16(fp)
 1802870:	e1bffd15 	stw	r6,-12(fp)
 1802874:	e1fffe15 	stw	r7,-8(fp)
  /* Remove warning at optimisation level 03 by seting out to 0 */
  unsigned int in, out=0;
 1802878:	e03ff915 	stw	zero,-28(fp)
  unsigned int n;
  alt_irq_context context;

  const char * start = ptr;
 180287c:	e0bffc17 	ldw	r2,-16(fp)
 1802880:	e0bff615 	stw	r2,-40(fp)
  ALT_SEM_PEND (sp->write_lock, 0);

  do
  {
    /* Copy as much as we can into the transmit buffer */
    while (count > 0)
 1802884:	00003a06 	br	1802970 <altera_avalon_jtag_uart_write+0x118>
    {
      /* We need a stable value of the out pointer to calculate the space available */
      in  = sp->tx_in;
 1802888:	e0bffb17 	ldw	r2,-20(fp)
 180288c:	10800c17 	ldw	r2,48(r2)
 1802890:	e0bffa15 	stw	r2,-24(fp)
      out = sp->tx_out;
 1802894:	e0bffb17 	ldw	r2,-20(fp)
 1802898:	10800d17 	ldw	r2,52(r2)
 180289c:	e0bff915 	stw	r2,-28(fp)

      if (in < out)
 18028a0:	e0fffa17 	ldw	r3,-24(fp)
 18028a4:	e0bff917 	ldw	r2,-28(fp)
 18028a8:	1880062e 	bgeu	r3,r2,18028c4 <altera_avalon_jtag_uart_write+0x6c>
        n = out - 1 - in;
 18028ac:	e0fff917 	ldw	r3,-28(fp)
 18028b0:	e0bffa17 	ldw	r2,-24(fp)
 18028b4:	1885c83a 	sub	r2,r3,r2
 18028b8:	10bfffc4 	addi	r2,r2,-1
 18028bc:	e0bff815 	stw	r2,-32(fp)
 18028c0:	00000c06 	br	18028f4 <altera_avalon_jtag_uart_write+0x9c>
      else if (out > 0)
 18028c4:	e0bff917 	ldw	r2,-28(fp)
 18028c8:	1005003a 	cmpeq	r2,r2,zero
 18028cc:	1000051e 	bne	r2,zero,18028e4 <altera_avalon_jtag_uart_write+0x8c>
        n = ALTERA_AVALON_JTAG_UART_BUF_LEN - in;
 18028d0:	00820004 	movi	r2,2048
 18028d4:	e0fffa17 	ldw	r3,-24(fp)
 18028d8:	10c5c83a 	sub	r2,r2,r3
 18028dc:	e0bff815 	stw	r2,-32(fp)
 18028e0:	00000406 	br	18028f4 <altera_avalon_jtag_uart_write+0x9c>
      else
        n = ALTERA_AVALON_JTAG_UART_BUF_LEN - 1 - in;
 18028e4:	0081ffc4 	movi	r2,2047
 18028e8:	e0fffa17 	ldw	r3,-24(fp)
 18028ec:	10c5c83a 	sub	r2,r2,r3
 18028f0:	e0bff815 	stw	r2,-32(fp)

      if (n == 0)
 18028f4:	e0bff817 	ldw	r2,-32(fp)
 18028f8:	1005003a 	cmpeq	r2,r2,zero
 18028fc:	10001f1e 	bne	r2,zero,180297c <altera_avalon_jtag_uart_write+0x124>
        break;

      if (n > count)
 1802900:	e0fffd17 	ldw	r3,-12(fp)
 1802904:	e0bff817 	ldw	r2,-32(fp)
 1802908:	1880022e 	bgeu	r3,r2,1802914 <altera_avalon_jtag_uart_write+0xbc>
        n = count;
 180290c:	e0bffd17 	ldw	r2,-12(fp)
 1802910:	e0bff815 	stw	r2,-32(fp)

      memcpy(sp->tx_buf + in, ptr, n);
 1802914:	e0bffb17 	ldw	r2,-20(fp)
 1802918:	10c20e04 	addi	r3,r2,2104
 180291c:	e0bffa17 	ldw	r2,-24(fp)
 1802920:	1885883a 	add	r2,r3,r2
 1802924:	e0fffc17 	ldw	r3,-16(fp)
 1802928:	1009883a 	mov	r4,r2
 180292c:	180b883a 	mov	r5,r3
 1802930:	e1bff817 	ldw	r6,-32(fp)
 1802934:	18061940 	call	1806194 <memcpy>
      ptr   += n;
 1802938:	e0fff817 	ldw	r3,-32(fp)
 180293c:	e0bffc17 	ldw	r2,-16(fp)
 1802940:	10c5883a 	add	r2,r2,r3
 1802944:	e0bffc15 	stw	r2,-16(fp)
      count -= n;
 1802948:	e0fffd17 	ldw	r3,-12(fp)
 180294c:	e0bff817 	ldw	r2,-32(fp)
 1802950:	1885c83a 	sub	r2,r3,r2
 1802954:	e0bffd15 	stw	r2,-12(fp)

      sp->tx_in = (in + n) % ALTERA_AVALON_JTAG_UART_BUF_LEN;
 1802958:	e0fffa17 	ldw	r3,-24(fp)
 180295c:	e0bff817 	ldw	r2,-32(fp)
 1802960:	1885883a 	add	r2,r3,r2
 1802964:	10c1ffcc 	andi	r3,r2,2047
 1802968:	e0bffb17 	ldw	r2,-20(fp)
 180296c:	10c00c15 	stw	r3,48(r2)
  ALT_SEM_PEND (sp->write_lock, 0);

  do
  {
    /* Copy as much as we can into the transmit buffer */
    while (count > 0)
 1802970:	e0bffd17 	ldw	r2,-12(fp)
 1802974:	10800048 	cmpgei	r2,r2,1
 1802978:	103fc31e 	bne	r2,zero,1802888 <altera_avalon_jtag_uart_write+0x30>
static ALT_INLINE alt_irq_context ALT_ALWAYS_INLINE 
       alt_irq_disable_all (void)
{
  alt_irq_context context;

  NIOS2_READ_STATUS (context);
 180297c:	0005303a 	rdctl	r2,status
 1802980:	e0bff515 	stw	r2,-44(fp)

  NIOS2_WRITE_STATUS (context & ~NIOS2_STATUS_PIE_MSK);
 1802984:	e0fff517 	ldw	r3,-44(fp)
 1802988:	00bfff84 	movi	r2,-2
 180298c:	1884703a 	and	r2,r3,r2
 1802990:	1001703a 	wrctl	status,r2
  
  return context;
 1802994:	e0bff517 	ldw	r2,-44(fp)
     * to enable interrupts if there is no space left in the FIFO
     *
     * For now kick the interrupt routine every time to make it transmit 
     * the data 
     */
    context = alt_irq_disable_all();
 1802998:	e0bff715 	stw	r2,-36(fp)
    sp->irq_enable |= ALTERA_AVALON_JTAG_UART_CONTROL_WE_MSK;
 180299c:	e0bffb17 	ldw	r2,-20(fp)
 18029a0:	10800817 	ldw	r2,32(r2)
 18029a4:	10c00094 	ori	r3,r2,2
 18029a8:	e0bffb17 	ldw	r2,-20(fp)
 18029ac:	10c00815 	stw	r3,32(r2)
    IOWR_ALTERA_AVALON_JTAG_UART_CONTROL(sp->base, sp->irq_enable);
 18029b0:	e0bffb17 	ldw	r2,-20(fp)
 18029b4:	10800017 	ldw	r2,0(r2)
 18029b8:	11000104 	addi	r4,r2,4
 18029bc:	e0bffb17 	ldw	r2,-20(fp)
 18029c0:	10800817 	ldw	r2,32(r2)
 18029c4:	1007883a 	mov	r3,r2
 18029c8:	2005883a 	mov	r2,r4
 18029cc:	10c00035 	stwio	r3,0(r2)
 18029d0:	e0bff717 	ldw	r2,-36(fp)
 18029d4:	e0bff415 	stw	r2,-48(fp)
  status &= ~NIOS2_STATUS_PIE_MSK;
  status |= (context & NIOS2_STATUS_PIE_MSK);
  
  NIOS2_WRITE_STATUS (status);
#else
  NIOS2_WRITE_STATUS (context);
 18029d8:	e0bff417 	ldw	r2,-48(fp)
 18029dc:	1001703a 	wrctl	status,r2
    /* 
     * If there is any data left then either return now or block until 
     * some has been sent 
     */
    /* consider: test whether there is anything there while doing this and delay for at most 2s. */
    if (count > 0)
 18029e0:	e0bffd17 	ldw	r2,-12(fp)
 18029e4:	10800050 	cmplti	r2,r2,1
 18029e8:	1000111e 	bne	r2,zero,1802a30 <altera_avalon_jtag_uart_write+0x1d8>
    {
      if (flags & O_NONBLOCK)
 18029ec:	e0bffe17 	ldw	r2,-8(fp)
 18029f0:	1090000c 	andi	r2,r2,16384
 18029f4:	1004c03a 	cmpne	r2,r2,zero
 18029f8:	1000101e 	bne	r2,zero,1802a3c <altera_avalon_jtag_uart_write+0x1e4>
      /*
       * No OS present: Always wait for data to be removed from buffer.  Once
       * the interrupt routine has removed some data then we will be able to
       * insert some more.
       */
      while (out == sp->tx_out && sp->host_inactive < sp->timeout)
 18029fc:	e0bffb17 	ldw	r2,-20(fp)
 1802a00:	10c00d17 	ldw	r3,52(r2)
 1802a04:	e0bff917 	ldw	r2,-28(fp)
 1802a08:	1880051e 	bne	r3,r2,1802a20 <altera_avalon_jtag_uart_write+0x1c8>
 1802a0c:	e0bffb17 	ldw	r2,-20(fp)
 1802a10:	10c00917 	ldw	r3,36(r2)
 1802a14:	e0bffb17 	ldw	r2,-20(fp)
 1802a18:	10800117 	ldw	r2,4(r2)
 1802a1c:	18bff736 	bltu	r3,r2,18029fc <altera_avalon_jtag_uart_write+0x1a4>
        ;
#endif /* __ucosii__ */

      if (out == sp->tx_out)
 1802a20:	e0bffb17 	ldw	r2,-20(fp)
 1802a24:	10c00d17 	ldw	r3,52(r2)
 1802a28:	e0bff917 	ldw	r2,-28(fp)
 1802a2c:	18800326 	beq	r3,r2,1802a3c <altera_avalon_jtag_uart_write+0x1e4>
        break;
    }
  }
  while (count > 0);
 1802a30:	e0bffd17 	ldw	r2,-12(fp)
 1802a34:	10800048 	cmpgei	r2,r2,1
 1802a38:	103fcd1e 	bne	r2,zero,1802970 <altera_avalon_jtag_uart_write+0x118>
   * Now that access to the circular buffer is complete, release the write
   * semaphore so that other threads can access the buffer.
   */
  ALT_SEM_POST (sp->write_lock);

  if (ptr != start)
 1802a3c:	e0fffc17 	ldw	r3,-16(fp)
 1802a40:	e0bff617 	ldw	r2,-40(fp)
 1802a44:	18800526 	beq	r3,r2,1802a5c <altera_avalon_jtag_uart_write+0x204>
    return ptr - start;
 1802a48:	e0fffc17 	ldw	r3,-16(fp)
 1802a4c:	e0bff617 	ldw	r2,-40(fp)
 1802a50:	1887c83a 	sub	r3,r3,r2
 1802a54:	e0ffff15 	stw	r3,-4(fp)
 1802a58:	00000906 	br	1802a80 <altera_avalon_jtag_uart_write+0x228>
  else if (flags & O_NONBLOCK)
 1802a5c:	e0bffe17 	ldw	r2,-8(fp)
 1802a60:	1090000c 	andi	r2,r2,16384
 1802a64:	1005003a 	cmpeq	r2,r2,zero
 1802a68:	1000031e 	bne	r2,zero,1802a78 <altera_avalon_jtag_uart_write+0x220>
    return -EWOULDBLOCK;
 1802a6c:	00bffd44 	movi	r2,-11
 1802a70:	e0bfff15 	stw	r2,-4(fp)
 1802a74:	00000206 	br	1802a80 <altera_avalon_jtag_uart_write+0x228>
  else
    return -EIO; /* Host not connected */
 1802a78:	00bffec4 	movi	r2,-5
 1802a7c:	e0bfff15 	stw	r2,-4(fp)
 1802a80:	e0bfff17 	ldw	r2,-4(fp)
}
 1802a84:	e037883a 	mov	sp,fp
 1802a88:	dfc00117 	ldw	ra,4(sp)
 1802a8c:	df000017 	ldw	fp,0(sp)
 1802a90:	dec00204 	addi	sp,sp,8
 1802a94:	f800283a 	ret

01802a98 <lcd_write_command>:

/* --------------------------------------------------------------------- */

static void lcd_write_command(altera_avalon_lcd_16207_state* sp, 
  unsigned char command)
{
 1802a98:	defffa04 	addi	sp,sp,-24
 1802a9c:	dfc00515 	stw	ra,20(sp)
 1802aa0:	df000415 	stw	fp,16(sp)
 1802aa4:	df000404 	addi	fp,sp,16
 1802aa8:	e13ffe15 	stw	r4,-8(fp)
 1802aac:	e17fff05 	stb	r5,-4(fp)
  unsigned int base = sp->base;
 1802ab0:	e0bffe17 	ldw	r2,-8(fp)
 1802ab4:	10800017 	ldw	r2,0(r2)
 1802ab8:	e0bffd15 	stw	r2,-12(fp)
  /* We impose a timeout on the driver in case the LCD panel isn't connected.
   * The first time we call this function the timeout is approx 25ms 
   * (assuming 5 cycles per loop and a 200MHz clock).  Obviously systems
   * with slower clocks, or debug builds, or slower memory will take longer.
   */
  int i = 1000000;
 1802abc:	008003f4 	movhi	r2,15
 1802ac0:	10909004 	addi	r2,r2,16960
 1802ac4:	e0bffc15 	stw	r2,-16(fp)

  /* Don't bother if the LCD panel didn't work before */
  if (sp->broken)
 1802ac8:	e0bffe17 	ldw	r2,-8(fp)
 1802acc:	10800803 	ldbu	r2,32(r2)
 1802ad0:	10803fcc 	andi	r2,r2,255
 1802ad4:	1080201c 	xori	r2,r2,128
 1802ad8:	10bfe004 	addi	r2,r2,-128
 1802adc:	1004c03a 	cmpne	r2,r2,zero
 1802ae0:	1000161e 	bne	r2,zero,1802b3c <lcd_write_command+0xa4>
    return;

  /* Wait until LCD isn't busy. */
  while (IORD_ALTERA_AVALON_LCD_16207_STATUS(base) & ALTERA_AVALON_LCD_16207_STATUS_BUSY_MSK)
 1802ae4:	00000a06 	br	1802b10 <lcd_write_command+0x78>
    if (--i == 0)
 1802ae8:	e0bffc17 	ldw	r2,-16(fp)
 1802aec:	10bfffc4 	addi	r2,r2,-1
 1802af0:	e0bffc15 	stw	r2,-16(fp)
 1802af4:	e0bffc17 	ldw	r2,-16(fp)
 1802af8:	1004c03a 	cmpne	r2,r2,zero
 1802afc:	1000041e 	bne	r2,zero,1802b10 <lcd_write_command+0x78>
    {
      sp->broken = 1;
 1802b00:	e0fffe17 	ldw	r3,-8(fp)
 1802b04:	00800044 	movi	r2,1
 1802b08:	18800805 	stb	r2,32(r3)
      return;
 1802b0c:	00000b06 	br	1802b3c <lcd_write_command+0xa4>
  /* Don't bother if the LCD panel didn't work before */
  if (sp->broken)
    return;

  /* Wait until LCD isn't busy. */
  while (IORD_ALTERA_AVALON_LCD_16207_STATUS(base) & ALTERA_AVALON_LCD_16207_STATUS_BUSY_MSK)
 1802b10:	e0bffd17 	ldw	r2,-12(fp)
 1802b14:	10800104 	addi	r2,r2,4
 1802b18:	10800037 	ldwio	r2,0(r2)
 1802b1c:	1080200c 	andi	r2,r2,128
 1802b20:	1004c03a 	cmpne	r2,r2,zero
 1802b24:	103ff01e 	bne	r2,zero,1802ae8 <lcd_write_command+0x50>
    }

  /* Despite what it says in the datasheet, the LCD isn't ready to accept
   * a write immediately after it returns BUSY=0.  Wait for 100us more.
   */
  usleep(100);
 1802b28:	01001904 	movi	r4,100
 1802b2c:	18053500 	call	1805350 <usleep>

  IOWR_ALTERA_AVALON_LCD_16207_COMMAND(base, command);
 1802b30:	e0bffd17 	ldw	r2,-12(fp)
 1802b34:	e0ffff03 	ldbu	r3,-4(fp)
 1802b38:	10c00035 	stwio	r3,0(r2)
}
 1802b3c:	e037883a 	mov	sp,fp
 1802b40:	dfc00117 	ldw	ra,4(sp)
 1802b44:	df000017 	ldw	fp,0(sp)
 1802b48:	dec00204 	addi	sp,sp,8
 1802b4c:	f800283a 	ret

01802b50 <lcd_write_data>:

/* --------------------------------------------------------------------- */

static void lcd_write_data(altera_avalon_lcd_16207_state* sp, 
  unsigned char data)
{
 1802b50:	defffa04 	addi	sp,sp,-24
 1802b54:	dfc00515 	stw	ra,20(sp)
 1802b58:	df000415 	stw	fp,16(sp)
 1802b5c:	df000404 	addi	fp,sp,16
 1802b60:	e13ffe15 	stw	r4,-8(fp)
 1802b64:	e17fff05 	stb	r5,-4(fp)
  unsigned int base = sp->base;
 1802b68:	e0bffe17 	ldw	r2,-8(fp)
 1802b6c:	10800017 	ldw	r2,0(r2)
 1802b70:	e0bffd15 	stw	r2,-12(fp)
  /* We impose a timeout on the driver in case the LCD panel isn't connected.
   * The first time we call this function the timeout is approx 25ms 
   * (assuming 5 cycles per loop and a 200MHz clock).  Obviously systems
   * with slower clocks, or debug builds, or slower memory will take longer.
   */
  int i = 1000000;
 1802b74:	008003f4 	movhi	r2,15
 1802b78:	10909004 	addi	r2,r2,16960
 1802b7c:	e0bffc15 	stw	r2,-16(fp)

  /* Don't bother if the LCD panel didn't work before */
  if (sp->broken)
 1802b80:	e0bffe17 	ldw	r2,-8(fp)
 1802b84:	10800803 	ldbu	r2,32(r2)
 1802b88:	10803fcc 	andi	r2,r2,255
 1802b8c:	1080201c 	xori	r2,r2,128
 1802b90:	10bfe004 	addi	r2,r2,-128
 1802b94:	1004c03a 	cmpne	r2,r2,zero
 1802b98:	10001d1e 	bne	r2,zero,1802c10 <lcd_write_data+0xc0>
    return;

  /* Wait until LCD isn't busy. */
  while (IORD_ALTERA_AVALON_LCD_16207_STATUS(base) & ALTERA_AVALON_LCD_16207_STATUS_BUSY_MSK)
 1802b9c:	00000a06 	br	1802bc8 <lcd_write_data+0x78>
    if (--i == 0)
 1802ba0:	e0bffc17 	ldw	r2,-16(fp)
 1802ba4:	10bfffc4 	addi	r2,r2,-1
 1802ba8:	e0bffc15 	stw	r2,-16(fp)
 1802bac:	e0bffc17 	ldw	r2,-16(fp)
 1802bb0:	1004c03a 	cmpne	r2,r2,zero
 1802bb4:	1000041e 	bne	r2,zero,1802bc8 <lcd_write_data+0x78>
    {
      sp->broken = 1;
 1802bb8:	e0fffe17 	ldw	r3,-8(fp)
 1802bbc:	00800044 	movi	r2,1
 1802bc0:	18800805 	stb	r2,32(r3)
      return;
 1802bc4:	00001206 	br	1802c10 <lcd_write_data+0xc0>
  /* Don't bother if the LCD panel didn't work before */
  if (sp->broken)
    return;

  /* Wait until LCD isn't busy. */
  while (IORD_ALTERA_AVALON_LCD_16207_STATUS(base) & ALTERA_AVALON_LCD_16207_STATUS_BUSY_MSK)
 1802bc8:	e0bffd17 	ldw	r2,-12(fp)
 1802bcc:	10800104 	addi	r2,r2,4
 1802bd0:	10800037 	ldwio	r2,0(r2)
 1802bd4:	1080200c 	andi	r2,r2,128
 1802bd8:	1004c03a 	cmpne	r2,r2,zero
 1802bdc:	103ff01e 	bne	r2,zero,1802ba0 <lcd_write_data+0x50>
    }

  /* Despite what it says in the datasheet, the LCD isn't ready to accept
   * a write immediately after it returns BUSY=0.  Wait for 100us more.
   */
  usleep(100);
 1802be0:	01001904 	movi	r4,100
 1802be4:	18053500 	call	1805350 <usleep>

  IOWR_ALTERA_AVALON_LCD_16207_DATA(base, data);
 1802be8:	e0bffd17 	ldw	r2,-12(fp)
 1802bec:	10800204 	addi	r2,r2,8
 1802bf0:	e0ffff03 	ldbu	r3,-4(fp)
 1802bf4:	10c00035 	stwio	r3,0(r2)

  sp->address++;
 1802bf8:	e0bffe17 	ldw	r2,-8(fp)
 1802bfc:	108008c3 	ldbu	r2,35(r2)
 1802c00:	10800044 	addi	r2,r2,1
 1802c04:	1007883a 	mov	r3,r2
 1802c08:	e0bffe17 	ldw	r2,-8(fp)
 1802c0c:	10c008c5 	stb	r3,35(r2)
}
 1802c10:	e037883a 	mov	sp,fp
 1802c14:	dfc00117 	ldw	ra,4(sp)
 1802c18:	df000017 	ldw	fp,0(sp)
 1802c1c:	dec00204 	addi	sp,sp,8
 1802c20:	f800283a 	ret

01802c24 <lcd_clear_screen>:

/* --------------------------------------------------------------------- */

static void lcd_clear_screen(altera_avalon_lcd_16207_state* sp)
{
 1802c24:	defffc04 	addi	sp,sp,-16
 1802c28:	dfc00315 	stw	ra,12(sp)
 1802c2c:	df000215 	stw	fp,8(sp)
 1802c30:	df000204 	addi	fp,sp,8
 1802c34:	e13fff15 	stw	r4,-4(fp)
  int y;

  lcd_write_command(sp, LCD_CMD_CLEAR);
 1802c38:	e13fff17 	ldw	r4,-4(fp)
 1802c3c:	01400044 	movi	r5,1
 1802c40:	1802a980 	call	1802a98 <lcd_write_command>

  sp->x = 0;
 1802c44:	e0bfff17 	ldw	r2,-4(fp)
 1802c48:	10000845 	stb	zero,33(r2)
  sp->y = 0;
 1802c4c:	e0bfff17 	ldw	r2,-4(fp)
 1802c50:	10000885 	stb	zero,34(r2)
  sp->address = 0;
 1802c54:	e0bfff17 	ldw	r2,-4(fp)
 1802c58:	100008c5 	stb	zero,35(r2)

  for (y = 0 ; y < ALT_LCD_HEIGHT ; y++)
 1802c5c:	e03ffe15 	stw	zero,-8(fp)
 1802c60:	00001906 	br	1802cc8 <lcd_clear_screen+0xa4>
  {
    memset(sp->line[y].data, ' ', sizeof(sp->line[0].data));
 1802c64:	e0bffe17 	ldw	r2,-8(fp)
 1802c68:	108018e4 	muli	r2,r2,99
 1802c6c:	10c01004 	addi	r3,r2,64
 1802c70:	e0bfff17 	ldw	r2,-4(fp)
 1802c74:	1889883a 	add	r4,r3,r2
 1802c78:	01400804 	movi	r5,32
 1802c7c:	01801444 	movi	r6,81
 1802c80:	18000c00 	call	18000c0 <memset>
    memset(sp->line[y].visible, ' ', sizeof(sp->line[0].visible));
 1802c84:	e0bffe17 	ldw	r2,-8(fp)
 1802c88:	108018e4 	muli	r2,r2,99
 1802c8c:	10c00c04 	addi	r3,r2,48
 1802c90:	e0bfff17 	ldw	r2,-4(fp)
 1802c94:	1889883a 	add	r4,r3,r2
 1802c98:	01400804 	movi	r5,32
 1802c9c:	01800404 	movi	r6,16
 1802ca0:	18000c00 	call	18000c0 <memset>
    sp->line[y].width = 0;
 1802ca4:	e0bffe17 	ldw	r2,-8(fp)
 1802ca8:	e0ffff17 	ldw	r3,-4(fp)
 1802cac:	108018e4 	muli	r2,r2,99
 1802cb0:	10c5883a 	add	r2,r2,r3
 1802cb4:	10802404 	addi	r2,r2,144
 1802cb8:	10000045 	stb	zero,1(r2)

  sp->x = 0;
  sp->y = 0;
  sp->address = 0;

  for (y = 0 ; y < ALT_LCD_HEIGHT ; y++)
 1802cbc:	e0bffe17 	ldw	r2,-8(fp)
 1802cc0:	10800044 	addi	r2,r2,1
 1802cc4:	e0bffe15 	stw	r2,-8(fp)
 1802cc8:	e0bffe17 	ldw	r2,-8(fp)
 1802ccc:	10800090 	cmplti	r2,r2,2
 1802cd0:	103fe41e 	bne	r2,zero,1802c64 <lcd_clear_screen+0x40>
  {
    memset(sp->line[y].data, ' ', sizeof(sp->line[0].data));
    memset(sp->line[y].visible, ' ', sizeof(sp->line[0].visible));
    sp->line[y].width = 0;
  }
}
 1802cd4:	e037883a 	mov	sp,fp
 1802cd8:	dfc00117 	ldw	ra,4(sp)
 1802cdc:	df000017 	ldw	fp,0(sp)
 1802ce0:	dec00204 	addi	sp,sp,8
 1802ce4:	f800283a 	ret

01802ce8 <lcd_repaint_screen>:

/* --------------------------------------------------------------------- */

static void lcd_repaint_screen(altera_avalon_lcd_16207_state* sp)
{
 1802ce8:	defff704 	addi	sp,sp,-36
 1802cec:	dfc00815 	stw	ra,32(sp)
 1802cf0:	df000715 	stw	fp,28(sp)
 1802cf4:	df000704 	addi	fp,sp,28
 1802cf8:	e13fff15 	stw	r4,-4(fp)
  /* scrollpos controls how much the lines have scrolled round.  The speed
   * each line scrolls at is controlled by its speed variable - while
   * scrolline lines will wrap at the position set by width
   */

  int scrollpos = sp->scrollpos;
 1802cfc:	e0bfff17 	ldw	r2,-4(fp)
 1802d00:	10800943 	ldbu	r2,37(r2)
 1802d04:	10803fcc 	andi	r2,r2,255
 1802d08:	1080201c 	xori	r2,r2,128
 1802d0c:	10bfe004 	addi	r2,r2,-128
 1802d10:	e0bffc15 	stw	r2,-16(fp)

  for (y = 0 ; y < ALT_LCD_HEIGHT ; y++)
 1802d14:	e03ffe15 	stw	zero,-8(fp)
 1802d18:	00006606 	br	1802eb4 <lcd_repaint_screen+0x1cc>
  {
    int width  = sp->line[y].width;
 1802d1c:	e0bffe17 	ldw	r2,-8(fp)
 1802d20:	e0ffff17 	ldw	r3,-4(fp)
 1802d24:	108018e4 	muli	r2,r2,99
 1802d28:	10c5883a 	add	r2,r2,r3
 1802d2c:	10802404 	addi	r2,r2,144
 1802d30:	10800043 	ldbu	r2,1(r2)
 1802d34:	10803fcc 	andi	r2,r2,255
 1802d38:	1080201c 	xori	r2,r2,128
 1802d3c:	10bfe004 	addi	r2,r2,-128
 1802d40:	e0bffb15 	stw	r2,-20(fp)
    int offset = (scrollpos * sp->line[y].speed) >> 8;
 1802d44:	e0bffe17 	ldw	r2,-8(fp)
 1802d48:	e0ffff17 	ldw	r3,-4(fp)
 1802d4c:	108018e4 	muli	r2,r2,99
 1802d50:	10c5883a 	add	r2,r2,r3
 1802d54:	10802404 	addi	r2,r2,144
 1802d58:	10800083 	ldbu	r2,2(r2)
 1802d5c:	10c03fcc 	andi	r3,r2,255
 1802d60:	e0bffc17 	ldw	r2,-16(fp)
 1802d64:	1885383a 	mul	r2,r3,r2
 1802d68:	1005d23a 	srai	r2,r2,8
 1802d6c:	e0bffa15 	stw	r2,-24(fp)
    if (offset >= width)
 1802d70:	e0fffa17 	ldw	r3,-24(fp)
 1802d74:	e0bffb17 	ldw	r2,-20(fp)
 1802d78:	18800116 	blt	r3,r2,1802d80 <lcd_repaint_screen+0x98>
      offset = 0;
 1802d7c:	e03ffa15 	stw	zero,-24(fp)

    for (x = 0 ; x < ALT_LCD_WIDTH ; x++)
 1802d80:	e03ffd15 	stw	zero,-12(fp)
 1802d84:	00004506 	br	1802e9c <lcd_repaint_screen+0x1b4>
    {
      char c = sp->line[y].data[(x + offset) % width];
 1802d88:	e17ffe17 	ldw	r5,-8(fp)
 1802d8c:	e0fffd17 	ldw	r3,-12(fp)
 1802d90:	e0bffa17 	ldw	r2,-24(fp)
 1802d94:	1889883a 	add	r4,r3,r2
 1802d98:	e0bffb17 	ldw	r2,-20(fp)
 1802d9c:	2087283a 	div	r3,r4,r2
 1802da0:	e0bffb17 	ldw	r2,-20(fp)
 1802da4:	1885383a 	mul	r2,r3,r2
 1802da8:	2089c83a 	sub	r4,r4,r2
 1802dac:	e0ffff17 	ldw	r3,-4(fp)
 1802db0:	288018e4 	muli	r2,r5,99
 1802db4:	10c5883a 	add	r2,r2,r3
 1802db8:	1105883a 	add	r2,r2,r4
 1802dbc:	10801004 	addi	r2,r2,64
 1802dc0:	10800003 	ldbu	r2,0(r2)
 1802dc4:	e0bff945 	stb	r2,-27(fp)

      /* Writing data takes 40us, so don't do it unless required */
      if (sp->line[y].visible[x] != c)
 1802dc8:	e0bffe17 	ldw	r2,-8(fp)
 1802dcc:	e13ffd17 	ldw	r4,-12(fp)
 1802dd0:	e0ffff17 	ldw	r3,-4(fp)
 1802dd4:	108018e4 	muli	r2,r2,99
 1802dd8:	10c5883a 	add	r2,r2,r3
 1802ddc:	1105883a 	add	r2,r2,r4
 1802de0:	10800c04 	addi	r2,r2,48
 1802de4:	10800003 	ldbu	r2,0(r2)
 1802de8:	10c03fcc 	andi	r3,r2,255
 1802dec:	18c0201c 	xori	r3,r3,128
 1802df0:	18ffe004 	addi	r3,r3,-128
 1802df4:	e0bff947 	ldb	r2,-27(fp)
 1802df8:	18802526 	beq	r3,r2,1802e90 <lcd_repaint_screen+0x1a8>
      {
        unsigned char address = x + colstart[y];
 1802dfc:	e0fffe17 	ldw	r3,-8(fp)
 1802e00:	d0a00004 	addi	r2,gp,-32768
 1802e04:	1885883a 	add	r2,r3,r2
 1802e08:	10800003 	ldbu	r2,0(r2)
 1802e0c:	1007883a 	mov	r3,r2
 1802e10:	e0bffd17 	ldw	r2,-12(fp)
 1802e14:	1885883a 	add	r2,r3,r2
 1802e18:	e0bff905 	stb	r2,-28(fp)

        if (address != sp->address)
 1802e1c:	e0fff903 	ldbu	r3,-28(fp)
 1802e20:	e0bfff17 	ldw	r2,-4(fp)
 1802e24:	108008c3 	ldbu	r2,35(r2)
 1802e28:	10803fcc 	andi	r2,r2,255
 1802e2c:	1080201c 	xori	r2,r2,128
 1802e30:	10bfe004 	addi	r2,r2,-128
 1802e34:	18800926 	beq	r3,r2,1802e5c <lcd_repaint_screen+0x174>
        {
          lcd_write_command(sp, LCD_CMD_WRITE_DATA | address);
 1802e38:	e0fff903 	ldbu	r3,-28(fp)
 1802e3c:	00bfe004 	movi	r2,-128
 1802e40:	1884b03a 	or	r2,r3,r2
 1802e44:	11403fcc 	andi	r5,r2,255
 1802e48:	e13fff17 	ldw	r4,-4(fp)
 1802e4c:	1802a980 	call	1802a98 <lcd_write_command>
          sp->address = address;
 1802e50:	e0fff903 	ldbu	r3,-28(fp)
 1802e54:	e0bfff17 	ldw	r2,-4(fp)
 1802e58:	10c008c5 	stb	r3,35(r2)
        }

        lcd_write_data(sp, c);
 1802e5c:	e0bff943 	ldbu	r2,-27(fp)
 1802e60:	11403fcc 	andi	r5,r2,255
 1802e64:	e13fff17 	ldw	r4,-4(fp)
 1802e68:	1802b500 	call	1802b50 <lcd_write_data>
        sp->line[y].visible[x] = c;
 1802e6c:	e0bffe17 	ldw	r2,-8(fp)
 1802e70:	e13ffd17 	ldw	r4,-12(fp)
 1802e74:	e0ffff17 	ldw	r3,-4(fp)
 1802e78:	108018e4 	muli	r2,r2,99
 1802e7c:	10c5883a 	add	r2,r2,r3
 1802e80:	1105883a 	add	r2,r2,r4
 1802e84:	10c00c04 	addi	r3,r2,48
 1802e88:	e0bff943 	ldbu	r2,-27(fp)
 1802e8c:	18800005 	stb	r2,0(r3)
    int width  = sp->line[y].width;
    int offset = (scrollpos * sp->line[y].speed) >> 8;
    if (offset >= width)
      offset = 0;

    for (x = 0 ; x < ALT_LCD_WIDTH ; x++)
 1802e90:	e0bffd17 	ldw	r2,-12(fp)
 1802e94:	10800044 	addi	r2,r2,1
 1802e98:	e0bffd15 	stw	r2,-12(fp)
 1802e9c:	e0bffd17 	ldw	r2,-12(fp)
 1802ea0:	10800410 	cmplti	r2,r2,16
 1802ea4:	103fb81e 	bne	r2,zero,1802d88 <lcd_repaint_screen+0xa0>
   * scrolline lines will wrap at the position set by width
   */

  int scrollpos = sp->scrollpos;

  for (y = 0 ; y < ALT_LCD_HEIGHT ; y++)
 1802ea8:	e0bffe17 	ldw	r2,-8(fp)
 1802eac:	10800044 	addi	r2,r2,1
 1802eb0:	e0bffe15 	stw	r2,-8(fp)
 1802eb4:	e0bffe17 	ldw	r2,-8(fp)
 1802eb8:	10800090 	cmplti	r2,r2,2
 1802ebc:	103f971e 	bne	r2,zero,1802d1c <lcd_repaint_screen+0x34>
        lcd_write_data(sp, c);
        sp->line[y].visible[x] = c;
      }
    }
  }
}
 1802ec0:	e037883a 	mov	sp,fp
 1802ec4:	dfc00117 	ldw	ra,4(sp)
 1802ec8:	df000017 	ldw	fp,0(sp)
 1802ecc:	dec00204 	addi	sp,sp,8
 1802ed0:	f800283a 	ret

01802ed4 <lcd_scroll_up>:

/* --------------------------------------------------------------------- */

static void lcd_scroll_up(altera_avalon_lcd_16207_state* sp)
{
 1802ed4:	defffc04 	addi	sp,sp,-16
 1802ed8:	dfc00315 	stw	ra,12(sp)
 1802edc:	df000215 	stw	fp,8(sp)
 1802ee0:	df000204 	addi	fp,sp,8
 1802ee4:	e13fff15 	stw	r4,-4(fp)
  int y;

  for (y = 0 ; y < ALT_LCD_HEIGHT ; y++)
 1802ee8:	e03ffe15 	stw	zero,-8(fp)
 1802eec:	00001d06 	br	1802f64 <lcd_scroll_up+0x90>
  {
    if (y < ALT_LCD_HEIGHT-1)
 1802ef0:	e0bffe17 	ldw	r2,-8(fp)
 1802ef4:	10800048 	cmpgei	r2,r2,1
 1802ef8:	10000f1e 	bne	r2,zero,1802f38 <lcd_scroll_up+0x64>
      memcpy(sp->line[y].data, sp->line[y+1].data, ALT_LCD_VIRTUAL_WIDTH);
 1802efc:	e0bffe17 	ldw	r2,-8(fp)
 1802f00:	108018e4 	muli	r2,r2,99
 1802f04:	10c01004 	addi	r3,r2,64
 1802f08:	e0bfff17 	ldw	r2,-4(fp)
 1802f0c:	1889883a 	add	r4,r3,r2
 1802f10:	e0bffe17 	ldw	r2,-8(fp)
 1802f14:	10800044 	addi	r2,r2,1
 1802f18:	108018e4 	muli	r2,r2,99
 1802f1c:	10c01004 	addi	r3,r2,64
 1802f20:	e0bfff17 	ldw	r2,-4(fp)
 1802f24:	1885883a 	add	r2,r3,r2
 1802f28:	100b883a 	mov	r5,r2
 1802f2c:	01801404 	movi	r6,80
 1802f30:	18061940 	call	1806194 <memcpy>
 1802f34:	00000806 	br	1802f58 <lcd_scroll_up+0x84>
    else
      memset(sp->line[y].data, ' ', ALT_LCD_VIRTUAL_WIDTH);
 1802f38:	e0bffe17 	ldw	r2,-8(fp)
 1802f3c:	108018e4 	muli	r2,r2,99
 1802f40:	10c01004 	addi	r3,r2,64
 1802f44:	e0bfff17 	ldw	r2,-4(fp)
 1802f48:	1889883a 	add	r4,r3,r2
 1802f4c:	01400804 	movi	r5,32
 1802f50:	01801404 	movi	r6,80
 1802f54:	18000c00 	call	18000c0 <memset>

static void lcd_scroll_up(altera_avalon_lcd_16207_state* sp)
{
  int y;

  for (y = 0 ; y < ALT_LCD_HEIGHT ; y++)
 1802f58:	e0bffe17 	ldw	r2,-8(fp)
 1802f5c:	10800044 	addi	r2,r2,1
 1802f60:	e0bffe15 	stw	r2,-8(fp)
 1802f64:	e0bffe17 	ldw	r2,-8(fp)
 1802f68:	10800090 	cmplti	r2,r2,2
 1802f6c:	103fe01e 	bne	r2,zero,1802ef0 <lcd_scroll_up+0x1c>
      memcpy(sp->line[y].data, sp->line[y+1].data, ALT_LCD_VIRTUAL_WIDTH);
    else
      memset(sp->line[y].data, ' ', ALT_LCD_VIRTUAL_WIDTH);
  }

  sp->y--;
 1802f70:	e0bfff17 	ldw	r2,-4(fp)
 1802f74:	10800883 	ldbu	r2,34(r2)
 1802f78:	10bfffc4 	addi	r2,r2,-1
 1802f7c:	1007883a 	mov	r3,r2
 1802f80:	e0bfff17 	ldw	r2,-4(fp)
 1802f84:	10c00885 	stb	r3,34(r2)
}
 1802f88:	e037883a 	mov	sp,fp
 1802f8c:	dfc00117 	ldw	ra,4(sp)
 1802f90:	df000017 	ldw	fp,0(sp)
 1802f94:	dec00204 	addi	sp,sp,8
 1802f98:	f800283a 	ret

01802f9c <lcd_handle_escape>:

/* --------------------------------------------------------------------- */

static void lcd_handle_escape(altera_avalon_lcd_16207_state* sp, char c)
{
 1802f9c:	defff804 	addi	sp,sp,-32
 1802fa0:	dfc00715 	stw	ra,28(sp)
 1802fa4:	df000615 	stw	fp,24(sp)
 1802fa8:	df000604 	addi	fp,sp,24
 1802fac:	e13ffd15 	stw	r4,-12(fp)
 1802fb0:	e17ffe05 	stb	r5,-8(fp)
  int parm1 = 0, parm2 = 0;
 1802fb4:	e03ffc15 	stw	zero,-16(fp)
 1802fb8:	e03ffb15 	stw	zero,-20(fp)

  if (sp->escape[0] == '[')
 1802fbc:	e0bffd17 	ldw	r2,-12(fp)
 1802fc0:	10800a03 	ldbu	r2,40(r2)
 1802fc4:	10803fcc 	andi	r2,r2,255
 1802fc8:	1080201c 	xori	r2,r2,128
 1802fcc:	10bfe004 	addi	r2,r2,-128
 1802fd0:	108016d8 	cmpnei	r2,r2,91
 1802fd4:	1000491e 	bne	r2,zero,18030fc <lcd_handle_escape+0x160>
  {
    char * ptr = sp->escape+1;
 1802fd8:	e0bffd17 	ldw	r2,-12(fp)
 1802fdc:	10800a04 	addi	r2,r2,40
 1802fe0:	10800044 	addi	r2,r2,1
 1802fe4:	e0bffa15 	stw	r2,-24(fp)
    while (isdigit(*ptr))
 1802fe8:	00000d06 	br	1803020 <lcd_handle_escape+0x84>
      parm1 = (parm1 * 10) + (*ptr++ - '0');
 1802fec:	e0bffc17 	ldw	r2,-16(fp)
 1802ff0:	10c002a4 	muli	r3,r2,10
 1802ff4:	e0bffa17 	ldw	r2,-24(fp)
 1802ff8:	10800003 	ldbu	r2,0(r2)
 1802ffc:	10803fcc 	andi	r2,r2,255
 1803000:	1080201c 	xori	r2,r2,128
 1803004:	10bfe004 	addi	r2,r2,-128
 1803008:	1885883a 	add	r2,r3,r2
 180300c:	10bff404 	addi	r2,r2,-48
 1803010:	e0bffc15 	stw	r2,-16(fp)
 1803014:	e0bffa17 	ldw	r2,-24(fp)
 1803018:	10800044 	addi	r2,r2,1
 180301c:	e0bffa15 	stw	r2,-24(fp)
  int parm1 = 0, parm2 = 0;

  if (sp->escape[0] == '[')
  {
    char * ptr = sp->escape+1;
    while (isdigit(*ptr))
 1803020:	e0bffa17 	ldw	r2,-24(fp)
 1803024:	10800003 	ldbu	r2,0(r2)
 1803028:	10803fcc 	andi	r2,r2,255
 180302c:	1080201c 	xori	r2,r2,128
 1803030:	10bfe004 	addi	r2,r2,-128
 1803034:	1007883a 	mov	r3,r2
 1803038:	00806074 	movhi	r2,385
 180303c:	10a08a04 	addi	r2,r2,-32216
 1803040:	10800017 	ldw	r2,0(r2)
 1803044:	1885883a 	add	r2,r3,r2
 1803048:	10800003 	ldbu	r2,0(r2)
 180304c:	10803fcc 	andi	r2,r2,255
 1803050:	1080010c 	andi	r2,r2,4
 1803054:	1004c03a 	cmpne	r2,r2,zero
 1803058:	103fe41e 	bne	r2,zero,1802fec <lcd_handle_escape+0x50>
      parm1 = (parm1 * 10) + (*ptr++ - '0');

    if (*ptr == ';')
 180305c:	e0bffa17 	ldw	r2,-24(fp)
 1803060:	10800003 	ldbu	r2,0(r2)
 1803064:	10803fcc 	andi	r2,r2,255
 1803068:	1080201c 	xori	r2,r2,128
 180306c:	10bfe004 	addi	r2,r2,-128
 1803070:	10800ed8 	cmpnei	r2,r2,59
 1803074:	1000231e 	bne	r2,zero,1803104 <lcd_handle_escape+0x168>
    {
      ptr++;
 1803078:	e0bffa17 	ldw	r2,-24(fp)
 180307c:	10800044 	addi	r2,r2,1
 1803080:	e0bffa15 	stw	r2,-24(fp)
      while (isdigit(*ptr))
 1803084:	00000d06 	br	18030bc <lcd_handle_escape+0x120>
        parm2 = (parm2 * 10) + (*ptr++ - '0');
 1803088:	e0bffb17 	ldw	r2,-20(fp)
 180308c:	10c002a4 	muli	r3,r2,10
 1803090:	e0bffa17 	ldw	r2,-24(fp)
 1803094:	10800003 	ldbu	r2,0(r2)
 1803098:	10803fcc 	andi	r2,r2,255
 180309c:	1080201c 	xori	r2,r2,128
 18030a0:	10bfe004 	addi	r2,r2,-128
 18030a4:	1885883a 	add	r2,r3,r2
 18030a8:	10bff404 	addi	r2,r2,-48
 18030ac:	e0bffb15 	stw	r2,-20(fp)
 18030b0:	e0bffa17 	ldw	r2,-24(fp)
 18030b4:	10800044 	addi	r2,r2,1
 18030b8:	e0bffa15 	stw	r2,-24(fp)
      parm1 = (parm1 * 10) + (*ptr++ - '0');

    if (*ptr == ';')
    {
      ptr++;
      while (isdigit(*ptr))
 18030bc:	e0bffa17 	ldw	r2,-24(fp)
 18030c0:	10800003 	ldbu	r2,0(r2)
 18030c4:	10803fcc 	andi	r2,r2,255
 18030c8:	1080201c 	xori	r2,r2,128
 18030cc:	10bfe004 	addi	r2,r2,-128
 18030d0:	1007883a 	mov	r3,r2
 18030d4:	00806074 	movhi	r2,385
 18030d8:	10a08a04 	addi	r2,r2,-32216
 18030dc:	10800017 	ldw	r2,0(r2)
 18030e0:	1885883a 	add	r2,r3,r2
 18030e4:	10800003 	ldbu	r2,0(r2)
 18030e8:	10803fcc 	andi	r2,r2,255
 18030ec:	1080010c 	andi	r2,r2,4
 18030f0:	1004c03a 	cmpne	r2,r2,zero
 18030f4:	103fe41e 	bne	r2,zero,1803088 <lcd_handle_escape+0xec>
 18030f8:	00000206 	br	1803104 <lcd_handle_escape+0x168>
        parm2 = (parm2 * 10) + (*ptr++ - '0');
    }
  }
  else
    parm1 = -1;
 18030fc:	00bfffc4 	movi	r2,-1
 1803100:	e0bffc15 	stw	r2,-16(fp)

  switch (c)
 1803104:	e0bffe07 	ldb	r2,-8(fp)
 1803108:	e0bfff15 	stw	r2,-4(fp)
 180310c:	e0ffff17 	ldw	r3,-4(fp)
 1803110:	188012a0 	cmpeqi	r2,r3,74
 1803114:	10002f1e 	bne	r2,zero,18031d4 <lcd_handle_escape+0x238>
 1803118:	e0ffff17 	ldw	r3,-4(fp)
 180311c:	188012c8 	cmpgei	r2,r3,75
 1803120:	1000041e 	bne	r2,zero,1803134 <lcd_handle_escape+0x198>
 1803124:	e0ffff17 	ldw	r3,-4(fp)
 1803128:	18801220 	cmpeqi	r2,r3,72
 180312c:	1000081e 	bne	r2,zero,1803150 <lcd_handle_escape+0x1b4>
 1803130:	00004906 	br	1803258 <lcd_handle_escape+0x2bc>
 1803134:	e0ffff17 	ldw	r3,-4(fp)
 1803138:	188012e0 	cmpeqi	r2,r3,75
 180313c:	10002b1e 	bne	r2,zero,18031ec <lcd_handle_escape+0x250>
 1803140:	e0ffff17 	ldw	r3,-4(fp)
 1803144:	188019a0 	cmpeqi	r2,r3,102
 1803148:	1000011e 	bne	r2,zero,1803150 <lcd_handle_escape+0x1b4>
 180314c:	00004206 	br	1803258 <lcd_handle_escape+0x2bc>
  {
  case 'H': /* ESC '[' <y> ';' <x> 'H'  : Move cursor to location */
  case 'f': /* Same as above */
    if (parm2 > 0)
 1803150:	e0bffb17 	ldw	r2,-20(fp)
 1803154:	10800050 	cmplti	r2,r2,1
 1803158:	1000051e 	bne	r2,zero,1803170 <lcd_handle_escape+0x1d4>
      sp->x = parm2 - 1;
 180315c:	e0bffb17 	ldw	r2,-20(fp)
 1803160:	10bfffc4 	addi	r2,r2,-1
 1803164:	1007883a 	mov	r3,r2
 1803168:	e0bffd17 	ldw	r2,-12(fp)
 180316c:	10c00845 	stb	r3,33(r2)
    if (parm1 > 0)
 1803170:	e0bffc17 	ldw	r2,-16(fp)
 1803174:	10800050 	cmplti	r2,r2,1
 1803178:	1000371e 	bne	r2,zero,1803258 <lcd_handle_escape+0x2bc>
    {
      sp->y = parm1 - 1;
 180317c:	e0bffc17 	ldw	r2,-16(fp)
 1803180:	10bfffc4 	addi	r2,r2,-1
 1803184:	1007883a 	mov	r3,r2
 1803188:	e0bffd17 	ldw	r2,-12(fp)
 180318c:	10c00885 	stb	r3,34(r2)
      if (sp->y > ALT_LCD_HEIGHT * 2)
 1803190:	e0bffd17 	ldw	r2,-12(fp)
 1803194:	10800883 	ldbu	r2,34(r2)
 1803198:	10803fcc 	andi	r2,r2,255
 180319c:	10800170 	cmpltui	r2,r2,5
 18031a0:	1000061e 	bne	r2,zero,18031bc <lcd_handle_escape+0x220>
        sp->y = ALT_LCD_HEIGHT * 2;
 18031a4:	e0fffd17 	ldw	r3,-12(fp)
 18031a8:	00800104 	movi	r2,4
 18031ac:	18800885 	stb	r2,34(r3)
      while (sp->y > ALT_LCD_HEIGHT)
 18031b0:	00000206 	br	18031bc <lcd_handle_escape+0x220>
        lcd_scroll_up(sp);
 18031b4:	e13ffd17 	ldw	r4,-12(fp)
 18031b8:	1802ed40 	call	1802ed4 <lcd_scroll_up>
    if (parm1 > 0)
    {
      sp->y = parm1 - 1;
      if (sp->y > ALT_LCD_HEIGHT * 2)
        sp->y = ALT_LCD_HEIGHT * 2;
      while (sp->y > ALT_LCD_HEIGHT)
 18031bc:	e0bffd17 	ldw	r2,-12(fp)
 18031c0:	10800883 	ldbu	r2,34(r2)
 18031c4:	10803fcc 	andi	r2,r2,255
 18031c8:	108000e8 	cmpgeui	r2,r2,3
 18031cc:	103ff91e 	bne	r2,zero,18031b4 <lcd_handle_escape+0x218>
        lcd_scroll_up(sp);
    }
    break;
 18031d0:	00002106 	br	1803258 <lcd_handle_escape+0x2bc>
    /*   ESC J      is clear to beginning of line    [unimplemented]
     *   ESC [ 0 J  is clear to bottom of screen     [unimplemented]
     *   ESC [ 1 J  is clear to beginning of screen  [unimplemented]
     *   ESC [ 2 J  is clear screen
     */
    if (parm1 == 2)
 18031d4:	e0bffc17 	ldw	r2,-16(fp)
 18031d8:	10800098 	cmpnei	r2,r2,2
 18031dc:	10001e1e 	bne	r2,zero,1803258 <lcd_handle_escape+0x2bc>
      lcd_clear_screen(sp);
 18031e0:	e13ffd17 	ldw	r4,-12(fp)
 18031e4:	1802c240 	call	1802c24 <lcd_clear_screen>
    break;
 18031e8:	00001b06 	br	1803258 <lcd_handle_escape+0x2bc>
    /*   ESC K      is clear to end of line
     *   ESC [ 0 K  is clear to end of line
     *   ESC [ 1 K  is clear to beginning of line    [unimplemented]
     *   ESC [ 2 K  is clear line                    [unimplemented]
     */
    if (parm1 < 1)
 18031ec:	e0bffc17 	ldw	r2,-16(fp)
 18031f0:	10800048 	cmpgei	r2,r2,1
 18031f4:	1000181e 	bne	r2,zero,1803258 <lcd_handle_escape+0x2bc>
    {
      if (sp->x < ALT_LCD_VIRTUAL_WIDTH)
 18031f8:	e0bffd17 	ldw	r2,-12(fp)
 18031fc:	10800843 	ldbu	r2,33(r2)
 1803200:	10803fcc 	andi	r2,r2,255
 1803204:	10801428 	cmpgeui	r2,r2,80
 1803208:	1000131e 	bne	r2,zero,1803258 <lcd_handle_escape+0x2bc>
        memset(sp->line[sp->y].data + sp->x, ' ', ALT_LCD_VIRTUAL_WIDTH - sp->x);
 180320c:	e0bffd17 	ldw	r2,-12(fp)
 1803210:	10800883 	ldbu	r2,34(r2)
 1803214:	10803fcc 	andi	r2,r2,255
 1803218:	108018e4 	muli	r2,r2,99
 180321c:	10c01004 	addi	r3,r2,64
 1803220:	e0bffd17 	ldw	r2,-12(fp)
 1803224:	1887883a 	add	r3,r3,r2
 1803228:	e0bffd17 	ldw	r2,-12(fp)
 180322c:	10800843 	ldbu	r2,33(r2)
 1803230:	10803fcc 	andi	r2,r2,255
 1803234:	1889883a 	add	r4,r3,r2
 1803238:	e0bffd17 	ldw	r2,-12(fp)
 180323c:	10800843 	ldbu	r2,33(r2)
 1803240:	10c03fcc 	andi	r3,r2,255
 1803244:	00801404 	movi	r2,80
 1803248:	10c5c83a 	sub	r2,r2,r3
 180324c:	100d883a 	mov	r6,r2
 1803250:	01400804 	movi	r5,32
 1803254:	18000c00 	call	18000c0 <memset>
    }
    break;
  }
}
 1803258:	e037883a 	mov	sp,fp
 180325c:	dfc00117 	ldw	ra,4(sp)
 1803260:	df000017 	ldw	fp,0(sp)
 1803264:	dec00204 	addi	sp,sp,8
 1803268:	f800283a 	ret

0180326c <altera_avalon_lcd_16207_write>:

/* --------------------------------------------------------------------- */

int altera_avalon_lcd_16207_write(altera_avalon_lcd_16207_state* sp, 
  const char* ptr, int len, int flags)
{
 180326c:	defff304 	addi	sp,sp,-52
 1803270:	dfc00c15 	stw	ra,48(sp)
 1803274:	df000b15 	stw	fp,44(sp)
 1803278:	df000b04 	addi	fp,sp,44
 180327c:	e13ffc15 	stw	r4,-16(fp)
 1803280:	e17ffd15 	stw	r5,-12(fp)
 1803284:	e1bffe15 	stw	r6,-8(fp)
 1803288:	e1ffff15 	stw	r7,-4(fp)
  const char* end = ptr + len;
 180328c:	e0bffe17 	ldw	r2,-8(fp)
 1803290:	1007883a 	mov	r3,r2
 1803294:	e0bffd17 	ldw	r2,-12(fp)
 1803298:	10c5883a 	add	r2,r2,r3
 180329c:	e0bffb15 	stw	r2,-20(fp)

  ALT_SEM_PEND (sp->write_lock, 0);

  /* Tell the routine which is called off the timer interrupt that the
   * foreground routines are active so it must not repaint the display. */
  sp->active = 1;
 18032a0:	e0fffc17 	ldw	r3,-16(fp)
 18032a4:	00800044 	movi	r2,1
 18032a8:	188009c5 	stb	r2,39(r3)

  for ( ; ptr < end ; ptr++)
 18032ac:	0000a206 	br	1803538 <altera_avalon_lcd_16207_write+0x2cc>
  {
    char c = *ptr;
 18032b0:	e0bffd17 	ldw	r2,-12(fp)
 18032b4:	10800003 	ldbu	r2,0(r2)
 18032b8:	e0bff805 	stb	r2,-32(fp)

    if (sp->esccount >= 0)
 18032bc:	e0bffc17 	ldw	r2,-16(fp)
 18032c0:	10800903 	ldbu	r2,36(r2)
 18032c4:	10803fcc 	andi	r2,r2,255
 18032c8:	1080201c 	xori	r2,r2,128
 18032cc:	10bfe004 	addi	r2,r2,-128
 18032d0:	1004803a 	cmplt	r2,r2,zero
 18032d4:	10003b1e 	bne	r2,zero,18033c4 <altera_avalon_lcd_16207_write+0x158>
    {
      unsigned int esccount = sp->esccount;
 18032d8:	e0bffc17 	ldw	r2,-16(fp)
 18032dc:	10800903 	ldbu	r2,36(r2)
 18032e0:	10803fcc 	andi	r2,r2,255
 18032e4:	1080201c 	xori	r2,r2,128
 18032e8:	10bfe004 	addi	r2,r2,-128
 18032ec:	e0bff715 	stw	r2,-36(fp)

      /* Single character escape sequences can end with any character
       * Multi character escape sequences start with '[' and contain
       * digits and semicolons before terminating
       */
      if ((esccount == 0 && c != '[') ||
 18032f0:	e0bff717 	ldw	r2,-36(fp)
 18032f4:	1004c03a 	cmpne	r2,r2,zero
 18032f8:	1000031e 	bne	r2,zero,1803308 <altera_avalon_lcd_16207_write+0x9c>
 18032fc:	e0bff807 	ldb	r2,-32(fp)
 1803300:	108016d8 	cmpnei	r2,r2,91
 1803304:	1000111e 	bne	r2,zero,180334c <altera_avalon_lcd_16207_write+0xe0>
 1803308:	e0bff717 	ldw	r2,-36(fp)
 180330c:	1005003a 	cmpeq	r2,r2,zero
 1803310:	10001a1e 	bne	r2,zero,180337c <altera_avalon_lcd_16207_write+0x110>
 1803314:	e0bff807 	ldb	r2,-32(fp)
 1803318:	1007883a 	mov	r3,r2
 180331c:	00806074 	movhi	r2,385
 1803320:	10a08a04 	addi	r2,r2,-32216
 1803324:	10800017 	ldw	r2,0(r2)
 1803328:	1885883a 	add	r2,r3,r2
 180332c:	10800003 	ldbu	r2,0(r2)
 1803330:	10803fcc 	andi	r2,r2,255
 1803334:	1080010c 	andi	r2,r2,4
 1803338:	1004c03a 	cmpne	r2,r2,zero
 180333c:	10000f1e 	bne	r2,zero,180337c <altera_avalon_lcd_16207_write+0x110>
 1803340:	e0bff807 	ldb	r2,-32(fp)
 1803344:	10800ee0 	cmpeqi	r2,r2,59
 1803348:	10000c1e 	bne	r2,zero,180337c <altera_avalon_lcd_16207_write+0x110>
          (esccount > 0 && !isdigit(c) && c != ';'))
      {
        sp->escape[esccount] = 0;
 180334c:	e0fff717 	ldw	r3,-36(fp)
 1803350:	e0bffc17 	ldw	r2,-16(fp)
 1803354:	1885883a 	add	r2,r3,r2
 1803358:	10800a04 	addi	r2,r2,40
 180335c:	10000005 	stb	zero,0(r2)

        lcd_handle_escape(sp, c);
 1803360:	e17ff807 	ldb	r5,-32(fp)
 1803364:	e13ffc17 	ldw	r4,-16(fp)
 1803368:	1802f9c0 	call	1802f9c <lcd_handle_escape>

        sp->esccount = -1;
 180336c:	e0fffc17 	ldw	r3,-16(fp)
 1803370:	00bfffc4 	movi	r2,-1
 1803374:	18800905 	stb	r2,36(r3)

      /* Single character escape sequences can end with any character
       * Multi character escape sequences start with '[' and contain
       * digits and semicolons before terminating
       */
      if ((esccount == 0 && c != '[') ||
 1803378:	00006c06 	br	180352c <altera_avalon_lcd_16207_write+0x2c0>

        lcd_handle_escape(sp, c);

        sp->esccount = -1;
      }
      else if (sp->esccount < sizeof(sp->escape)-1)
 180337c:	e0bffc17 	ldw	r2,-16(fp)
 1803380:	10800903 	ldbu	r2,36(r2)
 1803384:	10803fcc 	andi	r2,r2,255
 1803388:	108001e8 	cmpgeui	r2,r2,7
 180338c:	1000671e 	bne	r2,zero,180352c <altera_avalon_lcd_16207_write+0x2c0>
      {
        sp->escape[esccount] = c;
 1803390:	e0fff717 	ldw	r3,-36(fp)
 1803394:	e0bffc17 	ldw	r2,-16(fp)
 1803398:	1885883a 	add	r2,r3,r2
 180339c:	10c00a04 	addi	r3,r2,40
 18033a0:	e0bff803 	ldbu	r2,-32(fp)
 18033a4:	18800005 	stb	r2,0(r3)
        sp->esccount++;
 18033a8:	e0bffc17 	ldw	r2,-16(fp)
 18033ac:	10800903 	ldbu	r2,36(r2)
 18033b0:	10800044 	addi	r2,r2,1
 18033b4:	1007883a 	mov	r3,r2
 18033b8:	e0bffc17 	ldw	r2,-16(fp)
 18033bc:	10c00905 	stb	r3,36(r2)
 18033c0:	00005a06 	br	180352c <altera_avalon_lcd_16207_write+0x2c0>
      }
    }
    else if (c == 27) /* ESC */
 18033c4:	e0bff807 	ldb	r2,-32(fp)
 18033c8:	108006d8 	cmpnei	r2,r2,27
 18033cc:	1000031e 	bne	r2,zero,18033dc <altera_avalon_lcd_16207_write+0x170>
    {
      sp->esccount = 0;
 18033d0:	e0bffc17 	ldw	r2,-16(fp)
 18033d4:	10000905 	stb	zero,36(r2)
 18033d8:	00005406 	br	180352c <altera_avalon_lcd_16207_write+0x2c0>
    }
    else if (c == '\r')
 18033dc:	e0bff807 	ldb	r2,-32(fp)
 18033e0:	10800358 	cmpnei	r2,r2,13
 18033e4:	1000031e 	bne	r2,zero,18033f4 <altera_avalon_lcd_16207_write+0x188>
    {
      sp->x = 0;
 18033e8:	e0bffc17 	ldw	r2,-16(fp)
 18033ec:	10000845 	stb	zero,33(r2)
 18033f0:	00004e06 	br	180352c <altera_avalon_lcd_16207_write+0x2c0>
    }
    else if (c == '\n')
 18033f4:	e0bff807 	ldb	r2,-32(fp)
 18033f8:	10800298 	cmpnei	r2,r2,10
 18033fc:	1000101e 	bne	r2,zero,1803440 <altera_avalon_lcd_16207_write+0x1d4>
    {
      sp->x = 0;
 1803400:	e0bffc17 	ldw	r2,-16(fp)
 1803404:	10000845 	stb	zero,33(r2)
      sp->y++;
 1803408:	e0bffc17 	ldw	r2,-16(fp)
 180340c:	10800883 	ldbu	r2,34(r2)
 1803410:	10800044 	addi	r2,r2,1
 1803414:	1007883a 	mov	r3,r2
 1803418:	e0bffc17 	ldw	r2,-16(fp)
 180341c:	10c00885 	stb	r3,34(r2)

      /* Let the cursor sit at X=0, Y=HEIGHT without scrolling so the user
       * can print two lines of data without losing one.
       */
      if (sp->y > ALT_LCD_HEIGHT)
 1803420:	e0bffc17 	ldw	r2,-16(fp)
 1803424:	10800883 	ldbu	r2,34(r2)
 1803428:	10803fcc 	andi	r2,r2,255
 180342c:	108000f0 	cmpltui	r2,r2,3
 1803430:	10003e1e 	bne	r2,zero,180352c <altera_avalon_lcd_16207_write+0x2c0>
        lcd_scroll_up(sp);
 1803434:	e13ffc17 	ldw	r4,-16(fp)
 1803438:	1802ed40 	call	1802ed4 <lcd_scroll_up>
 180343c:	00003b06 	br	180352c <altera_avalon_lcd_16207_write+0x2c0>
    }
    else if (c == '\b')
 1803440:	e0bff807 	ldb	r2,-32(fp)
 1803444:	10800218 	cmpnei	r2,r2,8
 1803448:	10000c1e 	bne	r2,zero,180347c <altera_avalon_lcd_16207_write+0x210>
    {
      if (sp->x > 0)
 180344c:	e0bffc17 	ldw	r2,-16(fp)
 1803450:	10800843 	ldbu	r2,33(r2)
 1803454:	10803fcc 	andi	r2,r2,255
 1803458:	1005003a 	cmpeq	r2,r2,zero
 180345c:	1000331e 	bne	r2,zero,180352c <altera_avalon_lcd_16207_write+0x2c0>
        sp->x--;
 1803460:	e0bffc17 	ldw	r2,-16(fp)
 1803464:	10800843 	ldbu	r2,33(r2)
 1803468:	10bfffc4 	addi	r2,r2,-1
 180346c:	1007883a 	mov	r3,r2
 1803470:	e0bffc17 	ldw	r2,-16(fp)
 1803474:	10c00845 	stb	r3,33(r2)
 1803478:	00002c06 	br	180352c <altera_avalon_lcd_16207_write+0x2c0>
    }
    else if (isprint(c))
 180347c:	e0bff807 	ldb	r2,-32(fp)
 1803480:	1007883a 	mov	r3,r2
 1803484:	00806074 	movhi	r2,385
 1803488:	10a08a04 	addi	r2,r2,-32216
 180348c:	10800017 	ldw	r2,0(r2)
 1803490:	1885883a 	add	r2,r3,r2
 1803494:	10800003 	ldbu	r2,0(r2)
 1803498:	10803fcc 	andi	r2,r2,255
 180349c:	1080201c 	xori	r2,r2,128
 18034a0:	10bfe004 	addi	r2,r2,-128
 18034a4:	108025cc 	andi	r2,r2,151
 18034a8:	1005003a 	cmpeq	r2,r2,zero
 18034ac:	10001f1e 	bne	r2,zero,180352c <altera_avalon_lcd_16207_write+0x2c0>
    {
      /* If we didn't scroll on the last linefeed then we might need to do
       * it now. */
      if (sp->y >= ALT_LCD_HEIGHT)
 18034b0:	e0bffc17 	ldw	r2,-16(fp)
 18034b4:	10800883 	ldbu	r2,34(r2)
 18034b8:	10803fcc 	andi	r2,r2,255
 18034bc:	108000b0 	cmpltui	r2,r2,2
 18034c0:	1000021e 	bne	r2,zero,18034cc <altera_avalon_lcd_16207_write+0x260>
        lcd_scroll_up(sp);
 18034c4:	e13ffc17 	ldw	r4,-16(fp)
 18034c8:	1802ed40 	call	1802ed4 <lcd_scroll_up>

      if (sp->x < ALT_LCD_VIRTUAL_WIDTH)
 18034cc:	e0bffc17 	ldw	r2,-16(fp)
 18034d0:	10800843 	ldbu	r2,33(r2)
 18034d4:	10803fcc 	andi	r2,r2,255
 18034d8:	10801428 	cmpgeui	r2,r2,80
 18034dc:	10000d1e 	bne	r2,zero,1803514 <altera_avalon_lcd_16207_write+0x2a8>
        sp->line[sp->y].data[sp->x] = c;
 18034e0:	e0bffc17 	ldw	r2,-16(fp)
 18034e4:	10800883 	ldbu	r2,34(r2)
 18034e8:	11003fcc 	andi	r4,r2,255
 18034ec:	e0bffc17 	ldw	r2,-16(fp)
 18034f0:	10800843 	ldbu	r2,33(r2)
 18034f4:	11403fcc 	andi	r5,r2,255
 18034f8:	e0fffc17 	ldw	r3,-16(fp)
 18034fc:	208018e4 	muli	r2,r4,99
 1803500:	10c5883a 	add	r2,r2,r3
 1803504:	1145883a 	add	r2,r2,r5
 1803508:	10c01004 	addi	r3,r2,64
 180350c:	e0bff803 	ldbu	r2,-32(fp)
 1803510:	18800005 	stb	r2,0(r3)

      sp->x++;
 1803514:	e0bffc17 	ldw	r2,-16(fp)
 1803518:	10800843 	ldbu	r2,33(r2)
 180351c:	10800044 	addi	r2,r2,1
 1803520:	1007883a 	mov	r3,r2
 1803524:	e0bffc17 	ldw	r2,-16(fp)
 1803528:	10c00845 	stb	r3,33(r2)

  /* Tell the routine which is called off the timer interrupt that the
   * foreground routines are active so it must not repaint the display. */
  sp->active = 1;

  for ( ; ptr < end ; ptr++)
 180352c:	e0bffd17 	ldw	r2,-12(fp)
 1803530:	10800044 	addi	r2,r2,1
 1803534:	e0bffd15 	stw	r2,-12(fp)
 1803538:	e0fffd17 	ldw	r3,-12(fp)
 180353c:	e0bffb17 	ldw	r2,-20(fp)
 1803540:	18bf5b36 	bltu	r3,r2,18032b0 <altera_avalon_lcd_16207_write+0x44>
      sp->x++;
    }
  }

  /* Recalculate the scrolling parameters */
  widthmax = ALT_LCD_WIDTH;
 1803544:	00800404 	movi	r2,16
 1803548:	e0bff915 	stw	r2,-28(fp)
  for (y = 0 ; y < ALT_LCD_HEIGHT ; y++)
 180354c:	e03ffa15 	stw	zero,-24(fp)
 1803550:	00003606 	br	180362c <altera_avalon_lcd_16207_write+0x3c0>
  {
    int width;
    for (width = ALT_LCD_VIRTUAL_WIDTH ; width > 0 ; width--)
 1803554:	00801404 	movi	r2,80
 1803558:	e0bff615 	stw	r2,-40(fp)
 180355c:	00001106 	br	18035a4 <altera_avalon_lcd_16207_write+0x338>
      if (sp->line[y].data[width-1] != ' ')
 1803560:	e13ffa17 	ldw	r4,-24(fp)
 1803564:	e0bff617 	ldw	r2,-40(fp)
 1803568:	117fffc4 	addi	r5,r2,-1
 180356c:	e0fffc17 	ldw	r3,-16(fp)
 1803570:	208018e4 	muli	r2,r4,99
 1803574:	10c5883a 	add	r2,r2,r3
 1803578:	1145883a 	add	r2,r2,r5
 180357c:	10801004 	addi	r2,r2,64
 1803580:	10800003 	ldbu	r2,0(r2)
 1803584:	10803fcc 	andi	r2,r2,255
 1803588:	1080201c 	xori	r2,r2,128
 180358c:	10bfe004 	addi	r2,r2,-128
 1803590:	10800818 	cmpnei	r2,r2,32
 1803594:	1000061e 	bne	r2,zero,18035b0 <altera_avalon_lcd_16207_write+0x344>
  /* Recalculate the scrolling parameters */
  widthmax = ALT_LCD_WIDTH;
  for (y = 0 ; y < ALT_LCD_HEIGHT ; y++)
  {
    int width;
    for (width = ALT_LCD_VIRTUAL_WIDTH ; width > 0 ; width--)
 1803598:	e0bff617 	ldw	r2,-40(fp)
 180359c:	10bfffc4 	addi	r2,r2,-1
 18035a0:	e0bff615 	stw	r2,-40(fp)
 18035a4:	e0bff617 	ldw	r2,-40(fp)
 18035a8:	10800048 	cmpgei	r2,r2,1
 18035ac:	103fec1e 	bne	r2,zero,1803560 <altera_avalon_lcd_16207_write+0x2f4>

    /* The minimum width is the size of the LCD panel.  If the real width
     * is long enough to require scrolling then add an extra space so the
     * end of the message doesn't run into the beginning of it.
     */
    if (width <= ALT_LCD_WIDTH)
 18035b0:	e0bff617 	ldw	r2,-40(fp)
 18035b4:	10800448 	cmpgei	r2,r2,17
 18035b8:	1000031e 	bne	r2,zero,18035c8 <altera_avalon_lcd_16207_write+0x35c>
      width = ALT_LCD_WIDTH;
 18035bc:	00800404 	movi	r2,16
 18035c0:	e0bff615 	stw	r2,-40(fp)
 18035c4:	00000306 	br	18035d4 <altera_avalon_lcd_16207_write+0x368>
    else
      width++;
 18035c8:	e0bff617 	ldw	r2,-40(fp)
 18035cc:	10800044 	addi	r2,r2,1
 18035d0:	e0bff615 	stw	r2,-40(fp)

    sp->line[y].width = width;
 18035d4:	e13ffa17 	ldw	r4,-24(fp)
 18035d8:	e0bff617 	ldw	r2,-40(fp)
 18035dc:	100b883a 	mov	r5,r2
 18035e0:	e0fffc17 	ldw	r3,-16(fp)
 18035e4:	208018e4 	muli	r2,r4,99
 18035e8:	10c5883a 	add	r2,r2,r3
 18035ec:	10802404 	addi	r2,r2,144
 18035f0:	11400045 	stb	r5,1(r2)
    if (widthmax < width)
 18035f4:	e0fff917 	ldw	r3,-28(fp)
 18035f8:	e0bff617 	ldw	r2,-40(fp)
 18035fc:	1880020e 	bge	r3,r2,1803608 <altera_avalon_lcd_16207_write+0x39c>
      widthmax = width;
 1803600:	e0bff617 	ldw	r2,-40(fp)
 1803604:	e0bff915 	stw	r2,-28(fp)
    sp->line[y].speed = 0; /* By default lines don't scroll */
 1803608:	e0bffa17 	ldw	r2,-24(fp)
 180360c:	e0fffc17 	ldw	r3,-16(fp)
 1803610:	108018e4 	muli	r2,r2,99
 1803614:	10c5883a 	add	r2,r2,r3
 1803618:	10802404 	addi	r2,r2,144
 180361c:	10000085 	stb	zero,2(r2)
    }
  }

  /* Recalculate the scrolling parameters */
  widthmax = ALT_LCD_WIDTH;
  for (y = 0 ; y < ALT_LCD_HEIGHT ; y++)
 1803620:	e0bffa17 	ldw	r2,-24(fp)
 1803624:	10800044 	addi	r2,r2,1
 1803628:	e0bffa15 	stw	r2,-24(fp)
 180362c:	e0bffa17 	ldw	r2,-24(fp)
 1803630:	10800090 	cmplti	r2,r2,2
 1803634:	103fc71e 	bne	r2,zero,1803554 <altera_avalon_lcd_16207_write+0x2e8>
    if (widthmax < width)
      widthmax = width;
    sp->line[y].speed = 0; /* By default lines don't scroll */
  }

  if (widthmax <= ALT_LCD_WIDTH)
 1803638:	e0bff917 	ldw	r2,-28(fp)
 180363c:	10800448 	cmpgei	r2,r2,17
 1803640:	1000031e 	bne	r2,zero,1803650 <altera_avalon_lcd_16207_write+0x3e4>
    sp->scrollmax = 0;
 1803644:	e0bffc17 	ldw	r2,-16(fp)
 1803648:	10000985 	stb	zero,38(r2)
 180364c:	00002d06 	br	1803704 <altera_avalon_lcd_16207_write+0x498>
  else
  {
    widthmax *= 2;
 1803650:	e0bff917 	ldw	r2,-28(fp)
 1803654:	1085883a 	add	r2,r2,r2
 1803658:	e0bff915 	stw	r2,-28(fp)
    sp->scrollmax = widthmax;
 180365c:	e0bff917 	ldw	r2,-28(fp)
 1803660:	1007883a 	mov	r3,r2
 1803664:	e0bffc17 	ldw	r2,-16(fp)
 1803668:	10c00985 	stb	r3,38(r2)

    /* Now calculate how fast each of the other lines should go */
    for (y = 0 ; y < ALT_LCD_HEIGHT ; y++)
 180366c:	e03ffa15 	stw	zero,-24(fp)
 1803670:	00002106 	br	18036f8 <altera_avalon_lcd_16207_write+0x48c>
      if (sp->line[y].width > ALT_LCD_WIDTH)
 1803674:	e0bffa17 	ldw	r2,-24(fp)
 1803678:	e0fffc17 	ldw	r3,-16(fp)
 180367c:	108018e4 	muli	r2,r2,99
 1803680:	10c5883a 	add	r2,r2,r3
 1803684:	10802404 	addi	r2,r2,144
 1803688:	10800043 	ldbu	r2,1(r2)
 180368c:	10803fcc 	andi	r2,r2,255
 1803690:	1080201c 	xori	r2,r2,128
 1803694:	10bfe004 	addi	r2,r2,-128
 1803698:	10800450 	cmplti	r2,r2,17
 180369c:	1000131e 	bne	r2,zero,18036ec <altera_avalon_lcd_16207_write+0x480>
         */
#if 1
        /* This option makes all the lines scroll round at different speeds
         * which are chosen so that all the scrolls finish at the same time.
         */
        sp->line[y].speed = 256 * sp->line[y].width / widthmax;
 18036a0:	e17ffa17 	ldw	r5,-24(fp)
 18036a4:	e0bffa17 	ldw	r2,-24(fp)
 18036a8:	e0fffc17 	ldw	r3,-16(fp)
 18036ac:	108018e4 	muli	r2,r2,99
 18036b0:	10c5883a 	add	r2,r2,r3
 18036b4:	10802404 	addi	r2,r2,144
 18036b8:	10800043 	ldbu	r2,1(r2)
 18036bc:	10803fcc 	andi	r2,r2,255
 18036c0:	1080201c 	xori	r2,r2,128
 18036c4:	10bfe004 	addi	r2,r2,-128
 18036c8:	1006923a 	slli	r3,r2,8
 18036cc:	e0bff917 	ldw	r2,-28(fp)
 18036d0:	1885283a 	div	r2,r3,r2
 18036d4:	1009883a 	mov	r4,r2
 18036d8:	e0fffc17 	ldw	r3,-16(fp)
 18036dc:	288018e4 	muli	r2,r5,99
 18036e0:	10c5883a 	add	r2,r2,r3
 18036e4:	10802404 	addi	r2,r2,144
 18036e8:	11000085 	stb	r4,2(r2)
  {
    widthmax *= 2;
    sp->scrollmax = widthmax;

    /* Now calculate how fast each of the other lines should go */
    for (y = 0 ; y < ALT_LCD_HEIGHT ; y++)
 18036ec:	e0bffa17 	ldw	r2,-24(fp)
 18036f0:	10800044 	addi	r2,r2,1
 18036f4:	e0bffa15 	stw	r2,-24(fp)
 18036f8:	e0bffa17 	ldw	r2,-24(fp)
 18036fc:	10800090 	cmplti	r2,r2,2
 1803700:	103fdc1e 	bne	r2,zero,1803674 <altera_avalon_lcd_16207_write+0x408>
   * (because active was set when the timer interrupt occurred).  If there
   * has been a missed repaint then paint again.  And again.  etc.
   */
  for ( ; ; )
  {
    int old_scrollpos = sp->scrollpos;
 1803704:	e0bffc17 	ldw	r2,-16(fp)
 1803708:	10800943 	ldbu	r2,37(r2)
 180370c:	10803fcc 	andi	r2,r2,255
 1803710:	1080201c 	xori	r2,r2,128
 1803714:	10bfe004 	addi	r2,r2,-128
 1803718:	e0bff515 	stw	r2,-44(fp)

    lcd_repaint_screen(sp);
 180371c:	e13ffc17 	ldw	r4,-16(fp)
 1803720:	1802ce80 	call	1802ce8 <lcd_repaint_screen>

    /* Let the timer routines repaint the display again */
    sp->active = 0;
 1803724:	e0bffc17 	ldw	r2,-16(fp)
 1803728:	100009c5 	stb	zero,39(r2)

    /* Have the timer routines tried to scroll while we were painting?
     * If not then we can exit */
    if (sp->scrollpos == old_scrollpos)
 180372c:	e0bffc17 	ldw	r2,-16(fp)
 1803730:	10800943 	ldbu	r2,37(r2)
 1803734:	10c03fcc 	andi	r3,r2,255
 1803738:	18c0201c 	xori	r3,r3,128
 180373c:	18ffe004 	addi	r3,r3,-128
 1803740:	e0bff517 	ldw	r2,-44(fp)
 1803744:	18800426 	beq	r3,r2,1803758 <altera_avalon_lcd_16207_write+0x4ec>
      break;

    /* We need to repaint again since the display scrolled while we were
     * painting last time */
    sp->active = 1;
 1803748:	e0fffc17 	ldw	r3,-16(fp)
 180374c:	00800044 	movi	r2,1
 1803750:	188009c5 	stb	r2,39(r3)
  }
 1803754:	003feb06 	br	1803704 <altera_avalon_lcd_16207_write+0x498>
   * semaphore so that other threads can access the buffer.
   */

  ALT_SEM_POST (sp->write_lock);

  return len;
 1803758:	e0bffe17 	ldw	r2,-8(fp)
}
 180375c:	e037883a 	mov	sp,fp
 1803760:	dfc00117 	ldw	ra,4(sp)
 1803764:	df000017 	ldw	fp,0(sp)
 1803768:	dec00204 	addi	sp,sp,8
 180376c:	f800283a 	ret

01803770 <alt_lcd_16207_timeout>:
/*
 * Timeout routine is called every second
 */

static alt_u32 alt_lcd_16207_timeout(void* context) 
{
 1803770:	defffc04 	addi	sp,sp,-16
 1803774:	dfc00315 	stw	ra,12(sp)
 1803778:	df000215 	stw	fp,8(sp)
 180377c:	df000204 	addi	fp,sp,8
 1803780:	e13fff15 	stw	r4,-4(fp)
  altera_avalon_lcd_16207_state* sp = (altera_avalon_lcd_16207_state*)context;
 1803784:	e0bfff17 	ldw	r2,-4(fp)
 1803788:	e0bffe15 	stw	r2,-8(fp)

  /* Update the scrolling position */
  if (sp->scrollpos + 1 >= sp->scrollmax)
 180378c:	e0bffe17 	ldw	r2,-8(fp)
 1803790:	10800943 	ldbu	r2,37(r2)
 1803794:	10803fcc 	andi	r2,r2,255
 1803798:	1080201c 	xori	r2,r2,128
 180379c:	10bfe004 	addi	r2,r2,-128
 18037a0:	10c00044 	addi	r3,r2,1
 18037a4:	e0bffe17 	ldw	r2,-8(fp)
 18037a8:	10800983 	ldbu	r2,38(r2)
 18037ac:	10803fcc 	andi	r2,r2,255
 18037b0:	1080201c 	xori	r2,r2,128
 18037b4:	10bfe004 	addi	r2,r2,-128
 18037b8:	18800316 	blt	r3,r2,18037c8 <alt_lcd_16207_timeout+0x58>
    sp->scrollpos = 0;
 18037bc:	e0bffe17 	ldw	r2,-8(fp)
 18037c0:	10000945 	stb	zero,37(r2)
 18037c4:	00000606 	br	18037e0 <alt_lcd_16207_timeout+0x70>
  else
    sp->scrollpos = sp->scrollpos + 1;
 18037c8:	e0bffe17 	ldw	r2,-8(fp)
 18037cc:	10800943 	ldbu	r2,37(r2)
 18037d0:	10800044 	addi	r2,r2,1
 18037d4:	1007883a 	mov	r3,r2
 18037d8:	e0bffe17 	ldw	r2,-8(fp)
 18037dc:	10c00945 	stb	r3,37(r2)

  /* Repaint the panel unless the foreground will do it again soon */
  if (sp->scrollmax > 0 && !sp->active)
 18037e0:	e0bffe17 	ldw	r2,-8(fp)
 18037e4:	10800983 	ldbu	r2,38(r2)
 18037e8:	10803fcc 	andi	r2,r2,255
 18037ec:	1080201c 	xori	r2,r2,128
 18037f0:	10bfe004 	addi	r2,r2,-128
 18037f4:	10800050 	cmplti	r2,r2,1
 18037f8:	1000091e 	bne	r2,zero,1803820 <alt_lcd_16207_timeout+0xb0>
 18037fc:	e0bffe17 	ldw	r2,-8(fp)
 1803800:	108009c3 	ldbu	r2,39(r2)
 1803804:	10803fcc 	andi	r2,r2,255
 1803808:	1080201c 	xori	r2,r2,128
 180380c:	10bfe004 	addi	r2,r2,-128
 1803810:	1004c03a 	cmpne	r2,r2,zero
 1803814:	1000021e 	bne	r2,zero,1803820 <alt_lcd_16207_timeout+0xb0>
    lcd_repaint_screen(sp);
 1803818:	e13ffe17 	ldw	r4,-8(fp)
 180381c:	1802ce80 	call	1802ce8 <lcd_repaint_screen>

  return sp->period;
 1803820:	e0bffe17 	ldw	r2,-8(fp)
 1803824:	10800717 	ldw	r2,28(r2)
}
 1803828:	e037883a 	mov	sp,fp
 180382c:	dfc00117 	ldw	ra,4(sp)
 1803830:	df000017 	ldw	fp,0(sp)
 1803834:	dec00204 	addi	sp,sp,8
 1803838:	f800283a 	ret

0180383c <altera_avalon_lcd_16207_init>:

/*
 * Called at boot time to initialise the LCD driver
 */
void altera_avalon_lcd_16207_init(altera_avalon_lcd_16207_state* sp)
{
 180383c:	defffc04 	addi	sp,sp,-16
 1803840:	dfc00315 	stw	ra,12(sp)
 1803844:	df000215 	stw	fp,8(sp)
 1803848:	df000204 	addi	fp,sp,8
 180384c:	e13fff15 	stw	r4,-4(fp)
  unsigned int base = sp->base;
 1803850:	e0bfff17 	ldw	r2,-4(fp)
 1803854:	10800017 	ldw	r2,0(r2)
 1803858:	e0bffe15 	stw	r2,-8(fp)

  /* Mark the device as functional */
  sp->broken = 0;
 180385c:	e0bfff17 	ldw	r2,-4(fp)
 1803860:	10000805 	stb	zero,32(r2)
   * the BUSY bit in the status register doesn't work until the display
   * has been reset three times.
   */

  /* Wait for 15 ms then reset */
  usleep(15000);
 1803864:	010ea604 	movi	r4,15000
 1803868:	18053500 	call	1805350 <usleep>
  IOWR_ALTERA_AVALON_LCD_16207_COMMAND(base, LCD_CMD_FUNCTION_SET | LCD_CMD_8BIT);
 180386c:	e0bffe17 	ldw	r2,-8(fp)
 1803870:	1007883a 	mov	r3,r2
 1803874:	00800c04 	movi	r2,48
 1803878:	18800035 	stwio	r2,0(r3)

  /* Wait for another 4.1ms and reset again */
  usleep(4100);  
 180387c:	01040104 	movi	r4,4100
 1803880:	18053500 	call	1805350 <usleep>
  IOWR_ALTERA_AVALON_LCD_16207_COMMAND(base, LCD_CMD_FUNCTION_SET | LCD_CMD_8BIT);
 1803884:	e0bffe17 	ldw	r2,-8(fp)
 1803888:	1007883a 	mov	r3,r2
 180388c:	00800c04 	movi	r2,48
 1803890:	18800035 	stwio	r2,0(r3)

  /* Wait a further 1 ms and reset a third time */
  usleep(1000);
 1803894:	0100fa04 	movi	r4,1000
 1803898:	18053500 	call	1805350 <usleep>
  IOWR_ALTERA_AVALON_LCD_16207_COMMAND(base, LCD_CMD_FUNCTION_SET | LCD_CMD_8BIT);
 180389c:	e0bffe17 	ldw	r2,-8(fp)
 18038a0:	1007883a 	mov	r3,r2
 18038a4:	00800c04 	movi	r2,48
 18038a8:	18800035 	stwio	r2,0(r3)

  /* Setup interface parameters: 8 bit bus, 2 rows, 5x7 font */
  lcd_write_command(sp, LCD_CMD_FUNCTION_SET | LCD_CMD_8BIT | LCD_CMD_TWO_LINE);
 18038ac:	e13fff17 	ldw	r4,-4(fp)
 18038b0:	01400e04 	movi	r5,56
 18038b4:	1802a980 	call	1802a98 <lcd_write_command>
  
  /* Turn display off */
  lcd_write_command(sp, LCD_CMD_ONOFF);
 18038b8:	e13fff17 	ldw	r4,-4(fp)
 18038bc:	01400204 	movi	r5,8
 18038c0:	1802a980 	call	1802a98 <lcd_write_command>

  /* Clear display */
  lcd_clear_screen(sp);
 18038c4:	e13fff17 	ldw	r4,-4(fp)
 18038c8:	1802c240 	call	1802c24 <lcd_clear_screen>
  
  /* Set mode: increment after writing, don't shift display */
  lcd_write_command(sp, LCD_CMD_MODES | LCD_CMD_MODE_INC);
 18038cc:	e13fff17 	ldw	r4,-4(fp)
 18038d0:	01400184 	movi	r5,6
 18038d4:	1802a980 	call	1802a98 <lcd_write_command>

  /* Turn display on */
  lcd_write_command(sp, LCD_CMD_ONOFF | LCD_CMD_ENABLE_DISP);
 18038d8:	e13fff17 	ldw	r4,-4(fp)
 18038dc:	01400304 	movi	r5,12
 18038e0:	1802a980 	call	1802a98 <lcd_write_command>

  sp->esccount = -1;
 18038e4:	e0ffff17 	ldw	r3,-4(fp)
 18038e8:	00bfffc4 	movi	r2,-1
 18038ec:	18800905 	stb	r2,36(r3)
  memset(sp->escape, 0, sizeof(sp->escape));
 18038f0:	e0bfff17 	ldw	r2,-4(fp)
 18038f4:	11000a04 	addi	r4,r2,40
 18038f8:	000b883a 	mov	r5,zero
 18038fc:	01800204 	movi	r6,8
 1803900:	18000c00 	call	18000c0 <memset>

  sp->scrollpos = 0;
 1803904:	e0bfff17 	ldw	r2,-4(fp)
 1803908:	10000945 	stb	zero,37(r2)
  sp->scrollmax = 0;
 180390c:	e0bfff17 	ldw	r2,-4(fp)
 1803910:	10000985 	stb	zero,38(r2)
  sp->active = 0;
 1803914:	e0bfff17 	ldw	r2,-4(fp)
 1803918:	100009c5 	stb	zero,39(r2)
 180391c:	00806074 	movhi	r2,385
 1803920:	10a09104 	addi	r2,r2,-32188
 1803924:	10800017 	ldw	r2,0(r2)
 1803928:	1007883a 	mov	r3,r2

  sp->period = alt_ticks_per_second() / 10; /* Call every 100ms */
 180392c:	00800284 	movi	r2,10
 1803930:	1885203a 	divu	r2,r3,r2
 1803934:	1007883a 	mov	r3,r2
 1803938:	e0bfff17 	ldw	r2,-4(fp)
 180393c:	10c00715 	stw	r3,28(r2)

  alt_alarm_start(&sp->alarm, sp->period, &alt_lcd_16207_timeout, sp);
 1803940:	e0bfff17 	ldw	r2,-4(fp)
 1803944:	11000104 	addi	r4,r2,4
 1803948:	e0bfff17 	ldw	r2,-4(fp)
 180394c:	10800717 	ldw	r2,28(r2)
 1803950:	100b883a 	mov	r5,r2
 1803954:	01806034 	movhi	r6,384
 1803958:	318ddc04 	addi	r6,r6,14192
 180395c:	e1ffff17 	ldw	r7,-4(fp)
 1803960:	18044800 	call	1804480 <alt_alarm_start>
}
 1803964:	e037883a 	mov	sp,fp
 1803968:	dfc00117 	ldw	ra,4(sp)
 180396c:	df000017 	ldw	fp,0(sp)
 1803970:	dec00204 	addi	sp,sp,8
 1803974:	f800283a 	ret

01803978 <altera_avalon_lcd_16207_write_fd>:
extern int altera_avalon_lcd_16207_write(altera_avalon_lcd_16207_state* sp,
  const char* ptr, int count, int flags);

int 
altera_avalon_lcd_16207_write_fd(alt_fd* fd, const char* buffer, int space)
{
 1803978:	defffa04 	addi	sp,sp,-24
 180397c:	dfc00515 	stw	ra,20(sp)
 1803980:	df000415 	stw	fp,16(sp)
 1803984:	df000404 	addi	fp,sp,16
 1803988:	e13ffd15 	stw	r4,-12(fp)
 180398c:	e17ffe15 	stw	r5,-8(fp)
 1803990:	e1bfff15 	stw	r6,-4(fp)
    altera_avalon_lcd_16207_dev* dev = (altera_avalon_lcd_16207_dev*) fd->dev; 
 1803994:	e0bffd17 	ldw	r2,-12(fp)
 1803998:	10800017 	ldw	r2,0(r2)
 180399c:	e0bffc15 	stw	r2,-16(fp)

    return altera_avalon_lcd_16207_write(&dev->state, buffer, space,
 18039a0:	e0bffc17 	ldw	r2,-16(fp)
 18039a4:	11000a04 	addi	r4,r2,40
 18039a8:	e0bffd17 	ldw	r2,-12(fp)
 18039ac:	11c00217 	ldw	r7,8(r2)
 18039b0:	e17ffe17 	ldw	r5,-8(fp)
 18039b4:	e1bfff17 	ldw	r6,-4(fp)
 18039b8:	180326c0 	call	180326c <altera_avalon_lcd_16207_write>
      fd->fd_flags);
}
 18039bc:	e037883a 	mov	sp,fp
 18039c0:	dfc00117 	ldw	ra,4(sp)
 18039c4:	df000017 	ldw	fp,0(sp)
 18039c8:	dec00204 	addi	sp,sp,8
 18039cc:	f800283a 	ret

018039d0 <alt_avalon_timer_sc_irq>:
#ifdef ALT_ENHANCED_INTERRUPT_API_PRESENT
static void alt_avalon_timer_sc_irq (void* base)
#else
static void alt_avalon_timer_sc_irq (void* base, alt_u32 id)
#endif
{
 18039d0:	defffa04 	addi	sp,sp,-24
 18039d4:	dfc00515 	stw	ra,20(sp)
 18039d8:	df000415 	stw	fp,16(sp)
 18039dc:	df000404 	addi	fp,sp,16
 18039e0:	e13fff15 	stw	r4,-4(fp)
  alt_irq_context cpu_sr;
  
  /* clear the interrupt */
  IOWR_ALTERA_AVALON_TIMER_STATUS (base, 0);
 18039e4:	e0bfff17 	ldw	r2,-4(fp)
 18039e8:	10000035 	stwio	zero,0(r2)
  /* 
   * Dummy read to ensure IRQ is negated before the ISR returns.
   * The control register is read because reading the status
   * register has side-effects per the register map documentation.
   */
  IORD_ALTERA_AVALON_TIMER_CONTROL (base);
 18039ec:	e0bfff17 	ldw	r2,-4(fp)
 18039f0:	10800104 	addi	r2,r2,4
 18039f4:	10800037 	ldwio	r2,0(r2)
static ALT_INLINE alt_irq_context ALT_ALWAYS_INLINE 
       alt_irq_disable_all (void)
{
  alt_irq_context context;

  NIOS2_READ_STATUS (context);
 18039f8:	0005303a 	rdctl	r2,status
 18039fc:	e0bffd15 	stw	r2,-12(fp)

  NIOS2_WRITE_STATUS (context & ~NIOS2_STATUS_PIE_MSK);
 1803a00:	e0fffd17 	ldw	r3,-12(fp)
 1803a04:	00bfff84 	movi	r2,-2
 1803a08:	1884703a 	and	r2,r3,r2
 1803a0c:	1001703a 	wrctl	status,r2
  
  return context;
 1803a10:	e0bffd17 	ldw	r2,-12(fp)

  /* 
   * Notify the system of a clock tick. disable interrupts 
   * during this time to safely support ISR preemption
   */
  cpu_sr = alt_irq_disable_all();
 1803a14:	e0bffe15 	stw	r2,-8(fp)
  alt_tick ();
 1803a18:	18052440 	call	1805244 <alt_tick>
 1803a1c:	e0bffe17 	ldw	r2,-8(fp)
 1803a20:	e0bffc15 	stw	r2,-16(fp)
  status &= ~NIOS2_STATUS_PIE_MSK;
  status |= (context & NIOS2_STATUS_PIE_MSK);
  
  NIOS2_WRITE_STATUS (status);
#else
  NIOS2_WRITE_STATUS (context);
 1803a24:	e0bffc17 	ldw	r2,-16(fp)
 1803a28:	1001703a 	wrctl	status,r2
  alt_irq_enable_all(cpu_sr);
}
 1803a2c:	e037883a 	mov	sp,fp
 1803a30:	dfc00117 	ldw	ra,4(sp)
 1803a34:	df000017 	ldw	fp,0(sp)
 1803a38:	dec00204 	addi	sp,sp,8
 1803a3c:	f800283a 	ret

01803a40 <alt_avalon_timer_sc_init>:
 * auto-generated alt_sys_init() function.
 */

void alt_avalon_timer_sc_init (void* base, alt_u32 irq_controller_id, 
                                alt_u32 irq, alt_u32 freq)
{
 1803a40:	defff804 	addi	sp,sp,-32
 1803a44:	dfc00715 	stw	ra,28(sp)
 1803a48:	df000615 	stw	fp,24(sp)
 1803a4c:	df000604 	addi	fp,sp,24
 1803a50:	e13ffc15 	stw	r4,-16(fp)
 1803a54:	e17ffd15 	stw	r5,-12(fp)
 1803a58:	e1bffe15 	stw	r6,-8(fp)
 1803a5c:	e1ffff15 	stw	r7,-4(fp)
 1803a60:	e0bfff17 	ldw	r2,-4(fp)
 1803a64:	e0bffb15 	stw	r2,-20(fp)
 * in order to initialise the value of the clock frequency.
 */

static ALT_INLINE int ALT_ALWAYS_INLINE alt_sysclk_init (alt_u32 nticks)
{
  if (! _alt_tick_rate)
 1803a68:	00806074 	movhi	r2,385
 1803a6c:	10a09104 	addi	r2,r2,-32188
 1803a70:	10800017 	ldw	r2,0(r2)
 1803a74:	1004c03a 	cmpne	r2,r2,zero
 1803a78:	1000041e 	bne	r2,zero,1803a8c <alt_avalon_timer_sc_init+0x4c>
  {
    _alt_tick_rate = nticks;
 1803a7c:	00c06074 	movhi	r3,385
 1803a80:	18e09104 	addi	r3,r3,-32188
 1803a84:	e0bffb17 	ldw	r2,-20(fp)
 1803a88:	18800015 	stw	r2,0(r3)
  
  alt_sysclk_init (freq);
  
  /* set to free running mode */
  
  IOWR_ALTERA_AVALON_TIMER_CONTROL (base, 
 1803a8c:	e0bffc17 	ldw	r2,-16(fp)
 1803a90:	10800104 	addi	r2,r2,4
 1803a94:	1007883a 	mov	r3,r2
 1803a98:	008001c4 	movi	r2,7
 1803a9c:	18800035 	stwio	r2,0(r3)
            ALTERA_AVALON_TIMER_CONTROL_CONT_MSK |
            ALTERA_AVALON_TIMER_CONTROL_START_MSK);

  /* register the interrupt handler, and enable the interrupt */
#ifdef ALT_ENHANCED_INTERRUPT_API_PRESENT
  alt_ic_isr_register(irq_controller_id, irq, alt_avalon_timer_sc_irq, 
 1803aa0:	d8000015 	stw	zero,0(sp)
 1803aa4:	e13ffd17 	ldw	r4,-12(fp)
 1803aa8:	e17ffe17 	ldw	r5,-8(fp)
 1803aac:	01806034 	movhi	r6,384
 1803ab0:	318e7404 	addi	r6,r6,14800
 1803ab4:	e1fffc17 	ldw	r7,-16(fp)
 1803ab8:	1804a800 	call	1804a80 <alt_ic_isr_register>
                      base, NULL);
#else
  alt_irq_register (irq, base, alt_avalon_timer_sc_irq);
#endif  
}
 1803abc:	e037883a 	mov	sp,fp
 1803ac0:	dfc00117 	ldw	ra,4(sp)
 1803ac4:	df000017 	ldw	fp,0(sp)
 1803ac8:	dec00204 	addi	sp,sp,8
 1803acc:	f800283a 	ret

01803ad0 <altera_avalon_uart_read_fd>:
 *
 */

int 
altera_avalon_uart_read_fd(alt_fd* fd, char* buffer, int space)
{
 1803ad0:	defffa04 	addi	sp,sp,-24
 1803ad4:	dfc00515 	stw	ra,20(sp)
 1803ad8:	df000415 	stw	fp,16(sp)
 1803adc:	df000404 	addi	fp,sp,16
 1803ae0:	e13ffd15 	stw	r4,-12(fp)
 1803ae4:	e17ffe15 	stw	r5,-8(fp)
 1803ae8:	e1bfff15 	stw	r6,-4(fp)
    altera_avalon_uart_dev* dev = (altera_avalon_uart_dev*) fd->dev; 
 1803aec:	e0bffd17 	ldw	r2,-12(fp)
 1803af0:	10800017 	ldw	r2,0(r2)
 1803af4:	e0bffc15 	stw	r2,-16(fp)

    return altera_avalon_uart_read(&dev->state, buffer, space,
 1803af8:	e0bffc17 	ldw	r2,-16(fp)
 1803afc:	11000a04 	addi	r4,r2,40
 1803b00:	e0bffd17 	ldw	r2,-12(fp)
 1803b04:	11c00217 	ldw	r7,8(r2)
 1803b08:	e17ffe17 	ldw	r5,-8(fp)
 1803b0c:	e1bfff17 	ldw	r6,-4(fp)
 1803b10:	1803fc80 	call	1803fc8 <altera_avalon_uart_read>
      fd->fd_flags);
}
 1803b14:	e037883a 	mov	sp,fp
 1803b18:	dfc00117 	ldw	ra,4(sp)
 1803b1c:	df000017 	ldw	fp,0(sp)
 1803b20:	dec00204 	addi	sp,sp,8
 1803b24:	f800283a 	ret

01803b28 <altera_avalon_uart_write_fd>:

int 
altera_avalon_uart_write_fd(alt_fd* fd, const char* buffer, int space)
{
 1803b28:	defffa04 	addi	sp,sp,-24
 1803b2c:	dfc00515 	stw	ra,20(sp)
 1803b30:	df000415 	stw	fp,16(sp)
 1803b34:	df000404 	addi	fp,sp,16
 1803b38:	e13ffd15 	stw	r4,-12(fp)
 1803b3c:	e17ffe15 	stw	r5,-8(fp)
 1803b40:	e1bfff15 	stw	r6,-4(fp)
    altera_avalon_uart_dev* dev = (altera_avalon_uart_dev*) fd->dev; 
 1803b44:	e0bffd17 	ldw	r2,-12(fp)
 1803b48:	10800017 	ldw	r2,0(r2)
 1803b4c:	e0bffc15 	stw	r2,-16(fp)

    return altera_avalon_uart_write(&dev->state, buffer, space,
 1803b50:	e0bffc17 	ldw	r2,-16(fp)
 1803b54:	11000a04 	addi	r4,r2,40
 1803b58:	e0bffd17 	ldw	r2,-12(fp)
 1803b5c:	11c00217 	ldw	r7,8(r2)
 1803b60:	e17ffe17 	ldw	r5,-8(fp)
 1803b64:	e1bfff17 	ldw	r6,-4(fp)
 1803b68:	18042580 	call	1804258 <altera_avalon_uart_write>
      fd->fd_flags);
}
 1803b6c:	e037883a 	mov	sp,fp
 1803b70:	dfc00117 	ldw	ra,4(sp)
 1803b74:	df000017 	ldw	fp,0(sp)
 1803b78:	dec00204 	addi	sp,sp,8
 1803b7c:	f800283a 	ret

01803b80 <altera_avalon_uart_close_fd>:

#endif /* ALTERA_AVALON_UART_USE_IOCTL */

int 
altera_avalon_uart_close_fd(alt_fd* fd)
{
 1803b80:	defffc04 	addi	sp,sp,-16
 1803b84:	dfc00315 	stw	ra,12(sp)
 1803b88:	df000215 	stw	fp,8(sp)
 1803b8c:	df000204 	addi	fp,sp,8
 1803b90:	e13fff15 	stw	r4,-4(fp)
    altera_avalon_uart_dev* dev = (altera_avalon_uart_dev*) fd->dev; 
 1803b94:	e0bfff17 	ldw	r2,-4(fp)
 1803b98:	10800017 	ldw	r2,0(r2)
 1803b9c:	e0bffe15 	stw	r2,-8(fp)

    return altera_avalon_uart_close(&dev->state, fd->fd_flags);
 1803ba0:	e0bffe17 	ldw	r2,-8(fp)
 1803ba4:	11000a04 	addi	r4,r2,40
 1803ba8:	e0bfff17 	ldw	r2,-4(fp)
 1803bac:	11400217 	ldw	r5,8(r2)
 1803bb0:	1803f680 	call	1803f68 <altera_avalon_uart_close>
}
 1803bb4:	e037883a 	mov	sp,fp
 1803bb8:	dfc00117 	ldw	ra,4(sp)
 1803bbc:	df000017 	ldw	fp,0(sp)
 1803bc0:	dec00204 	addi	sp,sp,8
 1803bc4:	f800283a 	ret

01803bc8 <altera_avalon_uart_init>:
  alt_u32 status);

void 
altera_avalon_uart_init(altera_avalon_uart_state* sp, 
  alt_u32 irq_controller_id,  alt_u32 irq)
{
 1803bc8:	defff704 	addi	sp,sp,-36
 1803bcc:	dfc00815 	stw	ra,32(sp)
 1803bd0:	df000715 	stw	fp,28(sp)
 1803bd4:	df000704 	addi	fp,sp,28
 1803bd8:	e13ffc15 	stw	r4,-16(fp)
 1803bdc:	e17ffd15 	stw	r5,-12(fp)
 1803be0:	e1bffe15 	stw	r6,-8(fp)
  void* base = sp->base;
 1803be4:	e0bffc17 	ldw	r2,-16(fp)
 1803be8:	10800017 	ldw	r2,0(r2)
 1803bec:	e0bffb15 	stw	r2,-20(fp)
 * HAL.
 */

static ALT_INLINE int ALT_ALWAYS_INLINE alt_no_error (void)
{
  return 0;
 1803bf0:	0005883a 	mov	r2,zero
  /* 
   * Initialise the read and write flags and the semaphores used to 
   * protect access to the circular buffers when running in a multi-threaded
   * environment.
   */
  error = ALT_FLAG_CREATE (&sp->events, 0)    || 
 1803bf4:	1004c03a 	cmpne	r2,r2,zero
 1803bf8:	1000061e 	bne	r2,zero,1803c14 <altera_avalon_uart_init+0x4c>
 1803bfc:	0005883a 	mov	r2,zero
 1803c00:	1004c03a 	cmpne	r2,r2,zero
 1803c04:	1000031e 	bne	r2,zero,1803c14 <altera_avalon_uart_init+0x4c>
 1803c08:	0005883a 	mov	r2,zero
 1803c0c:	1005003a 	cmpeq	r2,r2,zero
 1803c10:	1000031e 	bne	r2,zero,1803c20 <altera_avalon_uart_init+0x58>
 1803c14:	00800044 	movi	r2,1
 1803c18:	e0bfff15 	stw	r2,-4(fp)
 1803c1c:	00000106 	br	1803c24 <altera_avalon_uart_init+0x5c>
 1803c20:	e03fff15 	stw	zero,-4(fp)
 1803c24:	e0bfff17 	ldw	r2,-4(fp)
 1803c28:	e0bffa15 	stw	r2,-24(fp)
          ALT_SEM_CREATE (&sp->read_lock, 1)  ||
          ALT_SEM_CREATE (&sp->write_lock, 1);

  if (!error)
 1803c2c:	e0bffa17 	ldw	r2,-24(fp)
 1803c30:	1004c03a 	cmpne	r2,r2,zero
 1803c34:	1000111e 	bne	r2,zero,1803c7c <altera_avalon_uart_init+0xb4>
  {
    /* enable interrupts at the device */
    sp->ctrl = ALTERA_AVALON_UART_CONTROL_RTS_MSK  |
 1803c38:	e0fffc17 	ldw	r3,-16(fp)
 1803c3c:	00832004 	movi	r2,3200
 1803c40:	18800115 	stw	r2,4(r3)
                ALTERA_AVALON_UART_CONTROL_RRDY_MSK |
                ALTERA_AVALON_UART_CONTROL_DCTS_MSK;

    IOWR_ALTERA_AVALON_UART_CONTROL(base, sp->ctrl); 
 1803c44:	e0bffb17 	ldw	r2,-20(fp)
 1803c48:	11000304 	addi	r4,r2,12
 1803c4c:	e0bffc17 	ldw	r2,-16(fp)
 1803c50:	10800117 	ldw	r2,4(r2)
 1803c54:	1007883a 	mov	r3,r2
 1803c58:	2005883a 	mov	r2,r4
 1803c5c:	10c00035 	stwio	r3,0(r2)
  
    /* register the interrupt handler */
#ifdef ALT_ENHANCED_INTERRUPT_API_PRESENT
    alt_ic_isr_register(irq_controller_id, irq, altera_avalon_uart_irq, sp, 
 1803c60:	d8000015 	stw	zero,0(sp)
 1803c64:	e13ffd17 	ldw	r4,-12(fp)
 1803c68:	e17ffe17 	ldw	r5,-8(fp)
 1803c6c:	01806034 	movhi	r6,384
 1803c70:	318f2404 	addi	r6,r6,15504
 1803c74:	e1fffc17 	ldw	r7,-16(fp)
 1803c78:	1804a800 	call	1804a80 <alt_ic_isr_register>
      0x0);
#else
    alt_irq_register (irq, sp, altera_avalon_uart_irq);
#endif  
  }
}
 1803c7c:	e037883a 	mov	sp,fp
 1803c80:	dfc00117 	ldw	ra,4(sp)
 1803c84:	df000017 	ldw	fp,0(sp)
 1803c88:	dec00204 	addi	sp,sp,8
 1803c8c:	f800283a 	ret

01803c90 <altera_avalon_uart_irq>:
#ifdef ALT_ENHANCED_INTERRUPT_API_PRESENT
static void altera_avalon_uart_irq(void* context)
#else
static void altera_avalon_uart_irq(void* context, alt_u32 id)
#endif
{
 1803c90:	defffa04 	addi	sp,sp,-24
 1803c94:	dfc00515 	stw	ra,20(sp)
 1803c98:	df000415 	stw	fp,16(sp)
 1803c9c:	df000404 	addi	fp,sp,16
 1803ca0:	e13fff15 	stw	r4,-4(fp)
  alt_u32 status;

  altera_avalon_uart_state* sp = (altera_avalon_uart_state*) context;
 1803ca4:	e0bfff17 	ldw	r2,-4(fp)
 1803ca8:	e0bffd15 	stw	r2,-12(fp)
  void* base               = sp->base;
 1803cac:	e0bffd17 	ldw	r2,-12(fp)
 1803cb0:	10800017 	ldw	r2,0(r2)
 1803cb4:	e0bffc15 	stw	r2,-16(fp)
  /*
   * Read the status register in order to determine the cause of the
   * interrupt.
   */

  status = IORD_ALTERA_AVALON_UART_STATUS(base);
 1803cb8:	e0bffc17 	ldw	r2,-16(fp)
 1803cbc:	10800204 	addi	r2,r2,8
 1803cc0:	10800037 	ldwio	r2,0(r2)
 1803cc4:	e0bffe15 	stw	r2,-8(fp)

  /* Clear any error flags set at the device */
  IOWR_ALTERA_AVALON_UART_STATUS(base, 0);
 1803cc8:	e0bffc17 	ldw	r2,-16(fp)
 1803ccc:	10800204 	addi	r2,r2,8
 1803cd0:	10000035 	stwio	zero,0(r2)

  /* Dummy read to ensure IRQ is negated before ISR returns */
  IORD_ALTERA_AVALON_UART_STATUS(base);
 1803cd4:	e0bffc17 	ldw	r2,-16(fp)
 1803cd8:	10800204 	addi	r2,r2,8
 1803cdc:	10800037 	ldwio	r2,0(r2)
  
  /* process a read irq */
  if (status & ALTERA_AVALON_UART_STATUS_RRDY_MSK)
 1803ce0:	e0bffe17 	ldw	r2,-8(fp)
 1803ce4:	1080200c 	andi	r2,r2,128
 1803ce8:	1005003a 	cmpeq	r2,r2,zero
 1803cec:	1000031e 	bne	r2,zero,1803cfc <altera_avalon_uart_irq+0x6c>
  {
    altera_avalon_uart_rxirq(sp, status);
 1803cf0:	e13ffd17 	ldw	r4,-12(fp)
 1803cf4:	e17ffe17 	ldw	r5,-8(fp)
 1803cf8:	1803d2c0 	call	1803d2c <altera_avalon_uart_rxirq>
  }

  /* process a write irq */
  if (status & (ALTERA_AVALON_UART_STATUS_TRDY_MSK | 
 1803cfc:	e0bffe17 	ldw	r2,-8(fp)
 1803d00:	1081100c 	andi	r2,r2,1088
 1803d04:	1005003a 	cmpeq	r2,r2,zero
 1803d08:	1000031e 	bne	r2,zero,1803d18 <altera_avalon_uart_irq+0x88>
                  ALTERA_AVALON_UART_STATUS_DCTS_MSK))
  {
    altera_avalon_uart_txirq(sp, status);
 1803d0c:	e13ffd17 	ldw	r4,-12(fp)
 1803d10:	e17ffe17 	ldw	r5,-8(fp)
 1803d14:	1803e0c0 	call	1803e0c <altera_avalon_uart_txirq>
  }
  

}
 1803d18:	e037883a 	mov	sp,fp
 1803d1c:	dfc00117 	ldw	ra,4(sp)
 1803d20:	df000017 	ldw	fp,0(sp)
 1803d24:	dec00204 	addi	sp,sp,8
 1803d28:	f800283a 	ret

01803d2c <altera_avalon_uart_rxirq>:
 * the receive circular buffer, and sets the apropriate flags to indicate 
 * that there is data ready to be processed.
 */
static void 
altera_avalon_uart_rxirq(altera_avalon_uart_state* sp, alt_u32 status)
{
 1803d2c:	defffc04 	addi	sp,sp,-16
 1803d30:	df000315 	stw	fp,12(sp)
 1803d34:	df000304 	addi	fp,sp,12
 1803d38:	e13ffe15 	stw	r4,-8(fp)
 1803d3c:	e17fff15 	stw	r5,-4(fp)
  alt_u32 next;
  
  /* If there was an error, discard the data */

  if (status & (ALTERA_AVALON_UART_STATUS_PE_MSK | 
 1803d40:	e0bfff17 	ldw	r2,-4(fp)
 1803d44:	108000cc 	andi	r2,r2,3
 1803d48:	1004c03a 	cmpne	r2,r2,zero
 1803d4c:	10002b1e 	bne	r2,zero,1803dfc <altera_avalon_uart_rxirq+0xd0>
   * In a multi-threaded environment, set the read event flag to indicate
   * that there is data ready. This is only done if the circular buffer was
   * previously empty.
   */

  if (sp->rx_end == sp->rx_start)
 1803d50:	e0bffe17 	ldw	r2,-8(fp)
 1803d54:	10800317 	ldw	r2,12(r2)
    ALT_FLAG_POST (sp->events, ALT_UART_READ_RDY, OS_FLAG_SET);
  }

  /* Determine which slot to use next in the circular buffer */

  next = (sp->rx_end + 1) & ALT_AVALON_UART_BUF_MSK;
 1803d58:	e0bffe17 	ldw	r2,-8(fp)
 1803d5c:	10800317 	ldw	r2,12(r2)
 1803d60:	10800044 	addi	r2,r2,1
 1803d64:	10800fcc 	andi	r2,r2,63
 1803d68:	e0bffd15 	stw	r2,-12(fp)

  /* Transfer data from the device to the circular buffer */

  sp->rx_buf[sp->rx_end] = IORD_ALTERA_AVALON_UART_RXDATA(sp->base);
 1803d6c:	e0bffe17 	ldw	r2,-8(fp)
 1803d70:	11000317 	ldw	r4,12(r2)
 1803d74:	e0bffe17 	ldw	r2,-8(fp)
 1803d78:	10800017 	ldw	r2,0(r2)
 1803d7c:	10800037 	ldwio	r2,0(r2)
 1803d80:	1007883a 	mov	r3,r2
 1803d84:	e0bffe17 	ldw	r2,-8(fp)
 1803d88:	2085883a 	add	r2,r4,r2
 1803d8c:	10800704 	addi	r2,r2,28
 1803d90:	10c00005 	stb	r3,0(r2)

  sp->rx_end = next;
 1803d94:	e0fffe17 	ldw	r3,-8(fp)
 1803d98:	e0bffd17 	ldw	r2,-12(fp)
 1803d9c:	18800315 	stw	r2,12(r3)

  next = (sp->rx_end + 1) & ALT_AVALON_UART_BUF_MSK;
 1803da0:	e0bffe17 	ldw	r2,-8(fp)
 1803da4:	10800317 	ldw	r2,12(r2)
 1803da8:	10800044 	addi	r2,r2,1
 1803dac:	10800fcc 	andi	r2,r2,63
 1803db0:	e0bffd15 	stw	r2,-12(fp)
  /*
   * If the cicular buffer was full, disable interrupts. Interrupts will be
   * re-enabled when data is removed from the buffer.
   */

  if (next == sp->rx_start)
 1803db4:	e0bffe17 	ldw	r2,-8(fp)
 1803db8:	10c00217 	ldw	r3,8(r2)
 1803dbc:	e0bffd17 	ldw	r2,-12(fp)
 1803dc0:	18800e1e 	bne	r3,r2,1803dfc <altera_avalon_uart_rxirq+0xd0>
  {
    sp->ctrl &= ~ALTERA_AVALON_UART_CONTROL_RRDY_MSK;
 1803dc4:	e0bffe17 	ldw	r2,-8(fp)
 1803dc8:	10c00117 	ldw	r3,4(r2)
 1803dcc:	00bfdfc4 	movi	r2,-129
 1803dd0:	1886703a 	and	r3,r3,r2
 1803dd4:	e0bffe17 	ldw	r2,-8(fp)
 1803dd8:	10c00115 	stw	r3,4(r2)
    IOWR_ALTERA_AVALON_UART_CONTROL(sp->base, sp->ctrl); 
 1803ddc:	e0bffe17 	ldw	r2,-8(fp)
 1803de0:	10800017 	ldw	r2,0(r2)
 1803de4:	11000304 	addi	r4,r2,12
 1803de8:	e0bffe17 	ldw	r2,-8(fp)
 1803dec:	10800117 	ldw	r2,4(r2)
 1803df0:	1007883a 	mov	r3,r2
 1803df4:	2005883a 	mov	r2,r4
 1803df8:	10c00035 	stwio	r3,0(r2)
  }   
}
 1803dfc:	e037883a 	mov	sp,fp
 1803e00:	df000017 	ldw	fp,0(sp)
 1803e04:	dec00104 	addi	sp,sp,4
 1803e08:	f800283a 	ret

01803e0c <altera_avalon_uart_txirq>:
 * buffer to the device, and sets the apropriate flags to indicate that 
 * there is data ready to be processed.
 */
static void 
altera_avalon_uart_txirq(altera_avalon_uart_state* sp, alt_u32 status)
{
 1803e0c:	defffd04 	addi	sp,sp,-12
 1803e10:	df000215 	stw	fp,8(sp)
 1803e14:	df000204 	addi	fp,sp,8
 1803e18:	e13ffe15 	stw	r4,-8(fp)
 1803e1c:	e17fff15 	stw	r5,-4(fp)
  /* Transfer data if there is some ready to be transfered */

  if (sp->tx_start != sp->tx_end)
 1803e20:	e0bffe17 	ldw	r2,-8(fp)
 1803e24:	10c00417 	ldw	r3,16(r2)
 1803e28:	e0bffe17 	ldw	r2,-8(fp)
 1803e2c:	10800517 	ldw	r2,20(r2)
 1803e30:	18803626 	beq	r3,r2,1803f0c <altera_avalon_uart_txirq+0x100>
    /* 
     * If the device is using flow control (i.e. RTS/CTS), then the
     * transmitter is required to throttle if CTS is high.
     */

    if (!(sp->flags & ALT_AVALON_UART_FC) ||
 1803e34:	e0bffe17 	ldw	r2,-8(fp)
 1803e38:	10800617 	ldw	r2,24(r2)
 1803e3c:	1080008c 	andi	r2,r2,2
 1803e40:	1005003a 	cmpeq	r2,r2,zero
 1803e44:	1000041e 	bne	r2,zero,1803e58 <altera_avalon_uart_txirq+0x4c>
 1803e48:	e0bfff17 	ldw	r2,-4(fp)
 1803e4c:	1082000c 	andi	r2,r2,2048
 1803e50:	1005003a 	cmpeq	r2,r2,zero
 1803e54:	10001e1e 	bne	r2,zero,1803ed0 <altera_avalon_uart_txirq+0xc4>
       * In a multi-threaded environment, set the write event flag to indicate
       * that there is space in the circular buffer. This is only done if the
       * buffer was previously empty.
       */

      if (sp->tx_start == ((sp->tx_end + 1) & ALT_AVALON_UART_BUF_MSK))
 1803e58:	e0bffe17 	ldw	r2,-8(fp)
 1803e5c:	10800417 	ldw	r2,16(r2)
                       OS_FLAG_SET);
      }

      /* Write the data to the device */

      IOWR_ALTERA_AVALON_UART_TXDATA(sp->base, sp->tx_buf[sp->tx_start]);
 1803e60:	e0bffe17 	ldw	r2,-8(fp)
 1803e64:	10800017 	ldw	r2,0(r2)
 1803e68:	11000104 	addi	r4,r2,4
 1803e6c:	e0bffe17 	ldw	r2,-8(fp)
 1803e70:	10c00417 	ldw	r3,16(r2)
 1803e74:	e0bffe17 	ldw	r2,-8(fp)
 1803e78:	1885883a 	add	r2,r3,r2
 1803e7c:	10801704 	addi	r2,r2,92
 1803e80:	10800003 	ldbu	r2,0(r2)
 1803e84:	10c03fcc 	andi	r3,r2,255
 1803e88:	2005883a 	mov	r2,r4
 1803e8c:	10c00035 	stwio	r3,0(r2)

      sp->tx_start = (++sp->tx_start) & ALT_AVALON_UART_BUF_MSK;
 1803e90:	e0bffe17 	ldw	r2,-8(fp)
 1803e94:	10800417 	ldw	r2,16(r2)
 1803e98:	10c00044 	addi	r3,r2,1
 1803e9c:	e0bffe17 	ldw	r2,-8(fp)
 1803ea0:	10c00415 	stw	r3,16(r2)
 1803ea4:	e0bffe17 	ldw	r2,-8(fp)
 1803ea8:	10800417 	ldw	r2,16(r2)
 1803eac:	10c00fcc 	andi	r3,r2,63
 1803eb0:	e0bffe17 	ldw	r2,-8(fp)
 1803eb4:	10c00415 	stw	r3,16(r2)
      /*
       * In case the tranmit interrupt had previously been disabled by 
       * detecting a low value on CTS, it is reenabled here.
       */ 

      sp->ctrl |= ALTERA_AVALON_UART_CONTROL_TRDY_MSK;
 1803eb8:	e0bffe17 	ldw	r2,-8(fp)
 1803ebc:	10800117 	ldw	r2,4(r2)
 1803ec0:	10c01014 	ori	r3,r2,64
 1803ec4:	e0bffe17 	ldw	r2,-8(fp)
 1803ec8:	10c00115 	stw	r3,4(r2)
    /* 
     * If the device is using flow control (i.e. RTS/CTS), then the
     * transmitter is required to throttle if CTS is high.
     */

    if (!(sp->flags & ALT_AVALON_UART_FC) ||
 1803ecc:	00000f06 	br	1803f0c <altera_avalon_uart_txirq+0x100>
       * the last write to the status register. To avoid this resulting in
       * deadlock, it's necessary to re-check the status register here
       * before throttling.
       */
 
      status = IORD_ALTERA_AVALON_UART_STATUS(sp->base); 
 1803ed0:	e0bffe17 	ldw	r2,-8(fp)
 1803ed4:	10800017 	ldw	r2,0(r2)
 1803ed8:	10800204 	addi	r2,r2,8
 1803edc:	10800037 	ldwio	r2,0(r2)
 1803ee0:	e0bfff15 	stw	r2,-4(fp)

      if (!(status & ALTERA_AVALON_UART_STATUS_CTS_MSK))
 1803ee4:	e0bfff17 	ldw	r2,-4(fp)
 1803ee8:	1082000c 	andi	r2,r2,2048
 1803eec:	1004c03a 	cmpne	r2,r2,zero
 1803ef0:	1000061e 	bne	r2,zero,1803f0c <altera_avalon_uart_txirq+0x100>
      {
        sp->ctrl &= ~ALTERA_AVALON_UART_CONTROL_TRDY_MSK;
 1803ef4:	e0bffe17 	ldw	r2,-8(fp)
 1803ef8:	10c00117 	ldw	r3,4(r2)
 1803efc:	00bfefc4 	movi	r2,-65
 1803f00:	1886703a 	and	r3,r3,r2
 1803f04:	e0bffe17 	ldw	r2,-8(fp)
 1803f08:	10c00115 	stw	r3,4(r2)
  /*
   * If the circular buffer is empty, disable the interrupt. This will be
   * re-enabled when new data is placed in the buffer.
   */

  if (sp->tx_start == sp->tx_end)
 1803f0c:	e0bffe17 	ldw	r2,-8(fp)
 1803f10:	10c00417 	ldw	r3,16(r2)
 1803f14:	e0bffe17 	ldw	r2,-8(fp)
 1803f18:	10800517 	ldw	r2,20(r2)
 1803f1c:	1880061e 	bne	r3,r2,1803f38 <altera_avalon_uart_txirq+0x12c>
  {
    sp->ctrl &= ~(ALTERA_AVALON_UART_CONTROL_TRDY_MSK |
 1803f20:	e0bffe17 	ldw	r2,-8(fp)
 1803f24:	10c00117 	ldw	r3,4(r2)
 1803f28:	00beefc4 	movi	r2,-1089
 1803f2c:	1886703a 	and	r3,r3,r2
 1803f30:	e0bffe17 	ldw	r2,-8(fp)
 1803f34:	10c00115 	stw	r3,4(r2)
                    ALTERA_AVALON_UART_CONTROL_DCTS_MSK);
  }

  IOWR_ALTERA_AVALON_UART_CONTROL(sp->base, sp->ctrl);
 1803f38:	e0bffe17 	ldw	r2,-8(fp)
 1803f3c:	10800017 	ldw	r2,0(r2)
 1803f40:	11000304 	addi	r4,r2,12
 1803f44:	e0bffe17 	ldw	r2,-8(fp)
 1803f48:	10800117 	ldw	r2,4(r2)
 1803f4c:	1007883a 	mov	r3,r2
 1803f50:	2005883a 	mov	r2,r4
 1803f54:	10c00035 	stwio	r3,0(r2)
}
 1803f58:	e037883a 	mov	sp,fp
 1803f5c:	df000017 	ldw	fp,0(sp)
 1803f60:	dec00104 	addi	sp,sp,4
 1803f64:	f800283a 	ret

01803f68 <altera_avalon_uart_close>:
 * The close routine is not implemented for the small driver; instead it will
 * map to null. This is because the small driver simply waits while characters
 * are transmitted; there is no interrupt-serviced buffer to empty 
 */
int altera_avalon_uart_close(altera_avalon_uart_state* sp, int flags)
{
 1803f68:	defffc04 	addi	sp,sp,-16
 1803f6c:	df000315 	stw	fp,12(sp)
 1803f70:	df000304 	addi	fp,sp,12
 1803f74:	e13ffd15 	stw	r4,-12(fp)
 1803f78:	e17ffe15 	stw	r5,-8(fp)
  /* 
   * Wait for all transmit data to be emptied by the UART ISR.
   */
  while (sp->tx_start != sp->tx_end) {
 1803f7c:	00000706 	br	1803f9c <altera_avalon_uart_close+0x34>
    if (flags & O_NONBLOCK) {
 1803f80:	e0bffe17 	ldw	r2,-8(fp)
 1803f84:	1090000c 	andi	r2,r2,16384
 1803f88:	1005003a 	cmpeq	r2,r2,zero
 1803f8c:	1000031e 	bne	r2,zero,1803f9c <altera_avalon_uart_close+0x34>
      return -EWOULDBLOCK; 
 1803f90:	00bffd44 	movi	r2,-11
 1803f94:	e0bfff15 	stw	r2,-4(fp)
 1803f98:	00000606 	br	1803fb4 <altera_avalon_uart_close+0x4c>
int altera_avalon_uart_close(altera_avalon_uart_state* sp, int flags)
{
  /* 
   * Wait for all transmit data to be emptied by the UART ISR.
   */
  while (sp->tx_start != sp->tx_end) {
 1803f9c:	e0bffd17 	ldw	r2,-12(fp)
 1803fa0:	10c00417 	ldw	r3,16(r2)
 1803fa4:	e0bffd17 	ldw	r2,-12(fp)
 1803fa8:	10800517 	ldw	r2,20(r2)
 1803fac:	18bff41e 	bne	r3,r2,1803f80 <altera_avalon_uart_close+0x18>
    if (flags & O_NONBLOCK) {
      return -EWOULDBLOCK; 
    }
  }

  return 0;
 1803fb0:	e03fff15 	stw	zero,-4(fp)
