
HelloWorldnew.elf:     file format elf32-littlenios2
HelloWorldnew.elf
architecture: nios2, flags 0x00000112:
EXEC_P, HAS_SYMS, D_PAGED
start address 0x01800000

Program Header:
    LOAD off    0x00001000 vaddr 0x01800000 paddr 0x01800000 align 2**12
         filesz 0x00012b7c memsz 0x00012e6c flags rwx
    LOAD off    0x00014000 vaddr 0x02400000 paddr 0x02400000 align 2**12
         filesz 0x00000000 memsz 0x00000000 flags r-x
    LOAD off    0x00014020 vaddr 0x02808020 paddr 0x02808020 align 2**12
         filesz 0x0000020c memsz 0x0000020c flags r-x

Sections:
Idx Name          Size      VMA       LMA       File off  Algn
  0 .entry        00000000  02400000  02400000  00014000  2**5
                  CONTENTS, ALLOC, LOAD, READONLY, CODE
  1 .exceptions   0000020c  02808020  02808020  00014020  2**2
                  CONTENTS, ALLOC, LOAD, READONLY, CODE
  2 .text         00010844  01800000  01800000  00001000  2**2
                  CONTENTS, ALLOC, LOAD, READONLY, CODE
  3 .rodata       00000610  01810844  01810844  00011844  2**2
                  CONTENTS, ALLOC, LOAD, READONLY, DATA
  4 .rwdata       00001d28  01810e54  01810e54  00011e54  2**2
                  CONTENTS, ALLOC, LOAD, DATA, SMALL_DATA
  5 .bss          000002f0  01812b7c  01812b7c  00013b7c  2**2
                  ALLOC, SMALL_DATA
  6 .comment      00000026  00000000  00000000  0001422c  2**0
                  CONTENTS, READONLY
  7 .debug_aranges 00000df8  00000000  00000000  00014258  2**3
                  CONTENTS, READONLY, DEBUGGING
  8 .debug_pubnames 0000199d  00000000  00000000  00015050  2**0
                  CONTENTS, READONLY, DEBUGGING
  9 .debug_info   000297fb  00000000  00000000  000169ed  2**0
                  CONTENTS, READONLY, DEBUGGING
 10 .debug_abbrev 00008901  00000000  00000000  000401e8  2**0
                  CONTENTS, READONLY, DEBUGGING
 11 .debug_line   00016a97  00000000  00000000  00048ae9  2**0
                  CONTENTS, READONLY, DEBUGGING
 12 .debug_frame  00001f60  00000000  00000000  0005f580  2**2
                  CONTENTS, READONLY, DEBUGGING
 13 .debug_str    000024f9  00000000  00000000  000614e0  2**0
                  CONTENTS, READONLY, DEBUGGING
 14 .debug_loc    0000c760  00000000  00000000  000639d9  2**0
                  CONTENTS, READONLY, DEBUGGING
 15 .debug_alt_sim_info 00000050  00000000  00000000  0007013c  2**2
                  CONTENTS, READONLY, DEBUGGING
 16 .debug_ranges 00000970  00000000  00000000  00070190  2**3
                  CONTENTS, READONLY, DEBUGGING
 17 .thread_model 00000003  00000000  00000000  00074518  2**0
                  CONTENTS, READONLY
 18 .cpu          00000003  00000000  00000000  0007451b  2**0
                  CONTENTS, READONLY
 19 .simulation_enabled 00000001  00000000  00000000  0007451e  2**0
                  CONTENTS, READONLY
 20 .sysid_hash   00000004  00000000  00000000  0007451f  2**0
                  CONTENTS, READONLY
 21 .sysid_base   00000004  00000000  00000000  00074523  2**0
                  CONTENTS, READONLY
 22 .sysid_time   00000004  00000000  00000000  00074527  2**0
                  CONTENTS, READONLY
 23 .stderr_dev   00000009  00000000  00000000  0007452b  2**0
                  CONTENTS, READONLY
 24 .stdin_dev    00000009  00000000  00000000  00074534  2**0
                  CONTENTS, READONLY
 25 .stdout_dev   00000009  00000000  00000000  0007453d  2**0
                  CONTENTS, READONLY
 26 .sopc_system_name 00000008  00000000  00000000  00074546  2**0
                  CONTENTS, READONLY
 27 .quartus_project_dir 00000052  00000000  00000000  0007454e  2**0
                  CONTENTS, READONLY
 28 .jdi          00004101  00000000  00000000  000745a0  2**0
                  CONTENTS, READONLY
 29 .sopcinfo     000b904b  00000000  00000000  000786a1  2**0
                  CONTENTS, READONLY
SYMBOL TABLE:
02400000 l    d  .entry	00000000 .entry
02808020 l    d  .exceptions	00000000 .exceptions
01800000 l    d  .text	00000000 .text
01810844 l    d  .rodata	00000000 .rodata
01810e54 l    d  .rwdata	00000000 .rwdata
01812b7c l    d  .bss	00000000 .bss
00000000 l    d  .comment	00000000 .comment
00000000 l    d  .debug_aranges	00000000 .debug_aranges
00000000 l    d  .debug_pubnames	00000000 .debug_pubnames
00000000 l    d  .debug_info	00000000 .debug_info
00000000 l    d  .debug_abbrev	00000000 .debug_abbrev
00000000 l    d  .debug_line	00000000 .debug_line
00000000 l    d  .debug_frame	00000000 .debug_frame
00000000 l    d  .debug_str	00000000 .debug_str
00000000 l    d  .debug_loc	00000000 .debug_loc
00000000 l    d  .debug_alt_sim_info	00000000 .debug_alt_sim_info
00000000 l    d  .debug_ranges	00000000 .debug_ranges
01800044 l       .text	00000000 alt_after_alt_main
00000000 l    df *ABS*	00000000 alt_irq_handler.c
00000000 l    df *ABS*	00000000 alt_instruction_exception_entry.c
00000000 l    df *ABS*	00000000 hello_world.c
00000000 l    df *ABS*	00000000 pwm.c
00000000 l    df *ABS*	00000000 printf.c
00000000 l    df *ABS*	00000000 puts.c
00000000 l    df *ABS*	00000000 strlen.c
00000000 l    df *ABS*	00000000 vfprintf.c
0180070c l     F .text	00000058 __sprint_r
018108de l     O .rodata	00000010 blanks.3452
018108ce l     O .rodata	00000010 zeroes.3453
00000000 l    df *ABS*	00000000 wsetup.c
00000000 l    df *ABS*	00000000 dtoa.c
01802770 l     F .text	00000218 quorem
00000000 l    df *ABS*	00000000 fflush.c
00000000 l    df *ABS*	00000000 findfp.c
0180416c l     F .text	00000058 std
01804278 l     F .text	00000008 __fp_lock
01804280 l     F .text	00000008 __fp_unlock
00000000 l    df *ABS*	00000000 mallocr.c
00000000 l    df *ABS*	00000000 fvwrite.c
00000000 l    df *ABS*	00000000 fwalk.c
00000000 l    df *ABS*	00000000 impure.c
01810e54 l     O .rwdata	00000400 impure_data
00000000 l    df *ABS*	00000000 locale.c
01812b38 l     O .rwdata	00000004 charset
01810914 l     O .rodata	00000030 lconv
00000000 l    df *ABS*	00000000 makebuf.c
00000000 l    df *ABS*	00000000 mallocr.c
00000000 l    df *ABS*	00000000 memchr.c
00000000 l    df *ABS*	00000000 memcpy.c
00000000 l    df *ABS*	00000000 memmove.c
00000000 l    df *ABS*	00000000 memset.c
00000000 l    df *ABS*	00000000 mprec.c
01810a5c l     O .rodata	0000000c p05.2458
00000000 l    df *ABS*	00000000 mallocr.c
00000000 l    df *ABS*	00000000 s_isinfd.c
00000000 l    df *ABS*	00000000 s_isnand.c
00000000 l    df *ABS*	00000000 sbrkr.c
00000000 l    df *ABS*	00000000 stdio.c
00000000 l    df *ABS*	00000000 strcmp.c
00000000 l    df *ABS*	00000000 writer.c
00000000 l    df *ABS*	00000000 mallocr.c
00000000 l    df *ABS*	00000000 closer.c
00000000 l    df *ABS*	00000000 fclose.c
00000000 l    df *ABS*	00000000 fstatr.c
00000000 l    df *ABS*	00000000 int_errno.c
00000000 l    df *ABS*	00000000 isattyr.c
00000000 l    df *ABS*	00000000 lseekr.c
00000000 l    df *ABS*	00000000 readr.c
00000000 l    df *ABS*	00000000 libgcc2.c
00000000 l    df *ABS*	00000000 libgcc2.c
00000000 l    df *ABS*	00000000 dp-bit.c
0180840c l     F .text	00000410 _fpadd_parts
00000000 l    df *ABS*	00000000 dp-bit.c
00000000 l    df *ABS*	00000000 dp-bit.c
00000000 l    df *ABS*	00000000 dp-bit.c
00000000 l    df *ABS*	00000000 dp-bit.c
00000000 l    df *ABS*	00000000 dp-bit.c
00000000 l    df *ABS*	00000000 dp-bit.c
00000000 l    df *ABS*	00000000 dp-bit.c
00000000 l    df *ABS*	00000000 dp-bit.c
00000000 l    df *ABS*	00000000 dp-bit.c
00000000 l    df *ABS*	00000000 dp-bit.c
00000000 l    df *ABS*	00000000 dp-bit.c
00000000 l    df *ABS*	00000000 lib2-divmod.c
01809538 l     F .text	0000007c udivmodsi4
00000000 l    df *ABS*	00000000 libgcc2.c
00000000 l    df *ABS*	00000000 libgcc2.c
00000000 l    df *ABS*	00000000 libgcc2.c
00000000 l    df *ABS*	00000000 dp-bit.c
00000000 l    df *ABS*	00000000 dp-bit.c
00000000 l    df *ABS*	00000000 dp-bit.c
00000000 l    df *ABS*	00000000 alt_close.c
01809dac l     F .text	00000060 alt_get_errno
00000000 l    df *ABS*	00000000 alt_dev.c
01809e0c l     F .text	0000002c alt_dev_null_write
00000000 l    df *ABS*	00000000 alt_errno.c
00000000 l    df *ABS*	00000000 alt_fstat.c
01809f0c l     F .text	00000060 alt_get_errno
00000000 l    df *ABS*	00000000 alt_isatty.c
0180a02c l     F .text	00000060 alt_get_errno
00000000 l    df *ABS*	00000000 alt_lseek.c
0180a17c l     F .text	00000060 alt_get_errno
00000000 l    df *ABS*	00000000 alt_main.c
00000000 l    df *ABS*	00000000 alt_malloc_lock.c
00000000 l    df *ABS*	00000000 alt_read.c
0180a3a8 l     F .text	00000060 alt_get_errno
00000000 l    df *ABS*	00000000 alt_release_fd.c
00000000 l    df *ABS*	00000000 alt_sbrk.c
01812b5c l     O .rwdata	00000004 heap_end
00000000 l    df *ABS*	00000000 alt_usleep.c
00000000 l    df *ABS*	00000000 alt_write.c
0180a674 l     F .text	00000060 alt_get_errno
00000000 l    df *ABS*	00000000 alt_sys_init.c
01811810 l     O .rwdata	000000d8 cfi_flash
018118e8 l     O .rwdata	00001060 jtag_uart
01812948 l     O .rwdata	00000120 lcd
01812a68 l     O .rwdata	000000c4 uart
0180a7a4 l     F .text	00000038 alt_dev_reg
00000000 l    df *ABS*	00000000 altera_avalon_cfi_flash.c
0180a878 l     F .text	00000038 alt_flash_device_register
00000000 l    df *ABS*	00000000 altera_avalon_cfi_flash_table.c
0180b678 l     F .text	0000007c alt_read_16bit_query_entry
00000000 l    df *ABS*	00000000 altera_avalon_jtag_uart_fd.c
00000000 l    df *ABS*	00000000 altera_avalon_jtag_uart_init.c
0180c704 l     F .text	00000228 altera_avalon_jtag_uart_irq
0180c92c l     F .text	000000b0 altera_avalon_jtag_uart_timeout
00000000 l    df *ABS*	00000000 altera_avalon_jtag_uart_ioctl.c
00000000 l    df *ABS*	00000000 altera_avalon_jtag_uart_read.c
00000000 l    df *ABS*	00000000 altera_avalon_jtag_uart_write.c
00000000 l    df *ABS*	00000000 altera_avalon_lcd_16207.c
01812b60 l     O .rwdata	00000004 colstart
0180cfa8 l     F .text	000000b8 lcd_write_command
0180d060 l     F .text	000000d4 lcd_write_data
0180d134 l     F .text	000000c4 lcd_clear_screen
0180d1f8 l     F .text	000001ec lcd_repaint_screen
0180d3e4 l     F .text	000000c8 lcd_scroll_up
0180d4ac l     F .text	000002d0 lcd_handle_escape
0180dc80 l     F .text	000000cc alt_lcd_16207_timeout
00000000 l    df *ABS*	00000000 altera_avalon_lcd_16207_fd.c
00000000 l    df *ABS*	00000000 altera_avalon_timer_sc.c
0180dee0 l     F .text	00000070 alt_avalon_timer_sc_irq
00000000 l    df *ABS*	00000000 altera_avalon_uart_fd.c
00000000 l    df *ABS*	00000000 altera_avalon_uart_init.c
0180e1a0 l     F .text	0000009c altera_avalon_uart_irq
0180e23c l     F .text	000000e0 altera_avalon_uart_rxirq
0180e31c l     F .text	0000015c altera_avalon_uart_txirq
00000000 l    df *ABS*	00000000 altera_avalon_uart_read.c
0180e708 l     F .text	00000060 alt_get_errno
00000000 l    df *ABS*	00000000 altera_avalon_uart_write.c
0180e930 l     F .text	00000060 alt_get_errno
00000000 l    df *ABS*	00000000 alt_alarm_start.c
00000000 l    df *ABS*	00000000 alt_busy_sleep.c
00000000 l    df *ABS*	00000000 alt_dcache_flush.c
00000000 l    df *ABS*	00000000 alt_dev_llist_insert.c
0180ed3c l     F .text	00000060 alt_get_errno
00000000 l    df *ABS*	00000000 alt_do_ctors.c
00000000 l    df *ABS*	00000000 alt_do_dtors.c
00000000 l    df *ABS*	00000000 alt_flash_dev.c
00000000 l    df *ABS*	00000000 alt_iic.c
00000000 l    df *ABS*	00000000 alt_iic_isr_register.c
00000000 l    df *ABS*	00000000 alt_io_redirect.c
0180f200 l     F .text	000000c4 alt_open_fd
00000000 l    df *ABS*	00000000 alt_irq_vars.c
00000000 l    df *ABS*	00000000 alt_open.c
0180f33c l     F .text	000000dc alt_file_locked
0180f5a0 l     F .text	00000060 alt_get_errno
00000000 l    df *ABS*	00000000 alt_tick.c
00000000 l    df *ABS*	00000000 altera_nios2_irq.c
00000000 l    df *ABS*	00000000 altera_avalon_cfi_flash_amd.c
0180fb68 l     F .text	000000bc alt_write_word_amd
0180fa44 l     F .text	00000124 alt_wait_for_command_to_complete_amd
00000000 l    df *ABS*	00000000 altera_avalon_cfi_flash_intel.c
0180fe1c l     F .text	0000018c alt_unlock_block_intel
0180ffa8 l     F .text	000000dc alt_write_word_intel
00000000 l    df *ABS*	00000000 alt_find_dev.c
00000000 l    df *ABS*	00000000 alt_find_file.c
00000000 l    df *ABS*	00000000 alt_get_fd.c
00000000 l    df *ABS*	00000000 atexit.c
00000000 l    df *ABS*	00000000 ctype_.c
01810cd1 l     O .rodata	00000180 _ctype_b
00000000 l    df *ABS*	00000000 exit.c
00000000 l    df *ABS*	00000000 memcmp.c
00000000 l    df *ABS*	00000000 __atexit.c
00000000 l    df *ABS*	00000000 __call_atexit.c
018105c0 l     F .text	00000004 register_fini
00000000 l    df *ABS*	00000000 alt_exit.c
01810774 l     F .text	00000040 alt_sim_halt
01812bb0 g     O .bss	00000004 alt_instruction_exception_handler
01805f28 g     F .text	00000094 _mprec_log10
01806014 g     F .text	00000088 __any_on
01807720 g     F .text	00000070 _isatty_r
01810a34 g     O .rodata	00000028 __mprec_tinytens
0180a1dc g     F .text	0000006c alt_main
018005e4 g     F .text	000000a0 _puts_r
0180b138 g     F .text	00000048 alt_read_query_entry_32bit
01812bdc g     O .bss	00000100 alt_irq
01807790 g     F .text	00000078 _lseek_r
0180a8b0 g     F .text	000002c0 alt_flash_cfi_write
01808f2c g     F .text	00000088 __eqdf2
01812e6c g       *ABS*	00000000 __alt_heap_start
0180056c g     F .text	00000044 printf
018071ec g     F .text	00000068 __sseek
018041d4 g     F .text	000000a4 __sinit
01804eac g     F .text	00000084 _setlocale_r
018042d4 g     F .text	00000068 __sfmoreglue
0180a268 g     F .text	00000020 __malloc_unlock
018059a4 g     F .text	000000e0 memmove
018042c4 g     F .text	00000010 _cleanup
0180609c g     F .text	000000bc _Balloc
0180903c g     F .text	00000088 __gtdf2
00000000  w      *UND*	00000000 __errno
0180b2c4 g     F .text	00000048 alt_write_flash_command_32bit_device_16bit_mode
02400000 g     F .entry	00000000 __reset
018076ac g     F .text	00000074 _fstat_r
0180adcc g     F .text	000002e8 alt_flash_program_block
01812b94 g     O .bss	00000004 errno
01812b9c g     O .bss	00000004 alt_argv
0181ab2c g       *ABS*	00000000 _gp
0180a524 g     F .text	00000030 usleep
01811690 g     O .rwdata	00000180 alt_fd_list
01810084 g     F .text	00000094 alt_find_dev
01805904 g     F .text	000000a0 memcpy
018042b8 g     F .text	0000000c _cleanup_r
018091d4 g     F .text	000000f8 __floatsidf
0180f2c4 g     F .text	00000078 alt_io_redirect
0180914c g     F .text	00000088 __ltdf2
01810844 g       *ABS*	00000000 __DTOR_END__
01800684 g     F .text	00000014 puts
018102f0 g     F .text	000000dc alt_exception_cause_generated_bad_addr
0180f7a4 g     F .text	00000020 altera_nios2_irq_init
01805e78 g     F .text	000000b0 __ratio
0180cb44 g     F .text	00000224 altera_avalon_jtag_uart_read
00000000  w      *UND*	00000000 malloc
018005b0 g     F .text	00000034 _printf_r
01809674 g     F .text	00000008 __udivsi3
01809f6c g     F .text	000000c0 isatty
01810944 g     O .rodata	000000c8 __mprec_tens
01804e88 g     F .text	00000008 __locale_charset
01812b88 g     O .bss	00000004 __malloc_top_pad
01812b34 g     O .rwdata	00000004 __mb_cur_max
01804e90 g     F .text	0000000c _localeconv_r
01806794 g     F .text	0000003c __i2b
0180486c g     F .text	0000049c __sfvwrite_r
01807174 g     F .text	00000070 _sbrk_r
0180fc24 g     F .text	00000084 alt_program_intel
01807808 g     F .text	00000078 _read_r
0180ec10 g     F .text	00000078 alt_dcache_flush
01811254 g     O .rwdata	0000000c __lc_ctype
01812b54 g     O .rwdata	00000004 alt_max_fd
0180b0b4 g     F .text	00000040 alt_read_query_entry_8bit
01809ab0 g     F .text	00000138 __unpack_d
01807588 g     F .text	00000110 _fclose_r
0180fca8 g     F .text	00000174 alt_erase_block_intel
01804138 g     F .text	00000034 fflush
01812b8c g     O .bss	00000004 __malloc_max_sbrked_mem
0180889c g     F .text	00000074 __adddf3
01805d58 g     F .text	00000120 __b2d
01807e5c g     F .text	000005b0 __umoddi3
0180a08c g     F .text	000000f0 lseek
01812b30 g     O .rwdata	00000004 _global_impure_ptr
01806b10 g     F .text	000005f4 _realloc_r
01812e6c g       *ABS*	00000000 __bss_end
0180f108 g     F .text	000000f8 alt_iic_isr_register
0180f698 g     F .text	0000010c alt_tick
01807880 g     F .text	000005dc __udivdi3
01810a0c g     O .rodata	00000028 __mprec_bigtens
018069f0 g     F .text	00000120 __s2b
018093a4 g     F .text	00000194 __floatunsidf
01805c78 g     F .text	00000060 __mcmp
0180e0d8 g     F .text	000000c8 altera_avalon_uart_init
01812b78 g     O .rwdata	00000004 __ctype_ptr
018042a0 g     F .text	00000018 __fp_lock_all
0180f0c0 g     F .text	00000048 alt_ic_irq_enabled
0180f600 g     F .text	00000098 alt_alarm_stop
01812ba4 g     O .bss	00000004 alt_irq_active
02808000 g       *ABS*	00000000 __alt_mem_onchip_mem
028080fc g     F .exceptions	000000c8 alt_irq_handler
01811668 g     O .rwdata	00000028 alt_dev_null
0180b5cc g     F .text	000000ac alt_set_flash_algorithm_func
01805b44 g     F .text	00000070 __hi0bits
018092cc g     F .text	000000d8 __fixdfsi
0180043c g     F .text	00000130 Set_Servo_Position
0180b180 g     F .text	0000003c alt_write_flash_command_8bit_device_8bit_mode
01812b4c g     O .rwdata	00000008 alt_dev_list
0180a554 g     F .text	00000120 write
01809e38 g     F .text	000000d4 fstat
0180c420 g     F .text	000000dc alt_check_primary_table
018068d0 g     F .text	00000120 __pow5mult
01812b7c g     O .bss	00000004 __nlocale_changed
0180967c g     F .text	00000008 __umodsi3
0180ac00 g     F .text	00000068 alt_flash_cfi_read
0180b354 g     F .text	00000034 alt_write_native_8bit
01812e6c g       *ABS*	00000000 end
0180b1bc g     F .text	0000007c alt_write_flash_command_16bit_device_8bit_mode
0180d77c g     F .text	00000504 altera_avalon_lcd_16207_write
0180e768 g     F .text	000001c8 altera_avalon_uart_write
0180b6f4 g     F .text	00000580 alt_read_cfi_table
0180c644 g     F .text	000000c0 altera_avalon_jtag_uart_init
028081c4 g     F .exceptions	00000068 alt_instruction_exception_entry
01810840 g       *ABS*	00000000 __CTOR_LIST__
02000000 g       *ABS*	00000000 __alt_stack_pointer
0180df50 g     F .text	00000090 alt_avalon_timer_sc_init
0180e038 g     F .text	00000058 altera_avalon_uart_write_fd
0180971c g     F .text	00000080 __clzsi2
0180e090 g     F .text	00000048 altera_avalon_uart_close_fd
0180cd68 g     F .text	00000240 altera_avalon_jtag_uart_write
0180a7dc g     F .text	0000009c alt_flash_cfi_init
0180015c g     F .text	000001e8 Initilise_PWM
018041c4 g     F .text	00000004 __sfp_lock_acquire
01805820 g     F .text	000000e4 memchr
01800764 g     F .text	00001eac ___vfprintf_internal_r
01804558 g     F .text	00000314 _free_r
018105c4 g     F .text	000001b0 __call_exitprocs
01812b80 g     O .bss	00000004 __mlocale_changed
01812b40 g     O .rwdata	00000004 __malloc_sbrk_base
01800000 g     F .text	00000048 _start
01812ba8 g     O .bss	00000004 _alt_tick_rate
01806460 g     F .text	0000014c __lshift
01812bac g     O .bss	00000004 _alt_nticks
0180a288 g     F .text	00000120 read
0180a708 g     F .text	0000009c alt_sys_init
0181048c g     F .text	00000134 __register_exitproc
0180b0f4 g     F .text	00000044 alt_read_query_entry_16bit
018065ac g     F .text	000001e8 __multiply
0180c9dc g     F .text	00000074 altera_avalon_jtag_uart_close
01812bb4 g     O .bss	00000028 __malloc_current_mallinfo
0180b3ec g     F .text	000001e0 alt_set_flash_width_func
01806158 g     F .text	0000017c __d2b
0180c4fc g     F .text	00000058 altera_avalon_jtag_uart_read_fd
01810238 g     F .text	000000b8 alt_get_fd
0180eae4 g     F .text	0000012c alt_busy_sleep
01809be8 g     F .text	000000c8 __fpcmp_parts_d
01807518 g     F .text	00000070 _close_r
0180f82c g     F .text	00000218 alt_erase_block_amd
01810418 g     F .text	00000074 memcmp
0180c5ac g     F .text	00000048 altera_avalon_jtag_uart_close_fd
01812e6c g       *ABS*	00000000 __alt_stack_base
0180c5f4 g     F .text	00000050 altera_avalon_jtag_uart_ioctl_fd
01802634 g     F .text	0000013c __swsetup_r
0180bc74 g     F .text	000007ac alt_read_cfi_width
01808cd4 g     F .text	00000258 __divdf3
0180433c g     F .text	000000f0 __sfp
01805fbc g     F .text	00000058 __copybits
01811260 g     O .rwdata	00000408 __malloc_av_
018041d0 g     F .text	00000004 __sinit_lock_release
01808910 g     F .text	000003c4 __muldf3
018072d0 g     F .text	00000060 __sread
01810118 g     F .text	00000120 alt_find_file
01800344 g     F .text	000000f8 Set_PWM_Duty_Cycle
0180ec88 g     F .text	000000b4 alt_dev_llist_insert
0180a248 g     F .text	00000020 __malloc_lock
0180a468 g     F .text	000000bc sbrk
01803f3c g     F .text	000001fc _fflush_r
01807464 g     F .text	000000b4 _calloc_r
01812b64 g     O .rwdata	00000008 alt_flash_dev_list
0180b280 g     F .text	00000044 alt_write_flash_command_16bit_device_16bit_mode
01812b7c g       *ABS*	00000000 __bss_start
01805a84 g     F .text	00000098 memset
01800048 g     F .text	00000114 main
01812ba0 g     O .bss	00000004 alt_envp
01812b90 g     O .bss	00000004 __malloc_max_total_mem
0180c554 g     F .text	00000058 altera_avalon_jtag_uart_write_fd
0180dd4c g     F .text	0000013c altera_avalon_lcd_16207_init
018071e4 g     F .text	00000008 __sclose
02000000 g       *ABS*	00000000 __alt_heap_limit
01807698 g     F .text	00000014 fclose
01812cdc g     O .bss	00000190 _atexit0
01802988 g     F .text	000015b4 _dtoa_r
018050e0 g     F .text	00000740 _malloc_r
01812b58 g     O .rwdata	00000004 alt_errno
0180b30c g     F .text	00000048 alt_write_flash_command_32bit_device_32bit_mode
01804dd0 g     F .text	000000b8 _fwalk
0180ac68 g     F .text	00000164 alt_write_value_to_flash
0180b388 g     F .text	00000034 alt_write_native_16bit
018095b4 g     F .text	00000060 __divsi3
02400000 g       *ABS*	00000000 __alt_mem_cfi_flash
01810a68 g     O .rodata	00000014 __thenan_df
0180442c g     F .text	0000012c _malloc_trim_r
01810844 g       *ABS*	00000000 __CTOR_END__
01807330 g     F .text	000000bc strcmp
01810844 g       *ABS*	00000000 __DTOR_LIST__
01808fb4 g     F .text	00000088 __nedf2
0180a6d4 g     F .text	00000034 alt_irq_init
0180a408 g     F .text	00000060 alt_release_fd
01810a7c g     O .rodata	00000100 __clz_tab
01812b84 g     O .bss	00000004 _PathLocale
018103cc g     F .text	00000014 atexit
018073ec g     F .text	00000078 _write_r
01804f30 g     F .text	0000001c setlocale
01812b2c g     O .rwdata	00000004 _impure_ptr
01812b98 g     O .bss	00000004 alt_argc
0180ee00 g     F .text	00000064 _do_dtors
02808020 g       .exceptions	00000000 alt_irq_entry
01805cd8 g     F .text	00000080 __ulp
01807104 g     F .text	00000040 __isinfd
01804288 g     F .text	00000018 __fp_unlock_all
0180de88 g     F .text	00000058 altera_avalon_lcd_16207_write_fd
01812b44 g     O .rwdata	00000008 alt_fs_list
0180b238 g     F .text	00000048 alt_write_flash_command_32bit_device_8bit_mode
01804e9c g     F .text	00000010 localeconv
0180ef34 g     F .text	00000050 alt_ic_isr_register
01812b7c g       *ABS*	00000000 _edata
0180dfe0 g     F .text	00000058 altera_avalon_uart_read_fd
01812e6c g       *ABS*	00000000 _end
0180ee64 g     F .text	0000007c alt_flash_open_dev
0180ca50 g     F .text	000000f4 altera_avalon_jtag_uart_ioctl
0180f020 g     F .text	000000a0 alt_ic_irq_disable
01807254 g     F .text	0000007c __swrite
01812b3c g     O .rwdata	00000004 __malloc_trim_threshold
018103e0 g     F .text	00000038 exit
01804d08 g     F .text	000000c8 _fwalk_reent
018062d4 g     F .text	0000018c __mdiff
0180eee0 g     F .text	00000054 alt_flash_close_dev
01809614 g     F .text	00000060 __modsi3
02000000 g       *ABS*	00000000 __alt_data_end
02808020 g     F .exceptions	00000000 alt_exception
018041c8 g     F .text	00000004 __sfp_lock_release
01800000 g       *ABS*	00000000 __alt_mem_sdram
01810bd0 g     O .rodata	00000101 _ctype_
0180e478 g     F .text	00000060 altera_avalon_uart_close
018107b4 g     F .text	00000020 _exit
01807144 g     F .text	00000030 __isnand
0180e990 g     F .text	00000154 alt_alarm_start
01809684 g     F .text	00000098 __muldi3
01804f4c g     F .text	00000194 __smakebuf_r
0180b3bc g     F .text	00000030 alt_write_native_32bit
01800698 g     F .text	00000074 strlen
0180f418 g     F .text	00000188 open
018090c4 g     F .text	00000088 __gedf2
0180ab70 g     F .text	00000090 alt_flash_cfi_get_info
01812b6c g     O .rwdata	00000004 alt_priority_mask
0180ef84 g     F .text	0000009c alt_ic_irq_enable
01802610 g     F .text	00000024 __vfprintf_internal
0180e4d8 g     F .text	00000230 altera_avalon_uart_read
0180881c g     F .text	00000080 __subdf3
01805bb4 g     F .text	000000c4 __lo0bits
01812b70 g     O .rwdata	00000008 alt_alarm_list
0180ed9c g     F .text	00000064 _do_ctors
01809cb0 g     F .text	000000fc close
0180f7c4 g     F .text	00000068 alt_program_amd
0180979c g     F .text	00000314 __pack_d
00000000  w      *UND*	00000000 free
018041cc g     F .text	00000004 __sinit_lock_acquire
018067d0 g     F .text	00000100 __multadd
01805b1c g     F .text	00000028 _Bfree



Disassembly of section .exceptions:

02808020 <alt_exception>:
         * Process an exception.  For all exceptions we must preserve all
         * caller saved registers on the stack (See the Nios2 ABI
         * documentation for details).
         */

        addi  sp, sp, -76
 2808020:	deffed04 	addi	sp,sp,-76

#endif

#endif

        stw   ra,  0(sp)
 2808024:	dfc00015 	stw	ra,0(sp)
        /*
         * Leave a gap in the stack frame at 4(sp) for the muldiv handler to
         * store zero into.
         */

        stw   r1,   8(sp)
 2808028:	d8400215 	stw	at,8(sp)
        stw   r2,  12(sp)
 280802c:	d8800315 	stw	r2,12(sp)
        stw   r3,  16(sp)
 2808030:	d8c00415 	stw	r3,16(sp)
        stw   r4,  20(sp)
 2808034:	d9000515 	stw	r4,20(sp)
        stw   r5,  24(sp)
 2808038:	d9400615 	stw	r5,24(sp)
        stw   r6,  28(sp)
 280803c:	d9800715 	stw	r6,28(sp)
        stw   r7,  32(sp)
 2808040:	d9c00815 	stw	r7,32(sp)

        rdctl r5, estatus
 2808044:	000b307a 	rdctl	r5,estatus

        stw   r8,  36(sp)
 2808048:	da000915 	stw	r8,36(sp)
        stw   r9,  40(sp)
 280804c:	da400a15 	stw	r9,40(sp)
        stw   r10, 44(sp)
 2808050:	da800b15 	stw	r10,44(sp)
        stw   r11, 48(sp)
 2808054:	dac00c15 	stw	r11,48(sp)
        stw   r12, 52(sp)
 2808058:	db000d15 	stw	r12,52(sp)
        stw   r13, 56(sp)
 280805c:	db400e15 	stw	r13,56(sp)
        stw   r14, 60(sp)
 2808060:	db800f15 	stw	r14,60(sp)
        stw   r15, 64(sp)
 2808064:	dbc01015 	stw	r15,64(sp)
        /*
         * ea-4 contains the address of the instruction being executed
         * when the exception occured. For interrupt exceptions, we will
         * will be re-issue the isntruction. Store it in 72(sp)
         */
        stw   r5,  68(sp)  /* estatus */
 2808068:	d9401115 	stw	r5,68(sp)
        addi  r15, ea, -4  /* instruction that caused exception */
 280806c:	ebffff04 	addi	r15,ea,-4
        stw   r15,  72(sp)
 2808070:	dbc01215 	stw	r15,72(sp)
#else
        /*
         * Test to see if the exception was a software exception or caused 
         * by an external interrupt, and vector accordingly.
         */
        rdctl r4, ipending
 2808074:	0009313a 	rdctl	r4,ipending
        andi  r2, r5, 1
 2808078:	2880004c 	andi	r2,r5,1
        beq   r2, zero, .Lnot_irq
 280807c:	10000326 	beq	r2,zero,280808c <alt_exception+0x6c>
        beq   r4, zero, .Lnot_irq
 2808080:	20000226 	beq	r4,zero,280808c <alt_exception+0x6c>
        /*
         * Now that all necessary registers have been preserved, call 
         * alt_irq_handler() to process the interrupts.
         */

        call alt_irq_handler
 2808084:	28080fc0 	call	28080fc <alt_irq_handler>

        .section .exceptions.irqreturn, "xa"

        br    .Lexception_exit
 2808088:	00000706 	br	28080a8 <alt_exception+0x88>
         * upon completion, so we write ea (address of instruction *after*
         * the one where the exception occured) into 72(sp). The actual
         * instruction that caused the exception is written in r2, which these
         * handlers will utilize.
         */
        stw   ea,  72(sp)  /* Don't re-issue */
 280808c:	df401215 	stw	ea,72(sp)
        ldw   r2, -4(ea)   /* Instruction that caused exception */
 2808090:	e8bfff17 	ldw	r2,-4(ea)
         * debugger is present) or go into an infinite loop since the
         * handling behavior is undefined; in that case we will not return here.
         */

        /* Load exception-causing address as first argument (r4) */
        addi   r4, ea, -4
 2808094:	e93fff04 	addi	r4,ea,-4

        /* Call the instruction-exception entry */
        call   alt_instruction_exception_entry
 2808098:	28081c40 	call	28081c4 <alt_instruction_exception_entry>
         * instruction
         *
         * Return code was 0: Skip. The instruction after the exception is
         * already stored in 72(sp).
         */
        bne   r2, r0, .Lexception_exit
 280809c:	1000021e 	bne	r2,zero,28080a8 <alt_exception+0x88>

        /*
         * Otherwise, modify 72(sp) to re-issue the instruction that caused the
         * exception.
         */
        addi  r15, ea, -4  /* instruction that caused exception */
 28080a0:	ebffff04 	addi	r15,ea,-4
        stw   r15,  72(sp)
 28080a4:	dbc01215 	stw	r15,72(sp)
        /* 
         * Restore the saved registers, so that all general purpose registers 
         * have been restored to their state at the time the interrupt occured.
         */

        ldw   r5,  68(sp)
 28080a8:	d9401117 	ldw	r5,68(sp)
        ldw   ea,  72(sp)  /* This becomes the PC once eret is executed */
 28080ac:	df401217 	ldw	ea,72(sp)
        ldw   ra,   0(sp)
 28080b0:	dfc00017 	ldw	ra,0(sp)

        wrctl estatus, r5
 28080b4:	2801707a 	wrctl	estatus,r5

        ldw   r1,   8(sp)
 28080b8:	d8400217 	ldw	at,8(sp)
        ldw   r2,  12(sp)
 28080bc:	d8800317 	ldw	r2,12(sp)
        ldw   r3,  16(sp)
 28080c0:	d8c00417 	ldw	r3,16(sp)
        ldw   r4,  20(sp)
 28080c4:	d9000517 	ldw	r4,20(sp)
        ldw   r5,  24(sp)
 28080c8:	d9400617 	ldw	r5,24(sp)
        ldw   r6,  28(sp)
 28080cc:	d9800717 	ldw	r6,28(sp)
        ldw   r7,  32(sp)
 28080d0:	d9c00817 	ldw	r7,32(sp)
#ifdef ALT_STACK_CHECK
        ldw   et, %gprel(alt_exception_old_stack_limit)(gp)
#endif
#endif

        ldw   r8,  36(sp)
 28080d4:	da000917 	ldw	r8,36(sp)
        ldw   r9,  40(sp)
 28080d8:	da400a17 	ldw	r9,40(sp)
        ldw   r10, 44(sp)
 28080dc:	da800b17 	ldw	r10,44(sp)
        ldw   r11, 48(sp)
 28080e0:	dac00c17 	ldw	r11,48(sp)
        ldw   r12, 52(sp)
 28080e4:	db000d17 	ldw	r12,52(sp)
        ldw   r13, 56(sp)
 28080e8:	db400e17 	ldw	r13,56(sp)
        ldw   r14, 60(sp)
 28080ec:	db800f17 	ldw	r14,60(sp)
        ldw   r15, 64(sp)
 28080f0:	dbc01017 	ldw	r15,64(sp)
#endif

        ldw   sp,  76(sp)

#else
        addi  sp, sp, 76
 28080f4:	dec01304 	addi	sp,sp,76

        /*
         * Return to the interrupted instruction.
         */

        eret
 28080f8:	ef80083a 	eret

028080fc <alt_irq_handler>:
 * instruction is present if the macro ALT_CI_INTERRUPT_VECTOR defined.
 */

void alt_irq_handler (void) __attribute__ ((section (".exceptions")));
void alt_irq_handler (void)
{
 28080fc:	defff904 	addi	sp,sp,-28
 2808100:	dfc00615 	stw	ra,24(sp)
 2808104:	df000515 	stw	fp,20(sp)
 2808108:	df000504 	addi	fp,sp,20
#ifndef NIOS2_EIC_PRESENT
static ALT_INLINE alt_u32 ALT_ALWAYS_INLINE alt_irq_pending (void)
{
  alt_u32 active;

  NIOS2_READ_IPENDING (active);
 280810c:	0005313a 	rdctl	r2,ipending
 2808110:	e0bffc15 	stw	r2,-16(fp)

  return active;
 2808114:	e0bffc17 	ldw	r2,-16(fp)
   * Consider the case where the high priority interupt is asserted during
   * the interrupt entry sequence for a lower priority interrupt to see why
   * this is the case.
   */

  active = alt_irq_pending ();
 2808118:	e0bfff15 	stw	r2,-4(fp)

  do
  {
    i = 0;
 280811c:	e03ffd15 	stw	zero,-12(fp)
    mask = 1;
 2808120:	00800044 	movi	r2,1
 2808124:	e0bffe15 	stw	r2,-8(fp)
     * called to clear the interrupt condition.
     */

    do
    {
      if (active & mask)
 2808128:	e0ffff17 	ldw	r3,-4(fp)
 280812c:	e0bffe17 	ldw	r2,-8(fp)
 2808130:	1884703a 	and	r2,r3,r2
 2808134:	1005003a 	cmpeq	r2,r2,zero
 2808138:	1000161e 	bne	r2,zero,2808194 <alt_irq_handler+0x98>
      { 
#ifdef ALT_ENHANCED_INTERRUPT_API_PRESENT
        alt_irq[i].handler(alt_irq[i].context); 
 280813c:	e0bffd17 	ldw	r2,-12(fp)
 2808140:	00c06074 	movhi	r3,385
 2808144:	18caf704 	addi	r3,r3,11228
 2808148:	100490fa 	slli	r2,r2,3
 280814c:	10c5883a 	add	r2,r2,r3
 2808150:	11400017 	ldw	r5,0(r2)
 2808154:	e0bffd17 	ldw	r2,-12(fp)
 2808158:	00c06074 	movhi	r3,385
 280815c:	18caf704 	addi	r3,r3,11228
 2808160:	100490fa 	slli	r2,r2,3
 2808164:	10c5883a 	add	r2,r2,r3
 2808168:	10800104 	addi	r2,r2,4
 280816c:	11000017 	ldw	r4,0(r2)
 2808170:	283ee83a 	callr	r5
#ifndef NIOS2_EIC_PRESENT
static ALT_INLINE alt_u32 ALT_ALWAYS_INLINE alt_irq_pending (void)
{
  alt_u32 active;

  NIOS2_READ_IPENDING (active);
 2808174:	0005313a 	rdctl	r2,ipending
 2808178:	e0bffb15 	stw	r2,-20(fp)

  return active;
 280817c:	e0bffb17 	ldw	r2,-20(fp)
      mask <<= 1;
      i++;

    } while (1);

    active = alt_irq_pending ();
 2808180:	e0bfff15 	stw	r2,-4(fp)
    
  } while (active);
 2808184:	e0bfff17 	ldw	r2,-4(fp)
 2808188:	1004c03a 	cmpne	r2,r2,zero
 280818c:	103fe31e 	bne	r2,zero,280811c <alt_irq_handler+0x20>
 2808190:	00000706 	br	28081b0 <alt_irq_handler+0xb4>
#else
        alt_irq[i].handler(alt_irq[i].context, i); 
#endif
        break;
      }
      mask <<= 1;
 2808194:	e0bffe17 	ldw	r2,-8(fp)
 2808198:	1085883a 	add	r2,r2,r2
 280819c:	e0bffe15 	stw	r2,-8(fp)
      i++;
 28081a0:	e0bffd17 	ldw	r2,-12(fp)
 28081a4:	10800044 	addi	r2,r2,1
 28081a8:	e0bffd15 	stw	r2,-12(fp)

    } while (1);
 28081ac:	003fde06 	br	2808128 <alt_irq_handler+0x2c>
  /*
   * Notify the operating system that interrupt processing is complete.
   */ 

  ALT_OS_INT_EXIT();
}
 28081b0:	e037883a 	mov	sp,fp
 28081b4:	dfc00117 	ldw	ra,4(sp)
 28081b8:	df000017 	ldw	fp,0(sp)
 28081bc:	dec00204 	addi	sp,sp,8
 28081c0:	f800283a 	ret

028081c4 <alt_instruction_exception_entry>:
 * using alt_instruction_exception_register(). This routine will call
 * that handler if it has been registered. Absent a handler, it will
 * break break or hang as discussed below.
 */
int alt_instruction_exception_entry (alt_u32 exception_pc)
{
 28081c4:	defffa04 	addi	sp,sp,-24
 28081c8:	dfc00515 	stw	ra,20(sp)
 28081cc:	df000415 	stw	fp,16(sp)
 28081d0:	df000404 	addi	fp,sp,16
 28081d4:	e13ffe15 	stw	r4,-8(fp)
  cause = ( (cause & NIOS2_EXCEPTION_REG_CAUSE_MASK) >>
              NIOS2_EXCEPTION_REG_CAUSE_OFST );

  NIOS2_READ_BADADDR(badaddr);
#else
  cause = NIOS2_EXCEPTION_CAUSE_NOT_PRESENT;
 28081d8:	00bfffc4 	movi	r2,-1
 28081dc:	e0bffd15 	stw	r2,-12(fp)
  badaddr = 0;
 28081e0:	e03ffc15 	stw	zero,-16(fp)
#endif /* NIOS2_HAS_EXTRA_EXCEPTION_INFO */

  if(alt_instruction_exception_handler) {
 28081e4:	d0a02117 	ldw	r2,-32636(gp)
 28081e8:	1005003a 	cmpeq	r2,r2,zero
 28081ec:	1000071e 	bne	r2,zero,280820c <alt_instruction_exception_entry+0x48>
     * Call handler. Its return value indicates whether the exception-causing
     * instruction should be re-issued. The code that called us,
     * alt_eceptions_entry.S, will look at this value and adjust the ea
     * register as necessary
     */
    return alt_instruction_exception_handler(cause, exception_pc, badaddr);
 28081f0:	d0a02117 	ldw	r2,-32636(gp)
 28081f4:	e13ffd17 	ldw	r4,-12(fp)
 28081f8:	e17ffe17 	ldw	r5,-8(fp)
 28081fc:	e1bffc17 	ldw	r6,-16(fp)
 2808200:	103ee83a 	callr	r2
 2808204:	e0bfff15 	stw	r2,-4(fp)
 2808208:	00000206 	br	2808214 <alt_instruction_exception_entry+0x50>
   *    (a peripheral which negates its interrupt output before its
   *    interrupt handler has been executed will cause spurious interrupts)
   */
  else {
#ifdef NIOS2_HAS_DEBUG_STUB
    NIOS2_BREAK();
 280820c:	003da03a 	break	0
      ;
#endif /* NIOS2_HAS_DEBUG_STUB */
  }

  /* // We should not get here. Remove compiler warning. */
  return NIOS2_EXCEPTION_RETURN_REISSUE_INST;
 2808210:	e03fff15 	stw	zero,-4(fp)
 2808214:	e0bfff17 	ldw	r2,-4(fp)
}
 2808218:	e037883a 	mov	sp,fp
 280821c:	dfc00117 	ldw	ra,4(sp)
 2808220:	df000017 	ldw	fp,0(sp)
 2808224:	dec00204 	addi	sp,sp,8
 2808228:	f800283a 	ret

Disassembly of section .text:

01800000 <_start>:

    /* Assume the data cache size is always a power of two. */
#if NIOS2_DCACHE_SIZE > 0x8000
    movhi r2, %hi(NIOS2_DCACHE_SIZE)
#else
    movui r2, NIOS2_DCACHE_SIZE
 1800000:	00840014 	movui	r2,4096
#endif

0:
    initd 0(r2)
 1800004:	10000033 	initd	0(r2)
    addi r2, r2, -NIOS2_DCACHE_LINE_SIZE
 1800008:	10bff804 	addi	r2,r2,-32
    bgt r2, zero, 0b
 180000c:	00bffd16 	blt	zero,r2,1800004 <_start+0x4>
#if (NIOS2_NUM_OF_SHADOW_REG_SETS == 0)    
    /*
     * Now that the caches are initialized, set up the stack pointer.
     * The value provided by the linker is assumed to be correctly aligned.
     */
    movhi sp, %hi(__alt_stack_pointer)
 1800010:	06c08034 	movhi	sp,512
    ori sp, sp, %lo(__alt_stack_pointer)
 1800014:	dec00014 	ori	sp,sp,0

    /* Set up the global pointer. */
    movhi gp, %hi(_gp)
 1800018:	06806074 	movhi	gp,385
    ori gp, gp, %lo(_gp)
 180001c:	d6aacb14 	ori	gp,gp,43820
 */
#ifndef ALT_SIM_OPTIMIZE
    /* Log that the BSS is about to be cleared. */
    ALT_LOG_PUTS(alt_log_msg_bss)

    movhi r2, %hi(__bss_start)
 1800020:	00806074 	movhi	r2,385
    ori r2, r2, %lo(__bss_start)
 1800024:	108adf14 	ori	r2,r2,11132

    movhi r3, %hi(__bss_end)
 1800028:	00c06074 	movhi	r3,385
    ori r3, r3, %lo(__bss_end)
 180002c:	18cb9b14 	ori	r3,r3,11884

    beq r2, r3, 1f
 1800030:	10c00326 	beq	r2,r3,1800040 <_start+0x40>

0:
    stw zero, (r2)
 1800034:	10000015 	stw	zero,0(r2)
    addi r2, r2, 4
 1800038:	10800104 	addi	r2,r2,4
    bltu r2, r3, 0b
 180003c:	10fffd36 	bltu	r2,r3,1800034 <_start+0x34>

    /* Log that alt_main is about to be called. */
    ALT_LOG_PUTS(alt_log_msg_alt_main)

    /* Call the C entry point. It should never return. */
    call alt_main
 1800040:	180a1dc0 	call	180a1dc <alt_main>

01800044 <alt_after_alt_main>:

    /* Wait in infinite loop in case alt_main does return. */
alt_after_alt_main:
    br alt_after_alt_main
 1800044:	003fff06 	br	1800044 <alt_after_alt_main>

01800048 <main>:

#include <stdio.h>
#include "pwm.h"

int main()
{
 1800048:	defffc04 	addi	sp,sp,-16
 180004c:	dfc00315 	stw	ra,12(sp)
 1800050:	df000215 	stw	fp,8(sp)
 1800054:	df000204 	addi	fp,sp,8
	printf("lololol lolol\n");
 1800058:	01006074 	movhi	r4,385
 180005c:	21021104 	addi	r4,r4,2116
 1800060:	18006840 	call	1800684 <puts>
  Initilise_PWM('G');
 1800064:	010011c4 	movi	r4,71
 1800068:	180015c0 	call	180015c <Initilise_PWM>
  Initilise_PWM('W');
 180006c:	010015c4 	movi	r4,87
 1800070:	180015c0 	call	180015c <Initilise_PWM>
  Initilise_PWM('E');
 1800074:	01001144 	movi	r4,69
 1800078:	180015c0 	call	180015c <Initilise_PWM>
  Initilise_PWM('S');
 180007c:	010014c4 	movi	r4,83
 1800080:	180015c0 	call	180015c <Initilise_PWM>
  Initilise_PWM('B');
 1800084:	01001084 	movi	r4,66
 1800088:	180015c0 	call	180015c <Initilise_PWM>
  printf("initialised\n");
 180008c:	01006074 	movhi	r4,385
 1800090:	21021504 	addi	r4,r4,2132
 1800094:	18006840 	call	1800684 <puts>
  int pwm = 75;
 1800098:	008012c4 	movi	r2,75
 180009c:	e0bfff15 	stw	r2,-4(fp)
  int dir = 1;
 18000a0:	00800044 	movi	r2,1
 18000a4:	e0bffe15 	stw	r2,-8(fp)

  while(1)
  {
	  if((pwm == 125) || (pwm == 25))
 18000a8:	e0bfff17 	ldw	r2,-4(fp)
 18000ac:	10801f60 	cmpeqi	r2,r2,125
 18000b0:	1000031e 	bne	r2,zero,18000c0 <main+0x78>
 18000b4:	e0bfff17 	ldw	r2,-4(fp)
 18000b8:	10800658 	cmpnei	r2,r2,25
 18000bc:	1000031e 	bne	r2,zero,18000cc <main+0x84>
		{
			dir = !dir;
 18000c0:	e0bffe17 	ldw	r2,-8(fp)
 18000c4:	1005003a 	cmpeq	r2,r2,zero
 18000c8:	e0bffe15 	stw	r2,-8(fp)
		}

	  if(dir == 1)
 18000cc:	e0bffe17 	ldw	r2,-8(fp)
 18000d0:	10800058 	cmpnei	r2,r2,1
 18000d4:	1000041e 	bne	r2,zero,18000e8 <main+0xa0>
	  {
		  pwm++;
 18000d8:	e0bfff17 	ldw	r2,-4(fp)
 18000dc:	10800044 	addi	r2,r2,1
 18000e0:	e0bfff15 	stw	r2,-4(fp)
 18000e4:	00000606 	br	1800100 <main+0xb8>
	  }
	  else if(dir == 0)
 18000e8:	e0bffe17 	ldw	r2,-8(fp)
 18000ec:	1004c03a 	cmpne	r2,r2,zero
 18000f0:	1000031e 	bne	r2,zero,1800100 <main+0xb8>
	  {
		  pwm--;
 18000f4:	e0bfff17 	ldw	r2,-4(fp)
 18000f8:	10bfffc4 	addi	r2,r2,-1
 18000fc:	e0bfff15 	stw	r2,-4(fp)
	  }
	  //write to the pwm modules
	  Set_Servo_Position('G', pwm);
 1800100:	010011c4 	movi	r4,71
 1800104:	e17fff17 	ldw	r5,-4(fp)
 1800108:	180043c0 	call	180043c <Set_Servo_Position>
	  Set_Servo_Position('W', 60);
 180010c:	010015c4 	movi	r4,87
 1800110:	01400f04 	movi	r5,60
 1800114:	180043c0 	call	180043c <Set_Servo_Position>
	  Set_Servo_Position('E', 70);
 1800118:	01001144 	movi	r4,69
 180011c:	01401184 	movi	r5,70
 1800120:	180043c0 	call	180043c <Set_Servo_Position>
	  Set_Servo_Position('S', 80);
 1800124:	010014c4 	movi	r4,83
 1800128:	01401404 	movi	r5,80
 180012c:	180043c0 	call	180043c <Set_Servo_Position>
	  Set_Servo_Position('B', 90);
 1800130:	01001084 	movi	r4,66
 1800134:	01401684 	movi	r5,90
 1800138:	180043c0 	call	180043c <Set_Servo_Position>
	  usleep(100000);
 180013c:	010000b4 	movhi	r4,2
 1800140:	2121a804 	addi	r4,r4,-31072
 1800144:	180a5240 	call	180a524 <usleep>
	  printf("set to %d\n", pwm);
 1800148:	01006074 	movhi	r4,385
 180014c:	21021804 	addi	r4,r4,2144
 1800150:	e17fff17 	ldw	r5,-4(fp)
 1800154:	180056c0 	call	180056c <printf>
  }
 1800158:	003fd306 	br	18000a8 <main+0x60>

0180015c <Initilise_PWM>:
 *  Description : This module runs the start up sequence for whichever PWM module is specified
 *                by the input variable
 *
 **************************************************************************************************/
int Initilise_PWM(char Module_To_Initilise)
{
 180015c:	defffd04 	addi	sp,sp,-12
 1800160:	df000215 	stw	fp,8(sp)
 1800164:	df000204 	addi	fp,sp,8
 1800168:	e13ffe05 	stb	r4,-8(fp)
    switch (Module_To_Initilise)
 180016c:	e0bffe07 	ldb	r2,-8(fp)
 1800170:	10bfef84 	addi	r2,r2,-66
 1800174:	e0bfff15 	stw	r2,-4(fp)
 1800178:	e0ffff17 	ldw	r3,-4(fp)
 180017c:	188005a8 	cmpgeui	r2,r3,22
 1800180:	10006b1e 	bne	r2,zero,1800330 <Initilise_PWM+0x1d4>
 1800184:	e13fff17 	ldw	r4,-4(fp)
 1800188:	e13fff17 	ldw	r4,-4(fp)
 180018c:	2105883a 	add	r2,r4,r4
 1800190:	1087883a 	add	r3,r2,r2
 1800194:	00806034 	movhi	r2,384
 1800198:	10806a04 	addi	r2,r2,424
 180019c:	1885883a 	add	r2,r3,r2
 18001a0:	10800017 	ldw	r2,0(r2)
 18001a4:	1000683a 	jmp	r2
 18001a8:	01800200 	call	180020 <__alt_mem_sdram-0x167ffe0>
 18001ac:	01800330 	cmpltui	r6,zero,12
 18001b0:	01800330 	cmpltui	r6,zero,12
 18001b4:	01800298 	cmpnei	r6,zero,10
 18001b8:	01800330 	cmpltui	r6,zero,12
 18001bc:	01800300 	call	180030 <__alt_mem_sdram-0x167ffd0>
 18001c0:	01800330 	cmpltui	r6,zero,12
 18001c4:	01800330 	cmpltui	r6,zero,12
 18001c8:	01800330 	cmpltui	r6,zero,12
 18001cc:	01800330 	cmpltui	r6,zero,12
 18001d0:	01800330 	cmpltui	r6,zero,12
 18001d4:	01800330 	cmpltui	r6,zero,12
 18001d8:	01800330 	cmpltui	r6,zero,12
 18001dc:	01800330 	cmpltui	r6,zero,12
 18001e0:	01800330 	cmpltui	r6,zero,12
 18001e4:	01800330 	cmpltui	r6,zero,12
 18001e8:	01800330 	cmpltui	r6,zero,12
 18001ec:	01800234 	movhi	r6,8
 18001f0:	01800330 	cmpltui	r6,zero,12
 18001f4:	01800330 	cmpltui	r6,zero,12
 18001f8:	01800330 	cmpltui	r6,zero,12
 18001fc:	018002cc 	andi	r6,zero,11
    {
        case 'B' :
            IOWR_ALTERA_AVALON_PWM_CLK_DIV(MY_PWM_5_BASE, 100);
 1800200:	00c07104 	movi	r3,452
 1800204:	00801904 	movi	r2,100
 1800208:	18800035 	stwio	r2,0(r3)
            IOWR_ALTERA_AVALON_PWM_DUTY(MY_PWM_5_BASE, 50);
 180020c:	00c07004 	movi	r3,448
 1800210:	00800c84 	movi	r2,50
 1800214:	18800035 	stwio	r2,0(r3)
            IOWR_ALTERA_AVALON_PWM_PERIOD(MY_PWM_5_BASE, 1000);
 1800218:	00c07204 	movi	r3,456
 180021c:	0080fa04 	movi	r2,1000
 1800220:	18800035 	stwio	r2,0(r3)
            IOWR_ALTERA_AVALON_PWM_CONTROL(MY_PWM_5_BASE, 1);
 1800224:	00c07304 	movi	r3,460
 1800228:	00800044 	movi	r2,1
 180022c:	18800035 	stwio	r2,0(r3)
            break;
 1800230:	00003f06 	br	1800330 <Initilise_PWM+0x1d4>

        case 'S' :
            IOWR_ALTERA_AVALON_PWM_CLK_DIV(MY_PWM_3_BASE, 100);
 1800234:	00c06904 	movi	r3,420
 1800238:	00801904 	movi	r2,100
 180023c:	18800035 	stwio	r2,0(r3)
            IOWR_ALTERA_AVALON_PWM_DUTY(MY_PWM_3_BASE, 50);
 1800240:	00c06804 	movi	r3,416
 1800244:	00800c84 	movi	r2,50
 1800248:	18800035 	stwio	r2,0(r3)
            IOWR_ALTERA_AVALON_PWM_PERIOD(MY_PWM_3_BASE, 1000);
 180024c:	00c06a04 	movi	r3,424
 1800250:	0080fa04 	movi	r2,1000
 1800254:	18800035 	stwio	r2,0(r3)
            IOWR_ALTERA_AVALON_PWM_CONTROL(MY_PWM_3_BASE, 1);
 1800258:	00c06b04 	movi	r3,428
 180025c:	00800044 	movi	r2,1
 1800260:	18800035 	stwio	r2,0(r3)

            IOWR_ALTERA_AVALON_PWM_CLK_DIV(MY_PWM_4_BASE, 100);
 1800264:	00c06d04 	movi	r3,436
 1800268:	00801904 	movi	r2,100
 180026c:	18800035 	stwio	r2,0(r3)
            IOWR_ALTERA_AVALON_PWM_DUTY(MY_PWM_4_BASE, 50);
 1800270:	00c06c04 	movi	r3,432
 1800274:	00800c84 	movi	r2,50
 1800278:	18800035 	stwio	r2,0(r3)
            IOWR_ALTERA_AVALON_PWM_PERIOD(MY_PWM_4_BASE, 1000);
 180027c:	00c06e04 	movi	r3,440
 1800280:	0080fa04 	movi	r2,1000
 1800284:	18800035 	stwio	r2,0(r3)
            IOWR_ALTERA_AVALON_PWM_CONTROL(MY_PWM_4_BASE, 1);
 1800288:	00c06f04 	movi	r3,444
 180028c:	00800044 	movi	r2,1
 1800290:	18800035 	stwio	r2,0(r3)
            break;
 1800294:	00002606 	br	1800330 <Initilise_PWM+0x1d4>

        case 'E' :
            IOWR_ALTERA_AVALON_PWM_CLK_DIV(MY_PWM_2_BASE, 100);
 1800298:	00c06504 	movi	r3,404
 180029c:	00801904 	movi	r2,100
 18002a0:	18800035 	stwio	r2,0(r3)
            IOWR_ALTERA_AVALON_PWM_DUTY(MY_PWM_2_BASE, 50);
 18002a4:	00c06404 	movi	r3,400
 18002a8:	00800c84 	movi	r2,50
 18002ac:	18800035 	stwio	r2,0(r3)
            IOWR_ALTERA_AVALON_PWM_PERIOD(MY_PWM_2_BASE, 1000);
 18002b0:	00c06604 	movi	r3,408
 18002b4:	0080fa04 	movi	r2,1000
 18002b8:	18800035 	stwio	r2,0(r3)
            IOWR_ALTERA_AVALON_PWM_CONTROL(MY_PWM_2_BASE, 1);
 18002bc:	00c06704 	movi	r3,412
 18002c0:	00800044 	movi	r2,1
 18002c4:	18800035 	stwio	r2,0(r3)
            break;
 18002c8:	00001906 	br	1800330 <Initilise_PWM+0x1d4>

        case 'W' :
            IOWR_ALTERA_AVALON_PWM_CLK_DIV(MY_PWM_1_BASE, 100);
 18002cc:	00c06104 	movi	r3,388
 18002d0:	00801904 	movi	r2,100
 18002d4:	18800035 	stwio	r2,0(r3)
            IOWR_ALTERA_AVALON_PWM_DUTY(MY_PWM_1_BASE, 50);
 18002d8:	00c06004 	movi	r3,384
 18002dc:	00800c84 	movi	r2,50
 18002e0:	18800035 	stwio	r2,0(r3)
            IOWR_ALTERA_AVALON_PWM_PERIOD(MY_PWM_1_BASE, 1000);
 18002e4:	00c06204 	movi	r3,392
 18002e8:	0080fa04 	movi	r2,1000
 18002ec:	18800035 	stwio	r2,0(r3)
            IOWR_ALTERA_AVALON_PWM_CONTROL(MY_PWM_1_BASE, 1);
 18002f0:	00c06304 	movi	r3,396
 18002f4:	00800044 	movi	r2,1
 18002f8:	18800035 	stwio	r2,0(r3)
            break;
 18002fc:	00000c06 	br	1800330 <Initilise_PWM+0x1d4>

        case 'G' :
            IOWR_ALTERA_AVALON_PWM_CLK_DIV(MY_PWM_0_BASE,100);
 1800300:	00c05d04 	movi	r3,372
 1800304:	00801904 	movi	r2,100
 1800308:	18800035 	stwio	r2,0(r3)
            IOWR_ALTERA_AVALON_PWM_DUTY(MY_PWM_0_BASE, 50);
 180030c:	00c05c04 	movi	r3,368
 1800310:	00800c84 	movi	r2,50
 1800314:	18800035 	stwio	r2,0(r3)
            IOWR_ALTERA_AVALON_PWM_PERIOD(MY_PWM_0_BASE, 1000);
 1800318:	00c05e04 	movi	r3,376
 180031c:	0080fa04 	movi	r2,1000
 1800320:	18800035 	stwio	r2,0(r3)
            IOWR_ALTERA_AVALON_PWM_CONTROL(MY_PWM_0_BASE, 1);
 1800324:	00c05f04 	movi	r3,380
 1800328:	00800044 	movi	r2,1
 180032c:	18800035 	stwio	r2,0(r3)

            default :
            	break;
                return 0;
    }
    return 1;
 1800330:	00800044 	movi	r2,1
}
 1800334:	e037883a 	mov	sp,fp
 1800338:	df000017 	ldw	fp,0(sp)
 180033c:	dec00104 	addi	sp,sp,4
 1800340:	f800283a 	ret

01800344 <Set_PWM_Duty_Cycle>:
 *
 *  Description : This module updates the duty cycle for the selected PWM module
 *
 **************************************************************************************************/
int Set_PWM_Duty_Cycle ( int Channel, int Duty_Cycle)
{
 1800344:	defffb04 	addi	sp,sp,-20
 1800348:	df000415 	stw	fp,16(sp)
 180034c:	df000404 	addi	fp,sp,16
 1800350:	e13ffd15 	stw	r4,-12(fp)
 1800354:	e17ffe15 	stw	r5,-8(fp)
    //get address of PWM Channel

    int Address = 0;
 1800358:	e03ffc15 	stw	zero,-16(fp)

    switch (Channel)
 180035c:	e0bffd17 	ldw	r2,-12(fp)
 1800360:	108001e8 	cmpgeui	r2,r2,7
 1800364:	1000211e 	bne	r2,zero,18003ec <Set_PWM_Duty_Cycle+0xa8>
 1800368:	e0bffd17 	ldw	r2,-12(fp)
 180036c:	1085883a 	add	r2,r2,r2
 1800370:	1087883a 	add	r3,r2,r2
 1800374:	00806034 	movhi	r2,384
 1800378:	1080e204 	addi	r2,r2,904
 180037c:	1885883a 	add	r2,r3,r2
 1800380:	10800017 	ldw	r2,0(r2)
 1800384:	1000683a 	jmp	r2
 1800388:	018003ec 	andhi	r6,zero,15
 180038c:	018003a4 	muli	r6,zero,14
 1800390:	018003b0 	cmpltui	r6,zero,14
 1800394:	018003bc 	xorhi	r6,zero,14
 1800398:	018003c8 	cmpgei	r6,zero,15
 180039c:	018003d4 	movui	r6,15
 18003a0:	018003e0 	cmpeqi	r6,zero,15
    {
        case 1 :
            Address = MY_PWM_0_BASE;
 18003a4:	00805c04 	movi	r2,368
 18003a8:	e0bffc15 	stw	r2,-16(fp)
            break;
 18003ac:	00001106 	br	18003f4 <Set_PWM_Duty_Cycle+0xb0>
        case 2 :
            Address = MY_PWM_1_BASE;
 18003b0:	00806004 	movi	r2,384
 18003b4:	e0bffc15 	stw	r2,-16(fp)
            break;
 18003b8:	00000e06 	br	18003f4 <Set_PWM_Duty_Cycle+0xb0>
        case 3 :
            Address = MY_PWM_2_BASE;
 18003bc:	00806404 	movi	r2,400
 18003c0:	e0bffc15 	stw	r2,-16(fp)
            break;
 18003c4:	00000b06 	br	18003f4 <Set_PWM_Duty_Cycle+0xb0>
        case 4 :
            Address = MY_PWM_3_BASE;
 18003c8:	00806804 	movi	r2,416
 18003cc:	e0bffc15 	stw	r2,-16(fp)
            break;
 18003d0:	00000806 	br	18003f4 <Set_PWM_Duty_Cycle+0xb0>
        case 5 :
            Address = MY_PWM_4_BASE;
 18003d4:	00806c04 	movi	r2,432
 18003d8:	e0bffc15 	stw	r2,-16(fp)
            break;
 18003dc:	00000506 	br	18003f4 <Set_PWM_Duty_Cycle+0xb0>
        case 6 :
            Address = MY_PWM_5_BASE;
 18003e0:	00807004 	movi	r2,448
 18003e4:	e0bffc15 	stw	r2,-16(fp)
            break;
 18003e8:	00000206 	br	18003f4 <Set_PWM_Duty_Cycle+0xb0>
        default :
            //unrecognised channal selected
            return 0;
 18003ec:	e03fff15 	stw	zero,-4(fp)
 18003f0:	00000d06 	br	1800428 <Set_PWM_Duty_Cycle+0xe4>

    }

    //check the desired PWM module is active
    if(IORD_ALTERA_AVALON_PWM_CONTROL(Address) == 0)
 18003f4:	e0bffc17 	ldw	r2,-16(fp)
 18003f8:	10800304 	addi	r2,r2,12
 18003fc:	10800037 	ldwio	r2,0(r2)
 1800400:	1004c03a 	cmpne	r2,r2,zero
 1800404:	1000021e 	bne	r2,zero,1800410 <Set_PWM_Duty_Cycle+0xcc>
    {
        return 0;
 1800408:	e03fff15 	stw	zero,-4(fp)
 180040c:	00000606 	br	1800428 <Set_PWM_Duty_Cycle+0xe4>

    //check duty cycle is within bounds (0-100)
    //if(Duty_Cycle > 125) Duty_Cycle = 125;
    //if(Duty_Cycle < 25) Duty_Cycle = 0;
    //set the channel to the desired Duty Cycle
    IOWR_ALTERA_AVALON_PWM_DUTY(Address, Duty_Cycle);
 1800410:	e0bffc17 	ldw	r2,-16(fp)
 1800414:	1007883a 	mov	r3,r2
 1800418:	e0bffe17 	ldw	r2,-8(fp)
 180041c:	18800035 	stwio	r2,0(r3)

    return 1;
 1800420:	00800044 	movi	r2,1
 1800424:	e0bfff15 	stw	r2,-4(fp)
 1800428:	e0bfff17 	ldw	r2,-4(fp)
}
 180042c:	e037883a 	mov	sp,fp
 1800430:	df000017 	ldw	fp,0(sp)
 1800434:	dec00104 	addi	sp,sp,4
 1800438:	f800283a 	ret

0180043c <Set_Servo_Position>:
 *
 *  Description : This module updates the duty cycle for the selected PWM module
 *
 **************************************************************************************************/
int Set_Servo_Position (char Servo, int Position)
{
 180043c:	defffa04 	addi	sp,sp,-24
 1800440:	dfc00515 	stw	ra,20(sp)
 1800444:	df000415 	stw	fp,16(sp)
 1800448:	df000404 	addi	fp,sp,16
 180044c:	e17ffd15 	stw	r5,-12(fp)
 1800450:	e13ffc05 	stb	r4,-16(fp)
    switch (Servo)
 1800454:	e0bffc07 	ldb	r2,-16(fp)
 1800458:	10bfef84 	addi	r2,r2,-66
 180045c:	e0bfff15 	stw	r2,-4(fp)
 1800460:	e0ffff17 	ldw	r3,-4(fp)
 1800464:	188005a8 	cmpgeui	r2,r3,22
 1800468:	1000361e 	bne	r2,zero,1800544 <Set_Servo_Position+0x108>
 180046c:	e13fff17 	ldw	r4,-4(fp)
 1800470:	e13fff17 	ldw	r4,-4(fp)
 1800474:	2105883a 	add	r2,r4,r4
 1800478:	1087883a 	add	r3,r2,r2
 180047c:	00806034 	movhi	r2,384
 1800480:	10812404 	addi	r2,r2,1168
 1800484:	1885883a 	add	r2,r3,r2
 1800488:	10800017 	ldw	r2,0(r2)
 180048c:	1000683a 	jmp	r2
 1800490:	01800534 	movhi	r6,20
 1800494:	01800544 	movi	r6,21
 1800498:	01800544 	movi	r6,21
 180049c:	01800508 	cmpgei	r6,zero,20
 18004a0:	01800544 	movi	r6,21
 18004a4:	018004e8 	cmpgeui	r6,zero,19
 18004a8:	01800544 	movi	r6,21
 18004ac:	01800544 	movi	r6,21
 18004b0:	01800544 	movi	r6,21
 18004b4:	01800544 	movi	r6,21
 18004b8:	01800544 	movi	r6,21
 18004bc:	01800544 	movi	r6,21
 18004c0:	01800544 	movi	r6,21
 18004c4:	01800544 	movi	r6,21
 18004c8:	01800544 	movi	r6,21
 18004cc:	01800544 	movi	r6,21
 18004d0:	01800544 	movi	r6,21
 18004d4:	01800518 	cmpnei	r6,zero,20
 18004d8:	01800544 	movi	r6,21
 18004dc:	01800544 	movi	r6,21
 18004e0:	01800544 	movi	r6,21
 18004e4:	018004f8 	rdprs	r6,zero,19
    {
        case 'G' :
        	Set_PWM_Duty_Cycle(1, Position);
 18004e8:	01000044 	movi	r4,1
 18004ec:	e17ffd17 	ldw	r5,-12(fp)
 18004f0:	18003440 	call	1800344 <Set_PWM_Duty_Cycle>
            break;
 18004f4:	00001506 	br	180054c <Set_Servo_Position+0x110>
        case 'W' :
        	Set_PWM_Duty_Cycle(2, Position);
 18004f8:	01000084 	movi	r4,2
 18004fc:	e17ffd17 	ldw	r5,-12(fp)
 1800500:	18003440 	call	1800344 <Set_PWM_Duty_Cycle>
            break;
 1800504:	00001106 	br	180054c <Set_Servo_Position+0x110>
        case 'E' :
        	Set_PWM_Duty_Cycle(3, Position);
 1800508:	010000c4 	movi	r4,3
 180050c:	e17ffd17 	ldw	r5,-12(fp)
 1800510:	18003440 	call	1800344 <Set_PWM_Duty_Cycle>
            break;
 1800514:	00000d06 	br	180054c <Set_Servo_Position+0x110>
        case 'S' :
        	Set_PWM_Duty_Cycle(4, Position);
 1800518:	01000104 	movi	r4,4
 180051c:	e17ffd17 	ldw	r5,-12(fp)
 1800520:	18003440 	call	1800344 <Set_PWM_Duty_Cycle>
        	Set_PWM_Duty_Cycle(5, Position);
 1800524:	01000144 	movi	r4,5
 1800528:	e17ffd17 	ldw	r5,-12(fp)
 180052c:	18003440 	call	1800344 <Set_PWM_Duty_Cycle>
            break;
 1800530:	00000606 	br	180054c <Set_Servo_Position+0x110>
        case 'B' :
        	Set_PWM_Duty_Cycle(6, Position);
 1800534:	01000184 	movi	r4,6
 1800538:	e17ffd17 	ldw	r5,-12(fp)
 180053c:	18003440 	call	1800344 <Set_PWM_Duty_Cycle>
            break;
 1800540:	00000206 	br	180054c <Set_Servo_Position+0x110>
        default :
            //unrecognised channal selected
            return 0;
 1800544:	e03ffe15 	stw	zero,-8(fp)
 1800548:	00000206 	br	1800554 <Set_Servo_Position+0x118>
    }
    return 1;
 180054c:	00800044 	movi	r2,1
 1800550:	e0bffe15 	stw	r2,-8(fp)
 1800554:	e0bffe17 	ldw	r2,-8(fp)
}
 1800558:	e037883a 	mov	sp,fp
 180055c:	dfc00117 	ldw	ra,4(sp)
 1800560:	df000017 	ldw	fp,0(sp)
 1800564:	dec00204 	addi	sp,sp,8
 1800568:	f800283a 	ret

0180056c <printf>:
 180056c:	defffb04 	addi	sp,sp,-20
 1800570:	dfc00115 	stw	ra,4(sp)
 1800574:	d9400215 	stw	r5,8(sp)
 1800578:	d9800315 	stw	r6,12(sp)
 180057c:	d9c00415 	stw	r7,16(sp)
 1800580:	00806074 	movhi	r2,385
 1800584:	108acb04 	addi	r2,r2,11052
 1800588:	10c00017 	ldw	r3,0(r2)
 180058c:	200b883a 	mov	r5,r4
 1800590:	d8800204 	addi	r2,sp,8
 1800594:	19000217 	ldw	r4,8(r3)
 1800598:	100d883a 	mov	r6,r2
 180059c:	d8800015 	stw	r2,0(sp)
 18005a0:	18026100 	call	1802610 <__vfprintf_internal>
 18005a4:	dfc00117 	ldw	ra,4(sp)
 18005a8:	dec00504 	addi	sp,sp,20
 18005ac:	f800283a 	ret

018005b0 <_printf_r>:
 18005b0:	defffc04 	addi	sp,sp,-16
 18005b4:	dfc00115 	stw	ra,4(sp)
 18005b8:	d9800215 	stw	r6,8(sp)
 18005bc:	d9c00315 	stw	r7,12(sp)
 18005c0:	280d883a 	mov	r6,r5
 18005c4:	21400217 	ldw	r5,8(r4)
 18005c8:	d8c00204 	addi	r3,sp,8
 18005cc:	180f883a 	mov	r7,r3
 18005d0:	d8c00015 	stw	r3,0(sp)
 18005d4:	18007640 	call	1800764 <___vfprintf_internal_r>
 18005d8:	dfc00117 	ldw	ra,4(sp)
 18005dc:	dec00404 	addi	sp,sp,16
 18005e0:	f800283a 	ret

018005e4 <_puts_r>:
 18005e4:	defff604 	addi	sp,sp,-40
 18005e8:	dc400715 	stw	r17,28(sp)
 18005ec:	2023883a 	mov	r17,r4
 18005f0:	2809883a 	mov	r4,r5
 18005f4:	dfc00915 	stw	ra,36(sp)
 18005f8:	dcc00815 	stw	r19,32(sp)
 18005fc:	2827883a 	mov	r19,r5
 1800600:	18006980 	call	1800698 <strlen>
 1800604:	89400217 	ldw	r5,8(r17)
 1800608:	00c06074 	movhi	r3,385
 180060c:	18c21b04 	addi	r3,r3,2156
 1800610:	01c00044 	movi	r7,1
 1800614:	12000044 	addi	r8,r2,1
 1800618:	d8c00515 	stw	r3,20(sp)
 180061c:	d9c00615 	stw	r7,24(sp)
 1800620:	d8c00304 	addi	r3,sp,12
 1800624:	01c00084 	movi	r7,2
 1800628:	8809883a 	mov	r4,r17
 180062c:	d80d883a 	mov	r6,sp
 1800630:	d8c00015 	stw	r3,0(sp)
 1800634:	dcc00315 	stw	r19,12(sp)
 1800638:	da000215 	stw	r8,8(sp)
 180063c:	d9c00115 	stw	r7,4(sp)
 1800640:	d8800415 	stw	r2,16(sp)
 1800644:	180486c0 	call	180486c <__sfvwrite_r>
 1800648:	00ffffc4 	movi	r3,-1
 180064c:	10000626 	beq	r2,zero,1800668 <_puts_r+0x84>
 1800650:	1805883a 	mov	r2,r3
 1800654:	dfc00917 	ldw	ra,36(sp)
 1800658:	dcc00817 	ldw	r19,32(sp)
 180065c:	dc400717 	ldw	r17,28(sp)
 1800660:	dec00a04 	addi	sp,sp,40
 1800664:	f800283a 	ret
 1800668:	00c00284 	movi	r3,10
 180066c:	1805883a 	mov	r2,r3
 1800670:	dfc00917 	ldw	ra,36(sp)
 1800674:	dcc00817 	ldw	r19,32(sp)
 1800678:	dc400717 	ldw	r17,28(sp)
 180067c:	dec00a04 	addi	sp,sp,40
 1800680:	f800283a 	ret

01800684 <puts>:
 1800684:	00806074 	movhi	r2,385
 1800688:	108acb04 	addi	r2,r2,11052
 180068c:	200b883a 	mov	r5,r4
 1800690:	11000017 	ldw	r4,0(r2)
 1800694:	18005e41 	jmpi	18005e4 <_puts_r>

01800698 <strlen>:
 1800698:	208000cc 	andi	r2,r4,3
 180069c:	2011883a 	mov	r8,r4
 18006a0:	1000161e 	bne	r2,zero,18006fc <strlen+0x64>
 18006a4:	20c00017 	ldw	r3,0(r4)
 18006a8:	017fbff4 	movhi	r5,65279
 18006ac:	297fbfc4 	addi	r5,r5,-257
 18006b0:	01e02074 	movhi	r7,32897
 18006b4:	39e02004 	addi	r7,r7,-32640
 18006b8:	1945883a 	add	r2,r3,r5
 18006bc:	11c4703a 	and	r2,r2,r7
 18006c0:	00c6303a 	nor	r3,zero,r3
 18006c4:	1886703a 	and	r3,r3,r2
 18006c8:	18000c1e 	bne	r3,zero,18006fc <strlen+0x64>
 18006cc:	280d883a 	mov	r6,r5
 18006d0:	380b883a 	mov	r5,r7
 18006d4:	21000104 	addi	r4,r4,4
 18006d8:	20800017 	ldw	r2,0(r4)
 18006dc:	1187883a 	add	r3,r2,r6
 18006e0:	1946703a 	and	r3,r3,r5
 18006e4:	0084303a 	nor	r2,zero,r2
 18006e8:	10c4703a 	and	r2,r2,r3
 18006ec:	103ff926 	beq	r2,zero,18006d4 <strlen+0x3c>
 18006f0:	20800007 	ldb	r2,0(r4)
 18006f4:	10000326 	beq	r2,zero,1800704 <strlen+0x6c>
 18006f8:	21000044 	addi	r4,r4,1
 18006fc:	20800007 	ldb	r2,0(r4)
 1800700:	103ffd1e 	bne	r2,zero,18006f8 <strlen+0x60>
 1800704:	2205c83a 	sub	r2,r4,r8
 1800708:	f800283a 	ret

0180070c <__sprint_r>:
 180070c:	30800217 	ldw	r2,8(r6)
 1800710:	defffe04 	addi	sp,sp,-8
 1800714:	dc000015 	stw	r16,0(sp)
 1800718:	dfc00115 	stw	ra,4(sp)
 180071c:	3021883a 	mov	r16,r6
 1800720:	0007883a 	mov	r3,zero
 1800724:	1000061e 	bne	r2,zero,1800740 <__sprint_r+0x34>
 1800728:	1805883a 	mov	r2,r3
 180072c:	30000115 	stw	zero,4(r6)
 1800730:	dfc00117 	ldw	ra,4(sp)
 1800734:	dc000017 	ldw	r16,0(sp)
 1800738:	dec00204 	addi	sp,sp,8
 180073c:	f800283a 	ret
 1800740:	180486c0 	call	180486c <__sfvwrite_r>
 1800744:	1007883a 	mov	r3,r2
 1800748:	1805883a 	mov	r2,r3
 180074c:	80000115 	stw	zero,4(r16)
 1800750:	80000215 	stw	zero,8(r16)
 1800754:	dfc00117 	ldw	ra,4(sp)
 1800758:	dc000017 	ldw	r16,0(sp)
 180075c:	dec00204 	addi	sp,sp,8
 1800760:	f800283a 	ret

01800764 <___vfprintf_internal_r>:
 1800764:	defea404 	addi	sp,sp,-1392
 1800768:	dd815815 	stw	r22,1376(sp)
 180076c:	dc015215 	stw	r16,1352(sp)
 1800770:	d9c15115 	stw	r7,1348(sp)
 1800774:	dfc15b15 	stw	ra,1388(sp)
 1800778:	df015a15 	stw	fp,1384(sp)
 180077c:	ddc15915 	stw	r23,1380(sp)
 1800780:	dd415715 	stw	r21,1372(sp)
 1800784:	dd015615 	stw	r20,1368(sp)
 1800788:	dcc15515 	stw	r19,1364(sp)
 180078c:	dc815415 	stw	r18,1360(sp)
 1800790:	dc415315 	stw	r17,1356(sp)
 1800794:	282d883a 	mov	r22,r5
 1800798:	3021883a 	mov	r16,r6
 180079c:	d9014f15 	stw	r4,1340(sp)
 18007a0:	1804e900 	call	1804e90 <_localeconv_r>
 18007a4:	10800017 	ldw	r2,0(r2)
 18007a8:	d9c15117 	ldw	r7,1348(sp)
 18007ac:	d8814915 	stw	r2,1316(sp)
 18007b0:	d8814f17 	ldw	r2,1340(sp)
 18007b4:	10000226 	beq	r2,zero,18007c0 <___vfprintf_internal_r+0x5c>
 18007b8:	10800e17 	ldw	r2,56(r2)
 18007bc:	10020d26 	beq	r2,zero,1800ff4 <___vfprintf_internal_r+0x890>
 18007c0:	b080030b 	ldhu	r2,12(r22)
 18007c4:	1080020c 	andi	r2,r2,8
 18007c8:	10020e26 	beq	r2,zero,1801004 <___vfprintf_internal_r+0x8a0>
 18007cc:	b0800417 	ldw	r2,16(r22)
 18007d0:	10020c26 	beq	r2,zero,1801004 <___vfprintf_internal_r+0x8a0>
 18007d4:	b200030b 	ldhu	r8,12(r22)
 18007d8:	00800284 	movi	r2,10
 18007dc:	40c0068c 	andi	r3,r8,26
 18007e0:	18802f1e 	bne	r3,r2,18008a0 <___vfprintf_internal_r+0x13c>
 18007e4:	b080038f 	ldh	r2,14(r22)
 18007e8:	10002d16 	blt	r2,zero,18008a0 <___vfprintf_internal_r+0x13c>
 18007ec:	b240038b 	ldhu	r9,14(r22)
 18007f0:	b2800717 	ldw	r10,28(r22)
 18007f4:	b2c00917 	ldw	r11,36(r22)
 18007f8:	d9014f17 	ldw	r4,1340(sp)
 18007fc:	dc402904 	addi	r17,sp,164
 1800800:	d8804004 	addi	r2,sp,256
 1800804:	00c10004 	movi	r3,1024
 1800808:	423fff4c 	andi	r8,r8,65533
 180080c:	800d883a 	mov	r6,r16
 1800810:	880b883a 	mov	r5,r17
 1800814:	da002c0d 	sth	r8,176(sp)
 1800818:	da402c8d 	sth	r9,178(sp)
 180081c:	da803015 	stw	r10,192(sp)
 1800820:	dac03215 	stw	r11,200(sp)
 1800824:	d8802d15 	stw	r2,180(sp)
 1800828:	d8c02e15 	stw	r3,184(sp)
 180082c:	d8802915 	stw	r2,164(sp)
 1800830:	d8c02b15 	stw	r3,172(sp)
 1800834:	d8002f15 	stw	zero,188(sp)
 1800838:	18007640 	call	1800764 <___vfprintf_internal_r>
 180083c:	d8814b15 	stw	r2,1324(sp)
 1800840:	10000416 	blt	r2,zero,1800854 <___vfprintf_internal_r+0xf0>
 1800844:	d9014f17 	ldw	r4,1340(sp)
 1800848:	880b883a 	mov	r5,r17
 180084c:	1803f3c0 	call	1803f3c <_fflush_r>
 1800850:	1002321e 	bne	r2,zero,180111c <___vfprintf_internal_r+0x9b8>
 1800854:	d8802c0b 	ldhu	r2,176(sp)
 1800858:	1080100c 	andi	r2,r2,64
 180085c:	10000326 	beq	r2,zero,180086c <___vfprintf_internal_r+0x108>
 1800860:	b080030b 	ldhu	r2,12(r22)
 1800864:	10801014 	ori	r2,r2,64
 1800868:	b080030d 	sth	r2,12(r22)
 180086c:	d8814b17 	ldw	r2,1324(sp)
 1800870:	dfc15b17 	ldw	ra,1388(sp)
 1800874:	df015a17 	ldw	fp,1384(sp)
 1800878:	ddc15917 	ldw	r23,1380(sp)
 180087c:	dd815817 	ldw	r22,1376(sp)
 1800880:	dd415717 	ldw	r21,1372(sp)
 1800884:	dd015617 	ldw	r20,1368(sp)
 1800888:	dcc15517 	ldw	r19,1364(sp)
 180088c:	dc815417 	ldw	r18,1360(sp)
 1800890:	dc415317 	ldw	r17,1356(sp)
 1800894:	dc015217 	ldw	r16,1352(sp)
 1800898:	dec15c04 	addi	sp,sp,1392
 180089c:	f800283a 	ret
 18008a0:	0005883a 	mov	r2,zero
 18008a4:	0007883a 	mov	r3,zero
 18008a8:	dd401904 	addi	r21,sp,100
 18008ac:	d8814215 	stw	r2,1288(sp)
 18008b0:	802f883a 	mov	r23,r16
 18008b4:	d8c14315 	stw	r3,1292(sp)
 18008b8:	d8014b15 	stw	zero,1324(sp)
 18008bc:	d8014815 	stw	zero,1312(sp)
 18008c0:	d8014415 	stw	zero,1296(sp)
 18008c4:	d8014715 	stw	zero,1308(sp)
 18008c8:	dd400c15 	stw	r21,48(sp)
 18008cc:	d8000e15 	stw	zero,56(sp)
 18008d0:	d8000d15 	stw	zero,52(sp)
 18008d4:	b8800007 	ldb	r2,0(r23)
 18008d8:	10001926 	beq	r2,zero,1800940 <___vfprintf_internal_r+0x1dc>
 18008dc:	00c00944 	movi	r3,37
 18008e0:	10c01726 	beq	r2,r3,1800940 <___vfprintf_internal_r+0x1dc>
 18008e4:	b821883a 	mov	r16,r23
 18008e8:	00000106 	br	18008f0 <___vfprintf_internal_r+0x18c>
 18008ec:	10c00326 	beq	r2,r3,18008fc <___vfprintf_internal_r+0x198>
 18008f0:	84000044 	addi	r16,r16,1
 18008f4:	80800007 	ldb	r2,0(r16)
 18008f8:	103ffc1e 	bne	r2,zero,18008ec <___vfprintf_internal_r+0x188>
 18008fc:	85e7c83a 	sub	r19,r16,r23
 1800900:	98000e26 	beq	r19,zero,180093c <___vfprintf_internal_r+0x1d8>
 1800904:	dc800e17 	ldw	r18,56(sp)
 1800908:	dc400d17 	ldw	r17,52(sp)
 180090c:	008001c4 	movi	r2,7
 1800910:	94e5883a 	add	r18,r18,r19
 1800914:	8c400044 	addi	r17,r17,1
 1800918:	adc00015 	stw	r23,0(r21)
 180091c:	dc800e15 	stw	r18,56(sp)
 1800920:	acc00115 	stw	r19,4(r21)
 1800924:	dc400d15 	stw	r17,52(sp)
 1800928:	14428b16 	blt	r2,r17,1801358 <___vfprintf_internal_r+0xbf4>
 180092c:	ad400204 	addi	r21,r21,8
 1800930:	d9014b17 	ldw	r4,1324(sp)
 1800934:	24c9883a 	add	r4,r4,r19
 1800938:	d9014b15 	stw	r4,1324(sp)
 180093c:	802f883a 	mov	r23,r16
 1800940:	b8800007 	ldb	r2,0(r23)
 1800944:	10013c26 	beq	r2,zero,1800e38 <___vfprintf_internal_r+0x6d4>
 1800948:	bdc00044 	addi	r23,r23,1
 180094c:	d8000405 	stb	zero,16(sp)
 1800950:	b8c00007 	ldb	r3,0(r23)
 1800954:	04ffffc4 	movi	r19,-1
 1800958:	d8014c15 	stw	zero,1328(sp)
 180095c:	d8014a15 	stw	zero,1320(sp)
 1800960:	d8c14d15 	stw	r3,1332(sp)
 1800964:	bdc00044 	addi	r23,r23,1
 1800968:	d9414d17 	ldw	r5,1332(sp)
 180096c:	00801604 	movi	r2,88
 1800970:	28fff804 	addi	r3,r5,-32
 1800974:	10c06036 	bltu	r2,r3,1800af8 <___vfprintf_internal_r+0x394>
 1800978:	18c5883a 	add	r2,r3,r3
 180097c:	1085883a 	add	r2,r2,r2
 1800980:	00c06034 	movhi	r3,384
 1800984:	18c26504 	addi	r3,r3,2452
 1800988:	10c5883a 	add	r2,r2,r3
 180098c:	11000017 	ldw	r4,0(r2)
 1800990:	2000683a 	jmp	r4
 1800994:	01801908 	cmpgei	r6,zero,100
 1800998:	01800af8 	rdprs	r6,zero,43
 180099c:	01800af8 	rdprs	r6,zero,43
 18009a0:	018018f4 	movhi	r6,99
 18009a4:	01800af8 	rdprs	r6,zero,43
 18009a8:	01800af8 	rdprs	r6,zero,43
 18009ac:	01800af8 	rdprs	r6,zero,43
 18009b0:	01800af8 	rdprs	r6,zero,43
 18009b4:	01800af8 	rdprs	r6,zero,43
 18009b8:	01800af8 	rdprs	r6,zero,43
 18009bc:	018016d4 	movui	r6,91
 18009c0:	018018e4 	muli	r6,zero,99
 18009c4:	01800af8 	rdprs	r6,zero,43
 18009c8:	018016ec 	andhi	r6,zero,91
 18009cc:	01801980 	call	180198 <__alt_mem_sdram-0x167fe68>
 18009d0:	01800af8 	rdprs	r6,zero,43
 18009d4:	0180196c 	andhi	r6,zero,101
 18009d8:	01801934 	movhi	r6,100
 18009dc:	01801934 	movhi	r6,100
 18009e0:	01801934 	movhi	r6,100
 18009e4:	01801934 	movhi	r6,100
 18009e8:	01801934 	movhi	r6,100
 18009ec:	01801934 	movhi	r6,100
 18009f0:	01801934 	movhi	r6,100
 18009f4:	01801934 	movhi	r6,100
 18009f8:	01801934 	movhi	r6,100
 18009fc:	01800af8 	rdprs	r6,zero,43
 1800a00:	01800af8 	rdprs	r6,zero,43
 1800a04:	01800af8 	rdprs	r6,zero,43
 1800a08:	01800af8 	rdprs	r6,zero,43
 1800a0c:	01800af8 	rdprs	r6,zero,43
 1800a10:	01800af8 	rdprs	r6,zero,43
 1800a14:	01800af8 	rdprs	r6,zero,43
 1800a18:	01800af8 	rdprs	r6,zero,43
 1800a1c:	01800af8 	rdprs	r6,zero,43
 1800a20:	01800af8 	rdprs	r6,zero,43
 1800a24:	01801150 	cmplti	r6,zero,69
 1800a28:	018017bc 	xorhi	r6,zero,94
 1800a2c:	01800af8 	rdprs	r6,zero,43
 1800a30:	018017bc 	xorhi	r6,zero,94
 1800a34:	01800af8 	rdprs	r6,zero,43
 1800a38:	01800af8 	rdprs	r6,zero,43
 1800a3c:	01800af8 	rdprs	r6,zero,43
 1800a40:	01800af8 	rdprs	r6,zero,43
 1800a44:	01801920 	cmpeqi	r6,zero,100
 1800a48:	01800af8 	rdprs	r6,zero,43
 1800a4c:	01800af8 	rdprs	r6,zero,43
 1800a50:	01801204 	movi	r6,72
 1800a54:	01800af8 	rdprs	r6,zero,43
 1800a58:	01800af8 	rdprs	r6,zero,43
 1800a5c:	01800af8 	rdprs	r6,zero,43
 1800a60:	01800af8 	rdprs	r6,zero,43
 1800a64:	01800af8 	rdprs	r6,zero,43
 1800a68:	01801250 	cmplti	r6,zero,73
 1800a6c:	01800af8 	rdprs	r6,zero,43
 1800a70:	01800af8 	rdprs	r6,zero,43
 1800a74:	01801870 	cmpltui	r6,zero,97
 1800a78:	01800af8 	rdprs	r6,zero,43
 1800a7c:	01800af8 	rdprs	r6,zero,43
 1800a80:	01800af8 	rdprs	r6,zero,43
 1800a84:	01800af8 	rdprs	r6,zero,43
 1800a88:	01800af8 	rdprs	r6,zero,43
 1800a8c:	01800af8 	rdprs	r6,zero,43
 1800a90:	01800af8 	rdprs	r6,zero,43
 1800a94:	01800af8 	rdprs	r6,zero,43
 1800a98:	01800af8 	rdprs	r6,zero,43
 1800a9c:	01800af8 	rdprs	r6,zero,43
 1800aa0:	01801844 	movi	r6,97
 1800aa4:	0180115c 	xori	r6,zero,69
 1800aa8:	018017bc 	xorhi	r6,zero,94
 1800aac:	018017bc 	xorhi	r6,zero,94
 1800ab0:	018017bc 	xorhi	r6,zero,94
 1800ab4:	018017a8 	cmpgeui	r6,zero,94
 1800ab8:	0180115c 	xori	r6,zero,69
 1800abc:	01800af8 	rdprs	r6,zero,43
 1800ac0:	01800af8 	rdprs	r6,zero,43
 1800ac4:	01801730 	cmpltui	r6,zero,92
 1800ac8:	01800af8 	rdprs	r6,zero,43
 1800acc:	01801700 	call	180170 <__alt_mem_sdram-0x167fe90>
 1800ad0:	01801210 	cmplti	r6,zero,72
 1800ad4:	01801760 	cmpeqi	r6,zero,93
 1800ad8:	0180174c 	andi	r6,zero,93
 1800adc:	01800af8 	rdprs	r6,zero,43
 1800ae0:	018019dc 	xori	r6,zero,103
 1800ae4:	01800af8 	rdprs	r6,zero,43
 1800ae8:	0180125c 	xori	r6,zero,73
 1800aec:	01800af8 	rdprs	r6,zero,43
 1800af0:	01800af8 	rdprs	r6,zero,43
 1800af4:	018018d4 	movui	r6,99
 1800af8:	d9014d17 	ldw	r4,1332(sp)
 1800afc:	2000ce26 	beq	r4,zero,1800e38 <___vfprintf_internal_r+0x6d4>
 1800b00:	01400044 	movi	r5,1
 1800b04:	d9800f04 	addi	r6,sp,60
 1800b08:	d9c14015 	stw	r7,1280(sp)
 1800b0c:	d9414515 	stw	r5,1300(sp)
 1800b10:	d9814115 	stw	r6,1284(sp)
 1800b14:	280f883a 	mov	r7,r5
 1800b18:	d9000f05 	stb	r4,60(sp)
 1800b1c:	d8000405 	stb	zero,16(sp)
 1800b20:	d8014615 	stw	zero,1304(sp)
 1800b24:	d8c14c17 	ldw	r3,1328(sp)
 1800b28:	1880008c 	andi	r2,r3,2
 1800b2c:	1005003a 	cmpeq	r2,r2,zero
 1800b30:	d8815015 	stw	r2,1344(sp)
 1800b34:	1000031e 	bne	r2,zero,1800b44 <___vfprintf_internal_r+0x3e0>
 1800b38:	d9014517 	ldw	r4,1300(sp)
 1800b3c:	21000084 	addi	r4,r4,2
 1800b40:	d9014515 	stw	r4,1300(sp)
 1800b44:	d9414c17 	ldw	r5,1328(sp)
 1800b48:	2940210c 	andi	r5,r5,132
 1800b4c:	d9414e15 	stw	r5,1336(sp)
 1800b50:	28002d1e 	bne	r5,zero,1800c08 <___vfprintf_internal_r+0x4a4>
 1800b54:	d9814a17 	ldw	r6,1320(sp)
 1800b58:	d8814517 	ldw	r2,1300(sp)
 1800b5c:	30a1c83a 	sub	r16,r6,r2
 1800b60:	0400290e 	bge	zero,r16,1800c08 <___vfprintf_internal_r+0x4a4>
 1800b64:	00800404 	movi	r2,16
 1800b68:	1404580e 	bge	r2,r16,1801ccc <___vfprintf_internal_r+0x1568>
 1800b6c:	dc800e17 	ldw	r18,56(sp)
 1800b70:	dc400d17 	ldw	r17,52(sp)
 1800b74:	1027883a 	mov	r19,r2
 1800b78:	07006074 	movhi	fp,385
 1800b7c:	e7023784 	addi	fp,fp,2270
 1800b80:	050001c4 	movi	r20,7
 1800b84:	00000306 	br	1800b94 <___vfprintf_internal_r+0x430>
 1800b88:	843ffc04 	addi	r16,r16,-16
 1800b8c:	ad400204 	addi	r21,r21,8
 1800b90:	9c00130e 	bge	r19,r16,1800be0 <___vfprintf_internal_r+0x47c>
 1800b94:	94800404 	addi	r18,r18,16
 1800b98:	8c400044 	addi	r17,r17,1
 1800b9c:	af000015 	stw	fp,0(r21)
 1800ba0:	acc00115 	stw	r19,4(r21)
 1800ba4:	dc800e15 	stw	r18,56(sp)
 1800ba8:	dc400d15 	stw	r17,52(sp)
 1800bac:	a47ff60e 	bge	r20,r17,1800b88 <___vfprintf_internal_r+0x424>
 1800bb0:	d9014f17 	ldw	r4,1340(sp)
 1800bb4:	b00b883a 	mov	r5,r22
 1800bb8:	d9800c04 	addi	r6,sp,48
 1800bbc:	d9c15115 	stw	r7,1348(sp)
 1800bc0:	180070c0 	call	180070c <__sprint_r>
 1800bc4:	d9c15117 	ldw	r7,1348(sp)
 1800bc8:	10009e1e 	bne	r2,zero,1800e44 <___vfprintf_internal_r+0x6e0>
 1800bcc:	843ffc04 	addi	r16,r16,-16
 1800bd0:	dc800e17 	ldw	r18,56(sp)
 1800bd4:	dc400d17 	ldw	r17,52(sp)
 1800bd8:	dd401904 	addi	r21,sp,100
 1800bdc:	9c3fed16 	blt	r19,r16,1800b94 <___vfprintf_internal_r+0x430>
 1800be0:	9425883a 	add	r18,r18,r16
 1800be4:	8c400044 	addi	r17,r17,1
 1800be8:	008001c4 	movi	r2,7
 1800bec:	af000015 	stw	fp,0(r21)
 1800bf0:	ac000115 	stw	r16,4(r21)
 1800bf4:	dc800e15 	stw	r18,56(sp)
 1800bf8:	dc400d15 	stw	r17,52(sp)
 1800bfc:	1441f516 	blt	r2,r17,18013d4 <___vfprintf_internal_r+0xc70>
 1800c00:	ad400204 	addi	r21,r21,8
 1800c04:	00000206 	br	1800c10 <___vfprintf_internal_r+0x4ac>
 1800c08:	dc800e17 	ldw	r18,56(sp)
 1800c0c:	dc400d17 	ldw	r17,52(sp)
 1800c10:	d8800407 	ldb	r2,16(sp)
 1800c14:	10000b26 	beq	r2,zero,1800c44 <___vfprintf_internal_r+0x4e0>
 1800c18:	00800044 	movi	r2,1
 1800c1c:	94800044 	addi	r18,r18,1
 1800c20:	8c400044 	addi	r17,r17,1
 1800c24:	a8800115 	stw	r2,4(r21)
 1800c28:	d8c00404 	addi	r3,sp,16
 1800c2c:	008001c4 	movi	r2,7
 1800c30:	a8c00015 	stw	r3,0(r21)
 1800c34:	dc800e15 	stw	r18,56(sp)
 1800c38:	dc400d15 	stw	r17,52(sp)
 1800c3c:	1441da16 	blt	r2,r17,18013a8 <___vfprintf_internal_r+0xc44>
 1800c40:	ad400204 	addi	r21,r21,8
 1800c44:	d9015017 	ldw	r4,1344(sp)
 1800c48:	20000b1e 	bne	r4,zero,1800c78 <___vfprintf_internal_r+0x514>
 1800c4c:	d8800444 	addi	r2,sp,17
 1800c50:	94800084 	addi	r18,r18,2
 1800c54:	8c400044 	addi	r17,r17,1
 1800c58:	a8800015 	stw	r2,0(r21)
 1800c5c:	00c00084 	movi	r3,2
 1800c60:	008001c4 	movi	r2,7
 1800c64:	a8c00115 	stw	r3,4(r21)
 1800c68:	dc800e15 	stw	r18,56(sp)
 1800c6c:	dc400d15 	stw	r17,52(sp)
 1800c70:	1441c216 	blt	r2,r17,180137c <___vfprintf_internal_r+0xc18>
 1800c74:	ad400204 	addi	r21,r21,8
 1800c78:	d9414e17 	ldw	r5,1336(sp)
 1800c7c:	00802004 	movi	r2,128
 1800c80:	2880b126 	beq	r5,r2,1800f48 <___vfprintf_internal_r+0x7e4>
 1800c84:	d8c14617 	ldw	r3,1304(sp)
 1800c88:	19e1c83a 	sub	r16,r3,r7
 1800c8c:	0400260e 	bge	zero,r16,1800d28 <___vfprintf_internal_r+0x5c4>
 1800c90:	00800404 	movi	r2,16
 1800c94:	1403c90e 	bge	r2,r16,1801bbc <___vfprintf_internal_r+0x1458>
 1800c98:	1027883a 	mov	r19,r2
 1800c9c:	07006074 	movhi	fp,385
 1800ca0:	e7023384 	addi	fp,fp,2254
 1800ca4:	050001c4 	movi	r20,7
 1800ca8:	00000306 	br	1800cb8 <___vfprintf_internal_r+0x554>
 1800cac:	843ffc04 	addi	r16,r16,-16
 1800cb0:	ad400204 	addi	r21,r21,8
 1800cb4:	9c00130e 	bge	r19,r16,1800d04 <___vfprintf_internal_r+0x5a0>
 1800cb8:	94800404 	addi	r18,r18,16
 1800cbc:	8c400044 	addi	r17,r17,1
 1800cc0:	af000015 	stw	fp,0(r21)
 1800cc4:	acc00115 	stw	r19,4(r21)
 1800cc8:	dc800e15 	stw	r18,56(sp)
 1800ccc:	dc400d15 	stw	r17,52(sp)
 1800cd0:	a47ff60e 	bge	r20,r17,1800cac <___vfprintf_internal_r+0x548>
 1800cd4:	d9014f17 	ldw	r4,1340(sp)
 1800cd8:	b00b883a 	mov	r5,r22
 1800cdc:	d9800c04 	addi	r6,sp,48
 1800ce0:	d9c15115 	stw	r7,1348(sp)
 1800ce4:	180070c0 	call	180070c <__sprint_r>
 1800ce8:	d9c15117 	ldw	r7,1348(sp)
 1800cec:	1000551e 	bne	r2,zero,1800e44 <___vfprintf_internal_r+0x6e0>
 1800cf0:	843ffc04 	addi	r16,r16,-16
 1800cf4:	dc800e17 	ldw	r18,56(sp)
 1800cf8:	dc400d17 	ldw	r17,52(sp)
 1800cfc:	dd401904 	addi	r21,sp,100
 1800d00:	9c3fed16 	blt	r19,r16,1800cb8 <___vfprintf_internal_r+0x554>
 1800d04:	9425883a 	add	r18,r18,r16
 1800d08:	8c400044 	addi	r17,r17,1
 1800d0c:	008001c4 	movi	r2,7
 1800d10:	af000015 	stw	fp,0(r21)
 1800d14:	ac000115 	stw	r16,4(r21)
 1800d18:	dc800e15 	stw	r18,56(sp)
 1800d1c:	dc400d15 	stw	r17,52(sp)
 1800d20:	14418216 	blt	r2,r17,180132c <___vfprintf_internal_r+0xbc8>
 1800d24:	ad400204 	addi	r21,r21,8
 1800d28:	d9014c17 	ldw	r4,1328(sp)
 1800d2c:	2080400c 	andi	r2,r4,256
 1800d30:	10004a1e 	bne	r2,zero,1800e5c <___vfprintf_internal_r+0x6f8>
 1800d34:	d9414117 	ldw	r5,1284(sp)
 1800d38:	91e5883a 	add	r18,r18,r7
 1800d3c:	8c400044 	addi	r17,r17,1
 1800d40:	008001c4 	movi	r2,7
 1800d44:	a9400015 	stw	r5,0(r21)
 1800d48:	a9c00115 	stw	r7,4(r21)
 1800d4c:	dc800e15 	stw	r18,56(sp)
 1800d50:	dc400d15 	stw	r17,52(sp)
 1800d54:	14416716 	blt	r2,r17,18012f4 <___vfprintf_internal_r+0xb90>
 1800d58:	a8c00204 	addi	r3,r21,8
 1800d5c:	d9814c17 	ldw	r6,1328(sp)
 1800d60:	3080010c 	andi	r2,r6,4
 1800d64:	10002826 	beq	r2,zero,1800e08 <___vfprintf_internal_r+0x6a4>
 1800d68:	d8814a17 	ldw	r2,1320(sp)
 1800d6c:	d9014517 	ldw	r4,1300(sp)
 1800d70:	1121c83a 	sub	r16,r2,r4
 1800d74:	0400240e 	bge	zero,r16,1800e08 <___vfprintf_internal_r+0x6a4>
 1800d78:	00800404 	movi	r2,16
 1800d7c:	14044f0e 	bge	r2,r16,1801ebc <___vfprintf_internal_r+0x1758>
 1800d80:	dc400d17 	ldw	r17,52(sp)
 1800d84:	1027883a 	mov	r19,r2
 1800d88:	07006074 	movhi	fp,385
 1800d8c:	e7023784 	addi	fp,fp,2270
 1800d90:	050001c4 	movi	r20,7
 1800d94:	00000306 	br	1800da4 <___vfprintf_internal_r+0x640>
 1800d98:	843ffc04 	addi	r16,r16,-16
 1800d9c:	18c00204 	addi	r3,r3,8
 1800da0:	9c00110e 	bge	r19,r16,1800de8 <___vfprintf_internal_r+0x684>
 1800da4:	94800404 	addi	r18,r18,16
 1800da8:	8c400044 	addi	r17,r17,1
 1800dac:	1f000015 	stw	fp,0(r3)
 1800db0:	1cc00115 	stw	r19,4(r3)
 1800db4:	dc800e15 	stw	r18,56(sp)
 1800db8:	dc400d15 	stw	r17,52(sp)
 1800dbc:	a47ff60e 	bge	r20,r17,1800d98 <___vfprintf_internal_r+0x634>
 1800dc0:	d9014f17 	ldw	r4,1340(sp)
 1800dc4:	b00b883a 	mov	r5,r22
 1800dc8:	d9800c04 	addi	r6,sp,48
 1800dcc:	180070c0 	call	180070c <__sprint_r>
 1800dd0:	10001c1e 	bne	r2,zero,1800e44 <___vfprintf_internal_r+0x6e0>
 1800dd4:	843ffc04 	addi	r16,r16,-16
 1800dd8:	dc800e17 	ldw	r18,56(sp)
 1800ddc:	dc400d17 	ldw	r17,52(sp)
 1800de0:	d8c01904 	addi	r3,sp,100
 1800de4:	9c3fef16 	blt	r19,r16,1800da4 <___vfprintf_internal_r+0x640>
 1800de8:	9425883a 	add	r18,r18,r16
 1800dec:	8c400044 	addi	r17,r17,1
 1800df0:	008001c4 	movi	r2,7
 1800df4:	1f000015 	stw	fp,0(r3)
 1800df8:	1c000115 	stw	r16,4(r3)
 1800dfc:	dc800e15 	stw	r18,56(sp)
 1800e00:	dc400d15 	stw	r17,52(sp)
 1800e04:	1440cb16 	blt	r2,r17,1801134 <___vfprintf_internal_r+0x9d0>
 1800e08:	d8814a17 	ldw	r2,1320(sp)
 1800e0c:	d9414517 	ldw	r5,1300(sp)
 1800e10:	1140010e 	bge	r2,r5,1800e18 <___vfprintf_internal_r+0x6b4>
 1800e14:	2805883a 	mov	r2,r5
 1800e18:	d9814b17 	ldw	r6,1324(sp)
 1800e1c:	308d883a 	add	r6,r6,r2
 1800e20:	d9814b15 	stw	r6,1324(sp)
 1800e24:	90013b1e 	bne	r18,zero,1801314 <___vfprintf_internal_r+0xbb0>
 1800e28:	d9c14017 	ldw	r7,1280(sp)
 1800e2c:	dd401904 	addi	r21,sp,100
 1800e30:	d8000d15 	stw	zero,52(sp)
 1800e34:	003ea706 	br	18008d4 <___vfprintf_internal_r+0x170>
 1800e38:	d8800e17 	ldw	r2,56(sp)
 1800e3c:	10053f1e 	bne	r2,zero,180233c <___vfprintf_internal_r+0x1bd8>
 1800e40:	d8000d15 	stw	zero,52(sp)
 1800e44:	b080030b 	ldhu	r2,12(r22)
 1800e48:	1080100c 	andi	r2,r2,64
 1800e4c:	103e8726 	beq	r2,zero,180086c <___vfprintf_internal_r+0x108>
 1800e50:	00bfffc4 	movi	r2,-1
 1800e54:	d8814b15 	stw	r2,1324(sp)
 1800e58:	003e8406 	br	180086c <___vfprintf_internal_r+0x108>
 1800e5c:	d9814d17 	ldw	r6,1332(sp)
 1800e60:	00801944 	movi	r2,101
 1800e64:	11806e16 	blt	r2,r6,1801020 <___vfprintf_internal_r+0x8bc>
 1800e68:	d9414717 	ldw	r5,1308(sp)
 1800e6c:	00c00044 	movi	r3,1
 1800e70:	1943430e 	bge	r3,r5,1801b80 <___vfprintf_internal_r+0x141c>
 1800e74:	d8814117 	ldw	r2,1284(sp)
 1800e78:	94800044 	addi	r18,r18,1
 1800e7c:	8c400044 	addi	r17,r17,1
 1800e80:	a8800015 	stw	r2,0(r21)
 1800e84:	008001c4 	movi	r2,7
 1800e88:	a8c00115 	stw	r3,4(r21)
 1800e8c:	dc800e15 	stw	r18,56(sp)
 1800e90:	dc400d15 	stw	r17,52(sp)
 1800e94:	1441ca16 	blt	r2,r17,18015c0 <___vfprintf_internal_r+0xe5c>
 1800e98:	a8c00204 	addi	r3,r21,8
 1800e9c:	d9014917 	ldw	r4,1316(sp)
 1800ea0:	00800044 	movi	r2,1
 1800ea4:	94800044 	addi	r18,r18,1
 1800ea8:	8c400044 	addi	r17,r17,1
 1800eac:	18800115 	stw	r2,4(r3)
 1800eb0:	008001c4 	movi	r2,7
 1800eb4:	19000015 	stw	r4,0(r3)
 1800eb8:	dc800e15 	stw	r18,56(sp)
 1800ebc:	dc400d15 	stw	r17,52(sp)
 1800ec0:	1441b616 	blt	r2,r17,180159c <___vfprintf_internal_r+0xe38>
 1800ec4:	1cc00204 	addi	r19,r3,8
 1800ec8:	d9014217 	ldw	r4,1288(sp)
 1800ecc:	d9414317 	ldw	r5,1292(sp)
 1800ed0:	000d883a 	mov	r6,zero
 1800ed4:	000f883a 	mov	r7,zero
 1800ed8:	1808fb40 	call	1808fb4 <__nedf2>
 1800edc:	10017426 	beq	r2,zero,18014b0 <___vfprintf_internal_r+0xd4c>
 1800ee0:	d9414717 	ldw	r5,1308(sp)
 1800ee4:	d9814117 	ldw	r6,1284(sp)
 1800ee8:	8c400044 	addi	r17,r17,1
 1800eec:	2c85883a 	add	r2,r5,r18
 1800ef0:	14bfffc4 	addi	r18,r2,-1
 1800ef4:	28bfffc4 	addi	r2,r5,-1
 1800ef8:	30c00044 	addi	r3,r6,1
 1800efc:	98800115 	stw	r2,4(r19)
 1800f00:	008001c4 	movi	r2,7
 1800f04:	98c00015 	stw	r3,0(r19)
 1800f08:	dc800e15 	stw	r18,56(sp)
 1800f0c:	dc400d15 	stw	r17,52(sp)
 1800f10:	14418e16 	blt	r2,r17,180154c <___vfprintf_internal_r+0xde8>
 1800f14:	9cc00204 	addi	r19,r19,8
 1800f18:	d9414817 	ldw	r5,1312(sp)
 1800f1c:	d8800804 	addi	r2,sp,32
 1800f20:	8c400044 	addi	r17,r17,1
 1800f24:	9165883a 	add	r18,r18,r5
 1800f28:	98800015 	stw	r2,0(r19)
 1800f2c:	008001c4 	movi	r2,7
 1800f30:	99400115 	stw	r5,4(r19)
 1800f34:	dc800e15 	stw	r18,56(sp)
 1800f38:	dc400d15 	stw	r17,52(sp)
 1800f3c:	1440ed16 	blt	r2,r17,18012f4 <___vfprintf_internal_r+0xb90>
 1800f40:	98c00204 	addi	r3,r19,8
 1800f44:	003f8506 	br	1800d5c <___vfprintf_internal_r+0x5f8>
 1800f48:	d9814a17 	ldw	r6,1320(sp)
 1800f4c:	d8814517 	ldw	r2,1300(sp)
 1800f50:	30a1c83a 	sub	r16,r6,r2
 1800f54:	043f4b0e 	bge	zero,r16,1800c84 <___vfprintf_internal_r+0x520>
 1800f58:	00800404 	movi	r2,16
 1800f5c:	1404340e 	bge	r2,r16,1802030 <___vfprintf_internal_r+0x18cc>
 1800f60:	1027883a 	mov	r19,r2
 1800f64:	07006074 	movhi	fp,385
 1800f68:	e7023384 	addi	fp,fp,2254
 1800f6c:	050001c4 	movi	r20,7
 1800f70:	00000306 	br	1800f80 <___vfprintf_internal_r+0x81c>
 1800f74:	843ffc04 	addi	r16,r16,-16
 1800f78:	ad400204 	addi	r21,r21,8
 1800f7c:	9c00130e 	bge	r19,r16,1800fcc <___vfprintf_internal_r+0x868>
 1800f80:	94800404 	addi	r18,r18,16
 1800f84:	8c400044 	addi	r17,r17,1
 1800f88:	af000015 	stw	fp,0(r21)
 1800f8c:	acc00115 	stw	r19,4(r21)
 1800f90:	dc800e15 	stw	r18,56(sp)
 1800f94:	dc400d15 	stw	r17,52(sp)
 1800f98:	a47ff60e 	bge	r20,r17,1800f74 <___vfprintf_internal_r+0x810>
 1800f9c:	d9014f17 	ldw	r4,1340(sp)
 1800fa0:	b00b883a 	mov	r5,r22
 1800fa4:	d9800c04 	addi	r6,sp,48
 1800fa8:	d9c15115 	stw	r7,1348(sp)
 1800fac:	180070c0 	call	180070c <__sprint_r>
 1800fb0:	d9c15117 	ldw	r7,1348(sp)
 1800fb4:	103fa31e 	bne	r2,zero,1800e44 <___vfprintf_internal_r+0x6e0>
 1800fb8:	843ffc04 	addi	r16,r16,-16
 1800fbc:	dc800e17 	ldw	r18,56(sp)
 1800fc0:	dc400d17 	ldw	r17,52(sp)
 1800fc4:	dd401904 	addi	r21,sp,100
 1800fc8:	9c3fed16 	blt	r19,r16,1800f80 <___vfprintf_internal_r+0x81c>
 1800fcc:	9425883a 	add	r18,r18,r16
 1800fd0:	8c400044 	addi	r17,r17,1
 1800fd4:	008001c4 	movi	r2,7
 1800fd8:	af000015 	stw	fp,0(r21)
 1800fdc:	ac000115 	stw	r16,4(r21)
 1800fe0:	dc800e15 	stw	r18,56(sp)
 1800fe4:	dc400d15 	stw	r17,52(sp)
 1800fe8:	14416116 	blt	r2,r17,1801570 <___vfprintf_internal_r+0xe0c>
 1800fec:	ad400204 	addi	r21,r21,8
 1800ff0:	003f2406 	br	1800c84 <___vfprintf_internal_r+0x520>
 1800ff4:	d9014f17 	ldw	r4,1340(sp)
 1800ff8:	18041d40 	call	18041d4 <__sinit>
 1800ffc:	d9c15117 	ldw	r7,1348(sp)
 1801000:	003def06 	br	18007c0 <___vfprintf_internal_r+0x5c>
 1801004:	d9014f17 	ldw	r4,1340(sp)
 1801008:	b00b883a 	mov	r5,r22
 180100c:	d9c15115 	stw	r7,1348(sp)
 1801010:	18026340 	call	1802634 <__swsetup_r>
 1801014:	d9c15117 	ldw	r7,1348(sp)
 1801018:	103dee26 	beq	r2,zero,18007d4 <___vfprintf_internal_r+0x70>
 180101c:	003f8c06 	br	1800e50 <___vfprintf_internal_r+0x6ec>
 1801020:	d9014217 	ldw	r4,1288(sp)
 1801024:	d9414317 	ldw	r5,1292(sp)
 1801028:	000d883a 	mov	r6,zero
 180102c:	000f883a 	mov	r7,zero
 1801030:	1808f2c0 	call	1808f2c <__eqdf2>
 1801034:	1000f21e 	bne	r2,zero,1801400 <___vfprintf_internal_r+0xc9c>
 1801038:	00806074 	movhi	r2,385
 180103c:	10823304 	addi	r2,r2,2252
 1801040:	94800044 	addi	r18,r18,1
 1801044:	8c400044 	addi	r17,r17,1
 1801048:	a8800015 	stw	r2,0(r21)
 180104c:	00c00044 	movi	r3,1
 1801050:	008001c4 	movi	r2,7
 1801054:	a8c00115 	stw	r3,4(r21)
 1801058:	dc800e15 	stw	r18,56(sp)
 180105c:	dc400d15 	stw	r17,52(sp)
 1801060:	1442fa16 	blt	r2,r17,1801c4c <___vfprintf_internal_r+0x14e8>
 1801064:	a8c00204 	addi	r3,r21,8
 1801068:	d8800517 	ldw	r2,20(sp)
 180106c:	d9014717 	ldw	r4,1308(sp)
 1801070:	11015c0e 	bge	r2,r4,18015e4 <___vfprintf_internal_r+0xe80>
 1801074:	dc400d17 	ldw	r17,52(sp)
 1801078:	d9814917 	ldw	r6,1316(sp)
 180107c:	00800044 	movi	r2,1
 1801080:	94800044 	addi	r18,r18,1
 1801084:	8c400044 	addi	r17,r17,1
 1801088:	18800115 	stw	r2,4(r3)
 180108c:	008001c4 	movi	r2,7
 1801090:	19800015 	stw	r6,0(r3)
 1801094:	dc800e15 	stw	r18,56(sp)
 1801098:	dc400d15 	stw	r17,52(sp)
 180109c:	14431016 	blt	r2,r17,1801ce0 <___vfprintf_internal_r+0x157c>
 18010a0:	18c00204 	addi	r3,r3,8
 18010a4:	d8814717 	ldw	r2,1308(sp)
 18010a8:	143fffc4 	addi	r16,r2,-1
 18010ac:	043f2b0e 	bge	zero,r16,1800d5c <___vfprintf_internal_r+0x5f8>
 18010b0:	00800404 	movi	r2,16
 18010b4:	1402a20e 	bge	r2,r16,1801b40 <___vfprintf_internal_r+0x13dc>
 18010b8:	dc400d17 	ldw	r17,52(sp)
 18010bc:	1027883a 	mov	r19,r2
 18010c0:	07006074 	movhi	fp,385
 18010c4:	e7023384 	addi	fp,fp,2254
 18010c8:	050001c4 	movi	r20,7
 18010cc:	00000306 	br	18010dc <___vfprintf_internal_r+0x978>
 18010d0:	18c00204 	addi	r3,r3,8
 18010d4:	843ffc04 	addi	r16,r16,-16
 18010d8:	9c029c0e 	bge	r19,r16,1801b4c <___vfprintf_internal_r+0x13e8>
 18010dc:	94800404 	addi	r18,r18,16
 18010e0:	8c400044 	addi	r17,r17,1
 18010e4:	1f000015 	stw	fp,0(r3)
 18010e8:	1cc00115 	stw	r19,4(r3)
 18010ec:	dc800e15 	stw	r18,56(sp)
 18010f0:	dc400d15 	stw	r17,52(sp)
 18010f4:	a47ff60e 	bge	r20,r17,18010d0 <___vfprintf_internal_r+0x96c>
 18010f8:	d9014f17 	ldw	r4,1340(sp)
 18010fc:	b00b883a 	mov	r5,r22
 1801100:	d9800c04 	addi	r6,sp,48
 1801104:	180070c0 	call	180070c <__sprint_r>
 1801108:	103f4e1e 	bne	r2,zero,1800e44 <___vfprintf_internal_r+0x6e0>
 180110c:	dc800e17 	ldw	r18,56(sp)
 1801110:	dc400d17 	ldw	r17,52(sp)
 1801114:	d8c01904 	addi	r3,sp,100
 1801118:	003fee06 	br	18010d4 <___vfprintf_internal_r+0x970>
 180111c:	d8802c0b 	ldhu	r2,176(sp)
 1801120:	00ffffc4 	movi	r3,-1
 1801124:	d8c14b15 	stw	r3,1324(sp)
 1801128:	1080100c 	andi	r2,r2,64
 180112c:	103dcc1e 	bne	r2,zero,1800860 <___vfprintf_internal_r+0xfc>
 1801130:	003dce06 	br	180086c <___vfprintf_internal_r+0x108>
 1801134:	d9014f17 	ldw	r4,1340(sp)
 1801138:	b00b883a 	mov	r5,r22
 180113c:	d9800c04 	addi	r6,sp,48
 1801140:	180070c0 	call	180070c <__sprint_r>
 1801144:	103f3f1e 	bne	r2,zero,1800e44 <___vfprintf_internal_r+0x6e0>
 1801148:	dc800e17 	ldw	r18,56(sp)
 180114c:	003f2e06 	br	1800e08 <___vfprintf_internal_r+0x6a4>
 1801150:	d9414c17 	ldw	r5,1328(sp)
 1801154:	29400414 	ori	r5,r5,16
 1801158:	d9414c15 	stw	r5,1328(sp)
 180115c:	d9814c17 	ldw	r6,1328(sp)
 1801160:	3080080c 	andi	r2,r6,32
 1801164:	10014f1e 	bne	r2,zero,18016a4 <___vfprintf_internal_r+0xf40>
 1801168:	d8c14c17 	ldw	r3,1328(sp)
 180116c:	1880040c 	andi	r2,r3,16
 1801170:	1002ea1e 	bne	r2,zero,1801d1c <___vfprintf_internal_r+0x15b8>
 1801174:	d9014c17 	ldw	r4,1328(sp)
 1801178:	2080100c 	andi	r2,r4,64
 180117c:	1002e726 	beq	r2,zero,1801d1c <___vfprintf_internal_r+0x15b8>
 1801180:	3880000f 	ldh	r2,0(r7)
 1801184:	39c00104 	addi	r7,r7,4
 1801188:	d9c14015 	stw	r7,1280(sp)
 180118c:	1023d7fa 	srai	r17,r2,31
 1801190:	1021883a 	mov	r16,r2
 1801194:	88037216 	blt	r17,zero,1801f60 <___vfprintf_internal_r+0x17fc>
 1801198:	01000044 	movi	r4,1
 180119c:	98000416 	blt	r19,zero,18011b0 <___vfprintf_internal_r+0xa4c>
 18011a0:	d8c14c17 	ldw	r3,1328(sp)
 18011a4:	00bfdfc4 	movi	r2,-129
 18011a8:	1886703a 	and	r3,r3,r2
 18011ac:	d8c14c15 	stw	r3,1328(sp)
 18011b0:	8444b03a 	or	r2,r16,r17
 18011b4:	1002261e 	bne	r2,zero,1801a50 <___vfprintf_internal_r+0x12ec>
 18011b8:	9802251e 	bne	r19,zero,1801a50 <___vfprintf_internal_r+0x12ec>
 18011bc:	20803fcc 	andi	r2,r4,255
 18011c0:	10029b26 	beq	r2,zero,1801c30 <___vfprintf_internal_r+0x14cc>
 18011c4:	d8c01904 	addi	r3,sp,100
 18011c8:	dd000f04 	addi	r20,sp,60
 18011cc:	d8c14115 	stw	r3,1284(sp)
 18011d0:	d8c14117 	ldw	r3,1284(sp)
 18011d4:	dcc14515 	stw	r19,1300(sp)
 18011d8:	a0c5c83a 	sub	r2,r20,r3
 18011dc:	11c00a04 	addi	r7,r2,40
 18011e0:	99c0010e 	bge	r19,r7,18011e8 <___vfprintf_internal_r+0xa84>
 18011e4:	d9c14515 	stw	r7,1300(sp)
 18011e8:	dcc14615 	stw	r19,1304(sp)
 18011ec:	d8800407 	ldb	r2,16(sp)
 18011f0:	103e4c26 	beq	r2,zero,1800b24 <___vfprintf_internal_r+0x3c0>
 18011f4:	d8814517 	ldw	r2,1300(sp)
 18011f8:	10800044 	addi	r2,r2,1
 18011fc:	d8814515 	stw	r2,1300(sp)
 1801200:	003e4806 	br	1800b24 <___vfprintf_internal_r+0x3c0>
 1801204:	d9814c17 	ldw	r6,1328(sp)
 1801208:	31800414 	ori	r6,r6,16
 180120c:	d9814c15 	stw	r6,1328(sp)
 1801210:	d8c14c17 	ldw	r3,1328(sp)
 1801214:	1880080c 	andi	r2,r3,32
 1801218:	1001271e 	bne	r2,zero,18016b8 <___vfprintf_internal_r+0xf54>
 180121c:	d9414c17 	ldw	r5,1328(sp)
 1801220:	2880040c 	andi	r2,r5,16
 1801224:	1002b61e 	bne	r2,zero,1801d00 <___vfprintf_internal_r+0x159c>
 1801228:	d9814c17 	ldw	r6,1328(sp)
 180122c:	3080100c 	andi	r2,r6,64
 1801230:	1002b326 	beq	r2,zero,1801d00 <___vfprintf_internal_r+0x159c>
 1801234:	3c00000b 	ldhu	r16,0(r7)
 1801238:	0009883a 	mov	r4,zero
 180123c:	39c00104 	addi	r7,r7,4
 1801240:	0023883a 	mov	r17,zero
 1801244:	d9c14015 	stw	r7,1280(sp)
 1801248:	d8000405 	stb	zero,16(sp)
 180124c:	003fd306 	br	180119c <___vfprintf_internal_r+0xa38>
 1801250:	d9014c17 	ldw	r4,1328(sp)
 1801254:	21000414 	ori	r4,r4,16
 1801258:	d9014c15 	stw	r4,1328(sp)
 180125c:	d9414c17 	ldw	r5,1328(sp)
 1801260:	2880080c 	andi	r2,r5,32
 1801264:	1001081e 	bne	r2,zero,1801688 <___vfprintf_internal_r+0xf24>
 1801268:	d8c14c17 	ldw	r3,1328(sp)
 180126c:	1880040c 	andi	r2,r3,16
 1801270:	1002b01e 	bne	r2,zero,1801d34 <___vfprintf_internal_r+0x15d0>
 1801274:	d9014c17 	ldw	r4,1328(sp)
 1801278:	2080100c 	andi	r2,r4,64
 180127c:	1002ad26 	beq	r2,zero,1801d34 <___vfprintf_internal_r+0x15d0>
 1801280:	3c00000b 	ldhu	r16,0(r7)
 1801284:	01000044 	movi	r4,1
 1801288:	39c00104 	addi	r7,r7,4
 180128c:	0023883a 	mov	r17,zero
 1801290:	d9c14015 	stw	r7,1280(sp)
 1801294:	d8000405 	stb	zero,16(sp)
 1801298:	003fc006 	br	180119c <___vfprintf_internal_r+0xa38>
 180129c:	d9014f17 	ldw	r4,1340(sp)
 18012a0:	b00b883a 	mov	r5,r22
 18012a4:	d9800c04 	addi	r6,sp,48
 18012a8:	180070c0 	call	180070c <__sprint_r>
 18012ac:	103ee51e 	bne	r2,zero,1800e44 <___vfprintf_internal_r+0x6e0>
 18012b0:	dc800e17 	ldw	r18,56(sp)
 18012b4:	d8c01904 	addi	r3,sp,100
 18012b8:	d9814c17 	ldw	r6,1328(sp)
 18012bc:	3080004c 	andi	r2,r6,1
 18012c0:	1005003a 	cmpeq	r2,r2,zero
 18012c4:	103ea51e 	bne	r2,zero,1800d5c <___vfprintf_internal_r+0x5f8>
 18012c8:	00800044 	movi	r2,1
 18012cc:	dc400d17 	ldw	r17,52(sp)
 18012d0:	18800115 	stw	r2,4(r3)
 18012d4:	d8814917 	ldw	r2,1316(sp)
 18012d8:	94800044 	addi	r18,r18,1
 18012dc:	8c400044 	addi	r17,r17,1
 18012e0:	18800015 	stw	r2,0(r3)
 18012e4:	008001c4 	movi	r2,7
 18012e8:	dc800e15 	stw	r18,56(sp)
 18012ec:	dc400d15 	stw	r17,52(sp)
 18012f0:	14421e0e 	bge	r2,r17,1801b6c <___vfprintf_internal_r+0x1408>
 18012f4:	d9014f17 	ldw	r4,1340(sp)
 18012f8:	b00b883a 	mov	r5,r22
 18012fc:	d9800c04 	addi	r6,sp,48
 1801300:	180070c0 	call	180070c <__sprint_r>
 1801304:	103ecf1e 	bne	r2,zero,1800e44 <___vfprintf_internal_r+0x6e0>
 1801308:	dc800e17 	ldw	r18,56(sp)
 180130c:	d8c01904 	addi	r3,sp,100
 1801310:	003e9206 	br	1800d5c <___vfprintf_internal_r+0x5f8>
 1801314:	d9014f17 	ldw	r4,1340(sp)
 1801318:	b00b883a 	mov	r5,r22
 180131c:	d9800c04 	addi	r6,sp,48
 1801320:	180070c0 	call	180070c <__sprint_r>
 1801324:	103ec026 	beq	r2,zero,1800e28 <___vfprintf_internal_r+0x6c4>
 1801328:	003ec606 	br	1800e44 <___vfprintf_internal_r+0x6e0>
 180132c:	d9014f17 	ldw	r4,1340(sp)
 1801330:	b00b883a 	mov	r5,r22
 1801334:	d9800c04 	addi	r6,sp,48
 1801338:	d9c15115 	stw	r7,1348(sp)
 180133c:	180070c0 	call	180070c <__sprint_r>
 1801340:	d9c15117 	ldw	r7,1348(sp)
 1801344:	103ebf1e 	bne	r2,zero,1800e44 <___vfprintf_internal_r+0x6e0>
 1801348:	dc800e17 	ldw	r18,56(sp)
 180134c:	dc400d17 	ldw	r17,52(sp)
 1801350:	dd401904 	addi	r21,sp,100
 1801354:	003e7406 	br	1800d28 <___vfprintf_internal_r+0x5c4>
 1801358:	d9014f17 	ldw	r4,1340(sp)
 180135c:	b00b883a 	mov	r5,r22
 1801360:	d9800c04 	addi	r6,sp,48
 1801364:	d9c15115 	stw	r7,1348(sp)
 1801368:	180070c0 	call	180070c <__sprint_r>
 180136c:	d9c15117 	ldw	r7,1348(sp)
 1801370:	103eb41e 	bne	r2,zero,1800e44 <___vfprintf_internal_r+0x6e0>
 1801374:	dd401904 	addi	r21,sp,100
 1801378:	003d6d06 	br	1800930 <___vfprintf_internal_r+0x1cc>
 180137c:	d9014f17 	ldw	r4,1340(sp)
 1801380:	b00b883a 	mov	r5,r22
 1801384:	d9800c04 	addi	r6,sp,48
 1801388:	d9c15115 	stw	r7,1348(sp)
 180138c:	180070c0 	call	180070c <__sprint_r>
 1801390:	d9c15117 	ldw	r7,1348(sp)
 1801394:	103eab1e 	bne	r2,zero,1800e44 <___vfprintf_internal_r+0x6e0>
 1801398:	dc800e17 	ldw	r18,56(sp)
 180139c:	dc400d17 	ldw	r17,52(sp)
 18013a0:	dd401904 	addi	r21,sp,100
 18013a4:	003e3406 	br	1800c78 <___vfprintf_internal_r+0x514>
 18013a8:	d9014f17 	ldw	r4,1340(sp)
 18013ac:	b00b883a 	mov	r5,r22
 18013b0:	d9800c04 	addi	r6,sp,48
 18013b4:	d9c15115 	stw	r7,1348(sp)
 18013b8:	180070c0 	call	180070c <__sprint_r>
 18013bc:	d9c15117 	ldw	r7,1348(sp)
 18013c0:	103ea01e 	bne	r2,zero,1800e44 <___vfprintf_internal_r+0x6e0>
 18013c4:	dc800e17 	ldw	r18,56(sp)
 18013c8:	dc400d17 	ldw	r17,52(sp)
 18013cc:	dd401904 	addi	r21,sp,100
 18013d0:	003e1c06 	br	1800c44 <___vfprintf_internal_r+0x4e0>
 18013d4:	d9014f17 	ldw	r4,1340(sp)
 18013d8:	b00b883a 	mov	r5,r22
 18013dc:	d9800c04 	addi	r6,sp,48
 18013e0:	d9c15115 	stw	r7,1348(sp)
 18013e4:	180070c0 	call	180070c <__sprint_r>
 18013e8:	d9c15117 	ldw	r7,1348(sp)
 18013ec:	103e951e 	bne	r2,zero,1800e44 <___vfprintf_internal_r+0x6e0>
 18013f0:	dc800e17 	ldw	r18,56(sp)
 18013f4:	dc400d17 	ldw	r17,52(sp)
 18013f8:	dd401904 	addi	r21,sp,100
 18013fc:	003e0406 	br	1800c10 <___vfprintf_internal_r+0x4ac>
 1801400:	d9000517 	ldw	r4,20(sp)
 1801404:	0102520e 	bge	zero,r4,1801d50 <___vfprintf_internal_r+0x15ec>
 1801408:	d9814717 	ldw	r6,1308(sp)
 180140c:	21807a16 	blt	r4,r6,18015f8 <___vfprintf_internal_r+0xe94>
 1801410:	d8814117 	ldw	r2,1284(sp)
 1801414:	91a5883a 	add	r18,r18,r6
 1801418:	8c400044 	addi	r17,r17,1
 180141c:	a8800015 	stw	r2,0(r21)
 1801420:	008001c4 	movi	r2,7
 1801424:	a9800115 	stw	r6,4(r21)
 1801428:	dc800e15 	stw	r18,56(sp)
 180142c:	dc400d15 	stw	r17,52(sp)
 1801430:	1442f616 	blt	r2,r17,180200c <___vfprintf_internal_r+0x18a8>
 1801434:	a8c00204 	addi	r3,r21,8
 1801438:	d9414717 	ldw	r5,1308(sp)
 180143c:	2161c83a 	sub	r16,r4,r5
 1801440:	043f9d0e 	bge	zero,r16,18012b8 <___vfprintf_internal_r+0xb54>
 1801444:	00800404 	movi	r2,16
 1801448:	1402130e 	bge	r2,r16,1801c98 <___vfprintf_internal_r+0x1534>
 180144c:	dc400d17 	ldw	r17,52(sp)
 1801450:	1027883a 	mov	r19,r2
 1801454:	07006074 	movhi	fp,385
 1801458:	e7023384 	addi	fp,fp,2254
 180145c:	050001c4 	movi	r20,7
 1801460:	00000306 	br	1801470 <___vfprintf_internal_r+0xd0c>
 1801464:	18c00204 	addi	r3,r3,8
 1801468:	843ffc04 	addi	r16,r16,-16
 180146c:	9c020d0e 	bge	r19,r16,1801ca4 <___vfprintf_internal_r+0x1540>
 1801470:	94800404 	addi	r18,r18,16
 1801474:	8c400044 	addi	r17,r17,1
 1801478:	1f000015 	stw	fp,0(r3)
 180147c:	1cc00115 	stw	r19,4(r3)
 1801480:	dc800e15 	stw	r18,56(sp)
 1801484:	dc400d15 	stw	r17,52(sp)
 1801488:	a47ff60e 	bge	r20,r17,1801464 <___vfprintf_internal_r+0xd00>
 180148c:	d9014f17 	ldw	r4,1340(sp)
 1801490:	b00b883a 	mov	r5,r22
 1801494:	d9800c04 	addi	r6,sp,48
 1801498:	180070c0 	call	180070c <__sprint_r>
 180149c:	103e691e 	bne	r2,zero,1800e44 <___vfprintf_internal_r+0x6e0>
 18014a0:	dc800e17 	ldw	r18,56(sp)
 18014a4:	dc400d17 	ldw	r17,52(sp)
 18014a8:	d8c01904 	addi	r3,sp,100
 18014ac:	003fee06 	br	1801468 <___vfprintf_internal_r+0xd04>
 18014b0:	d8814717 	ldw	r2,1308(sp)
 18014b4:	143fffc4 	addi	r16,r2,-1
 18014b8:	043e970e 	bge	zero,r16,1800f18 <___vfprintf_internal_r+0x7b4>
 18014bc:	00800404 	movi	r2,16
 18014c0:	1400180e 	bge	r2,r16,1801524 <___vfprintf_internal_r+0xdc0>
 18014c4:	1029883a 	mov	r20,r2
 18014c8:	07006074 	movhi	fp,385
 18014cc:	e7023384 	addi	fp,fp,2254
 18014d0:	054001c4 	movi	r21,7
 18014d4:	00000306 	br	18014e4 <___vfprintf_internal_r+0xd80>
 18014d8:	9cc00204 	addi	r19,r19,8
 18014dc:	843ffc04 	addi	r16,r16,-16
 18014e0:	a400120e 	bge	r20,r16,180152c <___vfprintf_internal_r+0xdc8>
 18014e4:	94800404 	addi	r18,r18,16
 18014e8:	8c400044 	addi	r17,r17,1
 18014ec:	9f000015 	stw	fp,0(r19)
 18014f0:	9d000115 	stw	r20,4(r19)
 18014f4:	dc800e15 	stw	r18,56(sp)
 18014f8:	dc400d15 	stw	r17,52(sp)
 18014fc:	ac7ff60e 	bge	r21,r17,18014d8 <___vfprintf_internal_r+0xd74>
 1801500:	d9014f17 	ldw	r4,1340(sp)
 1801504:	b00b883a 	mov	r5,r22
 1801508:	d9800c04 	addi	r6,sp,48
 180150c:	180070c0 	call	180070c <__sprint_r>
 1801510:	103e4c1e 	bne	r2,zero,1800e44 <___vfprintf_internal_r+0x6e0>
 1801514:	dc800e17 	ldw	r18,56(sp)
 1801518:	dc400d17 	ldw	r17,52(sp)
 180151c:	dcc01904 	addi	r19,sp,100
 1801520:	003fee06 	br	18014dc <___vfprintf_internal_r+0xd78>
 1801524:	07006074 	movhi	fp,385
 1801528:	e7023384 	addi	fp,fp,2254
 180152c:	9425883a 	add	r18,r18,r16
 1801530:	8c400044 	addi	r17,r17,1
 1801534:	008001c4 	movi	r2,7
 1801538:	9f000015 	stw	fp,0(r19)
 180153c:	9c000115 	stw	r16,4(r19)
 1801540:	dc800e15 	stw	r18,56(sp)
 1801544:	dc400d15 	stw	r17,52(sp)
 1801548:	147e720e 	bge	r2,r17,1800f14 <___vfprintf_internal_r+0x7b0>
 180154c:	d9014f17 	ldw	r4,1340(sp)
 1801550:	b00b883a 	mov	r5,r22
 1801554:	d9800c04 	addi	r6,sp,48
 1801558:	180070c0 	call	180070c <__sprint_r>
 180155c:	103e391e 	bne	r2,zero,1800e44 <___vfprintf_internal_r+0x6e0>
 1801560:	dc800e17 	ldw	r18,56(sp)
 1801564:	dc400d17 	ldw	r17,52(sp)
 1801568:	dcc01904 	addi	r19,sp,100
 180156c:	003e6a06 	br	1800f18 <___vfprintf_internal_r+0x7b4>
 1801570:	d9014f17 	ldw	r4,1340(sp)
 1801574:	b00b883a 	mov	r5,r22
 1801578:	d9800c04 	addi	r6,sp,48
 180157c:	d9c15115 	stw	r7,1348(sp)
 1801580:	180070c0 	call	180070c <__sprint_r>
 1801584:	d9c15117 	ldw	r7,1348(sp)
 1801588:	103e2e1e 	bne	r2,zero,1800e44 <___vfprintf_internal_r+0x6e0>
 180158c:	dc800e17 	ldw	r18,56(sp)
 1801590:	dc400d17 	ldw	r17,52(sp)
 1801594:	dd401904 	addi	r21,sp,100
 1801598:	003dba06 	br	1800c84 <___vfprintf_internal_r+0x520>
 180159c:	d9014f17 	ldw	r4,1340(sp)
 18015a0:	b00b883a 	mov	r5,r22
 18015a4:	d9800c04 	addi	r6,sp,48
 18015a8:	180070c0 	call	180070c <__sprint_r>
 18015ac:	103e251e 	bne	r2,zero,1800e44 <___vfprintf_internal_r+0x6e0>
 18015b0:	dc800e17 	ldw	r18,56(sp)
 18015b4:	dc400d17 	ldw	r17,52(sp)
 18015b8:	dcc01904 	addi	r19,sp,100
 18015bc:	003e4206 	br	1800ec8 <___vfprintf_internal_r+0x764>
 18015c0:	d9014f17 	ldw	r4,1340(sp)
 18015c4:	b00b883a 	mov	r5,r22
 18015c8:	d9800c04 	addi	r6,sp,48
 18015cc:	180070c0 	call	180070c <__sprint_r>
 18015d0:	103e1c1e 	bne	r2,zero,1800e44 <___vfprintf_internal_r+0x6e0>
 18015d4:	dc800e17 	ldw	r18,56(sp)
 18015d8:	dc400d17 	ldw	r17,52(sp)
 18015dc:	d8c01904 	addi	r3,sp,100
 18015e0:	003e2e06 	br	1800e9c <___vfprintf_internal_r+0x738>
 18015e4:	d9414c17 	ldw	r5,1328(sp)
 18015e8:	2880004c 	andi	r2,r5,1
 18015ec:	1005003a 	cmpeq	r2,r2,zero
 18015f0:	103dda1e 	bne	r2,zero,1800d5c <___vfprintf_internal_r+0x5f8>
 18015f4:	003e9f06 	br	1801074 <___vfprintf_internal_r+0x910>
 18015f8:	d8c14117 	ldw	r3,1284(sp)
 18015fc:	9125883a 	add	r18,r18,r4
 1801600:	8c400044 	addi	r17,r17,1
 1801604:	008001c4 	movi	r2,7
 1801608:	a8c00015 	stw	r3,0(r21)
 180160c:	a9000115 	stw	r4,4(r21)
 1801610:	dc800e15 	stw	r18,56(sp)
 1801614:	dc400d15 	stw	r17,52(sp)
 1801618:	14426616 	blt	r2,r17,1801fb4 <___vfprintf_internal_r+0x1850>
 180161c:	a8c00204 	addi	r3,r21,8
 1801620:	d9414917 	ldw	r5,1316(sp)
 1801624:	00800044 	movi	r2,1
 1801628:	94800044 	addi	r18,r18,1
 180162c:	8c400044 	addi	r17,r17,1
 1801630:	18800115 	stw	r2,4(r3)
 1801634:	008001c4 	movi	r2,7
 1801638:	19400015 	stw	r5,0(r3)
 180163c:	dc800e15 	stw	r18,56(sp)
 1801640:	dc400d15 	stw	r17,52(sp)
 1801644:	2021883a 	mov	r16,r4
 1801648:	14425016 	blt	r2,r17,1801f8c <___vfprintf_internal_r+0x1828>
 180164c:	19400204 	addi	r5,r3,8
 1801650:	d9814717 	ldw	r6,1308(sp)
 1801654:	8c400044 	addi	r17,r17,1
 1801658:	dc400d15 	stw	r17,52(sp)
 180165c:	3107c83a 	sub	r3,r6,r4
 1801660:	d9014117 	ldw	r4,1284(sp)
 1801664:	90e5883a 	add	r18,r18,r3
 1801668:	28c00115 	stw	r3,4(r5)
 180166c:	8105883a 	add	r2,r16,r4
 1801670:	28800015 	stw	r2,0(r5)
 1801674:	008001c4 	movi	r2,7
 1801678:	dc800e15 	stw	r18,56(sp)
 180167c:	147f1d16 	blt	r2,r17,18012f4 <___vfprintf_internal_r+0xb90>
 1801680:	28c00204 	addi	r3,r5,8
 1801684:	003db506 	br	1800d5c <___vfprintf_internal_r+0x5f8>
 1801688:	3c000017 	ldw	r16,0(r7)
 180168c:	3c400117 	ldw	r17,4(r7)
 1801690:	39800204 	addi	r6,r7,8
 1801694:	01000044 	movi	r4,1
 1801698:	d9814015 	stw	r6,1280(sp)
 180169c:	d8000405 	stb	zero,16(sp)
 18016a0:	003ebe06 	br	180119c <___vfprintf_internal_r+0xa38>
 18016a4:	3c000017 	ldw	r16,0(r7)
 18016a8:	3c400117 	ldw	r17,4(r7)
 18016ac:	38800204 	addi	r2,r7,8
 18016b0:	d8814015 	stw	r2,1280(sp)
 18016b4:	003eb706 	br	1801194 <___vfprintf_internal_r+0xa30>
 18016b8:	3c000017 	ldw	r16,0(r7)
 18016bc:	3c400117 	ldw	r17,4(r7)
 18016c0:	39000204 	addi	r4,r7,8
 18016c4:	d9014015 	stw	r4,1280(sp)
 18016c8:	0009883a 	mov	r4,zero
 18016cc:	d8000405 	stb	zero,16(sp)
 18016d0:	003eb206 	br	180119c <___vfprintf_internal_r+0xa38>
 18016d4:	38c00017 	ldw	r3,0(r7)
 18016d8:	39c00104 	addi	r7,r7,4
 18016dc:	d8c14a15 	stw	r3,1320(sp)
 18016e0:	1800d10e 	bge	r3,zero,1801a28 <___vfprintf_internal_r+0x12c4>
 18016e4:	00c7c83a 	sub	r3,zero,r3
 18016e8:	d8c14a15 	stw	r3,1320(sp)
 18016ec:	d9014c17 	ldw	r4,1328(sp)
 18016f0:	b8c00007 	ldb	r3,0(r23)
 18016f4:	21000114 	ori	r4,r4,4
 18016f8:	d9014c15 	stw	r4,1328(sp)
 18016fc:	003c9806 	br	1800960 <___vfprintf_internal_r+0x1fc>
 1801700:	d9814c17 	ldw	r6,1328(sp)
 1801704:	3080080c 	andi	r2,r6,32
 1801708:	1001f026 	beq	r2,zero,1801ecc <___vfprintf_internal_r+0x1768>
 180170c:	d9014b17 	ldw	r4,1324(sp)
 1801710:	38800017 	ldw	r2,0(r7)
 1801714:	39c00104 	addi	r7,r7,4
 1801718:	d9c14015 	stw	r7,1280(sp)
 180171c:	2007d7fa 	srai	r3,r4,31
 1801720:	d9c14017 	ldw	r7,1280(sp)
 1801724:	11000015 	stw	r4,0(r2)
 1801728:	10c00115 	stw	r3,4(r2)
 180172c:	003c6906 	br	18008d4 <___vfprintf_internal_r+0x170>
 1801730:	b8c00007 	ldb	r3,0(r23)
 1801734:	00801b04 	movi	r2,108
 1801738:	18824f26 	beq	r3,r2,1802078 <___vfprintf_internal_r+0x1914>
 180173c:	d9414c17 	ldw	r5,1328(sp)
 1801740:	29400414 	ori	r5,r5,16
 1801744:	d9414c15 	stw	r5,1328(sp)
 1801748:	003c8506 	br	1800960 <___vfprintf_internal_r+0x1fc>
 180174c:	d9814c17 	ldw	r6,1328(sp)
 1801750:	b8c00007 	ldb	r3,0(r23)
 1801754:	31800814 	ori	r6,r6,32
 1801758:	d9814c15 	stw	r6,1328(sp)
 180175c:	003c8006 	br	1800960 <___vfprintf_internal_r+0x1fc>
 1801760:	d8814c17 	ldw	r2,1328(sp)
 1801764:	3c000017 	ldw	r16,0(r7)
 1801768:	00c01e04 	movi	r3,120
 180176c:	10800094 	ori	r2,r2,2
 1801770:	d8814c15 	stw	r2,1328(sp)
 1801774:	39c00104 	addi	r7,r7,4
 1801778:	01406074 	movhi	r5,385
 180177c:	29421c04 	addi	r5,r5,2160
 1801780:	00800c04 	movi	r2,48
 1801784:	0023883a 	mov	r17,zero
 1801788:	01000084 	movi	r4,2
 180178c:	d9c14015 	stw	r7,1280(sp)
 1801790:	d8c14d15 	stw	r3,1332(sp)
 1801794:	d9414415 	stw	r5,1296(sp)
 1801798:	d8800445 	stb	r2,17(sp)
 180179c:	d8c00485 	stb	r3,18(sp)
 18017a0:	d8000405 	stb	zero,16(sp)
 18017a4:	003e7d06 	br	180119c <___vfprintf_internal_r+0xa38>
 18017a8:	d8814c17 	ldw	r2,1328(sp)
 18017ac:	b8c00007 	ldb	r3,0(r23)
 18017b0:	10801014 	ori	r2,r2,64
 18017b4:	d8814c15 	stw	r2,1328(sp)
 18017b8:	003c6906 	br	1800960 <___vfprintf_internal_r+0x1fc>
 18017bc:	d9414c17 	ldw	r5,1328(sp)
 18017c0:	2880020c 	andi	r2,r5,8
 18017c4:	1001df26 	beq	r2,zero,1801f44 <___vfprintf_internal_r+0x17e0>
 18017c8:	39800017 	ldw	r6,0(r7)
 18017cc:	38800204 	addi	r2,r7,8
 18017d0:	d8814015 	stw	r2,1280(sp)
 18017d4:	d9814215 	stw	r6,1288(sp)
 18017d8:	39c00117 	ldw	r7,4(r7)
 18017dc:	d9c14315 	stw	r7,1292(sp)
 18017e0:	d9014217 	ldw	r4,1288(sp)
 18017e4:	d9414317 	ldw	r5,1292(sp)
 18017e8:	18071040 	call	1807104 <__isinfd>
 18017ec:	10021726 	beq	r2,zero,180204c <___vfprintf_internal_r+0x18e8>
 18017f0:	d9014217 	ldw	r4,1288(sp)
 18017f4:	d9414317 	ldw	r5,1292(sp)
 18017f8:	000d883a 	mov	r6,zero
 18017fc:	000f883a 	mov	r7,zero
 1801800:	180914c0 	call	180914c <__ltdf2>
 1801804:	1002ca16 	blt	r2,zero,1802330 <___vfprintf_internal_r+0x1bcc>
 1801808:	d9414d17 	ldw	r5,1332(sp)
 180180c:	008011c4 	movi	r2,71
 1801810:	11420a16 	blt	r2,r5,180203c <___vfprintf_internal_r+0x18d8>
 1801814:	01806074 	movhi	r6,385
 1801818:	31822104 	addi	r6,r6,2180
 180181c:	d9814115 	stw	r6,1284(sp)
 1801820:	d9014c17 	ldw	r4,1328(sp)
 1801824:	00c000c4 	movi	r3,3
 1801828:	00bfdfc4 	movi	r2,-129
 180182c:	2088703a 	and	r4,r4,r2
 1801830:	180f883a 	mov	r7,r3
 1801834:	d8c14515 	stw	r3,1300(sp)
 1801838:	d9014c15 	stw	r4,1328(sp)
 180183c:	d8014615 	stw	zero,1304(sp)
 1801840:	003e6a06 	br	18011ec <___vfprintf_internal_r+0xa88>
 1801844:	38800017 	ldw	r2,0(r7)
 1801848:	00c00044 	movi	r3,1
 180184c:	39c00104 	addi	r7,r7,4
 1801850:	d9c14015 	stw	r7,1280(sp)
 1801854:	d9000f04 	addi	r4,sp,60
 1801858:	180f883a 	mov	r7,r3
 180185c:	d8c14515 	stw	r3,1300(sp)
 1801860:	d9014115 	stw	r4,1284(sp)
 1801864:	d8800f05 	stb	r2,60(sp)
 1801868:	d8000405 	stb	zero,16(sp)
 180186c:	003cac06 	br	1800b20 <___vfprintf_internal_r+0x3bc>
 1801870:	01406074 	movhi	r5,385
 1801874:	29422704 	addi	r5,r5,2204
 1801878:	d9414415 	stw	r5,1296(sp)
 180187c:	d9814c17 	ldw	r6,1328(sp)
 1801880:	3080080c 	andi	r2,r6,32
 1801884:	1000f926 	beq	r2,zero,1801c6c <___vfprintf_internal_r+0x1508>
 1801888:	3c000017 	ldw	r16,0(r7)
 180188c:	3c400117 	ldw	r17,4(r7)
 1801890:	38800204 	addi	r2,r7,8
 1801894:	d8814015 	stw	r2,1280(sp)
 1801898:	d9414c17 	ldw	r5,1328(sp)
 180189c:	2880004c 	andi	r2,r5,1
 18018a0:	1005003a 	cmpeq	r2,r2,zero
 18018a4:	1000b31e 	bne	r2,zero,1801b74 <___vfprintf_internal_r+0x1410>
 18018a8:	8444b03a 	or	r2,r16,r17
 18018ac:	1000b126 	beq	r2,zero,1801b74 <___vfprintf_internal_r+0x1410>
 18018b0:	d9814d17 	ldw	r6,1332(sp)
 18018b4:	29400094 	ori	r5,r5,2
 18018b8:	00800c04 	movi	r2,48
 18018bc:	01000084 	movi	r4,2
 18018c0:	d9414c15 	stw	r5,1328(sp)
 18018c4:	d8800445 	stb	r2,17(sp)
 18018c8:	d9800485 	stb	r6,18(sp)
 18018cc:	d8000405 	stb	zero,16(sp)
 18018d0:	003e3206 	br	180119c <___vfprintf_internal_r+0xa38>
 18018d4:	01806074 	movhi	r6,385
 18018d8:	31821c04 	addi	r6,r6,2160
 18018dc:	d9814415 	stw	r6,1296(sp)
 18018e0:	003fe606 	br	180187c <___vfprintf_internal_r+0x1118>
 18018e4:	00800ac4 	movi	r2,43
 18018e8:	d8800405 	stb	r2,16(sp)
 18018ec:	b8c00007 	ldb	r3,0(r23)
 18018f0:	003c1b06 	br	1800960 <___vfprintf_internal_r+0x1fc>
 18018f4:	d8814c17 	ldw	r2,1328(sp)
 18018f8:	b8c00007 	ldb	r3,0(r23)
 18018fc:	10800054 	ori	r2,r2,1
 1801900:	d8814c15 	stw	r2,1328(sp)
 1801904:	003c1606 	br	1800960 <___vfprintf_internal_r+0x1fc>
 1801908:	d8800407 	ldb	r2,16(sp)
 180190c:	1000461e 	bne	r2,zero,1801a28 <___vfprintf_internal_r+0x12c4>
 1801910:	00800804 	movi	r2,32
 1801914:	d8800405 	stb	r2,16(sp)
 1801918:	b8c00007 	ldb	r3,0(r23)
 180191c:	003c1006 	br	1800960 <___vfprintf_internal_r+0x1fc>
 1801920:	d9814c17 	ldw	r6,1328(sp)
 1801924:	b8c00007 	ldb	r3,0(r23)
 1801928:	31800214 	ori	r6,r6,8
 180192c:	d9814c15 	stw	r6,1328(sp)
 1801930:	003c0b06 	br	1800960 <___vfprintf_internal_r+0x1fc>
 1801934:	0007883a 	mov	r3,zero
 1801938:	01000244 	movi	r4,9
 180193c:	188002a4 	muli	r2,r3,10
 1801940:	b8c00007 	ldb	r3,0(r23)
 1801944:	d9814d17 	ldw	r6,1332(sp)
 1801948:	bdc00044 	addi	r23,r23,1
 180194c:	d8c14d15 	stw	r3,1332(sp)
 1801950:	d9414d17 	ldw	r5,1332(sp)
 1801954:	3085883a 	add	r2,r6,r2
 1801958:	10fff404 	addi	r3,r2,-48
 180195c:	28bff404 	addi	r2,r5,-48
 1801960:	20bff62e 	bgeu	r4,r2,180193c <___vfprintf_internal_r+0x11d8>
 1801964:	d8c14a15 	stw	r3,1320(sp)
 1801968:	003bff06 	br	1800968 <___vfprintf_internal_r+0x204>
 180196c:	d9414c17 	ldw	r5,1328(sp)
 1801970:	b8c00007 	ldb	r3,0(r23)
 1801974:	29402014 	ori	r5,r5,128
 1801978:	d9414c15 	stw	r5,1328(sp)
 180197c:	003bf806 	br	1800960 <___vfprintf_internal_r+0x1fc>
 1801980:	b8c00007 	ldb	r3,0(r23)
 1801984:	00800a84 	movi	r2,42
 1801988:	bdc00044 	addi	r23,r23,1
 180198c:	18831526 	beq	r3,r2,18025e4 <___vfprintf_internal_r+0x1e80>
 1801990:	d8c14d15 	stw	r3,1332(sp)
 1801994:	18bff404 	addi	r2,r3,-48
 1801998:	00c00244 	movi	r3,9
 180199c:	18827836 	bltu	r3,r2,1802380 <___vfprintf_internal_r+0x1c1c>
 18019a0:	000d883a 	mov	r6,zero
 18019a4:	308002a4 	muli	r2,r6,10
 18019a8:	b9800007 	ldb	r6,0(r23)
 18019ac:	d9414d17 	ldw	r5,1332(sp)
 18019b0:	bdc00044 	addi	r23,r23,1
 18019b4:	d9814d15 	stw	r6,1332(sp)
 18019b8:	d9014d17 	ldw	r4,1332(sp)
 18019bc:	1145883a 	add	r2,r2,r5
 18019c0:	11bff404 	addi	r6,r2,-48
 18019c4:	20bff404 	addi	r2,r4,-48
 18019c8:	18bff62e 	bgeu	r3,r2,18019a4 <___vfprintf_internal_r+0x1240>
 18019cc:	3027883a 	mov	r19,r6
 18019d0:	303be50e 	bge	r6,zero,1800968 <___vfprintf_internal_r+0x204>
 18019d4:	04ffffc4 	movi	r19,-1
 18019d8:	003be306 	br	1800968 <___vfprintf_internal_r+0x204>
 18019dc:	d8000405 	stb	zero,16(sp)
 18019e0:	39800017 	ldw	r6,0(r7)
 18019e4:	39c00104 	addi	r7,r7,4
 18019e8:	d9c14015 	stw	r7,1280(sp)
 18019ec:	d9814115 	stw	r6,1284(sp)
 18019f0:	3001c926 	beq	r6,zero,1802118 <___vfprintf_internal_r+0x19b4>
 18019f4:	98000e16 	blt	r19,zero,1801a30 <___vfprintf_internal_r+0x12cc>
 18019f8:	d9014117 	ldw	r4,1284(sp)
 18019fc:	000b883a 	mov	r5,zero
 1801a00:	980d883a 	mov	r6,r19
 1801a04:	18058200 	call	1805820 <memchr>
 1801a08:	10025926 	beq	r2,zero,1802370 <___vfprintf_internal_r+0x1c0c>
 1801a0c:	d8c14117 	ldw	r3,1284(sp)
 1801a10:	10cfc83a 	sub	r7,r2,r3
 1801a14:	99c19e16 	blt	r19,r7,1802090 <___vfprintf_internal_r+0x192c>
 1801a18:	d9c14515 	stw	r7,1300(sp)
 1801a1c:	38000916 	blt	r7,zero,1801a44 <___vfprintf_internal_r+0x12e0>
 1801a20:	d8014615 	stw	zero,1304(sp)
 1801a24:	003df106 	br	18011ec <___vfprintf_internal_r+0xa88>
 1801a28:	b8c00007 	ldb	r3,0(r23)
 1801a2c:	003bcc06 	br	1800960 <___vfprintf_internal_r+0x1fc>
 1801a30:	d9014117 	ldw	r4,1284(sp)
 1801a34:	18006980 	call	1800698 <strlen>
 1801a38:	d8814515 	stw	r2,1300(sp)
 1801a3c:	100f883a 	mov	r7,r2
 1801a40:	103ff70e 	bge	r2,zero,1801a20 <___vfprintf_internal_r+0x12bc>
 1801a44:	d8014515 	stw	zero,1300(sp)
 1801a48:	d8014615 	stw	zero,1304(sp)
 1801a4c:	003de706 	br	18011ec <___vfprintf_internal_r+0xa88>
 1801a50:	20c03fcc 	andi	r3,r4,255
 1801a54:	00800044 	movi	r2,1
 1801a58:	18802d26 	beq	r3,r2,1801b10 <___vfprintf_internal_r+0x13ac>
 1801a5c:	18800e36 	bltu	r3,r2,1801a98 <___vfprintf_internal_r+0x1334>
 1801a60:	00800084 	movi	r2,2
 1801a64:	1880fa26 	beq	r3,r2,1801e50 <___vfprintf_internal_r+0x16ec>
 1801a68:	01006074 	movhi	r4,385
 1801a6c:	21022c04 	addi	r4,r4,2224
 1801a70:	18006980 	call	1800698 <strlen>
 1801a74:	100f883a 	mov	r7,r2
 1801a78:	dcc14515 	stw	r19,1300(sp)
 1801a7c:	9880010e 	bge	r19,r2,1801a84 <___vfprintf_internal_r+0x1320>
 1801a80:	d8814515 	stw	r2,1300(sp)
 1801a84:	00806074 	movhi	r2,385
 1801a88:	10822c04 	addi	r2,r2,2224
 1801a8c:	dcc14615 	stw	r19,1304(sp)
 1801a90:	d8814115 	stw	r2,1284(sp)
 1801a94:	003dd506 	br	18011ec <___vfprintf_internal_r+0xa88>
 1801a98:	d9401904 	addi	r5,sp,100
 1801a9c:	dd000f04 	addi	r20,sp,60
 1801aa0:	d9414115 	stw	r5,1284(sp)
 1801aa4:	880a977a 	slli	r5,r17,29
 1801aa8:	d9814117 	ldw	r6,1284(sp)
 1801aac:	8004d0fa 	srli	r2,r16,3
 1801ab0:	8806d0fa 	srli	r3,r17,3
 1801ab4:	810001cc 	andi	r4,r16,7
 1801ab8:	2884b03a 	or	r2,r5,r2
 1801abc:	31bfffc4 	addi	r6,r6,-1
 1801ac0:	21000c04 	addi	r4,r4,48
 1801ac4:	d9814115 	stw	r6,1284(sp)
 1801ac8:	10cab03a 	or	r5,r2,r3
 1801acc:	31000005 	stb	r4,0(r6)
 1801ad0:	1021883a 	mov	r16,r2
 1801ad4:	1823883a 	mov	r17,r3
 1801ad8:	283ff21e 	bne	r5,zero,1801aa4 <___vfprintf_internal_r+0x1340>
 1801adc:	d8c14c17 	ldw	r3,1328(sp)
 1801ae0:	1880004c 	andi	r2,r3,1
 1801ae4:	1005003a 	cmpeq	r2,r2,zero
 1801ae8:	103db91e 	bne	r2,zero,18011d0 <___vfprintf_internal_r+0xa6c>
 1801aec:	20803fcc 	andi	r2,r4,255
 1801af0:	1080201c 	xori	r2,r2,128
 1801af4:	10bfe004 	addi	r2,r2,-128
 1801af8:	00c00c04 	movi	r3,48
 1801afc:	10fdb426 	beq	r2,r3,18011d0 <___vfprintf_internal_r+0xa6c>
 1801b00:	31bfffc4 	addi	r6,r6,-1
 1801b04:	d9814115 	stw	r6,1284(sp)
 1801b08:	30c00005 	stb	r3,0(r6)
 1801b0c:	003db006 	br	18011d0 <___vfprintf_internal_r+0xa6c>
 1801b10:	88800068 	cmpgeui	r2,r17,1
 1801b14:	10002c1e 	bne	r2,zero,1801bc8 <___vfprintf_internal_r+0x1464>
 1801b18:	8800021e 	bne	r17,zero,1801b24 <___vfprintf_internal_r+0x13c0>
 1801b1c:	00800244 	movi	r2,9
 1801b20:	14002936 	bltu	r2,r16,1801bc8 <___vfprintf_internal_r+0x1464>
 1801b24:	d90018c4 	addi	r4,sp,99
 1801b28:	dd000f04 	addi	r20,sp,60
 1801b2c:	d9014115 	stw	r4,1284(sp)
 1801b30:	d9014117 	ldw	r4,1284(sp)
 1801b34:	80800c04 	addi	r2,r16,48
 1801b38:	20800005 	stb	r2,0(r4)
 1801b3c:	003da406 	br	18011d0 <___vfprintf_internal_r+0xa6c>
 1801b40:	dc400d17 	ldw	r17,52(sp)
 1801b44:	07006074 	movhi	fp,385
 1801b48:	e7023384 	addi	fp,fp,2254
 1801b4c:	9425883a 	add	r18,r18,r16
 1801b50:	8c400044 	addi	r17,r17,1
 1801b54:	008001c4 	movi	r2,7
 1801b58:	1f000015 	stw	fp,0(r3)
 1801b5c:	1c000115 	stw	r16,4(r3)
 1801b60:	dc800e15 	stw	r18,56(sp)
 1801b64:	dc400d15 	stw	r17,52(sp)
 1801b68:	147de216 	blt	r2,r17,18012f4 <___vfprintf_internal_r+0xb90>
 1801b6c:	18c00204 	addi	r3,r3,8
 1801b70:	003c7a06 	br	1800d5c <___vfprintf_internal_r+0x5f8>
 1801b74:	01000084 	movi	r4,2
 1801b78:	d8000405 	stb	zero,16(sp)
 1801b7c:	003d8706 	br	180119c <___vfprintf_internal_r+0xa38>
 1801b80:	d9814c17 	ldw	r6,1328(sp)
 1801b84:	30c4703a 	and	r2,r6,r3
 1801b88:	1005003a 	cmpeq	r2,r2,zero
 1801b8c:	103cb926 	beq	r2,zero,1800e74 <___vfprintf_internal_r+0x710>
 1801b90:	d9014117 	ldw	r4,1284(sp)
 1801b94:	94800044 	addi	r18,r18,1
 1801b98:	8c400044 	addi	r17,r17,1
 1801b9c:	008001c4 	movi	r2,7
 1801ba0:	a9000015 	stw	r4,0(r21)
 1801ba4:	a8c00115 	stw	r3,4(r21)
 1801ba8:	dc800e15 	stw	r18,56(sp)
 1801bac:	dc400d15 	stw	r17,52(sp)
 1801bb0:	147e6616 	blt	r2,r17,180154c <___vfprintf_internal_r+0xde8>
 1801bb4:	acc00204 	addi	r19,r21,8
 1801bb8:	003cd706 	br	1800f18 <___vfprintf_internal_r+0x7b4>
 1801bbc:	07006074 	movhi	fp,385
 1801bc0:	e7023384 	addi	fp,fp,2254
 1801bc4:	003c4f06 	br	1800d04 <___vfprintf_internal_r+0x5a0>
 1801bc8:	dd000f04 	addi	r20,sp,60
 1801bcc:	dc801904 	addi	r18,sp,100
 1801bd0:	8009883a 	mov	r4,r16
 1801bd4:	880b883a 	mov	r5,r17
 1801bd8:	01800284 	movi	r6,10
 1801bdc:	000f883a 	mov	r7,zero
 1801be0:	1807e5c0 	call	1807e5c <__umoddi3>
 1801be4:	12000c04 	addi	r8,r2,48
 1801be8:	94bfffc4 	addi	r18,r18,-1
 1801bec:	8009883a 	mov	r4,r16
 1801bf0:	880b883a 	mov	r5,r17
 1801bf4:	01800284 	movi	r6,10
 1801bf8:	000f883a 	mov	r7,zero
 1801bfc:	92000005 	stb	r8,0(r18)
 1801c00:	18078800 	call	1807880 <__udivdi3>
 1801c04:	1009883a 	mov	r4,r2
 1801c08:	1021883a 	mov	r16,r2
 1801c0c:	18800068 	cmpgeui	r2,r3,1
 1801c10:	1823883a 	mov	r17,r3
 1801c14:	103fee1e 	bne	r2,zero,1801bd0 <___vfprintf_internal_r+0x146c>
 1801c18:	1800021e 	bne	r3,zero,1801c24 <___vfprintf_internal_r+0x14c0>
 1801c1c:	00800244 	movi	r2,9
 1801c20:	113feb36 	bltu	r2,r4,1801bd0 <___vfprintf_internal_r+0x146c>
 1801c24:	94bfffc4 	addi	r18,r18,-1
 1801c28:	dc814115 	stw	r18,1284(sp)
 1801c2c:	003fc006 	br	1801b30 <___vfprintf_internal_r+0x13cc>
 1801c30:	d9014c17 	ldw	r4,1328(sp)
 1801c34:	2080004c 	andi	r2,r4,1
 1801c38:	10009a1e 	bne	r2,zero,1801ea4 <___vfprintf_internal_r+0x1740>
 1801c3c:	d9401904 	addi	r5,sp,100
 1801c40:	dd000f04 	addi	r20,sp,60
 1801c44:	d9414115 	stw	r5,1284(sp)
 1801c48:	003d6106 	br	18011d0 <___vfprintf_internal_r+0xa6c>
 1801c4c:	d9014f17 	ldw	r4,1340(sp)
 1801c50:	b00b883a 	mov	r5,r22
 1801c54:	d9800c04 	addi	r6,sp,48
 1801c58:	180070c0 	call	180070c <__sprint_r>
 1801c5c:	103c791e 	bne	r2,zero,1800e44 <___vfprintf_internal_r+0x6e0>
 1801c60:	dc800e17 	ldw	r18,56(sp)
 1801c64:	d8c01904 	addi	r3,sp,100
 1801c68:	003cff06 	br	1801068 <___vfprintf_internal_r+0x904>
 1801c6c:	d8c14c17 	ldw	r3,1328(sp)
 1801c70:	1880040c 	andi	r2,r3,16
 1801c74:	1000711e 	bne	r2,zero,1801e3c <___vfprintf_internal_r+0x16d8>
 1801c78:	d9014c17 	ldw	r4,1328(sp)
 1801c7c:	2080100c 	andi	r2,r4,64
 1801c80:	10006e26 	beq	r2,zero,1801e3c <___vfprintf_internal_r+0x16d8>
 1801c84:	3c00000b 	ldhu	r16,0(r7)
 1801c88:	0023883a 	mov	r17,zero
 1801c8c:	39c00104 	addi	r7,r7,4
 1801c90:	d9c14015 	stw	r7,1280(sp)
 1801c94:	003f0006 	br	1801898 <___vfprintf_internal_r+0x1134>
 1801c98:	dc400d17 	ldw	r17,52(sp)
 1801c9c:	07006074 	movhi	fp,385
 1801ca0:	e7023384 	addi	fp,fp,2254
 1801ca4:	9425883a 	add	r18,r18,r16
 1801ca8:	8c400044 	addi	r17,r17,1
 1801cac:	008001c4 	movi	r2,7
 1801cb0:	1f000015 	stw	fp,0(r3)
 1801cb4:	1c000115 	stw	r16,4(r3)
 1801cb8:	dc800e15 	stw	r18,56(sp)
 1801cbc:	dc400d15 	stw	r17,52(sp)
 1801cc0:	147d7616 	blt	r2,r17,180129c <___vfprintf_internal_r+0xb38>
 1801cc4:	18c00204 	addi	r3,r3,8
 1801cc8:	003d7b06 	br	18012b8 <___vfprintf_internal_r+0xb54>
 1801ccc:	dc800e17 	ldw	r18,56(sp)
 1801cd0:	dc400d17 	ldw	r17,52(sp)
 1801cd4:	07006074 	movhi	fp,385
 1801cd8:	e7023784 	addi	fp,fp,2270
 1801cdc:	003bc006 	br	1800be0 <___vfprintf_internal_r+0x47c>
 1801ce0:	d9014f17 	ldw	r4,1340(sp)
 1801ce4:	b00b883a 	mov	r5,r22
 1801ce8:	d9800c04 	addi	r6,sp,48
 1801cec:	180070c0 	call	180070c <__sprint_r>
 1801cf0:	103c541e 	bne	r2,zero,1800e44 <___vfprintf_internal_r+0x6e0>
 1801cf4:	dc800e17 	ldw	r18,56(sp)
 1801cf8:	d8c01904 	addi	r3,sp,100
 1801cfc:	003ce906 	br	18010a4 <___vfprintf_internal_r+0x940>
 1801d00:	3c000017 	ldw	r16,0(r7)
 1801d04:	0009883a 	mov	r4,zero
 1801d08:	39c00104 	addi	r7,r7,4
 1801d0c:	0023883a 	mov	r17,zero
 1801d10:	d9c14015 	stw	r7,1280(sp)
 1801d14:	d8000405 	stb	zero,16(sp)
 1801d18:	003d2006 	br	180119c <___vfprintf_internal_r+0xa38>
 1801d1c:	38800017 	ldw	r2,0(r7)
 1801d20:	39c00104 	addi	r7,r7,4
 1801d24:	d9c14015 	stw	r7,1280(sp)
 1801d28:	1023d7fa 	srai	r17,r2,31
 1801d2c:	1021883a 	mov	r16,r2
 1801d30:	003d1806 	br	1801194 <___vfprintf_internal_r+0xa30>
 1801d34:	3c000017 	ldw	r16,0(r7)
 1801d38:	01000044 	movi	r4,1
 1801d3c:	39c00104 	addi	r7,r7,4
 1801d40:	0023883a 	mov	r17,zero
 1801d44:	d9c14015 	stw	r7,1280(sp)
 1801d48:	d8000405 	stb	zero,16(sp)
 1801d4c:	003d1306 	br	180119c <___vfprintf_internal_r+0xa38>
 1801d50:	00806074 	movhi	r2,385
 1801d54:	10823304 	addi	r2,r2,2252
 1801d58:	94800044 	addi	r18,r18,1
 1801d5c:	8c400044 	addi	r17,r17,1
 1801d60:	a8800015 	stw	r2,0(r21)
 1801d64:	00c00044 	movi	r3,1
 1801d68:	008001c4 	movi	r2,7
 1801d6c:	a8c00115 	stw	r3,4(r21)
 1801d70:	dc800e15 	stw	r18,56(sp)
 1801d74:	dc400d15 	stw	r17,52(sp)
 1801d78:	1440ca16 	blt	r2,r17,18020a4 <___vfprintf_internal_r+0x1940>
 1801d7c:	a8c00204 	addi	r3,r21,8
 1801d80:	2000061e 	bne	r4,zero,1801d9c <___vfprintf_internal_r+0x1638>
 1801d84:	d9414717 	ldw	r5,1308(sp)
 1801d88:	2800041e 	bne	r5,zero,1801d9c <___vfprintf_internal_r+0x1638>
 1801d8c:	d9814c17 	ldw	r6,1328(sp)
 1801d90:	3080004c 	andi	r2,r6,1
 1801d94:	1005003a 	cmpeq	r2,r2,zero
 1801d98:	103bf01e 	bne	r2,zero,1800d5c <___vfprintf_internal_r+0x5f8>
 1801d9c:	00800044 	movi	r2,1
 1801da0:	dc400d17 	ldw	r17,52(sp)
 1801da4:	18800115 	stw	r2,4(r3)
 1801da8:	d8814917 	ldw	r2,1316(sp)
 1801dac:	94800044 	addi	r18,r18,1
 1801db0:	8c400044 	addi	r17,r17,1
 1801db4:	18800015 	stw	r2,0(r3)
 1801db8:	008001c4 	movi	r2,7
 1801dbc:	dc800e15 	stw	r18,56(sp)
 1801dc0:	dc400d15 	stw	r17,52(sp)
 1801dc4:	1440ca16 	blt	r2,r17,18020f0 <___vfprintf_internal_r+0x198c>
 1801dc8:	18c00204 	addi	r3,r3,8
 1801dcc:	0121c83a 	sub	r16,zero,r4
 1801dd0:	0400500e 	bge	zero,r16,1801f14 <___vfprintf_internal_r+0x17b0>
 1801dd4:	00800404 	movi	r2,16
 1801dd8:	1400800e 	bge	r2,r16,1801fdc <___vfprintf_internal_r+0x1878>
 1801ddc:	1027883a 	mov	r19,r2
 1801de0:	07006074 	movhi	fp,385
 1801de4:	e7023384 	addi	fp,fp,2254
 1801de8:	050001c4 	movi	r20,7
 1801dec:	00000306 	br	1801dfc <___vfprintf_internal_r+0x1698>
 1801df0:	18c00204 	addi	r3,r3,8
 1801df4:	843ffc04 	addi	r16,r16,-16
 1801df8:	9c007a0e 	bge	r19,r16,1801fe4 <___vfprintf_internal_r+0x1880>
 1801dfc:	94800404 	addi	r18,r18,16
 1801e00:	8c400044 	addi	r17,r17,1
 1801e04:	1f000015 	stw	fp,0(r3)
 1801e08:	1cc00115 	stw	r19,4(r3)
 1801e0c:	dc800e15 	stw	r18,56(sp)
 1801e10:	dc400d15 	stw	r17,52(sp)
 1801e14:	a47ff60e 	bge	r20,r17,1801df0 <___vfprintf_internal_r+0x168c>
 1801e18:	d9014f17 	ldw	r4,1340(sp)
 1801e1c:	b00b883a 	mov	r5,r22
 1801e20:	d9800c04 	addi	r6,sp,48
 1801e24:	180070c0 	call	180070c <__sprint_r>
 1801e28:	103c061e 	bne	r2,zero,1800e44 <___vfprintf_internal_r+0x6e0>
 1801e2c:	dc800e17 	ldw	r18,56(sp)
 1801e30:	dc400d17 	ldw	r17,52(sp)
 1801e34:	d8c01904 	addi	r3,sp,100
 1801e38:	003fee06 	br	1801df4 <___vfprintf_internal_r+0x1690>
 1801e3c:	3c000017 	ldw	r16,0(r7)
 1801e40:	0023883a 	mov	r17,zero
 1801e44:	39c00104 	addi	r7,r7,4
 1801e48:	d9c14015 	stw	r7,1280(sp)
 1801e4c:	003e9206 	br	1801898 <___vfprintf_internal_r+0x1134>
 1801e50:	d9401904 	addi	r5,sp,100
 1801e54:	dd000f04 	addi	r20,sp,60
 1801e58:	d9414115 	stw	r5,1284(sp)
 1801e5c:	d9814417 	ldw	r6,1296(sp)
 1801e60:	880a973a 	slli	r5,r17,28
 1801e64:	8004d13a 	srli	r2,r16,4
 1801e68:	810003cc 	andi	r4,r16,15
 1801e6c:	3109883a 	add	r4,r6,r4
 1801e70:	2884b03a 	or	r2,r5,r2
 1801e74:	21400003 	ldbu	r5,0(r4)
 1801e78:	d9014117 	ldw	r4,1284(sp)
 1801e7c:	8806d13a 	srli	r3,r17,4
 1801e80:	1021883a 	mov	r16,r2
 1801e84:	213fffc4 	addi	r4,r4,-1
 1801e88:	d9014115 	stw	r4,1284(sp)
 1801e8c:	d9814117 	ldw	r6,1284(sp)
 1801e90:	10c8b03a 	or	r4,r2,r3
 1801e94:	1823883a 	mov	r17,r3
 1801e98:	31400005 	stb	r5,0(r6)
 1801e9c:	203fef1e 	bne	r4,zero,1801e5c <___vfprintf_internal_r+0x16f8>
 1801ea0:	003ccb06 	br	18011d0 <___vfprintf_internal_r+0xa6c>
 1801ea4:	00800c04 	movi	r2,48
 1801ea8:	d98018c4 	addi	r6,sp,99
 1801eac:	dd000f04 	addi	r20,sp,60
 1801eb0:	d88018c5 	stb	r2,99(sp)
 1801eb4:	d9814115 	stw	r6,1284(sp)
 1801eb8:	003cc506 	br	18011d0 <___vfprintf_internal_r+0xa6c>
 1801ebc:	dc400d17 	ldw	r17,52(sp)
 1801ec0:	07006074 	movhi	fp,385
 1801ec4:	e7023784 	addi	fp,fp,2270
 1801ec8:	003bc706 	br	1800de8 <___vfprintf_internal_r+0x684>
 1801ecc:	d9414c17 	ldw	r5,1328(sp)
 1801ed0:	2880040c 	andi	r2,r5,16
 1801ed4:	10007c26 	beq	r2,zero,18020c8 <___vfprintf_internal_r+0x1964>
 1801ed8:	38800017 	ldw	r2,0(r7)
 1801edc:	39c00104 	addi	r7,r7,4
 1801ee0:	d9c14015 	stw	r7,1280(sp)
 1801ee4:	d9814b17 	ldw	r6,1324(sp)
 1801ee8:	d9c14017 	ldw	r7,1280(sp)
 1801eec:	11800015 	stw	r6,0(r2)
 1801ef0:	003a7806 	br	18008d4 <___vfprintf_internal_r+0x170>
 1801ef4:	d9014f17 	ldw	r4,1340(sp)
 1801ef8:	b00b883a 	mov	r5,r22
 1801efc:	d9800c04 	addi	r6,sp,48
 1801f00:	180070c0 	call	180070c <__sprint_r>
 1801f04:	103bcf1e 	bne	r2,zero,1800e44 <___vfprintf_internal_r+0x6e0>
 1801f08:	dc800e17 	ldw	r18,56(sp)
 1801f0c:	dc400d17 	ldw	r17,52(sp)
 1801f10:	d8c01904 	addi	r3,sp,100
 1801f14:	d9014717 	ldw	r4,1308(sp)
 1801f18:	d9414117 	ldw	r5,1284(sp)
 1801f1c:	8c400044 	addi	r17,r17,1
 1801f20:	9125883a 	add	r18,r18,r4
 1801f24:	008001c4 	movi	r2,7
 1801f28:	19400015 	stw	r5,0(r3)
 1801f2c:	19000115 	stw	r4,4(r3)
 1801f30:	dc800e15 	stw	r18,56(sp)
 1801f34:	dc400d15 	stw	r17,52(sp)
 1801f38:	147cee16 	blt	r2,r17,18012f4 <___vfprintf_internal_r+0xb90>
 1801f3c:	18c00204 	addi	r3,r3,8
 1801f40:	003b8606 	br	1800d5c <___vfprintf_internal_r+0x5f8>
 1801f44:	38c00017 	ldw	r3,0(r7)
 1801f48:	39000204 	addi	r4,r7,8
 1801f4c:	d9014015 	stw	r4,1280(sp)
 1801f50:	d8c14215 	stw	r3,1288(sp)
 1801f54:	39c00117 	ldw	r7,4(r7)
 1801f58:	d9c14315 	stw	r7,1292(sp)
 1801f5c:	003e2006 	br	18017e0 <___vfprintf_internal_r+0x107c>
 1801f60:	0005883a 	mov	r2,zero
 1801f64:	1409c83a 	sub	r4,r2,r16
 1801f68:	1105803a 	cmpltu	r2,r2,r4
 1801f6c:	044bc83a 	sub	r5,zero,r17
 1801f70:	2885c83a 	sub	r2,r5,r2
 1801f74:	2021883a 	mov	r16,r4
 1801f78:	1023883a 	mov	r17,r2
 1801f7c:	01000044 	movi	r4,1
 1801f80:	00800b44 	movi	r2,45
 1801f84:	d8800405 	stb	r2,16(sp)
 1801f88:	003c8406 	br	180119c <___vfprintf_internal_r+0xa38>
 1801f8c:	d9014f17 	ldw	r4,1340(sp)
 1801f90:	b00b883a 	mov	r5,r22
 1801f94:	d9800c04 	addi	r6,sp,48
 1801f98:	180070c0 	call	180070c <__sprint_r>
 1801f9c:	103ba91e 	bne	r2,zero,1800e44 <___vfprintf_internal_r+0x6e0>
 1801fa0:	dc800e17 	ldw	r18,56(sp)
 1801fa4:	dc400d17 	ldw	r17,52(sp)
 1801fa8:	d9000517 	ldw	r4,20(sp)
 1801fac:	d9401904 	addi	r5,sp,100
 1801fb0:	003da706 	br	1801650 <___vfprintf_internal_r+0xeec>
 1801fb4:	d9014f17 	ldw	r4,1340(sp)
 1801fb8:	b00b883a 	mov	r5,r22
 1801fbc:	d9800c04 	addi	r6,sp,48
 1801fc0:	180070c0 	call	180070c <__sprint_r>
 1801fc4:	103b9f1e 	bne	r2,zero,1800e44 <___vfprintf_internal_r+0x6e0>
 1801fc8:	dc800e17 	ldw	r18,56(sp)
 1801fcc:	dc400d17 	ldw	r17,52(sp)
 1801fd0:	d9000517 	ldw	r4,20(sp)
 1801fd4:	d8c01904 	addi	r3,sp,100
 1801fd8:	003d9106 	br	1801620 <___vfprintf_internal_r+0xebc>
 1801fdc:	07006074 	movhi	fp,385
 1801fe0:	e7023384 	addi	fp,fp,2254
 1801fe4:	9425883a 	add	r18,r18,r16
 1801fe8:	8c400044 	addi	r17,r17,1
 1801fec:	008001c4 	movi	r2,7
 1801ff0:	1f000015 	stw	fp,0(r3)
 1801ff4:	1c000115 	stw	r16,4(r3)
 1801ff8:	dc800e15 	stw	r18,56(sp)
 1801ffc:	dc400d15 	stw	r17,52(sp)
 1802000:	147fbc16 	blt	r2,r17,1801ef4 <___vfprintf_internal_r+0x1790>
 1802004:	18c00204 	addi	r3,r3,8
 1802008:	003fc206 	br	1801f14 <___vfprintf_internal_r+0x17b0>
 180200c:	d9014f17 	ldw	r4,1340(sp)
 1802010:	b00b883a 	mov	r5,r22
 1802014:	d9800c04 	addi	r6,sp,48
 1802018:	180070c0 	call	180070c <__sprint_r>
 180201c:	103b891e 	bne	r2,zero,1800e44 <___vfprintf_internal_r+0x6e0>
 1802020:	dc800e17 	ldw	r18,56(sp)
 1802024:	d9000517 	ldw	r4,20(sp)
 1802028:	d8c01904 	addi	r3,sp,100
 180202c:	003d0206 	br	1801438 <___vfprintf_internal_r+0xcd4>
 1802030:	07006074 	movhi	fp,385
 1802034:	e7023384 	addi	fp,fp,2254
 1802038:	003be406 	br	1800fcc <___vfprintf_internal_r+0x868>
 180203c:	00806074 	movhi	r2,385
 1802040:	10822204 	addi	r2,r2,2184
 1802044:	d8814115 	stw	r2,1284(sp)
 1802048:	003df506 	br	1801820 <___vfprintf_internal_r+0x10bc>
 180204c:	d9014217 	ldw	r4,1288(sp)
 1802050:	d9414317 	ldw	r5,1292(sp)
 1802054:	18071440 	call	1807144 <__isnand>
 1802058:	10003926 	beq	r2,zero,1802140 <___vfprintf_internal_r+0x19dc>
 180205c:	d9414d17 	ldw	r5,1332(sp)
 1802060:	008011c4 	movi	r2,71
 1802064:	1140ce16 	blt	r2,r5,18023a0 <___vfprintf_internal_r+0x1c3c>
 1802068:	01806074 	movhi	r6,385
 180206c:	31822304 	addi	r6,r6,2188
 1802070:	d9814115 	stw	r6,1284(sp)
 1802074:	003dea06 	br	1801820 <___vfprintf_internal_r+0x10bc>
 1802078:	d9014c17 	ldw	r4,1328(sp)
 180207c:	bdc00044 	addi	r23,r23,1
 1802080:	b8c00007 	ldb	r3,0(r23)
 1802084:	21000814 	ori	r4,r4,32
 1802088:	d9014c15 	stw	r4,1328(sp)
 180208c:	003a3406 	br	1800960 <___vfprintf_internal_r+0x1fc>
 1802090:	dcc14515 	stw	r19,1300(sp)
 1802094:	98011016 	blt	r19,zero,18024d8 <___vfprintf_internal_r+0x1d74>
 1802098:	980f883a 	mov	r7,r19
 180209c:	d8014615 	stw	zero,1304(sp)
 18020a0:	003c5206 	br	18011ec <___vfprintf_internal_r+0xa88>
 18020a4:	d9014f17 	ldw	r4,1340(sp)
 18020a8:	b00b883a 	mov	r5,r22
 18020ac:	d9800c04 	addi	r6,sp,48
 18020b0:	180070c0 	call	180070c <__sprint_r>
 18020b4:	103b631e 	bne	r2,zero,1800e44 <___vfprintf_internal_r+0x6e0>
 18020b8:	dc800e17 	ldw	r18,56(sp)
 18020bc:	d9000517 	ldw	r4,20(sp)
 18020c0:	d8c01904 	addi	r3,sp,100
 18020c4:	003f2e06 	br	1801d80 <___vfprintf_internal_r+0x161c>
 18020c8:	d8c14c17 	ldw	r3,1328(sp)
 18020cc:	1880100c 	andi	r2,r3,64
 18020d0:	1000a026 	beq	r2,zero,1802354 <___vfprintf_internal_r+0x1bf0>
 18020d4:	38800017 	ldw	r2,0(r7)
 18020d8:	39c00104 	addi	r7,r7,4
 18020dc:	d9c14015 	stw	r7,1280(sp)
 18020e0:	d9014b17 	ldw	r4,1324(sp)
 18020e4:	d9c14017 	ldw	r7,1280(sp)
 18020e8:	1100000d 	sth	r4,0(r2)
 18020ec:	0039f906 	br	18008d4 <___vfprintf_internal_r+0x170>
 18020f0:	d9014f17 	ldw	r4,1340(sp)
 18020f4:	b00b883a 	mov	r5,r22
 18020f8:	d9800c04 	addi	r6,sp,48
 18020fc:	180070c0 	call	180070c <__sprint_r>
 1802100:	103b501e 	bne	r2,zero,1800e44 <___vfprintf_internal_r+0x6e0>
 1802104:	dc800e17 	ldw	r18,56(sp)
 1802108:	dc400d17 	ldw	r17,52(sp)
 180210c:	d9000517 	ldw	r4,20(sp)
 1802110:	d8c01904 	addi	r3,sp,100
 1802114:	003f2d06 	br	1801dcc <___vfprintf_internal_r+0x1668>
 1802118:	00800184 	movi	r2,6
 180211c:	14c09a36 	bltu	r2,r19,1802388 <___vfprintf_internal_r+0x1c24>
 1802120:	dcc14515 	stw	r19,1300(sp)
 1802124:	9800010e 	bge	r19,zero,180212c <___vfprintf_internal_r+0x19c8>
 1802128:	d8014515 	stw	zero,1300(sp)
 180212c:	00806074 	movhi	r2,385
 1802130:	10822504 	addi	r2,r2,2196
 1802134:	980f883a 	mov	r7,r19
 1802138:	d8814115 	stw	r2,1284(sp)
 180213c:	003a7806 	br	1800b20 <___vfprintf_internal_r+0x3bc>
 1802140:	00bfffc4 	movi	r2,-1
 1802144:	9880e226 	beq	r19,r2,18024d0 <___vfprintf_internal_r+0x1d6c>
 1802148:	d9414d17 	ldw	r5,1332(sp)
 180214c:	008019c4 	movi	r2,103
 1802150:	2880dc26 	beq	r5,r2,18024c4 <___vfprintf_internal_r+0x1d60>
 1802154:	008011c4 	movi	r2,71
 1802158:	2880da26 	beq	r5,r2,18024c4 <___vfprintf_internal_r+0x1d60>
 180215c:	d9414c17 	ldw	r5,1328(sp)
 1802160:	d9014317 	ldw	r4,1292(sp)
 1802164:	d9814217 	ldw	r6,1288(sp)
 1802168:	29404014 	ori	r5,r5,256
 180216c:	d9414c15 	stw	r5,1328(sp)
 1802170:	2000cc16 	blt	r4,zero,18024a4 <___vfprintf_internal_r+0x1d40>
 1802174:	3021883a 	mov	r16,r6
 1802178:	2023883a 	mov	r17,r4
 180217c:	0039883a 	mov	fp,zero
 1802180:	d9414d17 	ldw	r5,1332(sp)
 1802184:	00801984 	movi	r2,102
 1802188:	2880b726 	beq	r5,r2,1802468 <___vfprintf_internal_r+0x1d04>
 180218c:	00801184 	movi	r2,70
 1802190:	2880b526 	beq	r5,r2,1802468 <___vfprintf_internal_r+0x1d04>
 1802194:	00801944 	movi	r2,101
 1802198:	2880c826 	beq	r5,r2,18024bc <___vfprintf_internal_r+0x1d58>
 180219c:	00801144 	movi	r2,69
 18021a0:	2880c626 	beq	r5,r2,18024bc <___vfprintf_internal_r+0x1d58>
 18021a4:	9829883a 	mov	r20,r19
 18021a8:	d9014f17 	ldw	r4,1340(sp)
 18021ac:	d8800504 	addi	r2,sp,20
 18021b0:	880d883a 	mov	r6,r17
 18021b4:	d8800115 	stw	r2,4(sp)
 18021b8:	d8c00604 	addi	r3,sp,24
 18021bc:	d8800704 	addi	r2,sp,28
 18021c0:	800b883a 	mov	r5,r16
 18021c4:	01c00084 	movi	r7,2
 18021c8:	d8c00215 	stw	r3,8(sp)
 18021cc:	d8800315 	stw	r2,12(sp)
 18021d0:	dd000015 	stw	r20,0(sp)
 18021d4:	18029880 	call	1802988 <_dtoa_r>
 18021d8:	d9814d17 	ldw	r6,1332(sp)
 18021dc:	d8814115 	stw	r2,1284(sp)
 18021e0:	008019c4 	movi	r2,103
 18021e4:	30809526 	beq	r6,r2,180243c <___vfprintf_internal_r+0x1cd8>
 18021e8:	d8c14d17 	ldw	r3,1332(sp)
 18021ec:	008011c4 	movi	r2,71
 18021f0:	18809226 	beq	r3,r2,180243c <___vfprintf_internal_r+0x1cd8>
 18021f4:	d9414117 	ldw	r5,1284(sp)
 18021f8:	d9814d17 	ldw	r6,1332(sp)
 18021fc:	00801984 	movi	r2,102
 1802200:	2d25883a 	add	r18,r5,r20
 1802204:	30808626 	beq	r6,r2,1802420 <___vfprintf_internal_r+0x1cbc>
 1802208:	00801184 	movi	r2,70
 180220c:	30808426 	beq	r6,r2,1802420 <___vfprintf_internal_r+0x1cbc>
 1802210:	000d883a 	mov	r6,zero
 1802214:	000f883a 	mov	r7,zero
 1802218:	880b883a 	mov	r5,r17
 180221c:	8009883a 	mov	r4,r16
 1802220:	1808f2c0 	call	1808f2c <__eqdf2>
 1802224:	1000751e 	bne	r2,zero,18023fc <___vfprintf_internal_r+0x1c98>
 1802228:	9005883a 	mov	r2,r18
 180222c:	dc800715 	stw	r18,28(sp)
 1802230:	d9014117 	ldw	r4,1284(sp)
 1802234:	d9414d17 	ldw	r5,1332(sp)
 1802238:	00c019c4 	movi	r3,103
 180223c:	1125c83a 	sub	r18,r2,r4
 1802240:	28c06826 	beq	r5,r3,18023e4 <___vfprintf_internal_r+0x1c80>
 1802244:	008011c4 	movi	r2,71
 1802248:	28806626 	beq	r5,r2,18023e4 <___vfprintf_internal_r+0x1c80>
 180224c:	d9000517 	ldw	r4,20(sp)
 1802250:	d8c14d17 	ldw	r3,1332(sp)
 1802254:	00801944 	movi	r2,101
 1802258:	10c05516 	blt	r2,r3,18023b0 <___vfprintf_internal_r+0x1c4c>
 180225c:	213fffc4 	addi	r4,r4,-1
 1802260:	d9000515 	stw	r4,20(sp)
 1802264:	d8c00805 	stb	r3,32(sp)
 1802268:	2021883a 	mov	r16,r4
 180226c:	2000c116 	blt	r4,zero,1802574 <___vfprintf_internal_r+0x1e10>
 1802270:	00800ac4 	movi	r2,43
 1802274:	d8800845 	stb	r2,33(sp)
 1802278:	00800244 	movi	r2,9
 180227c:	1400af0e 	bge	r2,r16,180253c <___vfprintf_internal_r+0x1dd8>
 1802280:	1027883a 	mov	r19,r2
 1802284:	dc400b84 	addi	r17,sp,46
 1802288:	8009883a 	mov	r4,r16
 180228c:	01400284 	movi	r5,10
 1802290:	18096140 	call	1809614 <__modsi3>
 1802294:	10800c04 	addi	r2,r2,48
 1802298:	8c7fffc4 	addi	r17,r17,-1
 180229c:	8009883a 	mov	r4,r16
 18022a0:	01400284 	movi	r5,10
 18022a4:	88800005 	stb	r2,0(r17)
 18022a8:	18095b40 	call	18095b4 <__divsi3>
 18022ac:	1021883a 	mov	r16,r2
 18022b0:	98bff516 	blt	r19,r2,1802288 <___vfprintf_internal_r+0x1b24>
 18022b4:	10c00c04 	addi	r3,r2,48
 18022b8:	d88009c4 	addi	r2,sp,39
 18022bc:	108001c4 	addi	r2,r2,7
 18022c0:	897fffc4 	addi	r5,r17,-1
 18022c4:	88ffffc5 	stb	r3,-1(r17)
 18022c8:	2880a72e 	bgeu	r5,r2,1802568 <___vfprintf_internal_r+0x1e04>
 18022cc:	1009883a 	mov	r4,r2
 18022d0:	d9800804 	addi	r6,sp,32
 18022d4:	d8c00884 	addi	r3,sp,34
 18022d8:	28800003 	ldbu	r2,0(r5)
 18022dc:	29400044 	addi	r5,r5,1
 18022e0:	18800005 	stb	r2,0(r3)
 18022e4:	18c00044 	addi	r3,r3,1
 18022e8:	293ffb36 	bltu	r5,r4,18022d8 <___vfprintf_internal_r+0x1b74>
 18022ec:	1987c83a 	sub	r3,r3,r6
 18022f0:	00800044 	movi	r2,1
 18022f4:	d8c14815 	stw	r3,1312(sp)
 18022f8:	90cf883a 	add	r7,r18,r3
 18022fc:	1480960e 	bge	r2,r18,1802558 <___vfprintf_internal_r+0x1df4>
 1802300:	39c00044 	addi	r7,r7,1
 1802304:	d9c14515 	stw	r7,1300(sp)
 1802308:	38003416 	blt	r7,zero,18023dc <___vfprintf_internal_r+0x1c78>
 180230c:	e0803fcc 	andi	r2,fp,255
 1802310:	1080201c 	xori	r2,r2,128
 1802314:	10bfe004 	addi	r2,r2,-128
 1802318:	10004e26 	beq	r2,zero,1802454 <___vfprintf_internal_r+0x1cf0>
 180231c:	00800b44 	movi	r2,45
 1802320:	dc814715 	stw	r18,1308(sp)
 1802324:	d8014615 	stw	zero,1304(sp)
 1802328:	d8800405 	stb	r2,16(sp)
 180232c:	003bb106 	br	18011f4 <___vfprintf_internal_r+0xa90>
 1802330:	00800b44 	movi	r2,45
 1802334:	d8800405 	stb	r2,16(sp)
 1802338:	003d3306 	br	1801808 <___vfprintf_internal_r+0x10a4>
 180233c:	d9014f17 	ldw	r4,1340(sp)
 1802340:	b00b883a 	mov	r5,r22
 1802344:	d9800c04 	addi	r6,sp,48
 1802348:	180070c0 	call	180070c <__sprint_r>
 180234c:	103abd1e 	bne	r2,zero,1800e44 <___vfprintf_internal_r+0x6e0>
 1802350:	003abb06 	br	1800e40 <___vfprintf_internal_r+0x6dc>
 1802354:	38800017 	ldw	r2,0(r7)
 1802358:	39c00104 	addi	r7,r7,4
 180235c:	d9c14015 	stw	r7,1280(sp)
 1802360:	d9414b17 	ldw	r5,1324(sp)
 1802364:	d9c14017 	ldw	r7,1280(sp)
 1802368:	11400015 	stw	r5,0(r2)
 180236c:	00395906 	br	18008d4 <___vfprintf_internal_r+0x170>
 1802370:	980f883a 	mov	r7,r19
 1802374:	dcc14515 	stw	r19,1300(sp)
 1802378:	d8014615 	stw	zero,1304(sp)
 180237c:	003b9b06 	br	18011ec <___vfprintf_internal_r+0xa88>
 1802380:	0027883a 	mov	r19,zero
 1802384:	00397806 	br	1800968 <___vfprintf_internal_r+0x204>
 1802388:	00c06074 	movhi	r3,385
 180238c:	18c22504 	addi	r3,r3,2196
 1802390:	100f883a 	mov	r7,r2
 1802394:	d8814515 	stw	r2,1300(sp)
 1802398:	d8c14115 	stw	r3,1284(sp)
 180239c:	0039e006 	br	1800b20 <___vfprintf_internal_r+0x3bc>
 18023a0:	00806074 	movhi	r2,385
 18023a4:	10822404 	addi	r2,r2,2192
 18023a8:	d8814115 	stw	r2,1284(sp)
 18023ac:	003d1c06 	br	1801820 <___vfprintf_internal_r+0x10bc>
 18023b0:	d9414d17 	ldw	r5,1332(sp)
 18023b4:	00801984 	movi	r2,102
 18023b8:	28804926 	beq	r5,r2,18024e0 <___vfprintf_internal_r+0x1d7c>
 18023bc:	200f883a 	mov	r7,r4
 18023c0:	24805716 	blt	r4,r18,1802520 <___vfprintf_internal_r+0x1dbc>
 18023c4:	d9414c17 	ldw	r5,1328(sp)
 18023c8:	2880004c 	andi	r2,r5,1
 18023cc:	10000126 	beq	r2,zero,18023d4 <___vfprintf_internal_r+0x1c70>
 18023d0:	21c00044 	addi	r7,r4,1
 18023d4:	d9c14515 	stw	r7,1300(sp)
 18023d8:	383fcc0e 	bge	r7,zero,180230c <___vfprintf_internal_r+0x1ba8>
 18023dc:	d8014515 	stw	zero,1300(sp)
 18023e0:	003fca06 	br	180230c <___vfprintf_internal_r+0x1ba8>
 18023e4:	d9000517 	ldw	r4,20(sp)
 18023e8:	00bfff04 	movi	r2,-4
 18023ec:	1100480e 	bge	r2,r4,1802510 <___vfprintf_internal_r+0x1dac>
 18023f0:	99004716 	blt	r19,r4,1802510 <___vfprintf_internal_r+0x1dac>
 18023f4:	d8c14d15 	stw	r3,1332(sp)
 18023f8:	003ff006 	br	18023bc <___vfprintf_internal_r+0x1c58>
 18023fc:	d8800717 	ldw	r2,28(sp)
 1802400:	14bf8b2e 	bgeu	r2,r18,1802230 <___vfprintf_internal_r+0x1acc>
 1802404:	9007883a 	mov	r3,r18
 1802408:	01000c04 	movi	r4,48
 180240c:	11000005 	stb	r4,0(r2)
 1802410:	10800044 	addi	r2,r2,1
 1802414:	d8800715 	stw	r2,28(sp)
 1802418:	18bffc1e 	bne	r3,r2,180240c <___vfprintf_internal_r+0x1ca8>
 180241c:	003f8406 	br	1802230 <___vfprintf_internal_r+0x1acc>
 1802420:	d8814117 	ldw	r2,1284(sp)
 1802424:	10c00007 	ldb	r3,0(r2)
 1802428:	00800c04 	movi	r2,48
 180242c:	18805b26 	beq	r3,r2,180259c <___vfprintf_internal_r+0x1e38>
 1802430:	d9000517 	ldw	r4,20(sp)
 1802434:	9125883a 	add	r18,r18,r4
 1802438:	003f7506 	br	1802210 <___vfprintf_internal_r+0x1aac>
 180243c:	d9014c17 	ldw	r4,1328(sp)
 1802440:	2080004c 	andi	r2,r4,1
 1802444:	1005003a 	cmpeq	r2,r2,zero
 1802448:	103f6a26 	beq	r2,zero,18021f4 <___vfprintf_internal_r+0x1a90>
 180244c:	d8800717 	ldw	r2,28(sp)
 1802450:	003f7706 	br	1802230 <___vfprintf_internal_r+0x1acc>
 1802454:	d9c14515 	stw	r7,1300(sp)
 1802458:	38004d16 	blt	r7,zero,1802590 <___vfprintf_internal_r+0x1e2c>
 180245c:	dc814715 	stw	r18,1308(sp)
 1802460:	d8014615 	stw	zero,1304(sp)
 1802464:	003b6106 	br	18011ec <___vfprintf_internal_r+0xa88>
 1802468:	d9014f17 	ldw	r4,1340(sp)
 180246c:	d8800504 	addi	r2,sp,20
 1802470:	d8800115 	stw	r2,4(sp)
 1802474:	d8c00604 	addi	r3,sp,24
 1802478:	d8800704 	addi	r2,sp,28
 180247c:	800b883a 	mov	r5,r16
 1802480:	880d883a 	mov	r6,r17
 1802484:	01c000c4 	movi	r7,3
 1802488:	d8c00215 	stw	r3,8(sp)
 180248c:	d8800315 	stw	r2,12(sp)
 1802490:	dcc00015 	stw	r19,0(sp)
 1802494:	9829883a 	mov	r20,r19
 1802498:	18029880 	call	1802988 <_dtoa_r>
 180249c:	d8814115 	stw	r2,1284(sp)
 18024a0:	003f5106 	br	18021e8 <___vfprintf_internal_r+0x1a84>
 18024a4:	d8c14217 	ldw	r3,1288(sp)
 18024a8:	d9014317 	ldw	r4,1292(sp)
 18024ac:	07000b44 	movi	fp,45
 18024b0:	1821883a 	mov	r16,r3
 18024b4:	2460003c 	xorhi	r17,r4,32768
 18024b8:	003f3106 	br	1802180 <___vfprintf_internal_r+0x1a1c>
 18024bc:	9d000044 	addi	r20,r19,1
 18024c0:	003f3906 	br	18021a8 <___vfprintf_internal_r+0x1a44>
 18024c4:	983f251e 	bne	r19,zero,180215c <___vfprintf_internal_r+0x19f8>
 18024c8:	04c00044 	movi	r19,1
 18024cc:	003f2306 	br	180215c <___vfprintf_internal_r+0x19f8>
 18024d0:	04c00184 	movi	r19,6
 18024d4:	003f2106 	br	180215c <___vfprintf_internal_r+0x19f8>
 18024d8:	d8014515 	stw	zero,1300(sp)
 18024dc:	003eee06 	br	1802098 <___vfprintf_internal_r+0x1934>
 18024e0:	200f883a 	mov	r7,r4
 18024e4:	0100370e 	bge	zero,r4,18025c4 <___vfprintf_internal_r+0x1e60>
 18024e8:	9800031e 	bne	r19,zero,18024f8 <___vfprintf_internal_r+0x1d94>
 18024ec:	d9814c17 	ldw	r6,1328(sp)
 18024f0:	3080004c 	andi	r2,r6,1
 18024f4:	103fb726 	beq	r2,zero,18023d4 <___vfprintf_internal_r+0x1c70>
 18024f8:	20800044 	addi	r2,r4,1
 18024fc:	98a7883a 	add	r19,r19,r2
 1802500:	dcc14515 	stw	r19,1300(sp)
 1802504:	980f883a 	mov	r7,r19
 1802508:	983f800e 	bge	r19,zero,180230c <___vfprintf_internal_r+0x1ba8>
 180250c:	003fb306 	br	18023dc <___vfprintf_internal_r+0x1c78>
 1802510:	d9814d17 	ldw	r6,1332(sp)
 1802514:	31bfff84 	addi	r6,r6,-2
 1802518:	d9814d15 	stw	r6,1332(sp)
 180251c:	003f4c06 	br	1802250 <___vfprintf_internal_r+0x1aec>
 1802520:	0100180e 	bge	zero,r4,1802584 <___vfprintf_internal_r+0x1e20>
 1802524:	00800044 	movi	r2,1
 1802528:	1485883a 	add	r2,r2,r18
 180252c:	d8814515 	stw	r2,1300(sp)
 1802530:	100f883a 	mov	r7,r2
 1802534:	103f750e 	bge	r2,zero,180230c <___vfprintf_internal_r+0x1ba8>
 1802538:	003fa806 	br	18023dc <___vfprintf_internal_r+0x1c78>
 180253c:	80c00c04 	addi	r3,r16,48
 1802540:	00800c04 	movi	r2,48
 1802544:	d8c008c5 	stb	r3,35(sp)
 1802548:	d9800804 	addi	r6,sp,32
 180254c:	d8c00904 	addi	r3,sp,36
 1802550:	d8800885 	stb	r2,34(sp)
 1802554:	003f6506 	br	18022ec <___vfprintf_internal_r+0x1b88>
 1802558:	d9014c17 	ldw	r4,1328(sp)
 180255c:	2084703a 	and	r2,r4,r2
 1802560:	103f9c26 	beq	r2,zero,18023d4 <___vfprintf_internal_r+0x1c70>
 1802564:	003f6606 	br	1802300 <___vfprintf_internal_r+0x1b9c>
 1802568:	d9800804 	addi	r6,sp,32
 180256c:	d8c00884 	addi	r3,sp,34
 1802570:	003f5e06 	br	18022ec <___vfprintf_internal_r+0x1b88>
 1802574:	00800b44 	movi	r2,45
 1802578:	0121c83a 	sub	r16,zero,r4
 180257c:	d8800845 	stb	r2,33(sp)
 1802580:	003f3d06 	br	1802278 <___vfprintf_internal_r+0x1b14>
 1802584:	00800084 	movi	r2,2
 1802588:	1105c83a 	sub	r2,r2,r4
 180258c:	003fe606 	br	1802528 <___vfprintf_internal_r+0x1dc4>
 1802590:	d8014515 	stw	zero,1300(sp)
 1802594:	dc814715 	stw	r18,1308(sp)
 1802598:	003fb106 	br	1802460 <___vfprintf_internal_r+0x1cfc>
 180259c:	000d883a 	mov	r6,zero
 18025a0:	000f883a 	mov	r7,zero
 18025a4:	8009883a 	mov	r4,r16
 18025a8:	880b883a 	mov	r5,r17
 18025ac:	1808fb40 	call	1808fb4 <__nedf2>
 18025b0:	103f9f26 	beq	r2,zero,1802430 <___vfprintf_internal_r+0x1ccc>
 18025b4:	00800044 	movi	r2,1
 18025b8:	1509c83a 	sub	r4,r2,r20
 18025bc:	d9000515 	stw	r4,20(sp)
 18025c0:	003f9b06 	br	1802430 <___vfprintf_internal_r+0x1ccc>
 18025c4:	98000d1e 	bne	r19,zero,18025fc <___vfprintf_internal_r+0x1e98>
 18025c8:	d8c14c17 	ldw	r3,1328(sp)
 18025cc:	1880004c 	andi	r2,r3,1
 18025d0:	10000a1e 	bne	r2,zero,18025fc <___vfprintf_internal_r+0x1e98>
 18025d4:	01000044 	movi	r4,1
 18025d8:	200f883a 	mov	r7,r4
 18025dc:	d9014515 	stw	r4,1300(sp)
 18025e0:	003f4a06 	br	180230c <___vfprintf_internal_r+0x1ba8>
 18025e4:	3cc00017 	ldw	r19,0(r7)
 18025e8:	39c00104 	addi	r7,r7,4
 18025ec:	983d0e0e 	bge	r19,zero,1801a28 <___vfprintf_internal_r+0x12c4>
 18025f0:	b8c00007 	ldb	r3,0(r23)
 18025f4:	04ffffc4 	movi	r19,-1
 18025f8:	0038d906 	br	1800960 <___vfprintf_internal_r+0x1fc>
 18025fc:	9cc00084 	addi	r19,r19,2
 1802600:	dcc14515 	stw	r19,1300(sp)
 1802604:	980f883a 	mov	r7,r19
 1802608:	983f400e 	bge	r19,zero,180230c <___vfprintf_internal_r+0x1ba8>
 180260c:	003f7306 	br	18023dc <___vfprintf_internal_r+0x1c78>

01802610 <__vfprintf_internal>:
 1802610:	00806074 	movhi	r2,385
 1802614:	108acb04 	addi	r2,r2,11052
 1802618:	2013883a 	mov	r9,r4
 180261c:	11000017 	ldw	r4,0(r2)
 1802620:	2805883a 	mov	r2,r5
 1802624:	300f883a 	mov	r7,r6
 1802628:	480b883a 	mov	r5,r9
 180262c:	100d883a 	mov	r6,r2
 1802630:	18007641 	jmpi	1800764 <___vfprintf_internal_r>

01802634 <__swsetup_r>:
 1802634:	00806074 	movhi	r2,385
 1802638:	108acb04 	addi	r2,r2,11052
 180263c:	10c00017 	ldw	r3,0(r2)
 1802640:	defffd04 	addi	sp,sp,-12
 1802644:	dc400115 	stw	r17,4(sp)
 1802648:	dc000015 	stw	r16,0(sp)
 180264c:	dfc00215 	stw	ra,8(sp)
 1802650:	2023883a 	mov	r17,r4
 1802654:	2821883a 	mov	r16,r5
 1802658:	18000226 	beq	r3,zero,1802664 <__swsetup_r+0x30>
 180265c:	18800e17 	ldw	r2,56(r3)
 1802660:	10001f26 	beq	r2,zero,18026e0 <__swsetup_r+0xac>
 1802664:	8100030b 	ldhu	r4,12(r16)
 1802668:	2080020c 	andi	r2,r4,8
 180266c:	10002826 	beq	r2,zero,1802710 <__swsetup_r+0xdc>
 1802670:	81400417 	ldw	r5,16(r16)
 1802674:	28001d26 	beq	r5,zero,18026ec <__swsetup_r+0xb8>
 1802678:	2080004c 	andi	r2,r4,1
 180267c:	1005003a 	cmpeq	r2,r2,zero
 1802680:	10000b26 	beq	r2,zero,18026b0 <__swsetup_r+0x7c>
 1802684:	2080008c 	andi	r2,r4,2
 1802688:	10001226 	beq	r2,zero,18026d4 <__swsetup_r+0xa0>
 180268c:	0005883a 	mov	r2,zero
 1802690:	80800215 	stw	r2,8(r16)
 1802694:	28000b26 	beq	r5,zero,18026c4 <__swsetup_r+0x90>
 1802698:	0005883a 	mov	r2,zero
 180269c:	dfc00217 	ldw	ra,8(sp)
 18026a0:	dc400117 	ldw	r17,4(sp)
 18026a4:	dc000017 	ldw	r16,0(sp)
 18026a8:	dec00304 	addi	sp,sp,12
 18026ac:	f800283a 	ret
 18026b0:	80800517 	ldw	r2,20(r16)
 18026b4:	80000215 	stw	zero,8(r16)
 18026b8:	0085c83a 	sub	r2,zero,r2
 18026bc:	80800615 	stw	r2,24(r16)
 18026c0:	283ff51e 	bne	r5,zero,1802698 <__swsetup_r+0x64>
 18026c4:	2080200c 	andi	r2,r4,128
 18026c8:	103ff326 	beq	r2,zero,1802698 <__swsetup_r+0x64>
 18026cc:	00bfffc4 	movi	r2,-1
 18026d0:	003ff206 	br	180269c <__swsetup_r+0x68>
 18026d4:	80800517 	ldw	r2,20(r16)
 18026d8:	80800215 	stw	r2,8(r16)
 18026dc:	003fed06 	br	1802694 <__swsetup_r+0x60>
 18026e0:	1809883a 	mov	r4,r3
 18026e4:	18041d40 	call	18041d4 <__sinit>
 18026e8:	003fde06 	br	1802664 <__swsetup_r+0x30>
 18026ec:	20c0a00c 	andi	r3,r4,640
 18026f0:	00808004 	movi	r2,512
 18026f4:	18bfe026 	beq	r3,r2,1802678 <__swsetup_r+0x44>
 18026f8:	8809883a 	mov	r4,r17
 18026fc:	800b883a 	mov	r5,r16
 1802700:	1804f4c0 	call	1804f4c <__smakebuf_r>
 1802704:	8100030b 	ldhu	r4,12(r16)
 1802708:	81400417 	ldw	r5,16(r16)
 180270c:	003fda06 	br	1802678 <__swsetup_r+0x44>
 1802710:	2080040c 	andi	r2,r4,16
 1802714:	103fed26 	beq	r2,zero,18026cc <__swsetup_r+0x98>
 1802718:	2080010c 	andi	r2,r4,4
 180271c:	10001226 	beq	r2,zero,1802768 <__swsetup_r+0x134>
 1802720:	81400c17 	ldw	r5,48(r16)
 1802724:	28000526 	beq	r5,zero,180273c <__swsetup_r+0x108>
 1802728:	80801004 	addi	r2,r16,64
 180272c:	28800226 	beq	r5,r2,1802738 <__swsetup_r+0x104>
 1802730:	8809883a 	mov	r4,r17
 1802734:	18045580 	call	1804558 <_free_r>
 1802738:	80000c15 	stw	zero,48(r16)
 180273c:	8080030b 	ldhu	r2,12(r16)
 1802740:	81400417 	ldw	r5,16(r16)
 1802744:	80000115 	stw	zero,4(r16)
 1802748:	10bff6cc 	andi	r2,r2,65499
 180274c:	8080030d 	sth	r2,12(r16)
 1802750:	81400015 	stw	r5,0(r16)
 1802754:	8080030b 	ldhu	r2,12(r16)
 1802758:	10800214 	ori	r2,r2,8
 180275c:	113fffcc 	andi	r4,r2,65535
 1802760:	8080030d 	sth	r2,12(r16)
 1802764:	003fc306 	br	1802674 <__swsetup_r+0x40>
 1802768:	81400417 	ldw	r5,16(r16)
 180276c:	003ff906 	br	1802754 <__swsetup_r+0x120>

01802770 <quorem>:
 1802770:	28c00417 	ldw	r3,16(r5)
 1802774:	20800417 	ldw	r2,16(r4)
 1802778:	defff604 	addi	sp,sp,-40
 180277c:	ddc00715 	stw	r23,28(sp)
 1802780:	dd400515 	stw	r21,20(sp)
 1802784:	dfc00915 	stw	ra,36(sp)
 1802788:	df000815 	stw	fp,32(sp)
 180278c:	dd800615 	stw	r22,24(sp)
 1802790:	dd000415 	stw	r20,16(sp)
 1802794:	dcc00315 	stw	r19,12(sp)
 1802798:	dc800215 	stw	r18,8(sp)
 180279c:	dc400115 	stw	r17,4(sp)
 18027a0:	dc000015 	stw	r16,0(sp)
 18027a4:	202f883a 	mov	r23,r4
 18027a8:	282b883a 	mov	r21,r5
 18027ac:	10c07416 	blt	r2,r3,1802980 <quorem+0x210>
 18027b0:	1c7fffc4 	addi	r17,r3,-1
 18027b4:	8c45883a 	add	r2,r17,r17
 18027b8:	1085883a 	add	r2,r2,r2
 18027bc:	2c000504 	addi	r16,r5,20
 18027c0:	24c00504 	addi	r19,r4,20
 18027c4:	14ed883a 	add	r22,r2,r19
 18027c8:	80a5883a 	add	r18,r16,r2
 18027cc:	b7000017 	ldw	fp,0(r22)
 18027d0:	91400017 	ldw	r5,0(r18)
 18027d4:	e009883a 	mov	r4,fp
 18027d8:	29400044 	addi	r5,r5,1
 18027dc:	18096740 	call	1809674 <__udivsi3>
 18027e0:	1029883a 	mov	r20,r2
 18027e4:	10003c1e 	bne	r2,zero,18028d8 <quorem+0x168>
 18027e8:	a80b883a 	mov	r5,r21
 18027ec:	b809883a 	mov	r4,r23
 18027f0:	1805c780 	call	1805c78 <__mcmp>
 18027f4:	10002b16 	blt	r2,zero,18028a4 <quorem+0x134>
 18027f8:	a5000044 	addi	r20,r20,1
 18027fc:	980f883a 	mov	r7,r19
 1802800:	0011883a 	mov	r8,zero
 1802804:	0009883a 	mov	r4,zero
 1802808:	81400017 	ldw	r5,0(r16)
 180280c:	38c00017 	ldw	r3,0(r7)
 1802810:	84000104 	addi	r16,r16,4
 1802814:	28bfffcc 	andi	r2,r5,65535
 1802818:	2085883a 	add	r2,r4,r2
 180281c:	11bfffcc 	andi	r6,r2,65535
 1802820:	193fffcc 	andi	r4,r3,65535
 1802824:	1004d43a 	srli	r2,r2,16
 1802828:	280ad43a 	srli	r5,r5,16
 180282c:	2189c83a 	sub	r4,r4,r6
 1802830:	2209883a 	add	r4,r4,r8
 1802834:	1806d43a 	srli	r3,r3,16
 1802838:	288b883a 	add	r5,r5,r2
 180283c:	200dd43a 	srai	r6,r4,16
 1802840:	28bfffcc 	andi	r2,r5,65535
 1802844:	1887c83a 	sub	r3,r3,r2
 1802848:	1987883a 	add	r3,r3,r6
 180284c:	3900000d 	sth	r4,0(r7)
 1802850:	38c0008d 	sth	r3,2(r7)
 1802854:	2808d43a 	srli	r4,r5,16
 1802858:	39c00104 	addi	r7,r7,4
 180285c:	1811d43a 	srai	r8,r3,16
 1802860:	943fe92e 	bgeu	r18,r16,1802808 <quorem+0x98>
 1802864:	8c45883a 	add	r2,r17,r17
 1802868:	1085883a 	add	r2,r2,r2
 180286c:	9885883a 	add	r2,r19,r2
 1802870:	10c00017 	ldw	r3,0(r2)
 1802874:	18000b1e 	bne	r3,zero,18028a4 <quorem+0x134>
 1802878:	113fff04 	addi	r4,r2,-4
 180287c:	9900082e 	bgeu	r19,r4,18028a0 <quorem+0x130>
 1802880:	10bfff17 	ldw	r2,-4(r2)
 1802884:	10000326 	beq	r2,zero,1802894 <quorem+0x124>
 1802888:	00000506 	br	18028a0 <quorem+0x130>
 180288c:	20800017 	ldw	r2,0(r4)
 1802890:	1000031e 	bne	r2,zero,18028a0 <quorem+0x130>
 1802894:	213fff04 	addi	r4,r4,-4
 1802898:	8c7fffc4 	addi	r17,r17,-1
 180289c:	993ffb36 	bltu	r19,r4,180288c <quorem+0x11c>
 18028a0:	bc400415 	stw	r17,16(r23)
 18028a4:	a005883a 	mov	r2,r20
 18028a8:	dfc00917 	ldw	ra,36(sp)
 18028ac:	df000817 	ldw	fp,32(sp)
 18028b0:	ddc00717 	ldw	r23,28(sp)
 18028b4:	dd800617 	ldw	r22,24(sp)
 18028b8:	dd400517 	ldw	r21,20(sp)
 18028bc:	dd000417 	ldw	r20,16(sp)
 18028c0:	dcc00317 	ldw	r19,12(sp)
 18028c4:	dc800217 	ldw	r18,8(sp)
 18028c8:	dc400117 	ldw	r17,4(sp)
 18028cc:	dc000017 	ldw	r16,0(sp)
 18028d0:	dec00a04 	addi	sp,sp,40
 18028d4:	f800283a 	ret
 18028d8:	980f883a 	mov	r7,r19
 18028dc:	8011883a 	mov	r8,r16
 18028e0:	0013883a 	mov	r9,zero
 18028e4:	000d883a 	mov	r6,zero
 18028e8:	40c00017 	ldw	r3,0(r8)
 18028ec:	39000017 	ldw	r4,0(r7)
 18028f0:	42000104 	addi	r8,r8,4
 18028f4:	18bfffcc 	andi	r2,r3,65535
 18028f8:	a085383a 	mul	r2,r20,r2
 18028fc:	1806d43a 	srli	r3,r3,16
 1802900:	217fffcc 	andi	r5,r4,65535
 1802904:	3085883a 	add	r2,r6,r2
 1802908:	11bfffcc 	andi	r6,r2,65535
 180290c:	a0c7383a 	mul	r3,r20,r3
 1802910:	1004d43a 	srli	r2,r2,16
 1802914:	298bc83a 	sub	r5,r5,r6
 1802918:	2a4b883a 	add	r5,r5,r9
 180291c:	2008d43a 	srli	r4,r4,16
 1802920:	1887883a 	add	r3,r3,r2
 1802924:	280dd43a 	srai	r6,r5,16
 1802928:	18bfffcc 	andi	r2,r3,65535
 180292c:	2089c83a 	sub	r4,r4,r2
 1802930:	2189883a 	add	r4,r4,r6
 1802934:	3900008d 	sth	r4,2(r7)
 1802938:	3940000d 	sth	r5,0(r7)
 180293c:	180cd43a 	srli	r6,r3,16
 1802940:	39c00104 	addi	r7,r7,4
 1802944:	2013d43a 	srai	r9,r4,16
 1802948:	923fe72e 	bgeu	r18,r8,18028e8 <quorem+0x178>
 180294c:	e03fa61e 	bne	fp,zero,18027e8 <quorem+0x78>
 1802950:	b0ffff04 	addi	r3,r22,-4
 1802954:	98c0082e 	bgeu	r19,r3,1802978 <quorem+0x208>
 1802958:	b0bfff17 	ldw	r2,-4(r22)
 180295c:	10000326 	beq	r2,zero,180296c <quorem+0x1fc>
 1802960:	00000506 	br	1802978 <quorem+0x208>
 1802964:	18800017 	ldw	r2,0(r3)
 1802968:	1000031e 	bne	r2,zero,1802978 <quorem+0x208>
 180296c:	18ffff04 	addi	r3,r3,-4
 1802970:	8c7fffc4 	addi	r17,r17,-1
 1802974:	98fffb36 	bltu	r19,r3,1802964 <quorem+0x1f4>
 1802978:	bc400415 	stw	r17,16(r23)
 180297c:	003f9a06 	br	18027e8 <quorem+0x78>
 1802980:	0005883a 	mov	r2,zero
 1802984:	003fc806 	br	18028a8 <quorem+0x138>

01802988 <_dtoa_r>:
 1802988:	22001017 	ldw	r8,64(r4)
 180298c:	deffda04 	addi	sp,sp,-152
 1802990:	dd402115 	stw	r21,132(sp)
 1802994:	dd002015 	stw	r20,128(sp)
 1802998:	dc801e15 	stw	r18,120(sp)
 180299c:	dc401d15 	stw	r17,116(sp)
 18029a0:	dfc02515 	stw	ra,148(sp)
 18029a4:	df002415 	stw	fp,144(sp)
 18029a8:	ddc02315 	stw	r23,140(sp)
 18029ac:	dd802215 	stw	r22,136(sp)
 18029b0:	dcc01f15 	stw	r19,124(sp)
 18029b4:	dc001c15 	stw	r16,112(sp)
 18029b8:	d9001615 	stw	r4,88(sp)
 18029bc:	3023883a 	mov	r17,r6
 18029c0:	2829883a 	mov	r20,r5
 18029c4:	d9c01715 	stw	r7,92(sp)
 18029c8:	dc802817 	ldw	r18,160(sp)
 18029cc:	302b883a 	mov	r21,r6
 18029d0:	40000a26 	beq	r8,zero,18029fc <_dtoa_r+0x74>
 18029d4:	20801117 	ldw	r2,68(r4)
 18029d8:	400b883a 	mov	r5,r8
 18029dc:	40800115 	stw	r2,4(r8)
 18029e0:	20c01117 	ldw	r3,68(r4)
 18029e4:	00800044 	movi	r2,1
 18029e8:	10c4983a 	sll	r2,r2,r3
 18029ec:	40800215 	stw	r2,8(r8)
 18029f0:	1805b1c0 	call	1805b1c <_Bfree>
 18029f4:	d8c01617 	ldw	r3,88(sp)
 18029f8:	18001015 	stw	zero,64(r3)
 18029fc:	8800a316 	blt	r17,zero,1802c8c <_dtoa_r+0x304>
 1802a00:	90000015 	stw	zero,0(r18)
 1802a04:	a8dffc2c 	andhi	r3,r21,32752
 1802a08:	009ffc34 	movhi	r2,32752
 1802a0c:	18809126 	beq	r3,r2,1802c54 <_dtoa_r+0x2cc>
 1802a10:	000d883a 	mov	r6,zero
 1802a14:	000f883a 	mov	r7,zero
 1802a18:	a009883a 	mov	r4,r20
 1802a1c:	a80b883a 	mov	r5,r21
 1802a20:	dd001215 	stw	r20,72(sp)
 1802a24:	dd401315 	stw	r21,76(sp)
 1802a28:	1808fb40 	call	1808fb4 <__nedf2>
 1802a2c:	1000171e 	bne	r2,zero,1802a8c <_dtoa_r+0x104>
 1802a30:	d9802717 	ldw	r6,156(sp)
 1802a34:	00800044 	movi	r2,1
 1802a38:	30800015 	stw	r2,0(r6)
 1802a3c:	d8802917 	ldw	r2,164(sp)
 1802a40:	10029b26 	beq	r2,zero,18034b0 <_dtoa_r+0xb28>
 1802a44:	d9002917 	ldw	r4,164(sp)
 1802a48:	00806074 	movhi	r2,385
 1802a4c:	10823344 	addi	r2,r2,2253
 1802a50:	10ffffc4 	addi	r3,r2,-1
 1802a54:	20800015 	stw	r2,0(r4)
 1802a58:	1805883a 	mov	r2,r3
 1802a5c:	dfc02517 	ldw	ra,148(sp)
 1802a60:	df002417 	ldw	fp,144(sp)
 1802a64:	ddc02317 	ldw	r23,140(sp)
 1802a68:	dd802217 	ldw	r22,136(sp)
 1802a6c:	dd402117 	ldw	r21,132(sp)
 1802a70:	dd002017 	ldw	r20,128(sp)
 1802a74:	dcc01f17 	ldw	r19,124(sp)
 1802a78:	dc801e17 	ldw	r18,120(sp)
 1802a7c:	dc401d17 	ldw	r17,116(sp)
 1802a80:	dc001c17 	ldw	r16,112(sp)
 1802a84:	dec02604 	addi	sp,sp,152
 1802a88:	f800283a 	ret
 1802a8c:	d9001617 	ldw	r4,88(sp)
 1802a90:	d9401217 	ldw	r5,72(sp)
 1802a94:	d8800104 	addi	r2,sp,4
 1802a98:	a80d883a 	mov	r6,r21
 1802a9c:	d9c00204 	addi	r7,sp,8
 1802aa0:	d8800015 	stw	r2,0(sp)
 1802aa4:	18061580 	call	1806158 <__d2b>
 1802aa8:	d8800715 	stw	r2,28(sp)
 1802aac:	a804d53a 	srli	r2,r21,20
 1802ab0:	1101ffcc 	andi	r4,r2,2047
 1802ab4:	20008626 	beq	r4,zero,1802cd0 <_dtoa_r+0x348>
 1802ab8:	d8c01217 	ldw	r3,72(sp)
 1802abc:	00800434 	movhi	r2,16
 1802ac0:	10bfffc4 	addi	r2,r2,-1
 1802ac4:	ddc00117 	ldw	r23,4(sp)
 1802ac8:	a884703a 	and	r2,r21,r2
 1802acc:	1811883a 	mov	r8,r3
 1802ad0:	124ffc34 	orhi	r9,r2,16368
 1802ad4:	25bf0044 	addi	r22,r4,-1023
 1802ad8:	d8000815 	stw	zero,32(sp)
 1802adc:	0005883a 	mov	r2,zero
 1802ae0:	00cffe34 	movhi	r3,16376
 1802ae4:	480b883a 	mov	r5,r9
 1802ae8:	4009883a 	mov	r4,r8
 1802aec:	180f883a 	mov	r7,r3
 1802af0:	100d883a 	mov	r6,r2
 1802af4:	180881c0 	call	180881c <__subdf3>
 1802af8:	0218dbf4 	movhi	r8,25455
 1802afc:	4210d844 	addi	r8,r8,17249
 1802b00:	024ff4f4 	movhi	r9,16339
 1802b04:	4a61e9c4 	addi	r9,r9,-30809
 1802b08:	480f883a 	mov	r7,r9
 1802b0c:	400d883a 	mov	r6,r8
 1802b10:	180b883a 	mov	r5,r3
 1802b14:	1009883a 	mov	r4,r2
 1802b18:	18089100 	call	1808910 <__muldf3>
 1802b1c:	0222d874 	movhi	r8,35681
 1802b20:	42322cc4 	addi	r8,r8,-14157
 1802b24:	024ff1f4 	movhi	r9,16327
 1802b28:	4a628a04 	addi	r9,r9,-30168
 1802b2c:	480f883a 	mov	r7,r9
 1802b30:	400d883a 	mov	r6,r8
 1802b34:	180b883a 	mov	r5,r3
 1802b38:	1009883a 	mov	r4,r2
 1802b3c:	180889c0 	call	180889c <__adddf3>
 1802b40:	b009883a 	mov	r4,r22
 1802b44:	1021883a 	mov	r16,r2
 1802b48:	1823883a 	mov	r17,r3
 1802b4c:	18091d40 	call	18091d4 <__floatsidf>
 1802b50:	021427f4 	movhi	r8,20639
 1802b54:	421e7ec4 	addi	r8,r8,31227
 1802b58:	024ff4f4 	movhi	r9,16339
 1802b5c:	4a5104c4 	addi	r9,r9,17427
 1802b60:	480f883a 	mov	r7,r9
 1802b64:	400d883a 	mov	r6,r8
 1802b68:	180b883a 	mov	r5,r3
 1802b6c:	1009883a 	mov	r4,r2
 1802b70:	18089100 	call	1808910 <__muldf3>
 1802b74:	180f883a 	mov	r7,r3
 1802b78:	880b883a 	mov	r5,r17
 1802b7c:	100d883a 	mov	r6,r2
 1802b80:	8009883a 	mov	r4,r16
 1802b84:	180889c0 	call	180889c <__adddf3>
 1802b88:	1009883a 	mov	r4,r2
 1802b8c:	180b883a 	mov	r5,r3
 1802b90:	1021883a 	mov	r16,r2
 1802b94:	1823883a 	mov	r17,r3
 1802b98:	18092cc0 	call	18092cc <__fixdfsi>
 1802b9c:	000d883a 	mov	r6,zero
 1802ba0:	000f883a 	mov	r7,zero
 1802ba4:	8009883a 	mov	r4,r16
 1802ba8:	880b883a 	mov	r5,r17
 1802bac:	d8800d15 	stw	r2,52(sp)
 1802bb0:	180914c0 	call	180914c <__ltdf2>
 1802bb4:	10031716 	blt	r2,zero,1803814 <_dtoa_r+0xe8c>
 1802bb8:	d8c00d17 	ldw	r3,52(sp)
 1802bbc:	00800584 	movi	r2,22
 1802bc0:	10c1482e 	bgeu	r2,r3,18030e4 <_dtoa_r+0x75c>
 1802bc4:	01000044 	movi	r4,1
 1802bc8:	d9000c15 	stw	r4,48(sp)
 1802bcc:	bd85c83a 	sub	r2,r23,r22
 1802bd0:	11bfffc4 	addi	r6,r2,-1
 1802bd4:	30030b16 	blt	r6,zero,1803804 <_dtoa_r+0xe7c>
 1802bd8:	d9800a15 	stw	r6,40(sp)
 1802bdc:	d8001115 	stw	zero,68(sp)
 1802be0:	d8c00d17 	ldw	r3,52(sp)
 1802be4:	1802ff16 	blt	r3,zero,18037e4 <_dtoa_r+0xe5c>
 1802be8:	d9000a17 	ldw	r4,40(sp)
 1802bec:	d8c00915 	stw	r3,36(sp)
 1802bf0:	d8001015 	stw	zero,64(sp)
 1802bf4:	20c9883a 	add	r4,r4,r3
 1802bf8:	d9000a15 	stw	r4,40(sp)
 1802bfc:	d9001717 	ldw	r4,92(sp)
 1802c00:	00800244 	movi	r2,9
 1802c04:	11004636 	bltu	r2,r4,1802d20 <_dtoa_r+0x398>
 1802c08:	00800144 	movi	r2,5
 1802c0c:	11020416 	blt	r2,r4,1803420 <_dtoa_r+0xa98>
 1802c10:	04400044 	movi	r17,1
 1802c14:	d8c01717 	ldw	r3,92(sp)
 1802c18:	00800144 	movi	r2,5
 1802c1c:	10c1ed36 	bltu	r2,r3,18033d4 <_dtoa_r+0xa4c>
 1802c20:	18c5883a 	add	r2,r3,r3
 1802c24:	1085883a 	add	r2,r2,r2
 1802c28:	00c06034 	movhi	r3,384
 1802c2c:	18cb0f04 	addi	r3,r3,11324
 1802c30:	10c5883a 	add	r2,r2,r3
 1802c34:	11000017 	ldw	r4,0(r2)
 1802c38:	2000683a 	jmp	r4
 1802c3c:	01802d28 	cmpgeui	r6,zero,180
 1802c40:	01802d28 	cmpgeui	r6,zero,180
 1802c44:	01803728 	cmpgeui	r6,zero,220
 1802c48:	01803700 	call	180370 <__alt_mem_sdram-0x167fc90>
 1802c4c:	01803744 	movi	r6,221
 1802c50:	01803750 	cmplti	r6,zero,221
 1802c54:	d9002717 	ldw	r4,156(sp)
 1802c58:	0089c3c4 	movi	r2,9999
 1802c5c:	20800015 	stw	r2,0(r4)
 1802c60:	a0001026 	beq	r20,zero,1802ca4 <_dtoa_r+0x31c>
 1802c64:	00c06074 	movhi	r3,385
 1802c68:	18c23f04 	addi	r3,r3,2300
 1802c6c:	d9802917 	ldw	r6,164(sp)
 1802c70:	303f7926 	beq	r6,zero,1802a58 <_dtoa_r+0xd0>
 1802c74:	188000c7 	ldb	r2,3(r3)
 1802c78:	190000c4 	addi	r4,r3,3
 1802c7c:	1000101e 	bne	r2,zero,1802cc0 <_dtoa_r+0x338>
 1802c80:	d8802917 	ldw	r2,164(sp)
 1802c84:	11000015 	stw	r4,0(r2)
 1802c88:	003f7306 	br	1802a58 <_dtoa_r+0xd0>
 1802c8c:	00a00034 	movhi	r2,32768
 1802c90:	10bfffc4 	addi	r2,r2,-1
 1802c94:	00c00044 	movi	r3,1
 1802c98:	88aa703a 	and	r21,r17,r2
 1802c9c:	90c00015 	stw	r3,0(r18)
 1802ca0:	003f5806 	br	1802a04 <_dtoa_r+0x7c>
 1802ca4:	00800434 	movhi	r2,16
 1802ca8:	10bfffc4 	addi	r2,r2,-1
 1802cac:	a884703a 	and	r2,r21,r2
 1802cb0:	103fec1e 	bne	r2,zero,1802c64 <_dtoa_r+0x2dc>
 1802cb4:	00c06074 	movhi	r3,385
 1802cb8:	18c23c04 	addi	r3,r3,2288
 1802cbc:	003feb06 	br	1802c6c <_dtoa_r+0x2e4>
 1802cc0:	d8802917 	ldw	r2,164(sp)
 1802cc4:	19000204 	addi	r4,r3,8
 1802cc8:	11000015 	stw	r4,0(r2)
 1802ccc:	003f6206 	br	1802a58 <_dtoa_r+0xd0>
 1802cd0:	ddc00117 	ldw	r23,4(sp)
 1802cd4:	d8800217 	ldw	r2,8(sp)
 1802cd8:	01000804 	movi	r4,32
 1802cdc:	b8c10c84 	addi	r3,r23,1074
 1802ce0:	18a3883a 	add	r17,r3,r2
 1802ce4:	2441b80e 	bge	r4,r17,18033c8 <_dtoa_r+0xa40>
 1802ce8:	00c01004 	movi	r3,64
 1802cec:	1c47c83a 	sub	r3,r3,r17
 1802cf0:	88bff804 	addi	r2,r17,-32
 1802cf4:	a8c6983a 	sll	r3,r21,r3
 1802cf8:	a084d83a 	srl	r2,r20,r2
 1802cfc:	1888b03a 	or	r4,r3,r2
 1802d00:	18093a40 	call	18093a4 <__floatunsidf>
 1802d04:	1011883a 	mov	r8,r2
 1802d08:	00bf8434 	movhi	r2,65040
 1802d0c:	01000044 	movi	r4,1
 1802d10:	10d3883a 	add	r9,r2,r3
 1802d14:	8dbef344 	addi	r22,r17,-1075
 1802d18:	d9000815 	stw	r4,32(sp)
 1802d1c:	003f6f06 	br	1802adc <_dtoa_r+0x154>
 1802d20:	d8001715 	stw	zero,92(sp)
 1802d24:	04400044 	movi	r17,1
 1802d28:	00bfffc4 	movi	r2,-1
 1802d2c:	00c00044 	movi	r3,1
 1802d30:	d8800e15 	stw	r2,56(sp)
 1802d34:	d8002615 	stw	zero,152(sp)
 1802d38:	d8800f15 	stw	r2,60(sp)
 1802d3c:	d8c00b15 	stw	r3,44(sp)
 1802d40:	1021883a 	mov	r16,r2
 1802d44:	d8801617 	ldw	r2,88(sp)
 1802d48:	10001115 	stw	zero,68(r2)
 1802d4c:	d8801617 	ldw	r2,88(sp)
 1802d50:	11401117 	ldw	r5,68(r2)
 1802d54:	1009883a 	mov	r4,r2
 1802d58:	180609c0 	call	180609c <_Balloc>
 1802d5c:	d8c01617 	ldw	r3,88(sp)
 1802d60:	d8800515 	stw	r2,20(sp)
 1802d64:	18801015 	stw	r2,64(r3)
 1802d68:	00800384 	movi	r2,14
 1802d6c:	14006836 	bltu	r2,r16,1802f10 <_dtoa_r+0x588>
 1802d70:	8805003a 	cmpeq	r2,r17,zero
 1802d74:	1000661e 	bne	r2,zero,1802f10 <_dtoa_r+0x588>
 1802d78:	d9000d17 	ldw	r4,52(sp)
 1802d7c:	0102300e 	bge	zero,r4,1803640 <_dtoa_r+0xcb8>
 1802d80:	208003cc 	andi	r2,r4,15
 1802d84:	100490fa 	slli	r2,r2,3
 1802d88:	2025d13a 	srai	r18,r4,4
 1802d8c:	00c06074 	movhi	r3,385
 1802d90:	18c25104 	addi	r3,r3,2372
 1802d94:	10c5883a 	add	r2,r2,r3
 1802d98:	90c0040c 	andi	r3,r18,16
 1802d9c:	14000017 	ldw	r16,0(r2)
 1802da0:	14400117 	ldw	r17,4(r2)
 1802da4:	18036a1e 	bne	r3,zero,1803b50 <_dtoa_r+0x11c8>
 1802da8:	05800084 	movi	r22,2
 1802dac:	90001026 	beq	r18,zero,1802df0 <_dtoa_r+0x468>
 1802db0:	04c06074 	movhi	r19,385
 1802db4:	9cc28304 	addi	r19,r19,2572
 1802db8:	9080004c 	andi	r2,r18,1
 1802dbc:	1005003a 	cmpeq	r2,r2,zero
 1802dc0:	1000081e 	bne	r2,zero,1802de4 <_dtoa_r+0x45c>
 1802dc4:	99800017 	ldw	r6,0(r19)
 1802dc8:	99c00117 	ldw	r7,4(r19)
 1802dcc:	880b883a 	mov	r5,r17
 1802dd0:	8009883a 	mov	r4,r16
 1802dd4:	18089100 	call	1808910 <__muldf3>
 1802dd8:	1021883a 	mov	r16,r2
 1802ddc:	b5800044 	addi	r22,r22,1
 1802de0:	1823883a 	mov	r17,r3
 1802de4:	9025d07a 	srai	r18,r18,1
 1802de8:	9cc00204 	addi	r19,r19,8
 1802dec:	903ff21e 	bne	r18,zero,1802db8 <_dtoa_r+0x430>
 1802df0:	a80b883a 	mov	r5,r21
 1802df4:	a009883a 	mov	r4,r20
 1802df8:	880f883a 	mov	r7,r17
 1802dfc:	800d883a 	mov	r6,r16
 1802e00:	1808cd40 	call	1808cd4 <__divdf3>
 1802e04:	1029883a 	mov	r20,r2
 1802e08:	182b883a 	mov	r21,r3
 1802e0c:	d8c00c17 	ldw	r3,48(sp)
 1802e10:	1805003a 	cmpeq	r2,r3,zero
 1802e14:	1000081e 	bne	r2,zero,1802e38 <_dtoa_r+0x4b0>
 1802e18:	0005883a 	mov	r2,zero
 1802e1c:	00cffc34 	movhi	r3,16368
 1802e20:	180f883a 	mov	r7,r3
 1802e24:	a009883a 	mov	r4,r20
 1802e28:	a80b883a 	mov	r5,r21
 1802e2c:	100d883a 	mov	r6,r2
 1802e30:	180914c0 	call	180914c <__ltdf2>
 1802e34:	1003fe16 	blt	r2,zero,1803e30 <_dtoa_r+0x14a8>
 1802e38:	b009883a 	mov	r4,r22
 1802e3c:	18091d40 	call	18091d4 <__floatsidf>
 1802e40:	180b883a 	mov	r5,r3
 1802e44:	1009883a 	mov	r4,r2
 1802e48:	a00d883a 	mov	r6,r20
 1802e4c:	a80f883a 	mov	r7,r21
 1802e50:	18089100 	call	1808910 <__muldf3>
 1802e54:	0011883a 	mov	r8,zero
 1802e58:	02500734 	movhi	r9,16412
 1802e5c:	1009883a 	mov	r4,r2
 1802e60:	180b883a 	mov	r5,r3
 1802e64:	480f883a 	mov	r7,r9
 1802e68:	400d883a 	mov	r6,r8
 1802e6c:	180889c0 	call	180889c <__adddf3>
 1802e70:	d9000f17 	ldw	r4,60(sp)
 1802e74:	102d883a 	mov	r22,r2
 1802e78:	00bf3034 	movhi	r2,64704
 1802e7c:	18b9883a 	add	fp,r3,r2
 1802e80:	e02f883a 	mov	r23,fp
 1802e84:	20028f1e 	bne	r4,zero,18038c4 <_dtoa_r+0xf3c>
 1802e88:	0005883a 	mov	r2,zero
 1802e8c:	00d00534 	movhi	r3,16404
 1802e90:	a009883a 	mov	r4,r20
 1802e94:	a80b883a 	mov	r5,r21
 1802e98:	180f883a 	mov	r7,r3
 1802e9c:	100d883a 	mov	r6,r2
 1802ea0:	180881c0 	call	180881c <__subdf3>
 1802ea4:	1009883a 	mov	r4,r2
 1802ea8:	e00f883a 	mov	r7,fp
 1802eac:	180b883a 	mov	r5,r3
 1802eb0:	b00d883a 	mov	r6,r22
 1802eb4:	1025883a 	mov	r18,r2
 1802eb8:	1827883a 	mov	r19,r3
 1802ebc:	180903c0 	call	180903c <__gtdf2>
 1802ec0:	00834f16 	blt	zero,r2,1803c00 <_dtoa_r+0x1278>
 1802ec4:	e0e0003c 	xorhi	r3,fp,32768
 1802ec8:	9009883a 	mov	r4,r18
 1802ecc:	980b883a 	mov	r5,r19
 1802ed0:	180f883a 	mov	r7,r3
 1802ed4:	b00d883a 	mov	r6,r22
 1802ed8:	180914c0 	call	180914c <__ltdf2>
 1802edc:	1000080e 	bge	r2,zero,1802f00 <_dtoa_r+0x578>
 1802ee0:	0027883a 	mov	r19,zero
 1802ee4:	0025883a 	mov	r18,zero
 1802ee8:	d8802617 	ldw	r2,152(sp)
 1802eec:	df000517 	ldw	fp,20(sp)
 1802ef0:	d8000615 	stw	zero,24(sp)
 1802ef4:	0084303a 	nor	r2,zero,r2
 1802ef8:	d8800d15 	stw	r2,52(sp)
 1802efc:	00019b06 	br	180356c <_dtoa_r+0xbe4>
 1802f00:	d9801217 	ldw	r6,72(sp)
 1802f04:	d8801317 	ldw	r2,76(sp)
 1802f08:	3029883a 	mov	r20,r6
 1802f0c:	102b883a 	mov	r21,r2
 1802f10:	d8c00217 	ldw	r3,8(sp)
 1802f14:	18008516 	blt	r3,zero,180312c <_dtoa_r+0x7a4>
 1802f18:	d9000d17 	ldw	r4,52(sp)
 1802f1c:	00800384 	movi	r2,14
 1802f20:	11008216 	blt	r2,r4,180312c <_dtoa_r+0x7a4>
 1802f24:	200490fa 	slli	r2,r4,3
 1802f28:	d9802617 	ldw	r6,152(sp)
 1802f2c:	00c06074 	movhi	r3,385
 1802f30:	18c25104 	addi	r3,r3,2372
 1802f34:	10c5883a 	add	r2,r2,r3
 1802f38:	14800017 	ldw	r18,0(r2)
 1802f3c:	14c00117 	ldw	r19,4(r2)
 1802f40:	30031e16 	blt	r6,zero,1803bbc <_dtoa_r+0x1234>
 1802f44:	d9000517 	ldw	r4,20(sp)
 1802f48:	d8c00f17 	ldw	r3,60(sp)
 1802f4c:	a823883a 	mov	r17,r21
 1802f50:	a021883a 	mov	r16,r20
 1802f54:	192b883a 	add	r21,r3,r4
 1802f58:	2039883a 	mov	fp,r4
 1802f5c:	00000f06 	br	1802f9c <_dtoa_r+0x614>
 1802f60:	0005883a 	mov	r2,zero
 1802f64:	00d00934 	movhi	r3,16420
 1802f68:	5009883a 	mov	r4,r10
 1802f6c:	580b883a 	mov	r5,r11
 1802f70:	180f883a 	mov	r7,r3
 1802f74:	100d883a 	mov	r6,r2
 1802f78:	18089100 	call	1808910 <__muldf3>
 1802f7c:	180b883a 	mov	r5,r3
 1802f80:	000d883a 	mov	r6,zero
 1802f84:	000f883a 	mov	r7,zero
 1802f88:	1009883a 	mov	r4,r2
 1802f8c:	1021883a 	mov	r16,r2
 1802f90:	1823883a 	mov	r17,r3
 1802f94:	1808fb40 	call	1808fb4 <__nedf2>
 1802f98:	10004526 	beq	r2,zero,18030b0 <_dtoa_r+0x728>
 1802f9c:	900d883a 	mov	r6,r18
 1802fa0:	980f883a 	mov	r7,r19
 1802fa4:	8009883a 	mov	r4,r16
 1802fa8:	880b883a 	mov	r5,r17
 1802fac:	1808cd40 	call	1808cd4 <__divdf3>
 1802fb0:	180b883a 	mov	r5,r3
 1802fb4:	1009883a 	mov	r4,r2
 1802fb8:	18092cc0 	call	18092cc <__fixdfsi>
 1802fbc:	1009883a 	mov	r4,r2
 1802fc0:	1029883a 	mov	r20,r2
 1802fc4:	18091d40 	call	18091d4 <__floatsidf>
 1802fc8:	180f883a 	mov	r7,r3
 1802fcc:	9009883a 	mov	r4,r18
 1802fd0:	980b883a 	mov	r5,r19
 1802fd4:	100d883a 	mov	r6,r2
 1802fd8:	18089100 	call	1808910 <__muldf3>
 1802fdc:	180f883a 	mov	r7,r3
 1802fe0:	880b883a 	mov	r5,r17
 1802fe4:	8009883a 	mov	r4,r16
 1802fe8:	100d883a 	mov	r6,r2
 1802fec:	180881c0 	call	180881c <__subdf3>
 1802ff0:	1015883a 	mov	r10,r2
 1802ff4:	a0800c04 	addi	r2,r20,48
 1802ff8:	e0800005 	stb	r2,0(fp)
 1802ffc:	e7000044 	addi	fp,fp,1
 1803000:	1817883a 	mov	r11,r3
 1803004:	e57fd61e 	bne	fp,r21,1802f60 <_dtoa_r+0x5d8>
 1803008:	500d883a 	mov	r6,r10
 180300c:	180f883a 	mov	r7,r3
 1803010:	5009883a 	mov	r4,r10
 1803014:	180b883a 	mov	r5,r3
 1803018:	180889c0 	call	180889c <__adddf3>
 180301c:	100d883a 	mov	r6,r2
 1803020:	9009883a 	mov	r4,r18
 1803024:	980b883a 	mov	r5,r19
 1803028:	180f883a 	mov	r7,r3
 180302c:	1021883a 	mov	r16,r2
 1803030:	1823883a 	mov	r17,r3
 1803034:	180914c0 	call	180914c <__ltdf2>
 1803038:	10000816 	blt	r2,zero,180305c <_dtoa_r+0x6d4>
 180303c:	980b883a 	mov	r5,r19
 1803040:	800d883a 	mov	r6,r16
 1803044:	880f883a 	mov	r7,r17
 1803048:	9009883a 	mov	r4,r18
 180304c:	1808f2c0 	call	1808f2c <__eqdf2>
 1803050:	1000171e 	bne	r2,zero,18030b0 <_dtoa_r+0x728>
 1803054:	a080004c 	andi	r2,r20,1
 1803058:	10001526 	beq	r2,zero,18030b0 <_dtoa_r+0x728>
 180305c:	d8800d17 	ldw	r2,52(sp)
 1803060:	d8800415 	stw	r2,16(sp)
 1803064:	e009883a 	mov	r4,fp
 1803068:	213fffc4 	addi	r4,r4,-1
 180306c:	20c00007 	ldb	r3,0(r4)
 1803070:	00800e44 	movi	r2,57
 1803074:	1880081e 	bne	r3,r2,1803098 <_dtoa_r+0x710>
 1803078:	d8800517 	ldw	r2,20(sp)
 180307c:	113ffa1e 	bne	r2,r4,1803068 <_dtoa_r+0x6e0>
 1803080:	d8c00417 	ldw	r3,16(sp)
 1803084:	d9800517 	ldw	r6,20(sp)
 1803088:	00800c04 	movi	r2,48
 180308c:	18c00044 	addi	r3,r3,1
 1803090:	d8c00415 	stw	r3,16(sp)
 1803094:	30800005 	stb	r2,0(r6)
 1803098:	20800003 	ldbu	r2,0(r4)
 180309c:	d8c00417 	ldw	r3,16(sp)
 18030a0:	27000044 	addi	fp,r4,1
 18030a4:	10800044 	addi	r2,r2,1
 18030a8:	d8c00d15 	stw	r3,52(sp)
 18030ac:	20800005 	stb	r2,0(r4)
 18030b0:	d9001617 	ldw	r4,88(sp)
 18030b4:	d9400717 	ldw	r5,28(sp)
 18030b8:	1805b1c0 	call	1805b1c <_Bfree>
 18030bc:	e0000005 	stb	zero,0(fp)
 18030c0:	d9800d17 	ldw	r6,52(sp)
 18030c4:	d8c02717 	ldw	r3,156(sp)
 18030c8:	d9002917 	ldw	r4,164(sp)
 18030cc:	30800044 	addi	r2,r6,1
 18030d0:	18800015 	stw	r2,0(r3)
 18030d4:	20029c26 	beq	r4,zero,1803b48 <_dtoa_r+0x11c0>
 18030d8:	d8c00517 	ldw	r3,20(sp)
 18030dc:	27000015 	stw	fp,0(r4)
 18030e0:	003e5d06 	br	1802a58 <_dtoa_r+0xd0>
 18030e4:	d9800d17 	ldw	r6,52(sp)
 18030e8:	00c06074 	movhi	r3,385
 18030ec:	18c25104 	addi	r3,r3,2372
 18030f0:	d9001217 	ldw	r4,72(sp)
 18030f4:	300490fa 	slli	r2,r6,3
 18030f8:	d9401317 	ldw	r5,76(sp)
 18030fc:	10c5883a 	add	r2,r2,r3
 1803100:	12000017 	ldw	r8,0(r2)
 1803104:	12400117 	ldw	r9,4(r2)
 1803108:	400d883a 	mov	r6,r8
 180310c:	480f883a 	mov	r7,r9
 1803110:	180914c0 	call	180914c <__ltdf2>
 1803114:	1000030e 	bge	r2,zero,1803124 <_dtoa_r+0x79c>
 1803118:	d8800d17 	ldw	r2,52(sp)
 180311c:	10bfffc4 	addi	r2,r2,-1
 1803120:	d8800d15 	stw	r2,52(sp)
 1803124:	d8000c15 	stw	zero,48(sp)
 1803128:	003ea806 	br	1802bcc <_dtoa_r+0x244>
 180312c:	d9000b17 	ldw	r4,44(sp)
 1803130:	202cc03a 	cmpne	r22,r4,zero
 1803134:	b000c71e 	bne	r22,zero,1803454 <_dtoa_r+0xacc>
 1803138:	dc001117 	ldw	r16,68(sp)
 180313c:	dc801017 	ldw	r18,64(sp)
 1803140:	0027883a 	mov	r19,zero
 1803144:	04000b0e 	bge	zero,r16,1803174 <_dtoa_r+0x7ec>
 1803148:	d8c00a17 	ldw	r3,40(sp)
 180314c:	00c0090e 	bge	zero,r3,1803174 <_dtoa_r+0x7ec>
 1803150:	8005883a 	mov	r2,r16
 1803154:	1c011316 	blt	r3,r16,18035a4 <_dtoa_r+0xc1c>
 1803158:	d9000a17 	ldw	r4,40(sp)
 180315c:	d9801117 	ldw	r6,68(sp)
 1803160:	80a1c83a 	sub	r16,r16,r2
 1803164:	2089c83a 	sub	r4,r4,r2
 1803168:	308dc83a 	sub	r6,r6,r2
 180316c:	d9000a15 	stw	r4,40(sp)
 1803170:	d9801115 	stw	r6,68(sp)
 1803174:	d8801017 	ldw	r2,64(sp)
 1803178:	0080150e 	bge	zero,r2,18031d0 <_dtoa_r+0x848>
 180317c:	d8c00b17 	ldw	r3,44(sp)
 1803180:	1805003a 	cmpeq	r2,r3,zero
 1803184:	1001c91e 	bne	r2,zero,18038ac <_dtoa_r+0xf24>
 1803188:	04800e0e 	bge	zero,r18,18031c4 <_dtoa_r+0x83c>
 180318c:	d9001617 	ldw	r4,88(sp)
 1803190:	980b883a 	mov	r5,r19
 1803194:	900d883a 	mov	r6,r18
 1803198:	18068d00 	call	18068d0 <__pow5mult>
 180319c:	d9001617 	ldw	r4,88(sp)
 18031a0:	d9800717 	ldw	r6,28(sp)
 18031a4:	100b883a 	mov	r5,r2
 18031a8:	1027883a 	mov	r19,r2
 18031ac:	18065ac0 	call	18065ac <__multiply>
 18031b0:	d9001617 	ldw	r4,88(sp)
 18031b4:	d9400717 	ldw	r5,28(sp)
 18031b8:	1023883a 	mov	r17,r2
 18031bc:	1805b1c0 	call	1805b1c <_Bfree>
 18031c0:	dc400715 	stw	r17,28(sp)
 18031c4:	d9001017 	ldw	r4,64(sp)
 18031c8:	248dc83a 	sub	r6,r4,r18
 18031cc:	30010e1e 	bne	r6,zero,1803608 <_dtoa_r+0xc80>
 18031d0:	d9001617 	ldw	r4,88(sp)
 18031d4:	04400044 	movi	r17,1
 18031d8:	880b883a 	mov	r5,r17
 18031dc:	18067940 	call	1806794 <__i2b>
 18031e0:	d9800917 	ldw	r6,36(sp)
 18031e4:	1025883a 	mov	r18,r2
 18031e8:	0180040e 	bge	zero,r6,18031fc <_dtoa_r+0x874>
 18031ec:	d9001617 	ldw	r4,88(sp)
 18031f0:	100b883a 	mov	r5,r2
 18031f4:	18068d00 	call	18068d0 <__pow5mult>
 18031f8:	1025883a 	mov	r18,r2
 18031fc:	d8801717 	ldw	r2,92(sp)
 1803200:	8880f30e 	bge	r17,r2,18035d0 <_dtoa_r+0xc48>
 1803204:	0023883a 	mov	r17,zero
 1803208:	d9800917 	ldw	r6,36(sp)
 180320c:	30019e1e 	bne	r6,zero,1803888 <_dtoa_r+0xf00>
 1803210:	00c00044 	movi	r3,1
 1803214:	d9000a17 	ldw	r4,40(sp)
 1803218:	20c5883a 	add	r2,r4,r3
 180321c:	10c007cc 	andi	r3,r2,31
 1803220:	1800841e 	bne	r3,zero,1803434 <_dtoa_r+0xaac>
 1803224:	00800704 	movi	r2,28
 1803228:	d9000a17 	ldw	r4,40(sp)
 180322c:	d9801117 	ldw	r6,68(sp)
 1803230:	80a1883a 	add	r16,r16,r2
 1803234:	2089883a 	add	r4,r4,r2
 1803238:	308d883a 	add	r6,r6,r2
 180323c:	d9000a15 	stw	r4,40(sp)
 1803240:	d9801115 	stw	r6,68(sp)
 1803244:	d8801117 	ldw	r2,68(sp)
 1803248:	0080050e 	bge	zero,r2,1803260 <_dtoa_r+0x8d8>
 180324c:	d9400717 	ldw	r5,28(sp)
 1803250:	d9001617 	ldw	r4,88(sp)
 1803254:	100d883a 	mov	r6,r2
 1803258:	18064600 	call	1806460 <__lshift>
 180325c:	d8800715 	stw	r2,28(sp)
 1803260:	d8c00a17 	ldw	r3,40(sp)
 1803264:	00c0050e 	bge	zero,r3,180327c <_dtoa_r+0x8f4>
 1803268:	d9001617 	ldw	r4,88(sp)
 180326c:	900b883a 	mov	r5,r18
 1803270:	180d883a 	mov	r6,r3
 1803274:	18064600 	call	1806460 <__lshift>
 1803278:	1025883a 	mov	r18,r2
 180327c:	d9000c17 	ldw	r4,48(sp)
 1803280:	2005003a 	cmpeq	r2,r4,zero
 1803284:	10016f26 	beq	r2,zero,1803844 <_dtoa_r+0xebc>
 1803288:	d9000f17 	ldw	r4,60(sp)
 180328c:	0102170e 	bge	zero,r4,1803aec <_dtoa_r+0x1164>
 1803290:	d9800b17 	ldw	r6,44(sp)
 1803294:	3005003a 	cmpeq	r2,r6,zero
 1803298:	1000881e 	bne	r2,zero,18034bc <_dtoa_r+0xb34>
 180329c:	0400050e 	bge	zero,r16,18032b4 <_dtoa_r+0x92c>
 18032a0:	d9001617 	ldw	r4,88(sp)
 18032a4:	980b883a 	mov	r5,r19
 18032a8:	800d883a 	mov	r6,r16
 18032ac:	18064600 	call	1806460 <__lshift>
 18032b0:	1027883a 	mov	r19,r2
 18032b4:	8804c03a 	cmpne	r2,r17,zero
 18032b8:	1002541e 	bne	r2,zero,1803c0c <_dtoa_r+0x1284>
 18032bc:	980b883a 	mov	r5,r19
 18032c0:	dd800517 	ldw	r22,20(sp)
 18032c4:	dcc00615 	stw	r19,24(sp)
 18032c8:	a700004c 	andi	fp,r20,1
 18032cc:	2827883a 	mov	r19,r5
 18032d0:	d9000717 	ldw	r4,28(sp)
 18032d4:	900b883a 	mov	r5,r18
 18032d8:	18027700 	call	1802770 <quorem>
 18032dc:	d9000717 	ldw	r4,28(sp)
 18032e0:	d9400617 	ldw	r5,24(sp)
 18032e4:	1023883a 	mov	r17,r2
 18032e8:	8dc00c04 	addi	r23,r17,48
 18032ec:	1805c780 	call	1805c78 <__mcmp>
 18032f0:	d9001617 	ldw	r4,88(sp)
 18032f4:	900b883a 	mov	r5,r18
 18032f8:	980d883a 	mov	r6,r19
 18032fc:	1029883a 	mov	r20,r2
 1803300:	18062d40 	call	18062d4 <__mdiff>
 1803304:	102b883a 	mov	r21,r2
 1803308:	10800317 	ldw	r2,12(r2)
 180330c:	1001281e 	bne	r2,zero,18037b0 <_dtoa_r+0xe28>
 1803310:	d9000717 	ldw	r4,28(sp)
 1803314:	a80b883a 	mov	r5,r21
 1803318:	1805c780 	call	1805c78 <__mcmp>
 180331c:	d9001617 	ldw	r4,88(sp)
 1803320:	1021883a 	mov	r16,r2
 1803324:	a80b883a 	mov	r5,r21
 1803328:	1805b1c0 	call	1805b1c <_Bfree>
 180332c:	8000041e 	bne	r16,zero,1803340 <_dtoa_r+0x9b8>
 1803330:	d8801717 	ldw	r2,92(sp)
 1803334:	1000021e 	bne	r2,zero,1803340 <_dtoa_r+0x9b8>
 1803338:	e004c03a 	cmpne	r2,fp,zero
 180333c:	10011726 	beq	r2,zero,180379c <_dtoa_r+0xe14>
 1803340:	a0010616 	blt	r20,zero,180375c <_dtoa_r+0xdd4>
 1803344:	a000041e 	bne	r20,zero,1803358 <_dtoa_r+0x9d0>
 1803348:	d8c01717 	ldw	r3,92(sp)
 180334c:	1800021e 	bne	r3,zero,1803358 <_dtoa_r+0x9d0>
 1803350:	e004c03a 	cmpne	r2,fp,zero
 1803354:	10010126 	beq	r2,zero,180375c <_dtoa_r+0xdd4>
 1803358:	04023d16 	blt	zero,r16,1803c50 <_dtoa_r+0x12c8>
 180335c:	b5c00005 	stb	r23,0(r22)
 1803360:	d9800517 	ldw	r6,20(sp)
 1803364:	d9000f17 	ldw	r4,60(sp)
 1803368:	b5800044 	addi	r22,r22,1
 180336c:	3105883a 	add	r2,r6,r4
 1803370:	b0806526 	beq	r22,r2,1803508 <_dtoa_r+0xb80>
 1803374:	d9400717 	ldw	r5,28(sp)
 1803378:	d9001617 	ldw	r4,88(sp)
 180337c:	01800284 	movi	r6,10
 1803380:	000f883a 	mov	r7,zero
 1803384:	18067d00 	call	18067d0 <__multadd>
 1803388:	d8800715 	stw	r2,28(sp)
 180338c:	d8800617 	ldw	r2,24(sp)
 1803390:	14c10c26 	beq	r2,r19,18037c4 <_dtoa_r+0xe3c>
 1803394:	d9400617 	ldw	r5,24(sp)
 1803398:	d9001617 	ldw	r4,88(sp)
 180339c:	01800284 	movi	r6,10
 18033a0:	000f883a 	mov	r7,zero
 18033a4:	18067d00 	call	18067d0 <__multadd>
 18033a8:	d9001617 	ldw	r4,88(sp)
 18033ac:	980b883a 	mov	r5,r19
 18033b0:	01800284 	movi	r6,10
 18033b4:	000f883a 	mov	r7,zero
 18033b8:	d8800615 	stw	r2,24(sp)
 18033bc:	18067d00 	call	18067d0 <__multadd>
 18033c0:	1027883a 	mov	r19,r2
 18033c4:	003fc206 	br	18032d0 <_dtoa_r+0x948>
 18033c8:	2445c83a 	sub	r2,r4,r17
 18033cc:	a088983a 	sll	r4,r20,r2
 18033d0:	003e4b06 	br	1802d00 <_dtoa_r+0x378>
 18033d4:	01bfffc4 	movi	r6,-1
 18033d8:	00800044 	movi	r2,1
 18033dc:	d9800e15 	stw	r6,56(sp)
 18033e0:	d9800f15 	stw	r6,60(sp)
 18033e4:	d8800b15 	stw	r2,44(sp)
 18033e8:	d8c01617 	ldw	r3,88(sp)
 18033ec:	008005c4 	movi	r2,23
 18033f0:	18001115 	stw	zero,68(r3)
 18033f4:	1580082e 	bgeu	r2,r22,1803418 <_dtoa_r+0xa90>
 18033f8:	00c00104 	movi	r3,4
 18033fc:	0009883a 	mov	r4,zero
 1803400:	18c7883a 	add	r3,r3,r3
 1803404:	18800504 	addi	r2,r3,20
 1803408:	21000044 	addi	r4,r4,1
 180340c:	b0bffc2e 	bgeu	r22,r2,1803400 <_dtoa_r+0xa78>
 1803410:	d9801617 	ldw	r6,88(sp)
 1803414:	31001115 	stw	r4,68(r6)
 1803418:	dc000f17 	ldw	r16,60(sp)
 180341c:	003e4b06 	br	1802d4c <_dtoa_r+0x3c4>
 1803420:	d9801717 	ldw	r6,92(sp)
 1803424:	0023883a 	mov	r17,zero
 1803428:	31bfff04 	addi	r6,r6,-4
 180342c:	d9801715 	stw	r6,92(sp)
 1803430:	003df806 	br	1802c14 <_dtoa_r+0x28c>
 1803434:	00800804 	movi	r2,32
 1803438:	10c9c83a 	sub	r4,r2,r3
 180343c:	00c00104 	movi	r3,4
 1803440:	19005a16 	blt	r3,r4,18035ac <_dtoa_r+0xc24>
 1803444:	008000c4 	movi	r2,3
 1803448:	113f7e16 	blt	r2,r4,1803244 <_dtoa_r+0x8bc>
 180344c:	20800704 	addi	r2,r4,28
 1803450:	003f7506 	br	1803228 <_dtoa_r+0x8a0>
 1803454:	d9801717 	ldw	r6,92(sp)
 1803458:	00800044 	movi	r2,1
 180345c:	1180a10e 	bge	r2,r6,18036e4 <_dtoa_r+0xd5c>
 1803460:	d9800f17 	ldw	r6,60(sp)
 1803464:	d8c01017 	ldw	r3,64(sp)
 1803468:	30bfffc4 	addi	r2,r6,-1
 180346c:	1881c616 	blt	r3,r2,1803b88 <_dtoa_r+0x1200>
 1803470:	18a5c83a 	sub	r18,r3,r2
 1803474:	d8800f17 	ldw	r2,60(sp)
 1803478:	10026216 	blt	r2,zero,1803e04 <_dtoa_r+0x147c>
 180347c:	dc001117 	ldw	r16,68(sp)
 1803480:	1007883a 	mov	r3,r2
 1803484:	d9800a17 	ldw	r6,40(sp)
 1803488:	d8801117 	ldw	r2,68(sp)
 180348c:	d9001617 	ldw	r4,88(sp)
 1803490:	30cd883a 	add	r6,r6,r3
 1803494:	10c5883a 	add	r2,r2,r3
 1803498:	01400044 	movi	r5,1
 180349c:	d9800a15 	stw	r6,40(sp)
 18034a0:	d8801115 	stw	r2,68(sp)
 18034a4:	18067940 	call	1806794 <__i2b>
 18034a8:	1027883a 	mov	r19,r2
 18034ac:	003f2506 	br	1803144 <_dtoa_r+0x7bc>
 18034b0:	00c06074 	movhi	r3,385
 18034b4:	18c23304 	addi	r3,r3,2252
 18034b8:	003d6706 	br	1802a58 <_dtoa_r+0xd0>
 18034bc:	dd800517 	ldw	r22,20(sp)
 18034c0:	04000044 	movi	r16,1
 18034c4:	00000706 	br	18034e4 <_dtoa_r+0xb5c>
 18034c8:	d9400717 	ldw	r5,28(sp)
 18034cc:	d9001617 	ldw	r4,88(sp)
 18034d0:	01800284 	movi	r6,10
 18034d4:	000f883a 	mov	r7,zero
 18034d8:	18067d00 	call	18067d0 <__multadd>
 18034dc:	d8800715 	stw	r2,28(sp)
 18034e0:	84000044 	addi	r16,r16,1
 18034e4:	d9000717 	ldw	r4,28(sp)
 18034e8:	900b883a 	mov	r5,r18
 18034ec:	18027700 	call	1802770 <quorem>
 18034f0:	15c00c04 	addi	r23,r2,48
 18034f4:	b5c00005 	stb	r23,0(r22)
 18034f8:	d8c00f17 	ldw	r3,60(sp)
 18034fc:	b5800044 	addi	r22,r22,1
 1803500:	80fff116 	blt	r16,r3,18034c8 <_dtoa_r+0xb40>
 1803504:	d8000615 	stw	zero,24(sp)
 1803508:	d9400717 	ldw	r5,28(sp)
 180350c:	d9001617 	ldw	r4,88(sp)
 1803510:	01800044 	movi	r6,1
 1803514:	18064600 	call	1806460 <__lshift>
 1803518:	1009883a 	mov	r4,r2
 180351c:	900b883a 	mov	r5,r18
 1803520:	d8800715 	stw	r2,28(sp)
 1803524:	1805c780 	call	1805c78 <__mcmp>
 1803528:	00803c0e 	bge	zero,r2,180361c <_dtoa_r+0xc94>
 180352c:	b009883a 	mov	r4,r22
 1803530:	213fffc4 	addi	r4,r4,-1
 1803534:	21400003 	ldbu	r5,0(r4)
 1803538:	00800e44 	movi	r2,57
 180353c:	28c03fcc 	andi	r3,r5,255
 1803540:	18c0201c 	xori	r3,r3,128
 1803544:	18ffe004 	addi	r3,r3,-128
 1803548:	1881981e 	bne	r3,r2,1803bac <_dtoa_r+0x1224>
 180354c:	d9800517 	ldw	r6,20(sp)
 1803550:	21bff71e 	bne	r4,r6,1803530 <_dtoa_r+0xba8>
 1803554:	d8800d17 	ldw	r2,52(sp)
 1803558:	37000044 	addi	fp,r6,1
 180355c:	10800044 	addi	r2,r2,1
 1803560:	d8800d15 	stw	r2,52(sp)
 1803564:	00800c44 	movi	r2,49
 1803568:	30800005 	stb	r2,0(r6)
 180356c:	d9001617 	ldw	r4,88(sp)
 1803570:	900b883a 	mov	r5,r18
 1803574:	1805b1c0 	call	1805b1c <_Bfree>
 1803578:	983ecd26 	beq	r19,zero,18030b0 <_dtoa_r+0x728>
 180357c:	d8c00617 	ldw	r3,24(sp)
 1803580:	18000426 	beq	r3,zero,1803594 <_dtoa_r+0xc0c>
 1803584:	1cc00326 	beq	r3,r19,1803594 <_dtoa_r+0xc0c>
 1803588:	d9001617 	ldw	r4,88(sp)
 180358c:	180b883a 	mov	r5,r3
 1803590:	1805b1c0 	call	1805b1c <_Bfree>
 1803594:	d9001617 	ldw	r4,88(sp)
 1803598:	980b883a 	mov	r5,r19
 180359c:	1805b1c0 	call	1805b1c <_Bfree>
 18035a0:	003ec306 	br	18030b0 <_dtoa_r+0x728>
 18035a4:	1805883a 	mov	r2,r3
 18035a8:	003eeb06 	br	1803158 <_dtoa_r+0x7d0>
 18035ac:	d9800a17 	ldw	r6,40(sp)
 18035b0:	d8c01117 	ldw	r3,68(sp)
 18035b4:	20bfff04 	addi	r2,r4,-4
 18035b8:	308d883a 	add	r6,r6,r2
 18035bc:	1887883a 	add	r3,r3,r2
 18035c0:	80a1883a 	add	r16,r16,r2
 18035c4:	d9800a15 	stw	r6,40(sp)
 18035c8:	d8c01115 	stw	r3,68(sp)
 18035cc:	003f1d06 	br	1803244 <_dtoa_r+0x8bc>
 18035d0:	a03f0c1e 	bne	r20,zero,1803204 <_dtoa_r+0x87c>
 18035d4:	00800434 	movhi	r2,16
 18035d8:	10bfffc4 	addi	r2,r2,-1
 18035dc:	a884703a 	and	r2,r21,r2
 18035e0:	103f081e 	bne	r2,zero,1803204 <_dtoa_r+0x87c>
 18035e4:	a89ffc2c 	andhi	r2,r21,32752
 18035e8:	103f0626 	beq	r2,zero,1803204 <_dtoa_r+0x87c>
 18035ec:	d8c01117 	ldw	r3,68(sp)
 18035f0:	d9000a17 	ldw	r4,40(sp)
 18035f4:	18c00044 	addi	r3,r3,1
 18035f8:	21000044 	addi	r4,r4,1
 18035fc:	d8c01115 	stw	r3,68(sp)
 1803600:	d9000a15 	stw	r4,40(sp)
 1803604:	003f0006 	br	1803208 <_dtoa_r+0x880>
 1803608:	d9400717 	ldw	r5,28(sp)
 180360c:	d9001617 	ldw	r4,88(sp)
 1803610:	18068d00 	call	18068d0 <__pow5mult>
 1803614:	d8800715 	stw	r2,28(sp)
 1803618:	003eed06 	br	18031d0 <_dtoa_r+0x848>
 180361c:	1000021e 	bne	r2,zero,1803628 <_dtoa_r+0xca0>
 1803620:	b880004c 	andi	r2,r23,1
 1803624:	103fc11e 	bne	r2,zero,180352c <_dtoa_r+0xba4>
 1803628:	b5bfffc4 	addi	r22,r22,-1
 180362c:	b0c00007 	ldb	r3,0(r22)
 1803630:	00800c04 	movi	r2,48
 1803634:	18bffc26 	beq	r3,r2,1803628 <_dtoa_r+0xca0>
 1803638:	b7000044 	addi	fp,r22,1
 180363c:	003fcb06 	br	180356c <_dtoa_r+0xbe4>
 1803640:	d9800d17 	ldw	r6,52(sp)
 1803644:	018fc83a 	sub	r7,zero,r6
 1803648:	3801f726 	beq	r7,zero,1803e28 <_dtoa_r+0x14a0>
 180364c:	398003cc 	andi	r6,r7,15
 1803650:	300c90fa 	slli	r6,r6,3
 1803654:	01406074 	movhi	r5,385
 1803658:	29425104 	addi	r5,r5,2372
 180365c:	d9001217 	ldw	r4,72(sp)
 1803660:	314d883a 	add	r6,r6,r5
 1803664:	30c00117 	ldw	r3,4(r6)
 1803668:	30800017 	ldw	r2,0(r6)
 180366c:	d9401317 	ldw	r5,76(sp)
 1803670:	3821d13a 	srai	r16,r7,4
 1803674:	100d883a 	mov	r6,r2
 1803678:	180f883a 	mov	r7,r3
 180367c:	18089100 	call	1808910 <__muldf3>
 1803680:	1011883a 	mov	r8,r2
 1803684:	1813883a 	mov	r9,r3
 1803688:	1029883a 	mov	r20,r2
 180368c:	182b883a 	mov	r21,r3
 1803690:	8001e526 	beq	r16,zero,1803e28 <_dtoa_r+0x14a0>
 1803694:	05800084 	movi	r22,2
 1803698:	04406074 	movhi	r17,385
 180369c:	8c428304 	addi	r17,r17,2572
 18036a0:	8080004c 	andi	r2,r16,1
 18036a4:	1005003a 	cmpeq	r2,r2,zero
 18036a8:	1000081e 	bne	r2,zero,18036cc <_dtoa_r+0xd44>
 18036ac:	89800017 	ldw	r6,0(r17)
 18036b0:	89c00117 	ldw	r7,4(r17)
 18036b4:	480b883a 	mov	r5,r9
 18036b8:	4009883a 	mov	r4,r8
 18036bc:	18089100 	call	1808910 <__muldf3>
 18036c0:	1011883a 	mov	r8,r2
 18036c4:	b5800044 	addi	r22,r22,1
 18036c8:	1813883a 	mov	r9,r3
 18036cc:	8021d07a 	srai	r16,r16,1
 18036d0:	8c400204 	addi	r17,r17,8
 18036d4:	803ff21e 	bne	r16,zero,18036a0 <_dtoa_r+0xd18>
 18036d8:	4029883a 	mov	r20,r8
 18036dc:	482b883a 	mov	r21,r9
 18036e0:	003dca06 	br	1802e0c <_dtoa_r+0x484>
 18036e4:	d9000817 	ldw	r4,32(sp)
 18036e8:	2005003a 	cmpeq	r2,r4,zero
 18036ec:	1001f61e 	bne	r2,zero,1803ec8 <_dtoa_r+0x1540>
 18036f0:	dc001117 	ldw	r16,68(sp)
 18036f4:	dc801017 	ldw	r18,64(sp)
 18036f8:	18c10cc4 	addi	r3,r3,1075
 18036fc:	003f6106 	br	1803484 <_dtoa_r+0xafc>
 1803700:	d8000b15 	stw	zero,44(sp)
 1803704:	d9802617 	ldw	r6,152(sp)
 1803708:	d8c00d17 	ldw	r3,52(sp)
 180370c:	30800044 	addi	r2,r6,1
 1803710:	18ad883a 	add	r22,r3,r2
 1803714:	b13fffc4 	addi	r4,r22,-1
 1803718:	d9000e15 	stw	r4,56(sp)
 180371c:	0581f60e 	bge	zero,r22,1803ef8 <_dtoa_r+0x1570>
 1803720:	dd800f15 	stw	r22,60(sp)
 1803724:	003f3006 	br	18033e8 <_dtoa_r+0xa60>
 1803728:	d8000b15 	stw	zero,44(sp)
 180372c:	d9002617 	ldw	r4,152(sp)
 1803730:	0101eb0e 	bge	zero,r4,1803ee0 <_dtoa_r+0x1558>
 1803734:	202d883a 	mov	r22,r4
 1803738:	d9000e15 	stw	r4,56(sp)
 180373c:	d9000f15 	stw	r4,60(sp)
 1803740:	003f2906 	br	18033e8 <_dtoa_r+0xa60>
 1803744:	01800044 	movi	r6,1
 1803748:	d9800b15 	stw	r6,44(sp)
 180374c:	003ff706 	br	180372c <_dtoa_r+0xda4>
 1803750:	01000044 	movi	r4,1
 1803754:	d9000b15 	stw	r4,44(sp)
 1803758:	003fea06 	br	1803704 <_dtoa_r+0xd7c>
 180375c:	04000c0e 	bge	zero,r16,1803790 <_dtoa_r+0xe08>
 1803760:	d9400717 	ldw	r5,28(sp)
 1803764:	d9001617 	ldw	r4,88(sp)
 1803768:	01800044 	movi	r6,1
 180376c:	18064600 	call	1806460 <__lshift>
 1803770:	1009883a 	mov	r4,r2
 1803774:	900b883a 	mov	r5,r18
 1803778:	d8800715 	stw	r2,28(sp)
 180377c:	1805c780 	call	1805c78 <__mcmp>
 1803780:	0081e00e 	bge	zero,r2,1803f04 <_dtoa_r+0x157c>
 1803784:	bdc00044 	addi	r23,r23,1
 1803788:	00800e84 	movi	r2,58
 180378c:	b881a226 	beq	r23,r2,1803e18 <_dtoa_r+0x1490>
 1803790:	b7000044 	addi	fp,r22,1
 1803794:	b5c00005 	stb	r23,0(r22)
 1803798:	003f7406 	br	180356c <_dtoa_r+0xbe4>
 180379c:	00800e44 	movi	r2,57
 18037a0:	b8819d26 	beq	r23,r2,1803e18 <_dtoa_r+0x1490>
 18037a4:	053ffa0e 	bge	zero,r20,1803790 <_dtoa_r+0xe08>
 18037a8:	8dc00c44 	addi	r23,r17,49
 18037ac:	003ff806 	br	1803790 <_dtoa_r+0xe08>
 18037b0:	d9001617 	ldw	r4,88(sp)
 18037b4:	a80b883a 	mov	r5,r21
 18037b8:	04000044 	movi	r16,1
 18037bc:	1805b1c0 	call	1805b1c <_Bfree>
 18037c0:	003edf06 	br	1803340 <_dtoa_r+0x9b8>
 18037c4:	d9001617 	ldw	r4,88(sp)
 18037c8:	980b883a 	mov	r5,r19
 18037cc:	01800284 	movi	r6,10
 18037d0:	000f883a 	mov	r7,zero
 18037d4:	18067d00 	call	18067d0 <__multadd>
 18037d8:	1027883a 	mov	r19,r2
 18037dc:	d8800615 	stw	r2,24(sp)
 18037e0:	003ebb06 	br	18032d0 <_dtoa_r+0x948>
 18037e4:	d9801117 	ldw	r6,68(sp)
 18037e8:	d8800d17 	ldw	r2,52(sp)
 18037ec:	d8000915 	stw	zero,36(sp)
 18037f0:	308dc83a 	sub	r6,r6,r2
 18037f4:	0087c83a 	sub	r3,zero,r2
 18037f8:	d9801115 	stw	r6,68(sp)
 18037fc:	d8c01015 	stw	r3,64(sp)
 1803800:	003cfe06 	br	1802bfc <_dtoa_r+0x274>
 1803804:	018dc83a 	sub	r6,zero,r6
 1803808:	d9801115 	stw	r6,68(sp)
 180380c:	d8000a15 	stw	zero,40(sp)
 1803810:	003cf306 	br	1802be0 <_dtoa_r+0x258>
 1803814:	d9000d17 	ldw	r4,52(sp)
 1803818:	18091d40 	call	18091d4 <__floatsidf>
 180381c:	880b883a 	mov	r5,r17
 1803820:	8009883a 	mov	r4,r16
 1803824:	180f883a 	mov	r7,r3
 1803828:	100d883a 	mov	r6,r2
 180382c:	1808fb40 	call	1808fb4 <__nedf2>
 1803830:	103ce126 	beq	r2,zero,1802bb8 <_dtoa_r+0x230>
 1803834:	d9800d17 	ldw	r6,52(sp)
 1803838:	31bfffc4 	addi	r6,r6,-1
 180383c:	d9800d15 	stw	r6,52(sp)
 1803840:	003cdd06 	br	1802bb8 <_dtoa_r+0x230>
 1803844:	d9000717 	ldw	r4,28(sp)
 1803848:	900b883a 	mov	r5,r18
 180384c:	1805c780 	call	1805c78 <__mcmp>
 1803850:	103e8d0e 	bge	r2,zero,1803288 <_dtoa_r+0x900>
 1803854:	d9400717 	ldw	r5,28(sp)
 1803858:	d9001617 	ldw	r4,88(sp)
 180385c:	01800284 	movi	r6,10
 1803860:	000f883a 	mov	r7,zero
 1803864:	18067d00 	call	18067d0 <__multadd>
 1803868:	d9800d17 	ldw	r6,52(sp)
 180386c:	d8800715 	stw	r2,28(sp)
 1803870:	31bfffc4 	addi	r6,r6,-1
 1803874:	d9800d15 	stw	r6,52(sp)
 1803878:	b001a71e 	bne	r22,zero,1803f18 <_dtoa_r+0x1590>
 180387c:	d8800e17 	ldw	r2,56(sp)
 1803880:	d8800f15 	stw	r2,60(sp)
 1803884:	003e8006 	br	1803288 <_dtoa_r+0x900>
 1803888:	90800417 	ldw	r2,16(r18)
 180388c:	1085883a 	add	r2,r2,r2
 1803890:	1085883a 	add	r2,r2,r2
 1803894:	1485883a 	add	r2,r2,r18
 1803898:	11000417 	ldw	r4,16(r2)
 180389c:	1805b440 	call	1805b44 <__hi0bits>
 18038a0:	00c00804 	movi	r3,32
 18038a4:	1887c83a 	sub	r3,r3,r2
 18038a8:	003e5a06 	br	1803214 <_dtoa_r+0x88c>
 18038ac:	d9400717 	ldw	r5,28(sp)
 18038b0:	d9801017 	ldw	r6,64(sp)
 18038b4:	d9001617 	ldw	r4,88(sp)
 18038b8:	18068d00 	call	18068d0 <__pow5mult>
 18038bc:	d8800715 	stw	r2,28(sp)
 18038c0:	003e4306 	br	18031d0 <_dtoa_r+0x848>
 18038c4:	d9800f17 	ldw	r6,60(sp)
 18038c8:	d8800d17 	ldw	r2,52(sp)
 18038cc:	d9800315 	stw	r6,12(sp)
 18038d0:	d8800415 	stw	r2,16(sp)
 18038d4:	d8c00b17 	ldw	r3,44(sp)
 18038d8:	1805003a 	cmpeq	r2,r3,zero
 18038dc:	1000e21e 	bne	r2,zero,1803c68 <_dtoa_r+0x12e0>
 18038e0:	d9000317 	ldw	r4,12(sp)
 18038e4:	0005883a 	mov	r2,zero
 18038e8:	00cff834 	movhi	r3,16352
 18038ec:	200c90fa 	slli	r6,r4,3
 18038f0:	01006074 	movhi	r4,385
 18038f4:	21025104 	addi	r4,r4,2372
 18038f8:	180b883a 	mov	r5,r3
 18038fc:	310d883a 	add	r6,r6,r4
 1803900:	327fff17 	ldw	r9,-4(r6)
 1803904:	323ffe17 	ldw	r8,-8(r6)
 1803908:	1009883a 	mov	r4,r2
 180390c:	480f883a 	mov	r7,r9
 1803910:	400d883a 	mov	r6,r8
 1803914:	1808cd40 	call	1808cd4 <__divdf3>
 1803918:	180b883a 	mov	r5,r3
 180391c:	b00d883a 	mov	r6,r22
 1803920:	b80f883a 	mov	r7,r23
 1803924:	1009883a 	mov	r4,r2
 1803928:	180881c0 	call	180881c <__subdf3>
 180392c:	a80b883a 	mov	r5,r21
 1803930:	a009883a 	mov	r4,r20
 1803934:	d8c01915 	stw	r3,100(sp)
 1803938:	d8801815 	stw	r2,96(sp)
 180393c:	18092cc0 	call	18092cc <__fixdfsi>
 1803940:	1009883a 	mov	r4,r2
 1803944:	1027883a 	mov	r19,r2
 1803948:	18091d40 	call	18091d4 <__floatsidf>
 180394c:	a80b883a 	mov	r5,r21
 1803950:	a009883a 	mov	r4,r20
 1803954:	180f883a 	mov	r7,r3
 1803958:	100d883a 	mov	r6,r2
 180395c:	180881c0 	call	180881c <__subdf3>
 1803960:	d9801817 	ldw	r6,96(sp)
 1803964:	1823883a 	mov	r17,r3
 1803968:	d8801415 	stw	r2,80(sp)
 180396c:	302d883a 	mov	r22,r6
 1803970:	d9800517 	ldw	r6,20(sp)
 1803974:	9cc00c04 	addi	r19,r19,48
 1803978:	dc401515 	stw	r17,84(sp)
 180397c:	d8c01917 	ldw	r3,100(sp)
 1803980:	34c00005 	stb	r19,0(r6)
 1803984:	d8800517 	ldw	r2,20(sp)
 1803988:	d9401917 	ldw	r5,100(sp)
 180398c:	d9801417 	ldw	r6,80(sp)
 1803990:	b009883a 	mov	r4,r22
 1803994:	880f883a 	mov	r7,r17
 1803998:	182f883a 	mov	r23,r3
 180399c:	17000044 	addi	fp,r2,1
 18039a0:	180903c0 	call	180903c <__gtdf2>
 18039a4:	00804e16 	blt	zero,r2,1803ae0 <_dtoa_r+0x1158>
 18039a8:	d9801417 	ldw	r6,80(sp)
 18039ac:	0005883a 	mov	r2,zero
 18039b0:	00cffc34 	movhi	r3,16368
 18039b4:	180b883a 	mov	r5,r3
 18039b8:	880f883a 	mov	r7,r17
 18039bc:	1009883a 	mov	r4,r2
 18039c0:	180881c0 	call	180881c <__subdf3>
 18039c4:	d9401917 	ldw	r5,100(sp)
 18039c8:	180f883a 	mov	r7,r3
 18039cc:	b009883a 	mov	r4,r22
 18039d0:	100d883a 	mov	r6,r2
 18039d4:	180903c0 	call	180903c <__gtdf2>
 18039d8:	00bda216 	blt	zero,r2,1803064 <_dtoa_r+0x6dc>
 18039dc:	d8c00317 	ldw	r3,12(sp)
 18039e0:	00800044 	movi	r2,1
 18039e4:	10c01216 	blt	r2,r3,1803a30 <_dtoa_r+0x10a8>
 18039e8:	003d4506 	br	1802f00 <_dtoa_r+0x578>
 18039ec:	d9801417 	ldw	r6,80(sp)
 18039f0:	0005883a 	mov	r2,zero
 18039f4:	00cffc34 	movhi	r3,16368
 18039f8:	180b883a 	mov	r5,r3
 18039fc:	880f883a 	mov	r7,r17
 1803a00:	1009883a 	mov	r4,r2
 1803a04:	180881c0 	call	180881c <__subdf3>
 1803a08:	d9c01b17 	ldw	r7,108(sp)
 1803a0c:	180b883a 	mov	r5,r3
 1803a10:	1009883a 	mov	r4,r2
 1803a14:	b00d883a 	mov	r6,r22
 1803a18:	180914c0 	call	180914c <__ltdf2>
 1803a1c:	103d9116 	blt	r2,zero,1803064 <_dtoa_r+0x6dc>
 1803a20:	d9800517 	ldw	r6,20(sp)
 1803a24:	d9000317 	ldw	r4,12(sp)
 1803a28:	3105883a 	add	r2,r6,r4
 1803a2c:	e0bd3426 	beq	fp,r2,1802f00 <_dtoa_r+0x578>
 1803a30:	04500934 	movhi	r17,16420
 1803a34:	0021883a 	mov	r16,zero
 1803a38:	b80b883a 	mov	r5,r23
 1803a3c:	b009883a 	mov	r4,r22
 1803a40:	800d883a 	mov	r6,r16
 1803a44:	880f883a 	mov	r7,r17
 1803a48:	18089100 	call	1808910 <__muldf3>
 1803a4c:	d9401517 	ldw	r5,84(sp)
 1803a50:	d9001417 	ldw	r4,80(sp)
 1803a54:	880f883a 	mov	r7,r17
 1803a58:	000d883a 	mov	r6,zero
 1803a5c:	d8801a15 	stw	r2,104(sp)
 1803a60:	d8c01b15 	stw	r3,108(sp)
 1803a64:	18089100 	call	1808910 <__muldf3>
 1803a68:	180b883a 	mov	r5,r3
 1803a6c:	1009883a 	mov	r4,r2
 1803a70:	1823883a 	mov	r17,r3
 1803a74:	1021883a 	mov	r16,r2
 1803a78:	18092cc0 	call	18092cc <__fixdfsi>
 1803a7c:	1009883a 	mov	r4,r2
 1803a80:	102b883a 	mov	r21,r2
 1803a84:	18091d40 	call	18091d4 <__floatsidf>
 1803a88:	880b883a 	mov	r5,r17
 1803a8c:	8009883a 	mov	r4,r16
 1803a90:	180f883a 	mov	r7,r3
 1803a94:	100d883a 	mov	r6,r2
 1803a98:	180881c0 	call	180881c <__subdf3>
 1803a9c:	1021883a 	mov	r16,r2
 1803aa0:	d9001b17 	ldw	r4,108(sp)
 1803aa4:	1823883a 	mov	r17,r3
 1803aa8:	dc001415 	stw	r16,80(sp)
 1803aac:	ad400c04 	addi	r21,r21,48
 1803ab0:	dc401515 	stw	r17,84(sp)
 1803ab4:	d8801a17 	ldw	r2,104(sp)
 1803ab8:	e5400005 	stb	r21,0(fp)
 1803abc:	202f883a 	mov	r23,r4
 1803ac0:	d9c01b17 	ldw	r7,108(sp)
 1803ac4:	d9001417 	ldw	r4,80(sp)
 1803ac8:	880b883a 	mov	r5,r17
 1803acc:	100d883a 	mov	r6,r2
 1803ad0:	102d883a 	mov	r22,r2
 1803ad4:	e7000044 	addi	fp,fp,1
 1803ad8:	180914c0 	call	180914c <__ltdf2>
 1803adc:	103fc30e 	bge	r2,zero,18039ec <_dtoa_r+0x1064>
 1803ae0:	d9000417 	ldw	r4,16(sp)
 1803ae4:	d9000d15 	stw	r4,52(sp)
 1803ae8:	003d7106 	br	18030b0 <_dtoa_r+0x728>
 1803aec:	d9801717 	ldw	r6,92(sp)
 1803af0:	00800084 	movi	r2,2
 1803af4:	11bde60e 	bge	r2,r6,1803290 <_dtoa_r+0x908>
 1803af8:	203cfb1e 	bne	r4,zero,1802ee8 <_dtoa_r+0x560>
 1803afc:	d9001617 	ldw	r4,88(sp)
 1803b00:	900b883a 	mov	r5,r18
 1803b04:	01800144 	movi	r6,5
 1803b08:	000f883a 	mov	r7,zero
 1803b0c:	18067d00 	call	18067d0 <__multadd>
 1803b10:	d9000717 	ldw	r4,28(sp)
 1803b14:	100b883a 	mov	r5,r2
 1803b18:	1025883a 	mov	r18,r2
 1803b1c:	1805c780 	call	1805c78 <__mcmp>
 1803b20:	00bcf10e 	bge	zero,r2,1802ee8 <_dtoa_r+0x560>
 1803b24:	d8c00d17 	ldw	r3,52(sp)
 1803b28:	d9000517 	ldw	r4,20(sp)
 1803b2c:	d8000615 	stw	zero,24(sp)
 1803b30:	18c00044 	addi	r3,r3,1
 1803b34:	d8c00d15 	stw	r3,52(sp)
 1803b38:	00800c44 	movi	r2,49
 1803b3c:	27000044 	addi	fp,r4,1
 1803b40:	20800005 	stb	r2,0(r4)
 1803b44:	003e8906 	br	180356c <_dtoa_r+0xbe4>
 1803b48:	d8c00517 	ldw	r3,20(sp)
 1803b4c:	003bc206 	br	1802a58 <_dtoa_r+0xd0>
 1803b50:	01806074 	movhi	r6,385
 1803b54:	31828304 	addi	r6,r6,2572
 1803b58:	30c00917 	ldw	r3,36(r6)
 1803b5c:	30800817 	ldw	r2,32(r6)
 1803b60:	d9001217 	ldw	r4,72(sp)
 1803b64:	d9401317 	ldw	r5,76(sp)
 1803b68:	180f883a 	mov	r7,r3
 1803b6c:	100d883a 	mov	r6,r2
 1803b70:	1808cd40 	call	1808cd4 <__divdf3>
 1803b74:	948003cc 	andi	r18,r18,15
 1803b78:	058000c4 	movi	r22,3
 1803b7c:	1029883a 	mov	r20,r2
 1803b80:	182b883a 	mov	r21,r3
 1803b84:	003c8906 	br	1802dac <_dtoa_r+0x424>
 1803b88:	d9001017 	ldw	r4,64(sp)
 1803b8c:	d9800917 	ldw	r6,36(sp)
 1803b90:	0025883a 	mov	r18,zero
 1803b94:	1105c83a 	sub	r2,r2,r4
 1803b98:	2089883a 	add	r4,r4,r2
 1803b9c:	308d883a 	add	r6,r6,r2
 1803ba0:	d9001015 	stw	r4,64(sp)
 1803ba4:	d9800915 	stw	r6,36(sp)
 1803ba8:	003e3206 	br	1803474 <_dtoa_r+0xaec>
 1803bac:	28800044 	addi	r2,r5,1
 1803bb0:	27000044 	addi	fp,r4,1
 1803bb4:	20800005 	stb	r2,0(r4)
 1803bb8:	003e6c06 	br	180356c <_dtoa_r+0xbe4>
 1803bbc:	d8800f17 	ldw	r2,60(sp)
 1803bc0:	00bce016 	blt	zero,r2,1802f44 <_dtoa_r+0x5bc>
 1803bc4:	d9800f17 	ldw	r6,60(sp)
 1803bc8:	303cc51e 	bne	r6,zero,1802ee0 <_dtoa_r+0x558>
 1803bcc:	0005883a 	mov	r2,zero
 1803bd0:	00d00534 	movhi	r3,16404
 1803bd4:	980b883a 	mov	r5,r19
 1803bd8:	180f883a 	mov	r7,r3
 1803bdc:	9009883a 	mov	r4,r18
 1803be0:	100d883a 	mov	r6,r2
 1803be4:	18089100 	call	1808910 <__muldf3>
 1803be8:	180b883a 	mov	r5,r3
 1803bec:	a80f883a 	mov	r7,r21
 1803bf0:	1009883a 	mov	r4,r2
 1803bf4:	a00d883a 	mov	r6,r20
 1803bf8:	18090c40 	call	18090c4 <__gedf2>
 1803bfc:	103cb80e 	bge	r2,zero,1802ee0 <_dtoa_r+0x558>
 1803c00:	0027883a 	mov	r19,zero
 1803c04:	0025883a 	mov	r18,zero
 1803c08:	003fc606 	br	1803b24 <_dtoa_r+0x119c>
 1803c0c:	99400117 	ldw	r5,4(r19)
 1803c10:	d9001617 	ldw	r4,88(sp)
 1803c14:	180609c0 	call	180609c <_Balloc>
 1803c18:	99800417 	ldw	r6,16(r19)
 1803c1c:	11000304 	addi	r4,r2,12
 1803c20:	99400304 	addi	r5,r19,12
 1803c24:	318d883a 	add	r6,r6,r6
 1803c28:	318d883a 	add	r6,r6,r6
 1803c2c:	31800204 	addi	r6,r6,8
 1803c30:	1023883a 	mov	r17,r2
 1803c34:	18059040 	call	1805904 <memcpy>
 1803c38:	d9001617 	ldw	r4,88(sp)
 1803c3c:	880b883a 	mov	r5,r17
 1803c40:	01800044 	movi	r6,1
 1803c44:	18064600 	call	1806460 <__lshift>
 1803c48:	100b883a 	mov	r5,r2
 1803c4c:	003d9c06 	br	18032c0 <_dtoa_r+0x938>
 1803c50:	00800e44 	movi	r2,57
 1803c54:	b8807026 	beq	r23,r2,1803e18 <_dtoa_r+0x1490>
 1803c58:	b8800044 	addi	r2,r23,1
 1803c5c:	b7000044 	addi	fp,r22,1
 1803c60:	b0800005 	stb	r2,0(r22)
 1803c64:	003e4106 	br	180356c <_dtoa_r+0xbe4>
 1803c68:	d8800317 	ldw	r2,12(sp)
 1803c6c:	01806074 	movhi	r6,385
 1803c70:	31825104 	addi	r6,r6,2372
 1803c74:	b009883a 	mov	r4,r22
 1803c78:	100e90fa 	slli	r7,r2,3
 1803c7c:	b80b883a 	mov	r5,r23
 1803c80:	398f883a 	add	r7,r7,r6
 1803c84:	38bffe17 	ldw	r2,-8(r7)
 1803c88:	d9800517 	ldw	r6,20(sp)
 1803c8c:	38ffff17 	ldw	r3,-4(r7)
 1803c90:	37000044 	addi	fp,r6,1
 1803c94:	180f883a 	mov	r7,r3
 1803c98:	100d883a 	mov	r6,r2
 1803c9c:	18089100 	call	1808910 <__muldf3>
 1803ca0:	a80b883a 	mov	r5,r21
 1803ca4:	a009883a 	mov	r4,r20
 1803ca8:	182f883a 	mov	r23,r3
 1803cac:	102d883a 	mov	r22,r2
 1803cb0:	18092cc0 	call	18092cc <__fixdfsi>
 1803cb4:	1009883a 	mov	r4,r2
 1803cb8:	1027883a 	mov	r19,r2
 1803cbc:	18091d40 	call	18091d4 <__floatsidf>
 1803cc0:	a80b883a 	mov	r5,r21
 1803cc4:	a009883a 	mov	r4,r20
 1803cc8:	180f883a 	mov	r7,r3
 1803ccc:	100d883a 	mov	r6,r2
 1803cd0:	180881c0 	call	180881c <__subdf3>
 1803cd4:	180b883a 	mov	r5,r3
 1803cd8:	d8c00517 	ldw	r3,20(sp)
 1803cdc:	9cc00c04 	addi	r19,r19,48
 1803ce0:	1009883a 	mov	r4,r2
 1803ce4:	1cc00005 	stb	r19,0(r3)
 1803ce8:	2021883a 	mov	r16,r4
 1803cec:	d9000317 	ldw	r4,12(sp)
 1803cf0:	00800044 	movi	r2,1
 1803cf4:	2823883a 	mov	r17,r5
 1803cf8:	20802226 	beq	r4,r2,1803d84 <_dtoa_r+0x13fc>
 1803cfc:	1029883a 	mov	r20,r2
 1803d00:	0005883a 	mov	r2,zero
 1803d04:	00d00934 	movhi	r3,16420
 1803d08:	180f883a 	mov	r7,r3
 1803d0c:	100d883a 	mov	r6,r2
 1803d10:	880b883a 	mov	r5,r17
 1803d14:	8009883a 	mov	r4,r16
 1803d18:	18089100 	call	1808910 <__muldf3>
 1803d1c:	180b883a 	mov	r5,r3
 1803d20:	1009883a 	mov	r4,r2
 1803d24:	1823883a 	mov	r17,r3
 1803d28:	1021883a 	mov	r16,r2
 1803d2c:	18092cc0 	call	18092cc <__fixdfsi>
 1803d30:	1009883a 	mov	r4,r2
 1803d34:	102b883a 	mov	r21,r2
 1803d38:	18091d40 	call	18091d4 <__floatsidf>
 1803d3c:	880b883a 	mov	r5,r17
 1803d40:	8009883a 	mov	r4,r16
 1803d44:	180f883a 	mov	r7,r3
 1803d48:	100d883a 	mov	r6,r2
 1803d4c:	180881c0 	call	180881c <__subdf3>
 1803d50:	180b883a 	mov	r5,r3
 1803d54:	d8c00517 	ldw	r3,20(sp)
 1803d58:	1009883a 	mov	r4,r2
 1803d5c:	ad400c04 	addi	r21,r21,48
 1803d60:	1d05883a 	add	r2,r3,r20
 1803d64:	15400005 	stb	r21,0(r2)
 1803d68:	2021883a 	mov	r16,r4
 1803d6c:	d9000317 	ldw	r4,12(sp)
 1803d70:	a5000044 	addi	r20,r20,1
 1803d74:	2823883a 	mov	r17,r5
 1803d78:	a13fe11e 	bne	r20,r4,1803d00 <_dtoa_r+0x1378>
 1803d7c:	e505883a 	add	r2,fp,r20
 1803d80:	173fffc4 	addi	fp,r2,-1
 1803d84:	0025883a 	mov	r18,zero
 1803d88:	04cff834 	movhi	r19,16352
 1803d8c:	b009883a 	mov	r4,r22
 1803d90:	b80b883a 	mov	r5,r23
 1803d94:	900d883a 	mov	r6,r18
 1803d98:	980f883a 	mov	r7,r19
 1803d9c:	180889c0 	call	180889c <__adddf3>
 1803da0:	180b883a 	mov	r5,r3
 1803da4:	1009883a 	mov	r4,r2
 1803da8:	800d883a 	mov	r6,r16
 1803dac:	880f883a 	mov	r7,r17
 1803db0:	180914c0 	call	180914c <__ltdf2>
 1803db4:	103cab16 	blt	r2,zero,1803064 <_dtoa_r+0x6dc>
 1803db8:	0009883a 	mov	r4,zero
 1803dbc:	980b883a 	mov	r5,r19
 1803dc0:	b80f883a 	mov	r7,r23
 1803dc4:	b00d883a 	mov	r6,r22
 1803dc8:	180881c0 	call	180881c <__subdf3>
 1803dcc:	180b883a 	mov	r5,r3
 1803dd0:	880f883a 	mov	r7,r17
 1803dd4:	1009883a 	mov	r4,r2
 1803dd8:	800d883a 	mov	r6,r16
 1803ddc:	180903c0 	call	180903c <__gtdf2>
 1803de0:	00bc470e 	bge	zero,r2,1802f00 <_dtoa_r+0x578>
 1803de4:	00c00c04 	movi	r3,48
 1803de8:	e73fffc4 	addi	fp,fp,-1
 1803dec:	e0800007 	ldb	r2,0(fp)
 1803df0:	10fffd26 	beq	r2,r3,1803de8 <_dtoa_r+0x1460>
 1803df4:	d9800417 	ldw	r6,16(sp)
 1803df8:	e7000044 	addi	fp,fp,1
 1803dfc:	d9800d15 	stw	r6,52(sp)
 1803e00:	003cab06 	br	18030b0 <_dtoa_r+0x728>
 1803e04:	d8c00f17 	ldw	r3,60(sp)
 1803e08:	d9001117 	ldw	r4,68(sp)
 1803e0c:	20e1c83a 	sub	r16,r4,r3
 1803e10:	0007883a 	mov	r3,zero
 1803e14:	003d9b06 	br	1803484 <_dtoa_r+0xafc>
 1803e18:	00800e44 	movi	r2,57
 1803e1c:	b0800005 	stb	r2,0(r22)
 1803e20:	b5800044 	addi	r22,r22,1
 1803e24:	003dc106 	br	180352c <_dtoa_r+0xba4>
 1803e28:	05800084 	movi	r22,2
 1803e2c:	003bf706 	br	1802e0c <_dtoa_r+0x484>
 1803e30:	d9000f17 	ldw	r4,60(sp)
 1803e34:	013c000e 	bge	zero,r4,1802e38 <_dtoa_r+0x4b0>
 1803e38:	d9800e17 	ldw	r6,56(sp)
 1803e3c:	01bc300e 	bge	zero,r6,1802f00 <_dtoa_r+0x578>
 1803e40:	0005883a 	mov	r2,zero
 1803e44:	00d00934 	movhi	r3,16420
 1803e48:	a80b883a 	mov	r5,r21
 1803e4c:	180f883a 	mov	r7,r3
 1803e50:	a009883a 	mov	r4,r20
 1803e54:	100d883a 	mov	r6,r2
 1803e58:	18089100 	call	1808910 <__muldf3>
 1803e5c:	b1000044 	addi	r4,r22,1
 1803e60:	1021883a 	mov	r16,r2
 1803e64:	1823883a 	mov	r17,r3
 1803e68:	18091d40 	call	18091d4 <__floatsidf>
 1803e6c:	880b883a 	mov	r5,r17
 1803e70:	8009883a 	mov	r4,r16
 1803e74:	180f883a 	mov	r7,r3
 1803e78:	100d883a 	mov	r6,r2
 1803e7c:	18089100 	call	1808910 <__muldf3>
 1803e80:	0011883a 	mov	r8,zero
 1803e84:	02500734 	movhi	r9,16412
 1803e88:	180b883a 	mov	r5,r3
 1803e8c:	480f883a 	mov	r7,r9
 1803e90:	1009883a 	mov	r4,r2
 1803e94:	400d883a 	mov	r6,r8
 1803e98:	180889c0 	call	180889c <__adddf3>
 1803e9c:	102d883a 	mov	r22,r2
 1803ea0:	00bf3034 	movhi	r2,64704
 1803ea4:	10ef883a 	add	r23,r2,r3
 1803ea8:	d8800d17 	ldw	r2,52(sp)
 1803eac:	d8c00e17 	ldw	r3,56(sp)
 1803eb0:	8029883a 	mov	r20,r16
 1803eb4:	10bfffc4 	addi	r2,r2,-1
 1803eb8:	882b883a 	mov	r21,r17
 1803ebc:	d8800415 	stw	r2,16(sp)
 1803ec0:	d8c00315 	stw	r3,12(sp)
 1803ec4:	003e8306 	br	18038d4 <_dtoa_r+0xf4c>
 1803ec8:	d8800117 	ldw	r2,4(sp)
 1803ecc:	dc001117 	ldw	r16,68(sp)
 1803ed0:	dc801017 	ldw	r18,64(sp)
 1803ed4:	00c00d84 	movi	r3,54
 1803ed8:	1887c83a 	sub	r3,r3,r2
 1803edc:	003d6906 	br	1803484 <_dtoa_r+0xafc>
 1803ee0:	01800044 	movi	r6,1
 1803ee4:	3021883a 	mov	r16,r6
 1803ee8:	d9800f15 	stw	r6,60(sp)
 1803eec:	d9802615 	stw	r6,152(sp)
 1803ef0:	d9800e15 	stw	r6,56(sp)
 1803ef4:	003b9306 	br	1802d44 <_dtoa_r+0x3bc>
 1803ef8:	b021883a 	mov	r16,r22
 1803efc:	dd800f15 	stw	r22,60(sp)
 1803f00:	003b9006 	br	1802d44 <_dtoa_r+0x3bc>
 1803f04:	103e221e 	bne	r2,zero,1803790 <_dtoa_r+0xe08>
 1803f08:	b880004c 	andi	r2,r23,1
 1803f0c:	1005003a 	cmpeq	r2,r2,zero
 1803f10:	103e1f1e 	bne	r2,zero,1803790 <_dtoa_r+0xe08>
 1803f14:	003e1b06 	br	1803784 <_dtoa_r+0xdfc>
 1803f18:	d9001617 	ldw	r4,88(sp)
 1803f1c:	980b883a 	mov	r5,r19
 1803f20:	01800284 	movi	r6,10
 1803f24:	000f883a 	mov	r7,zero
 1803f28:	18067d00 	call	18067d0 <__multadd>
 1803f2c:	d8c00e17 	ldw	r3,56(sp)
 1803f30:	1027883a 	mov	r19,r2
 1803f34:	d8c00f15 	stw	r3,60(sp)
 1803f38:	003cd306 	br	1803288 <_dtoa_r+0x900>

01803f3c <_fflush_r>:
 1803f3c:	defffb04 	addi	sp,sp,-20
 1803f40:	dcc00315 	stw	r19,12(sp)
 1803f44:	dc800215 	stw	r18,8(sp)
 1803f48:	dfc00415 	stw	ra,16(sp)
 1803f4c:	dc400115 	stw	r17,4(sp)
 1803f50:	dc000015 	stw	r16,0(sp)
 1803f54:	2027883a 	mov	r19,r4
 1803f58:	2825883a 	mov	r18,r5
 1803f5c:	20000226 	beq	r4,zero,1803f68 <_fflush_r+0x2c>
 1803f60:	20800e17 	ldw	r2,56(r4)
 1803f64:	10005626 	beq	r2,zero,18040c0 <_fflush_r+0x184>
 1803f68:	9100030b 	ldhu	r4,12(r18)
 1803f6c:	20ffffcc 	andi	r3,r4,65535
 1803f70:	18e0001c 	xori	r3,r3,32768
 1803f74:	18e00004 	addi	r3,r3,-32768
 1803f78:	1880020c 	andi	r2,r3,8
 1803f7c:	1000261e 	bne	r2,zero,1804018 <_fflush_r+0xdc>
 1803f80:	90c00117 	ldw	r3,4(r18)
 1803f84:	20820014 	ori	r2,r4,2048
 1803f88:	9080030d 	sth	r2,12(r18)
 1803f8c:	1009883a 	mov	r4,r2
 1803f90:	00c0400e 	bge	zero,r3,1804094 <_fflush_r+0x158>
 1803f94:	92000a17 	ldw	r8,40(r18)
 1803f98:	40004026 	beq	r8,zero,180409c <_fflush_r+0x160>
 1803f9c:	2084000c 	andi	r2,r4,4096
 1803fa0:	10005326 	beq	r2,zero,18040f0 <_fflush_r+0x1b4>
 1803fa4:	94001417 	ldw	r16,80(r18)
 1803fa8:	9080030b 	ldhu	r2,12(r18)
 1803fac:	1080010c 	andi	r2,r2,4
 1803fb0:	1000481e 	bne	r2,zero,18040d4 <_fflush_r+0x198>
 1803fb4:	91400717 	ldw	r5,28(r18)
 1803fb8:	9809883a 	mov	r4,r19
 1803fbc:	800d883a 	mov	r6,r16
 1803fc0:	000f883a 	mov	r7,zero
 1803fc4:	403ee83a 	callr	r8
 1803fc8:	8080261e 	bne	r16,r2,1804064 <_fflush_r+0x128>
 1803fcc:	9080030b 	ldhu	r2,12(r18)
 1803fd0:	91000417 	ldw	r4,16(r18)
 1803fd4:	90000115 	stw	zero,4(r18)
 1803fd8:	10bdffcc 	andi	r2,r2,63487
 1803fdc:	10ffffcc 	andi	r3,r2,65535
 1803fe0:	18c4000c 	andi	r3,r3,4096
 1803fe4:	9080030d 	sth	r2,12(r18)
 1803fe8:	91000015 	stw	r4,0(r18)
 1803fec:	18002b26 	beq	r3,zero,180409c <_fflush_r+0x160>
 1803ff0:	0007883a 	mov	r3,zero
 1803ff4:	1805883a 	mov	r2,r3
 1803ff8:	94001415 	stw	r16,80(r18)
 1803ffc:	dfc00417 	ldw	ra,16(sp)
 1804000:	dcc00317 	ldw	r19,12(sp)
 1804004:	dc800217 	ldw	r18,8(sp)
 1804008:	dc400117 	ldw	r17,4(sp)
 180400c:	dc000017 	ldw	r16,0(sp)
 1804010:	dec00504 	addi	sp,sp,20
 1804014:	f800283a 	ret
 1804018:	94400417 	ldw	r17,16(r18)
 180401c:	88001f26 	beq	r17,zero,180409c <_fflush_r+0x160>
 1804020:	90800017 	ldw	r2,0(r18)
 1804024:	18c000cc 	andi	r3,r3,3
 1804028:	94400015 	stw	r17,0(r18)
 180402c:	1461c83a 	sub	r16,r2,r17
 1804030:	18002526 	beq	r3,zero,18040c8 <_fflush_r+0x18c>
 1804034:	0005883a 	mov	r2,zero
 1804038:	90800215 	stw	r2,8(r18)
 180403c:	0400170e 	bge	zero,r16,180409c <_fflush_r+0x160>
 1804040:	90c00917 	ldw	r3,36(r18)
 1804044:	91400717 	ldw	r5,28(r18)
 1804048:	880d883a 	mov	r6,r17
 180404c:	800f883a 	mov	r7,r16
 1804050:	9809883a 	mov	r4,r19
 1804054:	183ee83a 	callr	r3
 1804058:	88a3883a 	add	r17,r17,r2
 180405c:	80a1c83a 	sub	r16,r16,r2
 1804060:	00bff616 	blt	zero,r2,180403c <_fflush_r+0x100>
 1804064:	9080030b 	ldhu	r2,12(r18)
 1804068:	00ffffc4 	movi	r3,-1
 180406c:	10801014 	ori	r2,r2,64
 1804070:	9080030d 	sth	r2,12(r18)
 1804074:	1805883a 	mov	r2,r3
 1804078:	dfc00417 	ldw	ra,16(sp)
 180407c:	dcc00317 	ldw	r19,12(sp)
 1804080:	dc800217 	ldw	r18,8(sp)
 1804084:	dc400117 	ldw	r17,4(sp)
 1804088:	dc000017 	ldw	r16,0(sp)
 180408c:	dec00504 	addi	sp,sp,20
 1804090:	f800283a 	ret
 1804094:	90800f17 	ldw	r2,60(r18)
 1804098:	00bfbe16 	blt	zero,r2,1803f94 <_fflush_r+0x58>
 180409c:	0007883a 	mov	r3,zero
 18040a0:	1805883a 	mov	r2,r3
 18040a4:	dfc00417 	ldw	ra,16(sp)
 18040a8:	dcc00317 	ldw	r19,12(sp)
 18040ac:	dc800217 	ldw	r18,8(sp)
 18040b0:	dc400117 	ldw	r17,4(sp)
 18040b4:	dc000017 	ldw	r16,0(sp)
 18040b8:	dec00504 	addi	sp,sp,20
 18040bc:	f800283a 	ret
 18040c0:	18041d40 	call	18041d4 <__sinit>
 18040c4:	003fa806 	br	1803f68 <_fflush_r+0x2c>
 18040c8:	90800517 	ldw	r2,20(r18)
 18040cc:	90800215 	stw	r2,8(r18)
 18040d0:	003fda06 	br	180403c <_fflush_r+0x100>
 18040d4:	90800117 	ldw	r2,4(r18)
 18040d8:	90c00c17 	ldw	r3,48(r18)
 18040dc:	80a1c83a 	sub	r16,r16,r2
 18040e0:	183fb426 	beq	r3,zero,1803fb4 <_fflush_r+0x78>
 18040e4:	90800f17 	ldw	r2,60(r18)
 18040e8:	80a1c83a 	sub	r16,r16,r2
 18040ec:	003fb106 	br	1803fb4 <_fflush_r+0x78>
 18040f0:	91400717 	ldw	r5,28(r18)
 18040f4:	9809883a 	mov	r4,r19
 18040f8:	000d883a 	mov	r6,zero
 18040fc:	01c00044 	movi	r7,1
 1804100:	403ee83a 	callr	r8
 1804104:	1021883a 	mov	r16,r2
 1804108:	00bfffc4 	movi	r2,-1
 180410c:	80800226 	beq	r16,r2,1804118 <_fflush_r+0x1dc>
 1804110:	92000a17 	ldw	r8,40(r18)
 1804114:	003fa406 	br	1803fa8 <_fflush_r+0x6c>
 1804118:	98c00017 	ldw	r3,0(r19)
 180411c:	00800744 	movi	r2,29
 1804120:	18bfde26 	beq	r3,r2,180409c <_fflush_r+0x160>
 1804124:	9080030b 	ldhu	r2,12(r18)
 1804128:	8007883a 	mov	r3,r16
 180412c:	10801014 	ori	r2,r2,64
 1804130:	9080030d 	sth	r2,12(r18)
 1804134:	003fcf06 	br	1804074 <_fflush_r+0x138>

01804138 <fflush>:
 1804138:	01406034 	movhi	r5,384
 180413c:	294fcf04 	addi	r5,r5,16188
 1804140:	2007883a 	mov	r3,r4
 1804144:	20000526 	beq	r4,zero,180415c <fflush+0x24>
 1804148:	00806074 	movhi	r2,385
 180414c:	108acb04 	addi	r2,r2,11052
 1804150:	11000017 	ldw	r4,0(r2)
 1804154:	180b883a 	mov	r5,r3
 1804158:	1803f3c1 	jmpi	1803f3c <_fflush_r>
 180415c:	00806074 	movhi	r2,385
 1804160:	108acc04 	addi	r2,r2,11056
 1804164:	11000017 	ldw	r4,0(r2)
 1804168:	1804d081 	jmpi	1804d08 <_fwalk_reent>

0180416c <std>:
 180416c:	00806034 	movhi	r2,384
 1804170:	109c7904 	addi	r2,r2,29156
 1804174:	20800b15 	stw	r2,44(r4)
 1804178:	00806034 	movhi	r2,384
 180417c:	109cb404 	addi	r2,r2,29392
 1804180:	20800815 	stw	r2,32(r4)
 1804184:	00c06034 	movhi	r3,384
 1804188:	18dc9504 	addi	r3,r3,29268
 180418c:	00806034 	movhi	r2,384
 1804190:	109c7b04 	addi	r2,r2,29164
 1804194:	2140030d 	sth	r5,12(r4)
 1804198:	2180038d 	sth	r6,14(r4)
 180419c:	20c00915 	stw	r3,36(r4)
 18041a0:	20800a15 	stw	r2,40(r4)
 18041a4:	20000015 	stw	zero,0(r4)
 18041a8:	20000115 	stw	zero,4(r4)
 18041ac:	20000215 	stw	zero,8(r4)
 18041b0:	20000415 	stw	zero,16(r4)
 18041b4:	20000515 	stw	zero,20(r4)
 18041b8:	20000615 	stw	zero,24(r4)
 18041bc:	21000715 	stw	r4,28(r4)
 18041c0:	f800283a 	ret

018041c4 <__sfp_lock_acquire>:
 18041c4:	f800283a 	ret

018041c8 <__sfp_lock_release>:
 18041c8:	f800283a 	ret

018041cc <__sinit_lock_acquire>:
 18041cc:	f800283a 	ret

018041d0 <__sinit_lock_release>:
 18041d0:	f800283a 	ret

018041d4 <__sinit>:
 18041d4:	20800e17 	ldw	r2,56(r4)
 18041d8:	defffd04 	addi	sp,sp,-12
 18041dc:	dc400115 	stw	r17,4(sp)
 18041e0:	dc000015 	stw	r16,0(sp)
 18041e4:	dfc00215 	stw	ra,8(sp)
 18041e8:	04400044 	movi	r17,1
 18041ec:	01400104 	movi	r5,4
 18041f0:	000d883a 	mov	r6,zero
 18041f4:	2021883a 	mov	r16,r4
 18041f8:	2200bb04 	addi	r8,r4,748
 18041fc:	200f883a 	mov	r7,r4
 1804200:	10000526 	beq	r2,zero,1804218 <__sinit+0x44>
 1804204:	dfc00217 	ldw	ra,8(sp)
 1804208:	dc400117 	ldw	r17,4(sp)
 180420c:	dc000017 	ldw	r16,0(sp)
 1804210:	dec00304 	addi	sp,sp,12
 1804214:	f800283a 	ret
 1804218:	21000117 	ldw	r4,4(r4)
 180421c:	00806034 	movhi	r2,384
 1804220:	1090ae04 	addi	r2,r2,17080
 1804224:	00c000c4 	movi	r3,3
 1804228:	80800f15 	stw	r2,60(r16)
 180422c:	80c0b915 	stw	r3,740(r16)
 1804230:	8200ba15 	stw	r8,744(r16)
 1804234:	84400e15 	stw	r17,56(r16)
 1804238:	8000b815 	stw	zero,736(r16)
 180423c:	180416c0 	call	180416c <std>
 1804240:	81000217 	ldw	r4,8(r16)
 1804244:	880d883a 	mov	r6,r17
 1804248:	800f883a 	mov	r7,r16
 180424c:	01400284 	movi	r5,10
 1804250:	180416c0 	call	180416c <std>
 1804254:	81000317 	ldw	r4,12(r16)
 1804258:	800f883a 	mov	r7,r16
 180425c:	01400484 	movi	r5,18
 1804260:	01800084 	movi	r6,2
 1804264:	dfc00217 	ldw	ra,8(sp)
 1804268:	dc400117 	ldw	r17,4(sp)
 180426c:	dc000017 	ldw	r16,0(sp)
 1804270:	dec00304 	addi	sp,sp,12
 1804274:	180416c1 	jmpi	180416c <std>

01804278 <__fp_lock>:
 1804278:	0005883a 	mov	r2,zero
 180427c:	f800283a 	ret

01804280 <__fp_unlock>:
 1804280:	0005883a 	mov	r2,zero
 1804284:	f800283a 	ret

01804288 <__fp_unlock_all>:
 1804288:	00806074 	movhi	r2,385
 180428c:	108acb04 	addi	r2,r2,11052
 1804290:	11000017 	ldw	r4,0(r2)
 1804294:	01406034 	movhi	r5,384
 1804298:	2950a004 	addi	r5,r5,17024
 180429c:	1804dd01 	jmpi	1804dd0 <_fwalk>

018042a0 <__fp_lock_all>:
 18042a0:	00806074 	movhi	r2,385
 18042a4:	108acb04 	addi	r2,r2,11052
 18042a8:	11000017 	ldw	r4,0(r2)
 18042ac:	01406034 	movhi	r5,384
 18042b0:	29509e04 	addi	r5,r5,17016
 18042b4:	1804dd01 	jmpi	1804dd0 <_fwalk>

018042b8 <_cleanup_r>:
 18042b8:	01406034 	movhi	r5,384
 18042bc:	295da604 	addi	r5,r5,30360
 18042c0:	1804dd01 	jmpi	1804dd0 <_fwalk>

018042c4 <_cleanup>:
 18042c4:	00806074 	movhi	r2,385
 18042c8:	108acc04 	addi	r2,r2,11056
 18042cc:	11000017 	ldw	r4,0(r2)
 18042d0:	18042b81 	jmpi	18042b8 <_cleanup_r>

018042d4 <__sfmoreglue>:
 18042d4:	defffc04 	addi	sp,sp,-16
 18042d8:	dc400115 	stw	r17,4(sp)
 18042dc:	2c401724 	muli	r17,r5,92
 18042e0:	dc800215 	stw	r18,8(sp)
 18042e4:	2825883a 	mov	r18,r5
 18042e8:	89400304 	addi	r5,r17,12
 18042ec:	dc000015 	stw	r16,0(sp)
 18042f0:	dfc00315 	stw	ra,12(sp)
 18042f4:	18050e00 	call	18050e0 <_malloc_r>
 18042f8:	0021883a 	mov	r16,zero
 18042fc:	880d883a 	mov	r6,r17
 1804300:	000b883a 	mov	r5,zero
 1804304:	10000626 	beq	r2,zero,1804320 <__sfmoreglue+0x4c>
 1804308:	11000304 	addi	r4,r2,12
 180430c:	14800115 	stw	r18,4(r2)
 1804310:	10000015 	stw	zero,0(r2)
 1804314:	11000215 	stw	r4,8(r2)
 1804318:	1021883a 	mov	r16,r2
 180431c:	1805a840 	call	1805a84 <memset>
 1804320:	8005883a 	mov	r2,r16
 1804324:	dfc00317 	ldw	ra,12(sp)
 1804328:	dc800217 	ldw	r18,8(sp)
 180432c:	dc400117 	ldw	r17,4(sp)
 1804330:	dc000017 	ldw	r16,0(sp)
 1804334:	dec00404 	addi	sp,sp,16
 1804338:	f800283a 	ret

0180433c <__sfp>:
 180433c:	defffd04 	addi	sp,sp,-12
 1804340:	00806074 	movhi	r2,385
 1804344:	108acc04 	addi	r2,r2,11056
 1804348:	dc000015 	stw	r16,0(sp)
 180434c:	14000017 	ldw	r16,0(r2)
 1804350:	dc400115 	stw	r17,4(sp)
 1804354:	dfc00215 	stw	ra,8(sp)
 1804358:	80800e17 	ldw	r2,56(r16)
 180435c:	2023883a 	mov	r17,r4
 1804360:	10002626 	beq	r2,zero,18043fc <__sfp+0xc0>
 1804364:	8400b804 	addi	r16,r16,736
 1804368:	80800117 	ldw	r2,4(r16)
 180436c:	81000217 	ldw	r4,8(r16)
 1804370:	10ffffc4 	addi	r3,r2,-1
 1804374:	18000916 	blt	r3,zero,180439c <__sfp+0x60>
 1804378:	2080030f 	ldh	r2,12(r4)
 180437c:	10000b26 	beq	r2,zero,18043ac <__sfp+0x70>
 1804380:	017fffc4 	movi	r5,-1
 1804384:	00000206 	br	1804390 <__sfp+0x54>
 1804388:	2080030f 	ldh	r2,12(r4)
 180438c:	10000726 	beq	r2,zero,18043ac <__sfp+0x70>
 1804390:	18ffffc4 	addi	r3,r3,-1
 1804394:	21001704 	addi	r4,r4,92
 1804398:	197ffb1e 	bne	r3,r5,1804388 <__sfp+0x4c>
 180439c:	80800017 	ldw	r2,0(r16)
 18043a0:	10001926 	beq	r2,zero,1804408 <__sfp+0xcc>
 18043a4:	1021883a 	mov	r16,r2
 18043a8:	003fef06 	br	1804368 <__sfp+0x2c>
 18043ac:	00bfffc4 	movi	r2,-1
 18043b0:	00c00044 	movi	r3,1
 18043b4:	2080038d 	sth	r2,14(r4)
 18043b8:	20c0030d 	sth	r3,12(r4)
 18043bc:	20000015 	stw	zero,0(r4)
 18043c0:	20000215 	stw	zero,8(r4)
 18043c4:	20000115 	stw	zero,4(r4)
 18043c8:	20000415 	stw	zero,16(r4)
 18043cc:	20000515 	stw	zero,20(r4)
 18043d0:	20000615 	stw	zero,24(r4)
 18043d4:	20000c15 	stw	zero,48(r4)
 18043d8:	20000d15 	stw	zero,52(r4)
 18043dc:	20001115 	stw	zero,68(r4)
 18043e0:	20001215 	stw	zero,72(r4)
 18043e4:	2005883a 	mov	r2,r4
 18043e8:	dfc00217 	ldw	ra,8(sp)
 18043ec:	dc400117 	ldw	r17,4(sp)
 18043f0:	dc000017 	ldw	r16,0(sp)
 18043f4:	dec00304 	addi	sp,sp,12
 18043f8:	f800283a 	ret
 18043fc:	8009883a 	mov	r4,r16
 1804400:	18041d40 	call	18041d4 <__sinit>
 1804404:	003fd706 	br	1804364 <__sfp+0x28>
 1804408:	8809883a 	mov	r4,r17
 180440c:	01400104 	movi	r5,4
 1804410:	18042d40 	call	18042d4 <__sfmoreglue>
 1804414:	80800015 	stw	r2,0(r16)
 1804418:	103fe21e 	bne	r2,zero,18043a4 <__sfp+0x68>
 180441c:	00800304 	movi	r2,12
 1804420:	0009883a 	mov	r4,zero
 1804424:	88800015 	stw	r2,0(r17)
 1804428:	003fee06 	br	18043e4 <__sfp+0xa8>

0180442c <_malloc_trim_r>:
 180442c:	defffb04 	addi	sp,sp,-20
 1804430:	dcc00315 	stw	r19,12(sp)
 1804434:	04c06074 	movhi	r19,385
 1804438:	9cc49804 	addi	r19,r19,4704
 180443c:	dc800215 	stw	r18,8(sp)
 1804440:	dc400115 	stw	r17,4(sp)
 1804444:	dc000015 	stw	r16,0(sp)
 1804448:	2823883a 	mov	r17,r5
 180444c:	2025883a 	mov	r18,r4
 1804450:	dfc00415 	stw	ra,16(sp)
 1804454:	180a2480 	call	180a248 <__malloc_lock>
 1804458:	98800217 	ldw	r2,8(r19)
 180445c:	9009883a 	mov	r4,r18
 1804460:	000b883a 	mov	r5,zero
 1804464:	10c00117 	ldw	r3,4(r2)
 1804468:	00bfff04 	movi	r2,-4
 180446c:	18a0703a 	and	r16,r3,r2
 1804470:	8463c83a 	sub	r17,r16,r17
 1804474:	8c43fbc4 	addi	r17,r17,4079
 1804478:	8822d33a 	srli	r17,r17,12
 180447c:	0083ffc4 	movi	r2,4095
 1804480:	8c7fffc4 	addi	r17,r17,-1
 1804484:	8822933a 	slli	r17,r17,12
 1804488:	1440060e 	bge	r2,r17,18044a4 <_malloc_trim_r+0x78>
 180448c:	18071740 	call	1807174 <_sbrk_r>
 1804490:	98c00217 	ldw	r3,8(r19)
 1804494:	9009883a 	mov	r4,r18
 1804498:	044bc83a 	sub	r5,zero,r17
 180449c:	80c7883a 	add	r3,r16,r3
 18044a0:	10c00926 	beq	r2,r3,18044c8 <_malloc_trim_r+0x9c>
 18044a4:	180a2680 	call	180a268 <__malloc_unlock>
 18044a8:	0005883a 	mov	r2,zero
 18044ac:	dfc00417 	ldw	ra,16(sp)
 18044b0:	dcc00317 	ldw	r19,12(sp)
 18044b4:	dc800217 	ldw	r18,8(sp)
 18044b8:	dc400117 	ldw	r17,4(sp)
 18044bc:	dc000017 	ldw	r16,0(sp)
 18044c0:	dec00504 	addi	sp,sp,20
 18044c4:	f800283a 	ret
 18044c8:	9009883a 	mov	r4,r18
 18044cc:	18071740 	call	1807174 <_sbrk_r>
 18044d0:	844dc83a 	sub	r6,r16,r17
 18044d4:	00ffffc4 	movi	r3,-1
 18044d8:	9009883a 	mov	r4,r18
 18044dc:	000b883a 	mov	r5,zero
 18044e0:	01c06074 	movhi	r7,385
 18044e4:	39caed04 	addi	r7,r7,11188
 18044e8:	31800054 	ori	r6,r6,1
 18044ec:	10c00926 	beq	r2,r3,1804514 <_malloc_trim_r+0xe8>
 18044f0:	38800017 	ldw	r2,0(r7)
 18044f4:	98c00217 	ldw	r3,8(r19)
 18044f8:	9009883a 	mov	r4,r18
 18044fc:	1445c83a 	sub	r2,r2,r17
 1804500:	38800015 	stw	r2,0(r7)
 1804504:	19800115 	stw	r6,4(r3)
 1804508:	180a2680 	call	180a268 <__malloc_unlock>
 180450c:	00800044 	movi	r2,1
 1804510:	003fe606 	br	18044ac <_malloc_trim_r+0x80>
 1804514:	18071740 	call	1807174 <_sbrk_r>
 1804518:	99800217 	ldw	r6,8(r19)
 180451c:	100f883a 	mov	r7,r2
 1804520:	9009883a 	mov	r4,r18
 1804524:	1187c83a 	sub	r3,r2,r6
 1804528:	008003c4 	movi	r2,15
 180452c:	19400054 	ori	r5,r3,1
 1804530:	10ffdc0e 	bge	r2,r3,18044a4 <_malloc_trim_r+0x78>
 1804534:	00806074 	movhi	r2,385
 1804538:	108ad004 	addi	r2,r2,11072
 180453c:	10c00017 	ldw	r3,0(r2)
 1804540:	00806074 	movhi	r2,385
 1804544:	108aed04 	addi	r2,r2,11188
 1804548:	31400115 	stw	r5,4(r6)
 180454c:	38c7c83a 	sub	r3,r7,r3
 1804550:	10c00015 	stw	r3,0(r2)
 1804554:	003fd306 	br	18044a4 <_malloc_trim_r+0x78>

01804558 <_free_r>:
 1804558:	defffd04 	addi	sp,sp,-12
 180455c:	dc400115 	stw	r17,4(sp)
 1804560:	dc000015 	stw	r16,0(sp)
 1804564:	dfc00215 	stw	ra,8(sp)
 1804568:	2821883a 	mov	r16,r5
 180456c:	2023883a 	mov	r17,r4
 1804570:	28005a26 	beq	r5,zero,18046dc <_free_r+0x184>
 1804574:	180a2480 	call	180a248 <__malloc_lock>
 1804578:	823ffe04 	addi	r8,r16,-8
 180457c:	41400117 	ldw	r5,4(r8)
 1804580:	00bfff84 	movi	r2,-2
 1804584:	02806074 	movhi	r10,385
 1804588:	52849804 	addi	r10,r10,4704
 180458c:	288e703a 	and	r7,r5,r2
 1804590:	41cd883a 	add	r6,r8,r7
 1804594:	30c00117 	ldw	r3,4(r6)
 1804598:	51000217 	ldw	r4,8(r10)
 180459c:	00bfff04 	movi	r2,-4
 18045a0:	1892703a 	and	r9,r3,r2
 18045a4:	5017883a 	mov	r11,r10
 18045a8:	31006726 	beq	r6,r4,1804748 <_free_r+0x1f0>
 18045ac:	2880004c 	andi	r2,r5,1
 18045b0:	1005003a 	cmpeq	r2,r2,zero
 18045b4:	32400115 	stw	r9,4(r6)
 18045b8:	10001a1e 	bne	r2,zero,1804624 <_free_r+0xcc>
 18045bc:	000b883a 	mov	r5,zero
 18045c0:	3247883a 	add	r3,r6,r9
 18045c4:	18800117 	ldw	r2,4(r3)
 18045c8:	1080004c 	andi	r2,r2,1
 18045cc:	1000231e 	bne	r2,zero,180465c <_free_r+0x104>
 18045d0:	280ac03a 	cmpne	r5,r5,zero
 18045d4:	3a4f883a 	add	r7,r7,r9
 18045d8:	2800451e 	bne	r5,zero,18046f0 <_free_r+0x198>
 18045dc:	31000217 	ldw	r4,8(r6)
 18045e0:	00806074 	movhi	r2,385
 18045e4:	10849a04 	addi	r2,r2,4712
 18045e8:	20807b26 	beq	r4,r2,18047d8 <_free_r+0x280>
 18045ec:	30800317 	ldw	r2,12(r6)
 18045f0:	3a07883a 	add	r3,r7,r8
 18045f4:	19c00015 	stw	r7,0(r3)
 18045f8:	11000215 	stw	r4,8(r2)
 18045fc:	20800315 	stw	r2,12(r4)
 1804600:	38800054 	ori	r2,r7,1
 1804604:	40800115 	stw	r2,4(r8)
 1804608:	28001a26 	beq	r5,zero,1804674 <_free_r+0x11c>
 180460c:	8809883a 	mov	r4,r17
 1804610:	dfc00217 	ldw	ra,8(sp)
 1804614:	dc400117 	ldw	r17,4(sp)
 1804618:	dc000017 	ldw	r16,0(sp)
 180461c:	dec00304 	addi	sp,sp,12
 1804620:	180a2681 	jmpi	180a268 <__malloc_unlock>
 1804624:	80bffe17 	ldw	r2,-8(r16)
 1804628:	50c00204 	addi	r3,r10,8
 180462c:	4091c83a 	sub	r8,r8,r2
 1804630:	41000217 	ldw	r4,8(r8)
 1804634:	388f883a 	add	r7,r7,r2
 1804638:	20c06126 	beq	r4,r3,18047c0 <_free_r+0x268>
 180463c:	40800317 	ldw	r2,12(r8)
 1804640:	3247883a 	add	r3,r6,r9
 1804644:	000b883a 	mov	r5,zero
 1804648:	11000215 	stw	r4,8(r2)
 180464c:	20800315 	stw	r2,12(r4)
 1804650:	18800117 	ldw	r2,4(r3)
 1804654:	1080004c 	andi	r2,r2,1
 1804658:	103fdd26 	beq	r2,zero,18045d0 <_free_r+0x78>
 180465c:	38800054 	ori	r2,r7,1
 1804660:	3a07883a 	add	r3,r7,r8
 1804664:	280ac03a 	cmpne	r5,r5,zero
 1804668:	40800115 	stw	r2,4(r8)
 180466c:	19c00015 	stw	r7,0(r3)
 1804670:	283fe61e 	bne	r5,zero,180460c <_free_r+0xb4>
 1804674:	00807fc4 	movi	r2,511
 1804678:	11c01f2e 	bgeu	r2,r7,18046f8 <_free_r+0x1a0>
 180467c:	3806d27a 	srli	r3,r7,9
 1804680:	1800481e 	bne	r3,zero,18047a4 <_free_r+0x24c>
 1804684:	3804d0fa 	srli	r2,r7,3
 1804688:	100690fa 	slli	r3,r2,3
 180468c:	1acd883a 	add	r6,r3,r11
 1804690:	31400217 	ldw	r5,8(r6)
 1804694:	31405926 	beq	r6,r5,18047fc <_free_r+0x2a4>
 1804698:	28800117 	ldw	r2,4(r5)
 180469c:	00ffff04 	movi	r3,-4
 18046a0:	10c4703a 	and	r2,r2,r3
 18046a4:	3880022e 	bgeu	r7,r2,18046b0 <_free_r+0x158>
 18046a8:	29400217 	ldw	r5,8(r5)
 18046ac:	317ffa1e 	bne	r6,r5,1804698 <_free_r+0x140>
 18046b0:	29800317 	ldw	r6,12(r5)
 18046b4:	41800315 	stw	r6,12(r8)
 18046b8:	41400215 	stw	r5,8(r8)
 18046bc:	8809883a 	mov	r4,r17
 18046c0:	2a000315 	stw	r8,12(r5)
 18046c4:	32000215 	stw	r8,8(r6)
 18046c8:	dfc00217 	ldw	ra,8(sp)
 18046cc:	dc400117 	ldw	r17,4(sp)
 18046d0:	dc000017 	ldw	r16,0(sp)
 18046d4:	dec00304 	addi	sp,sp,12
 18046d8:	180a2681 	jmpi	180a268 <__malloc_unlock>
 18046dc:	dfc00217 	ldw	ra,8(sp)
 18046e0:	dc400117 	ldw	r17,4(sp)
 18046e4:	dc000017 	ldw	r16,0(sp)
 18046e8:	dec00304 	addi	sp,sp,12
 18046ec:	f800283a 	ret
 18046f0:	31000217 	ldw	r4,8(r6)
 18046f4:	003fbd06 	br	18045ec <_free_r+0x94>
 18046f8:	3806d0fa 	srli	r3,r7,3
 18046fc:	00800044 	movi	r2,1
 1804700:	51400117 	ldw	r5,4(r10)
 1804704:	180890fa 	slli	r4,r3,3
 1804708:	1807d0ba 	srai	r3,r3,2
 180470c:	22c9883a 	add	r4,r4,r11
 1804710:	21800217 	ldw	r6,8(r4)
 1804714:	10c4983a 	sll	r2,r2,r3
 1804718:	41000315 	stw	r4,12(r8)
 180471c:	41800215 	stw	r6,8(r8)
 1804720:	288ab03a 	or	r5,r5,r2
 1804724:	22000215 	stw	r8,8(r4)
 1804728:	8809883a 	mov	r4,r17
 180472c:	51400115 	stw	r5,4(r10)
 1804730:	32000315 	stw	r8,12(r6)
 1804734:	dfc00217 	ldw	ra,8(sp)
 1804738:	dc400117 	ldw	r17,4(sp)
 180473c:	dc000017 	ldw	r16,0(sp)
 1804740:	dec00304 	addi	sp,sp,12
 1804744:	180a2681 	jmpi	180a268 <__malloc_unlock>
 1804748:	2880004c 	andi	r2,r5,1
 180474c:	3a4d883a 	add	r6,r7,r9
 1804750:	1000071e 	bne	r2,zero,1804770 <_free_r+0x218>
 1804754:	80bffe17 	ldw	r2,-8(r16)
 1804758:	4091c83a 	sub	r8,r8,r2
 180475c:	41000317 	ldw	r4,12(r8)
 1804760:	40c00217 	ldw	r3,8(r8)
 1804764:	308d883a 	add	r6,r6,r2
 1804768:	20c00215 	stw	r3,8(r4)
 180476c:	19000315 	stw	r4,12(r3)
 1804770:	00806074 	movhi	r2,385
 1804774:	108acf04 	addi	r2,r2,11068
 1804778:	11000017 	ldw	r4,0(r2)
 180477c:	30c00054 	ori	r3,r6,1
 1804780:	52000215 	stw	r8,8(r10)
 1804784:	40c00115 	stw	r3,4(r8)
 1804788:	313fa036 	bltu	r6,r4,180460c <_free_r+0xb4>
 180478c:	00806074 	movhi	r2,385
 1804790:	108ae204 	addi	r2,r2,11144
 1804794:	11400017 	ldw	r5,0(r2)
 1804798:	8809883a 	mov	r4,r17
 180479c:	180442c0 	call	180442c <_malloc_trim_r>
 18047a0:	003f9a06 	br	180460c <_free_r+0xb4>
 18047a4:	00800104 	movi	r2,4
 18047a8:	10c0072e 	bgeu	r2,r3,18047c8 <_free_r+0x270>
 18047ac:	00800504 	movi	r2,20
 18047b0:	10c01936 	bltu	r2,r3,1804818 <_free_r+0x2c0>
 18047b4:	188016c4 	addi	r2,r3,91
 18047b8:	100690fa 	slli	r3,r2,3
 18047bc:	003fb306 	br	180468c <_free_r+0x134>
 18047c0:	01400044 	movi	r5,1
 18047c4:	003f7e06 	br	18045c0 <_free_r+0x68>
 18047c8:	3804d1ba 	srli	r2,r7,6
 18047cc:	10800e04 	addi	r2,r2,56
 18047d0:	100690fa 	slli	r3,r2,3
 18047d4:	003fad06 	br	180468c <_free_r+0x134>
 18047d8:	22000315 	stw	r8,12(r4)
 18047dc:	22000215 	stw	r8,8(r4)
 18047e0:	3a05883a 	add	r2,r7,r8
 18047e4:	38c00054 	ori	r3,r7,1
 18047e8:	11c00015 	stw	r7,0(r2)
 18047ec:	41000215 	stw	r4,8(r8)
 18047f0:	40c00115 	stw	r3,4(r8)
 18047f4:	41000315 	stw	r4,12(r8)
 18047f8:	003f8406 	br	180460c <_free_r+0xb4>
 18047fc:	1005d0ba 	srai	r2,r2,2
 1804800:	00c00044 	movi	r3,1
 1804804:	51000117 	ldw	r4,4(r10)
 1804808:	1886983a 	sll	r3,r3,r2
 180480c:	20c8b03a 	or	r4,r4,r3
 1804810:	51000115 	stw	r4,4(r10)
 1804814:	003fa706 	br	18046b4 <_free_r+0x15c>
 1804818:	00801504 	movi	r2,84
 180481c:	10c00436 	bltu	r2,r3,1804830 <_free_r+0x2d8>
 1804820:	3804d33a 	srli	r2,r7,12
 1804824:	10801b84 	addi	r2,r2,110
 1804828:	100690fa 	slli	r3,r2,3
 180482c:	003f9706 	br	180468c <_free_r+0x134>
 1804830:	00805504 	movi	r2,340
 1804834:	10c00436 	bltu	r2,r3,1804848 <_free_r+0x2f0>
 1804838:	3804d3fa 	srli	r2,r7,15
 180483c:	10801dc4 	addi	r2,r2,119
 1804840:	100690fa 	slli	r3,r2,3
 1804844:	003f9106 	br	180468c <_free_r+0x134>
 1804848:	00815504 	movi	r2,1364
 180484c:	10c0032e 	bgeu	r2,r3,180485c <_free_r+0x304>
 1804850:	00801f84 	movi	r2,126
 1804854:	00c0fc04 	movi	r3,1008
 1804858:	003f8c06 	br	180468c <_free_r+0x134>
 180485c:	3804d4ba 	srli	r2,r7,18
 1804860:	10801f04 	addi	r2,r2,124
 1804864:	100690fa 	slli	r3,r2,3
 1804868:	003f8806 	br	180468c <_free_r+0x134>

0180486c <__sfvwrite_r>:
 180486c:	30800217 	ldw	r2,8(r6)
 1804870:	defff504 	addi	sp,sp,-44
 1804874:	df000915 	stw	fp,36(sp)
 1804878:	dd800715 	stw	r22,28(sp)
 180487c:	dc800315 	stw	r18,12(sp)
 1804880:	dfc00a15 	stw	ra,40(sp)
 1804884:	ddc00815 	stw	r23,32(sp)
 1804888:	dd400615 	stw	r21,24(sp)
 180488c:	dd000515 	stw	r20,20(sp)
 1804890:	dcc00415 	stw	r19,16(sp)
 1804894:	dc400215 	stw	r17,8(sp)
 1804898:	dc000115 	stw	r16,4(sp)
 180489c:	302d883a 	mov	r22,r6
 18048a0:	2039883a 	mov	fp,r4
 18048a4:	2825883a 	mov	r18,r5
 18048a8:	10001c26 	beq	r2,zero,180491c <__sfvwrite_r+0xb0>
 18048ac:	29c0030b 	ldhu	r7,12(r5)
 18048b0:	3880020c 	andi	r2,r7,8
 18048b4:	10002726 	beq	r2,zero,1804954 <__sfvwrite_r+0xe8>
 18048b8:	28800417 	ldw	r2,16(r5)
 18048bc:	10002526 	beq	r2,zero,1804954 <__sfvwrite_r+0xe8>
 18048c0:	3880008c 	andi	r2,r7,2
 18048c4:	b5400017 	ldw	r21,0(r22)
 18048c8:	10002826 	beq	r2,zero,180496c <__sfvwrite_r+0x100>
 18048cc:	0021883a 	mov	r16,zero
 18048d0:	0023883a 	mov	r17,zero
 18048d4:	880d883a 	mov	r6,r17
 18048d8:	e009883a 	mov	r4,fp
 18048dc:	00810004 	movi	r2,1024
 18048e0:	80006e26 	beq	r16,zero,1804a9c <__sfvwrite_r+0x230>
 18048e4:	800f883a 	mov	r7,r16
 18048e8:	91400717 	ldw	r5,28(r18)
 18048ec:	1400012e 	bgeu	r2,r16,18048f4 <__sfvwrite_r+0x88>
 18048f0:	100f883a 	mov	r7,r2
 18048f4:	90c00917 	ldw	r3,36(r18)
 18048f8:	183ee83a 	callr	r3
 18048fc:	1007883a 	mov	r3,r2
 1804900:	80a1c83a 	sub	r16,r16,r2
 1804904:	88a3883a 	add	r17,r17,r2
 1804908:	00806d0e 	bge	zero,r2,1804ac0 <__sfvwrite_r+0x254>
 180490c:	b0800217 	ldw	r2,8(r22)
 1804910:	10c5c83a 	sub	r2,r2,r3
 1804914:	b0800215 	stw	r2,8(r22)
 1804918:	103fee1e 	bne	r2,zero,18048d4 <__sfvwrite_r+0x68>
 180491c:	0009883a 	mov	r4,zero
 1804920:	2005883a 	mov	r2,r4
 1804924:	dfc00a17 	ldw	ra,40(sp)
 1804928:	df000917 	ldw	fp,36(sp)
 180492c:	ddc00817 	ldw	r23,32(sp)
 1804930:	dd800717 	ldw	r22,28(sp)
 1804934:	dd400617 	ldw	r21,24(sp)
 1804938:	dd000517 	ldw	r20,20(sp)
 180493c:	dcc00417 	ldw	r19,16(sp)
 1804940:	dc800317 	ldw	r18,12(sp)
 1804944:	dc400217 	ldw	r17,8(sp)
 1804948:	dc000117 	ldw	r16,4(sp)
 180494c:	dec00b04 	addi	sp,sp,44
 1804950:	f800283a 	ret
 1804954:	18026340 	call	1802634 <__swsetup_r>
 1804958:	1000e41e 	bne	r2,zero,1804cec <__sfvwrite_r+0x480>
 180495c:	91c0030b 	ldhu	r7,12(r18)
 1804960:	b5400017 	ldw	r21,0(r22)
 1804964:	3880008c 	andi	r2,r7,2
 1804968:	103fd81e 	bne	r2,zero,18048cc <__sfvwrite_r+0x60>
 180496c:	3880004c 	andi	r2,r7,1
 1804970:	1005003a 	cmpeq	r2,r2,zero
 1804974:	10005726 	beq	r2,zero,1804ad4 <__sfvwrite_r+0x268>
 1804978:	0029883a 	mov	r20,zero
 180497c:	002f883a 	mov	r23,zero
 1804980:	a0004226 	beq	r20,zero,1804a8c <__sfvwrite_r+0x220>
 1804984:	3880800c 	andi	r2,r7,512
 1804988:	94000217 	ldw	r16,8(r18)
 180498c:	10008b26 	beq	r2,zero,1804bbc <__sfvwrite_r+0x350>
 1804990:	800d883a 	mov	r6,r16
 1804994:	a400a536 	bltu	r20,r16,1804c2c <__sfvwrite_r+0x3c0>
 1804998:	3881200c 	andi	r2,r7,1152
 180499c:	10002726 	beq	r2,zero,1804a3c <__sfvwrite_r+0x1d0>
 18049a0:	90800517 	ldw	r2,20(r18)
 18049a4:	92000417 	ldw	r8,16(r18)
 18049a8:	91400017 	ldw	r5,0(r18)
 18049ac:	1087883a 	add	r3,r2,r2
 18049b0:	1887883a 	add	r3,r3,r2
 18049b4:	1808d7fa 	srli	r4,r3,31
 18049b8:	2a21c83a 	sub	r16,r5,r8
 18049bc:	80800044 	addi	r2,r16,1
 18049c0:	20c9883a 	add	r4,r4,r3
 18049c4:	2027d07a 	srai	r19,r4,1
 18049c8:	a085883a 	add	r2,r20,r2
 18049cc:	980d883a 	mov	r6,r19
 18049d0:	9880022e 	bgeu	r19,r2,18049dc <__sfvwrite_r+0x170>
 18049d4:	1027883a 	mov	r19,r2
 18049d8:	100d883a 	mov	r6,r2
 18049dc:	3881000c 	andi	r2,r7,1024
 18049e0:	1000b826 	beq	r2,zero,1804cc4 <__sfvwrite_r+0x458>
 18049e4:	300b883a 	mov	r5,r6
 18049e8:	e009883a 	mov	r4,fp
 18049ec:	18050e00 	call	18050e0 <_malloc_r>
 18049f0:	10003126 	beq	r2,zero,1804ab8 <__sfvwrite_r+0x24c>
 18049f4:	91400417 	ldw	r5,16(r18)
 18049f8:	1009883a 	mov	r4,r2
 18049fc:	800d883a 	mov	r6,r16
 1804a00:	1023883a 	mov	r17,r2
 1804a04:	18059040 	call	1805904 <memcpy>
 1804a08:	90c0030b 	ldhu	r3,12(r18)
 1804a0c:	00beffc4 	movi	r2,-1025
 1804a10:	1886703a 	and	r3,r3,r2
 1804a14:	18c02014 	ori	r3,r3,128
 1804a18:	90c0030d 	sth	r3,12(r18)
 1804a1c:	9c07c83a 	sub	r3,r19,r16
 1804a20:	8c05883a 	add	r2,r17,r16
 1804a24:	a00d883a 	mov	r6,r20
 1804a28:	a021883a 	mov	r16,r20
 1804a2c:	90800015 	stw	r2,0(r18)
 1804a30:	90c00215 	stw	r3,8(r18)
 1804a34:	94400415 	stw	r17,16(r18)
 1804a38:	94c00515 	stw	r19,20(r18)
 1804a3c:	91000017 	ldw	r4,0(r18)
 1804a40:	b80b883a 	mov	r5,r23
 1804a44:	a023883a 	mov	r17,r20
 1804a48:	18059a40 	call	18059a4 <memmove>
 1804a4c:	90c00217 	ldw	r3,8(r18)
 1804a50:	90800017 	ldw	r2,0(r18)
 1804a54:	a027883a 	mov	r19,r20
 1804a58:	1c07c83a 	sub	r3,r3,r16
 1804a5c:	1405883a 	add	r2,r2,r16
 1804a60:	90c00215 	stw	r3,8(r18)
 1804a64:	a021883a 	mov	r16,r20
 1804a68:	90800015 	stw	r2,0(r18)
 1804a6c:	b0800217 	ldw	r2,8(r22)
 1804a70:	1405c83a 	sub	r2,r2,r16
 1804a74:	b0800215 	stw	r2,8(r22)
 1804a78:	103fa826 	beq	r2,zero,180491c <__sfvwrite_r+0xb0>
 1804a7c:	a469c83a 	sub	r20,r20,r17
 1804a80:	91c0030b 	ldhu	r7,12(r18)
 1804a84:	bcef883a 	add	r23,r23,r19
 1804a88:	a03fbe1e 	bne	r20,zero,1804984 <__sfvwrite_r+0x118>
 1804a8c:	adc00017 	ldw	r23,0(r21)
 1804a90:	ad000117 	ldw	r20,4(r21)
 1804a94:	ad400204 	addi	r21,r21,8
 1804a98:	003fb906 	br	1804980 <__sfvwrite_r+0x114>
 1804a9c:	ac400017 	ldw	r17,0(r21)
 1804aa0:	ac000117 	ldw	r16,4(r21)
 1804aa4:	ad400204 	addi	r21,r21,8
 1804aa8:	003f8a06 	br	18048d4 <__sfvwrite_r+0x68>
 1804aac:	91400417 	ldw	r5,16(r18)
 1804ab0:	e009883a 	mov	r4,fp
 1804ab4:	18045580 	call	1804558 <_free_r>
 1804ab8:	00800304 	movi	r2,12
 1804abc:	e0800015 	stw	r2,0(fp)
 1804ac0:	9080030b 	ldhu	r2,12(r18)
 1804ac4:	013fffc4 	movi	r4,-1
 1804ac8:	10801014 	ori	r2,r2,64
 1804acc:	9080030d 	sth	r2,12(r18)
 1804ad0:	003f9306 	br	1804920 <__sfvwrite_r+0xb4>
 1804ad4:	0027883a 	mov	r19,zero
 1804ad8:	002f883a 	mov	r23,zero
 1804adc:	d8000015 	stw	zero,0(sp)
 1804ae0:	0029883a 	mov	r20,zero
 1804ae4:	98001e26 	beq	r19,zero,1804b60 <__sfvwrite_r+0x2f4>
 1804ae8:	d8c00017 	ldw	r3,0(sp)
 1804aec:	1804c03a 	cmpne	r2,r3,zero
 1804af0:	10005e26 	beq	r2,zero,1804c6c <__sfvwrite_r+0x400>
 1804af4:	9821883a 	mov	r16,r19
 1804af8:	a4c0012e 	bgeu	r20,r19,1804b00 <__sfvwrite_r+0x294>
 1804afc:	a021883a 	mov	r16,r20
 1804b00:	91000017 	ldw	r4,0(r18)
 1804b04:	90800417 	ldw	r2,16(r18)
 1804b08:	91800217 	ldw	r6,8(r18)
 1804b0c:	91c00517 	ldw	r7,20(r18)
 1804b10:	1100022e 	bgeu	r2,r4,1804b1c <__sfvwrite_r+0x2b0>
 1804b14:	31e3883a 	add	r17,r6,r7
 1804b18:	8c001616 	blt	r17,r16,1804b74 <__sfvwrite_r+0x308>
 1804b1c:	81c03816 	blt	r16,r7,1804c00 <__sfvwrite_r+0x394>
 1804b20:	90c00917 	ldw	r3,36(r18)
 1804b24:	91400717 	ldw	r5,28(r18)
 1804b28:	e009883a 	mov	r4,fp
 1804b2c:	b80d883a 	mov	r6,r23
 1804b30:	183ee83a 	callr	r3
 1804b34:	1023883a 	mov	r17,r2
 1804b38:	00bfe10e 	bge	zero,r2,1804ac0 <__sfvwrite_r+0x254>
 1804b3c:	a469c83a 	sub	r20,r20,r17
 1804b40:	a0001826 	beq	r20,zero,1804ba4 <__sfvwrite_r+0x338>
 1804b44:	b0800217 	ldw	r2,8(r22)
 1804b48:	1445c83a 	sub	r2,r2,r17
 1804b4c:	b0800215 	stw	r2,8(r22)
 1804b50:	103f7226 	beq	r2,zero,180491c <__sfvwrite_r+0xb0>
 1804b54:	9c67c83a 	sub	r19,r19,r17
 1804b58:	bc6f883a 	add	r23,r23,r17
 1804b5c:	983fe21e 	bne	r19,zero,1804ae8 <__sfvwrite_r+0x27c>
 1804b60:	adc00017 	ldw	r23,0(r21)
 1804b64:	acc00117 	ldw	r19,4(r21)
 1804b68:	ad400204 	addi	r21,r21,8
 1804b6c:	d8000015 	stw	zero,0(sp)
 1804b70:	003fdc06 	br	1804ae4 <__sfvwrite_r+0x278>
 1804b74:	b80b883a 	mov	r5,r23
 1804b78:	880d883a 	mov	r6,r17
 1804b7c:	18059a40 	call	18059a4 <memmove>
 1804b80:	90c00017 	ldw	r3,0(r18)
 1804b84:	e009883a 	mov	r4,fp
 1804b88:	900b883a 	mov	r5,r18
 1804b8c:	1c47883a 	add	r3,r3,r17
 1804b90:	90c00015 	stw	r3,0(r18)
 1804b94:	1803f3c0 	call	1803f3c <_fflush_r>
 1804b98:	103fc91e 	bne	r2,zero,1804ac0 <__sfvwrite_r+0x254>
 1804b9c:	a469c83a 	sub	r20,r20,r17
 1804ba0:	a03fe81e 	bne	r20,zero,1804b44 <__sfvwrite_r+0x2d8>
 1804ba4:	e009883a 	mov	r4,fp
 1804ba8:	900b883a 	mov	r5,r18
 1804bac:	1803f3c0 	call	1803f3c <_fflush_r>
 1804bb0:	103fc31e 	bne	r2,zero,1804ac0 <__sfvwrite_r+0x254>
 1804bb4:	d8000015 	stw	zero,0(sp)
 1804bb8:	003fe206 	br	1804b44 <__sfvwrite_r+0x2d8>
 1804bbc:	91000017 	ldw	r4,0(r18)
 1804bc0:	90800417 	ldw	r2,16(r18)
 1804bc4:	1100022e 	bgeu	r2,r4,1804bd0 <__sfvwrite_r+0x364>
 1804bc8:	8023883a 	mov	r17,r16
 1804bcc:	85003136 	bltu	r16,r20,1804c94 <__sfvwrite_r+0x428>
 1804bd0:	91c00517 	ldw	r7,20(r18)
 1804bd4:	a1c01836 	bltu	r20,r7,1804c38 <__sfvwrite_r+0x3cc>
 1804bd8:	90c00917 	ldw	r3,36(r18)
 1804bdc:	91400717 	ldw	r5,28(r18)
 1804be0:	e009883a 	mov	r4,fp
 1804be4:	b80d883a 	mov	r6,r23
 1804be8:	183ee83a 	callr	r3
 1804bec:	1021883a 	mov	r16,r2
 1804bf0:	00bfb30e 	bge	zero,r2,1804ac0 <__sfvwrite_r+0x254>
 1804bf4:	1023883a 	mov	r17,r2
 1804bf8:	1027883a 	mov	r19,r2
 1804bfc:	003f9b06 	br	1804a6c <__sfvwrite_r+0x200>
 1804c00:	b80b883a 	mov	r5,r23
 1804c04:	800d883a 	mov	r6,r16
 1804c08:	18059a40 	call	18059a4 <memmove>
 1804c0c:	90c00217 	ldw	r3,8(r18)
 1804c10:	90800017 	ldw	r2,0(r18)
 1804c14:	8023883a 	mov	r17,r16
 1804c18:	1c07c83a 	sub	r3,r3,r16
 1804c1c:	1405883a 	add	r2,r2,r16
 1804c20:	90c00215 	stw	r3,8(r18)
 1804c24:	90800015 	stw	r2,0(r18)
 1804c28:	003fc406 	br	1804b3c <__sfvwrite_r+0x2d0>
 1804c2c:	a00d883a 	mov	r6,r20
 1804c30:	a021883a 	mov	r16,r20
 1804c34:	003f8106 	br	1804a3c <__sfvwrite_r+0x1d0>
 1804c38:	b80b883a 	mov	r5,r23
 1804c3c:	a00d883a 	mov	r6,r20
 1804c40:	18059a40 	call	18059a4 <memmove>
 1804c44:	90c00217 	ldw	r3,8(r18)
 1804c48:	90800017 	ldw	r2,0(r18)
 1804c4c:	a021883a 	mov	r16,r20
 1804c50:	1d07c83a 	sub	r3,r3,r20
 1804c54:	1505883a 	add	r2,r2,r20
 1804c58:	a023883a 	mov	r17,r20
 1804c5c:	a027883a 	mov	r19,r20
 1804c60:	90c00215 	stw	r3,8(r18)
 1804c64:	90800015 	stw	r2,0(r18)
 1804c68:	003f8006 	br	1804a6c <__sfvwrite_r+0x200>
 1804c6c:	b809883a 	mov	r4,r23
 1804c70:	01400284 	movi	r5,10
 1804c74:	980d883a 	mov	r6,r19
 1804c78:	18058200 	call	1805820 <memchr>
 1804c7c:	10001726 	beq	r2,zero,1804cdc <__sfvwrite_r+0x470>
 1804c80:	15c5c83a 	sub	r2,r2,r23
 1804c84:	15000044 	addi	r20,r2,1
 1804c88:	00800044 	movi	r2,1
 1804c8c:	d8800015 	stw	r2,0(sp)
 1804c90:	003f9806 	br	1804af4 <__sfvwrite_r+0x288>
 1804c94:	b80b883a 	mov	r5,r23
 1804c98:	800d883a 	mov	r6,r16
 1804c9c:	18059a40 	call	18059a4 <memmove>
 1804ca0:	90c00017 	ldw	r3,0(r18)
 1804ca4:	e009883a 	mov	r4,fp
 1804ca8:	900b883a 	mov	r5,r18
 1804cac:	1c07883a 	add	r3,r3,r16
 1804cb0:	90c00015 	stw	r3,0(r18)
 1804cb4:	8027883a 	mov	r19,r16
 1804cb8:	1803f3c0 	call	1803f3c <_fflush_r>
 1804cbc:	103f6b26 	beq	r2,zero,1804a6c <__sfvwrite_r+0x200>
 1804cc0:	003f7f06 	br	1804ac0 <__sfvwrite_r+0x254>
 1804cc4:	400b883a 	mov	r5,r8
 1804cc8:	e009883a 	mov	r4,fp
 1804ccc:	1806b100 	call	1806b10 <_realloc_r>
 1804cd0:	103f7626 	beq	r2,zero,1804aac <__sfvwrite_r+0x240>
 1804cd4:	1023883a 	mov	r17,r2
 1804cd8:	003f5006 	br	1804a1c <__sfvwrite_r+0x1b0>
 1804cdc:	00c00044 	movi	r3,1
 1804ce0:	9d000044 	addi	r20,r19,1
 1804ce4:	d8c00015 	stw	r3,0(sp)
 1804ce8:	003f8206 	br	1804af4 <__sfvwrite_r+0x288>
 1804cec:	9080030b 	ldhu	r2,12(r18)
 1804cf0:	00c00244 	movi	r3,9
 1804cf4:	013fffc4 	movi	r4,-1
 1804cf8:	10801014 	ori	r2,r2,64
 1804cfc:	9080030d 	sth	r2,12(r18)
 1804d00:	e0c00015 	stw	r3,0(fp)
 1804d04:	003f0606 	br	1804920 <__sfvwrite_r+0xb4>

01804d08 <_fwalk_reent>:
 1804d08:	defff704 	addi	sp,sp,-36
 1804d0c:	dcc00315 	stw	r19,12(sp)
 1804d10:	24c0b804 	addi	r19,r4,736
 1804d14:	dd800615 	stw	r22,24(sp)
 1804d18:	dd400515 	stw	r21,20(sp)
 1804d1c:	dfc00815 	stw	ra,32(sp)
 1804d20:	ddc00715 	stw	r23,28(sp)
 1804d24:	dd000415 	stw	r20,16(sp)
 1804d28:	dc800215 	stw	r18,8(sp)
 1804d2c:	dc400115 	stw	r17,4(sp)
 1804d30:	dc000015 	stw	r16,0(sp)
 1804d34:	202b883a 	mov	r21,r4
 1804d38:	282d883a 	mov	r22,r5
 1804d3c:	18041c40 	call	18041c4 <__sfp_lock_acquire>
 1804d40:	98002126 	beq	r19,zero,1804dc8 <_fwalk_reent+0xc0>
 1804d44:	002f883a 	mov	r23,zero
 1804d48:	9c800117 	ldw	r18,4(r19)
 1804d4c:	9c000217 	ldw	r16,8(r19)
 1804d50:	90bfffc4 	addi	r2,r18,-1
 1804d54:	10000d16 	blt	r2,zero,1804d8c <_fwalk_reent+0x84>
 1804d58:	0023883a 	mov	r17,zero
 1804d5c:	053fffc4 	movi	r20,-1
 1804d60:	8080030f 	ldh	r2,12(r16)
 1804d64:	8c400044 	addi	r17,r17,1
 1804d68:	10000626 	beq	r2,zero,1804d84 <_fwalk_reent+0x7c>
 1804d6c:	8080038f 	ldh	r2,14(r16)
 1804d70:	800b883a 	mov	r5,r16
 1804d74:	a809883a 	mov	r4,r21
 1804d78:	15000226 	beq	r2,r20,1804d84 <_fwalk_reent+0x7c>
 1804d7c:	b03ee83a 	callr	r22
 1804d80:	b8aeb03a 	or	r23,r23,r2
 1804d84:	84001704 	addi	r16,r16,92
 1804d88:	947ff51e 	bne	r18,r17,1804d60 <_fwalk_reent+0x58>
 1804d8c:	9cc00017 	ldw	r19,0(r19)
 1804d90:	983fed1e 	bne	r19,zero,1804d48 <_fwalk_reent+0x40>
 1804d94:	18041c80 	call	18041c8 <__sfp_lock_release>
 1804d98:	b805883a 	mov	r2,r23
 1804d9c:	dfc00817 	ldw	ra,32(sp)
 1804da0:	ddc00717 	ldw	r23,28(sp)
 1804da4:	dd800617 	ldw	r22,24(sp)
 1804da8:	dd400517 	ldw	r21,20(sp)
 1804dac:	dd000417 	ldw	r20,16(sp)
 1804db0:	dcc00317 	ldw	r19,12(sp)
 1804db4:	dc800217 	ldw	r18,8(sp)
 1804db8:	dc400117 	ldw	r17,4(sp)
 1804dbc:	dc000017 	ldw	r16,0(sp)
 1804dc0:	dec00904 	addi	sp,sp,36
 1804dc4:	f800283a 	ret
 1804dc8:	002f883a 	mov	r23,zero
 1804dcc:	003ff106 	br	1804d94 <_fwalk_reent+0x8c>

01804dd0 <_fwalk>:
 1804dd0:	defff804 	addi	sp,sp,-32
 1804dd4:	dcc00315 	stw	r19,12(sp)
 1804dd8:	24c0b804 	addi	r19,r4,736
 1804ddc:	dd400515 	stw	r21,20(sp)
 1804de0:	dfc00715 	stw	ra,28(sp)
 1804de4:	dd800615 	stw	r22,24(sp)
 1804de8:	dd000415 	stw	r20,16(sp)
 1804dec:	dc800215 	stw	r18,8(sp)
 1804df0:	dc400115 	stw	r17,4(sp)
 1804df4:	dc000015 	stw	r16,0(sp)
 1804df8:	282b883a 	mov	r21,r5
 1804dfc:	18041c40 	call	18041c4 <__sfp_lock_acquire>
 1804e00:	98001f26 	beq	r19,zero,1804e80 <_fwalk+0xb0>
 1804e04:	002d883a 	mov	r22,zero
 1804e08:	9c800117 	ldw	r18,4(r19)
 1804e0c:	9c000217 	ldw	r16,8(r19)
 1804e10:	90bfffc4 	addi	r2,r18,-1
 1804e14:	10000c16 	blt	r2,zero,1804e48 <_fwalk+0x78>
 1804e18:	0023883a 	mov	r17,zero
 1804e1c:	053fffc4 	movi	r20,-1
 1804e20:	8080030f 	ldh	r2,12(r16)
 1804e24:	8c400044 	addi	r17,r17,1
 1804e28:	10000526 	beq	r2,zero,1804e40 <_fwalk+0x70>
 1804e2c:	8080038f 	ldh	r2,14(r16)
 1804e30:	8009883a 	mov	r4,r16
 1804e34:	15000226 	beq	r2,r20,1804e40 <_fwalk+0x70>
 1804e38:	a83ee83a 	callr	r21
 1804e3c:	b0acb03a 	or	r22,r22,r2
 1804e40:	84001704 	addi	r16,r16,92
 1804e44:	947ff61e 	bne	r18,r17,1804e20 <_fwalk+0x50>
 1804e48:	9cc00017 	ldw	r19,0(r19)
 1804e4c:	983fee1e 	bne	r19,zero,1804e08 <_fwalk+0x38>
 1804e50:	18041c80 	call	18041c8 <__sfp_lock_release>
 1804e54:	b005883a 	mov	r2,r22
 1804e58:	dfc00717 	ldw	ra,28(sp)
 1804e5c:	dd800617 	ldw	r22,24(sp)
 1804e60:	dd400517 	ldw	r21,20(sp)
 1804e64:	dd000417 	ldw	r20,16(sp)
 1804e68:	dcc00317 	ldw	r19,12(sp)
 1804e6c:	dc800217 	ldw	r18,8(sp)
 1804e70:	dc400117 	ldw	r17,4(sp)
 1804e74:	dc000017 	ldw	r16,0(sp)
 1804e78:	dec00804 	addi	sp,sp,32
 1804e7c:	f800283a 	ret
 1804e80:	002d883a 	mov	r22,zero
 1804e84:	003ff206 	br	1804e50 <_fwalk+0x80>

01804e88 <__locale_charset>:
 1804e88:	d0a00317 	ldw	r2,-32756(gp)
 1804e8c:	f800283a 	ret

01804e90 <_localeconv_r>:
 1804e90:	00806074 	movhi	r2,385
 1804e94:	10824504 	addi	r2,r2,2324
 1804e98:	f800283a 	ret

01804e9c <localeconv>:
 1804e9c:	00806074 	movhi	r2,385
 1804ea0:	108acb04 	addi	r2,r2,11052
 1804ea4:	11000017 	ldw	r4,0(r2)
 1804ea8:	1804e901 	jmpi	1804e90 <_localeconv_r>

01804eac <_setlocale_r>:
 1804eac:	defffc04 	addi	sp,sp,-16
 1804eb0:	00c06074 	movhi	r3,385
 1804eb4:	18c24004 	addi	r3,r3,2304
 1804eb8:	dc800215 	stw	r18,8(sp)
 1804ebc:	dc400115 	stw	r17,4(sp)
 1804ec0:	dc000015 	stw	r16,0(sp)
 1804ec4:	2023883a 	mov	r17,r4
 1804ec8:	2825883a 	mov	r18,r5
 1804ecc:	dfc00315 	stw	ra,12(sp)
 1804ed0:	3021883a 	mov	r16,r6
 1804ed4:	3009883a 	mov	r4,r6
 1804ed8:	180b883a 	mov	r5,r3
 1804edc:	30000926 	beq	r6,zero,1804f04 <_setlocale_r+0x58>
 1804ee0:	18073300 	call	1807330 <strcmp>
 1804ee4:	8009883a 	mov	r4,r16
 1804ee8:	01406074 	movhi	r5,385
 1804eec:	29422b04 	addi	r5,r5,2220
 1804ef0:	10000b1e 	bne	r2,zero,1804f20 <_setlocale_r+0x74>
 1804ef4:	8c000d15 	stw	r16,52(r17)
 1804ef8:	8c800c15 	stw	r18,48(r17)
 1804efc:	00c06074 	movhi	r3,385
 1804f00:	18c24004 	addi	r3,r3,2304
 1804f04:	1805883a 	mov	r2,r3
 1804f08:	dfc00317 	ldw	ra,12(sp)
 1804f0c:	dc800217 	ldw	r18,8(sp)
 1804f10:	dc400117 	ldw	r17,4(sp)
 1804f14:	dc000017 	ldw	r16,0(sp)
 1804f18:	dec00404 	addi	sp,sp,16
 1804f1c:	f800283a 	ret
 1804f20:	18073300 	call	1807330 <strcmp>
 1804f24:	0007883a 	mov	r3,zero
 1804f28:	103ff226 	beq	r2,zero,1804ef4 <_setlocale_r+0x48>
 1804f2c:	003ff506 	br	1804f04 <_setlocale_r+0x58>

01804f30 <setlocale>:
 1804f30:	01806074 	movhi	r6,385
 1804f34:	318acb04 	addi	r6,r6,11052
 1804f38:	2007883a 	mov	r3,r4
 1804f3c:	31000017 	ldw	r4,0(r6)
 1804f40:	280d883a 	mov	r6,r5
 1804f44:	180b883a 	mov	r5,r3
 1804f48:	1804eac1 	jmpi	1804eac <_setlocale_r>

01804f4c <__smakebuf_r>:
 1804f4c:	2880030b 	ldhu	r2,12(r5)
 1804f50:	deffed04 	addi	sp,sp,-76
 1804f54:	dc401015 	stw	r17,64(sp)
 1804f58:	1080008c 	andi	r2,r2,2
 1804f5c:	dc000f15 	stw	r16,60(sp)
 1804f60:	dfc01215 	stw	ra,72(sp)
 1804f64:	dc801115 	stw	r18,68(sp)
 1804f68:	2821883a 	mov	r16,r5
 1804f6c:	2023883a 	mov	r17,r4
 1804f70:	10000b26 	beq	r2,zero,1804fa0 <__smakebuf_r+0x54>
 1804f74:	28c010c4 	addi	r3,r5,67
 1804f78:	00800044 	movi	r2,1
 1804f7c:	28800515 	stw	r2,20(r5)
 1804f80:	28c00415 	stw	r3,16(r5)
 1804f84:	28c00015 	stw	r3,0(r5)
 1804f88:	dfc01217 	ldw	ra,72(sp)
 1804f8c:	dc801117 	ldw	r18,68(sp)
 1804f90:	dc401017 	ldw	r17,64(sp)
 1804f94:	dc000f17 	ldw	r16,60(sp)
 1804f98:	dec01304 	addi	sp,sp,76
 1804f9c:	f800283a 	ret
 1804fa0:	2940038f 	ldh	r5,14(r5)
 1804fa4:	28002116 	blt	r5,zero,180502c <__smakebuf_r+0xe0>
 1804fa8:	d80d883a 	mov	r6,sp
 1804fac:	18076ac0 	call	18076ac <_fstat_r>
 1804fb0:	10001e16 	blt	r2,zero,180502c <__smakebuf_r+0xe0>
 1804fb4:	d8800117 	ldw	r2,4(sp)
 1804fb8:	00e00014 	movui	r3,32768
 1804fbc:	113c000c 	andi	r4,r2,61440
 1804fc0:	20c03126 	beq	r4,r3,1805088 <__smakebuf_r+0x13c>
 1804fc4:	8080030b 	ldhu	r2,12(r16)
 1804fc8:	00c80004 	movi	r3,8192
 1804fcc:	10820014 	ori	r2,r2,2048
 1804fd0:	8080030d 	sth	r2,12(r16)
 1804fd4:	20c01e26 	beq	r4,r3,1805050 <__smakebuf_r+0x104>
 1804fd8:	04810004 	movi	r18,1024
 1804fdc:	8809883a 	mov	r4,r17
 1804fe0:	900b883a 	mov	r5,r18
 1804fe4:	18050e00 	call	18050e0 <_malloc_r>
 1804fe8:	1009883a 	mov	r4,r2
 1804fec:	10003126 	beq	r2,zero,18050b4 <__smakebuf_r+0x168>
 1804ff0:	80c0030b 	ldhu	r3,12(r16)
 1804ff4:	00806034 	movhi	r2,384
 1804ff8:	1090ae04 	addi	r2,r2,17080
 1804ffc:	88800f15 	stw	r2,60(r17)
 1805000:	18c02014 	ori	r3,r3,128
 1805004:	84800515 	stw	r18,20(r16)
 1805008:	80c0030d 	sth	r3,12(r16)
 180500c:	81000415 	stw	r4,16(r16)
 1805010:	81000015 	stw	r4,0(r16)
 1805014:	dfc01217 	ldw	ra,72(sp)
 1805018:	dc801117 	ldw	r18,68(sp)
 180501c:	dc401017 	ldw	r17,64(sp)
 1805020:	dc000f17 	ldw	r16,60(sp)
 1805024:	dec01304 	addi	sp,sp,76
 1805028:	f800283a 	ret
 180502c:	80c0030b 	ldhu	r3,12(r16)
 1805030:	1880200c 	andi	r2,r3,128
 1805034:	10000426 	beq	r2,zero,1805048 <__smakebuf_r+0xfc>
 1805038:	04801004 	movi	r18,64
 180503c:	18820014 	ori	r2,r3,2048
 1805040:	8080030d 	sth	r2,12(r16)
 1805044:	003fe506 	br	1804fdc <__smakebuf_r+0x90>
 1805048:	04810004 	movi	r18,1024
 180504c:	003ffb06 	br	180503c <__smakebuf_r+0xf0>
 1805050:	8140038f 	ldh	r5,14(r16)
 1805054:	8809883a 	mov	r4,r17
 1805058:	18077200 	call	1807720 <_isatty_r>
 180505c:	103fde26 	beq	r2,zero,1804fd8 <__smakebuf_r+0x8c>
 1805060:	8080030b 	ldhu	r2,12(r16)
 1805064:	80c010c4 	addi	r3,r16,67
 1805068:	04810004 	movi	r18,1024
 180506c:	10800054 	ori	r2,r2,1
 1805070:	8080030d 	sth	r2,12(r16)
 1805074:	00800044 	movi	r2,1
 1805078:	80c00415 	stw	r3,16(r16)
 180507c:	80800515 	stw	r2,20(r16)
 1805080:	80c00015 	stw	r3,0(r16)
 1805084:	003fd506 	br	1804fdc <__smakebuf_r+0x90>
 1805088:	80c00a17 	ldw	r3,40(r16)
 180508c:	00806034 	movhi	r2,384
 1805090:	109c7b04 	addi	r2,r2,29164
 1805094:	18bfcb1e 	bne	r3,r2,1804fc4 <__smakebuf_r+0x78>
 1805098:	8080030b 	ldhu	r2,12(r16)
 180509c:	00c10004 	movi	r3,1024
 18050a0:	1825883a 	mov	r18,r3
 18050a4:	10c4b03a 	or	r2,r2,r3
 18050a8:	8080030d 	sth	r2,12(r16)
 18050ac:	80c01315 	stw	r3,76(r16)
 18050b0:	003fca06 	br	1804fdc <__smakebuf_r+0x90>
 18050b4:	8100030b 	ldhu	r4,12(r16)
 18050b8:	2080800c 	andi	r2,r4,512
 18050bc:	103fb21e 	bne	r2,zero,1804f88 <__smakebuf_r+0x3c>
 18050c0:	80c010c4 	addi	r3,r16,67
 18050c4:	21000094 	ori	r4,r4,2
 18050c8:	00800044 	movi	r2,1
 18050cc:	80800515 	stw	r2,20(r16)
 18050d0:	8100030d 	sth	r4,12(r16)
 18050d4:	80c00415 	stw	r3,16(r16)
 18050d8:	80c00015 	stw	r3,0(r16)
 18050dc:	003faa06 	br	1804f88 <__smakebuf_r+0x3c>

018050e0 <_malloc_r>:
 18050e0:	defff604 	addi	sp,sp,-40
 18050e4:	28c002c4 	addi	r3,r5,11
 18050e8:	00800584 	movi	r2,22
 18050ec:	dc800215 	stw	r18,8(sp)
 18050f0:	dfc00915 	stw	ra,36(sp)
 18050f4:	df000815 	stw	fp,32(sp)
 18050f8:	ddc00715 	stw	r23,28(sp)
 18050fc:	dd800615 	stw	r22,24(sp)
 1805100:	dd400515 	stw	r21,20(sp)
 1805104:	dd000415 	stw	r20,16(sp)
 1805108:	dcc00315 	stw	r19,12(sp)
 180510c:	dc400115 	stw	r17,4(sp)
 1805110:	dc000015 	stw	r16,0(sp)
 1805114:	2025883a 	mov	r18,r4
 1805118:	10c01236 	bltu	r2,r3,1805164 <_malloc_r+0x84>
 180511c:	04400404 	movi	r17,16
 1805120:	8940142e 	bgeu	r17,r5,1805174 <_malloc_r+0x94>
 1805124:	00800304 	movi	r2,12
 1805128:	0007883a 	mov	r3,zero
 180512c:	90800015 	stw	r2,0(r18)
 1805130:	1805883a 	mov	r2,r3
 1805134:	dfc00917 	ldw	ra,36(sp)
 1805138:	df000817 	ldw	fp,32(sp)
 180513c:	ddc00717 	ldw	r23,28(sp)
 1805140:	dd800617 	ldw	r22,24(sp)
 1805144:	dd400517 	ldw	r21,20(sp)
 1805148:	dd000417 	ldw	r20,16(sp)
 180514c:	dcc00317 	ldw	r19,12(sp)
 1805150:	dc800217 	ldw	r18,8(sp)
 1805154:	dc400117 	ldw	r17,4(sp)
 1805158:	dc000017 	ldw	r16,0(sp)
 180515c:	dec00a04 	addi	sp,sp,40
 1805160:	f800283a 	ret
 1805164:	00bffe04 	movi	r2,-8
 1805168:	18a2703a 	and	r17,r3,r2
 180516c:	883fed16 	blt	r17,zero,1805124 <_malloc_r+0x44>
 1805170:	897fec36 	bltu	r17,r5,1805124 <_malloc_r+0x44>
 1805174:	9009883a 	mov	r4,r18
 1805178:	180a2480 	call	180a248 <__malloc_lock>
 180517c:	00807dc4 	movi	r2,503
 1805180:	14402b2e 	bgeu	r2,r17,1805230 <_malloc_r+0x150>
 1805184:	8806d27a 	srli	r3,r17,9
 1805188:	18003f1e 	bne	r3,zero,1805288 <_malloc_r+0x1a8>
 180518c:	880cd0fa 	srli	r6,r17,3
 1805190:	300490fa 	slli	r2,r6,3
 1805194:	02c06074 	movhi	r11,385
 1805198:	5ac49804 	addi	r11,r11,4704
 180519c:	12cb883a 	add	r5,r2,r11
 18051a0:	2c000317 	ldw	r16,12(r5)
 18051a4:	580f883a 	mov	r7,r11
 18051a8:	2c00041e 	bne	r5,r16,18051bc <_malloc_r+0xdc>
 18051ac:	00000a06 	br	18051d8 <_malloc_r+0xf8>
 18051b0:	1800860e 	bge	r3,zero,18053cc <_malloc_r+0x2ec>
 18051b4:	84000317 	ldw	r16,12(r16)
 18051b8:	2c000726 	beq	r5,r16,18051d8 <_malloc_r+0xf8>
 18051bc:	80800117 	ldw	r2,4(r16)
 18051c0:	00ffff04 	movi	r3,-4
 18051c4:	10c8703a 	and	r4,r2,r3
 18051c8:	2447c83a 	sub	r3,r4,r17
 18051cc:	008003c4 	movi	r2,15
 18051d0:	10fff70e 	bge	r2,r3,18051b0 <_malloc_r+0xd0>
 18051d4:	31bfffc4 	addi	r6,r6,-1
 18051d8:	32400044 	addi	r9,r6,1
 18051dc:	02806074 	movhi	r10,385
 18051e0:	52849a04 	addi	r10,r10,4712
 18051e4:	54000217 	ldw	r16,8(r10)
 18051e8:	8280a026 	beq	r16,r10,180546c <_malloc_r+0x38c>
 18051ec:	80800117 	ldw	r2,4(r16)
 18051f0:	00ffff04 	movi	r3,-4
 18051f4:	10ca703a 	and	r5,r2,r3
 18051f8:	2c4dc83a 	sub	r6,r5,r17
 18051fc:	008003c4 	movi	r2,15
 1805200:	11808316 	blt	r2,r6,1805410 <_malloc_r+0x330>
 1805204:	52800315 	stw	r10,12(r10)
 1805208:	52800215 	stw	r10,8(r10)
 180520c:	30002916 	blt	r6,zero,18052b4 <_malloc_r+0x1d4>
 1805210:	8147883a 	add	r3,r16,r5
 1805214:	18800117 	ldw	r2,4(r3)
 1805218:	9009883a 	mov	r4,r18
 180521c:	10800054 	ori	r2,r2,1
 1805220:	18800115 	stw	r2,4(r3)
 1805224:	180a2680 	call	180a268 <__malloc_unlock>
 1805228:	80c00204 	addi	r3,r16,8
 180522c:	003fc006 	br	1805130 <_malloc_r+0x50>
 1805230:	02c06074 	movhi	r11,385
 1805234:	5ac49804 	addi	r11,r11,4704
 1805238:	8ac5883a 	add	r2,r17,r11
 180523c:	14000317 	ldw	r16,12(r2)
 1805240:	580f883a 	mov	r7,r11
 1805244:	8806d0fa 	srli	r3,r17,3
 1805248:	14006c26 	beq	r2,r16,18053fc <_malloc_r+0x31c>
 180524c:	80c00117 	ldw	r3,4(r16)
 1805250:	00bfff04 	movi	r2,-4
 1805254:	81800317 	ldw	r6,12(r16)
 1805258:	1886703a 	and	r3,r3,r2
 180525c:	80c7883a 	add	r3,r16,r3
 1805260:	18800117 	ldw	r2,4(r3)
 1805264:	81400217 	ldw	r5,8(r16)
 1805268:	9009883a 	mov	r4,r18
 180526c:	10800054 	ori	r2,r2,1
 1805270:	18800115 	stw	r2,4(r3)
 1805274:	31400215 	stw	r5,8(r6)
 1805278:	29800315 	stw	r6,12(r5)
 180527c:	180a2680 	call	180a268 <__malloc_unlock>
 1805280:	80c00204 	addi	r3,r16,8
 1805284:	003faa06 	br	1805130 <_malloc_r+0x50>
 1805288:	00800104 	movi	r2,4
 180528c:	10c0052e 	bgeu	r2,r3,18052a4 <_malloc_r+0x1c4>
 1805290:	00800504 	movi	r2,20
 1805294:	10c07836 	bltu	r2,r3,1805478 <_malloc_r+0x398>
 1805298:	198016c4 	addi	r6,r3,91
 180529c:	300490fa 	slli	r2,r6,3
 18052a0:	003fbc06 	br	1805194 <_malloc_r+0xb4>
 18052a4:	8804d1ba 	srli	r2,r17,6
 18052a8:	11800e04 	addi	r6,r2,56
 18052ac:	300490fa 	slli	r2,r6,3
 18052b0:	003fb806 	br	1805194 <_malloc_r+0xb4>
 18052b4:	00807fc4 	movi	r2,511
 18052b8:	1140bb36 	bltu	r2,r5,18055a8 <_malloc_r+0x4c8>
 18052bc:	2806d0fa 	srli	r3,r5,3
 18052c0:	573ffe04 	addi	fp,r10,-8
 18052c4:	00800044 	movi	r2,1
 18052c8:	180890fa 	slli	r4,r3,3
 18052cc:	1807d0ba 	srai	r3,r3,2
 18052d0:	e1c00117 	ldw	r7,4(fp)
 18052d4:	5909883a 	add	r4,r11,r4
 18052d8:	21400217 	ldw	r5,8(r4)
 18052dc:	10c4983a 	sll	r2,r2,r3
 18052e0:	81000315 	stw	r4,12(r16)
 18052e4:	81400215 	stw	r5,8(r16)
 18052e8:	388eb03a 	or	r7,r7,r2
 18052ec:	2c000315 	stw	r16,12(r5)
 18052f0:	24000215 	stw	r16,8(r4)
 18052f4:	e1c00115 	stw	r7,4(fp)
 18052f8:	4807883a 	mov	r3,r9
 18052fc:	4800cd16 	blt	r9,zero,1805634 <_malloc_r+0x554>
 1805300:	1807d0ba 	srai	r3,r3,2
 1805304:	00800044 	movi	r2,1
 1805308:	10c8983a 	sll	r4,r2,r3
 180530c:	39004436 	bltu	r7,r4,1805420 <_malloc_r+0x340>
 1805310:	21c4703a 	and	r2,r4,r7
 1805314:	10000a1e 	bne	r2,zero,1805340 <_malloc_r+0x260>
 1805318:	2109883a 	add	r4,r4,r4
 180531c:	00bfff04 	movi	r2,-4
 1805320:	4884703a 	and	r2,r9,r2
 1805324:	3906703a 	and	r3,r7,r4
 1805328:	12400104 	addi	r9,r2,4
 180532c:	1800041e 	bne	r3,zero,1805340 <_malloc_r+0x260>
 1805330:	2109883a 	add	r4,r4,r4
 1805334:	3904703a 	and	r2,r7,r4
 1805338:	4a400104 	addi	r9,r9,4
 180533c:	103ffc26 	beq	r2,zero,1805330 <_malloc_r+0x250>
 1805340:	480490fa 	slli	r2,r9,3
 1805344:	4819883a 	mov	r12,r9
 1805348:	023fff04 	movi	r8,-4
 180534c:	589b883a 	add	r13,r11,r2
 1805350:	6807883a 	mov	r3,r13
 1805354:	014003c4 	movi	r5,15
 1805358:	1c000317 	ldw	r16,12(r3)
 180535c:	1c00041e 	bne	r3,r16,1805370 <_malloc_r+0x290>
 1805360:	0000a706 	br	1805600 <_malloc_r+0x520>
 1805364:	3000ab0e 	bge	r6,zero,1805614 <_malloc_r+0x534>
 1805368:	84000317 	ldw	r16,12(r16)
 180536c:	1c00a426 	beq	r3,r16,1805600 <_malloc_r+0x520>
 1805370:	80800117 	ldw	r2,4(r16)
 1805374:	1204703a 	and	r2,r2,r8
 1805378:	144dc83a 	sub	r6,r2,r17
 180537c:	29bff90e 	bge	r5,r6,1805364 <_malloc_r+0x284>
 1805380:	81000317 	ldw	r4,12(r16)
 1805384:	80c00217 	ldw	r3,8(r16)
 1805388:	89400054 	ori	r5,r17,1
 180538c:	8445883a 	add	r2,r16,r17
 1805390:	20c00215 	stw	r3,8(r4)
 1805394:	19000315 	stw	r4,12(r3)
 1805398:	81400115 	stw	r5,4(r16)
 180539c:	1187883a 	add	r3,r2,r6
 18053a0:	31000054 	ori	r4,r6,1
 18053a4:	50800315 	stw	r2,12(r10)
 18053a8:	50800215 	stw	r2,8(r10)
 18053ac:	19800015 	stw	r6,0(r3)
 18053b0:	11000115 	stw	r4,4(r2)
 18053b4:	12800215 	stw	r10,8(r2)
 18053b8:	12800315 	stw	r10,12(r2)
 18053bc:	9009883a 	mov	r4,r18
 18053c0:	180a2680 	call	180a268 <__malloc_unlock>
 18053c4:	80c00204 	addi	r3,r16,8
 18053c8:	003f5906 	br	1805130 <_malloc_r+0x50>
 18053cc:	8109883a 	add	r4,r16,r4
 18053d0:	20800117 	ldw	r2,4(r4)
 18053d4:	80c00217 	ldw	r3,8(r16)
 18053d8:	81400317 	ldw	r5,12(r16)
 18053dc:	10800054 	ori	r2,r2,1
 18053e0:	20800115 	stw	r2,4(r4)
 18053e4:	28c00215 	stw	r3,8(r5)
 18053e8:	19400315 	stw	r5,12(r3)
 18053ec:	9009883a 	mov	r4,r18
 18053f0:	180a2680 	call	180a268 <__malloc_unlock>
 18053f4:	80c00204 	addi	r3,r16,8
 18053f8:	003f4d06 	br	1805130 <_malloc_r+0x50>
 18053fc:	80800204 	addi	r2,r16,8
 1805400:	14000317 	ldw	r16,12(r2)
 1805404:	143f911e 	bne	r2,r16,180524c <_malloc_r+0x16c>
 1805408:	1a400084 	addi	r9,r3,2
 180540c:	003f7306 	br	18051dc <_malloc_r+0xfc>
 1805410:	88c00054 	ori	r3,r17,1
 1805414:	8445883a 	add	r2,r16,r17
 1805418:	80c00115 	stw	r3,4(r16)
 180541c:	003fdf06 	br	180539c <_malloc_r+0x2bc>
 1805420:	e4000217 	ldw	r16,8(fp)
 1805424:	00bfff04 	movi	r2,-4
 1805428:	80c00117 	ldw	r3,4(r16)
 180542c:	802d883a 	mov	r22,r16
 1805430:	18aa703a 	and	r21,r3,r2
 1805434:	ac401636 	bltu	r21,r17,1805490 <_malloc_r+0x3b0>
 1805438:	ac49c83a 	sub	r4,r21,r17
 180543c:	008003c4 	movi	r2,15
 1805440:	1100130e 	bge	r2,r4,1805490 <_malloc_r+0x3b0>
 1805444:	88800054 	ori	r2,r17,1
 1805448:	8447883a 	add	r3,r16,r17
 180544c:	80800115 	stw	r2,4(r16)
 1805450:	20800054 	ori	r2,r4,1
 1805454:	18800115 	stw	r2,4(r3)
 1805458:	e0c00215 	stw	r3,8(fp)
 180545c:	9009883a 	mov	r4,r18
 1805460:	180a2680 	call	180a268 <__malloc_unlock>
 1805464:	80c00204 	addi	r3,r16,8
 1805468:	003f3106 	br	1805130 <_malloc_r+0x50>
 180546c:	39c00117 	ldw	r7,4(r7)
 1805470:	573ffe04 	addi	fp,r10,-8
 1805474:	003fa006 	br	18052f8 <_malloc_r+0x218>
 1805478:	00801504 	movi	r2,84
 180547c:	10c06736 	bltu	r2,r3,180561c <_malloc_r+0x53c>
 1805480:	8804d33a 	srli	r2,r17,12
 1805484:	11801b84 	addi	r6,r2,110
 1805488:	300490fa 	slli	r2,r6,3
 180548c:	003f4106 	br	1805194 <_malloc_r+0xb4>
 1805490:	d0a01717 	ldw	r2,-32676(gp)
 1805494:	d0e00517 	ldw	r3,-32748(gp)
 1805498:	053fffc4 	movi	r20,-1
 180549c:	10800404 	addi	r2,r2,16
 18054a0:	88a7883a 	add	r19,r17,r2
 18054a4:	1d000326 	beq	r3,r20,18054b4 <_malloc_r+0x3d4>
 18054a8:	98c3ffc4 	addi	r3,r19,4095
 18054ac:	00bc0004 	movi	r2,-4096
 18054b0:	18a6703a 	and	r19,r3,r2
 18054b4:	9009883a 	mov	r4,r18
 18054b8:	980b883a 	mov	r5,r19
 18054bc:	18071740 	call	1807174 <_sbrk_r>
 18054c0:	1009883a 	mov	r4,r2
 18054c4:	15000426 	beq	r2,r20,18054d8 <_malloc_r+0x3f8>
 18054c8:	854b883a 	add	r5,r16,r21
 18054cc:	1029883a 	mov	r20,r2
 18054d0:	11405a2e 	bgeu	r2,r5,180563c <_malloc_r+0x55c>
 18054d4:	87000c26 	beq	r16,fp,1805508 <_malloc_r+0x428>
 18054d8:	e4000217 	ldw	r16,8(fp)
 18054dc:	80c00117 	ldw	r3,4(r16)
 18054e0:	00bfff04 	movi	r2,-4
 18054e4:	1884703a 	and	r2,r3,r2
 18054e8:	14400336 	bltu	r2,r17,18054f8 <_malloc_r+0x418>
 18054ec:	1449c83a 	sub	r4,r2,r17
 18054f0:	008003c4 	movi	r2,15
 18054f4:	113fd316 	blt	r2,r4,1805444 <_malloc_r+0x364>
 18054f8:	9009883a 	mov	r4,r18
 18054fc:	180a2680 	call	180a268 <__malloc_unlock>
 1805500:	0007883a 	mov	r3,zero
 1805504:	003f0a06 	br	1805130 <_malloc_r+0x50>
 1805508:	05c06074 	movhi	r23,385
 180550c:	bdcaed04 	addi	r23,r23,11188
 1805510:	b8800017 	ldw	r2,0(r23)
 1805514:	988d883a 	add	r6,r19,r2
 1805518:	b9800015 	stw	r6,0(r23)
 180551c:	d0e00517 	ldw	r3,-32748(gp)
 1805520:	00bfffc4 	movi	r2,-1
 1805524:	18808e26 	beq	r3,r2,1805760 <_malloc_r+0x680>
 1805528:	2145c83a 	sub	r2,r4,r5
 180552c:	3085883a 	add	r2,r6,r2
 1805530:	b8800015 	stw	r2,0(r23)
 1805534:	20c001cc 	andi	r3,r4,7
 1805538:	18005f1e 	bne	r3,zero,18056b8 <_malloc_r+0x5d8>
 180553c:	000b883a 	mov	r5,zero
 1805540:	a4c5883a 	add	r2,r20,r19
 1805544:	1083ffcc 	andi	r2,r2,4095
 1805548:	00c40004 	movi	r3,4096
 180554c:	1887c83a 	sub	r3,r3,r2
 1805550:	28e7883a 	add	r19,r5,r3
 1805554:	9009883a 	mov	r4,r18
 1805558:	980b883a 	mov	r5,r19
 180555c:	18071740 	call	1807174 <_sbrk_r>
 1805560:	1007883a 	mov	r3,r2
 1805564:	00bfffc4 	movi	r2,-1
 1805568:	18807a26 	beq	r3,r2,1805754 <_malloc_r+0x674>
 180556c:	1d05c83a 	sub	r2,r3,r20
 1805570:	9885883a 	add	r2,r19,r2
 1805574:	10c00054 	ori	r3,r2,1
 1805578:	b8800017 	ldw	r2,0(r23)
 180557c:	a021883a 	mov	r16,r20
 1805580:	a0c00115 	stw	r3,4(r20)
 1805584:	9885883a 	add	r2,r19,r2
 1805588:	b8800015 	stw	r2,0(r23)
 180558c:	e5000215 	stw	r20,8(fp)
 1805590:	b7003626 	beq	r22,fp,180566c <_malloc_r+0x58c>
 1805594:	018003c4 	movi	r6,15
 1805598:	35404b36 	bltu	r6,r21,18056c8 <_malloc_r+0x5e8>
 180559c:	00800044 	movi	r2,1
 18055a0:	a0800115 	stw	r2,4(r20)
 18055a4:	003fcd06 	br	18054dc <_malloc_r+0x3fc>
 18055a8:	2808d27a 	srli	r4,r5,9
 18055ac:	2000371e 	bne	r4,zero,180568c <_malloc_r+0x5ac>
 18055b0:	2808d0fa 	srli	r4,r5,3
 18055b4:	200690fa 	slli	r3,r4,3
 18055b8:	1ad1883a 	add	r8,r3,r11
 18055bc:	41800217 	ldw	r6,8(r8)
 18055c0:	41805b26 	beq	r8,r6,1805730 <_malloc_r+0x650>
 18055c4:	30800117 	ldw	r2,4(r6)
 18055c8:	00ffff04 	movi	r3,-4
 18055cc:	10c4703a 	and	r2,r2,r3
 18055d0:	2880022e 	bgeu	r5,r2,18055dc <_malloc_r+0x4fc>
 18055d4:	31800217 	ldw	r6,8(r6)
 18055d8:	41bffa1e 	bne	r8,r6,18055c4 <_malloc_r+0x4e4>
 18055dc:	32000317 	ldw	r8,12(r6)
 18055e0:	39c00117 	ldw	r7,4(r7)
 18055e4:	82000315 	stw	r8,12(r16)
 18055e8:	81800215 	stw	r6,8(r16)
 18055ec:	07006074 	movhi	fp,385
 18055f0:	e7049804 	addi	fp,fp,4704
 18055f4:	34000315 	stw	r16,12(r6)
 18055f8:	44000215 	stw	r16,8(r8)
 18055fc:	003f3e06 	br	18052f8 <_malloc_r+0x218>
 1805600:	63000044 	addi	r12,r12,1
 1805604:	608000cc 	andi	r2,r12,3
 1805608:	10005d26 	beq	r2,zero,1805780 <_malloc_r+0x6a0>
 180560c:	18c00204 	addi	r3,r3,8
 1805610:	003f5106 	br	1805358 <_malloc_r+0x278>
 1805614:	8089883a 	add	r4,r16,r2
 1805618:	003f6d06 	br	18053d0 <_malloc_r+0x2f0>
 180561c:	00805504 	movi	r2,340
 1805620:	10c02036 	bltu	r2,r3,18056a4 <_malloc_r+0x5c4>
 1805624:	8804d3fa 	srli	r2,r17,15
 1805628:	11801dc4 	addi	r6,r2,119
 180562c:	300490fa 	slli	r2,r6,3
 1805630:	003ed806 	br	1805194 <_malloc_r+0xb4>
 1805634:	48c000c4 	addi	r3,r9,3
 1805638:	003f3106 	br	1805300 <_malloc_r+0x220>
 180563c:	05c06074 	movhi	r23,385
 1805640:	bdcaed04 	addi	r23,r23,11188
 1805644:	b8800017 	ldw	r2,0(r23)
 1805648:	988d883a 	add	r6,r19,r2
 180564c:	b9800015 	stw	r6,0(r23)
 1805650:	293fb21e 	bne	r5,r4,180551c <_malloc_r+0x43c>
 1805654:	2083ffcc 	andi	r2,r4,4095
 1805658:	103fb01e 	bne	r2,zero,180551c <_malloc_r+0x43c>
 180565c:	e4000217 	ldw	r16,8(fp)
 1805660:	9d45883a 	add	r2,r19,r21
 1805664:	10800054 	ori	r2,r2,1
 1805668:	80800115 	stw	r2,4(r16)
 180566c:	b8c00017 	ldw	r3,0(r23)
 1805670:	d0a01817 	ldw	r2,-32672(gp)
 1805674:	10c0012e 	bgeu	r2,r3,180567c <_malloc_r+0x59c>
 1805678:	d0e01815 	stw	r3,-32672(gp)
 180567c:	d0a01917 	ldw	r2,-32668(gp)
 1805680:	10ff962e 	bgeu	r2,r3,18054dc <_malloc_r+0x3fc>
 1805684:	d0e01915 	stw	r3,-32668(gp)
 1805688:	003f9406 	br	18054dc <_malloc_r+0x3fc>
 180568c:	00800104 	movi	r2,4
 1805690:	11001e36 	bltu	r2,r4,180570c <_malloc_r+0x62c>
 1805694:	2804d1ba 	srli	r2,r5,6
 1805698:	11000e04 	addi	r4,r2,56
 180569c:	200690fa 	slli	r3,r4,3
 18056a0:	003fc506 	br	18055b8 <_malloc_r+0x4d8>
 18056a4:	00815504 	movi	r2,1364
 18056a8:	10c01d2e 	bgeu	r2,r3,1805720 <_malloc_r+0x640>
 18056ac:	01801f84 	movi	r6,126
 18056b0:	0080fc04 	movi	r2,1008
 18056b4:	003eb706 	br	1805194 <_malloc_r+0xb4>
 18056b8:	00800204 	movi	r2,8
 18056bc:	10cbc83a 	sub	r5,r2,r3
 18056c0:	2169883a 	add	r20,r4,r5
 18056c4:	003f9e06 	br	1805540 <_malloc_r+0x460>
 18056c8:	00bffe04 	movi	r2,-8
 18056cc:	a93ffd04 	addi	r4,r21,-12
 18056d0:	2088703a 	and	r4,r4,r2
 18056d4:	b10b883a 	add	r5,r22,r4
 18056d8:	00c00144 	movi	r3,5
 18056dc:	28c00215 	stw	r3,8(r5)
 18056e0:	28c00115 	stw	r3,4(r5)
 18056e4:	b0800117 	ldw	r2,4(r22)
 18056e8:	1080004c 	andi	r2,r2,1
 18056ec:	2084b03a 	or	r2,r4,r2
 18056f0:	b0800115 	stw	r2,4(r22)
 18056f4:	313fdd2e 	bgeu	r6,r4,180566c <_malloc_r+0x58c>
 18056f8:	b1400204 	addi	r5,r22,8
 18056fc:	9009883a 	mov	r4,r18
 1805700:	18045580 	call	1804558 <_free_r>
 1805704:	e4000217 	ldw	r16,8(fp)
 1805708:	003fd806 	br	180566c <_malloc_r+0x58c>
 180570c:	00800504 	movi	r2,20
 1805710:	11001536 	bltu	r2,r4,1805768 <_malloc_r+0x688>
 1805714:	210016c4 	addi	r4,r4,91
 1805718:	200690fa 	slli	r3,r4,3
 180571c:	003fa606 	br	18055b8 <_malloc_r+0x4d8>
 1805720:	8804d4ba 	srli	r2,r17,18
 1805724:	11801f04 	addi	r6,r2,124
 1805728:	300490fa 	slli	r2,r6,3
 180572c:	003e9906 	br	1805194 <_malloc_r+0xb4>
 1805730:	2009d0ba 	srai	r4,r4,2
 1805734:	01406074 	movhi	r5,385
 1805738:	29449804 	addi	r5,r5,4704
 180573c:	00c00044 	movi	r3,1
 1805740:	28800117 	ldw	r2,4(r5)
 1805744:	1906983a 	sll	r3,r3,r4
 1805748:	10c4b03a 	or	r2,r2,r3
 180574c:	28800115 	stw	r2,4(r5)
 1805750:	003fa306 	br	18055e0 <_malloc_r+0x500>
 1805754:	0027883a 	mov	r19,zero
 1805758:	00c00044 	movi	r3,1
 180575c:	003f8606 	br	1805578 <_malloc_r+0x498>
 1805760:	d1200515 	stw	r4,-32748(gp)
 1805764:	003f7306 	br	1805534 <_malloc_r+0x454>
 1805768:	00801504 	movi	r2,84
 180576c:	11001936 	bltu	r2,r4,18057d4 <_malloc_r+0x6f4>
 1805770:	2804d33a 	srli	r2,r5,12
 1805774:	11001b84 	addi	r4,r2,110
 1805778:	200690fa 	slli	r3,r4,3
 180577c:	003f8e06 	br	18055b8 <_malloc_r+0x4d8>
 1805780:	480b883a 	mov	r5,r9
 1805784:	6807883a 	mov	r3,r13
 1805788:	288000cc 	andi	r2,r5,3
 180578c:	18fffe04 	addi	r3,r3,-8
 1805790:	297fffc4 	addi	r5,r5,-1
 1805794:	10001526 	beq	r2,zero,18057ec <_malloc_r+0x70c>
 1805798:	18800217 	ldw	r2,8(r3)
 180579c:	10fffa26 	beq	r2,r3,1805788 <_malloc_r+0x6a8>
 18057a0:	2109883a 	add	r4,r4,r4
 18057a4:	393f1e36 	bltu	r7,r4,1805420 <_malloc_r+0x340>
 18057a8:	203f1d26 	beq	r4,zero,1805420 <_malloc_r+0x340>
 18057ac:	21c4703a 	and	r2,r4,r7
 18057b0:	10000226 	beq	r2,zero,18057bc <_malloc_r+0x6dc>
 18057b4:	6013883a 	mov	r9,r12
 18057b8:	003ee106 	br	1805340 <_malloc_r+0x260>
 18057bc:	2109883a 	add	r4,r4,r4
 18057c0:	3904703a 	and	r2,r7,r4
 18057c4:	63000104 	addi	r12,r12,4
 18057c8:	103ffc26 	beq	r2,zero,18057bc <_malloc_r+0x6dc>
 18057cc:	6013883a 	mov	r9,r12
 18057d0:	003edb06 	br	1805340 <_malloc_r+0x260>
 18057d4:	00805504 	movi	r2,340
 18057d8:	11000836 	bltu	r2,r4,18057fc <_malloc_r+0x71c>
 18057dc:	2804d3fa 	srli	r2,r5,15
 18057e0:	11001dc4 	addi	r4,r2,119
 18057e4:	200690fa 	slli	r3,r4,3
 18057e8:	003f7306 	br	18055b8 <_malloc_r+0x4d8>
 18057ec:	0104303a 	nor	r2,zero,r4
 18057f0:	388e703a 	and	r7,r7,r2
 18057f4:	e1c00115 	stw	r7,4(fp)
 18057f8:	003fe906 	br	18057a0 <_malloc_r+0x6c0>
 18057fc:	00815504 	movi	r2,1364
 1805800:	1100032e 	bgeu	r2,r4,1805810 <_malloc_r+0x730>
 1805804:	01001f84 	movi	r4,126
 1805808:	00c0fc04 	movi	r3,1008
 180580c:	003f6a06 	br	18055b8 <_malloc_r+0x4d8>
 1805810:	2804d4ba 	srli	r2,r5,18
 1805814:	11001f04 	addi	r4,r2,124
 1805818:	200690fa 	slli	r3,r4,3
 180581c:	003f6606 	br	18055b8 <_malloc_r+0x4d8>

01805820 <memchr>:
 1805820:	008000c4 	movi	r2,3
 1805824:	29403fcc 	andi	r5,r5,255
 1805828:	2007883a 	mov	r3,r4
 180582c:	1180022e 	bgeu	r2,r6,1805838 <memchr+0x18>
 1805830:	2084703a 	and	r2,r4,r2
 1805834:	10000b26 	beq	r2,zero,1805864 <memchr+0x44>
 1805838:	313fffc4 	addi	r4,r6,-1
 180583c:	3000051e 	bne	r6,zero,1805854 <memchr+0x34>
 1805840:	00002c06 	br	18058f4 <memchr+0xd4>
 1805844:	213fffc4 	addi	r4,r4,-1
 1805848:	00bfffc4 	movi	r2,-1
 180584c:	18c00044 	addi	r3,r3,1
 1805850:	20802826 	beq	r4,r2,18058f4 <memchr+0xd4>
 1805854:	18800003 	ldbu	r2,0(r3)
 1805858:	28bffa1e 	bne	r5,r2,1805844 <memchr+0x24>
 180585c:	1805883a 	mov	r2,r3
 1805860:	f800283a 	ret
 1805864:	0011883a 	mov	r8,zero
 1805868:	0007883a 	mov	r3,zero
 180586c:	01c00104 	movi	r7,4
 1805870:	4004923a 	slli	r2,r8,8
 1805874:	18c00044 	addi	r3,r3,1
 1805878:	1151883a 	add	r8,r2,r5
 180587c:	19fffc1e 	bne	r3,r7,1805870 <memchr+0x50>
 1805880:	02bfbff4 	movhi	r10,65279
 1805884:	52bfbfc4 	addi	r10,r10,-257
 1805888:	02602074 	movhi	r9,32897
 180588c:	4a602004 	addi	r9,r9,-32640
 1805890:	02c000c4 	movi	r11,3
 1805894:	20800017 	ldw	r2,0(r4)
 1805898:	31bfff04 	addi	r6,r6,-4
 180589c:	200f883a 	mov	r7,r4
 18058a0:	1204f03a 	xor	r2,r2,r8
 18058a4:	1287883a 	add	r3,r2,r10
 18058a8:	1a46703a 	and	r3,r3,r9
 18058ac:	0084303a 	nor	r2,zero,r2
 18058b0:	10c4703a 	and	r2,r2,r3
 18058b4:	10000b26 	beq	r2,zero,18058e4 <memchr+0xc4>
 18058b8:	20800003 	ldbu	r2,0(r4)
 18058bc:	28800f26 	beq	r5,r2,18058fc <memchr+0xdc>
 18058c0:	20800043 	ldbu	r2,1(r4)
 18058c4:	21c00044 	addi	r7,r4,1
 18058c8:	28800c26 	beq	r5,r2,18058fc <memchr+0xdc>
 18058cc:	20800083 	ldbu	r2,2(r4)
 18058d0:	21c00084 	addi	r7,r4,2
 18058d4:	28800926 	beq	r5,r2,18058fc <memchr+0xdc>
 18058d8:	208000c3 	ldbu	r2,3(r4)
 18058dc:	21c000c4 	addi	r7,r4,3
 18058e0:	28800626 	beq	r5,r2,18058fc <memchr+0xdc>
 18058e4:	21000104 	addi	r4,r4,4
 18058e8:	59bfea36 	bltu	r11,r6,1805894 <memchr+0x74>
 18058ec:	2007883a 	mov	r3,r4
 18058f0:	003fd106 	br	1805838 <memchr+0x18>
 18058f4:	0005883a 	mov	r2,zero
 18058f8:	f800283a 	ret
 18058fc:	3805883a 	mov	r2,r7
 1805900:	f800283a 	ret

01805904 <memcpy>:
 1805904:	01c003c4 	movi	r7,15
 1805908:	2007883a 	mov	r3,r4
 180590c:	3980032e 	bgeu	r7,r6,180591c <memcpy+0x18>
 1805910:	2904b03a 	or	r2,r5,r4
 1805914:	108000cc 	andi	r2,r2,3
 1805918:	10000926 	beq	r2,zero,1805940 <memcpy+0x3c>
 180591c:	30000626 	beq	r6,zero,1805938 <memcpy+0x34>
 1805920:	30cd883a 	add	r6,r6,r3
 1805924:	28800003 	ldbu	r2,0(r5)
 1805928:	29400044 	addi	r5,r5,1
 180592c:	18800005 	stb	r2,0(r3)
 1805930:	18c00044 	addi	r3,r3,1
 1805934:	30fffb1e 	bne	r6,r3,1805924 <memcpy+0x20>
 1805938:	2005883a 	mov	r2,r4
 180593c:	f800283a 	ret
 1805940:	3811883a 	mov	r8,r7
 1805944:	200f883a 	mov	r7,r4
 1805948:	28c00017 	ldw	r3,0(r5)
 180594c:	31bffc04 	addi	r6,r6,-16
 1805950:	38c00015 	stw	r3,0(r7)
 1805954:	28800117 	ldw	r2,4(r5)
 1805958:	38800115 	stw	r2,4(r7)
 180595c:	28c00217 	ldw	r3,8(r5)
 1805960:	38c00215 	stw	r3,8(r7)
 1805964:	28800317 	ldw	r2,12(r5)
 1805968:	29400404 	addi	r5,r5,16
 180596c:	38800315 	stw	r2,12(r7)
 1805970:	39c00404 	addi	r7,r7,16
 1805974:	41bff436 	bltu	r8,r6,1805948 <memcpy+0x44>
 1805978:	008000c4 	movi	r2,3
 180597c:	1180072e 	bgeu	r2,r6,180599c <memcpy+0x98>
 1805980:	1007883a 	mov	r3,r2
 1805984:	28800017 	ldw	r2,0(r5)
 1805988:	31bfff04 	addi	r6,r6,-4
 180598c:	29400104 	addi	r5,r5,4
 1805990:	38800015 	stw	r2,0(r7)
 1805994:	39c00104 	addi	r7,r7,4
 1805998:	19bffa36 	bltu	r3,r6,1805984 <memcpy+0x80>
 180599c:	3807883a 	mov	r3,r7
 18059a0:	003fde06 	br	180591c <memcpy+0x18>

018059a4 <memmove>:
 18059a4:	2807883a 	mov	r3,r5
 18059a8:	2011883a 	mov	r8,r4
 18059ac:	29000c2e 	bgeu	r5,r4,18059e0 <memmove+0x3c>
 18059b0:	298f883a 	add	r7,r5,r6
 18059b4:	21c00a2e 	bgeu	r4,r7,18059e0 <memmove+0x3c>
 18059b8:	30000726 	beq	r6,zero,18059d8 <memmove+0x34>
 18059bc:	2187883a 	add	r3,r4,r6
 18059c0:	198dc83a 	sub	r6,r3,r6
 18059c4:	39ffffc4 	addi	r7,r7,-1
 18059c8:	38800003 	ldbu	r2,0(r7)
 18059cc:	18ffffc4 	addi	r3,r3,-1
 18059d0:	18800005 	stb	r2,0(r3)
 18059d4:	19bffb1e 	bne	r3,r6,18059c4 <memmove+0x20>
 18059d8:	2005883a 	mov	r2,r4
 18059dc:	f800283a 	ret
 18059e0:	01c003c4 	movi	r7,15
 18059e4:	39800a36 	bltu	r7,r6,1805a10 <memmove+0x6c>
 18059e8:	303ffb26 	beq	r6,zero,18059d8 <memmove+0x34>
 18059ec:	400f883a 	mov	r7,r8
 18059f0:	320d883a 	add	r6,r6,r8
 18059f4:	28800003 	ldbu	r2,0(r5)
 18059f8:	29400044 	addi	r5,r5,1
 18059fc:	38800005 	stb	r2,0(r7)
 1805a00:	39c00044 	addi	r7,r7,1
 1805a04:	39bffb1e 	bne	r7,r6,18059f4 <memmove+0x50>
 1805a08:	2005883a 	mov	r2,r4
 1805a0c:	f800283a 	ret
 1805a10:	1904b03a 	or	r2,r3,r4
 1805a14:	108000cc 	andi	r2,r2,3
 1805a18:	103ff31e 	bne	r2,zero,18059e8 <memmove+0x44>
 1805a1c:	3811883a 	mov	r8,r7
 1805a20:	180b883a 	mov	r5,r3
 1805a24:	200f883a 	mov	r7,r4
 1805a28:	28c00017 	ldw	r3,0(r5)
 1805a2c:	31bffc04 	addi	r6,r6,-16
 1805a30:	38c00015 	stw	r3,0(r7)
 1805a34:	28800117 	ldw	r2,4(r5)
 1805a38:	38800115 	stw	r2,4(r7)
 1805a3c:	28c00217 	ldw	r3,8(r5)
 1805a40:	38c00215 	stw	r3,8(r7)
 1805a44:	28800317 	ldw	r2,12(r5)
 1805a48:	29400404 	addi	r5,r5,16
 1805a4c:	38800315 	stw	r2,12(r7)
 1805a50:	39c00404 	addi	r7,r7,16
 1805a54:	41bff436 	bltu	r8,r6,1805a28 <memmove+0x84>
 1805a58:	008000c4 	movi	r2,3
 1805a5c:	1180072e 	bgeu	r2,r6,1805a7c <memmove+0xd8>
 1805a60:	1007883a 	mov	r3,r2
 1805a64:	28800017 	ldw	r2,0(r5)
 1805a68:	31bfff04 	addi	r6,r6,-4
 1805a6c:	29400104 	addi	r5,r5,4
 1805a70:	38800015 	stw	r2,0(r7)
 1805a74:	39c00104 	addi	r7,r7,4
 1805a78:	19bffa36 	bltu	r3,r6,1805a64 <memmove+0xc0>
 1805a7c:	3811883a 	mov	r8,r7
 1805a80:	003fd906 	br	18059e8 <memmove+0x44>

01805a84 <memset>:
 1805a84:	008000c4 	movi	r2,3
 1805a88:	29403fcc 	andi	r5,r5,255
 1805a8c:	2007883a 	mov	r3,r4
 1805a90:	1180022e 	bgeu	r2,r6,1805a9c <memset+0x18>
 1805a94:	2084703a 	and	r2,r4,r2
 1805a98:	10000826 	beq	r2,zero,1805abc <memset+0x38>
 1805a9c:	30000526 	beq	r6,zero,1805ab4 <memset+0x30>
 1805aa0:	2805883a 	mov	r2,r5
 1805aa4:	30cd883a 	add	r6,r6,r3
 1805aa8:	18800005 	stb	r2,0(r3)
 1805aac:	18c00044 	addi	r3,r3,1
 1805ab0:	19bffd1e 	bne	r3,r6,1805aa8 <memset+0x24>
 1805ab4:	2005883a 	mov	r2,r4
 1805ab8:	f800283a 	ret
 1805abc:	2804923a 	slli	r2,r5,8
 1805ac0:	020003c4 	movi	r8,15
 1805ac4:	200f883a 	mov	r7,r4
 1805ac8:	2884b03a 	or	r2,r5,r2
 1805acc:	1006943a 	slli	r3,r2,16
 1805ad0:	10c6b03a 	or	r3,r2,r3
 1805ad4:	41800a2e 	bgeu	r8,r6,1805b00 <memset+0x7c>
 1805ad8:	4005883a 	mov	r2,r8
 1805adc:	31bffc04 	addi	r6,r6,-16
 1805ae0:	38c00015 	stw	r3,0(r7)
 1805ae4:	38c00115 	stw	r3,4(r7)
 1805ae8:	38c00215 	stw	r3,8(r7)
 1805aec:	38c00315 	stw	r3,12(r7)
 1805af0:	39c00404 	addi	r7,r7,16
 1805af4:	11bff936 	bltu	r2,r6,1805adc <memset+0x58>
 1805af8:	008000c4 	movi	r2,3
 1805afc:	1180052e 	bgeu	r2,r6,1805b14 <memset+0x90>
 1805b00:	31bfff04 	addi	r6,r6,-4
 1805b04:	008000c4 	movi	r2,3
 1805b08:	38c00015 	stw	r3,0(r7)
 1805b0c:	39c00104 	addi	r7,r7,4
 1805b10:	11bffb36 	bltu	r2,r6,1805b00 <memset+0x7c>
 1805b14:	3807883a 	mov	r3,r7
 1805b18:	003fe006 	br	1805a9c <memset+0x18>

01805b1c <_Bfree>:
 1805b1c:	28000826 	beq	r5,zero,1805b40 <_Bfree+0x24>
 1805b20:	28800117 	ldw	r2,4(r5)
 1805b24:	21001317 	ldw	r4,76(r4)
 1805b28:	1085883a 	add	r2,r2,r2
 1805b2c:	1085883a 	add	r2,r2,r2
 1805b30:	1105883a 	add	r2,r2,r4
 1805b34:	10c00017 	ldw	r3,0(r2)
 1805b38:	28c00015 	stw	r3,0(r5)
 1805b3c:	11400015 	stw	r5,0(r2)
 1805b40:	f800283a 	ret

01805b44 <__hi0bits>:
 1805b44:	20bfffec 	andhi	r2,r4,65535
 1805b48:	10001426 	beq	r2,zero,1805b9c <__hi0bits+0x58>
 1805b4c:	0007883a 	mov	r3,zero
 1805b50:	20bfc02c 	andhi	r2,r4,65280
 1805b54:	1000021e 	bne	r2,zero,1805b60 <__hi0bits+0x1c>
 1805b58:	2008923a 	slli	r4,r4,8
 1805b5c:	18c00204 	addi	r3,r3,8
 1805b60:	20bc002c 	andhi	r2,r4,61440
 1805b64:	1000021e 	bne	r2,zero,1805b70 <__hi0bits+0x2c>
 1805b68:	2008913a 	slli	r4,r4,4
 1805b6c:	18c00104 	addi	r3,r3,4
 1805b70:	20b0002c 	andhi	r2,r4,49152
 1805b74:	1000031e 	bne	r2,zero,1805b84 <__hi0bits+0x40>
 1805b78:	2105883a 	add	r2,r4,r4
 1805b7c:	18c00084 	addi	r3,r3,2
 1805b80:	1089883a 	add	r4,r2,r2
 1805b84:	20000316 	blt	r4,zero,1805b94 <__hi0bits+0x50>
 1805b88:	2090002c 	andhi	r2,r4,16384
 1805b8c:	10000626 	beq	r2,zero,1805ba8 <__hi0bits+0x64>
 1805b90:	18c00044 	addi	r3,r3,1
 1805b94:	1805883a 	mov	r2,r3
 1805b98:	f800283a 	ret
 1805b9c:	2008943a 	slli	r4,r4,16
 1805ba0:	00c00404 	movi	r3,16
 1805ba4:	003fea06 	br	1805b50 <__hi0bits+0xc>
 1805ba8:	00c00804 	movi	r3,32
 1805bac:	1805883a 	mov	r2,r3
 1805bb0:	f800283a 	ret

01805bb4 <__lo0bits>:
 1805bb4:	20c00017 	ldw	r3,0(r4)
 1805bb8:	188001cc 	andi	r2,r3,7
 1805bbc:	10000a26 	beq	r2,zero,1805be8 <__lo0bits+0x34>
 1805bc0:	1880004c 	andi	r2,r3,1
 1805bc4:	1005003a 	cmpeq	r2,r2,zero
 1805bc8:	10002126 	beq	r2,zero,1805c50 <__lo0bits+0x9c>
 1805bcc:	1880008c 	andi	r2,r3,2
 1805bd0:	1000251e 	bne	r2,zero,1805c68 <__lo0bits+0xb4>
 1805bd4:	1804d0ba 	srli	r2,r3,2
 1805bd8:	01400084 	movi	r5,2
 1805bdc:	20800015 	stw	r2,0(r4)
 1805be0:	2805883a 	mov	r2,r5
 1805be4:	f800283a 	ret
 1805be8:	18bfffcc 	andi	r2,r3,65535
 1805bec:	10001526 	beq	r2,zero,1805c44 <__lo0bits+0x90>
 1805bf0:	000b883a 	mov	r5,zero
 1805bf4:	18803fcc 	andi	r2,r3,255
 1805bf8:	1000021e 	bne	r2,zero,1805c04 <__lo0bits+0x50>
 1805bfc:	1806d23a 	srli	r3,r3,8
 1805c00:	29400204 	addi	r5,r5,8
 1805c04:	188003cc 	andi	r2,r3,15
 1805c08:	1000021e 	bne	r2,zero,1805c14 <__lo0bits+0x60>
 1805c0c:	1806d13a 	srli	r3,r3,4
 1805c10:	29400104 	addi	r5,r5,4
 1805c14:	188000cc 	andi	r2,r3,3
 1805c18:	1000021e 	bne	r2,zero,1805c24 <__lo0bits+0x70>
 1805c1c:	1806d0ba 	srli	r3,r3,2
 1805c20:	29400084 	addi	r5,r5,2
 1805c24:	1880004c 	andi	r2,r3,1
 1805c28:	1000031e 	bne	r2,zero,1805c38 <__lo0bits+0x84>
 1805c2c:	1806d07a 	srli	r3,r3,1
 1805c30:	18000a26 	beq	r3,zero,1805c5c <__lo0bits+0xa8>
 1805c34:	29400044 	addi	r5,r5,1
 1805c38:	2805883a 	mov	r2,r5
 1805c3c:	20c00015 	stw	r3,0(r4)
 1805c40:	f800283a 	ret
 1805c44:	1806d43a 	srli	r3,r3,16
 1805c48:	01400404 	movi	r5,16
 1805c4c:	003fe906 	br	1805bf4 <__lo0bits+0x40>
 1805c50:	000b883a 	mov	r5,zero
 1805c54:	2805883a 	mov	r2,r5
 1805c58:	f800283a 	ret
 1805c5c:	01400804 	movi	r5,32
 1805c60:	2805883a 	mov	r2,r5
 1805c64:	f800283a 	ret
 1805c68:	1804d07a 	srli	r2,r3,1
 1805c6c:	01400044 	movi	r5,1
 1805c70:	20800015 	stw	r2,0(r4)
 1805c74:	003fda06 	br	1805be0 <__lo0bits+0x2c>

01805c78 <__mcmp>:
 1805c78:	20800417 	ldw	r2,16(r4)
 1805c7c:	28c00417 	ldw	r3,16(r5)
 1805c80:	10cfc83a 	sub	r7,r2,r3
 1805c84:	38000c1e 	bne	r7,zero,1805cb8 <__mcmp+0x40>
 1805c88:	18c5883a 	add	r2,r3,r3
 1805c8c:	1085883a 	add	r2,r2,r2
 1805c90:	10c00504 	addi	r3,r2,20
 1805c94:	21000504 	addi	r4,r4,20
 1805c98:	28cb883a 	add	r5,r5,r3
 1805c9c:	2085883a 	add	r2,r4,r2
 1805ca0:	10bfff04 	addi	r2,r2,-4
 1805ca4:	297fff04 	addi	r5,r5,-4
 1805ca8:	11800017 	ldw	r6,0(r2)
 1805cac:	28c00017 	ldw	r3,0(r5)
 1805cb0:	30c0031e 	bne	r6,r3,1805cc0 <__mcmp+0x48>
 1805cb4:	20bffa36 	bltu	r4,r2,1805ca0 <__mcmp+0x28>
 1805cb8:	3805883a 	mov	r2,r7
 1805cbc:	f800283a 	ret
 1805cc0:	30c00336 	bltu	r6,r3,1805cd0 <__mcmp+0x58>
 1805cc4:	01c00044 	movi	r7,1
 1805cc8:	3805883a 	mov	r2,r7
 1805ccc:	f800283a 	ret
 1805cd0:	01ffffc4 	movi	r7,-1
 1805cd4:	003ff806 	br	1805cb8 <__mcmp+0x40>

01805cd8 <__ulp>:
 1805cd8:	295ffc2c 	andhi	r5,r5,32752
 1805cdc:	013f3034 	movhi	r4,64704
 1805ce0:	290b883a 	add	r5,r5,r4
 1805ce4:	0145c83a 	sub	r2,zero,r5
 1805ce8:	1007d53a 	srai	r3,r2,20
 1805cec:	000d883a 	mov	r6,zero
 1805cf0:	0140040e 	bge	zero,r5,1805d04 <__ulp+0x2c>
 1805cf4:	280f883a 	mov	r7,r5
 1805cf8:	3807883a 	mov	r3,r7
 1805cfc:	3005883a 	mov	r2,r6
 1805d00:	f800283a 	ret
 1805d04:	008004c4 	movi	r2,19
 1805d08:	193ffb04 	addi	r4,r3,-20
 1805d0c:	10c00c0e 	bge	r2,r3,1805d40 <__ulp+0x68>
 1805d10:	008007c4 	movi	r2,31
 1805d14:	1107c83a 	sub	r3,r2,r4
 1805d18:	00800784 	movi	r2,30
 1805d1c:	01400044 	movi	r5,1
 1805d20:	11000216 	blt	r2,r4,1805d2c <__ulp+0x54>
 1805d24:	00800044 	movi	r2,1
 1805d28:	10ca983a 	sll	r5,r2,r3
 1805d2c:	000f883a 	mov	r7,zero
 1805d30:	280d883a 	mov	r6,r5
 1805d34:	3807883a 	mov	r3,r7
 1805d38:	3005883a 	mov	r2,r6
 1805d3c:	f800283a 	ret
 1805d40:	00800234 	movhi	r2,8
 1805d44:	10cfd83a 	sra	r7,r2,r3
 1805d48:	000d883a 	mov	r6,zero
 1805d4c:	3005883a 	mov	r2,r6
 1805d50:	3807883a 	mov	r3,r7
 1805d54:	f800283a 	ret

01805d58 <__b2d>:
 1805d58:	20800417 	ldw	r2,16(r4)
 1805d5c:	defff904 	addi	sp,sp,-28
 1805d60:	dd000415 	stw	r20,16(sp)
 1805d64:	1085883a 	add	r2,r2,r2
 1805d68:	25000504 	addi	r20,r4,20
 1805d6c:	1085883a 	add	r2,r2,r2
 1805d70:	dc000015 	stw	r16,0(sp)
 1805d74:	a0a1883a 	add	r16,r20,r2
 1805d78:	dd400515 	stw	r21,20(sp)
 1805d7c:	857fff17 	ldw	r21,-4(r16)
 1805d80:	dc400115 	stw	r17,4(sp)
 1805d84:	dfc00615 	stw	ra,24(sp)
 1805d88:	a809883a 	mov	r4,r21
 1805d8c:	2823883a 	mov	r17,r5
 1805d90:	dcc00315 	stw	r19,12(sp)
 1805d94:	dc800215 	stw	r18,8(sp)
 1805d98:	1805b440 	call	1805b44 <__hi0bits>
 1805d9c:	100b883a 	mov	r5,r2
 1805da0:	00800804 	movi	r2,32
 1805da4:	1145c83a 	sub	r2,r2,r5
 1805da8:	88800015 	stw	r2,0(r17)
 1805dac:	00800284 	movi	r2,10
 1805db0:	80ffff04 	addi	r3,r16,-4
 1805db4:	11401416 	blt	r2,r5,1805e08 <__b2d+0xb0>
 1805db8:	008002c4 	movi	r2,11
 1805dbc:	1149c83a 	sub	r4,r2,r5
 1805dc0:	a0c02736 	bltu	r20,r3,1805e60 <__b2d+0x108>
 1805dc4:	000d883a 	mov	r6,zero
 1805dc8:	28800544 	addi	r2,r5,21
 1805dcc:	a906d83a 	srl	r3,r21,r4
 1805dd0:	a884983a 	sll	r2,r21,r2
 1805dd4:	1ccffc34 	orhi	r19,r3,16368
 1805dd8:	11a4b03a 	or	r18,r2,r6
 1805ddc:	9005883a 	mov	r2,r18
 1805de0:	9807883a 	mov	r3,r19
 1805de4:	dfc00617 	ldw	ra,24(sp)
 1805de8:	dd400517 	ldw	r21,20(sp)
 1805dec:	dd000417 	ldw	r20,16(sp)
 1805df0:	dcc00317 	ldw	r19,12(sp)
 1805df4:	dc800217 	ldw	r18,8(sp)
 1805df8:	dc400117 	ldw	r17,4(sp)
 1805dfc:	dc000017 	ldw	r16,0(sp)
 1805e00:	dec00704 	addi	sp,sp,28
 1805e04:	f800283a 	ret
 1805e08:	a0c00e36 	bltu	r20,r3,1805e44 <__b2d+0xec>
 1805e0c:	293ffd44 	addi	r4,r5,-11
 1805e10:	000d883a 	mov	r6,zero
 1805e14:	20000f26 	beq	r4,zero,1805e54 <__b2d+0xfc>
 1805e18:	00800804 	movi	r2,32
 1805e1c:	110bc83a 	sub	r5,r2,r4
 1805e20:	a0c01236 	bltu	r20,r3,1805e6c <__b2d+0x114>
 1805e24:	000f883a 	mov	r7,zero
 1805e28:	a904983a 	sll	r2,r21,r4
 1805e2c:	3146d83a 	srl	r3,r6,r5
 1805e30:	3108983a 	sll	r4,r6,r4
 1805e34:	108ffc34 	orhi	r2,r2,16368
 1805e38:	18a6b03a 	or	r19,r3,r2
 1805e3c:	3924b03a 	or	r18,r7,r4
 1805e40:	003fe606 	br	1805ddc <__b2d+0x84>
 1805e44:	293ffd44 	addi	r4,r5,-11
 1805e48:	81bffe17 	ldw	r6,-8(r16)
 1805e4c:	80fffe04 	addi	r3,r16,-8
 1805e50:	203ff11e 	bne	r4,zero,1805e18 <__b2d+0xc0>
 1805e54:	accffc34 	orhi	r19,r21,16368
 1805e58:	3025883a 	mov	r18,r6
 1805e5c:	003fdf06 	br	1805ddc <__b2d+0x84>
 1805e60:	18bfff17 	ldw	r2,-4(r3)
 1805e64:	110cd83a 	srl	r6,r2,r4
 1805e68:	003fd706 	br	1805dc8 <__b2d+0x70>
 1805e6c:	18bfff17 	ldw	r2,-4(r3)
 1805e70:	114ed83a 	srl	r7,r2,r5
 1805e74:	003fec06 	br	1805e28 <__b2d+0xd0>

01805e78 <__ratio>:
 1805e78:	defff904 	addi	sp,sp,-28
 1805e7c:	dc400215 	stw	r17,8(sp)
 1805e80:	2823883a 	mov	r17,r5
 1805e84:	d80b883a 	mov	r5,sp
 1805e88:	dfc00615 	stw	ra,24(sp)
 1805e8c:	dd000515 	stw	r20,20(sp)
 1805e90:	dcc00415 	stw	r19,16(sp)
 1805e94:	dc800315 	stw	r18,12(sp)
 1805e98:	2025883a 	mov	r18,r4
 1805e9c:	1805d580 	call	1805d58 <__b2d>
 1805ea0:	8809883a 	mov	r4,r17
 1805ea4:	d9400104 	addi	r5,sp,4
 1805ea8:	1027883a 	mov	r19,r2
 1805eac:	1829883a 	mov	r20,r3
 1805eb0:	1805d580 	call	1805d58 <__b2d>
 1805eb4:	89000417 	ldw	r4,16(r17)
 1805eb8:	91c00417 	ldw	r7,16(r18)
 1805ebc:	d9800117 	ldw	r6,4(sp)
 1805ec0:	180b883a 	mov	r5,r3
 1805ec4:	390fc83a 	sub	r7,r7,r4
 1805ec8:	1009883a 	mov	r4,r2
 1805ecc:	d8800017 	ldw	r2,0(sp)
 1805ed0:	380e917a 	slli	r7,r7,5
 1805ed4:	2011883a 	mov	r8,r4
 1805ed8:	1185c83a 	sub	r2,r2,r6
 1805edc:	11c5883a 	add	r2,r2,r7
 1805ee0:	1006953a 	slli	r3,r2,20
 1805ee4:	2813883a 	mov	r9,r5
 1805ee8:	00800d0e 	bge	zero,r2,1805f20 <__ratio+0xa8>
 1805eec:	1d29883a 	add	r20,r3,r20
 1805ef0:	a00b883a 	mov	r5,r20
 1805ef4:	480f883a 	mov	r7,r9
 1805ef8:	9809883a 	mov	r4,r19
 1805efc:	400d883a 	mov	r6,r8
 1805f00:	1808cd40 	call	1808cd4 <__divdf3>
 1805f04:	dfc00617 	ldw	ra,24(sp)
 1805f08:	dd000517 	ldw	r20,20(sp)
 1805f0c:	dcc00417 	ldw	r19,16(sp)
 1805f10:	dc800317 	ldw	r18,12(sp)
 1805f14:	dc400217 	ldw	r17,8(sp)
 1805f18:	dec00704 	addi	sp,sp,28
 1805f1c:	f800283a 	ret
 1805f20:	28d3c83a 	sub	r9,r5,r3
 1805f24:	003ff206 	br	1805ef0 <__ratio+0x78>

01805f28 <_mprec_log10>:
 1805f28:	defffe04 	addi	sp,sp,-8
 1805f2c:	008005c4 	movi	r2,23
 1805f30:	dc000015 	stw	r16,0(sp)
 1805f34:	dfc00115 	stw	ra,4(sp)
 1805f38:	2021883a 	mov	r16,r4
 1805f3c:	11000c16 	blt	r2,r4,1805f70 <_mprec_log10+0x48>
 1805f40:	200490fa 	slli	r2,r4,3
 1805f44:	00c06074 	movhi	r3,385
 1805f48:	18c25104 	addi	r3,r3,2372
 1805f4c:	10c5883a 	add	r2,r2,r3
 1805f50:	12400117 	ldw	r9,4(r2)
 1805f54:	12000017 	ldw	r8,0(r2)
 1805f58:	4807883a 	mov	r3,r9
 1805f5c:	4005883a 	mov	r2,r8
 1805f60:	dfc00117 	ldw	ra,4(sp)
 1805f64:	dc000017 	ldw	r16,0(sp)
 1805f68:	dec00204 	addi	sp,sp,8
 1805f6c:	f800283a 	ret
 1805f70:	0011883a 	mov	r8,zero
 1805f74:	024ffc34 	movhi	r9,16368
 1805f78:	0005883a 	mov	r2,zero
 1805f7c:	00d00934 	movhi	r3,16420
 1805f80:	480b883a 	mov	r5,r9
 1805f84:	4009883a 	mov	r4,r8
 1805f88:	180f883a 	mov	r7,r3
 1805f8c:	100d883a 	mov	r6,r2
 1805f90:	18089100 	call	1808910 <__muldf3>
 1805f94:	843fffc4 	addi	r16,r16,-1
 1805f98:	1011883a 	mov	r8,r2
 1805f9c:	1813883a 	mov	r9,r3
 1805fa0:	803ff51e 	bne	r16,zero,1805f78 <_mprec_log10+0x50>
 1805fa4:	4005883a 	mov	r2,r8
 1805fa8:	4807883a 	mov	r3,r9
 1805fac:	dfc00117 	ldw	ra,4(sp)
 1805fb0:	dc000017 	ldw	r16,0(sp)
 1805fb4:	dec00204 	addi	sp,sp,8
 1805fb8:	f800283a 	ret

01805fbc <__copybits>:
 1805fbc:	297fffc4 	addi	r5,r5,-1
 1805fc0:	30800417 	ldw	r2,16(r6)
 1805fc4:	280bd17a 	srai	r5,r5,5
 1805fc8:	31800504 	addi	r6,r6,20
 1805fcc:	1085883a 	add	r2,r2,r2
 1805fd0:	294b883a 	add	r5,r5,r5
 1805fd4:	294b883a 	add	r5,r5,r5
 1805fd8:	1085883a 	add	r2,r2,r2
 1805fdc:	290b883a 	add	r5,r5,r4
 1805fe0:	3087883a 	add	r3,r6,r2
 1805fe4:	29400104 	addi	r5,r5,4
 1805fe8:	30c0052e 	bgeu	r6,r3,1806000 <__copybits+0x44>
 1805fec:	30800017 	ldw	r2,0(r6)
 1805ff0:	31800104 	addi	r6,r6,4
 1805ff4:	20800015 	stw	r2,0(r4)
 1805ff8:	21000104 	addi	r4,r4,4
 1805ffc:	30fffb36 	bltu	r6,r3,1805fec <__copybits+0x30>
 1806000:	2140032e 	bgeu	r4,r5,1806010 <__copybits+0x54>
 1806004:	20000015 	stw	zero,0(r4)
 1806008:	21000104 	addi	r4,r4,4
 180600c:	217ffd36 	bltu	r4,r5,1806004 <__copybits+0x48>
 1806010:	f800283a 	ret

01806014 <__any_on>:
 1806014:	20800417 	ldw	r2,16(r4)
 1806018:	2807d17a 	srai	r3,r5,5
 180601c:	21000504 	addi	r4,r4,20
 1806020:	10c00d0e 	bge	r2,r3,1806058 <__any_on+0x44>
 1806024:	1085883a 	add	r2,r2,r2
 1806028:	1085883a 	add	r2,r2,r2
 180602c:	208d883a 	add	r6,r4,r2
 1806030:	2180182e 	bgeu	r4,r6,1806094 <__any_on+0x80>
 1806034:	30bfff17 	ldw	r2,-4(r6)
 1806038:	30ffff04 	addi	r3,r6,-4
 180603c:	1000041e 	bne	r2,zero,1806050 <__any_on+0x3c>
 1806040:	20c0142e 	bgeu	r4,r3,1806094 <__any_on+0x80>
 1806044:	18ffff04 	addi	r3,r3,-4
 1806048:	18800017 	ldw	r2,0(r3)
 180604c:	103ffc26 	beq	r2,zero,1806040 <__any_on+0x2c>
 1806050:	00800044 	movi	r2,1
 1806054:	f800283a 	ret
 1806058:	18800a0e 	bge	r3,r2,1806084 <__any_on+0x70>
 180605c:	294007cc 	andi	r5,r5,31
 1806060:	28000826 	beq	r5,zero,1806084 <__any_on+0x70>
 1806064:	18c5883a 	add	r2,r3,r3
 1806068:	1085883a 	add	r2,r2,r2
 180606c:	208d883a 	add	r6,r4,r2
 1806070:	30c00017 	ldw	r3,0(r6)
 1806074:	1944d83a 	srl	r2,r3,r5
 1806078:	1144983a 	sll	r2,r2,r5
 180607c:	18bff41e 	bne	r3,r2,1806050 <__any_on+0x3c>
 1806080:	003feb06 	br	1806030 <__any_on+0x1c>
 1806084:	18c5883a 	add	r2,r3,r3
 1806088:	1085883a 	add	r2,r2,r2
 180608c:	208d883a 	add	r6,r4,r2
 1806090:	003fe706 	br	1806030 <__any_on+0x1c>
 1806094:	0005883a 	mov	r2,zero
 1806098:	f800283a 	ret

0180609c <_Balloc>:
 180609c:	20c01317 	ldw	r3,76(r4)
 18060a0:	defffb04 	addi	sp,sp,-20
 18060a4:	dcc00315 	stw	r19,12(sp)
 18060a8:	dc800215 	stw	r18,8(sp)
 18060ac:	dfc00415 	stw	ra,16(sp)
 18060b0:	2825883a 	mov	r18,r5
 18060b4:	dc400115 	stw	r17,4(sp)
 18060b8:	dc000015 	stw	r16,0(sp)
 18060bc:	2027883a 	mov	r19,r4
 18060c0:	01800404 	movi	r6,16
 18060c4:	01400104 	movi	r5,4
 18060c8:	18001726 	beq	r3,zero,1806128 <_Balloc+0x8c>
 18060cc:	01400044 	movi	r5,1
 18060d0:	9485883a 	add	r2,r18,r18
 18060d4:	2ca2983a 	sll	r17,r5,r18
 18060d8:	1085883a 	add	r2,r2,r2
 18060dc:	10c7883a 	add	r3,r2,r3
 18060e0:	1c000017 	ldw	r16,0(r3)
 18060e4:	8c4d883a 	add	r6,r17,r17
 18060e8:	318d883a 	add	r6,r6,r6
 18060ec:	9809883a 	mov	r4,r19
 18060f0:	31800504 	addi	r6,r6,20
 18060f4:	80001226 	beq	r16,zero,1806140 <_Balloc+0xa4>
 18060f8:	80800017 	ldw	r2,0(r16)
 18060fc:	18800015 	stw	r2,0(r3)
 1806100:	80000415 	stw	zero,16(r16)
 1806104:	80000315 	stw	zero,12(r16)
 1806108:	8005883a 	mov	r2,r16
 180610c:	dfc00417 	ldw	ra,16(sp)
 1806110:	dcc00317 	ldw	r19,12(sp)
 1806114:	dc800217 	ldw	r18,8(sp)
 1806118:	dc400117 	ldw	r17,4(sp)
 180611c:	dc000017 	ldw	r16,0(sp)
 1806120:	dec00504 	addi	sp,sp,20
 1806124:	f800283a 	ret
 1806128:	18074640 	call	1807464 <_calloc_r>
 180612c:	1007883a 	mov	r3,r2
 1806130:	0021883a 	mov	r16,zero
 1806134:	98801315 	stw	r2,76(r19)
 1806138:	103fe41e 	bne	r2,zero,18060cc <_Balloc+0x30>
 180613c:	003ff206 	br	1806108 <_Balloc+0x6c>
 1806140:	18074640 	call	1807464 <_calloc_r>
 1806144:	103ff026 	beq	r2,zero,1806108 <_Balloc+0x6c>
 1806148:	1021883a 	mov	r16,r2
 180614c:	14800115 	stw	r18,4(r2)
 1806150:	14400215 	stw	r17,8(r2)
 1806154:	003fea06 	br	1806100 <_Balloc+0x64>

01806158 <__d2b>:
 1806158:	defff504 	addi	sp,sp,-44
 180615c:	dcc00515 	stw	r19,20(sp)
 1806160:	04c00044 	movi	r19,1
 1806164:	dc000215 	stw	r16,8(sp)
 1806168:	2821883a 	mov	r16,r5
 180616c:	980b883a 	mov	r5,r19
 1806170:	ddc00915 	stw	r23,36(sp)
 1806174:	dd800815 	stw	r22,32(sp)
 1806178:	dd400715 	stw	r21,28(sp)
 180617c:	dd000615 	stw	r20,24(sp)
 1806180:	dc800415 	stw	r18,16(sp)
 1806184:	dc400315 	stw	r17,12(sp)
 1806188:	dfc00a15 	stw	ra,40(sp)
 180618c:	3023883a 	mov	r17,r6
 1806190:	382d883a 	mov	r22,r7
 1806194:	ddc00b17 	ldw	r23,44(sp)
 1806198:	180609c0 	call	180609c <_Balloc>
 180619c:	1025883a 	mov	r18,r2
 18061a0:	00a00034 	movhi	r2,32768
 18061a4:	10bfffc4 	addi	r2,r2,-1
 18061a8:	8888703a 	and	r4,r17,r2
 18061ac:	202ad53a 	srli	r21,r4,20
 18061b0:	00800434 	movhi	r2,16
 18061b4:	10bfffc4 	addi	r2,r2,-1
 18061b8:	8886703a 	and	r3,r17,r2
 18061bc:	a829003a 	cmpeq	r20,r21,zero
 18061c0:	800b883a 	mov	r5,r16
 18061c4:	d8c00115 	stw	r3,4(sp)
 18061c8:	94000504 	addi	r16,r18,20
 18061cc:	a000021e 	bne	r20,zero,18061d8 <__d2b+0x80>
 18061d0:	18c00434 	orhi	r3,r3,16
 18061d4:	d8c00115 	stw	r3,4(sp)
 18061d8:	28002726 	beq	r5,zero,1806278 <__d2b+0x120>
 18061dc:	d809883a 	mov	r4,sp
 18061e0:	d9400015 	stw	r5,0(sp)
 18061e4:	1805bb40 	call	1805bb4 <__lo0bits>
 18061e8:	100d883a 	mov	r6,r2
 18061ec:	10003526 	beq	r2,zero,18062c4 <__d2b+0x16c>
 18061f0:	d8c00117 	ldw	r3,4(sp)
 18061f4:	00800804 	movi	r2,32
 18061f8:	1185c83a 	sub	r2,r2,r6
 18061fc:	d9000017 	ldw	r4,0(sp)
 1806200:	1886983a 	sll	r3,r3,r2
 1806204:	1906b03a 	or	r3,r3,r4
 1806208:	90c00515 	stw	r3,20(r18)
 180620c:	d8c00117 	ldw	r3,4(sp)
 1806210:	1986d83a 	srl	r3,r3,r6
 1806214:	d8c00115 	stw	r3,4(sp)
 1806218:	180b003a 	cmpeq	r5,r3,zero
 180621c:	00800084 	movi	r2,2
 1806220:	114bc83a 	sub	r5,r2,r5
 1806224:	80c00115 	stw	r3,4(r16)
 1806228:	91400415 	stw	r5,16(r18)
 180622c:	a0001a1e 	bne	r20,zero,1806298 <__d2b+0x140>
 1806230:	3545883a 	add	r2,r6,r21
 1806234:	10bef344 	addi	r2,r2,-1075
 1806238:	00c00d44 	movi	r3,53
 180623c:	b0800015 	stw	r2,0(r22)
 1806240:	1987c83a 	sub	r3,r3,r6
 1806244:	b8c00015 	stw	r3,0(r23)
 1806248:	9005883a 	mov	r2,r18
 180624c:	dfc00a17 	ldw	ra,40(sp)
 1806250:	ddc00917 	ldw	r23,36(sp)
 1806254:	dd800817 	ldw	r22,32(sp)
 1806258:	dd400717 	ldw	r21,28(sp)
 180625c:	dd000617 	ldw	r20,24(sp)
 1806260:	dcc00517 	ldw	r19,20(sp)
 1806264:	dc800417 	ldw	r18,16(sp)
 1806268:	dc400317 	ldw	r17,12(sp)
 180626c:	dc000217 	ldw	r16,8(sp)
 1806270:	dec00b04 	addi	sp,sp,44
 1806274:	f800283a 	ret
 1806278:	d9000104 	addi	r4,sp,4
 180627c:	1805bb40 	call	1805bb4 <__lo0bits>
 1806280:	11800804 	addi	r6,r2,32
 1806284:	d8800117 	ldw	r2,4(sp)
 1806288:	94c00415 	stw	r19,16(r18)
 180628c:	980b883a 	mov	r5,r19
 1806290:	90800515 	stw	r2,20(r18)
 1806294:	a03fe626 	beq	r20,zero,1806230 <__d2b+0xd8>
 1806298:	2945883a 	add	r2,r5,r5
 180629c:	1085883a 	add	r2,r2,r2
 18062a0:	1405883a 	add	r2,r2,r16
 18062a4:	113fff17 	ldw	r4,-4(r2)
 18062a8:	30fef384 	addi	r3,r6,-1074
 18062ac:	2820917a 	slli	r16,r5,5
 18062b0:	b0c00015 	stw	r3,0(r22)
 18062b4:	1805b440 	call	1805b44 <__hi0bits>
 18062b8:	80a1c83a 	sub	r16,r16,r2
 18062bc:	bc000015 	stw	r16,0(r23)
 18062c0:	003fe106 	br	1806248 <__d2b+0xf0>
 18062c4:	d8800017 	ldw	r2,0(sp)
 18062c8:	90800515 	stw	r2,20(r18)
 18062cc:	d8c00117 	ldw	r3,4(sp)
 18062d0:	003fd106 	br	1806218 <__d2b+0xc0>

018062d4 <__mdiff>:
 18062d4:	defffb04 	addi	sp,sp,-20
 18062d8:	dc000015 	stw	r16,0(sp)
 18062dc:	2821883a 	mov	r16,r5
 18062e0:	dc800215 	stw	r18,8(sp)
 18062e4:	300b883a 	mov	r5,r6
 18062e8:	2025883a 	mov	r18,r4
 18062ec:	8009883a 	mov	r4,r16
 18062f0:	dc400115 	stw	r17,4(sp)
 18062f4:	dfc00415 	stw	ra,16(sp)
 18062f8:	dcc00315 	stw	r19,12(sp)
 18062fc:	3023883a 	mov	r17,r6
 1806300:	1805c780 	call	1805c78 <__mcmp>
 1806304:	10004226 	beq	r2,zero,1806410 <__mdiff+0x13c>
 1806308:	10005016 	blt	r2,zero,180644c <__mdiff+0x178>
 180630c:	0027883a 	mov	r19,zero
 1806310:	81400117 	ldw	r5,4(r16)
 1806314:	9009883a 	mov	r4,r18
 1806318:	180609c0 	call	180609c <_Balloc>
 180631c:	1019883a 	mov	r12,r2
 1806320:	82800417 	ldw	r10,16(r16)
 1806324:	88800417 	ldw	r2,16(r17)
 1806328:	81800504 	addi	r6,r16,20
 180632c:	5287883a 	add	r3,r10,r10
 1806330:	1085883a 	add	r2,r2,r2
 1806334:	18c7883a 	add	r3,r3,r3
 1806338:	1085883a 	add	r2,r2,r2
 180633c:	8a000504 	addi	r8,r17,20
 1806340:	64c00315 	stw	r19,12(r12)
 1806344:	30db883a 	add	r13,r6,r3
 1806348:	4097883a 	add	r11,r8,r2
 180634c:	61c00504 	addi	r7,r12,20
 1806350:	0013883a 	mov	r9,zero
 1806354:	31000017 	ldw	r4,0(r6)
 1806358:	41400017 	ldw	r5,0(r8)
 180635c:	42000104 	addi	r8,r8,4
 1806360:	20bfffcc 	andi	r2,r4,65535
 1806364:	28ffffcc 	andi	r3,r5,65535
 1806368:	10c5c83a 	sub	r2,r2,r3
 180636c:	1245883a 	add	r2,r2,r9
 1806370:	2008d43a 	srli	r4,r4,16
 1806374:	280ad43a 	srli	r5,r5,16
 1806378:	1007d43a 	srai	r3,r2,16
 180637c:	3880000d 	sth	r2,0(r7)
 1806380:	2149c83a 	sub	r4,r4,r5
 1806384:	20c9883a 	add	r4,r4,r3
 1806388:	3900008d 	sth	r4,2(r7)
 180638c:	31800104 	addi	r6,r6,4
 1806390:	39c00104 	addi	r7,r7,4
 1806394:	2013d43a 	srai	r9,r4,16
 1806398:	42ffee36 	bltu	r8,r11,1806354 <__mdiff+0x80>
 180639c:	33400c2e 	bgeu	r6,r13,18063d0 <__mdiff+0xfc>
 18063a0:	30800017 	ldw	r2,0(r6)
 18063a4:	31800104 	addi	r6,r6,4
 18063a8:	10ffffcc 	andi	r3,r2,65535
 18063ac:	1a47883a 	add	r3,r3,r9
 18063b0:	1004d43a 	srli	r2,r2,16
 18063b4:	1809d43a 	srai	r4,r3,16
 18063b8:	38c0000d 	sth	r3,0(r7)
 18063bc:	1105883a 	add	r2,r2,r4
 18063c0:	3880008d 	sth	r2,2(r7)
 18063c4:	1013d43a 	srai	r9,r2,16
 18063c8:	39c00104 	addi	r7,r7,4
 18063cc:	337ff436 	bltu	r6,r13,18063a0 <__mdiff+0xcc>
 18063d0:	38bfff17 	ldw	r2,-4(r7)
 18063d4:	38ffff04 	addi	r3,r7,-4
 18063d8:	1000041e 	bne	r2,zero,18063ec <__mdiff+0x118>
 18063dc:	18ffff04 	addi	r3,r3,-4
 18063e0:	18800017 	ldw	r2,0(r3)
 18063e4:	52bfffc4 	addi	r10,r10,-1
 18063e8:	103ffc26 	beq	r2,zero,18063dc <__mdiff+0x108>
 18063ec:	6005883a 	mov	r2,r12
 18063f0:	62800415 	stw	r10,16(r12)
 18063f4:	dfc00417 	ldw	ra,16(sp)
 18063f8:	dcc00317 	ldw	r19,12(sp)
 18063fc:	dc800217 	ldw	r18,8(sp)
 1806400:	dc400117 	ldw	r17,4(sp)
 1806404:	dc000017 	ldw	r16,0(sp)
 1806408:	dec00504 	addi	sp,sp,20
 180640c:	f800283a 	ret
 1806410:	9009883a 	mov	r4,r18
 1806414:	000b883a 	mov	r5,zero
 1806418:	180609c0 	call	180609c <_Balloc>
 180641c:	1019883a 	mov	r12,r2
 1806420:	00800044 	movi	r2,1
 1806424:	60800415 	stw	r2,16(r12)
 1806428:	6005883a 	mov	r2,r12
 180642c:	60000515 	stw	zero,20(r12)
 1806430:	dfc00417 	ldw	ra,16(sp)
 1806434:	dcc00317 	ldw	r19,12(sp)
 1806438:	dc800217 	ldw	r18,8(sp)
 180643c:	dc400117 	ldw	r17,4(sp)
 1806440:	dc000017 	ldw	r16,0(sp)
 1806444:	dec00504 	addi	sp,sp,20
 1806448:	f800283a 	ret
 180644c:	880d883a 	mov	r6,r17
 1806450:	04c00044 	movi	r19,1
 1806454:	8023883a 	mov	r17,r16
 1806458:	3021883a 	mov	r16,r6
 180645c:	003fac06 	br	1806310 <__mdiff+0x3c>

01806460 <__lshift>:
 1806460:	defff904 	addi	sp,sp,-28
 1806464:	28800417 	ldw	r2,16(r5)
 1806468:	dc000015 	stw	r16,0(sp)
 180646c:	3021d17a 	srai	r16,r6,5
 1806470:	28c00217 	ldw	r3,8(r5)
 1806474:	10800044 	addi	r2,r2,1
 1806478:	dc400115 	stw	r17,4(sp)
 180647c:	80a3883a 	add	r17,r16,r2
 1806480:	dd400515 	stw	r21,20(sp)
 1806484:	dd000415 	stw	r20,16(sp)
 1806488:	dc800215 	stw	r18,8(sp)
 180648c:	dfc00615 	stw	ra,24(sp)
 1806490:	2825883a 	mov	r18,r5
 1806494:	dcc00315 	stw	r19,12(sp)
 1806498:	3029883a 	mov	r20,r6
 180649c:	202b883a 	mov	r21,r4
 18064a0:	29400117 	ldw	r5,4(r5)
 18064a4:	1c40030e 	bge	r3,r17,18064b4 <__lshift+0x54>
 18064a8:	18c7883a 	add	r3,r3,r3
 18064ac:	29400044 	addi	r5,r5,1
 18064b0:	1c7ffd16 	blt	r3,r17,18064a8 <__lshift+0x48>
 18064b4:	a809883a 	mov	r4,r21
 18064b8:	180609c0 	call	180609c <_Balloc>
 18064bc:	1027883a 	mov	r19,r2
 18064c0:	11400504 	addi	r5,r2,20
 18064c4:	0400090e 	bge	zero,r16,18064ec <__lshift+0x8c>
 18064c8:	2805883a 	mov	r2,r5
 18064cc:	0007883a 	mov	r3,zero
 18064d0:	18c00044 	addi	r3,r3,1
 18064d4:	10000015 	stw	zero,0(r2)
 18064d8:	10800104 	addi	r2,r2,4
 18064dc:	80fffc1e 	bne	r16,r3,18064d0 <__lshift+0x70>
 18064e0:	8405883a 	add	r2,r16,r16
 18064e4:	1085883a 	add	r2,r2,r2
 18064e8:	288b883a 	add	r5,r5,r2
 18064ec:	90800417 	ldw	r2,16(r18)
 18064f0:	91000504 	addi	r4,r18,20
 18064f4:	a18007cc 	andi	r6,r20,31
 18064f8:	1085883a 	add	r2,r2,r2
 18064fc:	1085883a 	add	r2,r2,r2
 1806500:	208f883a 	add	r7,r4,r2
 1806504:	30001e26 	beq	r6,zero,1806580 <__lshift+0x120>
 1806508:	00800804 	movi	r2,32
 180650c:	1191c83a 	sub	r8,r2,r6
 1806510:	0007883a 	mov	r3,zero
 1806514:	20800017 	ldw	r2,0(r4)
 1806518:	1184983a 	sll	r2,r2,r6
 180651c:	1884b03a 	or	r2,r3,r2
 1806520:	28800015 	stw	r2,0(r5)
 1806524:	20c00017 	ldw	r3,0(r4)
 1806528:	21000104 	addi	r4,r4,4
 180652c:	29400104 	addi	r5,r5,4
 1806530:	1a06d83a 	srl	r3,r3,r8
 1806534:	21fff736 	bltu	r4,r7,1806514 <__lshift+0xb4>
 1806538:	28c00015 	stw	r3,0(r5)
 180653c:	18000126 	beq	r3,zero,1806544 <__lshift+0xe4>
 1806540:	8c400044 	addi	r17,r17,1
 1806544:	88bfffc4 	addi	r2,r17,-1
 1806548:	98800415 	stw	r2,16(r19)
 180654c:	a809883a 	mov	r4,r21
 1806550:	900b883a 	mov	r5,r18
 1806554:	1805b1c0 	call	1805b1c <_Bfree>
 1806558:	9805883a 	mov	r2,r19
 180655c:	dfc00617 	ldw	ra,24(sp)
 1806560:	dd400517 	ldw	r21,20(sp)
 1806564:	dd000417 	ldw	r20,16(sp)
 1806568:	dcc00317 	ldw	r19,12(sp)
 180656c:	dc800217 	ldw	r18,8(sp)
 1806570:	dc400117 	ldw	r17,4(sp)
 1806574:	dc000017 	ldw	r16,0(sp)
 1806578:	dec00704 	addi	sp,sp,28
 180657c:	f800283a 	ret
 1806580:	20800017 	ldw	r2,0(r4)
 1806584:	21000104 	addi	r4,r4,4
 1806588:	28800015 	stw	r2,0(r5)
 180658c:	29400104 	addi	r5,r5,4
 1806590:	21ffec2e 	bgeu	r4,r7,1806544 <__lshift+0xe4>
 1806594:	20800017 	ldw	r2,0(r4)
 1806598:	21000104 	addi	r4,r4,4
 180659c:	28800015 	stw	r2,0(r5)
 18065a0:	29400104 	addi	r5,r5,4
 18065a4:	21fff636 	bltu	r4,r7,1806580 <__lshift+0x120>
 18065a8:	003fe606 	br	1806544 <__lshift+0xe4>

018065ac <__multiply>:
 18065ac:	defff904 	addi	sp,sp,-28
 18065b0:	dcc00315 	stw	r19,12(sp)
 18065b4:	dc800215 	stw	r18,8(sp)
 18065b8:	2cc00417 	ldw	r19,16(r5)
 18065bc:	34800417 	ldw	r18,16(r6)
 18065c0:	dd000415 	stw	r20,16(sp)
 18065c4:	dc400115 	stw	r17,4(sp)
 18065c8:	dfc00615 	stw	ra,24(sp)
 18065cc:	dd400515 	stw	r21,20(sp)
 18065d0:	dc000015 	stw	r16,0(sp)
 18065d4:	2823883a 	mov	r17,r5
 18065d8:	3029883a 	mov	r20,r6
 18065dc:	9c80040e 	bge	r19,r18,18065f0 <__multiply+0x44>
 18065e0:	9027883a 	mov	r19,r18
 18065e4:	2c800417 	ldw	r18,16(r5)
 18065e8:	2829883a 	mov	r20,r5
 18065ec:	3023883a 	mov	r17,r6
 18065f0:	88800217 	ldw	r2,8(r17)
 18065f4:	9ca1883a 	add	r16,r19,r18
 18065f8:	89400117 	ldw	r5,4(r17)
 18065fc:	1400010e 	bge	r2,r16,1806604 <__multiply+0x58>
 1806600:	29400044 	addi	r5,r5,1
 1806604:	180609c0 	call	180609c <_Balloc>
 1806608:	102b883a 	mov	r21,r2
 180660c:	8405883a 	add	r2,r16,r16
 1806610:	1085883a 	add	r2,r2,r2
 1806614:	a9000504 	addi	r4,r21,20
 1806618:	209d883a 	add	r14,r4,r2
 180661c:	2380042e 	bgeu	r4,r14,1806630 <__multiply+0x84>
 1806620:	2005883a 	mov	r2,r4
 1806624:	10000015 	stw	zero,0(r2)
 1806628:	10800104 	addi	r2,r2,4
 180662c:	13bffd36 	bltu	r2,r14,1806624 <__multiply+0x78>
 1806630:	9485883a 	add	r2,r18,r18
 1806634:	9cc7883a 	add	r3,r19,r19
 1806638:	a1800504 	addi	r6,r20,20
 180663c:	1085883a 	add	r2,r2,r2
 1806640:	8b400504 	addi	r13,r17,20
 1806644:	18c7883a 	add	r3,r3,r3
 1806648:	309f883a 	add	r15,r6,r2
 180664c:	68d7883a 	add	r11,r13,r3
 1806650:	33c03b2e 	bgeu	r6,r15,1806740 <__multiply+0x194>
 1806654:	2019883a 	mov	r12,r4
 1806658:	30800017 	ldw	r2,0(r6)
 180665c:	127fffcc 	andi	r9,r2,65535
 1806660:	48001826 	beq	r9,zero,18066c4 <__multiply+0x118>
 1806664:	6811883a 	mov	r8,r13
 1806668:	600f883a 	mov	r7,r12
 180666c:	0015883a 	mov	r10,zero
 1806670:	40c00017 	ldw	r3,0(r8)
 1806674:	39400017 	ldw	r5,0(r7)
 1806678:	42000104 	addi	r8,r8,4
 180667c:	193fffcc 	andi	r4,r3,65535
 1806680:	4909383a 	mul	r4,r9,r4
 1806684:	1806d43a 	srli	r3,r3,16
 1806688:	28bfffcc 	andi	r2,r5,65535
 180668c:	5085883a 	add	r2,r10,r2
 1806690:	2089883a 	add	r4,r4,r2
 1806694:	48c7383a 	mul	r3,r9,r3
 1806698:	280ad43a 	srli	r5,r5,16
 180669c:	2004d43a 	srli	r2,r4,16
 18066a0:	3900000d 	sth	r4,0(r7)
 18066a4:	1947883a 	add	r3,r3,r5
 18066a8:	10c5883a 	add	r2,r2,r3
 18066ac:	3880008d 	sth	r2,2(r7)
 18066b0:	1014d43a 	srli	r10,r2,16
 18066b4:	39c00104 	addi	r7,r7,4
 18066b8:	42ffed36 	bltu	r8,r11,1806670 <__multiply+0xc4>
 18066bc:	3a800015 	stw	r10,0(r7)
 18066c0:	30800017 	ldw	r2,0(r6)
 18066c4:	1012d43a 	srli	r9,r2,16
 18066c8:	48001926 	beq	r9,zero,1806730 <__multiply+0x184>
 18066cc:	60800017 	ldw	r2,0(r12)
 18066d0:	6811883a 	mov	r8,r13
 18066d4:	600f883a 	mov	r7,r12
 18066d8:	0015883a 	mov	r10,zero
 18066dc:	100b883a 	mov	r5,r2
 18066e0:	41000017 	ldw	r4,0(r8)
 18066e4:	2806d43a 	srli	r3,r5,16
 18066e8:	3880000d 	sth	r2,0(r7)
 18066ec:	20bfffcc 	andi	r2,r4,65535
 18066f0:	4885383a 	mul	r2,r9,r2
 18066f4:	50c7883a 	add	r3,r10,r3
 18066f8:	2008d43a 	srli	r4,r4,16
 18066fc:	10c5883a 	add	r2,r2,r3
 1806700:	3880008d 	sth	r2,2(r7)
 1806704:	39c00104 	addi	r7,r7,4
 1806708:	39400017 	ldw	r5,0(r7)
 180670c:	4909383a 	mul	r4,r9,r4
 1806710:	1004d43a 	srli	r2,r2,16
 1806714:	28ffffcc 	andi	r3,r5,65535
 1806718:	20c9883a 	add	r4,r4,r3
 180671c:	1105883a 	add	r2,r2,r4
 1806720:	42000104 	addi	r8,r8,4
 1806724:	1014d43a 	srli	r10,r2,16
 1806728:	42ffed36 	bltu	r8,r11,18066e0 <__multiply+0x134>
 180672c:	38800015 	stw	r2,0(r7)
 1806730:	31800104 	addi	r6,r6,4
 1806734:	33c0022e 	bgeu	r6,r15,1806740 <__multiply+0x194>
 1806738:	63000104 	addi	r12,r12,4
 180673c:	003fc606 	br	1806658 <__multiply+0xac>
 1806740:	0400090e 	bge	zero,r16,1806768 <__multiply+0x1bc>
 1806744:	70bfff17 	ldw	r2,-4(r14)
 1806748:	70ffff04 	addi	r3,r14,-4
 180674c:	10000326 	beq	r2,zero,180675c <__multiply+0x1b0>
 1806750:	00000506 	br	1806768 <__multiply+0x1bc>
 1806754:	18800017 	ldw	r2,0(r3)
 1806758:	1000031e 	bne	r2,zero,1806768 <__multiply+0x1bc>
 180675c:	843fffc4 	addi	r16,r16,-1
 1806760:	18ffff04 	addi	r3,r3,-4
 1806764:	803ffb1e 	bne	r16,zero,1806754 <__multiply+0x1a8>
 1806768:	a805883a 	mov	r2,r21
 180676c:	ac000415 	stw	r16,16(r21)
 1806770:	dfc00617 	ldw	ra,24(sp)
 1806774:	dd400517 	ldw	r21,20(sp)
 1806778:	dd000417 	ldw	r20,16(sp)
 180677c:	dcc00317 	ldw	r19,12(sp)
 1806780:	dc800217 	ldw	r18,8(sp)
 1806784:	dc400117 	ldw	r17,4(sp)
 1806788:	dc000017 	ldw	r16,0(sp)
 180678c:	dec00704 	addi	sp,sp,28
 1806790:	f800283a 	ret

01806794 <__i2b>:
 1806794:	defffd04 	addi	sp,sp,-12
 1806798:	dc000015 	stw	r16,0(sp)
 180679c:	04000044 	movi	r16,1
 18067a0:	dc800115 	stw	r18,4(sp)
 18067a4:	2825883a 	mov	r18,r5
 18067a8:	800b883a 	mov	r5,r16
 18067ac:	dfc00215 	stw	ra,8(sp)
 18067b0:	180609c0 	call	180609c <_Balloc>
 18067b4:	14000415 	stw	r16,16(r2)
 18067b8:	14800515 	stw	r18,20(r2)
 18067bc:	dfc00217 	ldw	ra,8(sp)
 18067c0:	dc800117 	ldw	r18,4(sp)
 18067c4:	dc000017 	ldw	r16,0(sp)
 18067c8:	dec00304 	addi	sp,sp,12
 18067cc:	f800283a 	ret

018067d0 <__multadd>:
 18067d0:	defffa04 	addi	sp,sp,-24
 18067d4:	dc800215 	stw	r18,8(sp)
 18067d8:	2c800417 	ldw	r18,16(r5)
 18067dc:	dd000415 	stw	r20,16(sp)
 18067e0:	dcc00315 	stw	r19,12(sp)
 18067e4:	dc000015 	stw	r16,0(sp)
 18067e8:	dfc00515 	stw	ra,20(sp)
 18067ec:	3821883a 	mov	r16,r7
 18067f0:	dc400115 	stw	r17,4(sp)
 18067f4:	2827883a 	mov	r19,r5
 18067f8:	2029883a 	mov	r20,r4
 18067fc:	2a000504 	addi	r8,r5,20
 1806800:	000f883a 	mov	r7,zero
 1806804:	40800017 	ldw	r2,0(r8)
 1806808:	39c00044 	addi	r7,r7,1
 180680c:	10ffffcc 	andi	r3,r2,65535
 1806810:	1987383a 	mul	r3,r3,r6
 1806814:	1004d43a 	srli	r2,r2,16
 1806818:	1c07883a 	add	r3,r3,r16
 180681c:	180ad43a 	srli	r5,r3,16
 1806820:	1185383a 	mul	r2,r2,r6
 1806824:	18ffffcc 	andi	r3,r3,65535
 1806828:	1145883a 	add	r2,r2,r5
 180682c:	1008943a 	slli	r4,r2,16
 1806830:	1020d43a 	srli	r16,r2,16
 1806834:	20c9883a 	add	r4,r4,r3
 1806838:	41000015 	stw	r4,0(r8)
 180683c:	42000104 	addi	r8,r8,4
 1806840:	3cbff016 	blt	r7,r18,1806804 <__multadd+0x34>
 1806844:	80000826 	beq	r16,zero,1806868 <__multadd+0x98>
 1806848:	98800217 	ldw	r2,8(r19)
 180684c:	90800f0e 	bge	r18,r2,180688c <__multadd+0xbc>
 1806850:	9485883a 	add	r2,r18,r18
 1806854:	1085883a 	add	r2,r2,r2
 1806858:	14c5883a 	add	r2,r2,r19
 180685c:	90c00044 	addi	r3,r18,1
 1806860:	14000515 	stw	r16,20(r2)
 1806864:	98c00415 	stw	r3,16(r19)
 1806868:	9805883a 	mov	r2,r19
 180686c:	dfc00517 	ldw	ra,20(sp)
 1806870:	dd000417 	ldw	r20,16(sp)
 1806874:	dcc00317 	ldw	r19,12(sp)
 1806878:	dc800217 	ldw	r18,8(sp)
 180687c:	dc400117 	ldw	r17,4(sp)
 1806880:	dc000017 	ldw	r16,0(sp)
 1806884:	dec00604 	addi	sp,sp,24
 1806888:	f800283a 	ret
 180688c:	99400117 	ldw	r5,4(r19)
 1806890:	a009883a 	mov	r4,r20
 1806894:	29400044 	addi	r5,r5,1
 1806898:	180609c0 	call	180609c <_Balloc>
 180689c:	99800417 	ldw	r6,16(r19)
 18068a0:	99400304 	addi	r5,r19,12
 18068a4:	11000304 	addi	r4,r2,12
 18068a8:	318d883a 	add	r6,r6,r6
 18068ac:	318d883a 	add	r6,r6,r6
 18068b0:	31800204 	addi	r6,r6,8
 18068b4:	1023883a 	mov	r17,r2
 18068b8:	18059040 	call	1805904 <memcpy>
 18068bc:	980b883a 	mov	r5,r19
 18068c0:	a009883a 	mov	r4,r20
 18068c4:	1805b1c0 	call	1805b1c <_Bfree>
 18068c8:	8827883a 	mov	r19,r17
 18068cc:	003fe006 	br	1806850 <__multadd+0x80>

018068d0 <__pow5mult>:
 18068d0:	defffa04 	addi	sp,sp,-24
 18068d4:	308000cc 	andi	r2,r6,3
 18068d8:	dd000415 	stw	r20,16(sp)
 18068dc:	dcc00315 	stw	r19,12(sp)
 18068e0:	dc000015 	stw	r16,0(sp)
 18068e4:	dfc00515 	stw	ra,20(sp)
 18068e8:	dc800215 	stw	r18,8(sp)
 18068ec:	dc400115 	stw	r17,4(sp)
 18068f0:	3021883a 	mov	r16,r6
 18068f4:	2027883a 	mov	r19,r4
 18068f8:	2829883a 	mov	r20,r5
 18068fc:	10002b1e 	bne	r2,zero,18069ac <__pow5mult+0xdc>
 1806900:	8025d0ba 	srai	r18,r16,2
 1806904:	90001b26 	beq	r18,zero,1806974 <__pow5mult+0xa4>
 1806908:	9c001217 	ldw	r16,72(r19)
 180690c:	8000081e 	bne	r16,zero,1806930 <__pow5mult+0x60>
 1806910:	00003006 	br	18069d4 <__pow5mult+0x104>
 1806914:	800b883a 	mov	r5,r16
 1806918:	800d883a 	mov	r6,r16
 180691c:	9809883a 	mov	r4,r19
 1806920:	90001426 	beq	r18,zero,1806974 <__pow5mult+0xa4>
 1806924:	80800017 	ldw	r2,0(r16)
 1806928:	10001b26 	beq	r2,zero,1806998 <__pow5mult+0xc8>
 180692c:	1021883a 	mov	r16,r2
 1806930:	9080004c 	andi	r2,r18,1
 1806934:	1005003a 	cmpeq	r2,r2,zero
 1806938:	9025d07a 	srai	r18,r18,1
 180693c:	800d883a 	mov	r6,r16
 1806940:	9809883a 	mov	r4,r19
 1806944:	a00b883a 	mov	r5,r20
 1806948:	103ff21e 	bne	r2,zero,1806914 <__pow5mult+0x44>
 180694c:	18065ac0 	call	18065ac <__multiply>
 1806950:	a00b883a 	mov	r5,r20
 1806954:	9809883a 	mov	r4,r19
 1806958:	1023883a 	mov	r17,r2
 180695c:	1805b1c0 	call	1805b1c <_Bfree>
 1806960:	8829883a 	mov	r20,r17
 1806964:	800b883a 	mov	r5,r16
 1806968:	800d883a 	mov	r6,r16
 180696c:	9809883a 	mov	r4,r19
 1806970:	903fec1e 	bne	r18,zero,1806924 <__pow5mult+0x54>
 1806974:	a005883a 	mov	r2,r20
 1806978:	dfc00517 	ldw	ra,20(sp)
 180697c:	dd000417 	ldw	r20,16(sp)
 1806980:	dcc00317 	ldw	r19,12(sp)
 1806984:	dc800217 	ldw	r18,8(sp)
 1806988:	dc400117 	ldw	r17,4(sp)
 180698c:	dc000017 	ldw	r16,0(sp)
 1806990:	dec00604 	addi	sp,sp,24
 1806994:	f800283a 	ret
 1806998:	18065ac0 	call	18065ac <__multiply>
 180699c:	80800015 	stw	r2,0(r16)
 18069a0:	1021883a 	mov	r16,r2
 18069a4:	10000015 	stw	zero,0(r2)
 18069a8:	003fe106 	br	1806930 <__pow5mult+0x60>
 18069ac:	1085883a 	add	r2,r2,r2
 18069b0:	00c06074 	movhi	r3,385
 18069b4:	18c29704 	addi	r3,r3,2652
 18069b8:	1085883a 	add	r2,r2,r2
 18069bc:	10c5883a 	add	r2,r2,r3
 18069c0:	11bfff17 	ldw	r6,-4(r2)
 18069c4:	000f883a 	mov	r7,zero
 18069c8:	18067d00 	call	18067d0 <__multadd>
 18069cc:	1029883a 	mov	r20,r2
 18069d0:	003fcb06 	br	1806900 <__pow5mult+0x30>
 18069d4:	9809883a 	mov	r4,r19
 18069d8:	01409c44 	movi	r5,625
 18069dc:	18067940 	call	1806794 <__i2b>
 18069e0:	98801215 	stw	r2,72(r19)
 18069e4:	1021883a 	mov	r16,r2
 18069e8:	10000015 	stw	zero,0(r2)
 18069ec:	003fd006 	br	1806930 <__pow5mult+0x60>

018069f0 <__s2b>:
 18069f0:	defff904 	addi	sp,sp,-28
 18069f4:	dcc00315 	stw	r19,12(sp)
 18069f8:	dc800215 	stw	r18,8(sp)
 18069fc:	2827883a 	mov	r19,r5
 1806a00:	2025883a 	mov	r18,r4
 1806a04:	01400244 	movi	r5,9
 1806a08:	39000204 	addi	r4,r7,8
 1806a0c:	dd000415 	stw	r20,16(sp)
 1806a10:	dc400115 	stw	r17,4(sp)
 1806a14:	dfc00615 	stw	ra,24(sp)
 1806a18:	dd400515 	stw	r21,20(sp)
 1806a1c:	dc000015 	stw	r16,0(sp)
 1806a20:	3829883a 	mov	r20,r7
 1806a24:	3023883a 	mov	r17,r6
 1806a28:	18095b40 	call	18095b4 <__divsi3>
 1806a2c:	00c00044 	movi	r3,1
 1806a30:	1880350e 	bge	r3,r2,1806b08 <__s2b+0x118>
 1806a34:	000b883a 	mov	r5,zero
 1806a38:	18c7883a 	add	r3,r3,r3
 1806a3c:	29400044 	addi	r5,r5,1
 1806a40:	18bffd16 	blt	r3,r2,1806a38 <__s2b+0x48>
 1806a44:	9009883a 	mov	r4,r18
 1806a48:	180609c0 	call	180609c <_Balloc>
 1806a4c:	1011883a 	mov	r8,r2
 1806a50:	d8800717 	ldw	r2,28(sp)
 1806a54:	00c00044 	movi	r3,1
 1806a58:	01800244 	movi	r6,9
 1806a5c:	40800515 	stw	r2,20(r8)
 1806a60:	40c00415 	stw	r3,16(r8)
 1806a64:	3440260e 	bge	r6,r17,1806b00 <__s2b+0x110>
 1806a68:	3021883a 	mov	r16,r6
 1806a6c:	99ab883a 	add	r21,r19,r6
 1806a70:	9c05883a 	add	r2,r19,r16
 1806a74:	11c00007 	ldb	r7,0(r2)
 1806a78:	400b883a 	mov	r5,r8
 1806a7c:	9009883a 	mov	r4,r18
 1806a80:	39fff404 	addi	r7,r7,-48
 1806a84:	01800284 	movi	r6,10
 1806a88:	18067d00 	call	18067d0 <__multadd>
 1806a8c:	84000044 	addi	r16,r16,1
 1806a90:	1011883a 	mov	r8,r2
 1806a94:	8c3ff61e 	bne	r17,r16,1806a70 <__s2b+0x80>
 1806a98:	ac45883a 	add	r2,r21,r17
 1806a9c:	117ffe04 	addi	r5,r2,-8
 1806aa0:	880d883a 	mov	r6,r17
 1806aa4:	35000c0e 	bge	r6,r20,1806ad8 <__s2b+0xe8>
 1806aa8:	a185c83a 	sub	r2,r20,r6
 1806aac:	2821883a 	mov	r16,r5
 1806ab0:	28a3883a 	add	r17,r5,r2
 1806ab4:	81c00007 	ldb	r7,0(r16)
 1806ab8:	400b883a 	mov	r5,r8
 1806abc:	9009883a 	mov	r4,r18
 1806ac0:	39fff404 	addi	r7,r7,-48
 1806ac4:	01800284 	movi	r6,10
 1806ac8:	18067d00 	call	18067d0 <__multadd>
 1806acc:	84000044 	addi	r16,r16,1
 1806ad0:	1011883a 	mov	r8,r2
 1806ad4:	847ff71e 	bne	r16,r17,1806ab4 <__s2b+0xc4>
 1806ad8:	4005883a 	mov	r2,r8
 1806adc:	dfc00617 	ldw	ra,24(sp)
 1806ae0:	dd400517 	ldw	r21,20(sp)
 1806ae4:	dd000417 	ldw	r20,16(sp)
 1806ae8:	dcc00317 	ldw	r19,12(sp)
 1806aec:	dc800217 	ldw	r18,8(sp)
 1806af0:	dc400117 	ldw	r17,4(sp)
 1806af4:	dc000017 	ldw	r16,0(sp)
 1806af8:	dec00704 	addi	sp,sp,28
 1806afc:	f800283a 	ret
 1806b00:	99400284 	addi	r5,r19,10
 1806b04:	003fe706 	br	1806aa4 <__s2b+0xb4>
 1806b08:	000b883a 	mov	r5,zero
 1806b0c:	003fcd06 	br	1806a44 <__s2b+0x54>

01806b10 <_realloc_r>:
 1806b10:	defff404 	addi	sp,sp,-48
 1806b14:	dd800815 	stw	r22,32(sp)
 1806b18:	dc800415 	stw	r18,16(sp)
 1806b1c:	dc400315 	stw	r17,12(sp)
 1806b20:	dfc00b15 	stw	ra,44(sp)
 1806b24:	df000a15 	stw	fp,40(sp)
 1806b28:	ddc00915 	stw	r23,36(sp)
 1806b2c:	dd400715 	stw	r21,28(sp)
 1806b30:	dd000615 	stw	r20,24(sp)
 1806b34:	dcc00515 	stw	r19,20(sp)
 1806b38:	dc000215 	stw	r16,8(sp)
 1806b3c:	2825883a 	mov	r18,r5
 1806b40:	3023883a 	mov	r17,r6
 1806b44:	202d883a 	mov	r22,r4
 1806b48:	2800c926 	beq	r5,zero,1806e70 <_realloc_r+0x360>
 1806b4c:	180a2480 	call	180a248 <__malloc_lock>
 1806b50:	943ffe04 	addi	r16,r18,-8
 1806b54:	88c002c4 	addi	r3,r17,11
 1806b58:	00800584 	movi	r2,22
 1806b5c:	82000117 	ldw	r8,4(r16)
 1806b60:	10c01b2e 	bgeu	r2,r3,1806bd0 <_realloc_r+0xc0>
 1806b64:	00bffe04 	movi	r2,-8
 1806b68:	188e703a 	and	r7,r3,r2
 1806b6c:	3839883a 	mov	fp,r7
 1806b70:	38001a16 	blt	r7,zero,1806bdc <_realloc_r+0xcc>
 1806b74:	e4401936 	bltu	fp,r17,1806bdc <_realloc_r+0xcc>
 1806b78:	013fff04 	movi	r4,-4
 1806b7c:	4126703a 	and	r19,r8,r4
 1806b80:	99c02616 	blt	r19,r7,1806c1c <_realloc_r+0x10c>
 1806b84:	802b883a 	mov	r21,r16
 1806b88:	9829883a 	mov	r20,r19
 1806b8c:	84000204 	addi	r16,r16,8
 1806b90:	a80f883a 	mov	r7,r21
 1806b94:	a70dc83a 	sub	r6,r20,fp
 1806b98:	008003c4 	movi	r2,15
 1806b9c:	1180c136 	bltu	r2,r6,1806ea4 <_realloc_r+0x394>
 1806ba0:	38800117 	ldw	r2,4(r7)
 1806ba4:	a549883a 	add	r4,r20,r21
 1806ba8:	1080004c 	andi	r2,r2,1
 1806bac:	a084b03a 	or	r2,r20,r2
 1806bb0:	38800115 	stw	r2,4(r7)
 1806bb4:	20c00117 	ldw	r3,4(r4)
 1806bb8:	18c00054 	ori	r3,r3,1
 1806bbc:	20c00115 	stw	r3,4(r4)
 1806bc0:	b009883a 	mov	r4,r22
 1806bc4:	180a2680 	call	180a268 <__malloc_unlock>
 1806bc8:	8023883a 	mov	r17,r16
 1806bcc:	00000606 	br	1806be8 <_realloc_r+0xd8>
 1806bd0:	01c00404 	movi	r7,16
 1806bd4:	3839883a 	mov	fp,r7
 1806bd8:	e47fe72e 	bgeu	fp,r17,1806b78 <_realloc_r+0x68>
 1806bdc:	00800304 	movi	r2,12
 1806be0:	0023883a 	mov	r17,zero
 1806be4:	b0800015 	stw	r2,0(r22)
 1806be8:	8805883a 	mov	r2,r17
 1806bec:	dfc00b17 	ldw	ra,44(sp)
 1806bf0:	df000a17 	ldw	fp,40(sp)
 1806bf4:	ddc00917 	ldw	r23,36(sp)
 1806bf8:	dd800817 	ldw	r22,32(sp)
 1806bfc:	dd400717 	ldw	r21,28(sp)
 1806c00:	dd000617 	ldw	r20,24(sp)
 1806c04:	dcc00517 	ldw	r19,20(sp)
 1806c08:	dc800417 	ldw	r18,16(sp)
 1806c0c:	dc400317 	ldw	r17,12(sp)
 1806c10:	dc000217 	ldw	r16,8(sp)
 1806c14:	dec00c04 	addi	sp,sp,48
 1806c18:	f800283a 	ret
 1806c1c:	00806074 	movhi	r2,385
 1806c20:	10849804 	addi	r2,r2,4704
 1806c24:	12400217 	ldw	r9,8(r2)
 1806c28:	84cd883a 	add	r6,r16,r19
 1806c2c:	802b883a 	mov	r21,r16
 1806c30:	3240b926 	beq	r6,r9,1806f18 <_realloc_r+0x408>
 1806c34:	31400117 	ldw	r5,4(r6)
 1806c38:	00bfff84 	movi	r2,-2
 1806c3c:	2884703a 	and	r2,r5,r2
 1806c40:	1185883a 	add	r2,r2,r6
 1806c44:	10c00117 	ldw	r3,4(r2)
 1806c48:	18c0004c 	andi	r3,r3,1
 1806c4c:	1807003a 	cmpeq	r3,r3,zero
 1806c50:	1800a326 	beq	r3,zero,1806ee0 <_realloc_r+0x3d0>
 1806c54:	2908703a 	and	r4,r5,r4
 1806c58:	9929883a 	add	r20,r19,r4
 1806c5c:	a1c0a30e 	bge	r20,r7,1806eec <_realloc_r+0x3dc>
 1806c60:	4080004c 	andi	r2,r8,1
 1806c64:	1000551e 	bne	r2,zero,1806dbc <_realloc_r+0x2ac>
 1806c68:	80800017 	ldw	r2,0(r16)
 1806c6c:	80afc83a 	sub	r23,r16,r2
 1806c70:	b8c00117 	ldw	r3,4(r23)
 1806c74:	00bfff04 	movi	r2,-4
 1806c78:	1884703a 	and	r2,r3,r2
 1806c7c:	30002e26 	beq	r6,zero,1806d38 <_realloc_r+0x228>
 1806c80:	3240b926 	beq	r6,r9,1806f68 <_realloc_r+0x458>
 1806c84:	98a9883a 	add	r20,r19,r2
 1806c88:	2509883a 	add	r4,r4,r20
 1806c8c:	d9000015 	stw	r4,0(sp)
 1806c90:	21c02a16 	blt	r4,r7,1806d3c <_realloc_r+0x22c>
 1806c94:	30800317 	ldw	r2,12(r6)
 1806c98:	30c00217 	ldw	r3,8(r6)
 1806c9c:	01400904 	movi	r5,36
 1806ca0:	99bfff04 	addi	r6,r19,-4
 1806ca4:	18800315 	stw	r2,12(r3)
 1806ca8:	10c00215 	stw	r3,8(r2)
 1806cac:	b9000317 	ldw	r4,12(r23)
 1806cb0:	b8800217 	ldw	r2,8(r23)
 1806cb4:	b82b883a 	mov	r21,r23
 1806cb8:	bc000204 	addi	r16,r23,8
 1806cbc:	20800215 	stw	r2,8(r4)
 1806cc0:	11000315 	stw	r4,12(r2)
 1806cc4:	2980e436 	bltu	r5,r6,1807058 <_realloc_r+0x548>
 1806cc8:	008004c4 	movi	r2,19
 1806ccc:	9009883a 	mov	r4,r18
 1806cd0:	8011883a 	mov	r8,r16
 1806cd4:	11800f2e 	bgeu	r2,r6,1806d14 <_realloc_r+0x204>
 1806cd8:	90800017 	ldw	r2,0(r18)
 1806cdc:	ba000404 	addi	r8,r23,16
 1806ce0:	91000204 	addi	r4,r18,8
 1806ce4:	b8800215 	stw	r2,8(r23)
 1806ce8:	90c00117 	ldw	r3,4(r18)
 1806cec:	008006c4 	movi	r2,27
 1806cf0:	b8c00315 	stw	r3,12(r23)
 1806cf4:	1180072e 	bgeu	r2,r6,1806d14 <_realloc_r+0x204>
 1806cf8:	90c00217 	ldw	r3,8(r18)
 1806cfc:	ba000604 	addi	r8,r23,24
 1806d00:	91000404 	addi	r4,r18,16
 1806d04:	b8c00415 	stw	r3,16(r23)
 1806d08:	90800317 	ldw	r2,12(r18)
 1806d0c:	b8800515 	stw	r2,20(r23)
 1806d10:	3140e726 	beq	r6,r5,18070b0 <_realloc_r+0x5a0>
 1806d14:	20800017 	ldw	r2,0(r4)
 1806d18:	dd000017 	ldw	r20,0(sp)
 1806d1c:	b80f883a 	mov	r7,r23
 1806d20:	40800015 	stw	r2,0(r8)
 1806d24:	20c00117 	ldw	r3,4(r4)
 1806d28:	40c00115 	stw	r3,4(r8)
 1806d2c:	20800217 	ldw	r2,8(r4)
 1806d30:	40800215 	stw	r2,8(r8)
 1806d34:	003f9706 	br	1806b94 <_realloc_r+0x84>
 1806d38:	98a9883a 	add	r20,r19,r2
 1806d3c:	a1c01f16 	blt	r20,r7,1806dbc <_realloc_r+0x2ac>
 1806d40:	b8c00317 	ldw	r3,12(r23)
 1806d44:	b8800217 	ldw	r2,8(r23)
 1806d48:	99bfff04 	addi	r6,r19,-4
 1806d4c:	01400904 	movi	r5,36
 1806d50:	b82b883a 	mov	r21,r23
 1806d54:	18800215 	stw	r2,8(r3)
 1806d58:	10c00315 	stw	r3,12(r2)
 1806d5c:	bc000204 	addi	r16,r23,8
 1806d60:	2980c336 	bltu	r5,r6,1807070 <_realloc_r+0x560>
 1806d64:	008004c4 	movi	r2,19
 1806d68:	9009883a 	mov	r4,r18
 1806d6c:	8011883a 	mov	r8,r16
 1806d70:	11800f2e 	bgeu	r2,r6,1806db0 <_realloc_r+0x2a0>
 1806d74:	90800017 	ldw	r2,0(r18)
 1806d78:	ba000404 	addi	r8,r23,16
 1806d7c:	91000204 	addi	r4,r18,8
 1806d80:	b8800215 	stw	r2,8(r23)
 1806d84:	90c00117 	ldw	r3,4(r18)
 1806d88:	008006c4 	movi	r2,27
 1806d8c:	b8c00315 	stw	r3,12(r23)
 1806d90:	1180072e 	bgeu	r2,r6,1806db0 <_realloc_r+0x2a0>
 1806d94:	90c00217 	ldw	r3,8(r18)
 1806d98:	ba000604 	addi	r8,r23,24
 1806d9c:	91000404 	addi	r4,r18,16
 1806da0:	b8c00415 	stw	r3,16(r23)
 1806da4:	90800317 	ldw	r2,12(r18)
 1806da8:	b8800515 	stw	r2,20(r23)
 1806dac:	3140c726 	beq	r6,r5,18070cc <_realloc_r+0x5bc>
 1806db0:	20800017 	ldw	r2,0(r4)
 1806db4:	b80f883a 	mov	r7,r23
 1806db8:	003fd906 	br	1806d20 <_realloc_r+0x210>
 1806dbc:	880b883a 	mov	r5,r17
 1806dc0:	b009883a 	mov	r4,r22
 1806dc4:	18050e00 	call	18050e0 <_malloc_r>
 1806dc8:	1023883a 	mov	r17,r2
 1806dcc:	10002526 	beq	r2,zero,1806e64 <_realloc_r+0x354>
 1806dd0:	80800117 	ldw	r2,4(r16)
 1806dd4:	00ffff84 	movi	r3,-2
 1806dd8:	893ffe04 	addi	r4,r17,-8
 1806ddc:	10c4703a 	and	r2,r2,r3
 1806de0:	8085883a 	add	r2,r16,r2
 1806de4:	20809526 	beq	r4,r2,180703c <_realloc_r+0x52c>
 1806de8:	99bfff04 	addi	r6,r19,-4
 1806dec:	01c00904 	movi	r7,36
 1806df0:	39804536 	bltu	r7,r6,1806f08 <_realloc_r+0x3f8>
 1806df4:	008004c4 	movi	r2,19
 1806df8:	9009883a 	mov	r4,r18
 1806dfc:	880b883a 	mov	r5,r17
 1806e00:	11800f2e 	bgeu	r2,r6,1806e40 <_realloc_r+0x330>
 1806e04:	90800017 	ldw	r2,0(r18)
 1806e08:	89400204 	addi	r5,r17,8
 1806e0c:	91000204 	addi	r4,r18,8
 1806e10:	88800015 	stw	r2,0(r17)
 1806e14:	90c00117 	ldw	r3,4(r18)
 1806e18:	008006c4 	movi	r2,27
 1806e1c:	88c00115 	stw	r3,4(r17)
 1806e20:	1180072e 	bgeu	r2,r6,1806e40 <_realloc_r+0x330>
 1806e24:	90c00217 	ldw	r3,8(r18)
 1806e28:	89400404 	addi	r5,r17,16
 1806e2c:	91000404 	addi	r4,r18,16
 1806e30:	88c00215 	stw	r3,8(r17)
 1806e34:	90800317 	ldw	r2,12(r18)
 1806e38:	88800315 	stw	r2,12(r17)
 1806e3c:	31c09126 	beq	r6,r7,1807084 <_realloc_r+0x574>
 1806e40:	20800017 	ldw	r2,0(r4)
 1806e44:	28800015 	stw	r2,0(r5)
 1806e48:	20c00117 	ldw	r3,4(r4)
 1806e4c:	28c00115 	stw	r3,4(r5)
 1806e50:	20800217 	ldw	r2,8(r4)
 1806e54:	28800215 	stw	r2,8(r5)
 1806e58:	900b883a 	mov	r5,r18
 1806e5c:	b009883a 	mov	r4,r22
 1806e60:	18045580 	call	1804558 <_free_r>
 1806e64:	b009883a 	mov	r4,r22
 1806e68:	180a2680 	call	180a268 <__malloc_unlock>
 1806e6c:	003f5e06 	br	1806be8 <_realloc_r+0xd8>
 1806e70:	300b883a 	mov	r5,r6
 1806e74:	dfc00b17 	ldw	ra,44(sp)
 1806e78:	df000a17 	ldw	fp,40(sp)
 1806e7c:	ddc00917 	ldw	r23,36(sp)
 1806e80:	dd800817 	ldw	r22,32(sp)
 1806e84:	dd400717 	ldw	r21,28(sp)
 1806e88:	dd000617 	ldw	r20,24(sp)
 1806e8c:	dcc00517 	ldw	r19,20(sp)
 1806e90:	dc800417 	ldw	r18,16(sp)
 1806e94:	dc400317 	ldw	r17,12(sp)
 1806e98:	dc000217 	ldw	r16,8(sp)
 1806e9c:	dec00c04 	addi	sp,sp,48
 1806ea0:	18050e01 	jmpi	18050e0 <_malloc_r>
 1806ea4:	38800117 	ldw	r2,4(r7)
 1806ea8:	e54b883a 	add	r5,fp,r21
 1806eac:	31000054 	ori	r4,r6,1
 1806eb0:	1080004c 	andi	r2,r2,1
 1806eb4:	1704b03a 	or	r2,r2,fp
 1806eb8:	38800115 	stw	r2,4(r7)
 1806ebc:	29000115 	stw	r4,4(r5)
 1806ec0:	2987883a 	add	r3,r5,r6
 1806ec4:	18800117 	ldw	r2,4(r3)
 1806ec8:	29400204 	addi	r5,r5,8
 1806ecc:	b009883a 	mov	r4,r22
 1806ed0:	10800054 	ori	r2,r2,1
 1806ed4:	18800115 	stw	r2,4(r3)
 1806ed8:	18045580 	call	1804558 <_free_r>
 1806edc:	003f3806 	br	1806bc0 <_realloc_r+0xb0>
 1806ee0:	000d883a 	mov	r6,zero
 1806ee4:	0009883a 	mov	r4,zero
 1806ee8:	003f5d06 	br	1806c60 <_realloc_r+0x150>
 1806eec:	30c00217 	ldw	r3,8(r6)
 1806ef0:	30800317 	ldw	r2,12(r6)
 1806ef4:	800f883a 	mov	r7,r16
 1806ef8:	84000204 	addi	r16,r16,8
 1806efc:	10c00215 	stw	r3,8(r2)
 1806f00:	18800315 	stw	r2,12(r3)
 1806f04:	003f2306 	br	1806b94 <_realloc_r+0x84>
 1806f08:	8809883a 	mov	r4,r17
 1806f0c:	900b883a 	mov	r5,r18
 1806f10:	18059a40 	call	18059a4 <memmove>
 1806f14:	003fd006 	br	1806e58 <_realloc_r+0x348>
 1806f18:	30800117 	ldw	r2,4(r6)
 1806f1c:	e0c00404 	addi	r3,fp,16
 1806f20:	1108703a 	and	r4,r2,r4
 1806f24:	9905883a 	add	r2,r19,r4
 1806f28:	10ff4d16 	blt	r2,r3,1806c60 <_realloc_r+0x150>
 1806f2c:	1705c83a 	sub	r2,r2,fp
 1806f30:	870b883a 	add	r5,r16,fp
 1806f34:	10800054 	ori	r2,r2,1
 1806f38:	28800115 	stw	r2,4(r5)
 1806f3c:	80c00117 	ldw	r3,4(r16)
 1806f40:	00806074 	movhi	r2,385
 1806f44:	10849804 	addi	r2,r2,4704
 1806f48:	b009883a 	mov	r4,r22
 1806f4c:	18c0004c 	andi	r3,r3,1
 1806f50:	e0c6b03a 	or	r3,fp,r3
 1806f54:	11400215 	stw	r5,8(r2)
 1806f58:	80c00115 	stw	r3,4(r16)
 1806f5c:	180a2680 	call	180a268 <__malloc_unlock>
 1806f60:	84400204 	addi	r17,r16,8
 1806f64:	003f2006 	br	1806be8 <_realloc_r+0xd8>
 1806f68:	98a9883a 	add	r20,r19,r2
 1806f6c:	2509883a 	add	r4,r4,r20
 1806f70:	e0800404 	addi	r2,fp,16
 1806f74:	d9000115 	stw	r4,4(sp)
 1806f78:	20bf7016 	blt	r4,r2,1806d3c <_realloc_r+0x22c>
 1806f7c:	b8c00317 	ldw	r3,12(r23)
 1806f80:	b8800217 	ldw	r2,8(r23)
 1806f84:	99bfff04 	addi	r6,r19,-4
 1806f88:	01400904 	movi	r5,36
 1806f8c:	18800215 	stw	r2,8(r3)
 1806f90:	10c00315 	stw	r3,12(r2)
 1806f94:	bc400204 	addi	r17,r23,8
 1806f98:	29804136 	bltu	r5,r6,18070a0 <_realloc_r+0x590>
 1806f9c:	008004c4 	movi	r2,19
 1806fa0:	9009883a 	mov	r4,r18
 1806fa4:	880f883a 	mov	r7,r17
 1806fa8:	11800f2e 	bgeu	r2,r6,1806fe8 <_realloc_r+0x4d8>
 1806fac:	90800017 	ldw	r2,0(r18)
 1806fb0:	b9c00404 	addi	r7,r23,16
 1806fb4:	91000204 	addi	r4,r18,8
 1806fb8:	b8800215 	stw	r2,8(r23)
 1806fbc:	90c00117 	ldw	r3,4(r18)
 1806fc0:	008006c4 	movi	r2,27
 1806fc4:	b8c00315 	stw	r3,12(r23)
 1806fc8:	1180072e 	bgeu	r2,r6,1806fe8 <_realloc_r+0x4d8>
 1806fcc:	90c00217 	ldw	r3,8(r18)
 1806fd0:	b9c00604 	addi	r7,r23,24
 1806fd4:	91000404 	addi	r4,r18,16
 1806fd8:	b8c00415 	stw	r3,16(r23)
 1806fdc:	90800317 	ldw	r2,12(r18)
 1806fe0:	b8800515 	stw	r2,20(r23)
 1806fe4:	31404026 	beq	r6,r5,18070e8 <_realloc_r+0x5d8>
 1806fe8:	20800017 	ldw	r2,0(r4)
 1806fec:	38800015 	stw	r2,0(r7)
 1806ff0:	20c00117 	ldw	r3,4(r4)
 1806ff4:	38c00115 	stw	r3,4(r7)
 1806ff8:	20800217 	ldw	r2,8(r4)
 1806ffc:	38800215 	stw	r2,8(r7)
 1807000:	d8c00117 	ldw	r3,4(sp)
 1807004:	bf0b883a 	add	r5,r23,fp
 1807008:	b009883a 	mov	r4,r22
 180700c:	1f05c83a 	sub	r2,r3,fp
 1807010:	10800054 	ori	r2,r2,1
 1807014:	28800115 	stw	r2,4(r5)
 1807018:	b8c00117 	ldw	r3,4(r23)
 180701c:	00806074 	movhi	r2,385
 1807020:	10849804 	addi	r2,r2,4704
 1807024:	11400215 	stw	r5,8(r2)
 1807028:	18c0004c 	andi	r3,r3,1
 180702c:	e0c6b03a 	or	r3,fp,r3
 1807030:	b8c00115 	stw	r3,4(r23)
 1807034:	180a2680 	call	180a268 <__malloc_unlock>
 1807038:	003eeb06 	br	1806be8 <_realloc_r+0xd8>
 180703c:	20800117 	ldw	r2,4(r4)
 1807040:	00ffff04 	movi	r3,-4
 1807044:	800f883a 	mov	r7,r16
 1807048:	10c4703a 	and	r2,r2,r3
 180704c:	98a9883a 	add	r20,r19,r2
 1807050:	84000204 	addi	r16,r16,8
 1807054:	003ecf06 	br	1806b94 <_realloc_r+0x84>
 1807058:	900b883a 	mov	r5,r18
 180705c:	8009883a 	mov	r4,r16
 1807060:	18059a40 	call	18059a4 <memmove>
 1807064:	dd000017 	ldw	r20,0(sp)
 1807068:	b80f883a 	mov	r7,r23
 180706c:	003ec906 	br	1806b94 <_realloc_r+0x84>
 1807070:	900b883a 	mov	r5,r18
 1807074:	8009883a 	mov	r4,r16
 1807078:	18059a40 	call	18059a4 <memmove>
 180707c:	b80f883a 	mov	r7,r23
 1807080:	003ec406 	br	1806b94 <_realloc_r+0x84>
 1807084:	90c00417 	ldw	r3,16(r18)
 1807088:	89400604 	addi	r5,r17,24
 180708c:	91000604 	addi	r4,r18,24
 1807090:	88c00415 	stw	r3,16(r17)
 1807094:	90800517 	ldw	r2,20(r18)
 1807098:	88800515 	stw	r2,20(r17)
 180709c:	003f6806 	br	1806e40 <_realloc_r+0x330>
 18070a0:	900b883a 	mov	r5,r18
 18070a4:	8809883a 	mov	r4,r17
 18070a8:	18059a40 	call	18059a4 <memmove>
 18070ac:	003fd406 	br	1807000 <_realloc_r+0x4f0>
 18070b0:	90c00417 	ldw	r3,16(r18)
 18070b4:	91000604 	addi	r4,r18,24
 18070b8:	ba000804 	addi	r8,r23,32
 18070bc:	b8c00615 	stw	r3,24(r23)
 18070c0:	90800517 	ldw	r2,20(r18)
 18070c4:	b8800715 	stw	r2,28(r23)
 18070c8:	003f1206 	br	1806d14 <_realloc_r+0x204>
 18070cc:	90c00417 	ldw	r3,16(r18)
 18070d0:	91000604 	addi	r4,r18,24
 18070d4:	ba000804 	addi	r8,r23,32
 18070d8:	b8c00615 	stw	r3,24(r23)
 18070dc:	90800517 	ldw	r2,20(r18)
 18070e0:	b8800715 	stw	r2,28(r23)
 18070e4:	003f3206 	br	1806db0 <_realloc_r+0x2a0>
 18070e8:	90c00417 	ldw	r3,16(r18)
 18070ec:	91000604 	addi	r4,r18,24
 18070f0:	b9c00804 	addi	r7,r23,32
 18070f4:	b8c00615 	stw	r3,24(r23)
 18070f8:	90800517 	ldw	r2,20(r18)
 18070fc:	b8800715 	stw	r2,28(r23)
 1807100:	003fb906 	br	1806fe8 <_realloc_r+0x4d8>

01807104 <__isinfd>:
 1807104:	200d883a 	mov	r6,r4
 1807108:	0109c83a 	sub	r4,zero,r4
 180710c:	2188b03a 	or	r4,r4,r6
 1807110:	2008d7fa 	srli	r4,r4,31
 1807114:	00a00034 	movhi	r2,32768
 1807118:	10bfffc4 	addi	r2,r2,-1
 180711c:	1144703a 	and	r2,r2,r5
 1807120:	2088b03a 	or	r4,r4,r2
 1807124:	009ffc34 	movhi	r2,32752
 1807128:	1105c83a 	sub	r2,r2,r4
 180712c:	0087c83a 	sub	r3,zero,r2
 1807130:	10c4b03a 	or	r2,r2,r3
 1807134:	1004d7fa 	srli	r2,r2,31
 1807138:	00c00044 	movi	r3,1
 180713c:	1885c83a 	sub	r2,r3,r2
 1807140:	f800283a 	ret

01807144 <__isnand>:
 1807144:	200d883a 	mov	r6,r4
 1807148:	0109c83a 	sub	r4,zero,r4
 180714c:	2188b03a 	or	r4,r4,r6
 1807150:	2008d7fa 	srli	r4,r4,31
 1807154:	00a00034 	movhi	r2,32768
 1807158:	10bfffc4 	addi	r2,r2,-1
 180715c:	1144703a 	and	r2,r2,r5
 1807160:	2088b03a 	or	r4,r4,r2
 1807164:	009ffc34 	movhi	r2,32752
 1807168:	1105c83a 	sub	r2,r2,r4
 180716c:	1004d7fa 	srli	r2,r2,31
 1807170:	f800283a 	ret

01807174 <_sbrk_r>:
 1807174:	defffd04 	addi	sp,sp,-12
 1807178:	dc000015 	stw	r16,0(sp)
 180717c:	04006074 	movhi	r16,385
 1807180:	840ae504 	addi	r16,r16,11156
 1807184:	dc400115 	stw	r17,4(sp)
 1807188:	80000015 	stw	zero,0(r16)
 180718c:	2023883a 	mov	r17,r4
 1807190:	2809883a 	mov	r4,r5
 1807194:	dfc00215 	stw	ra,8(sp)
 1807198:	180a4680 	call	180a468 <sbrk>
 180719c:	1007883a 	mov	r3,r2
 18071a0:	00bfffc4 	movi	r2,-1
 18071a4:	18800626 	beq	r3,r2,18071c0 <_sbrk_r+0x4c>
 18071a8:	1805883a 	mov	r2,r3
 18071ac:	dfc00217 	ldw	ra,8(sp)
 18071b0:	dc400117 	ldw	r17,4(sp)
 18071b4:	dc000017 	ldw	r16,0(sp)
 18071b8:	dec00304 	addi	sp,sp,12
 18071bc:	f800283a 	ret
 18071c0:	80800017 	ldw	r2,0(r16)
 18071c4:	103ff826 	beq	r2,zero,18071a8 <_sbrk_r+0x34>
 18071c8:	88800015 	stw	r2,0(r17)
 18071cc:	1805883a 	mov	r2,r3
 18071d0:	dfc00217 	ldw	ra,8(sp)
 18071d4:	dc400117 	ldw	r17,4(sp)
 18071d8:	dc000017 	ldw	r16,0(sp)
 18071dc:	dec00304 	addi	sp,sp,12
 18071e0:	f800283a 	ret

018071e4 <__sclose>:
 18071e4:	2940038f 	ldh	r5,14(r5)
 18071e8:	18075181 	jmpi	1807518 <_close_r>

018071ec <__sseek>:
 18071ec:	defffe04 	addi	sp,sp,-8
 18071f0:	dc000015 	stw	r16,0(sp)
 18071f4:	2821883a 	mov	r16,r5
 18071f8:	2940038f 	ldh	r5,14(r5)
 18071fc:	dfc00115 	stw	ra,4(sp)
 1807200:	18077900 	call	1807790 <_lseek_r>
 1807204:	1007883a 	mov	r3,r2
 1807208:	00bfffc4 	movi	r2,-1
 180720c:	18800926 	beq	r3,r2,1807234 <__sseek+0x48>
 1807210:	8080030b 	ldhu	r2,12(r16)
 1807214:	80c01415 	stw	r3,80(r16)
 1807218:	10840014 	ori	r2,r2,4096
 180721c:	8080030d 	sth	r2,12(r16)
 1807220:	1805883a 	mov	r2,r3
 1807224:	dfc00117 	ldw	ra,4(sp)
 1807228:	dc000017 	ldw	r16,0(sp)
 180722c:	dec00204 	addi	sp,sp,8
 1807230:	f800283a 	ret
 1807234:	8080030b 	ldhu	r2,12(r16)
 1807238:	10bbffcc 	andi	r2,r2,61439
 180723c:	8080030d 	sth	r2,12(r16)
 1807240:	1805883a 	mov	r2,r3
 1807244:	dfc00117 	ldw	ra,4(sp)
 1807248:	dc000017 	ldw	r16,0(sp)
 180724c:	dec00204 	addi	sp,sp,8
 1807250:	f800283a 	ret

01807254 <__swrite>:
 1807254:	2880030b 	ldhu	r2,12(r5)
 1807258:	defffb04 	addi	sp,sp,-20
 180725c:	dcc00315 	stw	r19,12(sp)
 1807260:	1080400c 	andi	r2,r2,256
 1807264:	dc800215 	stw	r18,8(sp)
 1807268:	dc400115 	stw	r17,4(sp)
 180726c:	dc000015 	stw	r16,0(sp)
 1807270:	3027883a 	mov	r19,r6
 1807274:	3825883a 	mov	r18,r7
 1807278:	dfc00415 	stw	ra,16(sp)
 180727c:	2821883a 	mov	r16,r5
 1807280:	000d883a 	mov	r6,zero
 1807284:	01c00084 	movi	r7,2
 1807288:	2023883a 	mov	r17,r4
 180728c:	10000226 	beq	r2,zero,1807298 <__swrite+0x44>
 1807290:	2940038f 	ldh	r5,14(r5)
 1807294:	18077900 	call	1807790 <_lseek_r>
 1807298:	8080030b 	ldhu	r2,12(r16)
 180729c:	8140038f 	ldh	r5,14(r16)
 18072a0:	8809883a 	mov	r4,r17
 18072a4:	10bbffcc 	andi	r2,r2,61439
 18072a8:	980d883a 	mov	r6,r19
 18072ac:	900f883a 	mov	r7,r18
 18072b0:	8080030d 	sth	r2,12(r16)
 18072b4:	dfc00417 	ldw	ra,16(sp)
 18072b8:	dcc00317 	ldw	r19,12(sp)
 18072bc:	dc800217 	ldw	r18,8(sp)
 18072c0:	dc400117 	ldw	r17,4(sp)
 18072c4:	dc000017 	ldw	r16,0(sp)
 18072c8:	dec00504 	addi	sp,sp,20
 18072cc:	18073ec1 	jmpi	18073ec <_write_r>

018072d0 <__sread>:
 18072d0:	defffe04 	addi	sp,sp,-8
 18072d4:	dc000015 	stw	r16,0(sp)
 18072d8:	2821883a 	mov	r16,r5
 18072dc:	2940038f 	ldh	r5,14(r5)
 18072e0:	dfc00115 	stw	ra,4(sp)
 18072e4:	18078080 	call	1807808 <_read_r>
 18072e8:	1007883a 	mov	r3,r2
 18072ec:	10000816 	blt	r2,zero,1807310 <__sread+0x40>
 18072f0:	80801417 	ldw	r2,80(r16)
 18072f4:	10c5883a 	add	r2,r2,r3
 18072f8:	80801415 	stw	r2,80(r16)
 18072fc:	1805883a 	mov	r2,r3
 1807300:	dfc00117 	ldw	ra,4(sp)
 1807304:	dc000017 	ldw	r16,0(sp)
 1807308:	dec00204 	addi	sp,sp,8
 180730c:	f800283a 	ret
 1807310:	8080030b 	ldhu	r2,12(r16)
 1807314:	10bbffcc 	andi	r2,r2,61439
 1807318:	8080030d 	sth	r2,12(r16)
 180731c:	1805883a 	mov	r2,r3
 1807320:	dfc00117 	ldw	ra,4(sp)
 1807324:	dc000017 	ldw	r16,0(sp)
 1807328:	dec00204 	addi	sp,sp,8
 180732c:	f800283a 	ret

01807330 <strcmp>:
 1807330:	2144b03a 	or	r2,r4,r5
 1807334:	108000cc 	andi	r2,r2,3
 1807338:	10001d1e 	bne	r2,zero,18073b0 <strcmp+0x80>
 180733c:	200f883a 	mov	r7,r4
 1807340:	28800017 	ldw	r2,0(r5)
 1807344:	21000017 	ldw	r4,0(r4)
 1807348:	280d883a 	mov	r6,r5
 180734c:	2080161e 	bne	r4,r2,18073a8 <strcmp+0x78>
 1807350:	023fbff4 	movhi	r8,65279
 1807354:	423fbfc4 	addi	r8,r8,-257
 1807358:	2207883a 	add	r3,r4,r8
 180735c:	01602074 	movhi	r5,32897
 1807360:	29602004 	addi	r5,r5,-32640
 1807364:	1946703a 	and	r3,r3,r5
 1807368:	0104303a 	nor	r2,zero,r4
 180736c:	10c4703a 	and	r2,r2,r3
 1807370:	10001c1e 	bne	r2,zero,18073e4 <strcmp+0xb4>
 1807374:	4013883a 	mov	r9,r8
 1807378:	2811883a 	mov	r8,r5
 180737c:	00000106 	br	1807384 <strcmp+0x54>
 1807380:	1800181e 	bne	r3,zero,18073e4 <strcmp+0xb4>
 1807384:	39c00104 	addi	r7,r7,4
 1807388:	39000017 	ldw	r4,0(r7)
 180738c:	31800104 	addi	r6,r6,4
 1807390:	31400017 	ldw	r5,0(r6)
 1807394:	2245883a 	add	r2,r4,r9
 1807398:	1204703a 	and	r2,r2,r8
 180739c:	0106303a 	nor	r3,zero,r4
 18073a0:	1886703a 	and	r3,r3,r2
 18073a4:	217ff626 	beq	r4,r5,1807380 <strcmp+0x50>
 18073a8:	3809883a 	mov	r4,r7
 18073ac:	300b883a 	mov	r5,r6
 18073b0:	20c00007 	ldb	r3,0(r4)
 18073b4:	1800051e 	bne	r3,zero,18073cc <strcmp+0x9c>
 18073b8:	00000606 	br	18073d4 <strcmp+0xa4>
 18073bc:	21000044 	addi	r4,r4,1
 18073c0:	20c00007 	ldb	r3,0(r4)
 18073c4:	29400044 	addi	r5,r5,1
 18073c8:	18000226 	beq	r3,zero,18073d4 <strcmp+0xa4>
 18073cc:	28800007 	ldb	r2,0(r5)
 18073d0:	18bffa26 	beq	r3,r2,18073bc <strcmp+0x8c>
 18073d4:	20c00003 	ldbu	r3,0(r4)
 18073d8:	28800003 	ldbu	r2,0(r5)
 18073dc:	1885c83a 	sub	r2,r3,r2
 18073e0:	f800283a 	ret
 18073e4:	0005883a 	mov	r2,zero
 18073e8:	f800283a 	ret

018073ec <_write_r>:
 18073ec:	defffd04 	addi	sp,sp,-12
 18073f0:	dc000015 	stw	r16,0(sp)
 18073f4:	04006074 	movhi	r16,385
 18073f8:	840ae504 	addi	r16,r16,11156
 18073fc:	dc400115 	stw	r17,4(sp)
 1807400:	80000015 	stw	zero,0(r16)
 1807404:	2023883a 	mov	r17,r4
 1807408:	2809883a 	mov	r4,r5
 180740c:	300b883a 	mov	r5,r6
 1807410:	380d883a 	mov	r6,r7
 1807414:	dfc00215 	stw	ra,8(sp)
 1807418:	180a5540 	call	180a554 <write>
 180741c:	1007883a 	mov	r3,r2
 1807420:	00bfffc4 	movi	r2,-1
 1807424:	18800626 	beq	r3,r2,1807440 <_write_r+0x54>
 1807428:	1805883a 	mov	r2,r3
 180742c:	dfc00217 	ldw	ra,8(sp)
 1807430:	dc400117 	ldw	r17,4(sp)
 1807434:	dc000017 	ldw	r16,0(sp)
 1807438:	dec00304 	addi	sp,sp,12
 180743c:	f800283a 	ret
 1807440:	80800017 	ldw	r2,0(r16)
 1807444:	103ff826 	beq	r2,zero,1807428 <_write_r+0x3c>
 1807448:	88800015 	stw	r2,0(r17)
 180744c:	1805883a 	mov	r2,r3
 1807450:	dfc00217 	ldw	ra,8(sp)
 1807454:	dc400117 	ldw	r17,4(sp)
 1807458:	dc000017 	ldw	r16,0(sp)
 180745c:	dec00304 	addi	sp,sp,12
 1807460:	f800283a 	ret

01807464 <_calloc_r>:
 1807464:	298b383a 	mul	r5,r5,r6
 1807468:	defffe04 	addi	sp,sp,-8
 180746c:	dc000015 	stw	r16,0(sp)
 1807470:	dfc00115 	stw	ra,4(sp)
 1807474:	18050e00 	call	18050e0 <_malloc_r>
 1807478:	1021883a 	mov	r16,r2
 180747c:	01c00904 	movi	r7,36
 1807480:	10000d26 	beq	r2,zero,18074b8 <_calloc_r+0x54>
 1807484:	10ffff17 	ldw	r3,-4(r2)
 1807488:	1009883a 	mov	r4,r2
 180748c:	00bfff04 	movi	r2,-4
 1807490:	1886703a 	and	r3,r3,r2
 1807494:	1887883a 	add	r3,r3,r2
 1807498:	180d883a 	mov	r6,r3
 180749c:	000b883a 	mov	r5,zero
 18074a0:	38c01736 	bltu	r7,r3,1807500 <_calloc_r+0x9c>
 18074a4:	008004c4 	movi	r2,19
 18074a8:	10c00836 	bltu	r2,r3,18074cc <_calloc_r+0x68>
 18074ac:	20000215 	stw	zero,8(r4)
 18074b0:	20000015 	stw	zero,0(r4)
 18074b4:	20000115 	stw	zero,4(r4)
 18074b8:	8005883a 	mov	r2,r16
 18074bc:	dfc00117 	ldw	ra,4(sp)
 18074c0:	dc000017 	ldw	r16,0(sp)
 18074c4:	dec00204 	addi	sp,sp,8
 18074c8:	f800283a 	ret
 18074cc:	008006c4 	movi	r2,27
 18074d0:	80000015 	stw	zero,0(r16)
 18074d4:	80000115 	stw	zero,4(r16)
 18074d8:	81000204 	addi	r4,r16,8
 18074dc:	10fff32e 	bgeu	r2,r3,18074ac <_calloc_r+0x48>
 18074e0:	80000215 	stw	zero,8(r16)
 18074e4:	80000315 	stw	zero,12(r16)
 18074e8:	81000404 	addi	r4,r16,16
 18074ec:	19ffef1e 	bne	r3,r7,18074ac <_calloc_r+0x48>
 18074f0:	81000604 	addi	r4,r16,24
 18074f4:	80000415 	stw	zero,16(r16)
 18074f8:	80000515 	stw	zero,20(r16)
 18074fc:	003feb06 	br	18074ac <_calloc_r+0x48>
 1807500:	1805a840 	call	1805a84 <memset>
 1807504:	8005883a 	mov	r2,r16
 1807508:	dfc00117 	ldw	ra,4(sp)
 180750c:	dc000017 	ldw	r16,0(sp)
 1807510:	dec00204 	addi	sp,sp,8
 1807514:	f800283a 	ret

01807518 <_close_r>:
 1807518:	defffd04 	addi	sp,sp,-12
 180751c:	dc000015 	stw	r16,0(sp)
 1807520:	04006074 	movhi	r16,385
 1807524:	840ae504 	addi	r16,r16,11156
 1807528:	dc400115 	stw	r17,4(sp)
 180752c:	80000015 	stw	zero,0(r16)
 1807530:	2023883a 	mov	r17,r4
 1807534:	2809883a 	mov	r4,r5
 1807538:	dfc00215 	stw	ra,8(sp)
 180753c:	1809cb00 	call	1809cb0 <close>
 1807540:	1007883a 	mov	r3,r2
 1807544:	00bfffc4 	movi	r2,-1
 1807548:	18800626 	beq	r3,r2,1807564 <_close_r+0x4c>
 180754c:	1805883a 	mov	r2,r3
 1807550:	dfc00217 	ldw	ra,8(sp)
 1807554:	dc400117 	ldw	r17,4(sp)
 1807558:	dc000017 	ldw	r16,0(sp)
 180755c:	dec00304 	addi	sp,sp,12
 1807560:	f800283a 	ret
 1807564:	80800017 	ldw	r2,0(r16)
 1807568:	103ff826 	beq	r2,zero,180754c <_close_r+0x34>
 180756c:	88800015 	stw	r2,0(r17)
 1807570:	1805883a 	mov	r2,r3
 1807574:	dfc00217 	ldw	ra,8(sp)
 1807578:	dc400117 	ldw	r17,4(sp)
 180757c:	dc000017 	ldw	r16,0(sp)
 1807580:	dec00304 	addi	sp,sp,12
 1807584:	f800283a 	ret

01807588 <_fclose_r>:
 1807588:	defffc04 	addi	sp,sp,-16
 180758c:	dc400115 	stw	r17,4(sp)
 1807590:	dc000015 	stw	r16,0(sp)
 1807594:	dfc00315 	stw	ra,12(sp)
 1807598:	dc800215 	stw	r18,8(sp)
 180759c:	2821883a 	mov	r16,r5
 18075a0:	2023883a 	mov	r17,r4
 18075a4:	28002926 	beq	r5,zero,180764c <_fclose_r+0xc4>
 18075a8:	18041c40 	call	18041c4 <__sfp_lock_acquire>
 18075ac:	88000226 	beq	r17,zero,18075b8 <_fclose_r+0x30>
 18075b0:	88800e17 	ldw	r2,56(r17)
 18075b4:	10002d26 	beq	r2,zero,180766c <_fclose_r+0xe4>
 18075b8:	8080030f 	ldh	r2,12(r16)
 18075bc:	10002226 	beq	r2,zero,1807648 <_fclose_r+0xc0>
 18075c0:	8809883a 	mov	r4,r17
 18075c4:	800b883a 	mov	r5,r16
 18075c8:	1803f3c0 	call	1803f3c <_fflush_r>
 18075cc:	1025883a 	mov	r18,r2
 18075d0:	80800b17 	ldw	r2,44(r16)
 18075d4:	10000426 	beq	r2,zero,18075e8 <_fclose_r+0x60>
 18075d8:	81400717 	ldw	r5,28(r16)
 18075dc:	8809883a 	mov	r4,r17
 18075e0:	103ee83a 	callr	r2
 18075e4:	10002a16 	blt	r2,zero,1807690 <_fclose_r+0x108>
 18075e8:	8080030b 	ldhu	r2,12(r16)
 18075ec:	1080200c 	andi	r2,r2,128
 18075f0:	1000231e 	bne	r2,zero,1807680 <_fclose_r+0xf8>
 18075f4:	81400c17 	ldw	r5,48(r16)
 18075f8:	28000526 	beq	r5,zero,1807610 <_fclose_r+0x88>
 18075fc:	80801004 	addi	r2,r16,64
 1807600:	28800226 	beq	r5,r2,180760c <_fclose_r+0x84>
 1807604:	8809883a 	mov	r4,r17
 1807608:	18045580 	call	1804558 <_free_r>
 180760c:	80000c15 	stw	zero,48(r16)
 1807610:	81401117 	ldw	r5,68(r16)
 1807614:	28000326 	beq	r5,zero,1807624 <_fclose_r+0x9c>
 1807618:	8809883a 	mov	r4,r17
 180761c:	18045580 	call	1804558 <_free_r>
 1807620:	80001115 	stw	zero,68(r16)
 1807624:	8000030d 	sth	zero,12(r16)
 1807628:	18041c80 	call	18041c8 <__sfp_lock_release>
 180762c:	9005883a 	mov	r2,r18
 1807630:	dfc00317 	ldw	ra,12(sp)
 1807634:	dc800217 	ldw	r18,8(sp)
 1807638:	dc400117 	ldw	r17,4(sp)
 180763c:	dc000017 	ldw	r16,0(sp)
 1807640:	dec00404 	addi	sp,sp,16
 1807644:	f800283a 	ret
 1807648:	18041c80 	call	18041c8 <__sfp_lock_release>
 180764c:	0025883a 	mov	r18,zero
 1807650:	9005883a 	mov	r2,r18
 1807654:	dfc00317 	ldw	ra,12(sp)
 1807658:	dc800217 	ldw	r18,8(sp)
 180765c:	dc400117 	ldw	r17,4(sp)
 1807660:	dc000017 	ldw	r16,0(sp)
 1807664:	dec00404 	addi	sp,sp,16
 1807668:	f800283a 	ret
 180766c:	8809883a 	mov	r4,r17
 1807670:	18041d40 	call	18041d4 <__sinit>
 1807674:	8080030f 	ldh	r2,12(r16)
 1807678:	103fd11e 	bne	r2,zero,18075c0 <_fclose_r+0x38>
 180767c:	003ff206 	br	1807648 <_fclose_r+0xc0>
 1807680:	81400417 	ldw	r5,16(r16)
 1807684:	8809883a 	mov	r4,r17
 1807688:	18045580 	call	1804558 <_free_r>
 180768c:	003fd906 	br	18075f4 <_fclose_r+0x6c>
 1807690:	04bfffc4 	movi	r18,-1
 1807694:	003fd406 	br	18075e8 <_fclose_r+0x60>

01807698 <fclose>:
 1807698:	00806074 	movhi	r2,385
 180769c:	108acb04 	addi	r2,r2,11052
 18076a0:	200b883a 	mov	r5,r4
 18076a4:	11000017 	ldw	r4,0(r2)
 18076a8:	18075881 	jmpi	1807588 <_fclose_r>

018076ac <_fstat_r>:
 18076ac:	defffd04 	addi	sp,sp,-12
 18076b0:	dc000015 	stw	r16,0(sp)
 18076b4:	04006074 	movhi	r16,385
 18076b8:	840ae504 	addi	r16,r16,11156
 18076bc:	dc400115 	stw	r17,4(sp)
 18076c0:	80000015 	stw	zero,0(r16)
 18076c4:	2023883a 	mov	r17,r4
 18076c8:	2809883a 	mov	r4,r5
 18076cc:	300b883a 	mov	r5,r6
 18076d0:	dfc00215 	stw	ra,8(sp)
 18076d4:	1809e380 	call	1809e38 <fstat>
 18076d8:	1007883a 	mov	r3,r2
 18076dc:	00bfffc4 	movi	r2,-1
 18076e0:	18800626 	beq	r3,r2,18076fc <_fstat_r+0x50>
 18076e4:	1805883a 	mov	r2,r3
 18076e8:	dfc00217 	ldw	ra,8(sp)
 18076ec:	dc400117 	ldw	r17,4(sp)
 18076f0:	dc000017 	ldw	r16,0(sp)
 18076f4:	dec00304 	addi	sp,sp,12
 18076f8:	f800283a 	ret
 18076fc:	80800017 	ldw	r2,0(r16)
 1807700:	103ff826 	beq	r2,zero,18076e4 <_fstat_r+0x38>
 1807704:	88800015 	stw	r2,0(r17)
 1807708:	1805883a 	mov	r2,r3
 180770c:	dfc00217 	ldw	ra,8(sp)
 1807710:	dc400117 	ldw	r17,4(sp)
 1807714:	dc000017 	ldw	r16,0(sp)
 1807718:	dec00304 	addi	sp,sp,12
 180771c:	f800283a 	ret

01807720 <_isatty_r>:
 1807720:	defffd04 	addi	sp,sp,-12
 1807724:	dc000015 	stw	r16,0(sp)
 1807728:	04006074 	movhi	r16,385
 180772c:	840ae504 	addi	r16,r16,11156
 1807730:	dc400115 	stw	r17,4(sp)
 1807734:	80000015 	stw	zero,0(r16)
 1807738:	2023883a 	mov	r17,r4
 180773c:	2809883a 	mov	r4,r5
 1807740:	dfc00215 	stw	ra,8(sp)
 1807744:	1809f6c0 	call	1809f6c <isatty>
 1807748:	1007883a 	mov	r3,r2
 180774c:	00bfffc4 	movi	r2,-1
 1807750:	18800626 	beq	r3,r2,180776c <_isatty_r+0x4c>
 1807754:	1805883a 	mov	r2,r3
 1807758:	dfc00217 	ldw	ra,8(sp)
 180775c:	dc400117 	ldw	r17,4(sp)
 1807760:	dc000017 	ldw	r16,0(sp)
 1807764:	dec00304 	addi	sp,sp,12
 1807768:	f800283a 	ret
 180776c:	80800017 	ldw	r2,0(r16)
 1807770:	103ff826 	beq	r2,zero,1807754 <_isatty_r+0x34>
 1807774:	88800015 	stw	r2,0(r17)
 1807778:	1805883a 	mov	r2,r3
 180777c:	dfc00217 	ldw	ra,8(sp)
 1807780:	dc400117 	ldw	r17,4(sp)
 1807784:	dc000017 	ldw	r16,0(sp)
 1807788:	dec00304 	addi	sp,sp,12
 180778c:	f800283a 	ret

01807790 <_lseek_r>:
 1807790:	defffd04 	addi	sp,sp,-12
 1807794:	dc000015 	stw	r16,0(sp)
 1807798:	04006074 	movhi	r16,385
 180779c:	840ae504 	addi	r16,r16,11156
 18077a0:	dc400115 	stw	r17,4(sp)
 18077a4:	80000015 	stw	zero,0(r16)
 18077a8:	2023883a 	mov	r17,r4
 18077ac:	2809883a 	mov	r4,r5
 18077b0:	300b883a 	mov	r5,r6
 18077b4:	380d883a 	mov	r6,r7
 18077b8:	dfc00215 	stw	ra,8(sp)
 18077bc:	180a08c0 	call	180a08c <lseek>
 18077c0:	1007883a 	mov	r3,r2
 18077c4:	00bfffc4 	movi	r2,-1
 18077c8:	18800626 	beq	r3,r2,18077e4 <_lseek_r+0x54>
 18077cc:	1805883a 	mov	r2,r3
 18077d0:	dfc00217 	ldw	ra,8(sp)
 18077d4:	dc400117 	ldw	r17,4(sp)
 18077d8:	dc000017 	ldw	r16,0(sp)
 18077dc:	dec00304 	addi	sp,sp,12
 18077e0:	f800283a 	ret
 18077e4:	80800017 	ldw	r2,0(r16)
 18077e8:	103ff826 	beq	r2,zero,18077cc <_lseek_r+0x3c>
 18077ec:	88800015 	stw	r2,0(r17)
 18077f0:	1805883a 	mov	r2,r3
 18077f4:	dfc00217 	ldw	ra,8(sp)
 18077f8:	dc400117 	ldw	r17,4(sp)
 18077fc:	dc000017 	ldw	r16,0(sp)
 1807800:	dec00304 	addi	sp,sp,12
 1807804:	f800283a 	ret

01807808 <_read_r>:
 1807808:	defffd04 	addi	sp,sp,-12
 180780c:	dc000015 	stw	r16,0(sp)
 1807810:	04006074 	movhi	r16,385
 1807814:	840ae504 	addi	r16,r16,11156
 1807818:	dc400115 	stw	r17,4(sp)
 180781c:	80000015 	stw	zero,0(r16)
 1807820:	2023883a 	mov	r17,r4
 1807824:	2809883a 	mov	r4,r5
 1807828:	300b883a 	mov	r5,r6
 180782c:	380d883a 	mov	r6,r7
 1807830:	dfc00215 	stw	ra,8(sp)
 1807834:	180a2880 	call	180a288 <read>
 1807838:	1007883a 	mov	r3,r2
 180783c:	00bfffc4 	movi	r2,-1
 1807840:	18800626 	beq	r3,r2,180785c <_read_r+0x54>
 1807844:	1805883a 	mov	r2,r3
 1807848:	dfc00217 	ldw	ra,8(sp)
 180784c:	dc400117 	ldw	r17,4(sp)
 1807850:	dc000017 	ldw	r16,0(sp)
 1807854:	dec00304 	addi	sp,sp,12
 1807858:	f800283a 	ret
 180785c:	80800017 	ldw	r2,0(r16)
 1807860:	103ff826 	beq	r2,zero,1807844 <_read_r+0x3c>
 1807864:	88800015 	stw	r2,0(r17)
 1807868:	1805883a 	mov	r2,r3
 180786c:	dfc00217 	ldw	ra,8(sp)
 1807870:	dc400117 	ldw	r17,4(sp)
 1807874:	dc000017 	ldw	r16,0(sp)
 1807878:	dec00304 	addi	sp,sp,12
 180787c:	f800283a 	ret

01807880 <__udivdi3>:
 1807880:	defff004 	addi	sp,sp,-64
 1807884:	2005883a 	mov	r2,r4
 1807888:	3011883a 	mov	r8,r6
 180788c:	df000e15 	stw	fp,56(sp)
 1807890:	dd000a15 	stw	r20,40(sp)
 1807894:	dc000615 	stw	r16,24(sp)
 1807898:	dfc00f15 	stw	ra,60(sp)
 180789c:	ddc00d15 	stw	r23,52(sp)
 18078a0:	dd800c15 	stw	r22,48(sp)
 18078a4:	dd400b15 	stw	r21,44(sp)
 18078a8:	dcc00915 	stw	r19,36(sp)
 18078ac:	dc800815 	stw	r18,32(sp)
 18078b0:	dc400715 	stw	r17,28(sp)
 18078b4:	4021883a 	mov	r16,r8
 18078b8:	1039883a 	mov	fp,r2
 18078bc:	2829883a 	mov	r20,r5
 18078c0:	38003b1e 	bne	r7,zero,18079b0 <__udivdi3+0x130>
 18078c4:	2a005c36 	bltu	r5,r8,1807a38 <__udivdi3+0x1b8>
 18078c8:	4000a626 	beq	r8,zero,1807b64 <__udivdi3+0x2e4>
 18078cc:	00bfffd4 	movui	r2,65535
 18078d0:	14009e36 	bltu	r2,r16,1807b4c <__udivdi3+0x2cc>
 18078d4:	00803fc4 	movi	r2,255
 18078d8:	14013d36 	bltu	r2,r16,1807dd0 <__udivdi3+0x550>
 18078dc:	000b883a 	mov	r5,zero
 18078e0:	0005883a 	mov	r2,zero
 18078e4:	8084d83a 	srl	r2,r16,r2
 18078e8:	01006074 	movhi	r4,385
 18078ec:	21029f04 	addi	r4,r4,2684
 18078f0:	01800804 	movi	r6,32
 18078f4:	1105883a 	add	r2,r2,r4
 18078f8:	10c00003 	ldbu	r3,0(r2)
 18078fc:	28c7883a 	add	r3,r5,r3
 1807900:	30edc83a 	sub	r22,r6,r3
 1807904:	b000ee1e 	bne	r22,zero,1807cc0 <__udivdi3+0x440>
 1807908:	802ad43a 	srli	r21,r16,16
 180790c:	00800044 	movi	r2,1
 1807910:	a423c83a 	sub	r17,r20,r16
 1807914:	85ffffcc 	andi	r23,r16,65535
 1807918:	d8800315 	stw	r2,12(sp)
 180791c:	8809883a 	mov	r4,r17
 1807920:	a80b883a 	mov	r5,r21
 1807924:	18096740 	call	1809674 <__udivsi3>
 1807928:	8809883a 	mov	r4,r17
 180792c:	a80b883a 	mov	r5,r21
 1807930:	102d883a 	mov	r22,r2
 1807934:	180967c0 	call	180967c <__umodsi3>
 1807938:	1004943a 	slli	r2,r2,16
 180793c:	e006d43a 	srli	r3,fp,16
 1807940:	bda3383a 	mul	r17,r23,r22
 1807944:	10c4b03a 	or	r2,r2,r3
 1807948:	1440042e 	bgeu	r2,r17,180795c <__udivdi3+0xdc>
 180794c:	1405883a 	add	r2,r2,r16
 1807950:	b5bfffc4 	addi	r22,r22,-1
 1807954:	14000136 	bltu	r2,r16,180795c <__udivdi3+0xdc>
 1807958:	14413d36 	bltu	r2,r17,1807e50 <__udivdi3+0x5d0>
 180795c:	1463c83a 	sub	r17,r2,r17
 1807960:	8809883a 	mov	r4,r17
 1807964:	a80b883a 	mov	r5,r21
 1807968:	18096740 	call	1809674 <__udivsi3>
 180796c:	8809883a 	mov	r4,r17
 1807970:	a80b883a 	mov	r5,r21
 1807974:	1029883a 	mov	r20,r2
 1807978:	180967c0 	call	180967c <__umodsi3>
 180797c:	1004943a 	slli	r2,r2,16
 1807980:	bd09383a 	mul	r4,r23,r20
 1807984:	e0ffffcc 	andi	r3,fp,65535
 1807988:	10c4b03a 	or	r2,r2,r3
 180798c:	1100042e 	bgeu	r2,r4,18079a0 <__udivdi3+0x120>
 1807990:	8085883a 	add	r2,r16,r2
 1807994:	a53fffc4 	addi	r20,r20,-1
 1807998:	14000136 	bltu	r2,r16,18079a0 <__udivdi3+0x120>
 180799c:	11012036 	bltu	r2,r4,1807e20 <__udivdi3+0x5a0>
 18079a0:	b004943a 	slli	r2,r22,16
 18079a4:	d9000317 	ldw	r4,12(sp)
 18079a8:	a084b03a 	or	r2,r20,r2
 18079ac:	00001506 	br	1807a04 <__udivdi3+0x184>
 18079b0:	380d883a 	mov	r6,r7
 18079b4:	29c06236 	bltu	r5,r7,1807b40 <__udivdi3+0x2c0>
 18079b8:	00bfffd4 	movui	r2,65535
 18079bc:	11c05a36 	bltu	r2,r7,1807b28 <__udivdi3+0x2a8>
 18079c0:	00803fc4 	movi	r2,255
 18079c4:	11c0fc36 	bltu	r2,r7,1807db8 <__udivdi3+0x538>
 18079c8:	000b883a 	mov	r5,zero
 18079cc:	0005883a 	mov	r2,zero
 18079d0:	3084d83a 	srl	r2,r6,r2
 18079d4:	01006074 	movhi	r4,385
 18079d8:	21029f04 	addi	r4,r4,2684
 18079dc:	01c00804 	movi	r7,32
 18079e0:	1105883a 	add	r2,r2,r4
 18079e4:	10c00003 	ldbu	r3,0(r2)
 18079e8:	28c7883a 	add	r3,r5,r3
 18079ec:	38efc83a 	sub	r23,r7,r3
 18079f0:	b800691e 	bne	r23,zero,1807b98 <__udivdi3+0x318>
 18079f4:	35000136 	bltu	r6,r20,18079fc <__udivdi3+0x17c>
 18079f8:	e4005136 	bltu	fp,r16,1807b40 <__udivdi3+0x2c0>
 18079fc:	00800044 	movi	r2,1
 1807a00:	0009883a 	mov	r4,zero
 1807a04:	2007883a 	mov	r3,r4
 1807a08:	dfc00f17 	ldw	ra,60(sp)
 1807a0c:	df000e17 	ldw	fp,56(sp)
 1807a10:	ddc00d17 	ldw	r23,52(sp)
 1807a14:	dd800c17 	ldw	r22,48(sp)
 1807a18:	dd400b17 	ldw	r21,44(sp)
 1807a1c:	dd000a17 	ldw	r20,40(sp)
 1807a20:	dcc00917 	ldw	r19,36(sp)
 1807a24:	dc800817 	ldw	r18,32(sp)
 1807a28:	dc400717 	ldw	r17,28(sp)
 1807a2c:	dc000617 	ldw	r16,24(sp)
 1807a30:	dec01004 	addi	sp,sp,64
 1807a34:	f800283a 	ret
 1807a38:	00bfffd4 	movui	r2,65535
 1807a3c:	12005036 	bltu	r2,r8,1807b80 <__udivdi3+0x300>
 1807a40:	00803fc4 	movi	r2,255
 1807a44:	1200e836 	bltu	r2,r8,1807de8 <__udivdi3+0x568>
 1807a48:	000b883a 	mov	r5,zero
 1807a4c:	0005883a 	mov	r2,zero
 1807a50:	8084d83a 	srl	r2,r16,r2
 1807a54:	01006074 	movhi	r4,385
 1807a58:	21029f04 	addi	r4,r4,2684
 1807a5c:	01800804 	movi	r6,32
 1807a60:	1105883a 	add	r2,r2,r4
 1807a64:	10c00003 	ldbu	r3,0(r2)
 1807a68:	28c7883a 	add	r3,r5,r3
 1807a6c:	30cbc83a 	sub	r5,r6,r3
 1807a70:	28000626 	beq	r5,zero,1807a8c <__udivdi3+0x20c>
 1807a74:	3145c83a 	sub	r2,r6,r5
 1807a78:	e084d83a 	srl	r2,fp,r2
 1807a7c:	a146983a 	sll	r3,r20,r5
 1807a80:	e178983a 	sll	fp,fp,r5
 1807a84:	8160983a 	sll	r16,r16,r5
 1807a88:	18a8b03a 	or	r20,r3,r2
 1807a8c:	802ad43a 	srli	r21,r16,16
 1807a90:	a009883a 	mov	r4,r20
 1807a94:	85ffffcc 	andi	r23,r16,65535
 1807a98:	a80b883a 	mov	r5,r21
 1807a9c:	18096740 	call	1809674 <__udivsi3>
 1807aa0:	a009883a 	mov	r4,r20
 1807aa4:	a80b883a 	mov	r5,r21
 1807aa8:	102d883a 	mov	r22,r2
 1807aac:	180967c0 	call	180967c <__umodsi3>
 1807ab0:	1004943a 	slli	r2,r2,16
 1807ab4:	e006d43a 	srli	r3,fp,16
 1807ab8:	bda3383a 	mul	r17,r23,r22
 1807abc:	10c4b03a 	or	r2,r2,r3
 1807ac0:	1440042e 	bgeu	r2,r17,1807ad4 <__udivdi3+0x254>
 1807ac4:	1405883a 	add	r2,r2,r16
 1807ac8:	b5bfffc4 	addi	r22,r22,-1
 1807acc:	14000136 	bltu	r2,r16,1807ad4 <__udivdi3+0x254>
 1807ad0:	1440d536 	bltu	r2,r17,1807e28 <__udivdi3+0x5a8>
 1807ad4:	1463c83a 	sub	r17,r2,r17
 1807ad8:	8809883a 	mov	r4,r17
 1807adc:	a80b883a 	mov	r5,r21
 1807ae0:	18096740 	call	1809674 <__udivsi3>
 1807ae4:	8809883a 	mov	r4,r17
 1807ae8:	a80b883a 	mov	r5,r21
 1807aec:	1029883a 	mov	r20,r2
 1807af0:	180967c0 	call	180967c <__umodsi3>
 1807af4:	1004943a 	slli	r2,r2,16
 1807af8:	bd09383a 	mul	r4,r23,r20
 1807afc:	e0ffffcc 	andi	r3,fp,65535
 1807b00:	10c4b03a 	or	r2,r2,r3
 1807b04:	1100042e 	bgeu	r2,r4,1807b18 <__udivdi3+0x298>
 1807b08:	8085883a 	add	r2,r16,r2
 1807b0c:	a53fffc4 	addi	r20,r20,-1
 1807b10:	14000136 	bltu	r2,r16,1807b18 <__udivdi3+0x298>
 1807b14:	1100c736 	bltu	r2,r4,1807e34 <__udivdi3+0x5b4>
 1807b18:	b004943a 	slli	r2,r22,16
 1807b1c:	0009883a 	mov	r4,zero
 1807b20:	a084b03a 	or	r2,r20,r2
 1807b24:	003fb706 	br	1807a04 <__udivdi3+0x184>
 1807b28:	00804034 	movhi	r2,256
 1807b2c:	10bfffc4 	addi	r2,r2,-1
 1807b30:	11c0a436 	bltu	r2,r7,1807dc4 <__udivdi3+0x544>
 1807b34:	01400404 	movi	r5,16
 1807b38:	2805883a 	mov	r2,r5
 1807b3c:	003fa406 	br	18079d0 <__udivdi3+0x150>
 1807b40:	0005883a 	mov	r2,zero
 1807b44:	0009883a 	mov	r4,zero
 1807b48:	003fae06 	br	1807a04 <__udivdi3+0x184>
 1807b4c:	00804034 	movhi	r2,256
 1807b50:	10bfffc4 	addi	r2,r2,-1
 1807b54:	1400a136 	bltu	r2,r16,1807ddc <__udivdi3+0x55c>
 1807b58:	01400404 	movi	r5,16
 1807b5c:	2805883a 	mov	r2,r5
 1807b60:	003f6006 	br	18078e4 <__udivdi3+0x64>
 1807b64:	01000044 	movi	r4,1
 1807b68:	000b883a 	mov	r5,zero
 1807b6c:	18096740 	call	1809674 <__udivsi3>
 1807b70:	1021883a 	mov	r16,r2
 1807b74:	00bfffd4 	movui	r2,65535
 1807b78:	143ff436 	bltu	r2,r16,1807b4c <__udivdi3+0x2cc>
 1807b7c:	003f5506 	br	18078d4 <__udivdi3+0x54>
 1807b80:	00804034 	movhi	r2,256
 1807b84:	10bfffc4 	addi	r2,r2,-1
 1807b88:	12009a36 	bltu	r2,r8,1807df4 <__udivdi3+0x574>
 1807b8c:	01400404 	movi	r5,16
 1807b90:	2805883a 	mov	r2,r5
 1807b94:	003fae06 	br	1807a50 <__udivdi3+0x1d0>
 1807b98:	3dc5c83a 	sub	r2,r7,r23
 1807b9c:	35c8983a 	sll	r4,r6,r23
 1807ba0:	8086d83a 	srl	r3,r16,r2
 1807ba4:	a0a2d83a 	srl	r17,r20,r2
 1807ba8:	e084d83a 	srl	r2,fp,r2
 1807bac:	20eab03a 	or	r21,r4,r3
 1807bb0:	a82cd43a 	srli	r22,r21,16
 1807bb4:	a5c6983a 	sll	r3,r20,r23
 1807bb8:	8809883a 	mov	r4,r17
 1807bbc:	b00b883a 	mov	r5,r22
 1807bc0:	1886b03a 	or	r3,r3,r2
 1807bc4:	d8c00215 	stw	r3,8(sp)
 1807bc8:	18096740 	call	1809674 <__udivsi3>
 1807bcc:	8809883a 	mov	r4,r17
 1807bd0:	b00b883a 	mov	r5,r22
 1807bd4:	1029883a 	mov	r20,r2
 1807bd8:	180967c0 	call	180967c <__umodsi3>
 1807bdc:	a8ffffcc 	andi	r3,r21,65535
 1807be0:	d8c00515 	stw	r3,20(sp)
 1807be4:	d9000217 	ldw	r4,8(sp)
 1807be8:	d9400517 	ldw	r5,20(sp)
 1807bec:	1004943a 	slli	r2,r2,16
 1807bf0:	2006d43a 	srli	r3,r4,16
 1807bf4:	85e0983a 	sll	r16,r16,r23
 1807bf8:	2d23383a 	mul	r17,r5,r20
 1807bfc:	10c4b03a 	or	r2,r2,r3
 1807c00:	dc000015 	stw	r16,0(sp)
 1807c04:	1440032e 	bgeu	r2,r17,1807c14 <__udivdi3+0x394>
 1807c08:	1545883a 	add	r2,r2,r21
 1807c0c:	a53fffc4 	addi	r20,r20,-1
 1807c10:	15407f2e 	bgeu	r2,r21,1807e10 <__udivdi3+0x590>
 1807c14:	1463c83a 	sub	r17,r2,r17
 1807c18:	8809883a 	mov	r4,r17
 1807c1c:	b00b883a 	mov	r5,r22
 1807c20:	18096740 	call	1809674 <__udivsi3>
 1807c24:	8809883a 	mov	r4,r17
 1807c28:	b00b883a 	mov	r5,r22
 1807c2c:	1021883a 	mov	r16,r2
 1807c30:	180967c0 	call	180967c <__umodsi3>
 1807c34:	d8c00517 	ldw	r3,20(sp)
 1807c38:	d9000217 	ldw	r4,8(sp)
 1807c3c:	1004943a 	slli	r2,r2,16
 1807c40:	1c0f383a 	mul	r7,r3,r16
 1807c44:	20ffffcc 	andi	r3,r4,65535
 1807c48:	10e2b03a 	or	r17,r2,r3
 1807c4c:	89c0032e 	bgeu	r17,r7,1807c5c <__udivdi3+0x3dc>
 1807c50:	8d63883a 	add	r17,r17,r21
 1807c54:	843fffc4 	addi	r16,r16,-1
 1807c58:	8d40692e 	bgeu	r17,r21,1807e00 <__udivdi3+0x580>
 1807c5c:	a008943a 	slli	r4,r20,16
 1807c60:	d9400017 	ldw	r5,0(sp)
 1807c64:	89e3c83a 	sub	r17,r17,r7
 1807c68:	8110b03a 	or	r8,r16,r4
 1807c6c:	280cd43a 	srli	r6,r5,16
 1807c70:	28ffffcc 	andi	r3,r5,65535
 1807c74:	40bfffcc 	andi	r2,r8,65535
 1807c78:	400ad43a 	srli	r5,r8,16
 1807c7c:	10d3383a 	mul	r9,r2,r3
 1807c80:	1185383a 	mul	r2,r2,r6
 1807c84:	28c7383a 	mul	r3,r5,r3
 1807c88:	4808d43a 	srli	r4,r9,16
 1807c8c:	298b383a 	mul	r5,r5,r6
 1807c90:	10c5883a 	add	r2,r2,r3
 1807c94:	2089883a 	add	r4,r4,r2
 1807c98:	20c0022e 	bgeu	r4,r3,1807ca4 <__udivdi3+0x424>
 1807c9c:	00800074 	movhi	r2,1
 1807ca0:	288b883a 	add	r5,r5,r2
 1807ca4:	2004d43a 	srli	r2,r4,16
 1807ca8:	288b883a 	add	r5,r5,r2
 1807cac:	89403f36 	bltu	r17,r5,1807dac <__udivdi3+0x52c>
 1807cb0:	89403926 	beq	r17,r5,1807d98 <__udivdi3+0x518>
 1807cb4:	4005883a 	mov	r2,r8
 1807cb8:	0009883a 	mov	r4,zero
 1807cbc:	003f5106 	br	1807a04 <__udivdi3+0x184>
 1807cc0:	85a0983a 	sll	r16,r16,r22
 1807cc4:	3585c83a 	sub	r2,r6,r22
 1807cc8:	a0a2d83a 	srl	r17,r20,r2
 1807ccc:	802ad43a 	srli	r21,r16,16
 1807cd0:	e084d83a 	srl	r2,fp,r2
 1807cd4:	a586983a 	sll	r3,r20,r22
 1807cd8:	8809883a 	mov	r4,r17
 1807cdc:	a80b883a 	mov	r5,r21
 1807ce0:	1886b03a 	or	r3,r3,r2
 1807ce4:	d8c00115 	stw	r3,4(sp)
 1807ce8:	18096740 	call	1809674 <__udivsi3>
 1807cec:	8809883a 	mov	r4,r17
 1807cf0:	a80b883a 	mov	r5,r21
 1807cf4:	d8800415 	stw	r2,16(sp)
 1807cf8:	180967c0 	call	180967c <__umodsi3>
 1807cfc:	d9000117 	ldw	r4,4(sp)
 1807d00:	d9400417 	ldw	r5,16(sp)
 1807d04:	1004943a 	slli	r2,r2,16
 1807d08:	85ffffcc 	andi	r23,r16,65535
 1807d0c:	2006d43a 	srli	r3,r4,16
 1807d10:	b963383a 	mul	r17,r23,r5
 1807d14:	10c4b03a 	or	r2,r2,r3
 1807d18:	1440042e 	bgeu	r2,r17,1807d2c <__udivdi3+0x4ac>
 1807d1c:	297fffc4 	addi	r5,r5,-1
 1807d20:	1405883a 	add	r2,r2,r16
 1807d24:	d9400415 	stw	r5,16(sp)
 1807d28:	1400442e 	bgeu	r2,r16,1807e3c <__udivdi3+0x5bc>
 1807d2c:	1463c83a 	sub	r17,r2,r17
 1807d30:	8809883a 	mov	r4,r17
 1807d34:	a80b883a 	mov	r5,r21
 1807d38:	18096740 	call	1809674 <__udivsi3>
 1807d3c:	8809883a 	mov	r4,r17
 1807d40:	a80b883a 	mov	r5,r21
 1807d44:	1029883a 	mov	r20,r2
 1807d48:	180967c0 	call	180967c <__umodsi3>
 1807d4c:	d9400117 	ldw	r5,4(sp)
 1807d50:	1004943a 	slli	r2,r2,16
 1807d54:	bd09383a 	mul	r4,r23,r20
 1807d58:	28ffffcc 	andi	r3,r5,65535
 1807d5c:	10c6b03a 	or	r3,r2,r3
 1807d60:	1900062e 	bgeu	r3,r4,1807d7c <__udivdi3+0x4fc>
 1807d64:	1c07883a 	add	r3,r3,r16
 1807d68:	a53fffc4 	addi	r20,r20,-1
 1807d6c:	1c000336 	bltu	r3,r16,1807d7c <__udivdi3+0x4fc>
 1807d70:	1900022e 	bgeu	r3,r4,1807d7c <__udivdi3+0x4fc>
 1807d74:	a53fffc4 	addi	r20,r20,-1
 1807d78:	1c07883a 	add	r3,r3,r16
 1807d7c:	d9400417 	ldw	r5,16(sp)
 1807d80:	e5b8983a 	sll	fp,fp,r22
 1807d84:	1923c83a 	sub	r17,r3,r4
 1807d88:	2804943a 	slli	r2,r5,16
 1807d8c:	a0a8b03a 	or	r20,r20,r2
 1807d90:	dd000315 	stw	r20,12(sp)
 1807d94:	003ee106 	br	180791c <__udivdi3+0x9c>
 1807d98:	2004943a 	slli	r2,r4,16
 1807d9c:	e5c8983a 	sll	r4,fp,r23
 1807da0:	48ffffcc 	andi	r3,r9,65535
 1807da4:	10c5883a 	add	r2,r2,r3
 1807da8:	20bfc22e 	bgeu	r4,r2,1807cb4 <__udivdi3+0x434>
 1807dac:	40bfffc4 	addi	r2,r8,-1
 1807db0:	0009883a 	mov	r4,zero
 1807db4:	003f1306 	br	1807a04 <__udivdi3+0x184>
 1807db8:	01400204 	movi	r5,8
 1807dbc:	2805883a 	mov	r2,r5
 1807dc0:	003f0306 	br	18079d0 <__udivdi3+0x150>
 1807dc4:	01400604 	movi	r5,24
 1807dc8:	2805883a 	mov	r2,r5
 1807dcc:	003f0006 	br	18079d0 <__udivdi3+0x150>
 1807dd0:	01400204 	movi	r5,8
 1807dd4:	2805883a 	mov	r2,r5
 1807dd8:	003ec206 	br	18078e4 <__udivdi3+0x64>
 1807ddc:	01400604 	movi	r5,24
 1807de0:	2805883a 	mov	r2,r5
 1807de4:	003ebf06 	br	18078e4 <__udivdi3+0x64>
 1807de8:	01400204 	movi	r5,8
 1807dec:	2805883a 	mov	r2,r5
 1807df0:	003f1706 	br	1807a50 <__udivdi3+0x1d0>
 1807df4:	01400604 	movi	r5,24
 1807df8:	2805883a 	mov	r2,r5
 1807dfc:	003f1406 	br	1807a50 <__udivdi3+0x1d0>
 1807e00:	89ff962e 	bgeu	r17,r7,1807c5c <__udivdi3+0x3dc>
 1807e04:	8d63883a 	add	r17,r17,r21
 1807e08:	843fffc4 	addi	r16,r16,-1
 1807e0c:	003f9306 	br	1807c5c <__udivdi3+0x3dc>
 1807e10:	147f802e 	bgeu	r2,r17,1807c14 <__udivdi3+0x394>
 1807e14:	a53fffc4 	addi	r20,r20,-1
 1807e18:	1545883a 	add	r2,r2,r21
 1807e1c:	003f7d06 	br	1807c14 <__udivdi3+0x394>
 1807e20:	a53fffc4 	addi	r20,r20,-1
 1807e24:	003ede06 	br	18079a0 <__udivdi3+0x120>
 1807e28:	b5bfffc4 	addi	r22,r22,-1
 1807e2c:	1405883a 	add	r2,r2,r16
 1807e30:	003f2806 	br	1807ad4 <__udivdi3+0x254>
 1807e34:	a53fffc4 	addi	r20,r20,-1
 1807e38:	003f3706 	br	1807b18 <__udivdi3+0x298>
 1807e3c:	147fbb2e 	bgeu	r2,r17,1807d2c <__udivdi3+0x4ac>
 1807e40:	297fffc4 	addi	r5,r5,-1
 1807e44:	1405883a 	add	r2,r2,r16
 1807e48:	d9400415 	stw	r5,16(sp)
 1807e4c:	003fb706 	br	1807d2c <__udivdi3+0x4ac>
 1807e50:	b5bfffc4 	addi	r22,r22,-1
 1807e54:	1405883a 	add	r2,r2,r16
 1807e58:	003ec006 	br	180795c <__udivdi3+0xdc>

01807e5c <__umoddi3>:
 1807e5c:	defff104 	addi	sp,sp,-60
 1807e60:	dd800b15 	stw	r22,44(sp)
 1807e64:	dd000915 	stw	r20,36(sp)
 1807e68:	dc000515 	stw	r16,20(sp)
 1807e6c:	dfc00e15 	stw	ra,56(sp)
 1807e70:	df000d15 	stw	fp,52(sp)
 1807e74:	ddc00c15 	stw	r23,48(sp)
 1807e78:	dd400a15 	stw	r21,40(sp)
 1807e7c:	dcc00815 	stw	r19,32(sp)
 1807e80:	dc800715 	stw	r18,28(sp)
 1807e84:	dc400615 	stw	r17,24(sp)
 1807e88:	3021883a 	mov	r16,r6
 1807e8c:	202d883a 	mov	r22,r4
 1807e90:	2829883a 	mov	r20,r5
 1807e94:	38002b1e 	bne	r7,zero,1807f44 <__umoddi3+0xe8>
 1807e98:	29805036 	bltu	r5,r6,1807fdc <__umoddi3+0x180>
 1807e9c:	30008a26 	beq	r6,zero,18080c8 <__umoddi3+0x26c>
 1807ea0:	00bfffd4 	movui	r2,65535
 1807ea4:	14008236 	bltu	r2,r16,18080b0 <__umoddi3+0x254>
 1807ea8:	00803fc4 	movi	r2,255
 1807eac:	14013636 	bltu	r2,r16,1808388 <__umoddi3+0x52c>
 1807eb0:	000b883a 	mov	r5,zero
 1807eb4:	0005883a 	mov	r2,zero
 1807eb8:	8084d83a 	srl	r2,r16,r2
 1807ebc:	01006074 	movhi	r4,385
 1807ec0:	21029f04 	addi	r4,r4,2684
 1807ec4:	01800804 	movi	r6,32
 1807ec8:	1105883a 	add	r2,r2,r4
 1807ecc:	10c00003 	ldbu	r3,0(r2)
 1807ed0:	28c7883a 	add	r3,r5,r3
 1807ed4:	30efc83a 	sub	r23,r6,r3
 1807ed8:	b800941e 	bne	r23,zero,180812c <__umoddi3+0x2d0>
 1807edc:	802ad43a 	srli	r21,r16,16
 1807ee0:	a423c83a 	sub	r17,r20,r16
 1807ee4:	0039883a 	mov	fp,zero
 1807ee8:	853fffcc 	andi	r20,r16,65535
 1807eec:	8809883a 	mov	r4,r17
 1807ef0:	a80b883a 	mov	r5,r21
 1807ef4:	18096740 	call	1809674 <__udivsi3>
 1807ef8:	8809883a 	mov	r4,r17
 1807efc:	a80b883a 	mov	r5,r21
 1807f00:	a0a3383a 	mul	r17,r20,r2
 1807f04:	180967c0 	call	180967c <__umodsi3>
 1807f08:	1004943a 	slli	r2,r2,16
 1807f0c:	b006d43a 	srli	r3,r22,16
 1807f10:	10c4b03a 	or	r2,r2,r3
 1807f14:	1440032e 	bgeu	r2,r17,1807f24 <__umoddi3+0xc8>
 1807f18:	1405883a 	add	r2,r2,r16
 1807f1c:	14000136 	bltu	r2,r16,1807f24 <__umoddi3+0xc8>
 1807f20:	14413536 	bltu	r2,r17,18083f8 <__umoddi3+0x59c>
 1807f24:	1463c83a 	sub	r17,r2,r17
 1807f28:	8809883a 	mov	r4,r17
 1807f2c:	a80b883a 	mov	r5,r21
 1807f30:	18096740 	call	1809674 <__udivsi3>
 1807f34:	8809883a 	mov	r4,r17
 1807f38:	a0a3383a 	mul	r17,r20,r2
 1807f3c:	a80b883a 	mov	r5,r21
 1807f40:	00004d06 	br	1808078 <__umoddi3+0x21c>
 1807f44:	380d883a 	mov	r6,r7
 1807f48:	29c0102e 	bgeu	r5,r7,1807f8c <__umoddi3+0x130>
 1807f4c:	2011883a 	mov	r8,r4
 1807f50:	2813883a 	mov	r9,r5
 1807f54:	4005883a 	mov	r2,r8
 1807f58:	4807883a 	mov	r3,r9
 1807f5c:	dfc00e17 	ldw	ra,56(sp)
 1807f60:	df000d17 	ldw	fp,52(sp)
 1807f64:	ddc00c17 	ldw	r23,48(sp)
 1807f68:	dd800b17 	ldw	r22,44(sp)
 1807f6c:	dd400a17 	ldw	r21,40(sp)
 1807f70:	dd000917 	ldw	r20,36(sp)
 1807f74:	dcc00817 	ldw	r19,32(sp)
 1807f78:	dc800717 	ldw	r18,28(sp)
 1807f7c:	dc400617 	ldw	r17,24(sp)
 1807f80:	dc000517 	ldw	r16,20(sp)
 1807f84:	dec00f04 	addi	sp,sp,60
 1807f88:	f800283a 	ret
 1807f8c:	00bfffd4 	movui	r2,65535
 1807f90:	11c05a36 	bltu	r2,r7,18080fc <__umoddi3+0x2a0>
 1807f94:	00803fc4 	movi	r2,255
 1807f98:	11c0fe36 	bltu	r2,r7,1808394 <__umoddi3+0x538>
 1807f9c:	000b883a 	mov	r5,zero
 1807fa0:	0005883a 	mov	r2,zero
 1807fa4:	3084d83a 	srl	r2,r6,r2
 1807fa8:	01006074 	movhi	r4,385
 1807fac:	21029f04 	addi	r4,r4,2684
 1807fb0:	01c00804 	movi	r7,32
 1807fb4:	1105883a 	add	r2,r2,r4
 1807fb8:	10c00003 	ldbu	r3,0(r2)
 1807fbc:	28c7883a 	add	r3,r5,r3
 1807fc0:	38ebc83a 	sub	r21,r7,r3
 1807fc4:	a800851e 	bne	r21,zero,18081dc <__umoddi3+0x380>
 1807fc8:	35005236 	bltu	r6,r20,1808114 <__umoddi3+0x2b8>
 1807fcc:	b400512e 	bgeu	r22,r16,1808114 <__umoddi3+0x2b8>
 1807fd0:	b011883a 	mov	r8,r22
 1807fd4:	a013883a 	mov	r9,r20
 1807fd8:	003fde06 	br	1807f54 <__umoddi3+0xf8>
 1807fdc:	00bfffd4 	movui	r2,65535
 1807fe0:	11804036 	bltu	r2,r6,18080e4 <__umoddi3+0x288>
 1807fe4:	00803fc4 	movi	r2,255
 1807fe8:	1180ed36 	bltu	r2,r6,18083a0 <__umoddi3+0x544>
 1807fec:	000b883a 	mov	r5,zero
 1807ff0:	0005883a 	mov	r2,zero
 1807ff4:	8084d83a 	srl	r2,r16,r2
 1807ff8:	01006074 	movhi	r4,385
 1807ffc:	21029f04 	addi	r4,r4,2684
 1808000:	01800804 	movi	r6,32
 1808004:	1105883a 	add	r2,r2,r4
 1808008:	10c00003 	ldbu	r3,0(r2)
 180800c:	28c7883a 	add	r3,r5,r3
 1808010:	30c7c83a 	sub	r3,r6,r3
 1808014:	1800bf1e 	bne	r3,zero,1808314 <__umoddi3+0x4b8>
 1808018:	0039883a 	mov	fp,zero
 180801c:	802ad43a 	srli	r21,r16,16
 1808020:	a009883a 	mov	r4,r20
 1808024:	85ffffcc 	andi	r23,r16,65535
 1808028:	a80b883a 	mov	r5,r21
 180802c:	18096740 	call	1809674 <__udivsi3>
 1808030:	a009883a 	mov	r4,r20
 1808034:	a80b883a 	mov	r5,r21
 1808038:	b8a3383a 	mul	r17,r23,r2
 180803c:	180967c0 	call	180967c <__umodsi3>
 1808040:	1004943a 	slli	r2,r2,16
 1808044:	b006d43a 	srli	r3,r22,16
 1808048:	10c4b03a 	or	r2,r2,r3
 180804c:	1440032e 	bgeu	r2,r17,180805c <__umoddi3+0x200>
 1808050:	1405883a 	add	r2,r2,r16
 1808054:	14000136 	bltu	r2,r16,180805c <__umoddi3+0x200>
 1808058:	1440e536 	bltu	r2,r17,18083f0 <__umoddi3+0x594>
 180805c:	1463c83a 	sub	r17,r2,r17
 1808060:	8809883a 	mov	r4,r17
 1808064:	a80b883a 	mov	r5,r21
 1808068:	18096740 	call	1809674 <__udivsi3>
 180806c:	8809883a 	mov	r4,r17
 1808070:	b8a3383a 	mul	r17,r23,r2
 1808074:	a80b883a 	mov	r5,r21
 1808078:	180967c0 	call	180967c <__umodsi3>
 180807c:	1004943a 	slli	r2,r2,16
 1808080:	b0ffffcc 	andi	r3,r22,65535
 1808084:	10c4b03a 	or	r2,r2,r3
 1808088:	1440042e 	bgeu	r2,r17,180809c <__umoddi3+0x240>
 180808c:	1405883a 	add	r2,r2,r16
 1808090:	14000236 	bltu	r2,r16,180809c <__umoddi3+0x240>
 1808094:	1440012e 	bgeu	r2,r17,180809c <__umoddi3+0x240>
 1808098:	1405883a 	add	r2,r2,r16
 180809c:	1445c83a 	sub	r2,r2,r17
 18080a0:	1724d83a 	srl	r18,r2,fp
 18080a4:	0013883a 	mov	r9,zero
 18080a8:	9011883a 	mov	r8,r18
 18080ac:	003fa906 	br	1807f54 <__umoddi3+0xf8>
 18080b0:	00804034 	movhi	r2,256
 18080b4:	10bfffc4 	addi	r2,r2,-1
 18080b8:	1400b036 	bltu	r2,r16,180837c <__umoddi3+0x520>
 18080bc:	01400404 	movi	r5,16
 18080c0:	2805883a 	mov	r2,r5
 18080c4:	003f7c06 	br	1807eb8 <__umoddi3+0x5c>
 18080c8:	01000044 	movi	r4,1
 18080cc:	000b883a 	mov	r5,zero
 18080d0:	18096740 	call	1809674 <__udivsi3>
 18080d4:	1021883a 	mov	r16,r2
 18080d8:	00bfffd4 	movui	r2,65535
 18080dc:	143ff436 	bltu	r2,r16,18080b0 <__umoddi3+0x254>
 18080e0:	003f7106 	br	1807ea8 <__umoddi3+0x4c>
 18080e4:	00804034 	movhi	r2,256
 18080e8:	10bfffc4 	addi	r2,r2,-1
 18080ec:	1180af36 	bltu	r2,r6,18083ac <__umoddi3+0x550>
 18080f0:	01400404 	movi	r5,16
 18080f4:	2805883a 	mov	r2,r5
 18080f8:	003fbe06 	br	1807ff4 <__umoddi3+0x198>
 18080fc:	00804034 	movhi	r2,256
 1808100:	10bfffc4 	addi	r2,r2,-1
 1808104:	11c0ac36 	bltu	r2,r7,18083b8 <__umoddi3+0x55c>
 1808108:	01400404 	movi	r5,16
 180810c:	2805883a 	mov	r2,r5
 1808110:	003fa406 	br	1807fa4 <__umoddi3+0x148>
 1808114:	b409c83a 	sub	r4,r22,r16
 1808118:	b105803a 	cmpltu	r2,r22,r4
 180811c:	a187c83a 	sub	r3,r20,r6
 1808120:	18a9c83a 	sub	r20,r3,r2
 1808124:	202d883a 	mov	r22,r4
 1808128:	003fa906 	br	1807fd0 <__umoddi3+0x174>
 180812c:	85e0983a 	sll	r16,r16,r23
 1808130:	35c5c83a 	sub	r2,r6,r23
 1808134:	a0a2d83a 	srl	r17,r20,r2
 1808138:	802ad43a 	srli	r21,r16,16
 180813c:	b084d83a 	srl	r2,r22,r2
 1808140:	a5c6983a 	sll	r3,r20,r23
 1808144:	8809883a 	mov	r4,r17
 1808148:	a80b883a 	mov	r5,r21
 180814c:	1886b03a 	or	r3,r3,r2
 1808150:	d8c00115 	stw	r3,4(sp)
 1808154:	853fffcc 	andi	r20,r16,65535
 1808158:	18096740 	call	1809674 <__udivsi3>
 180815c:	8809883a 	mov	r4,r17
 1808160:	a80b883a 	mov	r5,r21
 1808164:	a0a3383a 	mul	r17,r20,r2
 1808168:	180967c0 	call	180967c <__umodsi3>
 180816c:	d9000117 	ldw	r4,4(sp)
 1808170:	1004943a 	slli	r2,r2,16
 1808174:	b839883a 	mov	fp,r23
 1808178:	2006d43a 	srli	r3,r4,16
 180817c:	10c4b03a 	or	r2,r2,r3
 1808180:	1440022e 	bgeu	r2,r17,180818c <__umoddi3+0x330>
 1808184:	1405883a 	add	r2,r2,r16
 1808188:	1400962e 	bgeu	r2,r16,18083e4 <__umoddi3+0x588>
 180818c:	1463c83a 	sub	r17,r2,r17
 1808190:	8809883a 	mov	r4,r17
 1808194:	a80b883a 	mov	r5,r21
 1808198:	18096740 	call	1809674 <__udivsi3>
 180819c:	8809883a 	mov	r4,r17
 18081a0:	a80b883a 	mov	r5,r21
 18081a4:	a0a3383a 	mul	r17,r20,r2
 18081a8:	180967c0 	call	180967c <__umodsi3>
 18081ac:	d9400117 	ldw	r5,4(sp)
 18081b0:	1004943a 	slli	r2,r2,16
 18081b4:	28ffffcc 	andi	r3,r5,65535
 18081b8:	10c4b03a 	or	r2,r2,r3
 18081bc:	1440042e 	bgeu	r2,r17,18081d0 <__umoddi3+0x374>
 18081c0:	1405883a 	add	r2,r2,r16
 18081c4:	14000236 	bltu	r2,r16,18081d0 <__umoddi3+0x374>
 18081c8:	1440012e 	bgeu	r2,r17,18081d0 <__umoddi3+0x374>
 18081cc:	1405883a 	add	r2,r2,r16
 18081d0:	b5ec983a 	sll	r22,r22,r23
 18081d4:	1463c83a 	sub	r17,r2,r17
 18081d8:	003f4406 	br	1807eec <__umoddi3+0x90>
 18081dc:	3d4fc83a 	sub	r7,r7,r21
 18081e0:	3546983a 	sll	r3,r6,r21
 18081e4:	81c4d83a 	srl	r2,r16,r7
 18081e8:	a1e2d83a 	srl	r17,r20,r7
 18081ec:	a54c983a 	sll	r6,r20,r21
 18081f0:	18aeb03a 	or	r23,r3,r2
 18081f4:	b828d43a 	srli	r20,r23,16
 18081f8:	b1c4d83a 	srl	r2,r22,r7
 18081fc:	8809883a 	mov	r4,r17
 1808200:	a00b883a 	mov	r5,r20
 1808204:	308cb03a 	or	r6,r6,r2
 1808208:	d9c00315 	stw	r7,12(sp)
 180820c:	d9800215 	stw	r6,8(sp)
 1808210:	18096740 	call	1809674 <__udivsi3>
 1808214:	8809883a 	mov	r4,r17
 1808218:	a00b883a 	mov	r5,r20
 180821c:	1039883a 	mov	fp,r2
 1808220:	180967c0 	call	180967c <__umodsi3>
 1808224:	b8ffffcc 	andi	r3,r23,65535
 1808228:	d8c00415 	stw	r3,16(sp)
 180822c:	d9000217 	ldw	r4,8(sp)
 1808230:	d9400417 	ldw	r5,16(sp)
 1808234:	1004943a 	slli	r2,r2,16
 1808238:	2006d43a 	srli	r3,r4,16
 180823c:	8560983a 	sll	r16,r16,r21
 1808240:	2f23383a 	mul	r17,r5,fp
 1808244:	10c4b03a 	or	r2,r2,r3
 1808248:	dc000015 	stw	r16,0(sp)
 180824c:	b56c983a 	sll	r22,r22,r21
 1808250:	1440032e 	bgeu	r2,r17,1808260 <__umoddi3+0x404>
 1808254:	15c5883a 	add	r2,r2,r23
 1808258:	e73fffc4 	addi	fp,fp,-1
 180825c:	15c05d2e 	bgeu	r2,r23,18083d4 <__umoddi3+0x578>
 1808260:	1463c83a 	sub	r17,r2,r17
 1808264:	8809883a 	mov	r4,r17
 1808268:	a00b883a 	mov	r5,r20
 180826c:	18096740 	call	1809674 <__udivsi3>
 1808270:	8809883a 	mov	r4,r17
 1808274:	a00b883a 	mov	r5,r20
 1808278:	1021883a 	mov	r16,r2
 180827c:	180967c0 	call	180967c <__umodsi3>
 1808280:	d8c00417 	ldw	r3,16(sp)
 1808284:	d9000217 	ldw	r4,8(sp)
 1808288:	1004943a 	slli	r2,r2,16
 180828c:	1c23383a 	mul	r17,r3,r16
 1808290:	20ffffcc 	andi	r3,r4,65535
 1808294:	10ceb03a 	or	r7,r2,r3
 1808298:	3c40032e 	bgeu	r7,r17,18082a8 <__umoddi3+0x44c>
 180829c:	3dcf883a 	add	r7,r7,r23
 18082a0:	843fffc4 	addi	r16,r16,-1
 18082a4:	3dc0472e 	bgeu	r7,r23,18083c4 <__umoddi3+0x568>
 18082a8:	e004943a 	slli	r2,fp,16
 18082ac:	d9400017 	ldw	r5,0(sp)
 18082b0:	3c4fc83a 	sub	r7,r7,r17
 18082b4:	8084b03a 	or	r2,r16,r2
 18082b8:	28ffffcc 	andi	r3,r5,65535
 18082bc:	280cd43a 	srli	r6,r5,16
 18082c0:	100ad43a 	srli	r5,r2,16
 18082c4:	10bfffcc 	andi	r2,r2,65535
 18082c8:	10d1383a 	mul	r8,r2,r3
 18082cc:	28c7383a 	mul	r3,r5,r3
 18082d0:	1185383a 	mul	r2,r2,r6
 18082d4:	4008d43a 	srli	r4,r8,16
 18082d8:	298b383a 	mul	r5,r5,r6
 18082dc:	10c5883a 	add	r2,r2,r3
 18082e0:	2089883a 	add	r4,r4,r2
 18082e4:	20c0022e 	bgeu	r4,r3,18082f0 <__umoddi3+0x494>
 18082e8:	00800074 	movhi	r2,1
 18082ec:	288b883a 	add	r5,r5,r2
 18082f0:	2004d43a 	srli	r2,r4,16
 18082f4:	2008943a 	slli	r4,r4,16
 18082f8:	40ffffcc 	andi	r3,r8,65535
 18082fc:	288b883a 	add	r5,r5,r2
 1808300:	20c9883a 	add	r4,r4,r3
 1808304:	39400b36 	bltu	r7,r5,1808334 <__umoddi3+0x4d8>
 1808308:	39403d26 	beq	r7,r5,1808400 <__umoddi3+0x5a4>
 180830c:	394bc83a 	sub	r5,r7,r5
 1808310:	00000f06 	br	1808350 <__umoddi3+0x4f4>
 1808314:	30c5c83a 	sub	r2,r6,r3
 1808318:	1839883a 	mov	fp,r3
 180831c:	b084d83a 	srl	r2,r22,r2
 1808320:	a0c6983a 	sll	r3,r20,r3
 1808324:	8720983a 	sll	r16,r16,fp
 1808328:	b72c983a 	sll	r22,r22,fp
 180832c:	18a8b03a 	or	r20,r3,r2
 1808330:	003f3a06 	br	180801c <__umoddi3+0x1c0>
 1808334:	d8c00017 	ldw	r3,0(sp)
 1808338:	20c5c83a 	sub	r2,r4,r3
 180833c:	2089803a 	cmpltu	r4,r4,r2
 1808340:	2dc7c83a 	sub	r3,r5,r23
 1808344:	1907c83a 	sub	r3,r3,r4
 1808348:	38cbc83a 	sub	r5,r7,r3
 180834c:	1009883a 	mov	r4,r2
 1808350:	b105c83a 	sub	r2,r22,r4
 1808354:	b087803a 	cmpltu	r3,r22,r2
 1808358:	28c7c83a 	sub	r3,r5,r3
 180835c:	d9400317 	ldw	r5,12(sp)
 1808360:	1544d83a 	srl	r2,r2,r21
 1808364:	1948983a 	sll	r4,r3,r5
 1808368:	1d46d83a 	srl	r3,r3,r21
 180836c:	20a4b03a 	or	r18,r4,r2
 1808370:	9011883a 	mov	r8,r18
 1808374:	1813883a 	mov	r9,r3
 1808378:	003ef606 	br	1807f54 <__umoddi3+0xf8>
 180837c:	01400604 	movi	r5,24
 1808380:	2805883a 	mov	r2,r5
 1808384:	003ecc06 	br	1807eb8 <__umoddi3+0x5c>
 1808388:	01400204 	movi	r5,8
 180838c:	2805883a 	mov	r2,r5
 1808390:	003ec906 	br	1807eb8 <__umoddi3+0x5c>
 1808394:	01400204 	movi	r5,8
 1808398:	2805883a 	mov	r2,r5
 180839c:	003f0106 	br	1807fa4 <__umoddi3+0x148>
 18083a0:	01400204 	movi	r5,8
 18083a4:	2805883a 	mov	r2,r5
 18083a8:	003f1206 	br	1807ff4 <__umoddi3+0x198>
 18083ac:	01400604 	movi	r5,24
 18083b0:	2805883a 	mov	r2,r5
 18083b4:	003f0f06 	br	1807ff4 <__umoddi3+0x198>
 18083b8:	01400604 	movi	r5,24
 18083bc:	2805883a 	mov	r2,r5
 18083c0:	003ef806 	br	1807fa4 <__umoddi3+0x148>
 18083c4:	3c7fb82e 	bgeu	r7,r17,18082a8 <__umoddi3+0x44c>
 18083c8:	843fffc4 	addi	r16,r16,-1
 18083cc:	3dcf883a 	add	r7,r7,r23
 18083d0:	003fb506 	br	18082a8 <__umoddi3+0x44c>
 18083d4:	147fa22e 	bgeu	r2,r17,1808260 <__umoddi3+0x404>
 18083d8:	e73fffc4 	addi	fp,fp,-1
 18083dc:	15c5883a 	add	r2,r2,r23
 18083e0:	003f9f06 	br	1808260 <__umoddi3+0x404>
 18083e4:	147f692e 	bgeu	r2,r17,180818c <__umoddi3+0x330>
 18083e8:	1405883a 	add	r2,r2,r16
 18083ec:	003f6706 	br	180818c <__umoddi3+0x330>
 18083f0:	1405883a 	add	r2,r2,r16
 18083f4:	003f1906 	br	180805c <__umoddi3+0x200>
 18083f8:	1405883a 	add	r2,r2,r16
 18083fc:	003ec906 	br	1807f24 <__umoddi3+0xc8>
 1808400:	b13fcc36 	bltu	r22,r4,1808334 <__umoddi3+0x4d8>
 1808404:	000b883a 	mov	r5,zero
 1808408:	003fd106 	br	1808350 <__umoddi3+0x4f4>

0180840c <_fpadd_parts>:
 180840c:	defff804 	addi	sp,sp,-32
 1808410:	dcc00315 	stw	r19,12(sp)
 1808414:	2027883a 	mov	r19,r4
 1808418:	21000017 	ldw	r4,0(r4)
 180841c:	00c00044 	movi	r3,1
 1808420:	dd400515 	stw	r21,20(sp)
 1808424:	dd000415 	stw	r20,16(sp)
 1808428:	ddc00715 	stw	r23,28(sp)
 180842c:	dd800615 	stw	r22,24(sp)
 1808430:	dc800215 	stw	r18,8(sp)
 1808434:	dc400115 	stw	r17,4(sp)
 1808438:	dc000015 	stw	r16,0(sp)
 180843c:	282b883a 	mov	r21,r5
 1808440:	3029883a 	mov	r20,r6
 1808444:	1900632e 	bgeu	r3,r4,18085d4 <_fpadd_parts+0x1c8>
 1808448:	28800017 	ldw	r2,0(r5)
 180844c:	1880812e 	bgeu	r3,r2,1808654 <_fpadd_parts+0x248>
 1808450:	00c00104 	movi	r3,4
 1808454:	20c0dc26 	beq	r4,r3,18087c8 <_fpadd_parts+0x3bc>
 1808458:	10c07e26 	beq	r2,r3,1808654 <_fpadd_parts+0x248>
 180845c:	00c00084 	movi	r3,2
 1808460:	10c06726 	beq	r2,r3,1808600 <_fpadd_parts+0x1f4>
 1808464:	20c07b26 	beq	r4,r3,1808654 <_fpadd_parts+0x248>
 1808468:	9dc00217 	ldw	r23,8(r19)
 180846c:	28c00217 	ldw	r3,8(r5)
 1808470:	9c400317 	ldw	r17,12(r19)
 1808474:	2bc00317 	ldw	r15,12(r5)
 1808478:	b8cdc83a 	sub	r6,r23,r3
 180847c:	9c800417 	ldw	r18,16(r19)
 1808480:	2c000417 	ldw	r16,16(r5)
 1808484:	3009883a 	mov	r4,r6
 1808488:	30009716 	blt	r6,zero,18086e8 <_fpadd_parts+0x2dc>
 180848c:	00800fc4 	movi	r2,63
 1808490:	11806b16 	blt	r2,r6,1808640 <_fpadd_parts+0x234>
 1808494:	0100a40e 	bge	zero,r4,1808728 <_fpadd_parts+0x31c>
 1808498:	35bff804 	addi	r22,r6,-32
 180849c:	b000bc16 	blt	r22,zero,1808790 <_fpadd_parts+0x384>
 18084a0:	8596d83a 	srl	r11,r16,r22
 18084a4:	0019883a 	mov	r12,zero
 18084a8:	0013883a 	mov	r9,zero
 18084ac:	01000044 	movi	r4,1
 18084b0:	0015883a 	mov	r10,zero
 18084b4:	b000be16 	blt	r22,zero,18087b0 <_fpadd_parts+0x3a4>
 18084b8:	2590983a 	sll	r8,r4,r22
 18084bc:	000f883a 	mov	r7,zero
 18084c0:	00bfffc4 	movi	r2,-1
 18084c4:	3889883a 	add	r4,r7,r2
 18084c8:	408b883a 	add	r5,r8,r2
 18084cc:	21cd803a 	cmpltu	r6,r4,r7
 18084d0:	314b883a 	add	r5,r6,r5
 18084d4:	7904703a 	and	r2,r15,r4
 18084d8:	8146703a 	and	r3,r16,r5
 18084dc:	10c4b03a 	or	r2,r2,r3
 18084e0:	10000226 	beq	r2,zero,18084ec <_fpadd_parts+0xe0>
 18084e4:	02400044 	movi	r9,1
 18084e8:	0015883a 	mov	r10,zero
 18084ec:	5a5eb03a 	or	r15,r11,r9
 18084f0:	62a0b03a 	or	r16,r12,r10
 18084f4:	99400117 	ldw	r5,4(r19)
 18084f8:	a8800117 	ldw	r2,4(r21)
 18084fc:	28806e26 	beq	r5,r2,18086b8 <_fpadd_parts+0x2ac>
 1808500:	28006626 	beq	r5,zero,180869c <_fpadd_parts+0x290>
 1808504:	7c45c83a 	sub	r2,r15,r17
 1808508:	7889803a 	cmpltu	r4,r15,r2
 180850c:	8487c83a 	sub	r3,r16,r18
 1808510:	1909c83a 	sub	r4,r3,r4
 1808514:	100d883a 	mov	r6,r2
 1808518:	200f883a 	mov	r7,r4
 180851c:	38007716 	blt	r7,zero,18086fc <_fpadd_parts+0x2f0>
 1808520:	a5c00215 	stw	r23,8(r20)
 1808524:	a1c00415 	stw	r7,16(r20)
 1808528:	a0000115 	stw	zero,4(r20)
 180852c:	a1800315 	stw	r6,12(r20)
 1808530:	a2000317 	ldw	r8,12(r20)
 1808534:	a2400417 	ldw	r9,16(r20)
 1808538:	00bfffc4 	movi	r2,-1
 180853c:	408b883a 	add	r5,r8,r2
 1808540:	2a09803a 	cmpltu	r4,r5,r8
 1808544:	488d883a 	add	r6,r9,r2
 1808548:	01c40034 	movhi	r7,4096
 180854c:	39ffffc4 	addi	r7,r7,-1
 1808550:	218d883a 	add	r6,r4,r6
 1808554:	39801736 	bltu	r7,r6,18085b4 <_fpadd_parts+0x1a8>
 1808558:	31c06526 	beq	r6,r7,18086f0 <_fpadd_parts+0x2e4>
 180855c:	a3000217 	ldw	r12,8(r20)
 1808560:	4209883a 	add	r4,r8,r8
 1808564:	00bfffc4 	movi	r2,-1
 1808568:	220f803a 	cmpltu	r7,r4,r8
 180856c:	4a4b883a 	add	r5,r9,r9
 1808570:	394f883a 	add	r7,r7,r5
 1808574:	2095883a 	add	r10,r4,r2
 1808578:	3897883a 	add	r11,r7,r2
 180857c:	510d803a 	cmpltu	r6,r10,r4
 1808580:	6099883a 	add	r12,r12,r2
 1808584:	32d7883a 	add	r11,r6,r11
 1808588:	00840034 	movhi	r2,4096
 180858c:	10bfffc4 	addi	r2,r2,-1
 1808590:	2011883a 	mov	r8,r4
 1808594:	3813883a 	mov	r9,r7
 1808598:	a1000315 	stw	r4,12(r20)
 180859c:	a1c00415 	stw	r7,16(r20)
 18085a0:	a3000215 	stw	r12,8(r20)
 18085a4:	12c00336 	bltu	r2,r11,18085b4 <_fpadd_parts+0x1a8>
 18085a8:	58bfed1e 	bne	r11,r2,1808560 <_fpadd_parts+0x154>
 18085ac:	00bfff84 	movi	r2,-2
 18085b0:	12bfeb2e 	bgeu	r2,r10,1808560 <_fpadd_parts+0x154>
 18085b4:	a2800417 	ldw	r10,16(r20)
 18085b8:	008000c4 	movi	r2,3
 18085bc:	00c80034 	movhi	r3,8192
 18085c0:	18ffffc4 	addi	r3,r3,-1
 18085c4:	a2400317 	ldw	r9,12(r20)
 18085c8:	a0800015 	stw	r2,0(r20)
 18085cc:	1a802336 	bltu	r3,r10,180865c <_fpadd_parts+0x250>
 18085d0:	a027883a 	mov	r19,r20
 18085d4:	9805883a 	mov	r2,r19
 18085d8:	ddc00717 	ldw	r23,28(sp)
 18085dc:	dd800617 	ldw	r22,24(sp)
 18085e0:	dd400517 	ldw	r21,20(sp)
 18085e4:	dd000417 	ldw	r20,16(sp)
 18085e8:	dcc00317 	ldw	r19,12(sp)
 18085ec:	dc800217 	ldw	r18,8(sp)
 18085f0:	dc400117 	ldw	r17,4(sp)
 18085f4:	dc000017 	ldw	r16,0(sp)
 18085f8:	dec00804 	addi	sp,sp,32
 18085fc:	f800283a 	ret
 1808600:	20fff41e 	bne	r4,r3,18085d4 <_fpadd_parts+0x1c8>
 1808604:	31000015 	stw	r4,0(r6)
 1808608:	98800117 	ldw	r2,4(r19)
 180860c:	30800115 	stw	r2,4(r6)
 1808610:	98c00217 	ldw	r3,8(r19)
 1808614:	30c00215 	stw	r3,8(r6)
 1808618:	98800317 	ldw	r2,12(r19)
 180861c:	30800315 	stw	r2,12(r6)
 1808620:	98c00417 	ldw	r3,16(r19)
 1808624:	30c00415 	stw	r3,16(r6)
 1808628:	98800117 	ldw	r2,4(r19)
 180862c:	28c00117 	ldw	r3,4(r5)
 1808630:	3027883a 	mov	r19,r6
 1808634:	10c4703a 	and	r2,r2,r3
 1808638:	30800115 	stw	r2,4(r6)
 180863c:	003fe506 	br	18085d4 <_fpadd_parts+0x1c8>
 1808640:	1dc02616 	blt	r3,r23,18086dc <_fpadd_parts+0x2d0>
 1808644:	0023883a 	mov	r17,zero
 1808648:	182f883a 	mov	r23,r3
 180864c:	0025883a 	mov	r18,zero
 1808650:	003fa806 	br	18084f4 <_fpadd_parts+0xe8>
 1808654:	a827883a 	mov	r19,r21
 1808658:	003fde06 	br	18085d4 <_fpadd_parts+0x1c8>
 180865c:	01800044 	movi	r6,1
 1808660:	500497fa 	slli	r2,r10,31
 1808664:	4808d07a 	srli	r4,r9,1
 1808668:	518ad83a 	srl	r5,r10,r6
 180866c:	a2000217 	ldw	r8,8(r20)
 1808670:	1108b03a 	or	r4,r2,r4
 1808674:	0007883a 	mov	r3,zero
 1808678:	4984703a 	and	r2,r9,r6
 180867c:	208cb03a 	or	r6,r4,r2
 1808680:	28ceb03a 	or	r7,r5,r3
 1808684:	42000044 	addi	r8,r8,1
 1808688:	a027883a 	mov	r19,r20
 180868c:	a1c00415 	stw	r7,16(r20)
 1808690:	a2000215 	stw	r8,8(r20)
 1808694:	a1800315 	stw	r6,12(r20)
 1808698:	003fce06 	br	18085d4 <_fpadd_parts+0x1c8>
 180869c:	8bc5c83a 	sub	r2,r17,r15
 18086a0:	8889803a 	cmpltu	r4,r17,r2
 18086a4:	9407c83a 	sub	r3,r18,r16
 18086a8:	1909c83a 	sub	r4,r3,r4
 18086ac:	100d883a 	mov	r6,r2
 18086b0:	200f883a 	mov	r7,r4
 18086b4:	003f9906 	br	180851c <_fpadd_parts+0x110>
 18086b8:	7c45883a 	add	r2,r15,r17
 18086bc:	13c9803a 	cmpltu	r4,r2,r15
 18086c0:	8487883a 	add	r3,r16,r18
 18086c4:	20c9883a 	add	r4,r4,r3
 18086c8:	a1400115 	stw	r5,4(r20)
 18086cc:	a5c00215 	stw	r23,8(r20)
 18086d0:	a0800315 	stw	r2,12(r20)
 18086d4:	a1000415 	stw	r4,16(r20)
 18086d8:	003fb606 	br	18085b4 <_fpadd_parts+0x1a8>
 18086dc:	001f883a 	mov	r15,zero
 18086e0:	0021883a 	mov	r16,zero
 18086e4:	003f8306 	br	18084f4 <_fpadd_parts+0xe8>
 18086e8:	018dc83a 	sub	r6,zero,r6
 18086ec:	003f6706 	br	180848c <_fpadd_parts+0x80>
 18086f0:	00bfff84 	movi	r2,-2
 18086f4:	117faf36 	bltu	r2,r5,18085b4 <_fpadd_parts+0x1a8>
 18086f8:	003f9806 	br	180855c <_fpadd_parts+0x150>
 18086fc:	0005883a 	mov	r2,zero
 1808700:	1189c83a 	sub	r4,r2,r6
 1808704:	1105803a 	cmpltu	r2,r2,r4
 1808708:	01cbc83a 	sub	r5,zero,r7
 180870c:	2885c83a 	sub	r2,r5,r2
 1808710:	01800044 	movi	r6,1
 1808714:	a1800115 	stw	r6,4(r20)
 1808718:	a5c00215 	stw	r23,8(r20)
 180871c:	a1000315 	stw	r4,12(r20)
 1808720:	a0800415 	stw	r2,16(r20)
 1808724:	003f8206 	br	1808530 <_fpadd_parts+0x124>
 1808728:	203f7226 	beq	r4,zero,18084f4 <_fpadd_parts+0xe8>
 180872c:	35bff804 	addi	r22,r6,-32
 1808730:	b9af883a 	add	r23,r23,r6
 1808734:	b0003116 	blt	r22,zero,18087fc <_fpadd_parts+0x3f0>
 1808738:	959ad83a 	srl	r13,r18,r22
 180873c:	001d883a 	mov	r14,zero
 1808740:	000f883a 	mov	r7,zero
 1808744:	01000044 	movi	r4,1
 1808748:	0011883a 	mov	r8,zero
 180874c:	b0002516 	blt	r22,zero,18087e4 <_fpadd_parts+0x3d8>
 1808750:	2594983a 	sll	r10,r4,r22
 1808754:	0013883a 	mov	r9,zero
 1808758:	00bfffc4 	movi	r2,-1
 180875c:	4889883a 	add	r4,r9,r2
 1808760:	508b883a 	add	r5,r10,r2
 1808764:	224d803a 	cmpltu	r6,r4,r9
 1808768:	314b883a 	add	r5,r6,r5
 180876c:	8904703a 	and	r2,r17,r4
 1808770:	9146703a 	and	r3,r18,r5
 1808774:	10c4b03a 	or	r2,r2,r3
 1808778:	10000226 	beq	r2,zero,1808784 <_fpadd_parts+0x378>
 180877c:	01c00044 	movi	r7,1
 1808780:	0011883a 	mov	r8,zero
 1808784:	69e2b03a 	or	r17,r13,r7
 1808788:	7224b03a 	or	r18,r14,r8
 180878c:	003f5906 	br	18084f4 <_fpadd_parts+0xe8>
 1808790:	8407883a 	add	r3,r16,r16
 1808794:	008007c4 	movi	r2,31
 1808798:	1185c83a 	sub	r2,r2,r6
 180879c:	1886983a 	sll	r3,r3,r2
 18087a0:	7996d83a 	srl	r11,r15,r6
 18087a4:	8198d83a 	srl	r12,r16,r6
 18087a8:	1ad6b03a 	or	r11,r3,r11
 18087ac:	003f3e06 	br	18084a8 <_fpadd_parts+0x9c>
 18087b0:	2006d07a 	srli	r3,r4,1
 18087b4:	008007c4 	movi	r2,31
 18087b8:	1185c83a 	sub	r2,r2,r6
 18087bc:	1890d83a 	srl	r8,r3,r2
 18087c0:	218e983a 	sll	r7,r4,r6
 18087c4:	003f3e06 	br	18084c0 <_fpadd_parts+0xb4>
 18087c8:	113f821e 	bne	r2,r4,18085d4 <_fpadd_parts+0x1c8>
 18087cc:	28c00117 	ldw	r3,4(r5)
 18087d0:	98800117 	ldw	r2,4(r19)
 18087d4:	10ff7f26 	beq	r2,r3,18085d4 <_fpadd_parts+0x1c8>
 18087d8:	04c06074 	movhi	r19,385
 18087dc:	9cc29a04 	addi	r19,r19,2664
 18087e0:	003f7c06 	br	18085d4 <_fpadd_parts+0x1c8>
 18087e4:	2006d07a 	srli	r3,r4,1
 18087e8:	008007c4 	movi	r2,31
 18087ec:	1185c83a 	sub	r2,r2,r6
 18087f0:	1894d83a 	srl	r10,r3,r2
 18087f4:	2192983a 	sll	r9,r4,r6
 18087f8:	003fd706 	br	1808758 <_fpadd_parts+0x34c>
 18087fc:	9487883a 	add	r3,r18,r18
 1808800:	008007c4 	movi	r2,31
 1808804:	1185c83a 	sub	r2,r2,r6
 1808808:	1886983a 	sll	r3,r3,r2
 180880c:	899ad83a 	srl	r13,r17,r6
 1808810:	919cd83a 	srl	r14,r18,r6
 1808814:	1b5ab03a 	or	r13,r3,r13
 1808818:	003fc906 	br	1808740 <_fpadd_parts+0x334>

0180881c <__subdf3>:
 180881c:	deffea04 	addi	sp,sp,-88
 1808820:	dcc01415 	stw	r19,80(sp)
 1808824:	dcc00404 	addi	r19,sp,16
 1808828:	2011883a 	mov	r8,r4
 180882c:	2813883a 	mov	r9,r5
 1808830:	dc401315 	stw	r17,76(sp)
 1808834:	d809883a 	mov	r4,sp
 1808838:	980b883a 	mov	r5,r19
 180883c:	dc400904 	addi	r17,sp,36
 1808840:	dfc01515 	stw	ra,84(sp)
 1808844:	da400115 	stw	r9,4(sp)
 1808848:	d9c00315 	stw	r7,12(sp)
 180884c:	da000015 	stw	r8,0(sp)
 1808850:	d9800215 	stw	r6,8(sp)
 1808854:	1809ab00 	call	1809ab0 <__unpack_d>
 1808858:	d9000204 	addi	r4,sp,8
 180885c:	880b883a 	mov	r5,r17
 1808860:	1809ab00 	call	1809ab0 <__unpack_d>
 1808864:	d8800a17 	ldw	r2,40(sp)
 1808868:	880b883a 	mov	r5,r17
 180886c:	9809883a 	mov	r4,r19
 1808870:	d9800e04 	addi	r6,sp,56
 1808874:	1080005c 	xori	r2,r2,1
 1808878:	d8800a15 	stw	r2,40(sp)
 180887c:	180840c0 	call	180840c <_fpadd_parts>
 1808880:	1009883a 	mov	r4,r2
 1808884:	180979c0 	call	180979c <__pack_d>
 1808888:	dfc01517 	ldw	ra,84(sp)
 180888c:	dcc01417 	ldw	r19,80(sp)
 1808890:	dc401317 	ldw	r17,76(sp)
 1808894:	dec01604 	addi	sp,sp,88
 1808898:	f800283a 	ret

0180889c <__adddf3>:
 180889c:	deffea04 	addi	sp,sp,-88
 18088a0:	dcc01415 	stw	r19,80(sp)
 18088a4:	dcc00404 	addi	r19,sp,16
 18088a8:	2011883a 	mov	r8,r4
 18088ac:	2813883a 	mov	r9,r5
 18088b0:	dc401315 	stw	r17,76(sp)
 18088b4:	d809883a 	mov	r4,sp
 18088b8:	980b883a 	mov	r5,r19
 18088bc:	dc400904 	addi	r17,sp,36
 18088c0:	dfc01515 	stw	ra,84(sp)
 18088c4:	da400115 	stw	r9,4(sp)
 18088c8:	d9c00315 	stw	r7,12(sp)
 18088cc:	da000015 	stw	r8,0(sp)
 18088d0:	d9800215 	stw	r6,8(sp)
 18088d4:	1809ab00 	call	1809ab0 <__unpack_d>
 18088d8:	d9000204 	addi	r4,sp,8
 18088dc:	880b883a 	mov	r5,r17
 18088e0:	1809ab00 	call	1809ab0 <__unpack_d>
 18088e4:	d9800e04 	addi	r6,sp,56
 18088e8:	9809883a 	mov	r4,r19
 18088ec:	880b883a 	mov	r5,r17
 18088f0:	180840c0 	call	180840c <_fpadd_parts>
 18088f4:	1009883a 	mov	r4,r2
 18088f8:	180979c0 	call	180979c <__pack_d>
 18088fc:	dfc01517 	ldw	ra,84(sp)
 1808900:	dcc01417 	ldw	r19,80(sp)
 1808904:	dc401317 	ldw	r17,76(sp)
 1808908:	dec01604 	addi	sp,sp,88
 180890c:	f800283a 	ret

01808910 <__muldf3>:
 1808910:	deffe004 	addi	sp,sp,-128
 1808914:	dc401815 	stw	r17,96(sp)
 1808918:	dc400404 	addi	r17,sp,16
 180891c:	2011883a 	mov	r8,r4
 1808920:	2813883a 	mov	r9,r5
 1808924:	dc001715 	stw	r16,92(sp)
 1808928:	d809883a 	mov	r4,sp
 180892c:	880b883a 	mov	r5,r17
 1808930:	dc000904 	addi	r16,sp,36
 1808934:	dfc01f15 	stw	ra,124(sp)
 1808938:	da400115 	stw	r9,4(sp)
 180893c:	d9c00315 	stw	r7,12(sp)
 1808940:	da000015 	stw	r8,0(sp)
 1808944:	d9800215 	stw	r6,8(sp)
 1808948:	ddc01e15 	stw	r23,120(sp)
 180894c:	dd801d15 	stw	r22,116(sp)
 1808950:	dd401c15 	stw	r21,112(sp)
 1808954:	dd001b15 	stw	r20,108(sp)
 1808958:	dcc01a15 	stw	r19,104(sp)
 180895c:	dc801915 	stw	r18,100(sp)
 1808960:	1809ab00 	call	1809ab0 <__unpack_d>
 1808964:	d9000204 	addi	r4,sp,8
 1808968:	800b883a 	mov	r5,r16
 180896c:	1809ab00 	call	1809ab0 <__unpack_d>
 1808970:	d9000417 	ldw	r4,16(sp)
 1808974:	00800044 	movi	r2,1
 1808978:	1100102e 	bgeu	r2,r4,18089bc <__muldf3+0xac>
 180897c:	d8c00917 	ldw	r3,36(sp)
 1808980:	10c0062e 	bgeu	r2,r3,180899c <__muldf3+0x8c>
 1808984:	00800104 	movi	r2,4
 1808988:	20800a26 	beq	r4,r2,18089b4 <__muldf3+0xa4>
 180898c:	1880cc26 	beq	r3,r2,1808cc0 <__muldf3+0x3b0>
 1808990:	00800084 	movi	r2,2
 1808994:	20800926 	beq	r4,r2,18089bc <__muldf3+0xac>
 1808998:	1880191e 	bne	r3,r2,1808a00 <__muldf3+0xf0>
 180899c:	d8c00a17 	ldw	r3,40(sp)
 18089a0:	d8800517 	ldw	r2,20(sp)
 18089a4:	8009883a 	mov	r4,r16
 18089a8:	10c4c03a 	cmpne	r2,r2,r3
 18089ac:	d8800a15 	stw	r2,40(sp)
 18089b0:	00000706 	br	18089d0 <__muldf3+0xc0>
 18089b4:	00800084 	movi	r2,2
 18089b8:	1880c326 	beq	r3,r2,1808cc8 <__muldf3+0x3b8>
 18089bc:	d8800517 	ldw	r2,20(sp)
 18089c0:	d8c00a17 	ldw	r3,40(sp)
 18089c4:	8809883a 	mov	r4,r17
 18089c8:	10c4c03a 	cmpne	r2,r2,r3
 18089cc:	d8800515 	stw	r2,20(sp)
 18089d0:	180979c0 	call	180979c <__pack_d>
 18089d4:	dfc01f17 	ldw	ra,124(sp)
 18089d8:	ddc01e17 	ldw	r23,120(sp)
 18089dc:	dd801d17 	ldw	r22,116(sp)
 18089e0:	dd401c17 	ldw	r21,112(sp)
 18089e4:	dd001b17 	ldw	r20,108(sp)
 18089e8:	dcc01a17 	ldw	r19,104(sp)
 18089ec:	dc801917 	ldw	r18,100(sp)
 18089f0:	dc401817 	ldw	r17,96(sp)
 18089f4:	dc001717 	ldw	r16,92(sp)
 18089f8:	dec02004 	addi	sp,sp,128
 18089fc:	f800283a 	ret
 1808a00:	dd800717 	ldw	r22,28(sp)
 1808a04:	dc800c17 	ldw	r18,48(sp)
 1808a08:	002b883a 	mov	r21,zero
 1808a0c:	0023883a 	mov	r17,zero
 1808a10:	a80b883a 	mov	r5,r21
 1808a14:	b00d883a 	mov	r6,r22
 1808a18:	880f883a 	mov	r7,r17
 1808a1c:	ddc00817 	ldw	r23,32(sp)
 1808a20:	dcc00d17 	ldw	r19,52(sp)
 1808a24:	9009883a 	mov	r4,r18
 1808a28:	18096840 	call	1809684 <__muldi3>
 1808a2c:	001b883a 	mov	r13,zero
 1808a30:	680f883a 	mov	r7,r13
 1808a34:	b009883a 	mov	r4,r22
 1808a38:	000b883a 	mov	r5,zero
 1808a3c:	980d883a 	mov	r6,r19
 1808a40:	b82d883a 	mov	r22,r23
 1808a44:	002f883a 	mov	r23,zero
 1808a48:	db401615 	stw	r13,88(sp)
 1808a4c:	d8801315 	stw	r2,76(sp)
 1808a50:	d8c01415 	stw	r3,80(sp)
 1808a54:	dcc01515 	stw	r19,84(sp)
 1808a58:	18096840 	call	1809684 <__muldi3>
 1808a5c:	b00d883a 	mov	r6,r22
 1808a60:	000b883a 	mov	r5,zero
 1808a64:	9009883a 	mov	r4,r18
 1808a68:	b80f883a 	mov	r7,r23
 1808a6c:	1021883a 	mov	r16,r2
 1808a70:	1823883a 	mov	r17,r3
 1808a74:	18096840 	call	1809684 <__muldi3>
 1808a78:	8085883a 	add	r2,r16,r2
 1808a7c:	140d803a 	cmpltu	r6,r2,r16
 1808a80:	88c7883a 	add	r3,r17,r3
 1808a84:	30cd883a 	add	r6,r6,r3
 1808a88:	1029883a 	mov	r20,r2
 1808a8c:	302b883a 	mov	r21,r6
 1808a90:	da801317 	ldw	r10,76(sp)
 1808a94:	dac01417 	ldw	r11,80(sp)
 1808a98:	db001517 	ldw	r12,84(sp)
 1808a9c:	db401617 	ldw	r13,88(sp)
 1808aa0:	3440612e 	bgeu	r6,r17,1808c28 <__muldf3+0x318>
 1808aa4:	0009883a 	mov	r4,zero
 1808aa8:	5105883a 	add	r2,r10,r4
 1808aac:	128d803a 	cmpltu	r6,r2,r10
 1808ab0:	5d07883a 	add	r3,r11,r20
 1808ab4:	30cd883a 	add	r6,r6,r3
 1808ab8:	0021883a 	mov	r16,zero
 1808abc:	04400044 	movi	r17,1
 1808ac0:	1025883a 	mov	r18,r2
 1808ac4:	3027883a 	mov	r19,r6
 1808ac8:	32c06236 	bltu	r6,r11,1808c54 <__muldf3+0x344>
 1808acc:	59807a26 	beq	r11,r6,1808cb8 <__muldf3+0x3a8>
 1808ad0:	680b883a 	mov	r5,r13
 1808ad4:	b80f883a 	mov	r7,r23
 1808ad8:	6009883a 	mov	r4,r12
 1808adc:	b00d883a 	mov	r6,r22
 1808ae0:	18096840 	call	1809684 <__muldi3>
 1808ae4:	1009883a 	mov	r4,r2
 1808ae8:	000f883a 	mov	r7,zero
 1808aec:	1545883a 	add	r2,r2,r21
 1808af0:	1111803a 	cmpltu	r8,r2,r4
 1808af4:	19c7883a 	add	r3,r3,r7
 1808af8:	40c7883a 	add	r3,r8,r3
 1808afc:	88cb883a 	add	r5,r17,r3
 1808b00:	d8c00617 	ldw	r3,24(sp)
 1808b04:	8089883a 	add	r4,r16,r2
 1808b08:	d8800b17 	ldw	r2,44(sp)
 1808b0c:	18c00104 	addi	r3,r3,4
 1808b10:	240d803a 	cmpltu	r6,r4,r16
 1808b14:	10c7883a 	add	r3,r2,r3
 1808b18:	2013883a 	mov	r9,r4
 1808b1c:	d8800a17 	ldw	r2,40(sp)
 1808b20:	d9000517 	ldw	r4,20(sp)
 1808b24:	314d883a 	add	r6,r6,r5
 1808b28:	3015883a 	mov	r10,r6
 1808b2c:	2088c03a 	cmpne	r4,r4,r2
 1808b30:	00880034 	movhi	r2,8192
 1808b34:	10bfffc4 	addi	r2,r2,-1
 1808b38:	d9000f15 	stw	r4,60(sp)
 1808b3c:	d8c01015 	stw	r3,64(sp)
 1808b40:	1180162e 	bgeu	r2,r6,1808b9c <__muldf3+0x28c>
 1808b44:	1811883a 	mov	r8,r3
 1808b48:	101f883a 	mov	r15,r2
 1808b4c:	980497fa 	slli	r2,r19,31
 1808b50:	9016d07a 	srli	r11,r18,1
 1808b54:	500697fa 	slli	r3,r10,31
 1808b58:	480cd07a 	srli	r6,r9,1
 1808b5c:	500ed07a 	srli	r7,r10,1
 1808b60:	12d6b03a 	or	r11,r2,r11
 1808b64:	00800044 	movi	r2,1
 1808b68:	198cb03a 	or	r6,r3,r6
 1808b6c:	4888703a 	and	r4,r9,r2
 1808b70:	9818d07a 	srli	r12,r19,1
 1808b74:	001b883a 	mov	r13,zero
 1808b78:	03a00034 	movhi	r14,32768
 1808b7c:	3013883a 	mov	r9,r6
 1808b80:	3815883a 	mov	r10,r7
 1808b84:	4091883a 	add	r8,r8,r2
 1808b88:	20000226 	beq	r4,zero,1808b94 <__muldf3+0x284>
 1808b8c:	5b64b03a 	or	r18,r11,r13
 1808b90:	63a6b03a 	or	r19,r12,r14
 1808b94:	7abfed36 	bltu	r15,r10,1808b4c <__muldf3+0x23c>
 1808b98:	da001015 	stw	r8,64(sp)
 1808b9c:	00840034 	movhi	r2,4096
 1808ba0:	10bfffc4 	addi	r2,r2,-1
 1808ba4:	12801436 	bltu	r2,r10,1808bf8 <__muldf3+0x2e8>
 1808ba8:	da001017 	ldw	r8,64(sp)
 1808bac:	101f883a 	mov	r15,r2
 1808bb0:	4a45883a 	add	r2,r9,r9
 1808bb4:	124d803a 	cmpltu	r6,r2,r9
 1808bb8:	5287883a 	add	r3,r10,r10
 1808bbc:	9497883a 	add	r11,r18,r18
 1808bc0:	5c8f803a 	cmpltu	r7,r11,r18
 1808bc4:	9cd9883a 	add	r12,r19,r19
 1808bc8:	01000044 	movi	r4,1
 1808bcc:	30cd883a 	add	r6,r6,r3
 1808bd0:	3b0f883a 	add	r7,r7,r12
 1808bd4:	423fffc4 	addi	r8,r8,-1
 1808bd8:	1013883a 	mov	r9,r2
 1808bdc:	3015883a 	mov	r10,r6
 1808be0:	111ab03a 	or	r13,r2,r4
 1808be4:	98003016 	blt	r19,zero,1808ca8 <__muldf3+0x398>
 1808be8:	5825883a 	mov	r18,r11
 1808bec:	3827883a 	mov	r19,r7
 1808bf0:	7abfef2e 	bgeu	r15,r10,1808bb0 <__muldf3+0x2a0>
 1808bf4:	da001015 	stw	r8,64(sp)
 1808bf8:	00803fc4 	movi	r2,255
 1808bfc:	488e703a 	and	r7,r9,r2
 1808c00:	00802004 	movi	r2,128
 1808c04:	0007883a 	mov	r3,zero
 1808c08:	0011883a 	mov	r8,zero
 1808c0c:	38801826 	beq	r7,r2,1808c70 <__muldf3+0x360>
 1808c10:	008000c4 	movi	r2,3
 1808c14:	d9000e04 	addi	r4,sp,56
 1808c18:	da801215 	stw	r10,72(sp)
 1808c1c:	d8800e15 	stw	r2,56(sp)
 1808c20:	da401115 	stw	r9,68(sp)
 1808c24:	003f6a06 	br	18089d0 <__muldf3+0xc0>
 1808c28:	89802126 	beq	r17,r6,1808cb0 <__muldf3+0x3a0>
 1808c2c:	0009883a 	mov	r4,zero
 1808c30:	5105883a 	add	r2,r10,r4
 1808c34:	128d803a 	cmpltu	r6,r2,r10
 1808c38:	5d07883a 	add	r3,r11,r20
 1808c3c:	30cd883a 	add	r6,r6,r3
 1808c40:	0021883a 	mov	r16,zero
 1808c44:	0023883a 	mov	r17,zero
 1808c48:	1025883a 	mov	r18,r2
 1808c4c:	3027883a 	mov	r19,r6
 1808c50:	32ff9e2e 	bgeu	r6,r11,1808acc <__muldf3+0x1bc>
 1808c54:	00800044 	movi	r2,1
 1808c58:	8089883a 	add	r4,r16,r2
 1808c5c:	240d803a 	cmpltu	r6,r4,r16
 1808c60:	344d883a 	add	r6,r6,r17
 1808c64:	2021883a 	mov	r16,r4
 1808c68:	3023883a 	mov	r17,r6
 1808c6c:	003f9806 	br	1808ad0 <__muldf3+0x1c0>
 1808c70:	403fe71e 	bne	r8,zero,1808c10 <__muldf3+0x300>
 1808c74:	01004004 	movi	r4,256
 1808c78:	4904703a 	and	r2,r9,r4
 1808c7c:	10c4b03a 	or	r2,r2,r3
 1808c80:	103fe31e 	bne	r2,zero,1808c10 <__muldf3+0x300>
 1808c84:	94c4b03a 	or	r2,r18,r19
 1808c88:	103fe126 	beq	r2,zero,1808c10 <__muldf3+0x300>
 1808c8c:	49c5883a 	add	r2,r9,r7
 1808c90:	1251803a 	cmpltu	r8,r2,r9
 1808c94:	4291883a 	add	r8,r8,r10
 1808c98:	013fc004 	movi	r4,-256
 1808c9c:	1112703a 	and	r9,r2,r4
 1808ca0:	4015883a 	mov	r10,r8
 1808ca4:	003fda06 	br	1808c10 <__muldf3+0x300>
 1808ca8:	6813883a 	mov	r9,r13
 1808cac:	003fce06 	br	1808be8 <__muldf3+0x2d8>
 1808cb0:	143f7c36 	bltu	r2,r16,1808aa4 <__muldf3+0x194>
 1808cb4:	003fdd06 	br	1808c2c <__muldf3+0x31c>
 1808cb8:	12bf852e 	bgeu	r2,r10,1808ad0 <__muldf3+0x1c0>
 1808cbc:	003fe506 	br	1808c54 <__muldf3+0x344>
 1808cc0:	00800084 	movi	r2,2
 1808cc4:	20bf351e 	bne	r4,r2,180899c <__muldf3+0x8c>
 1808cc8:	01006074 	movhi	r4,385
 1808ccc:	21029a04 	addi	r4,r4,2664
 1808cd0:	003f3f06 	br	18089d0 <__muldf3+0xc0>

01808cd4 <__divdf3>:
 1808cd4:	deffed04 	addi	sp,sp,-76
 1808cd8:	dcc01115 	stw	r19,68(sp)
 1808cdc:	dcc00404 	addi	r19,sp,16
 1808ce0:	2011883a 	mov	r8,r4
 1808ce4:	2813883a 	mov	r9,r5
 1808ce8:	dc000e15 	stw	r16,56(sp)
 1808cec:	d809883a 	mov	r4,sp
 1808cf0:	980b883a 	mov	r5,r19
 1808cf4:	dc000904 	addi	r16,sp,36
 1808cf8:	dfc01215 	stw	ra,72(sp)
 1808cfc:	da400115 	stw	r9,4(sp)
 1808d00:	d9c00315 	stw	r7,12(sp)
 1808d04:	da000015 	stw	r8,0(sp)
 1808d08:	d9800215 	stw	r6,8(sp)
 1808d0c:	dc801015 	stw	r18,64(sp)
 1808d10:	dc400f15 	stw	r17,60(sp)
 1808d14:	1809ab00 	call	1809ab0 <__unpack_d>
 1808d18:	d9000204 	addi	r4,sp,8
 1808d1c:	800b883a 	mov	r5,r16
 1808d20:	1809ab00 	call	1809ab0 <__unpack_d>
 1808d24:	d9000417 	ldw	r4,16(sp)
 1808d28:	00800044 	movi	r2,1
 1808d2c:	11000b2e 	bgeu	r2,r4,1808d5c <__divdf3+0x88>
 1808d30:	d9400917 	ldw	r5,36(sp)
 1808d34:	1140762e 	bgeu	r2,r5,1808f10 <__divdf3+0x23c>
 1808d38:	d8800517 	ldw	r2,20(sp)
 1808d3c:	d8c00a17 	ldw	r3,40(sp)
 1808d40:	01800104 	movi	r6,4
 1808d44:	10c4f03a 	xor	r2,r2,r3
 1808d48:	d8800515 	stw	r2,20(sp)
 1808d4c:	21800226 	beq	r4,r6,1808d58 <__divdf3+0x84>
 1808d50:	00800084 	movi	r2,2
 1808d54:	2080141e 	bne	r4,r2,1808da8 <__divdf3+0xd4>
 1808d58:	29000926 	beq	r5,r4,1808d80 <__divdf3+0xac>
 1808d5c:	9809883a 	mov	r4,r19
 1808d60:	180979c0 	call	180979c <__pack_d>
 1808d64:	dfc01217 	ldw	ra,72(sp)
 1808d68:	dcc01117 	ldw	r19,68(sp)
 1808d6c:	dc801017 	ldw	r18,64(sp)
 1808d70:	dc400f17 	ldw	r17,60(sp)
 1808d74:	dc000e17 	ldw	r16,56(sp)
 1808d78:	dec01304 	addi	sp,sp,76
 1808d7c:	f800283a 	ret
 1808d80:	01006074 	movhi	r4,385
 1808d84:	21029a04 	addi	r4,r4,2664
 1808d88:	180979c0 	call	180979c <__pack_d>
 1808d8c:	dfc01217 	ldw	ra,72(sp)
 1808d90:	dcc01117 	ldw	r19,68(sp)
 1808d94:	dc801017 	ldw	r18,64(sp)
 1808d98:	dc400f17 	ldw	r17,60(sp)
 1808d9c:	dc000e17 	ldw	r16,56(sp)
 1808da0:	dec01304 	addi	sp,sp,76
 1808da4:	f800283a 	ret
 1808da8:	29805b26 	beq	r5,r6,1808f18 <__divdf3+0x244>
 1808dac:	28802d26 	beq	r5,r2,1808e64 <__divdf3+0x190>
 1808db0:	d8c00617 	ldw	r3,24(sp)
 1808db4:	d8800b17 	ldw	r2,44(sp)
 1808db8:	d9c00817 	ldw	r7,32(sp)
 1808dbc:	dc400d17 	ldw	r17,52(sp)
 1808dc0:	188bc83a 	sub	r5,r3,r2
 1808dc4:	d9800717 	ldw	r6,28(sp)
 1808dc8:	dc000c17 	ldw	r16,48(sp)
 1808dcc:	d9400615 	stw	r5,24(sp)
 1808dd0:	3c403836 	bltu	r7,r17,1808eb4 <__divdf3+0x1e0>
 1808dd4:	89c03626 	beq	r17,r7,1808eb0 <__divdf3+0x1dc>
 1808dd8:	0015883a 	mov	r10,zero
 1808ddc:	001d883a 	mov	r14,zero
 1808de0:	02c40034 	movhi	r11,4096
 1808de4:	001f883a 	mov	r15,zero
 1808de8:	003f883a 	mov	ra,zero
 1808dec:	04800f44 	movi	r18,61
 1808df0:	00000f06 	br	1808e30 <__divdf3+0x15c>
 1808df4:	601d883a 	mov	r14,r12
 1808df8:	681f883a 	mov	r15,r13
 1808dfc:	400d883a 	mov	r6,r8
 1808e00:	100f883a 	mov	r7,r2
 1808e04:	3191883a 	add	r8,r6,r6
 1808e08:	5808d07a 	srli	r4,r11,1
 1808e0c:	4185803a 	cmpltu	r2,r8,r6
 1808e10:	39d3883a 	add	r9,r7,r7
 1808e14:	28c6b03a 	or	r3,r5,r3
 1808e18:	1245883a 	add	r2,r2,r9
 1808e1c:	1815883a 	mov	r10,r3
 1808e20:	2017883a 	mov	r11,r4
 1808e24:	400d883a 	mov	r6,r8
 1808e28:	100f883a 	mov	r7,r2
 1808e2c:	fc801726 	beq	ra,r18,1808e8c <__divdf3+0x1b8>
 1808e30:	580a97fa 	slli	r5,r11,31
 1808e34:	5006d07a 	srli	r3,r10,1
 1808e38:	ffc00044 	addi	ra,ra,1
 1808e3c:	3c7ff136 	bltu	r7,r17,1808e04 <__divdf3+0x130>
 1808e40:	3411c83a 	sub	r8,r6,r16
 1808e44:	3205803a 	cmpltu	r2,r6,r8
 1808e48:	3c53c83a 	sub	r9,r7,r17
 1808e4c:	7298b03a 	or	r12,r14,r10
 1808e50:	7adab03a 	or	r13,r15,r11
 1808e54:	4885c83a 	sub	r2,r9,r2
 1808e58:	89ffe61e 	bne	r17,r7,1808df4 <__divdf3+0x120>
 1808e5c:	343fe936 	bltu	r6,r16,1808e04 <__divdf3+0x130>
 1808e60:	003fe406 	br	1808df4 <__divdf3+0x120>
 1808e64:	9809883a 	mov	r4,r19
 1808e68:	d9800415 	stw	r6,16(sp)
 1808e6c:	180979c0 	call	180979c <__pack_d>
 1808e70:	dfc01217 	ldw	ra,72(sp)
 1808e74:	dcc01117 	ldw	r19,68(sp)
 1808e78:	dc801017 	ldw	r18,64(sp)
 1808e7c:	dc400f17 	ldw	r17,60(sp)
 1808e80:	dc000e17 	ldw	r16,56(sp)
 1808e84:	dec01304 	addi	sp,sp,76
 1808e88:	f800283a 	ret
 1808e8c:	00803fc4 	movi	r2,255
 1808e90:	7090703a 	and	r8,r14,r2
 1808e94:	00802004 	movi	r2,128
 1808e98:	0007883a 	mov	r3,zero
 1808e9c:	0013883a 	mov	r9,zero
 1808ea0:	40800d26 	beq	r8,r2,1808ed8 <__divdf3+0x204>
 1808ea4:	dbc00815 	stw	r15,32(sp)
 1808ea8:	db800715 	stw	r14,28(sp)
 1808eac:	003fab06 	br	1808d5c <__divdf3+0x88>
 1808eb0:	343fc92e 	bgeu	r6,r16,1808dd8 <__divdf3+0x104>
 1808eb4:	3185883a 	add	r2,r6,r6
 1808eb8:	1189803a 	cmpltu	r4,r2,r6
 1808ebc:	39c7883a 	add	r3,r7,r7
 1808ec0:	20c9883a 	add	r4,r4,r3
 1808ec4:	297fffc4 	addi	r5,r5,-1
 1808ec8:	100d883a 	mov	r6,r2
 1808ecc:	200f883a 	mov	r7,r4
 1808ed0:	d9400615 	stw	r5,24(sp)
 1808ed4:	003fc006 	br	1808dd8 <__divdf3+0x104>
 1808ed8:	483ff21e 	bne	r9,zero,1808ea4 <__divdf3+0x1d0>
 1808edc:	01004004 	movi	r4,256
 1808ee0:	7104703a 	and	r2,r14,r4
 1808ee4:	10c4b03a 	or	r2,r2,r3
 1808ee8:	103fee1e 	bne	r2,zero,1808ea4 <__divdf3+0x1d0>
 1808eec:	31c4b03a 	or	r2,r6,r7
 1808ef0:	103fec26 	beq	r2,zero,1808ea4 <__divdf3+0x1d0>
 1808ef4:	7205883a 	add	r2,r14,r8
 1808ef8:	1391803a 	cmpltu	r8,r2,r14
 1808efc:	43d1883a 	add	r8,r8,r15
 1808f00:	013fc004 	movi	r4,-256
 1808f04:	111c703a 	and	r14,r2,r4
 1808f08:	401f883a 	mov	r15,r8
 1808f0c:	003fe506 	br	1808ea4 <__divdf3+0x1d0>
 1808f10:	8009883a 	mov	r4,r16
 1808f14:	003f9206 	br	1808d60 <__divdf3+0x8c>
 1808f18:	9809883a 	mov	r4,r19
 1808f1c:	d8000715 	stw	zero,28(sp)
 1808f20:	d8000815 	stw	zero,32(sp)
 1808f24:	d8000615 	stw	zero,24(sp)
 1808f28:	003f8d06 	br	1808d60 <__divdf3+0x8c>

01808f2c <__eqdf2>:
 1808f2c:	deffef04 	addi	sp,sp,-68
 1808f30:	dc400f15 	stw	r17,60(sp)
 1808f34:	dc400404 	addi	r17,sp,16
 1808f38:	2005883a 	mov	r2,r4
 1808f3c:	2807883a 	mov	r3,r5
 1808f40:	dc000e15 	stw	r16,56(sp)
 1808f44:	d809883a 	mov	r4,sp
 1808f48:	880b883a 	mov	r5,r17
 1808f4c:	dc000904 	addi	r16,sp,36
 1808f50:	d8c00115 	stw	r3,4(sp)
 1808f54:	d8800015 	stw	r2,0(sp)
 1808f58:	d9800215 	stw	r6,8(sp)
 1808f5c:	dfc01015 	stw	ra,64(sp)
 1808f60:	d9c00315 	stw	r7,12(sp)
 1808f64:	1809ab00 	call	1809ab0 <__unpack_d>
 1808f68:	d9000204 	addi	r4,sp,8
 1808f6c:	800b883a 	mov	r5,r16
 1808f70:	1809ab00 	call	1809ab0 <__unpack_d>
 1808f74:	d8800417 	ldw	r2,16(sp)
 1808f78:	00c00044 	movi	r3,1
 1808f7c:	180d883a 	mov	r6,r3
 1808f80:	1880062e 	bgeu	r3,r2,1808f9c <__eqdf2+0x70>
 1808f84:	d8800917 	ldw	r2,36(sp)
 1808f88:	8809883a 	mov	r4,r17
 1808f8c:	800b883a 	mov	r5,r16
 1808f90:	1880022e 	bgeu	r3,r2,1808f9c <__eqdf2+0x70>
 1808f94:	1809be80 	call	1809be8 <__fpcmp_parts_d>
 1808f98:	100d883a 	mov	r6,r2
 1808f9c:	3005883a 	mov	r2,r6
 1808fa0:	dfc01017 	ldw	ra,64(sp)
 1808fa4:	dc400f17 	ldw	r17,60(sp)
 1808fa8:	dc000e17 	ldw	r16,56(sp)
 1808fac:	dec01104 	addi	sp,sp,68
 1808fb0:	f800283a 	ret

01808fb4 <__nedf2>:
 1808fb4:	deffef04 	addi	sp,sp,-68
 1808fb8:	dc400f15 	stw	r17,60(sp)
 1808fbc:	dc400404 	addi	r17,sp,16
 1808fc0:	2005883a 	mov	r2,r4
 1808fc4:	2807883a 	mov	r3,r5
 1808fc8:	dc000e15 	stw	r16,56(sp)
 1808fcc:	d809883a 	mov	r4,sp
 1808fd0:	880b883a 	mov	r5,r17
 1808fd4:	dc000904 	addi	r16,sp,36
 1808fd8:	d8c00115 	stw	r3,4(sp)
 1808fdc:	d8800015 	stw	r2,0(sp)
 1808fe0:	d9800215 	stw	r6,8(sp)
 1808fe4:	dfc01015 	stw	ra,64(sp)
 1808fe8:	d9c00315 	stw	r7,12(sp)
 1808fec:	1809ab00 	call	1809ab0 <__unpack_d>
 1808ff0:	d9000204 	addi	r4,sp,8
 1808ff4:	800b883a 	mov	r5,r16
 1808ff8:	1809ab00 	call	1809ab0 <__unpack_d>
 1808ffc:	d8800417 	ldw	r2,16(sp)
 1809000:	00c00044 	movi	r3,1
 1809004:	180d883a 	mov	r6,r3
 1809008:	1880062e 	bgeu	r3,r2,1809024 <__nedf2+0x70>
 180900c:	d8800917 	ldw	r2,36(sp)
 1809010:	8809883a 	mov	r4,r17
 1809014:	800b883a 	mov	r5,r16
 1809018:	1880022e 	bgeu	r3,r2,1809024 <__nedf2+0x70>
 180901c:	1809be80 	call	1809be8 <__fpcmp_parts_d>
 1809020:	100d883a 	mov	r6,r2
 1809024:	3005883a 	mov	r2,r6
 1809028:	dfc01017 	ldw	ra,64(sp)
 180902c:	dc400f17 	ldw	r17,60(sp)
 1809030:	dc000e17 	ldw	r16,56(sp)
 1809034:	dec01104 	addi	sp,sp,68
 1809038:	f800283a 	ret

0180903c <__gtdf2>:
 180903c:	deffef04 	addi	sp,sp,-68
 1809040:	dc400f15 	stw	r17,60(sp)
 1809044:	dc400404 	addi	r17,sp,16
 1809048:	2005883a 	mov	r2,r4
 180904c:	2807883a 	mov	r3,r5
 1809050:	dc000e15 	stw	r16,56(sp)
 1809054:	d809883a 	mov	r4,sp
 1809058:	880b883a 	mov	r5,r17
 180905c:	dc000904 	addi	r16,sp,36
 1809060:	d8c00115 	stw	r3,4(sp)
 1809064:	d8800015 	stw	r2,0(sp)
 1809068:	d9800215 	stw	r6,8(sp)
 180906c:	dfc01015 	stw	ra,64(sp)
 1809070:	d9c00315 	stw	r7,12(sp)
 1809074:	1809ab00 	call	1809ab0 <__unpack_d>
 1809078:	d9000204 	addi	r4,sp,8
 180907c:	800b883a 	mov	r5,r16
 1809080:	1809ab00 	call	1809ab0 <__unpack_d>
 1809084:	d8800417 	ldw	r2,16(sp)
 1809088:	00c00044 	movi	r3,1
 180908c:	01bfffc4 	movi	r6,-1
 1809090:	1880062e 	bgeu	r3,r2,18090ac <__gtdf2+0x70>
 1809094:	d8800917 	ldw	r2,36(sp)
 1809098:	8809883a 	mov	r4,r17
 180909c:	800b883a 	mov	r5,r16
 18090a0:	1880022e 	bgeu	r3,r2,18090ac <__gtdf2+0x70>
 18090a4:	1809be80 	call	1809be8 <__fpcmp_parts_d>
 18090a8:	100d883a 	mov	r6,r2
 18090ac:	3005883a 	mov	r2,r6
 18090b0:	dfc01017 	ldw	ra,64(sp)
 18090b4:	dc400f17 	ldw	r17,60(sp)
 18090b8:	dc000e17 	ldw	r16,56(sp)
 18090bc:	dec01104 	addi	sp,sp,68
 18090c0:	f800283a 	ret

018090c4 <__gedf2>:
 18090c4:	deffef04 	addi	sp,sp,-68
 18090c8:	dc400f15 	stw	r17,60(sp)
 18090cc:	dc400404 	addi	r17,sp,16
 18090d0:	2005883a 	mov	r2,r4
 18090d4:	2807883a 	mov	r3,r5
 18090d8:	dc000e15 	stw	r16,56(sp)
 18090dc:	d809883a 	mov	r4,sp
 18090e0:	880b883a 	mov	r5,r17
 18090e4:	dc000904 	addi	r16,sp,36
 18090e8:	d8c00115 	stw	r3,4(sp)
 18090ec:	d8800015 	stw	r2,0(sp)
 18090f0:	d9800215 	stw	r6,8(sp)
 18090f4:	dfc01015 	stw	ra,64(sp)
 18090f8:	d9c00315 	stw	r7,12(sp)
 18090fc:	1809ab00 	call	1809ab0 <__unpack_d>
 1809100:	d9000204 	addi	r4,sp,8
 1809104:	800b883a 	mov	r5,r16
 1809108:	1809ab00 	call	1809ab0 <__unpack_d>
 180910c:	d8800417 	ldw	r2,16(sp)
 1809110:	00c00044 	movi	r3,1
 1809114:	01bfffc4 	movi	r6,-1
 1809118:	1880062e 	bgeu	r3,r2,1809134 <__gedf2+0x70>
 180911c:	d8800917 	ldw	r2,36(sp)
 1809120:	8809883a 	mov	r4,r17
 1809124:	800b883a 	mov	r5,r16
 1809128:	1880022e 	bgeu	r3,r2,1809134 <__gedf2+0x70>
 180912c:	1809be80 	call	1809be8 <__fpcmp_parts_d>
 1809130:	100d883a 	mov	r6,r2
 1809134:	3005883a 	mov	r2,r6
 1809138:	dfc01017 	ldw	ra,64(sp)
 180913c:	dc400f17 	ldw	r17,60(sp)
 1809140:	dc000e17 	ldw	r16,56(sp)
 1809144:	dec01104 	addi	sp,sp,68
 1809148:	f800283a 	ret

0180914c <__ltdf2>:
 180914c:	deffef04 	addi	sp,sp,-68
 1809150:	dc400f15 	stw	r17,60(sp)
 1809154:	dc400404 	addi	r17,sp,16
 1809158:	2005883a 	mov	r2,r4
 180915c:	2807883a 	mov	r3,r5
 1809160:	dc000e15 	stw	r16,56(sp)
 1809164:	d809883a 	mov	r4,sp
 1809168:	880b883a 	mov	r5,r17
 180916c:	dc000904 	addi	r16,sp,36
 1809170:	d8c00115 	stw	r3,4(sp)
 1809174:	d8800015 	stw	r2,0(sp)
 1809178:	d9800215 	stw	r6,8(sp)
 180917c:	dfc01015 	stw	ra,64(sp)
 1809180:	d9c00315 	stw	r7,12(sp)
 1809184:	1809ab00 	call	1809ab0 <__unpack_d>
 1809188:	d9000204 	addi	r4,sp,8
 180918c:	800b883a 	mov	r5,r16
 1809190:	1809ab00 	call	1809ab0 <__unpack_d>
 1809194:	d8800417 	ldw	r2,16(sp)
 1809198:	00c00044 	movi	r3,1
 180919c:	180d883a 	mov	r6,r3
 18091a0:	1880062e 	bgeu	r3,r2,18091bc <__ltdf2+0x70>
 18091a4:	d8800917 	ldw	r2,36(sp)
 18091a8:	8809883a 	mov	r4,r17
 18091ac:	800b883a 	mov	r5,r16
 18091b0:	1880022e 	bgeu	r3,r2,18091bc <__ltdf2+0x70>
 18091b4:	1809be80 	call	1809be8 <__fpcmp_parts_d>
 18091b8:	100d883a 	mov	r6,r2
 18091bc:	3005883a 	mov	r2,r6
 18091c0:	dfc01017 	ldw	ra,64(sp)
 18091c4:	dc400f17 	ldw	r17,60(sp)
 18091c8:	dc000e17 	ldw	r16,56(sp)
 18091cc:	dec01104 	addi	sp,sp,68
 18091d0:	f800283a 	ret

018091d4 <__floatsidf>:
 18091d4:	2006d7fa 	srli	r3,r4,31
 18091d8:	defff604 	addi	sp,sp,-40
 18091dc:	008000c4 	movi	r2,3
 18091e0:	dfc00915 	stw	ra,36(sp)
 18091e4:	dcc00815 	stw	r19,32(sp)
 18091e8:	dc800715 	stw	r18,28(sp)
 18091ec:	dc400615 	stw	r17,24(sp)
 18091f0:	dc000515 	stw	r16,20(sp)
 18091f4:	d8800015 	stw	r2,0(sp)
 18091f8:	d8c00115 	stw	r3,4(sp)
 18091fc:	20000f1e 	bne	r4,zero,180923c <__floatsidf+0x68>
 1809200:	00800084 	movi	r2,2
 1809204:	d8800015 	stw	r2,0(sp)
 1809208:	d809883a 	mov	r4,sp
 180920c:	180979c0 	call	180979c <__pack_d>
 1809210:	1009883a 	mov	r4,r2
 1809214:	180b883a 	mov	r5,r3
 1809218:	2005883a 	mov	r2,r4
 180921c:	2807883a 	mov	r3,r5
 1809220:	dfc00917 	ldw	ra,36(sp)
 1809224:	dcc00817 	ldw	r19,32(sp)
 1809228:	dc800717 	ldw	r18,28(sp)
 180922c:	dc400617 	ldw	r17,24(sp)
 1809230:	dc000517 	ldw	r16,20(sp)
 1809234:	dec00a04 	addi	sp,sp,40
 1809238:	f800283a 	ret
 180923c:	00800f04 	movi	r2,60
 1809240:	1807003a 	cmpeq	r3,r3,zero
 1809244:	d8800215 	stw	r2,8(sp)
 1809248:	18001126 	beq	r3,zero,1809290 <__floatsidf+0xbc>
 180924c:	0027883a 	mov	r19,zero
 1809250:	2025883a 	mov	r18,r4
 1809254:	d9000315 	stw	r4,12(sp)
 1809258:	dcc00415 	stw	r19,16(sp)
 180925c:	180971c0 	call	180971c <__clzsi2>
 1809260:	11000744 	addi	r4,r2,29
 1809264:	013fe80e 	bge	zero,r4,1809208 <__floatsidf+0x34>
 1809268:	10bfff44 	addi	r2,r2,-3
 180926c:	10000c16 	blt	r2,zero,18092a0 <__floatsidf+0xcc>
 1809270:	90a2983a 	sll	r17,r18,r2
 1809274:	0021883a 	mov	r16,zero
 1809278:	d8800217 	ldw	r2,8(sp)
 180927c:	dc400415 	stw	r17,16(sp)
 1809280:	dc000315 	stw	r16,12(sp)
 1809284:	1105c83a 	sub	r2,r2,r4
 1809288:	d8800215 	stw	r2,8(sp)
 180928c:	003fde06 	br	1809208 <__floatsidf+0x34>
 1809290:	00a00034 	movhi	r2,32768
 1809294:	20800a26 	beq	r4,r2,18092c0 <__floatsidf+0xec>
 1809298:	0109c83a 	sub	r4,zero,r4
 180929c:	003feb06 	br	180924c <__floatsidf+0x78>
 18092a0:	9006d07a 	srli	r3,r18,1
 18092a4:	008007c4 	movi	r2,31
 18092a8:	1105c83a 	sub	r2,r2,r4
 18092ac:	1886d83a 	srl	r3,r3,r2
 18092b0:	9922983a 	sll	r17,r19,r4
 18092b4:	9120983a 	sll	r16,r18,r4
 18092b8:	1c62b03a 	or	r17,r3,r17
 18092bc:	003fee06 	br	1809278 <__floatsidf+0xa4>
 18092c0:	0009883a 	mov	r4,zero
 18092c4:	01707834 	movhi	r5,49632
 18092c8:	003fd306 	br	1809218 <__floatsidf+0x44>

018092cc <__fixdfsi>:
 18092cc:	defff804 	addi	sp,sp,-32
 18092d0:	2005883a 	mov	r2,r4
 18092d4:	2807883a 	mov	r3,r5
 18092d8:	d809883a 	mov	r4,sp
 18092dc:	d9400204 	addi	r5,sp,8
 18092e0:	d8c00115 	stw	r3,4(sp)
 18092e4:	d8800015 	stw	r2,0(sp)
 18092e8:	dfc00715 	stw	ra,28(sp)
 18092ec:	1809ab00 	call	1809ab0 <__unpack_d>
 18092f0:	d8c00217 	ldw	r3,8(sp)
 18092f4:	00800084 	movi	r2,2
 18092f8:	1880051e 	bne	r3,r2,1809310 <__fixdfsi+0x44>
 18092fc:	0007883a 	mov	r3,zero
 1809300:	1805883a 	mov	r2,r3
 1809304:	dfc00717 	ldw	ra,28(sp)
 1809308:	dec00804 	addi	sp,sp,32
 180930c:	f800283a 	ret
 1809310:	00800044 	movi	r2,1
 1809314:	10fff92e 	bgeu	r2,r3,18092fc <__fixdfsi+0x30>
 1809318:	00800104 	movi	r2,4
 180931c:	18800426 	beq	r3,r2,1809330 <__fixdfsi+0x64>
 1809320:	d8c00417 	ldw	r3,16(sp)
 1809324:	183ff516 	blt	r3,zero,18092fc <__fixdfsi+0x30>
 1809328:	00800784 	movi	r2,30
 180932c:	10c0080e 	bge	r2,r3,1809350 <__fixdfsi+0x84>
 1809330:	d8800317 	ldw	r2,12(sp)
 1809334:	1000121e 	bne	r2,zero,1809380 <__fixdfsi+0xb4>
 1809338:	00e00034 	movhi	r3,32768
 180933c:	18ffffc4 	addi	r3,r3,-1
 1809340:	1805883a 	mov	r2,r3
 1809344:	dfc00717 	ldw	ra,28(sp)
 1809348:	dec00804 	addi	sp,sp,32
 180934c:	f800283a 	ret
 1809350:	00800f04 	movi	r2,60
 1809354:	10d1c83a 	sub	r8,r2,r3
 1809358:	40bff804 	addi	r2,r8,-32
 180935c:	d9800517 	ldw	r6,20(sp)
 1809360:	d9c00617 	ldw	r7,24(sp)
 1809364:	10000816 	blt	r2,zero,1809388 <__fixdfsi+0xbc>
 1809368:	3888d83a 	srl	r4,r7,r2
 180936c:	d8800317 	ldw	r2,12(sp)
 1809370:	2007883a 	mov	r3,r4
 1809374:	103fe226 	beq	r2,zero,1809300 <__fixdfsi+0x34>
 1809378:	0107c83a 	sub	r3,zero,r4
 180937c:	003fe006 	br	1809300 <__fixdfsi+0x34>
 1809380:	00e00034 	movhi	r3,32768
 1809384:	003fde06 	br	1809300 <__fixdfsi+0x34>
 1809388:	39c7883a 	add	r3,r7,r7
 180938c:	008007c4 	movi	r2,31
 1809390:	1205c83a 	sub	r2,r2,r8
 1809394:	1886983a 	sll	r3,r3,r2
 1809398:	3208d83a 	srl	r4,r6,r8
 180939c:	1908b03a 	or	r4,r3,r4
 18093a0:	003ff206 	br	180936c <__fixdfsi+0xa0>

018093a4 <__floatunsidf>:
 18093a4:	defff204 	addi	sp,sp,-56
 18093a8:	dfc00d15 	stw	ra,52(sp)
 18093ac:	ddc00c15 	stw	r23,48(sp)
 18093b0:	dd800b15 	stw	r22,44(sp)
 18093b4:	dd400a15 	stw	r21,40(sp)
 18093b8:	dd000915 	stw	r20,36(sp)
 18093bc:	dcc00815 	stw	r19,32(sp)
 18093c0:	dc800715 	stw	r18,28(sp)
 18093c4:	dc400615 	stw	r17,24(sp)
 18093c8:	dc000515 	stw	r16,20(sp)
 18093cc:	d8000115 	stw	zero,4(sp)
 18093d0:	20000f1e 	bne	r4,zero,1809410 <__floatunsidf+0x6c>
 18093d4:	00800084 	movi	r2,2
 18093d8:	d8800015 	stw	r2,0(sp)
 18093dc:	d809883a 	mov	r4,sp
 18093e0:	180979c0 	call	180979c <__pack_d>
 18093e4:	dfc00d17 	ldw	ra,52(sp)
 18093e8:	ddc00c17 	ldw	r23,48(sp)
 18093ec:	dd800b17 	ldw	r22,44(sp)
 18093f0:	dd400a17 	ldw	r21,40(sp)
 18093f4:	dd000917 	ldw	r20,36(sp)
 18093f8:	dcc00817 	ldw	r19,32(sp)
 18093fc:	dc800717 	ldw	r18,28(sp)
 1809400:	dc400617 	ldw	r17,24(sp)
 1809404:	dc000517 	ldw	r16,20(sp)
 1809408:	dec00e04 	addi	sp,sp,56
 180940c:	f800283a 	ret
 1809410:	008000c4 	movi	r2,3
 1809414:	00c00f04 	movi	r3,60
 1809418:	002f883a 	mov	r23,zero
 180941c:	202d883a 	mov	r22,r4
 1809420:	d8800015 	stw	r2,0(sp)
 1809424:	d8c00215 	stw	r3,8(sp)
 1809428:	d9000315 	stw	r4,12(sp)
 180942c:	ddc00415 	stw	r23,16(sp)
 1809430:	180971c0 	call	180971c <__clzsi2>
 1809434:	12400744 	addi	r9,r2,29
 1809438:	48000b16 	blt	r9,zero,1809468 <__floatunsidf+0xc4>
 180943c:	483fe726 	beq	r9,zero,18093dc <__floatunsidf+0x38>
 1809440:	10bfff44 	addi	r2,r2,-3
 1809444:	10002e16 	blt	r2,zero,1809500 <__floatunsidf+0x15c>
 1809448:	b0a2983a 	sll	r17,r22,r2
 180944c:	0021883a 	mov	r16,zero
 1809450:	d8800217 	ldw	r2,8(sp)
 1809454:	dc400415 	stw	r17,16(sp)
 1809458:	dc000315 	stw	r16,12(sp)
 180945c:	1245c83a 	sub	r2,r2,r9
 1809460:	d8800215 	stw	r2,8(sp)
 1809464:	003fdd06 	br	18093dc <__floatunsidf+0x38>
 1809468:	0255c83a 	sub	r10,zero,r9
 180946c:	51bff804 	addi	r6,r10,-32
 1809470:	30001b16 	blt	r6,zero,18094e0 <__floatunsidf+0x13c>
 1809474:	b9a8d83a 	srl	r20,r23,r6
 1809478:	002b883a 	mov	r21,zero
 180947c:	000f883a 	mov	r7,zero
 1809480:	01000044 	movi	r4,1
 1809484:	0011883a 	mov	r8,zero
 1809488:	30002516 	blt	r6,zero,1809520 <__floatunsidf+0x17c>
 180948c:	21a6983a 	sll	r19,r4,r6
 1809490:	0025883a 	mov	r18,zero
 1809494:	00bfffc4 	movi	r2,-1
 1809498:	9089883a 	add	r4,r18,r2
 180949c:	988b883a 	add	r5,r19,r2
 18094a0:	248d803a 	cmpltu	r6,r4,r18
 18094a4:	314b883a 	add	r5,r6,r5
 18094a8:	b104703a 	and	r2,r22,r4
 18094ac:	b946703a 	and	r3,r23,r5
 18094b0:	10c4b03a 	or	r2,r2,r3
 18094b4:	10000226 	beq	r2,zero,18094c0 <__floatunsidf+0x11c>
 18094b8:	01c00044 	movi	r7,1
 18094bc:	0011883a 	mov	r8,zero
 18094c0:	d9000217 	ldw	r4,8(sp)
 18094c4:	a1c4b03a 	or	r2,r20,r7
 18094c8:	aa06b03a 	or	r3,r21,r8
 18094cc:	2249c83a 	sub	r4,r4,r9
 18094d0:	d8c00415 	stw	r3,16(sp)
 18094d4:	d9000215 	stw	r4,8(sp)
 18094d8:	d8800315 	stw	r2,12(sp)
 18094dc:	003fbf06 	br	18093dc <__floatunsidf+0x38>
 18094e0:	bdc7883a 	add	r3,r23,r23
 18094e4:	008007c4 	movi	r2,31
 18094e8:	1285c83a 	sub	r2,r2,r10
 18094ec:	1886983a 	sll	r3,r3,r2
 18094f0:	b2a8d83a 	srl	r20,r22,r10
 18094f4:	baaad83a 	srl	r21,r23,r10
 18094f8:	1d28b03a 	or	r20,r3,r20
 18094fc:	003fdf06 	br	180947c <__floatunsidf+0xd8>
 1809500:	b006d07a 	srli	r3,r22,1
 1809504:	008007c4 	movi	r2,31
 1809508:	1245c83a 	sub	r2,r2,r9
 180950c:	1886d83a 	srl	r3,r3,r2
 1809510:	ba62983a 	sll	r17,r23,r9
 1809514:	b260983a 	sll	r16,r22,r9
 1809518:	1c62b03a 	or	r17,r3,r17
 180951c:	003fcc06 	br	1809450 <__floatunsidf+0xac>
 1809520:	2006d07a 	srli	r3,r4,1
 1809524:	008007c4 	movi	r2,31
 1809528:	1285c83a 	sub	r2,r2,r10
 180952c:	18a6d83a 	srl	r19,r3,r2
 1809530:	22a4983a 	sll	r18,r4,r10
 1809534:	003fd706 	br	1809494 <__floatunsidf+0xf0>

01809538 <udivmodsi4>:
 1809538:	29001b2e 	bgeu	r5,r4,18095a8 <udivmodsi4+0x70>
 180953c:	28001a16 	blt	r5,zero,18095a8 <udivmodsi4+0x70>
 1809540:	00800044 	movi	r2,1
 1809544:	0007883a 	mov	r3,zero
 1809548:	01c007c4 	movi	r7,31
 180954c:	00000306 	br	180955c <udivmodsi4+0x24>
 1809550:	19c01326 	beq	r3,r7,18095a0 <udivmodsi4+0x68>
 1809554:	18c00044 	addi	r3,r3,1
 1809558:	28000416 	blt	r5,zero,180956c <udivmodsi4+0x34>
 180955c:	294b883a 	add	r5,r5,r5
 1809560:	1085883a 	add	r2,r2,r2
 1809564:	293ffa36 	bltu	r5,r4,1809550 <udivmodsi4+0x18>
 1809568:	10000d26 	beq	r2,zero,18095a0 <udivmodsi4+0x68>
 180956c:	0007883a 	mov	r3,zero
 1809570:	21400236 	bltu	r4,r5,180957c <udivmodsi4+0x44>
 1809574:	2149c83a 	sub	r4,r4,r5
 1809578:	1886b03a 	or	r3,r3,r2
 180957c:	1004d07a 	srli	r2,r2,1
 1809580:	280ad07a 	srli	r5,r5,1
 1809584:	103ffa1e 	bne	r2,zero,1809570 <udivmodsi4+0x38>
 1809588:	30000226 	beq	r6,zero,1809594 <udivmodsi4+0x5c>
 180958c:	2005883a 	mov	r2,r4
 1809590:	f800283a 	ret
 1809594:	1809883a 	mov	r4,r3
 1809598:	2005883a 	mov	r2,r4
 180959c:	f800283a 	ret
 18095a0:	0007883a 	mov	r3,zero
 18095a4:	003ff806 	br	1809588 <udivmodsi4+0x50>
 18095a8:	00800044 	movi	r2,1
 18095ac:	0007883a 	mov	r3,zero
 18095b0:	003fef06 	br	1809570 <udivmodsi4+0x38>

018095b4 <__divsi3>:
 18095b4:	defffe04 	addi	sp,sp,-8
 18095b8:	dc000015 	stw	r16,0(sp)
 18095bc:	dfc00115 	stw	ra,4(sp)
 18095c0:	0021883a 	mov	r16,zero
 18095c4:	20000c16 	blt	r4,zero,18095f8 <__divsi3+0x44>
 18095c8:	000d883a 	mov	r6,zero
 18095cc:	28000e16 	blt	r5,zero,1809608 <__divsi3+0x54>
 18095d0:	18095380 	call	1809538 <udivmodsi4>
 18095d4:	1007883a 	mov	r3,r2
 18095d8:	8005003a 	cmpeq	r2,r16,zero
 18095dc:	1000011e 	bne	r2,zero,18095e4 <__divsi3+0x30>
 18095e0:	00c7c83a 	sub	r3,zero,r3
 18095e4:	1805883a 	mov	r2,r3
 18095e8:	dfc00117 	ldw	ra,4(sp)
 18095ec:	dc000017 	ldw	r16,0(sp)
 18095f0:	dec00204 	addi	sp,sp,8
 18095f4:	f800283a 	ret
 18095f8:	0109c83a 	sub	r4,zero,r4
 18095fc:	04000044 	movi	r16,1
 1809600:	000d883a 	mov	r6,zero
 1809604:	283ff20e 	bge	r5,zero,18095d0 <__divsi3+0x1c>
 1809608:	014bc83a 	sub	r5,zero,r5
 180960c:	8021003a 	cmpeq	r16,r16,zero
 1809610:	003fef06 	br	18095d0 <__divsi3+0x1c>

01809614 <__modsi3>:
 1809614:	deffff04 	addi	sp,sp,-4
 1809618:	dfc00015 	stw	ra,0(sp)
 180961c:	01800044 	movi	r6,1
 1809620:	2807883a 	mov	r3,r5
 1809624:	20000416 	blt	r4,zero,1809638 <__modsi3+0x24>
 1809628:	28000c16 	blt	r5,zero,180965c <__modsi3+0x48>
 180962c:	dfc00017 	ldw	ra,0(sp)
 1809630:	dec00104 	addi	sp,sp,4
 1809634:	18095381 	jmpi	1809538 <udivmodsi4>
 1809638:	0109c83a 	sub	r4,zero,r4
 180963c:	28000b16 	blt	r5,zero,180966c <__modsi3+0x58>
 1809640:	180b883a 	mov	r5,r3
 1809644:	01800044 	movi	r6,1
 1809648:	18095380 	call	1809538 <udivmodsi4>
 180964c:	0085c83a 	sub	r2,zero,r2
 1809650:	dfc00017 	ldw	ra,0(sp)
 1809654:	dec00104 	addi	sp,sp,4
 1809658:	f800283a 	ret
 180965c:	014bc83a 	sub	r5,zero,r5
 1809660:	dfc00017 	ldw	ra,0(sp)
 1809664:	dec00104 	addi	sp,sp,4
 1809668:	18095381 	jmpi	1809538 <udivmodsi4>
 180966c:	0147c83a 	sub	r3,zero,r5
 1809670:	003ff306 	br	1809640 <__modsi3+0x2c>

01809674 <__udivsi3>:
 1809674:	000d883a 	mov	r6,zero
 1809678:	18095381 	jmpi	1809538 <udivmodsi4>

0180967c <__umodsi3>:
 180967c:	01800044 	movi	r6,1
 1809680:	18095381 	jmpi	1809538 <udivmodsi4>

01809684 <__muldi3>:
 1809684:	2011883a 	mov	r8,r4
 1809688:	427fffcc 	andi	r9,r8,65535
 180968c:	4018d43a 	srli	r12,r8,16
 1809690:	32bfffcc 	andi	r10,r6,65535
 1809694:	3016d43a 	srli	r11,r6,16
 1809698:	4a85383a 	mul	r2,r9,r10
 180969c:	6295383a 	mul	r10,r12,r10
 18096a0:	4ad3383a 	mul	r9,r9,r11
 18096a4:	113fffcc 	andi	r4,r2,65535
 18096a8:	1004d43a 	srli	r2,r2,16
 18096ac:	4a93883a 	add	r9,r9,r10
 18096b0:	3807883a 	mov	r3,r7
 18096b4:	1245883a 	add	r2,r2,r9
 18096b8:	280f883a 	mov	r7,r5
 18096bc:	180b883a 	mov	r5,r3
 18096c0:	1006943a 	slli	r3,r2,16
 18096c4:	defffd04 	addi	sp,sp,-12
 18096c8:	dc800215 	stw	r18,8(sp)
 18096cc:	1907883a 	add	r3,r3,r4
 18096d0:	dc400115 	stw	r17,4(sp)
 18096d4:	dc000015 	stw	r16,0(sp)
 18096d8:	4165383a 	mul	r18,r8,r5
 18096dc:	31e3383a 	mul	r17,r6,r7
 18096e0:	1012d43a 	srli	r9,r2,16
 18096e4:	62d9383a 	mul	r12,r12,r11
 18096e8:	181f883a 	mov	r15,r3
 18096ec:	1280022e 	bgeu	r2,r10,18096f8 <__muldi3+0x74>
 18096f0:	00800074 	movhi	r2,1
 18096f4:	6099883a 	add	r12,r12,r2
 18096f8:	624d883a 	add	r6,r12,r9
 18096fc:	9187883a 	add	r3,r18,r6
 1809700:	88c7883a 	add	r3,r17,r3
 1809704:	7805883a 	mov	r2,r15
 1809708:	dc800217 	ldw	r18,8(sp)
 180970c:	dc400117 	ldw	r17,4(sp)
 1809710:	dc000017 	ldw	r16,0(sp)
 1809714:	dec00304 	addi	sp,sp,12
 1809718:	f800283a 	ret

0180971c <__clzsi2>:
 180971c:	00bfffd4 	movui	r2,65535
 1809720:	11000e36 	bltu	r2,r4,180975c <__clzsi2+0x40>
 1809724:	00803fc4 	movi	r2,255
 1809728:	01400204 	movi	r5,8
 180972c:	0007883a 	mov	r3,zero
 1809730:	11001036 	bltu	r2,r4,1809774 <__clzsi2+0x58>
 1809734:	000b883a 	mov	r5,zero
 1809738:	20c6d83a 	srl	r3,r4,r3
 180973c:	00806074 	movhi	r2,385
 1809740:	10829f04 	addi	r2,r2,2684
 1809744:	1887883a 	add	r3,r3,r2
 1809748:	18800003 	ldbu	r2,0(r3)
 180974c:	00c00804 	movi	r3,32
 1809750:	2885883a 	add	r2,r5,r2
 1809754:	1885c83a 	sub	r2,r3,r2
 1809758:	f800283a 	ret
 180975c:	01400404 	movi	r5,16
 1809760:	00804034 	movhi	r2,256
 1809764:	10bfffc4 	addi	r2,r2,-1
 1809768:	2807883a 	mov	r3,r5
 180976c:	113ff22e 	bgeu	r2,r4,1809738 <__clzsi2+0x1c>
 1809770:	01400604 	movi	r5,24
 1809774:	2807883a 	mov	r3,r5
 1809778:	20c6d83a 	srl	r3,r4,r3
 180977c:	00806074 	movhi	r2,385
 1809780:	10829f04 	addi	r2,r2,2684
 1809784:	1887883a 	add	r3,r3,r2
 1809788:	18800003 	ldbu	r2,0(r3)
 180978c:	00c00804 	movi	r3,32
 1809790:	2885883a 	add	r2,r5,r2
 1809794:	1885c83a 	sub	r2,r3,r2
 1809798:	f800283a 	ret

0180979c <__pack_d>:
 180979c:	20c00017 	ldw	r3,0(r4)
 18097a0:	defffd04 	addi	sp,sp,-12
 18097a4:	dc000015 	stw	r16,0(sp)
 18097a8:	dc800215 	stw	r18,8(sp)
 18097ac:	dc400115 	stw	r17,4(sp)
 18097b0:	00800044 	movi	r2,1
 18097b4:	22000317 	ldw	r8,12(r4)
 18097b8:	001f883a 	mov	r15,zero
 18097bc:	22400417 	ldw	r9,16(r4)
 18097c0:	24000117 	ldw	r16,4(r4)
 18097c4:	10c0552e 	bgeu	r2,r3,180991c <__pack_d+0x180>
 18097c8:	00800104 	movi	r2,4
 18097cc:	18804f26 	beq	r3,r2,180990c <__pack_d+0x170>
 18097d0:	00800084 	movi	r2,2
 18097d4:	18800226 	beq	r3,r2,18097e0 <__pack_d+0x44>
 18097d8:	4244b03a 	or	r2,r8,r9
 18097dc:	10001a1e 	bne	r2,zero,1809848 <__pack_d+0xac>
 18097e0:	000d883a 	mov	r6,zero
 18097e4:	000f883a 	mov	r7,zero
 18097e8:	0011883a 	mov	r8,zero
 18097ec:	00800434 	movhi	r2,16
 18097f0:	10bfffc4 	addi	r2,r2,-1
 18097f4:	301d883a 	mov	r14,r6
 18097f8:	3884703a 	and	r2,r7,r2
 18097fc:	400a953a 	slli	r5,r8,20
 1809800:	79bffc2c 	andhi	r6,r15,65520
 1809804:	308cb03a 	or	r6,r6,r2
 1809808:	00e00434 	movhi	r3,32784
 180980c:	18ffffc4 	addi	r3,r3,-1
 1809810:	800497fa 	slli	r2,r16,31
 1809814:	30c6703a 	and	r3,r6,r3
 1809818:	1946b03a 	or	r3,r3,r5
 180981c:	01600034 	movhi	r5,32768
 1809820:	297fffc4 	addi	r5,r5,-1
 1809824:	194a703a 	and	r5,r3,r5
 1809828:	288ab03a 	or	r5,r5,r2
 180982c:	2807883a 	mov	r3,r5
 1809830:	7005883a 	mov	r2,r14
 1809834:	dc800217 	ldw	r18,8(sp)
 1809838:	dc400117 	ldw	r17,4(sp)
 180983c:	dc000017 	ldw	r16,0(sp)
 1809840:	dec00304 	addi	sp,sp,12
 1809844:	f800283a 	ret
 1809848:	21000217 	ldw	r4,8(r4)
 180984c:	00bf0084 	movi	r2,-1022
 1809850:	20803f16 	blt	r4,r2,1809950 <__pack_d+0x1b4>
 1809854:	0080ffc4 	movi	r2,1023
 1809858:	11002c16 	blt	r2,r4,180990c <__pack_d+0x170>
 180985c:	00803fc4 	movi	r2,255
 1809860:	408c703a 	and	r6,r8,r2
 1809864:	00802004 	movi	r2,128
 1809868:	0007883a 	mov	r3,zero
 180986c:	000f883a 	mov	r7,zero
 1809870:	2280ffc4 	addi	r10,r4,1023
 1809874:	30801e26 	beq	r6,r2,18098f0 <__pack_d+0x154>
 1809878:	00801fc4 	movi	r2,127
 180987c:	4089883a 	add	r4,r8,r2
 1809880:	220d803a 	cmpltu	r6,r4,r8
 1809884:	324d883a 	add	r6,r6,r9
 1809888:	2011883a 	mov	r8,r4
 180988c:	3013883a 	mov	r9,r6
 1809890:	00880034 	movhi	r2,8192
 1809894:	10bfffc4 	addi	r2,r2,-1
 1809898:	12400d36 	bltu	r2,r9,18098d0 <__pack_d+0x134>
 180989c:	4804963a 	slli	r2,r9,24
 18098a0:	400cd23a 	srli	r6,r8,8
 18098a4:	480ed23a 	srli	r7,r9,8
 18098a8:	013fffc4 	movi	r4,-1
 18098ac:	118cb03a 	or	r6,r2,r6
 18098b0:	01400434 	movhi	r5,16
 18098b4:	297fffc4 	addi	r5,r5,-1
 18098b8:	3104703a 	and	r2,r6,r4
 18098bc:	3946703a 	and	r3,r7,r5
 18098c0:	5201ffcc 	andi	r8,r10,2047
 18098c4:	100d883a 	mov	r6,r2
 18098c8:	180f883a 	mov	r7,r3
 18098cc:	003fc706 	br	18097ec <__pack_d+0x50>
 18098d0:	480897fa 	slli	r4,r9,31
 18098d4:	4004d07a 	srli	r2,r8,1
 18098d8:	4806d07a 	srli	r3,r9,1
 18098dc:	52800044 	addi	r10,r10,1
 18098e0:	2084b03a 	or	r2,r4,r2
 18098e4:	1011883a 	mov	r8,r2
 18098e8:	1813883a 	mov	r9,r3
 18098ec:	003feb06 	br	180989c <__pack_d+0x100>
 18098f0:	383fe11e 	bne	r7,zero,1809878 <__pack_d+0xdc>
 18098f4:	01004004 	movi	r4,256
 18098f8:	4104703a 	and	r2,r8,r4
 18098fc:	10c4b03a 	or	r2,r2,r3
 1809900:	103fe326 	beq	r2,zero,1809890 <__pack_d+0xf4>
 1809904:	3005883a 	mov	r2,r6
 1809908:	003fdc06 	br	180987c <__pack_d+0xe0>
 180990c:	000d883a 	mov	r6,zero
 1809910:	000f883a 	mov	r7,zero
 1809914:	0201ffc4 	movi	r8,2047
 1809918:	003fb406 	br	18097ec <__pack_d+0x50>
 180991c:	0005883a 	mov	r2,zero
 1809920:	00c00234 	movhi	r3,8
 1809924:	408cb03a 	or	r6,r8,r2
 1809928:	48ceb03a 	or	r7,r9,r3
 180992c:	013fffc4 	movi	r4,-1
 1809930:	01400434 	movhi	r5,16
 1809934:	297fffc4 	addi	r5,r5,-1
 1809938:	3104703a 	and	r2,r6,r4
 180993c:	3946703a 	and	r3,r7,r5
 1809940:	100d883a 	mov	r6,r2
 1809944:	180f883a 	mov	r7,r3
 1809948:	0201ffc4 	movi	r8,2047
 180994c:	003fa706 	br	18097ec <__pack_d+0x50>
 1809950:	1109c83a 	sub	r4,r2,r4
 1809954:	00800e04 	movi	r2,56
 1809958:	11004316 	blt	r2,r4,1809a68 <__pack_d+0x2cc>
 180995c:	21fff804 	addi	r7,r4,-32
 1809960:	38004516 	blt	r7,zero,1809a78 <__pack_d+0x2dc>
 1809964:	49d8d83a 	srl	r12,r9,r7
 1809968:	001b883a 	mov	r13,zero
 180996c:	0023883a 	mov	r17,zero
 1809970:	01400044 	movi	r5,1
 1809974:	0025883a 	mov	r18,zero
 1809978:	38004716 	blt	r7,zero,1809a98 <__pack_d+0x2fc>
 180997c:	29d6983a 	sll	r11,r5,r7
 1809980:	0015883a 	mov	r10,zero
 1809984:	00bfffc4 	movi	r2,-1
 1809988:	5089883a 	add	r4,r10,r2
 180998c:	588b883a 	add	r5,r11,r2
 1809990:	228d803a 	cmpltu	r6,r4,r10
 1809994:	314b883a 	add	r5,r6,r5
 1809998:	4104703a 	and	r2,r8,r4
 180999c:	4946703a 	and	r3,r9,r5
 18099a0:	10c4b03a 	or	r2,r2,r3
 18099a4:	10000226 	beq	r2,zero,18099b0 <__pack_d+0x214>
 18099a8:	04400044 	movi	r17,1
 18099ac:	0025883a 	mov	r18,zero
 18099b0:	00803fc4 	movi	r2,255
 18099b4:	644eb03a 	or	r7,r12,r17
 18099b8:	3892703a 	and	r9,r7,r2
 18099bc:	00802004 	movi	r2,128
 18099c0:	6c90b03a 	or	r8,r13,r18
 18099c4:	0015883a 	mov	r10,zero
 18099c8:	48801626 	beq	r9,r2,1809a24 <__pack_d+0x288>
 18099cc:	01001fc4 	movi	r4,127
 18099d0:	3905883a 	add	r2,r7,r4
 18099d4:	11cd803a 	cmpltu	r6,r2,r7
 18099d8:	320d883a 	add	r6,r6,r8
 18099dc:	100f883a 	mov	r7,r2
 18099e0:	00840034 	movhi	r2,4096
 18099e4:	10bfffc4 	addi	r2,r2,-1
 18099e8:	3011883a 	mov	r8,r6
 18099ec:	0007883a 	mov	r3,zero
 18099f0:	11801b36 	bltu	r2,r6,1809a60 <__pack_d+0x2c4>
 18099f4:	4004963a 	slli	r2,r8,24
 18099f8:	3808d23a 	srli	r4,r7,8
 18099fc:	400ad23a 	srli	r5,r8,8
 1809a00:	1813883a 	mov	r9,r3
 1809a04:	1108b03a 	or	r4,r2,r4
 1809a08:	00bfffc4 	movi	r2,-1
 1809a0c:	00c00434 	movhi	r3,16
 1809a10:	18ffffc4 	addi	r3,r3,-1
 1809a14:	208c703a 	and	r6,r4,r2
 1809a18:	28ce703a 	and	r7,r5,r3
 1809a1c:	4a01ffcc 	andi	r8,r9,2047
 1809a20:	003f7206 	br	18097ec <__pack_d+0x50>
 1809a24:	503fe91e 	bne	r10,zero,18099cc <__pack_d+0x230>
 1809a28:	01004004 	movi	r4,256
 1809a2c:	3904703a 	and	r2,r7,r4
 1809a30:	0007883a 	mov	r3,zero
 1809a34:	10c4b03a 	or	r2,r2,r3
 1809a38:	10000626 	beq	r2,zero,1809a54 <__pack_d+0x2b8>
 1809a3c:	3a45883a 	add	r2,r7,r9
 1809a40:	11cd803a 	cmpltu	r6,r2,r7
 1809a44:	320d883a 	add	r6,r6,r8
 1809a48:	100f883a 	mov	r7,r2
 1809a4c:	3011883a 	mov	r8,r6
 1809a50:	0007883a 	mov	r3,zero
 1809a54:	00840034 	movhi	r2,4096
 1809a58:	10bfffc4 	addi	r2,r2,-1
 1809a5c:	123fe52e 	bgeu	r2,r8,18099f4 <__pack_d+0x258>
 1809a60:	00c00044 	movi	r3,1
 1809a64:	003fe306 	br	18099f4 <__pack_d+0x258>
 1809a68:	0009883a 	mov	r4,zero
 1809a6c:	0013883a 	mov	r9,zero
 1809a70:	000b883a 	mov	r5,zero
 1809a74:	003fe406 	br	1809a08 <__pack_d+0x26c>
 1809a78:	4a47883a 	add	r3,r9,r9
 1809a7c:	008007c4 	movi	r2,31
 1809a80:	1105c83a 	sub	r2,r2,r4
 1809a84:	1886983a 	sll	r3,r3,r2
 1809a88:	4118d83a 	srl	r12,r8,r4
 1809a8c:	491ad83a 	srl	r13,r9,r4
 1809a90:	1b18b03a 	or	r12,r3,r12
 1809a94:	003fb506 	br	180996c <__pack_d+0x1d0>
 1809a98:	2806d07a 	srli	r3,r5,1
 1809a9c:	008007c4 	movi	r2,31
 1809aa0:	1105c83a 	sub	r2,r2,r4
 1809aa4:	1896d83a 	srl	r11,r3,r2
 1809aa8:	2914983a 	sll	r10,r5,r4
 1809aac:	003fb506 	br	1809984 <__pack_d+0x1e8>

01809ab0 <__unpack_d>:
 1809ab0:	20c00117 	ldw	r3,4(r4)
 1809ab4:	22400017 	ldw	r9,0(r4)
 1809ab8:	00800434 	movhi	r2,16
 1809abc:	10bfffc4 	addi	r2,r2,-1
 1809ac0:	1808d53a 	srli	r4,r3,20
 1809ac4:	180cd7fa 	srli	r6,r3,31
 1809ac8:	1894703a 	and	r10,r3,r2
 1809acc:	2201ffcc 	andi	r8,r4,2047
 1809ad0:	281b883a 	mov	r13,r5
 1809ad4:	4817883a 	mov	r11,r9
 1809ad8:	29800115 	stw	r6,4(r5)
 1809adc:	5019883a 	mov	r12,r10
 1809ae0:	40001e1e 	bne	r8,zero,1809b5c <__unpack_d+0xac>
 1809ae4:	4a84b03a 	or	r2,r9,r10
 1809ae8:	10001926 	beq	r2,zero,1809b50 <__unpack_d+0xa0>
 1809aec:	4804d63a 	srli	r2,r9,24
 1809af0:	500c923a 	slli	r6,r10,8
 1809af4:	013f0084 	movi	r4,-1022
 1809af8:	00c40034 	movhi	r3,4096
 1809afc:	18ffffc4 	addi	r3,r3,-1
 1809b00:	118cb03a 	or	r6,r2,r6
 1809b04:	008000c4 	movi	r2,3
 1809b08:	480a923a 	slli	r5,r9,8
 1809b0c:	68800015 	stw	r2,0(r13)
 1809b10:	69000215 	stw	r4,8(r13)
 1809b14:	19800b36 	bltu	r3,r6,1809b44 <__unpack_d+0x94>
 1809b18:	200f883a 	mov	r7,r4
 1809b1c:	1811883a 	mov	r8,r3
 1809b20:	2945883a 	add	r2,r5,r5
 1809b24:	1149803a 	cmpltu	r4,r2,r5
 1809b28:	3187883a 	add	r3,r6,r6
 1809b2c:	20c9883a 	add	r4,r4,r3
 1809b30:	100b883a 	mov	r5,r2
 1809b34:	200d883a 	mov	r6,r4
 1809b38:	39ffffc4 	addi	r7,r7,-1
 1809b3c:	413ff82e 	bgeu	r8,r4,1809b20 <__unpack_d+0x70>
 1809b40:	69c00215 	stw	r7,8(r13)
 1809b44:	69800415 	stw	r6,16(r13)
 1809b48:	69400315 	stw	r5,12(r13)
 1809b4c:	f800283a 	ret
 1809b50:	00800084 	movi	r2,2
 1809b54:	28800015 	stw	r2,0(r5)
 1809b58:	f800283a 	ret
 1809b5c:	0081ffc4 	movi	r2,2047
 1809b60:	40800f26 	beq	r8,r2,1809ba0 <__unpack_d+0xf0>
 1809b64:	480cd63a 	srli	r6,r9,24
 1809b68:	5006923a 	slli	r3,r10,8
 1809b6c:	4804923a 	slli	r2,r9,8
 1809b70:	0009883a 	mov	r4,zero
 1809b74:	30c6b03a 	or	r3,r6,r3
 1809b78:	01440034 	movhi	r5,4096
 1809b7c:	110cb03a 	or	r6,r2,r4
 1809b80:	423f0044 	addi	r8,r8,-1023
 1809b84:	194eb03a 	or	r7,r3,r5
 1809b88:	008000c4 	movi	r2,3
 1809b8c:	69c00415 	stw	r7,16(r13)
 1809b90:	6a000215 	stw	r8,8(r13)
 1809b94:	68800015 	stw	r2,0(r13)
 1809b98:	69800315 	stw	r6,12(r13)
 1809b9c:	f800283a 	ret
 1809ba0:	4a84b03a 	or	r2,r9,r10
 1809ba4:	1000031e 	bne	r2,zero,1809bb4 <__unpack_d+0x104>
 1809ba8:	00800104 	movi	r2,4
 1809bac:	28800015 	stw	r2,0(r5)
 1809bb0:	f800283a 	ret
 1809bb4:	0009883a 	mov	r4,zero
 1809bb8:	01400234 	movhi	r5,8
 1809bbc:	4904703a 	and	r2,r9,r4
 1809bc0:	5146703a 	and	r3,r10,r5
 1809bc4:	10c4b03a 	or	r2,r2,r3
 1809bc8:	10000526 	beq	r2,zero,1809be0 <__unpack_d+0x130>
 1809bcc:	00800044 	movi	r2,1
 1809bd0:	68800015 	stw	r2,0(r13)
 1809bd4:	6b000415 	stw	r12,16(r13)
 1809bd8:	6ac00315 	stw	r11,12(r13)
 1809bdc:	f800283a 	ret
 1809be0:	68000015 	stw	zero,0(r13)
 1809be4:	003ffb06 	br	1809bd4 <__unpack_d+0x124>

01809be8 <__fpcmp_parts_d>:
 1809be8:	21800017 	ldw	r6,0(r4)
 1809bec:	00c00044 	movi	r3,1
 1809bf0:	19800a2e 	bgeu	r3,r6,1809c1c <__fpcmp_parts_d+0x34>
 1809bf4:	28800017 	ldw	r2,0(r5)
 1809bf8:	1880082e 	bgeu	r3,r2,1809c1c <__fpcmp_parts_d+0x34>
 1809bfc:	00c00104 	movi	r3,4
 1809c00:	30c02626 	beq	r6,r3,1809c9c <__fpcmp_parts_d+0xb4>
 1809c04:	10c02226 	beq	r2,r3,1809c90 <__fpcmp_parts_d+0xa8>
 1809c08:	00c00084 	movi	r3,2
 1809c0c:	30c00526 	beq	r6,r3,1809c24 <__fpcmp_parts_d+0x3c>
 1809c10:	10c0071e 	bne	r2,r3,1809c30 <__fpcmp_parts_d+0x48>
 1809c14:	20800117 	ldw	r2,4(r4)
 1809c18:	1000091e 	bne	r2,zero,1809c40 <__fpcmp_parts_d+0x58>
 1809c1c:	00800044 	movi	r2,1
 1809c20:	f800283a 	ret
 1809c24:	10c01a1e 	bne	r2,r3,1809c90 <__fpcmp_parts_d+0xa8>
 1809c28:	0005883a 	mov	r2,zero
 1809c2c:	f800283a 	ret
 1809c30:	22000117 	ldw	r8,4(r4)
 1809c34:	28800117 	ldw	r2,4(r5)
 1809c38:	40800326 	beq	r8,r2,1809c48 <__fpcmp_parts_d+0x60>
 1809c3c:	403ff726 	beq	r8,zero,1809c1c <__fpcmp_parts_d+0x34>
 1809c40:	00bfffc4 	movi	r2,-1
 1809c44:	f800283a 	ret
 1809c48:	20c00217 	ldw	r3,8(r4)
 1809c4c:	28800217 	ldw	r2,8(r5)
 1809c50:	10fffa16 	blt	r2,r3,1809c3c <__fpcmp_parts_d+0x54>
 1809c54:	18800916 	blt	r3,r2,1809c7c <__fpcmp_parts_d+0x94>
 1809c58:	21c00417 	ldw	r7,16(r4)
 1809c5c:	28c00417 	ldw	r3,16(r5)
 1809c60:	21800317 	ldw	r6,12(r4)
 1809c64:	28800317 	ldw	r2,12(r5)
 1809c68:	19fff436 	bltu	r3,r7,1809c3c <__fpcmp_parts_d+0x54>
 1809c6c:	38c00526 	beq	r7,r3,1809c84 <__fpcmp_parts_d+0x9c>
 1809c70:	38c00236 	bltu	r7,r3,1809c7c <__fpcmp_parts_d+0x94>
 1809c74:	19ffec1e 	bne	r3,r7,1809c28 <__fpcmp_parts_d+0x40>
 1809c78:	30bfeb2e 	bgeu	r6,r2,1809c28 <__fpcmp_parts_d+0x40>
 1809c7c:	403fe71e 	bne	r8,zero,1809c1c <__fpcmp_parts_d+0x34>
 1809c80:	003fef06 	br	1809c40 <__fpcmp_parts_d+0x58>
 1809c84:	11bffa2e 	bgeu	r2,r6,1809c70 <__fpcmp_parts_d+0x88>
 1809c88:	403fe426 	beq	r8,zero,1809c1c <__fpcmp_parts_d+0x34>
 1809c8c:	003fec06 	br	1809c40 <__fpcmp_parts_d+0x58>
 1809c90:	28800117 	ldw	r2,4(r5)
 1809c94:	103fe11e 	bne	r2,zero,1809c1c <__fpcmp_parts_d+0x34>
 1809c98:	003fe906 	br	1809c40 <__fpcmp_parts_d+0x58>
 1809c9c:	11bfdd1e 	bne	r2,r6,1809c14 <__fpcmp_parts_d+0x2c>
 1809ca0:	28c00117 	ldw	r3,4(r5)
 1809ca4:	20800117 	ldw	r2,4(r4)
 1809ca8:	1885c83a 	sub	r2,r3,r2
 1809cac:	f800283a 	ret

01809cb0 <close>:
 *
 * ALT_CLOSE is mapped onto the close() system call in alt_syscall.h
 */
 
int ALT_CLOSE (int fildes)
{
 1809cb0:	defff804 	addi	sp,sp,-32
 1809cb4:	dfc00715 	stw	ra,28(sp)
 1809cb8:	df000615 	stw	fp,24(sp)
 1809cbc:	df000604 	addi	fp,sp,24
 1809cc0:	e13ffc15 	stw	r4,-16(fp)
   * A common error case is that when the file descriptor was created, the call
   * to open() failed resulting in a negative file descriptor. This is trapped
   * below so that we don't try and process an invalid file descriptor.
   */

  fd = (fildes < 0) ? NULL : &alt_fd_list[fildes];
 1809cc4:	e0bffc17 	ldw	r2,-16(fp)
 1809cc8:	1004803a 	cmplt	r2,r2,zero
 1809ccc:	1000081e 	bne	r2,zero,1809cf0 <close+0x40>
 1809cd0:	e0bffc17 	ldw	r2,-16(fp)
 1809cd4:	10800324 	muli	r2,r2,12
 1809cd8:	1007883a 	mov	r3,r2
 1809cdc:	00806074 	movhi	r2,385
 1809ce0:	1085a404 	addi	r2,r2,5776
 1809ce4:	1887883a 	add	r3,r3,r2
 1809ce8:	e0ffff15 	stw	r3,-4(fp)
 1809cec:	00000106 	br	1809cf4 <close+0x44>
 1809cf0:	e03fff15 	stw	zero,-4(fp)
 1809cf4:	e0bfff17 	ldw	r2,-4(fp)
 1809cf8:	e0bffb15 	stw	r2,-20(fp)

  if (fd)
 1809cfc:	e0bffb17 	ldw	r2,-20(fp)
 1809d00:	1005003a 	cmpeq	r2,r2,zero
 1809d04:	10001d1e 	bne	r2,zero,1809d7c <close+0xcc>
    /*
     * If the associated file system/device has a close function, call it so 
     * that any necessary cleanup code can run.
     */

    rval = (fd->dev->close) ? fd->dev->close(fd) : 0;
 1809d08:	e0bffb17 	ldw	r2,-20(fp)
 1809d0c:	10800017 	ldw	r2,0(r2)
 1809d10:	10800417 	ldw	r2,16(r2)
 1809d14:	1005003a 	cmpeq	r2,r2,zero
 1809d18:	1000071e 	bne	r2,zero,1809d38 <close+0x88>
 1809d1c:	e0bffb17 	ldw	r2,-20(fp)
 1809d20:	10800017 	ldw	r2,0(r2)
 1809d24:	10800417 	ldw	r2,16(r2)
 1809d28:	e13ffb17 	ldw	r4,-20(fp)
 1809d2c:	103ee83a 	callr	r2
 1809d30:	e0bffe15 	stw	r2,-8(fp)
 1809d34:	00000106 	br	1809d3c <close+0x8c>
 1809d38:	e03ffe15 	stw	zero,-8(fp)
 1809d3c:	e0bffe17 	ldw	r2,-8(fp)
 1809d40:	e0bffa15 	stw	r2,-24(fp)

    /* Free the file descriptor structure and return. */

    alt_release_fd (fildes);
 1809d44:	e13ffc17 	ldw	r4,-16(fp)
 1809d48:	180a4080 	call	180a408 <alt_release_fd>
    if (rval < 0)
 1809d4c:	e0bffa17 	ldw	r2,-24(fp)
 1809d50:	1004403a 	cmpge	r2,r2,zero
 1809d54:	1000071e 	bne	r2,zero,1809d74 <close+0xc4>
    {
      ALT_ERRNO = -rval;
 1809d58:	1809dac0 	call	1809dac <alt_get_errno>
 1809d5c:	e0fffa17 	ldw	r3,-24(fp)
 1809d60:	00c7c83a 	sub	r3,zero,r3
 1809d64:	10c00015 	stw	r3,0(r2)
      return -1;
 1809d68:	00bfffc4 	movi	r2,-1
 1809d6c:	e0bffd15 	stw	r2,-12(fp)
 1809d70:	00000806 	br	1809d94 <close+0xe4>
    }
    return 0;
 1809d74:	e03ffd15 	stw	zero,-12(fp)
 1809d78:	00000606 	br	1809d94 <close+0xe4>
  }
  else
  {
    ALT_ERRNO = EBADFD;
 1809d7c:	1809dac0 	call	1809dac <alt_get_errno>
 1809d80:	1007883a 	mov	r3,r2
 1809d84:	00801444 	movi	r2,81
 1809d88:	18800015 	stw	r2,0(r3)
    return -1;
 1809d8c:	00bfffc4 	movi	r2,-1
 1809d90:	e0bffd15 	stw	r2,-12(fp)
 1809d94:	e0bffd17 	ldw	r2,-12(fp)
  }
}
 1809d98:	e037883a 	mov	sp,fp
 1809d9c:	dfc00117 	ldw	ra,4(sp)
 1809da0:	df000017 	ldw	fp,0(sp)
 1809da4:	dec00204 	addi	sp,sp,8
 1809da8:	f800283a 	ret

01809dac <alt_get_errno>:
#undef errno

extern int errno;

static ALT_INLINE int* alt_get_errno(void)
{
 1809dac:	defffd04 	addi	sp,sp,-12
 1809db0:	dfc00215 	stw	ra,8(sp)
 1809db4:	df000115 	stw	fp,4(sp)
 1809db8:	df000104 	addi	fp,sp,4
  return ((alt_errno) ? alt_errno() : &errno);
 1809dbc:	00806074 	movhi	r2,385
 1809dc0:	108ad604 	addi	r2,r2,11096
 1809dc4:	10800017 	ldw	r2,0(r2)
 1809dc8:	1005003a 	cmpeq	r2,r2,zero
 1809dcc:	1000061e 	bne	r2,zero,1809de8 <alt_get_errno+0x3c>
 1809dd0:	00806074 	movhi	r2,385
 1809dd4:	108ad604 	addi	r2,r2,11096
 1809dd8:	10800017 	ldw	r2,0(r2)
 1809ddc:	103ee83a 	callr	r2
 1809de0:	e0bfff15 	stw	r2,-4(fp)
 1809de4:	00000306 	br	1809df4 <alt_get_errno+0x48>
 1809de8:	00806074 	movhi	r2,385
 1809dec:	108ae504 	addi	r2,r2,11156
 1809df0:	e0bfff15 	stw	r2,-4(fp)
 1809df4:	e0bfff17 	ldw	r2,-4(fp)
}
 1809df8:	e037883a 	mov	sp,fp
 1809dfc:	dfc00117 	ldw	ra,4(sp)
 1809e00:	df000017 	ldw	fp,0(sp)
 1809e04:	dec00204 	addi	sp,sp,8
 1809e08:	f800283a 	ret

01809e0c <alt_dev_null_write>:
 * by the alt_dev_null device. It simple discards all data passed to it, and
 * indicates that the data has been successfully transmitted.
 */

static int alt_dev_null_write (alt_fd* fd, const char* ptr, int len)
{
 1809e0c:	defffc04 	addi	sp,sp,-16
 1809e10:	df000315 	stw	fp,12(sp)
 1809e14:	df000304 	addi	fp,sp,12
 1809e18:	e13ffd15 	stw	r4,-12(fp)
 1809e1c:	e17ffe15 	stw	r5,-8(fp)
 1809e20:	e1bfff15 	stw	r6,-4(fp)
  return len;
 1809e24:	e0bfff17 	ldw	r2,-4(fp)
}
 1809e28:	e037883a 	mov	sp,fp
 1809e2c:	df000017 	ldw	fp,0(sp)
 1809e30:	dec00104 	addi	sp,sp,4
 1809e34:	f800283a 	ret

01809e38 <fstat>:
}

#else /* !ALT_USE_DIRECT_DRIVERS */

int ALT_FSTAT (int file, struct stat *st)
{
 1809e38:	defff904 	addi	sp,sp,-28
 1809e3c:	dfc00615 	stw	ra,24(sp)
 1809e40:	df000515 	stw	fp,20(sp)
 1809e44:	df000504 	addi	fp,sp,20
 1809e48:	e13ffc15 	stw	r4,-16(fp)
 1809e4c:	e17ffd15 	stw	r5,-12(fp)
   * A common error case is that when the file descriptor was created, the call
   * to open() failed resulting in a negative file descriptor. This is trapped
   * below so that we don't try and process an invalid file descriptor.
   */

  fd = (file < 0) ? NULL : &alt_fd_list[file];
 1809e50:	e0bffc17 	ldw	r2,-16(fp)
 1809e54:	1004803a 	cmplt	r2,r2,zero
 1809e58:	1000081e 	bne	r2,zero,1809e7c <fstat+0x44>
 1809e5c:	e0bffc17 	ldw	r2,-16(fp)
 1809e60:	10800324 	muli	r2,r2,12
 1809e64:	1007883a 	mov	r3,r2
 1809e68:	00806074 	movhi	r2,385
 1809e6c:	1085a404 	addi	r2,r2,5776
 1809e70:	1887883a 	add	r3,r3,r2
 1809e74:	e0ffff15 	stw	r3,-4(fp)
 1809e78:	00000106 	br	1809e80 <fstat+0x48>
 1809e7c:	e03fff15 	stw	zero,-4(fp)
 1809e80:	e0bfff17 	ldw	r2,-4(fp)
 1809e84:	e0bffb15 	stw	r2,-20(fp)
  
  if (fd)
 1809e88:	e0bffb17 	ldw	r2,-20(fp)
 1809e8c:	1005003a 	cmpeq	r2,r2,zero
 1809e90:	1000121e 	bne	r2,zero,1809edc <fstat+0xa4>
  {
    /* Call the drivers fstat() function to fill out the "st" structure. */

    if (fd->dev->fstat)
 1809e94:	e0bffb17 	ldw	r2,-20(fp)
 1809e98:	10800017 	ldw	r2,0(r2)
 1809e9c:	10800817 	ldw	r2,32(r2)
 1809ea0:	1005003a 	cmpeq	r2,r2,zero
 1809ea4:	1000081e 	bne	r2,zero,1809ec8 <fstat+0x90>
    {
      return fd->dev->fstat(fd, st);
 1809ea8:	e0bffb17 	ldw	r2,-20(fp)
 1809eac:	10800017 	ldw	r2,0(r2)
 1809eb0:	10800817 	ldw	r2,32(r2)
 1809eb4:	e13ffb17 	ldw	r4,-20(fp)
 1809eb8:	e17ffd17 	ldw	r5,-12(fp)
 1809ebc:	103ee83a 	callr	r2
 1809ec0:	e0bffe15 	stw	r2,-8(fp)
 1809ec4:	00000b06 	br	1809ef4 <fstat+0xbc>
     * device.
     */
 
    else
    {
      st->st_mode = _IFCHR;
 1809ec8:	e0fffd17 	ldw	r3,-12(fp)
 1809ecc:	00880004 	movi	r2,8192
 1809ed0:	18800115 	stw	r2,4(r3)
      return 0;
 1809ed4:	e03ffe15 	stw	zero,-8(fp)
 1809ed8:	00000606 	br	1809ef4 <fstat+0xbc>
    }
  }
  else
  {
    ALT_ERRNO = EBADFD;
 1809edc:	1809f0c0 	call	1809f0c <alt_get_errno>
 1809ee0:	1007883a 	mov	r3,r2
 1809ee4:	00801444 	movi	r2,81
 1809ee8:	18800015 	stw	r2,0(r3)
    return -1;
 1809eec:	00bfffc4 	movi	r2,-1
 1809ef0:	e0bffe15 	stw	r2,-8(fp)
 1809ef4:	e0bffe17 	ldw	r2,-8(fp)
  }
}
 1809ef8:	e037883a 	mov	sp,fp
 1809efc:	dfc00117 	ldw	ra,4(sp)
 1809f00:	df000017 	ldw	fp,0(sp)
 1809f04:	dec00204 	addi	sp,sp,8
 1809f08:	f800283a 	ret

01809f0c <alt_get_errno>:
#undef errno

extern int errno;

static ALT_INLINE int* alt_get_errno(void)
{
 1809f0c:	defffd04 	addi	sp,sp,-12
 1809f10:	dfc00215 	stw	ra,8(sp)
 1809f14:	df000115 	stw	fp,4(sp)
 1809f18:	df000104 	addi	fp,sp,4
  return ((alt_errno) ? alt_errno() : &errno);
 1809f1c:	00806074 	movhi	r2,385
 1809f20:	108ad604 	addi	r2,r2,11096
 1809f24:	10800017 	ldw	r2,0(r2)
 1809f28:	1005003a 	cmpeq	r2,r2,zero
 1809f2c:	1000061e 	bne	r2,zero,1809f48 <alt_get_errno+0x3c>
 1809f30:	00806074 	movhi	r2,385
 1809f34:	108ad604 	addi	r2,r2,11096
 1809f38:	10800017 	ldw	r2,0(r2)
 1809f3c:	103ee83a 	callr	r2
 1809f40:	e0bfff15 	stw	r2,-4(fp)
 1809f44:	00000306 	br	1809f54 <alt_get_errno+0x48>
 1809f48:	00806074 	movhi	r2,385
 1809f4c:	108ae504 	addi	r2,r2,11156
 1809f50:	e0bfff15 	stw	r2,-4(fp)
 1809f54:	e0bfff17 	ldw	r2,-4(fp)
}
 1809f58:	e037883a 	mov	sp,fp
 1809f5c:	dfc00117 	ldw	ra,4(sp)
 1809f60:	df000017 	ldw	fp,0(sp)
 1809f64:	dec00204 	addi	sp,sp,8
 1809f68:	f800283a 	ret

01809f6c <isatty>:
 *
 * ALT_ISATTY is mapped onto the isatty() system call in alt_syscall.h
 */
 
int ALT_ISATTY (int file)
{
 1809f6c:	deffeb04 	addi	sp,sp,-84
 1809f70:	dfc01415 	stw	ra,80(sp)
 1809f74:	df001315 	stw	fp,76(sp)
 1809f78:	df001304 	addi	fp,sp,76
 1809f7c:	e13ffd15 	stw	r4,-12(fp)
   * A common error case is that when the file descriptor was created, the call
   * to open() failed resulting in a negative file descriptor. This is trapped
   * below so that we don't try and process an invalid file descriptor.
   */

  fd = (file < 0) ? NULL : &alt_fd_list[file];
 1809f80:	e0bffd17 	ldw	r2,-12(fp)
 1809f84:	1004803a 	cmplt	r2,r2,zero
 1809f88:	1000081e 	bne	r2,zero,1809fac <isatty+0x40>
 1809f8c:	e0bffd17 	ldw	r2,-12(fp)
 1809f90:	10800324 	muli	r2,r2,12
 1809f94:	1007883a 	mov	r3,r2
 1809f98:	00806074 	movhi	r2,385
 1809f9c:	1085a404 	addi	r2,r2,5776
 1809fa0:	1887883a 	add	r3,r3,r2
 1809fa4:	e0ffff15 	stw	r3,-4(fp)
 1809fa8:	00000106 	br	1809fb0 <isatty+0x44>
 1809fac:	e03fff15 	stw	zero,-4(fp)
 1809fb0:	e0bfff17 	ldw	r2,-4(fp)
 1809fb4:	e0bfed15 	stw	r2,-76(fp)
  
  if (fd)
 1809fb8:	e0bfed17 	ldw	r2,-76(fp)
 1809fbc:	1005003a 	cmpeq	r2,r2,zero
 1809fc0:	10000f1e 	bne	r2,zero,180a000 <isatty+0x94>
    /*
     * If a device driver does not provide an fstat() function, then it is 
     * treated as a terminal device by default.
     */

    if (!fd->dev->fstat)
 1809fc4:	e0bfed17 	ldw	r2,-76(fp)
 1809fc8:	10800017 	ldw	r2,0(r2)
 1809fcc:	10800817 	ldw	r2,32(r2)
 1809fd0:	1004c03a 	cmpne	r2,r2,zero
 1809fd4:	1000031e 	bne	r2,zero,1809fe4 <isatty+0x78>
    {
      return 1;
 1809fd8:	00800044 	movi	r2,1
 1809fdc:	e0bffe15 	stw	r2,-8(fp)
 1809fe0:	00000c06 	br	180a014 <isatty+0xa8>
     * this is called so that the device can identify itself.
     */ 

    else
    {
      fstat (file, &stat);
 1809fe4:	e17fee04 	addi	r5,fp,-72
 1809fe8:	e13ffd17 	ldw	r4,-12(fp)
 1809fec:	1809e380 	call	1809e38 <fstat>
      return (stat.st_mode == _IFCHR) ? 1 : 0;
 1809ff0:	e0bfef17 	ldw	r2,-68(fp)
 1809ff4:	10880020 	cmpeqi	r2,r2,8192
 1809ff8:	e0bffe15 	stw	r2,-8(fp)
 1809ffc:	00000506 	br	180a014 <isatty+0xa8>
    }
  }
  else
  {
    ALT_ERRNO = EBADFD;
 180a000:	180a02c0 	call	180a02c <alt_get_errno>
 180a004:	1007883a 	mov	r3,r2
 180a008:	00801444 	movi	r2,81
 180a00c:	18800015 	stw	r2,0(r3)
    return 0;
 180a010:	e03ffe15 	stw	zero,-8(fp)
 180a014:	e0bffe17 	ldw	r2,-8(fp)
  }
}
 180a018:	e037883a 	mov	sp,fp
 180a01c:	dfc00117 	ldw	ra,4(sp)
 180a020:	df000017 	ldw	fp,0(sp)
 180a024:	dec00204 	addi	sp,sp,8
 180a028:	f800283a 	ret

0180a02c <alt_get_errno>:
#undef errno

extern int errno;

static ALT_INLINE int* alt_get_errno(void)
{
 180a02c:	defffd04 	addi	sp,sp,-12
 180a030:	dfc00215 	stw	ra,8(sp)
 180a034:	df000115 	stw	fp,4(sp)
 180a038:	df000104 	addi	fp,sp,4
  return ((alt_errno) ? alt_errno() : &errno);
 180a03c:	00806074 	movhi	r2,385
 180a040:	108ad604 	addi	r2,r2,11096
 180a044:	10800017 	ldw	r2,0(r2)
 180a048:	1005003a 	cmpeq	r2,r2,zero
 180a04c:	1000061e 	bne	r2,zero,180a068 <alt_get_errno+0x3c>
 180a050:	00806074 	movhi	r2,385
 180a054:	108ad604 	addi	r2,r2,11096
 180a058:	10800017 	ldw	r2,0(r2)
 180a05c:	103ee83a 	callr	r2
 180a060:	e0bfff15 	stw	r2,-4(fp)
 180a064:	00000306 	br	180a074 <alt_get_errno+0x48>
 180a068:	00806074 	movhi	r2,385
 180a06c:	108ae504 	addi	r2,r2,11156
 180a070:	e0bfff15 	stw	r2,-4(fp)
 180a074:	e0bfff17 	ldw	r2,-4(fp)
}
 180a078:	e037883a 	mov	sp,fp
 180a07c:	dfc00117 	ldw	ra,4(sp)
 180a080:	df000017 	ldw	fp,0(sp)
 180a084:	dec00204 	addi	sp,sp,8
 180a088:	f800283a 	ret

0180a08c <lseek>:
 * ALT_LSEEK is mapped onto the lseek() system call in alt_syscall.h
 *
 */

off_t ALT_LSEEK (int file, off_t ptr, int dir)
{
 180a08c:	defff804 	addi	sp,sp,-32
 180a090:	dfc00715 	stw	ra,28(sp)
 180a094:	df000615 	stw	fp,24(sp)
 180a098:	df000604 	addi	fp,sp,24
 180a09c:	e13ffc15 	stw	r4,-16(fp)
 180a0a0:	e17ffd15 	stw	r5,-12(fp)
 180a0a4:	e1bffe15 	stw	r6,-8(fp)
  alt_fd* fd;
  off_t   rc = 0; 
 180a0a8:	e03ffa15 	stw	zero,-24(fp)
   * A common error case is that when the file descriptor was created, the call
   * to open() failed resulting in a negative file descriptor. This is trapped
   * below so that we don't try and process an invalid file descriptor.
   */

  fd = (file < 0) ? NULL : &alt_fd_list[file];
 180a0ac:	e0bffc17 	ldw	r2,-16(fp)
 180a0b0:	1004803a 	cmplt	r2,r2,zero
 180a0b4:	1000081e 	bne	r2,zero,180a0d8 <lseek+0x4c>
 180a0b8:	e0bffc17 	ldw	r2,-16(fp)
 180a0bc:	10800324 	muli	r2,r2,12
 180a0c0:	1007883a 	mov	r3,r2
 180a0c4:	00806074 	movhi	r2,385
 180a0c8:	1085a404 	addi	r2,r2,5776
 180a0cc:	1887883a 	add	r3,r3,r2
 180a0d0:	e0ffff15 	stw	r3,-4(fp)
 180a0d4:	00000106 	br	180a0dc <lseek+0x50>
 180a0d8:	e03fff15 	stw	zero,-4(fp)
 180a0dc:	e0bfff17 	ldw	r2,-4(fp)
 180a0e0:	e0bffb15 	stw	r2,-20(fp)
  
  if (fd) 
 180a0e4:	e0bffb17 	ldw	r2,-20(fp)
 180a0e8:	1005003a 	cmpeq	r2,r2,zero
 180a0ec:	1000111e 	bne	r2,zero,180a134 <lseek+0xa8>
    /*
     * If the device driver provides an implementation of the lseek() function,
     * then call that to process the request.
     */
 
    if (fd->dev->lseek)
 180a0f0:	e0bffb17 	ldw	r2,-20(fp)
 180a0f4:	10800017 	ldw	r2,0(r2)
 180a0f8:	10800717 	ldw	r2,28(r2)
 180a0fc:	1005003a 	cmpeq	r2,r2,zero
 180a100:	1000091e 	bne	r2,zero,180a128 <lseek+0x9c>
    {
      rc = fd->dev->lseek(fd, ptr, dir);
 180a104:	e0bffb17 	ldw	r2,-20(fp)
 180a108:	10800017 	ldw	r2,0(r2)
 180a10c:	10800717 	ldw	r2,28(r2)
 180a110:	e13ffb17 	ldw	r4,-20(fp)
 180a114:	e17ffd17 	ldw	r5,-12(fp)
 180a118:	e1bffe17 	ldw	r6,-8(fp)
 180a11c:	103ee83a 	callr	r2
 180a120:	e0bffa15 	stw	r2,-24(fp)
 180a124:	00000506 	br	180a13c <lseek+0xb0>
     * Otherwise return an error.
     */

    else
    {
      rc = -ENOTSUP;
 180a128:	00bfde84 	movi	r2,-134
 180a12c:	e0bffa15 	stw	r2,-24(fp)
 180a130:	00000206 	br	180a13c <lseek+0xb0>
    }
  }
  else  
  {
    rc = -EBADFD;
 180a134:	00bfebc4 	movi	r2,-81
 180a138:	e0bffa15 	stw	r2,-24(fp)
  }

  if (rc < 0)
 180a13c:	e0bffa17 	ldw	r2,-24(fp)
 180a140:	1004403a 	cmpge	r2,r2,zero
 180a144:	1000071e 	bne	r2,zero,180a164 <lseek+0xd8>
  {
    ALT_ERRNO = -rc;
 180a148:	180a17c0 	call	180a17c <alt_get_errno>
 180a14c:	1007883a 	mov	r3,r2
 180a150:	e0bffa17 	ldw	r2,-24(fp)
 180a154:	0085c83a 	sub	r2,zero,r2
 180a158:	18800015 	stw	r2,0(r3)
    rc = -1;
 180a15c:	00bfffc4 	movi	r2,-1
 180a160:	e0bffa15 	stw	r2,-24(fp)
  }

  return rc;
 180a164:	e0bffa17 	ldw	r2,-24(fp)
}
 180a168:	e037883a 	mov	sp,fp
 180a16c:	dfc00117 	ldw	ra,4(sp)
 180a170:	df000017 	ldw	fp,0(sp)
 180a174:	dec00204 	addi	sp,sp,8
 180a178:	f800283a 	ret

0180a17c <alt_get_errno>:
#undef errno

extern int errno;

static ALT_INLINE int* alt_get_errno(void)
{
 180a17c:	defffd04 	addi	sp,sp,-12
 180a180:	dfc00215 	stw	ra,8(sp)
 180a184:	df000115 	stw	fp,4(sp)
 180a188:	df000104 	addi	fp,sp,4
  return ((alt_errno) ? alt_errno() : &errno);
 180a18c:	00806074 	movhi	r2,385
 180a190:	108ad604 	addi	r2,r2,11096
 180a194:	10800017 	ldw	r2,0(r2)
 180a198:	1005003a 	cmpeq	r2,r2,zero
 180a19c:	1000061e 	bne	r2,zero,180a1b8 <alt_get_errno+0x3c>
 180a1a0:	00806074 	movhi	r2,385
 180a1a4:	108ad604 	addi	r2,r2,11096
 180a1a8:	10800017 	ldw	r2,0(r2)
 180a1ac:	103ee83a 	callr	r2
 180a1b0:	e0bfff15 	stw	r2,-4(fp)
 180a1b4:	00000306 	br	180a1c4 <alt_get_errno+0x48>
 180a1b8:	00806074 	movhi	r2,385
 180a1bc:	108ae504 	addi	r2,r2,11156
 180a1c0:	e0bfff15 	stw	r2,-4(fp)
 180a1c4:	e0bfff17 	ldw	r2,-4(fp)
}
 180a1c8:	e037883a 	mov	sp,fp
 180a1cc:	dfc00117 	ldw	ra,4(sp)
 180a1d0:	df000017 	ldw	fp,0(sp)
 180a1d4:	dec00204 	addi	sp,sp,8
 180a1d8:	f800283a 	ret

0180a1dc <alt_main>:
 * devices/filesystems/components in the system; and call the entry point for
 * the users application, i.e. main().
 */

void alt_main (void)
{
 180a1dc:	defffd04 	addi	sp,sp,-12
 180a1e0:	dfc00215 	stw	ra,8(sp)
 180a1e4:	df000115 	stw	fp,4(sp)
 180a1e8:	df000104 	addi	fp,sp,4
#endif

  /* ALT LOG - please see HAL/sys/alt_log_printf.h for details */
  ALT_LOG_PRINT_BOOT("[alt_main.c] Entering alt_main, calling alt_irq_init.\r\n");
  /* Initialize the interrupt controller. */
  alt_irq_init (NULL);
 180a1ec:	0009883a 	mov	r4,zero
 180a1f0:	180a6d40 	call	180a6d4 <alt_irq_init>
  ALT_LOG_PRINT_BOOT("[alt_main.c] Done OS Init, calling alt_sem_create.\r\n");
  ALT_SEM_CREATE (&alt_fd_list_lock, 1);

  /* Initialize the device drivers/software components. */
  ALT_LOG_PRINT_BOOT("[alt_main.c] Calling alt_sys_init.\r\n");
  alt_sys_init();
 180a1f4:	180a7080 	call	180a708 <alt_sys_init>
   * devices be present (not equal to /dev/null) and if direct drivers
   * aren't being used.
   */

    ALT_LOG_PRINT_BOOT("[alt_main.c] Redirecting IO.\r\n");
    alt_io_redirect(ALT_STDOUT, ALT_STDIN, ALT_STDERR);
 180a1f8:	01006074 	movhi	r4,385
 180a1fc:	2102e204 	addi	r4,r4,2952
 180a200:	01406074 	movhi	r5,385
 180a204:	2942e204 	addi	r5,r5,2952
 180a208:	01806074 	movhi	r6,385
 180a20c:	3182e204 	addi	r6,r6,2952
 180a210:	180f2c40 	call	180f2c4 <alt_io_redirect>
  /* 
   * Call the C++ constructors 
   */

  ALT_LOG_PRINT_BOOT("[alt_main.c] Calling C++ constructors.\r\n");
  _do_ctors ();
 180a214:	180ed9c0 	call	180ed9c <_do_ctors>
   * redefined as _exit()). This is in the interest of reducing code footprint,
   * in that the atexit() overhead is removed when it's not needed.
   */

  ALT_LOG_PRINT_BOOT("[alt_main.c] Calling atexit.\r\n");
  atexit (_do_dtors);
 180a218:	01006074 	movhi	r4,385
 180a21c:	213b8004 	addi	r4,r4,-4608
 180a220:	18103cc0 	call	18103cc <atexit>
  ALT_LOG_PRINT_BOOT("[alt_main.c] Calling main.\r\n");

#ifdef ALT_NO_EXIT
  main (alt_argc, alt_argv, alt_envp);
#else
  result = main (alt_argc, alt_argv, alt_envp);
 180a224:	d1201b17 	ldw	r4,-32660(gp)
 180a228:	d1601c17 	ldw	r5,-32656(gp)
 180a22c:	d1a01d17 	ldw	r6,-32652(gp)
 180a230:	18000480 	call	1800048 <main>
 180a234:	e0bfff15 	stw	r2,-4(fp)
  close(STDOUT_FILENO);
 180a238:	01000044 	movi	r4,1
 180a23c:	1809cb00 	call	1809cb0 <close>
  exit (result);
 180a240:	e13fff17 	ldw	r4,-4(fp)
 180a244:	18103e00 	call	18103e0 <exit>

0180a248 <__malloc_lock>:
 * configuration is single threaded, so there is nothing to do here. Note that 
 * this requires that malloc is never called by an interrupt service routine.
 */

void __malloc_lock ( struct _reent *_r )
{
 180a248:	defffe04 	addi	sp,sp,-8
 180a24c:	df000115 	stw	fp,4(sp)
 180a250:	df000104 	addi	fp,sp,4
 180a254:	e13fff15 	stw	r4,-4(fp)
}
 180a258:	e037883a 	mov	sp,fp
 180a25c:	df000017 	ldw	fp,0(sp)
 180a260:	dec00104 	addi	sp,sp,4
 180a264:	f800283a 	ret

0180a268 <__malloc_unlock>:
/*
 *
 */

void __malloc_unlock ( struct _reent *_r )
{
 180a268:	defffe04 	addi	sp,sp,-8
 180a26c:	df000115 	stw	fp,4(sp)
 180a270:	df000104 	addi	fp,sp,4
 180a274:	e13fff15 	stw	r4,-4(fp)
}
 180a278:	e037883a 	mov	sp,fp
 180a27c:	df000017 	ldw	fp,0(sp)
 180a280:	dec00104 	addi	sp,sp,4
 180a284:	f800283a 	ret

0180a288 <read>:
}

#else /* !ALT_USE_DIRECT_DRIVERS */

int ALT_READ (int file, void *ptr, size_t len)
{
 180a288:	defff704 	addi	sp,sp,-36
 180a28c:	dfc00815 	stw	ra,32(sp)
 180a290:	df000715 	stw	fp,28(sp)
 180a294:	df000704 	addi	fp,sp,28
 180a298:	e13ffb15 	stw	r4,-20(fp)
 180a29c:	e17ffc15 	stw	r5,-16(fp)
 180a2a0:	e1bffd15 	stw	r6,-12(fp)
   * A common error case is that when the file descriptor was created, the call
   * to open() failed resulting in a negative file descriptor. This is trapped
   * below so that we don't try and process an invalid file descriptor.
   */

  fd = (file < 0) ? NULL : &alt_fd_list[file];
 180a2a4:	e0bffb17 	ldw	r2,-20(fp)
 180a2a8:	1004803a 	cmplt	r2,r2,zero
 180a2ac:	1000081e 	bne	r2,zero,180a2d0 <read+0x48>
 180a2b0:	e0bffb17 	ldw	r2,-20(fp)
 180a2b4:	10800324 	muli	r2,r2,12
 180a2b8:	1007883a 	mov	r3,r2
 180a2bc:	00806074 	movhi	r2,385
 180a2c0:	1085a404 	addi	r2,r2,5776
 180a2c4:	1887883a 	add	r3,r3,r2
 180a2c8:	e0ffff15 	stw	r3,-4(fp)
 180a2cc:	00000106 	br	180a2d4 <read+0x4c>
 180a2d0:	e03fff15 	stw	zero,-4(fp)
 180a2d4:	e0bfff17 	ldw	r2,-4(fp)
 180a2d8:	e0bffa15 	stw	r2,-24(fp)
  
  if (fd)
 180a2dc:	e0bffa17 	ldw	r2,-24(fp)
 180a2e0:	1005003a 	cmpeq	r2,r2,zero
 180a2e4:	1000241e 	bne	r2,zero,180a378 <read+0xf0>
     * If the file has not been opened with read access, or if the driver does
     * not provide an implementation of read(), generate an error. Otherwise
     * call the drivers read() function to process the request.
     */

    if (((fd->fd_flags & O_ACCMODE) != O_WRONLY) && 
 180a2e8:	e0bffa17 	ldw	r2,-24(fp)
 180a2ec:	10800217 	ldw	r2,8(r2)
 180a2f0:	108000cc 	andi	r2,r2,3
 180a2f4:	10800060 	cmpeqi	r2,r2,1
 180a2f8:	10001a1e 	bne	r2,zero,180a364 <read+0xdc>
 180a2fc:	e0bffa17 	ldw	r2,-24(fp)
 180a300:	10800017 	ldw	r2,0(r2)
 180a304:	10800517 	ldw	r2,20(r2)
 180a308:	1005003a 	cmpeq	r2,r2,zero
 180a30c:	1000151e 	bne	r2,zero,180a364 <read+0xdc>
        (fd->dev->read))
      {
        if ((rval = fd->dev->read(fd, ptr, len)) < 0)
 180a310:	e0bffa17 	ldw	r2,-24(fp)
 180a314:	10800017 	ldw	r2,0(r2)
 180a318:	10800517 	ldw	r2,20(r2)
 180a31c:	e17ffc17 	ldw	r5,-16(fp)
 180a320:	e1bffd17 	ldw	r6,-12(fp)
 180a324:	e13ffa17 	ldw	r4,-24(fp)
 180a328:	103ee83a 	callr	r2
 180a32c:	e0bff915 	stw	r2,-28(fp)
 180a330:	e0bff917 	ldw	r2,-28(fp)
 180a334:	1004403a 	cmpge	r2,r2,zero
 180a338:	1000071e 	bne	r2,zero,180a358 <read+0xd0>
        {
          ALT_ERRNO = -rval;
 180a33c:	180a3a80 	call	180a3a8 <alt_get_errno>
 180a340:	e0fff917 	ldw	r3,-28(fp)
 180a344:	00c7c83a 	sub	r3,zero,r3
 180a348:	10c00015 	stw	r3,0(r2)
          return -1;
 180a34c:	00bfffc4 	movi	r2,-1
 180a350:	e0bffe15 	stw	r2,-8(fp)
 180a354:	00000e06 	br	180a390 <read+0x108>
        }
        return rval;
 180a358:	e0bff917 	ldw	r2,-28(fp)
 180a35c:	e0bffe15 	stw	r2,-8(fp)
 180a360:	00000b06 	br	180a390 <read+0x108>
      }
      else
      {
        ALT_ERRNO = EACCES;
 180a364:	180a3a80 	call	180a3a8 <alt_get_errno>
 180a368:	1007883a 	mov	r3,r2
 180a36c:	00800344 	movi	r2,13
 180a370:	18800015 	stw	r2,0(r3)
 180a374:	00000406 	br	180a388 <read+0x100>
      }
    }
  else
  {
    ALT_ERRNO = EBADFD;
 180a378:	180a3a80 	call	180a3a8 <alt_get_errno>
 180a37c:	1007883a 	mov	r3,r2
 180a380:	00801444 	movi	r2,81
 180a384:	18800015 	stw	r2,0(r3)
  }
  return -1;
 180a388:	00bfffc4 	movi	r2,-1
 180a38c:	e0bffe15 	stw	r2,-8(fp)
 180a390:	e0bffe17 	ldw	r2,-8(fp)
}
 180a394:	e037883a 	mov	sp,fp
 180a398:	dfc00117 	ldw	ra,4(sp)
 180a39c:	df000017 	ldw	fp,0(sp)
 180a3a0:	dec00204 	addi	sp,sp,8
 180a3a4:	f800283a 	ret

0180a3a8 <alt_get_errno>:
#undef errno

extern int errno;

static ALT_INLINE int* alt_get_errno(void)
{
 180a3a8:	defffd04 	addi	sp,sp,-12
 180a3ac:	dfc00215 	stw	ra,8(sp)
 180a3b0:	df000115 	stw	fp,4(sp)
 180a3b4:	df000104 	addi	fp,sp,4
  return ((alt_errno) ? alt_errno() : &errno);
 180a3b8:	00806074 	movhi	r2,385
 180a3bc:	108ad604 	addi	r2,r2,11096
 180a3c0:	10800017 	ldw	r2,0(r2)
 180a3c4:	1005003a 	cmpeq	r2,r2,zero
 180a3c8:	1000061e 	bne	r2,zero,180a3e4 <alt_get_errno+0x3c>
 180a3cc:	00806074 	movhi	r2,385
 180a3d0:	108ad604 	addi	r2,r2,11096
 180a3d4:	10800017 	ldw	r2,0(r2)
 180a3d8:	103ee83a 	callr	r2
 180a3dc:	e0bfff15 	stw	r2,-4(fp)
 180a3e0:	00000306 	br	180a3f0 <alt_get_errno+0x48>
 180a3e4:	00806074 	movhi	r2,385
 180a3e8:	108ae504 	addi	r2,r2,11156
 180a3ec:	e0bfff15 	stw	r2,-4(fp)
 180a3f0:	e0bfff17 	ldw	r2,-4(fp)
}
 180a3f4:	e037883a 	mov	sp,fp
 180a3f8:	dfc00117 	ldw	ra,4(sp)
 180a3fc:	df000017 	ldw	fp,0(sp)
 180a400:	dec00204 	addi	sp,sp,8
 180a404:	f800283a 	ret

0180a408 <alt_release_fd>:
 * File descriptors correcponding to standard in, standard out and standard 
 * error cannont be released backed to the pool. They are always reserved.
 */

void alt_release_fd (int fd)
{
 180a408:	defffe04 	addi	sp,sp,-8
 180a40c:	df000115 	stw	fp,4(sp)
 180a410:	df000104 	addi	fp,sp,4
 180a414:	e13fff15 	stw	r4,-4(fp)
  if (fd > 2)
 180a418:	e0bfff17 	ldw	r2,-4(fp)
 180a41c:	108000d0 	cmplti	r2,r2,3
 180a420:	10000d1e 	bne	r2,zero,180a458 <alt_release_fd+0x50>
  {
    alt_fd_list[fd].fd_flags = 0;
 180a424:	e0bfff17 	ldw	r2,-4(fp)
 180a428:	00c06074 	movhi	r3,385
 180a42c:	18c5a404 	addi	r3,r3,5776
 180a430:	10800324 	muli	r2,r2,12
 180a434:	10c5883a 	add	r2,r2,r3
 180a438:	10800204 	addi	r2,r2,8
 180a43c:	10000015 	stw	zero,0(r2)
    alt_fd_list[fd].dev      = 0;
 180a440:	e0bfff17 	ldw	r2,-4(fp)
 180a444:	00c06074 	movhi	r3,385
 180a448:	18c5a404 	addi	r3,r3,5776
 180a44c:	10800324 	muli	r2,r2,12
 180a450:	10c5883a 	add	r2,r2,r3
 180a454:	10000015 	stw	zero,0(r2)
  }
}
 180a458:	e037883a 	mov	sp,fp
 180a45c:	df000017 	ldw	fp,0(sp)
 180a460:	dec00104 	addi	sp,sp,4
 180a464:	f800283a 	ret

0180a468 <sbrk>:
#endif
 
caddr_t ALT_SBRK (int incr) __attribute__ ((no_instrument_function ));

caddr_t ALT_SBRK (int incr)
{ 
 180a468:	defff804 	addi	sp,sp,-32
 180a46c:	df000715 	stw	fp,28(sp)
 180a470:	df000704 	addi	fp,sp,28
 180a474:	e13ffe15 	stw	r4,-8(fp)
static ALT_INLINE alt_irq_context ALT_ALWAYS_INLINE 
       alt_irq_disable_all (void)
{
  alt_irq_context context;

  NIOS2_READ_STATUS (context);
 180a478:	0005303a 	rdctl	r2,status
 180a47c:	e0bffb15 	stw	r2,-20(fp)

  NIOS2_WRITE_STATUS (context & ~NIOS2_STATUS_PIE_MSK);
 180a480:	e0fffb17 	ldw	r3,-20(fp)
 180a484:	00bfff84 	movi	r2,-2
 180a488:	1884703a 	and	r2,r3,r2
 180a48c:	1001703a 	wrctl	status,r2
  
  return context;
 180a490:	e0bffb17 	ldw	r2,-20(fp)
  alt_irq_context context;
  char *prev_heap_end; 

  context = alt_irq_disable_all();
 180a494:	e0bffd15 	stw	r2,-12(fp)

  /* Always return data aligned on a word boundary */
  heap_end = (char *)(((unsigned int)heap_end + 3) & ~3);
 180a498:	d0a00c17 	ldw	r2,-32720(gp)
 180a49c:	10c000c4 	addi	r3,r2,3
 180a4a0:	00bfff04 	movi	r2,-4
 180a4a4:	1884703a 	and	r2,r3,r2
 180a4a8:	d0a00c15 	stw	r2,-32720(gp)
  if (((heap_end + incr) - __alt_heap_start) > ALT_MAX_HEAP_BYTES) {
    alt_irq_enable_all(context);
    return (caddr_t)-1;
  }
#else
  if ((heap_end + incr) > __alt_heap_limit) {
 180a4ac:	d0e00c17 	ldw	r3,-32720(gp)
 180a4b0:	e0bffe17 	ldw	r2,-8(fp)
 180a4b4:	1887883a 	add	r3,r3,r2
 180a4b8:	00808034 	movhi	r2,512
 180a4bc:	10800004 	addi	r2,r2,0
 180a4c0:	10c0072e 	bgeu	r2,r3,180a4e0 <sbrk+0x78>
 180a4c4:	e0bffd17 	ldw	r2,-12(fp)
 180a4c8:	e0bffa15 	stw	r2,-24(fp)
  status &= ~NIOS2_STATUS_PIE_MSK;
  status |= (context & NIOS2_STATUS_PIE_MSK);
  
  NIOS2_WRITE_STATUS (status);
#else
  NIOS2_WRITE_STATUS (context);
 180a4cc:	e0bffa17 	ldw	r2,-24(fp)
 180a4d0:	1001703a 	wrctl	status,r2
    alt_irq_enable_all(context);
    return (caddr_t)-1;
 180a4d4:	00bfffc4 	movi	r2,-1
 180a4d8:	e0bfff15 	stw	r2,-4(fp)
 180a4dc:	00000c06 	br	180a510 <sbrk+0xa8>
  }
#endif

  prev_heap_end = heap_end; 
 180a4e0:	d0a00c17 	ldw	r2,-32720(gp)
 180a4e4:	e0bffc15 	stw	r2,-16(fp)
  heap_end += incr; 
 180a4e8:	d0e00c17 	ldw	r3,-32720(gp)
 180a4ec:	e0bffe17 	ldw	r2,-8(fp)
 180a4f0:	1885883a 	add	r2,r3,r2
 180a4f4:	d0a00c15 	stw	r2,-32720(gp)
 180a4f8:	e0bffd17 	ldw	r2,-12(fp)
 180a4fc:	e0bff915 	stw	r2,-28(fp)
 180a500:	e0bff917 	ldw	r2,-28(fp)
 180a504:	1001703a 	wrctl	status,r2

#endif

  alt_irq_enable_all(context);

  return (caddr_t) prev_heap_end; 
 180a508:	e0bffc17 	ldw	r2,-16(fp)
 180a50c:	e0bfff15 	stw	r2,-4(fp)
 180a510:	e0bfff17 	ldw	r2,-4(fp)
} 
 180a514:	e037883a 	mov	sp,fp
 180a518:	df000017 	ldw	fp,0(sp)
 180a51c:	dec00104 	addi	sp,sp,4
 180a520:	f800283a 	ret

0180a524 <usleep>:
#if defined (__GNUC__) && __GNUC__ >= 4
int ALT_USLEEP (useconds_t us)
#else
unsigned int ALT_USLEEP (unsigned int us)
#endif
{
 180a524:	defffd04 	addi	sp,sp,-12
 180a528:	dfc00215 	stw	ra,8(sp)
 180a52c:	df000115 	stw	fp,4(sp)
 180a530:	df000104 	addi	fp,sp,4
 180a534:	e13fff15 	stw	r4,-4(fp)
  return alt_busy_sleep(us);
 180a538:	e13fff17 	ldw	r4,-4(fp)
 180a53c:	180eae40 	call	180eae4 <alt_busy_sleep>
}
 180a540:	e037883a 	mov	sp,fp
 180a544:	dfc00117 	ldw	ra,4(sp)
 180a548:	df000017 	ldw	fp,0(sp)
 180a54c:	dec00204 	addi	sp,sp,8
 180a550:	f800283a 	ret

0180a554 <write>:
}

#else /* !ALT_USE_DIRECT_DRIVERS */

int ALT_WRITE (int file, const void *ptr, size_t len)
{
 180a554:	defff704 	addi	sp,sp,-36
 180a558:	dfc00815 	stw	ra,32(sp)
 180a55c:	df000715 	stw	fp,28(sp)
 180a560:	df000704 	addi	fp,sp,28
 180a564:	e13ffb15 	stw	r4,-20(fp)
 180a568:	e17ffc15 	stw	r5,-16(fp)
 180a56c:	e1bffd15 	stw	r6,-12(fp)
   * A common error case is that when the file descriptor was created, the call
   * to open() failed resulting in a negative file descriptor. This is trapped
   * below so that we don't try and process an invalid file descriptor.
   */

  fd = (file < 0) ? NULL : &alt_fd_list[file];
 180a570:	e0bffb17 	ldw	r2,-20(fp)
 180a574:	1004803a 	cmplt	r2,r2,zero
 180a578:	1000081e 	bne	r2,zero,180a59c <write+0x48>
 180a57c:	e0bffb17 	ldw	r2,-20(fp)
 180a580:	10800324 	muli	r2,r2,12
 180a584:	1007883a 	mov	r3,r2
 180a588:	00806074 	movhi	r2,385
 180a58c:	1085a404 	addi	r2,r2,5776
 180a590:	1887883a 	add	r3,r3,r2
 180a594:	e0ffff15 	stw	r3,-4(fp)
 180a598:	00000106 	br	180a5a0 <write+0x4c>
 180a59c:	e03fff15 	stw	zero,-4(fp)
 180a5a0:	e0bfff17 	ldw	r2,-4(fp)
 180a5a4:	e0bffa15 	stw	r2,-24(fp)
  
  if (fd)
 180a5a8:	e0bffa17 	ldw	r2,-24(fp)
 180a5ac:	1005003a 	cmpeq	r2,r2,zero
 180a5b0:	1000241e 	bne	r2,zero,180a644 <write+0xf0>
     * If the file has not been opened with write access, or if the driver does
     * not provide an implementation of write(), generate an error. Otherwise
     * call the drivers write() function to process the request.
     */

    if (((fd->fd_flags & O_ACCMODE) != O_RDONLY) && fd->dev->write)
 180a5b4:	e0bffa17 	ldw	r2,-24(fp)
 180a5b8:	10800217 	ldw	r2,8(r2)
 180a5bc:	108000cc 	andi	r2,r2,3
 180a5c0:	1005003a 	cmpeq	r2,r2,zero
 180a5c4:	10001a1e 	bne	r2,zero,180a630 <write+0xdc>
 180a5c8:	e0bffa17 	ldw	r2,-24(fp)
 180a5cc:	10800017 	ldw	r2,0(r2)
 180a5d0:	10800617 	ldw	r2,24(r2)
 180a5d4:	1005003a 	cmpeq	r2,r2,zero
 180a5d8:	1000151e 	bne	r2,zero,180a630 <write+0xdc>
    {
      
      /* ALT_LOG - see altera_hal/HAL/inc/sys/alt_log_printf.h */
      ALT_LOG_WRITE_FUNCTION(ptr,len);

      if ((rval = fd->dev->write(fd, ptr, len)) < 0)
 180a5dc:	e0bffa17 	ldw	r2,-24(fp)
 180a5e0:	10800017 	ldw	r2,0(r2)
 180a5e4:	10800617 	ldw	r2,24(r2)
 180a5e8:	e17ffc17 	ldw	r5,-16(fp)
 180a5ec:	e1bffd17 	ldw	r6,-12(fp)
 180a5f0:	e13ffa17 	ldw	r4,-24(fp)
 180a5f4:	103ee83a 	callr	r2
 180a5f8:	e0bff915 	stw	r2,-28(fp)
 180a5fc:	e0bff917 	ldw	r2,-28(fp)
 180a600:	1004403a 	cmpge	r2,r2,zero
 180a604:	1000071e 	bne	r2,zero,180a624 <write+0xd0>
      {
        ALT_ERRNO = -rval;
 180a608:	180a6740 	call	180a674 <alt_get_errno>
 180a60c:	e0fff917 	ldw	r3,-28(fp)
 180a610:	00c7c83a 	sub	r3,zero,r3
 180a614:	10c00015 	stw	r3,0(r2)
        return -1;
 180a618:	00bfffc4 	movi	r2,-1
 180a61c:	e0bffe15 	stw	r2,-8(fp)
 180a620:	00000e06 	br	180a65c <write+0x108>
      }
      return rval;
 180a624:	e0bff917 	ldw	r2,-28(fp)
 180a628:	e0bffe15 	stw	r2,-8(fp)
 180a62c:	00000b06 	br	180a65c <write+0x108>
    }
    else
    {
      ALT_ERRNO = EACCES;
 180a630:	180a6740 	call	180a674 <alt_get_errno>
 180a634:	1007883a 	mov	r3,r2
 180a638:	00800344 	movi	r2,13
 180a63c:	18800015 	stw	r2,0(r3)
 180a640:	00000406 	br	180a654 <write+0x100>
    }
  }
  else  
  {
    ALT_ERRNO = EBADFD;
 180a644:	180a6740 	call	180a674 <alt_get_errno>
 180a648:	1007883a 	mov	r3,r2
 180a64c:	00801444 	movi	r2,81
 180a650:	18800015 	stw	r2,0(r3)
  }
  return -1;
 180a654:	00bfffc4 	movi	r2,-1
 180a658:	e0bffe15 	stw	r2,-8(fp)
 180a65c:	e0bffe17 	ldw	r2,-8(fp)
}
 180a660:	e037883a 	mov	sp,fp
 180a664:	dfc00117 	ldw	ra,4(sp)
 180a668:	df000017 	ldw	fp,0(sp)
 180a66c:	dec00204 	addi	sp,sp,8
 180a670:	f800283a 	ret

0180a674 <alt_get_errno>:
#undef errno

extern int errno;

static ALT_INLINE int* alt_get_errno(void)
{
 180a674:	defffd04 	addi	sp,sp,-12
 180a678:	dfc00215 	stw	ra,8(sp)
 180a67c:	df000115 	stw	fp,4(sp)
 180a680:	df000104 	addi	fp,sp,4
  return ((alt_errno) ? alt_errno() : &errno);
 180a684:	00806074 	movhi	r2,385
 180a688:	108ad604 	addi	r2,r2,11096
 180a68c:	10800017 	ldw	r2,0(r2)
 180a690:	1005003a 	cmpeq	r2,r2,zero
 180a694:	1000061e 	bne	r2,zero,180a6b0 <alt_get_errno+0x3c>
 180a698:	00806074 	movhi	r2,385
 180a69c:	108ad604 	addi	r2,r2,11096
 180a6a0:	10800017 	ldw	r2,0(r2)
 180a6a4:	103ee83a 	callr	r2
 180a6a8:	e0bfff15 	stw	r2,-4(fp)
 180a6ac:	00000306 	br	180a6bc <alt_get_errno+0x48>
 180a6b0:	00806074 	movhi	r2,385
 180a6b4:	108ae504 	addi	r2,r2,11156
 180a6b8:	e0bfff15 	stw	r2,-4(fp)
 180a6bc:	e0bfff17 	ldw	r2,-4(fp)
}
 180a6c0:	e037883a 	mov	sp,fp
 180a6c4:	dfc00117 	ldw	ra,4(sp)
 180a6c8:	df000017 	ldw	fp,0(sp)
 180a6cc:	dec00204 	addi	sp,sp,8
 180a6d0:	f800283a 	ret

0180a6d4 <alt_irq_init>:
 * The "base" parameter is ignored and only
 * present for backwards-compatibility.
 */

void alt_irq_init ( const void* base )
{
 180a6d4:	defffd04 	addi	sp,sp,-12
 180a6d8:	dfc00215 	stw	ra,8(sp)
 180a6dc:	df000115 	stw	fp,4(sp)
 180a6e0:	df000104 	addi	fp,sp,4
 180a6e4:	e13fff15 	stw	r4,-4(fp)
    ALTERA_NIOS2_IRQ_INIT ( CPU, cpu);
 180a6e8:	180f7a40 	call	180f7a4 <altera_nios2_irq_init>
 * alt_irq_cpu_enable_interrupts() enables the CPU to start taking interrupts.
 */
static ALT_INLINE void ALT_ALWAYS_INLINE 
       alt_irq_cpu_enable_interrupts ()
{
    NIOS2_WRITE_STATUS(NIOS2_STATUS_PIE_MSK
 180a6ec:	00800044 	movi	r2,1
 180a6f0:	1001703a 	wrctl	status,r2
    alt_irq_cpu_enable_interrupts();
}
 180a6f4:	e037883a 	mov	sp,fp
 180a6f8:	dfc00117 	ldw	ra,4(sp)
 180a6fc:	df000017 	ldw	fp,0(sp)
 180a700:	dec00204 	addi	sp,sp,8
 180a704:	f800283a 	ret

0180a708 <alt_sys_init>:
 * Initialize the non-interrupt controller devices.
 * Called after alt_irq_init().
 */

void alt_sys_init( void )
{
 180a708:	defffe04 	addi	sp,sp,-8
 180a70c:	dfc00115 	stw	ra,4(sp)
 180a710:	df000015 	stw	fp,0(sp)
 180a714:	d839883a 	mov	fp,sp
    ALTERA_AVALON_TIMER_INIT ( PROFILE_TIMER, profile_timer);
 180a718:	0009883a 	mov	r4,zero
 180a71c:	000b883a 	mov	r5,zero
 180a720:	01800144 	movi	r6,5
 180a724:	01d38804 	movi	r7,20000
 180a728:	180df500 	call	180df50 <alt_avalon_timer_sc_init>
    ALTERA_AVALON_TIMER_INIT ( TIMER, timer);
    ALTERA_AVALON_TIMER_INIT ( USER_TIMER, user_timer);
    ALTERA_AVALON_CFI_FLASH_INIT ( CFI_FLASH, cfi_flash);
 180a72c:	01006074 	movhi	r4,385
 180a730:	21060404 	addi	r4,r4,6160
 180a734:	180a7dc0 	call	180a7dc <alt_flash_cfi_init>
    ALTERA_AVALON_JTAG_UART_INIT ( JTAG_UART, jtag_uart);
 180a738:	01006074 	movhi	r4,385
 180a73c:	21064404 	addi	r4,r4,6416
 180a740:	000b883a 	mov	r5,zero
 180a744:	000d883a 	mov	r6,zero
 180a748:	180c6440 	call	180c644 <altera_avalon_jtag_uart_init>
 180a74c:	01006074 	movhi	r4,385
 180a750:	21063a04 	addi	r4,r4,6376
 180a754:	180a7a40 	call	180a7a4 <alt_dev_reg>
    ALTERA_AVALON_LCD_16207_INIT ( LCD, lcd);
 180a758:	01006074 	movhi	r4,385
 180a75c:	210a5c04 	addi	r4,r4,10608
 180a760:	180dd4c0 	call	180dd4c <altera_avalon_lcd_16207_init>
 180a764:	01006074 	movhi	r4,385
 180a768:	210a5204 	addi	r4,r4,10568
 180a76c:	180a7a40 	call	180a7a4 <alt_dev_reg>
    ALTERA_AVALON_SYSID_INIT ( SYSID, sysid);
    ALTERA_AVALON_UART_INIT ( UART, uart);
 180a770:	01006074 	movhi	r4,385
 180a774:	210aa404 	addi	r4,r4,10896
 180a778:	000b883a 	mov	r5,zero
 180a77c:	01800044 	movi	r6,1
 180a780:	180e0d80 	call	180e0d8 <altera_avalon_uart_init>
 180a784:	01006074 	movhi	r4,385
 180a788:	210a9a04 	addi	r4,r4,10856
 180a78c:	180a7a40 	call	180a7a4 <alt_dev_reg>
}
 180a790:	e037883a 	mov	sp,fp
 180a794:	dfc00117 	ldw	ra,4(sp)
 180a798:	df000017 	ldw	fp,0(sp)
 180a79c:	dec00204 	addi	sp,sp,8
 180a7a0:	f800283a 	ret

0180a7a4 <alt_dev_reg>:
 */

extern int alt_fs_reg  (alt_dev* dev); 

static ALT_INLINE int alt_dev_reg (alt_dev* dev)
{
 180a7a4:	defffd04 	addi	sp,sp,-12
 180a7a8:	dfc00215 	stw	ra,8(sp)
 180a7ac:	df000115 	stw	fp,4(sp)
 180a7b0:	df000104 	addi	fp,sp,4
 180a7b4:	e13fff15 	stw	r4,-4(fp)
  extern alt_llist alt_dev_list;

  return alt_dev_llist_insert ((alt_dev_llist*) dev, &alt_dev_list);
 180a7b8:	e13fff17 	ldw	r4,-4(fp)
 180a7bc:	01406074 	movhi	r5,385
 180a7c0:	294ad304 	addi	r5,r5,11084
 180a7c4:	180ec880 	call	180ec88 <alt_dev_llist_insert>
}
 180a7c8:	e037883a 	mov	sp,fp
 180a7cc:	dfc00117 	ldw	ra,4(sp)
 180a7d0:	df000017 	ldw	fp,0(sp)
 180a7d4:	dec00204 	addi	sp,sp,8
 180a7d8:	f800283a 	ret

0180a7dc <alt_flash_cfi_init>:
 * Read the CFI table and fill out the alt_flash_cfi_dev structure with all the 
 * information we need to program the flash.
 * 
 */
int alt_flash_cfi_init( alt_flash_cfi_dev* flash  )
{
 180a7dc:	defffc04 	addi	sp,sp,-16
 180a7e0:	dfc00315 	stw	ra,12(sp)
 180a7e4:	df000215 	stw	fp,8(sp)
 180a7e8:	df000204 	addi	fp,sp,8
 180a7ec:	e13fff15 	stw	r4,-4(fp)
  int ret_code = 0;
 180a7f0:	e03ffe15 	stw	zero,-8(fp)
 
  ret_code = alt_read_cfi_width( flash );
 180a7f4:	e13fff17 	ldw	r4,-4(fp)
 180a7f8:	180bc740 	call	180bc74 <alt_read_cfi_width>
 180a7fc:	e0bffe15 	stw	r2,-8(fp)
  
  if (!ret_code)
 180a800:	e0bffe17 	ldw	r2,-8(fp)
 180a804:	1004c03a 	cmpne	r2,r2,zero
 180a808:	1000031e 	bne	r2,zero,180a818 <alt_flash_cfi_init+0x3c>
    ret_code = alt_set_flash_width_func( flash );
 180a80c:	e13fff17 	ldw	r4,-4(fp)
 180a810:	180b3ec0 	call	180b3ec <alt_set_flash_width_func>
 180a814:	e0bffe15 	stw	r2,-8(fp)
  
  if (!ret_code)
 180a818:	e0bffe17 	ldw	r2,-8(fp)
 180a81c:	1004c03a 	cmpne	r2,r2,zero
 180a820:	1000031e 	bne	r2,zero,180a830 <alt_flash_cfi_init+0x54>
    ret_code = alt_read_cfi_table( flash );
 180a824:	e13fff17 	ldw	r4,-4(fp)
 180a828:	180b6f40 	call	180b6f4 <alt_read_cfi_table>
 180a82c:	e0bffe15 	stw	r2,-8(fp)

  if (!ret_code) 
 180a830:	e0bffe17 	ldw	r2,-8(fp)
 180a834:	1004c03a 	cmpne	r2,r2,zero
 180a838:	1000031e 	bne	r2,zero,180a848 <alt_flash_cfi_init+0x6c>
    ret_code = alt_set_flash_algorithm_func( flash);
 180a83c:	e13fff17 	ldw	r4,-4(fp)
 180a840:	180b5cc0 	call	180b5cc <alt_set_flash_algorithm_func>
 180a844:	e0bffe15 	stw	r2,-8(fp)

  /*
  *  Register this device as a valid flash device type
  */ 
  if (!ret_code)
 180a848:	e0bffe17 	ldw	r2,-8(fp)
 180a84c:	1004c03a 	cmpne	r2,r2,zero
 180a850:	1000031e 	bne	r2,zero,180a860 <alt_flash_cfi_init+0x84>
    ret_code = alt_flash_device_register(&(flash->dev));
 180a854:	e13fff17 	ldw	r4,-4(fp)
 180a858:	180a8780 	call	180a878 <alt_flash_device_register>
 180a85c:	e0bffe15 	stw	r2,-8(fp)
 
  return ret_code;
 180a860:	e0bffe17 	ldw	r2,-8(fp)
}
 180a864:	e037883a 	mov	sp,fp
 180a868:	dfc00117 	ldw	ra,4(sp)
 180a86c:	df000017 	ldw	fp,0(sp)
 180a870:	dec00204 	addi	sp,sp,8
 180a874:	f800283a 	ret

0180a878 <alt_flash_device_register>:

typedef struct alt_flash_dev alt_flash_dev; 
typedef alt_flash_dev alt_flash_fd;

static ALT_INLINE int alt_flash_device_register( alt_flash_fd* fd)
{
 180a878:	defffd04 	addi	sp,sp,-12
 180a87c:	dfc00215 	stw	ra,8(sp)
 180a880:	df000115 	stw	fp,4(sp)
 180a884:	df000104 	addi	fp,sp,4
 180a888:	e13fff15 	stw	r4,-4(fp)
  extern alt_llist alt_flash_dev_list;

  return alt_dev_llist_insert ((alt_dev_llist*) fd, &alt_flash_dev_list);
 180a88c:	e13fff17 	ldw	r4,-4(fp)
 180a890:	01406074 	movhi	r5,385
 180a894:	294ad904 	addi	r5,r5,11108
 180a898:	180ec880 	call	180ec88 <alt_dev_llist_insert>
}
 180a89c:	e037883a 	mov	sp,fp
 180a8a0:	dfc00117 	ldw	ra,4(sp)
 180a8a4:	df000017 	ldw	fp,0(sp)
 180a8a8:	dec00204 	addi	sp,sp,8
 180a8ac:	f800283a 	ret

0180a8b0 <alt_flash_cfi_write>:
 * large buffer to tie up in our programming library, when not all users will 
 * want that functionality.
 */
 int alt_flash_cfi_write( alt_flash_dev* flash_info, int offset, 
                          const void* src_addr, int length )
 {
 180a8b0:	deffef04 	addi	sp,sp,-68
 180a8b4:	dfc01015 	stw	ra,64(sp)
 180a8b8:	df000f15 	stw	fp,60(sp)
 180a8bc:	df000f04 	addi	fp,sp,60
 180a8c0:	e13ffa15 	stw	r4,-24(fp)
 180a8c4:	e17ffb15 	stw	r5,-20(fp)
 180a8c8:	e1bffc15 	stw	r6,-16(fp)
 180a8cc:	e1fffd15 	stw	r7,-12(fp)
  int         ret_code = 0;
 180a8d0:	e03ff915 	stw	zero,-28(fp)
  int         i,j;
  int         data_to_write;
  int         full_length = length;
 180a8d4:	e0bffd17 	ldw	r2,-12(fp)
 180a8d8:	e0bff515 	stw	r2,-44(fp)
  int         current_offset;
  int         start_offset = offset;
 180a8dc:	e0bffb17 	ldw	r2,-20(fp)
 180a8e0:	e0bff315 	stw	r2,-52(fp)
  alt_flash_cfi_dev* flash = (alt_flash_cfi_dev*)flash_info;
 180a8e4:	e0bffa17 	ldw	r2,-24(fp)
 180a8e8:	e0bff215 	stw	r2,-56(fp)

  /*
   * First and foremost which sectors are affected?
   */   
  for(i=0;i<flash->dev.number_of_regions;i++)
 180a8ec:	e03ff815 	stw	zero,-32(fp)
 180a8f0:	00008e06 	br	180ab2c <alt_flash_cfi_write+0x27c>
  {
    /* Is it in this erase block region?*/
    if((offset >= flash->dev.region_info[i].offset) &&
 180a8f4:	e0bff817 	ldw	r2,-32(fp)
 180a8f8:	e0fff217 	ldw	r3,-56(fp)
 180a8fc:	1004913a 	slli	r2,r2,4
 180a900:	10c5883a 	add	r2,r2,r3
 180a904:	10800d04 	addi	r2,r2,52
 180a908:	10c00017 	ldw	r3,0(r2)
 180a90c:	e0bffb17 	ldw	r2,-20(fp)
 180a910:	10c08316 	blt	r2,r3,180ab20 <alt_flash_cfi_write+0x270>
 180a914:	e0bff817 	ldw	r2,-32(fp)
 180a918:	e0fff217 	ldw	r3,-56(fp)
 180a91c:	1004913a 	slli	r2,r2,4
 180a920:	10c5883a 	add	r2,r2,r3
 180a924:	10800d04 	addi	r2,r2,52
 180a928:	11000017 	ldw	r4,0(r2)
 180a92c:	e0bff817 	ldw	r2,-32(fp)
 180a930:	e0fff217 	ldw	r3,-56(fp)
 180a934:	1004913a 	slli	r2,r2,4
 180a938:	10c5883a 	add	r2,r2,r3
 180a93c:	10800e04 	addi	r2,r2,56
 180a940:	10800017 	ldw	r2,0(r2)
 180a944:	2087883a 	add	r3,r4,r2
 180a948:	e0bffb17 	ldw	r2,-20(fp)
 180a94c:	10c0740e 	bge	r2,r3,180ab20 <alt_flash_cfi_write+0x270>
      (offset < (flash->dev.region_info[i].offset + 
      flash->dev.region_info[i].region_size)))
    {
      current_offset = flash->dev.region_info[i].offset;
 180a950:	e0bff817 	ldw	r2,-32(fp)
 180a954:	e0fff217 	ldw	r3,-56(fp)
 180a958:	1004913a 	slli	r2,r2,4
 180a95c:	10c5883a 	add	r2,r2,r3
 180a960:	10800d04 	addi	r2,r2,52
 180a964:	10800017 	ldw	r2,0(r2)
 180a968:	e0bff415 	stw	r2,-48(fp)

      for(j=0;j<flash->dev.region_info[i].number_of_blocks;j++)
 180a96c:	e03ff715 	stw	zero,-36(fp)
 180a970:	00006306 	br	180ab00 <alt_flash_cfi_write+0x250>
      {
        if ((offset >= current_offset ) && 
 180a974:	e0fffb17 	ldw	r3,-20(fp)
 180a978:	e0bff417 	ldw	r2,-48(fp)
 180a97c:	18805416 	blt	r3,r2,180aad0 <alt_flash_cfi_write+0x220>
 180a980:	e0bff817 	ldw	r2,-32(fp)
 180a984:	e0fff217 	ldw	r3,-56(fp)
 180a988:	1004913a 	slli	r2,r2,4
 180a98c:	10c5883a 	add	r2,r2,r3
 180a990:	10801004 	addi	r2,r2,64
 180a994:	10c00017 	ldw	r3,0(r2)
 180a998:	e0bff417 	ldw	r2,-48(fp)
 180a99c:	1887883a 	add	r3,r3,r2
 180a9a0:	e0bffb17 	ldw	r2,-20(fp)
 180a9a4:	10c04a0e 	bge	r2,r3,180aad0 <alt_flash_cfi_write+0x220>
        {
          /*
           * Check if the contents of the block are different
           * from the data we wish to put there
           */
          data_to_write = ( current_offset + flash->dev.region_info[i].block_size 
 180a9a8:	e0bff817 	ldw	r2,-32(fp)
 180a9ac:	e0fff217 	ldw	r3,-56(fp)
 180a9b0:	1004913a 	slli	r2,r2,4
 180a9b4:	10c5883a 	add	r2,r2,r3
 180a9b8:	10801004 	addi	r2,r2,64
 180a9bc:	10c00017 	ldw	r3,0(r2)
 180a9c0:	e0bff417 	ldw	r2,-48(fp)
 180a9c4:	1887883a 	add	r3,r3,r2
 180a9c8:	e0bffb17 	ldw	r2,-20(fp)
 180a9cc:	1885c83a 	sub	r2,r3,r2
 180a9d0:	e0bff615 	stw	r2,-40(fp)
                            - offset); 
          data_to_write = MIN(data_to_write, length);
 180a9d4:	e0bff617 	ldw	r2,-40(fp)
 180a9d8:	e0bfff15 	stw	r2,-4(fp)
 180a9dc:	e0fffd17 	ldw	r3,-12(fp)
 180a9e0:	e0fffe15 	stw	r3,-8(fp)
 180a9e4:	e0bfff17 	ldw	r2,-4(fp)
 180a9e8:	e0fffe17 	ldw	r3,-8(fp)
 180a9ec:	10c0020e 	bge	r2,r3,180a9f8 <alt_flash_cfi_write+0x148>
 180a9f0:	e0bfff17 	ldw	r2,-4(fp)
 180a9f4:	e0bffe15 	stw	r2,-8(fp)
 180a9f8:	e0fffe17 	ldw	r3,-8(fp)
 180a9fc:	e0fff615 	stw	r3,-40(fp)
          if(memcmp(src_addr, 
 180aa00:	e0bff217 	ldw	r2,-56(fp)
 180aa04:	10800a17 	ldw	r2,40(r2)
 180aa08:	1007883a 	mov	r3,r2
 180aa0c:	e0bffb17 	ldw	r2,-20(fp)
 180aa10:	188b883a 	add	r5,r3,r2
 180aa14:	e1bff617 	ldw	r6,-40(fp)
 180aa18:	e13ffc17 	ldw	r4,-16(fp)
 180aa1c:	18104180 	call	1810418 <memcmp>
 180aa20:	1005003a 	cmpeq	r2,r2,zero
 180aa24:	1000131e 	bne	r2,zero,180aa74 <alt_flash_cfi_write+0x1c4>
                    (alt_u8*)flash->dev.base_addr+offset,
                    data_to_write))
          {
            ret_code = (*flash->dev.erase_block)( &flash->dev, current_offset);
 180aa28:	e0bff217 	ldw	r2,-56(fp)
 180aa2c:	10800817 	ldw	r2,32(r2)
 180aa30:	e13ff217 	ldw	r4,-56(fp)
 180aa34:	e17ff417 	ldw	r5,-48(fp)
 180aa38:	103ee83a 	callr	r2
 180aa3c:	e0bff915 	stw	r2,-28(fp)

            if (!ret_code)
 180aa40:	e0bff917 	ldw	r2,-28(fp)
 180aa44:	1004c03a 	cmpne	r2,r2,zero
 180aa48:	10000a1e 	bne	r2,zero,180aa74 <alt_flash_cfi_write+0x1c4>
            {
              ret_code = (*flash->dev.write_block)( 
 180aa4c:	e0bff217 	ldw	r2,-56(fp)
 180aa50:	10c00917 	ldw	r3,36(r2)
 180aa54:	e13ff217 	ldw	r4,-56(fp)
 180aa58:	e0bff617 	ldw	r2,-40(fp)
 180aa5c:	d8800015 	stw	r2,0(sp)
 180aa60:	e17ff417 	ldw	r5,-48(fp)
 180aa64:	e1bffb17 	ldw	r6,-20(fp)
 180aa68:	e1fffc17 	ldw	r7,-16(fp)
 180aa6c:	183ee83a 	callr	r3
 180aa70:	e0bff915 	stw	r2,-28(fp)
                                                  data_to_write);
            }
          }    
    
          /* Was this the last block? */    
          if ((length == data_to_write) || ret_code)
 180aa74:	e0fffd17 	ldw	r3,-12(fp)
 180aa78:	e0bff617 	ldw	r2,-40(fp)
 180aa7c:	18802f26 	beq	r3,r2,180ab3c <alt_flash_cfi_write+0x28c>
 180aa80:	e0bff917 	ldw	r2,-28(fp)
 180aa84:	1004c03a 	cmpne	r2,r2,zero
 180aa88:	10002c1e 	bne	r2,zero,180ab3c <alt_flash_cfi_write+0x28c>
          {
            goto finished;
          }
          
          length -= data_to_write;
 180aa8c:	e0fffd17 	ldw	r3,-12(fp)
 180aa90:	e0bff617 	ldw	r2,-40(fp)
 180aa94:	1885c83a 	sub	r2,r3,r2
 180aa98:	e0bffd15 	stw	r2,-12(fp)
          offset = current_offset + flash->dev.region_info[i].block_size;
 180aa9c:	e0bff817 	ldw	r2,-32(fp)
 180aaa0:	e0fff217 	ldw	r3,-56(fp)
 180aaa4:	1004913a 	slli	r2,r2,4
 180aaa8:	10c5883a 	add	r2,r2,r3
 180aaac:	10801004 	addi	r2,r2,64
 180aab0:	10c00017 	ldw	r3,0(r2)
 180aab4:	e0bff417 	ldw	r2,-48(fp)
 180aab8:	1885883a 	add	r2,r3,r2
 180aabc:	e0bffb15 	stw	r2,-20(fp)
          src_addr = (alt_u8*)src_addr + data_to_write;
 180aac0:	e0fffc17 	ldw	r3,-16(fp)
 180aac4:	e0bff617 	ldw	r2,-40(fp)
 180aac8:	1885883a 	add	r2,r3,r2
 180aacc:	e0bffc15 	stw	r2,-16(fp)
        }
        current_offset += flash->dev.region_info[i].block_size;
 180aad0:	e0bff817 	ldw	r2,-32(fp)
 180aad4:	e0fff217 	ldw	r3,-56(fp)
 180aad8:	1004913a 	slli	r2,r2,4
 180aadc:	10c5883a 	add	r2,r2,r3
 180aae0:	10801004 	addi	r2,r2,64
 180aae4:	10c00017 	ldw	r3,0(r2)
 180aae8:	e0bff417 	ldw	r2,-48(fp)
 180aaec:	10c5883a 	add	r2,r2,r3
 180aaf0:	e0bff415 	stw	r2,-48(fp)
      (offset < (flash->dev.region_info[i].offset + 
      flash->dev.region_info[i].region_size)))
    {
      current_offset = flash->dev.region_info[i].offset;

      for(j=0;j<flash->dev.region_info[i].number_of_blocks;j++)
 180aaf4:	e0bff717 	ldw	r2,-36(fp)
 180aaf8:	10800044 	addi	r2,r2,1
 180aafc:	e0bff715 	stw	r2,-36(fp)
 180ab00:	e0bff817 	ldw	r2,-32(fp)
 180ab04:	e0fff217 	ldw	r3,-56(fp)
 180ab08:	1004913a 	slli	r2,r2,4
 180ab0c:	10c5883a 	add	r2,r2,r3
 180ab10:	10800f04 	addi	r2,r2,60
 180ab14:	10c00017 	ldw	r3,0(r2)
 180ab18:	e0bff717 	ldw	r2,-36(fp)
 180ab1c:	10ff9516 	blt	r2,r3,180a974 <alt_flash_cfi_write+0xc4>
  alt_flash_cfi_dev* flash = (alt_flash_cfi_dev*)flash_info;

  /*
   * First and foremost which sectors are affected?
   */   
  for(i=0;i<flash->dev.number_of_regions;i++)
 180ab20:	e0bff817 	ldw	r2,-32(fp)
 180ab24:	10800044 	addi	r2,r2,1
 180ab28:	e0bff815 	stw	r2,-32(fp)
 180ab2c:	e0bff217 	ldw	r2,-56(fp)
 180ab30:	10c00c17 	ldw	r3,48(r2)
 180ab34:	e0bff817 	ldw	r2,-32(fp)
 180ab38:	10ff6e16 	blt	r2,r3,180a8f4 <alt_flash_cfi_write+0x44>
      }     
    } 
  }
finished:    

  alt_dcache_flush((alt_u8*)flash->dev.base_addr+start_offset, full_length);
 180ab3c:	e0bff217 	ldw	r2,-56(fp)
 180ab40:	10800a17 	ldw	r2,40(r2)
 180ab44:	1007883a 	mov	r3,r2
 180ab48:	e0bff317 	ldw	r2,-52(fp)
 180ab4c:	1889883a 	add	r4,r3,r2
 180ab50:	e17ff517 	ldw	r5,-44(fp)
 180ab54:	180ec100 	call	180ec10 <alt_dcache_flush>
  return ret_code;
 180ab58:	e0bff917 	ldw	r2,-28(fp)
}
 180ab5c:	e037883a 	mov	sp,fp
 180ab60:	dfc00117 	ldw	ra,4(sp)
 180ab64:	df000017 	ldw	fp,0(sp)
 180ab68:	dec00204 	addi	sp,sp,8
 180ab6c:	f800283a 	ret

0180ab70 <alt_flash_cfi_get_info>:
 * 
 *  Pass the table of erase blocks to the user
 */
int alt_flash_cfi_get_info( alt_flash_fd* fd, flash_region** info, 
                            int* number_of_regions)
{
 180ab70:	defffa04 	addi	sp,sp,-24
 180ab74:	df000515 	stw	fp,20(sp)
 180ab78:	df000504 	addi	fp,sp,20
 180ab7c:	e13ffd15 	stw	r4,-12(fp)
 180ab80:	e17ffe15 	stw	r5,-8(fp)
 180ab84:	e1bfff15 	stw	r6,-4(fp)
  int ret_code = 0;
 180ab88:	e03ffc15 	stw	zero,-16(fp)
  alt_flash_dev* flash = (alt_flash_dev*)fd;
 180ab8c:	e0bffd17 	ldw	r2,-12(fp)
 180ab90:	e0bffb15 	stw	r2,-20(fp)

  *number_of_regions = flash->number_of_regions;
 180ab94:	e0bffb17 	ldw	r2,-20(fp)
 180ab98:	10c00c17 	ldw	r3,48(r2)
 180ab9c:	e0bfff17 	ldw	r2,-4(fp)
 180aba0:	10c00015 	stw	r3,0(r2)

  if (!flash->number_of_regions)
 180aba4:	e0bffb17 	ldw	r2,-20(fp)
 180aba8:	10800c17 	ldw	r2,48(r2)
 180abac:	1004c03a 	cmpne	r2,r2,zero
 180abb0:	1000031e 	bne	r2,zero,180abc0 <alt_flash_cfi_get_info+0x50>
  {
    ret_code = -EIO;
 180abb4:	00bffec4 	movi	r2,-5
 180abb8:	e0bffc15 	stw	r2,-16(fp)
 180abbc:	00000b06 	br	180abec <alt_flash_cfi_get_info+0x7c>
  }
  else if (flash->number_of_regions > ALT_MAX_NUMBER_OF_FLASH_REGIONS)
 180abc0:	e0bffb17 	ldw	r2,-20(fp)
 180abc4:	10800c17 	ldw	r2,48(r2)
 180abc8:	10800250 	cmplti	r2,r2,9
 180abcc:	1000031e 	bne	r2,zero,180abdc <alt_flash_cfi_get_info+0x6c>
  {
    ret_code = -ENOMEM;
 180abd0:	00bffd04 	movi	r2,-12
 180abd4:	e0bffc15 	stw	r2,-16(fp)
 180abd8:	00000406 	br	180abec <alt_flash_cfi_get_info+0x7c>
  }
  else
  {
    *info = &flash->region_info[0];
 180abdc:	e0bffb17 	ldw	r2,-20(fp)
 180abe0:	10c00d04 	addi	r3,r2,52
 180abe4:	e0bffe17 	ldw	r2,-8(fp)
 180abe8:	10c00015 	stw	r3,0(r2)
  }

  return ret_code;
 180abec:	e0bffc17 	ldw	r2,-16(fp)
}
 180abf0:	e037883a 	mov	sp,fp
 180abf4:	df000017 	ldw	fp,0(sp)
 180abf8:	dec00104 	addi	sp,sp,4
 180abfc:	f800283a 	ret

0180ac00 <alt_flash_cfi_read>:
 *  Read from an area in flash, you could use memcopy yourself
 *  for these flash types, but we're trying to be generic and future proof
 */
int alt_flash_cfi_read( alt_flash_dev* flash_info, int offset, 
                        void* dest_addr, int length )
{
 180ac00:	defff904 	addi	sp,sp,-28
 180ac04:	dfc00615 	stw	ra,24(sp)
 180ac08:	df000515 	stw	fp,20(sp)
 180ac0c:	df000504 	addi	fp,sp,20
 180ac10:	e13ffc15 	stw	r4,-16(fp)
 180ac14:	e17ffd15 	stw	r5,-12(fp)
 180ac18:	e1bffe15 	stw	r6,-8(fp)
 180ac1c:	e1ffff15 	stw	r7,-4(fp)
  alt_flash_cfi_dev* flash = (alt_flash_cfi_dev*)flash_info;
 180ac20:	e0bffc17 	ldw	r2,-16(fp)
 180ac24:	e0bffb15 	stw	r2,-20(fp)
  memcpy(dest_addr, (alt_u8*)flash->dev.base_addr+offset, length);
 180ac28:	e0bffb17 	ldw	r2,-20(fp)
 180ac2c:	10800a17 	ldw	r2,40(r2)
 180ac30:	1007883a 	mov	r3,r2
 180ac34:	e0bffd17 	ldw	r2,-12(fp)
 180ac38:	1887883a 	add	r3,r3,r2
 180ac3c:	e1bfff17 	ldw	r6,-4(fp)
 180ac40:	e0bffe17 	ldw	r2,-8(fp)
 180ac44:	1009883a 	mov	r4,r2
 180ac48:	180b883a 	mov	r5,r3
 180ac4c:	18059040 	call	1805904 <memcpy>
  return 0;
 180ac50:	0005883a 	mov	r2,zero
}
 180ac54:	e037883a 	mov	sp,fp
 180ac58:	dfc00117 	ldw	ra,4(sp)
 180ac5c:	df000017 	ldw	fp,0(sp)
 180ac60:	dec00204 	addi	sp,sp,8
 180ac64:	f800283a 	ret

0180ac68 <alt_write_value_to_flash>:
* It writes the largest word size that the flash can support
* so if it's an 8 bit flash it writes bytes
* 16 bit half word etc.
*/
void alt_write_value_to_flash(alt_flash_cfi_dev* flash, int offset, const alt_u8* src_addr)
{
 180ac68:	defffa04 	addi	sp,sp,-24
 180ac6c:	df000515 	stw	fp,20(sp)
 180ac70:	df000504 	addi	fp,sp,20
 180ac74:	e13ffd15 	stw	r4,-12(fp)
 180ac78:	e17ffe15 	stw	r5,-8(fp)
 180ac7c:	e1bfff15 	stw	r6,-4(fp)
  alt_u16 half_word_value;
  alt_u32 word_value;

  if (flash->mode_width == 1)
 180ac80:	e0bffd17 	ldw	r2,-12(fp)
 180ac84:	10802e17 	ldw	r2,184(r2)
 180ac88:	10800058 	cmpnei	r2,r2,1
 180ac8c:	10000b1e 	bne	r2,zero,180acbc <alt_write_value_to_flash+0x54>
  {
    IOWR_8DIRECT(flash->dev.base_addr, offset, *src_addr);
 180ac90:	e0bffd17 	ldw	r2,-12(fp)
 180ac94:	10800a17 	ldw	r2,40(r2)
 180ac98:	1007883a 	mov	r3,r2
 180ac9c:	e0bffe17 	ldw	r2,-8(fp)
 180aca0:	1889883a 	add	r4,r3,r2
 180aca4:	e0bfff17 	ldw	r2,-4(fp)
 180aca8:	10800003 	ldbu	r2,0(r2)
 180acac:	10c03fcc 	andi	r3,r2,255
 180acb0:	2005883a 	mov	r2,r4
 180acb4:	10c00025 	stbio	r3,0(r2)
 180acb8:	00004006 	br	180adbc <alt_write_value_to_flash+0x154>
  }
  else if (flash->mode_width == 2)
 180acbc:	e0bffd17 	ldw	r2,-12(fp)
 180acc0:	10802e17 	ldw	r2,184(r2)
 180acc4:	10800098 	cmpnei	r2,r2,2
 180acc8:	1000151e 	bne	r2,zero,180ad20 <alt_write_value_to_flash+0xb8>
  {
    half_word_value = (alt_u16)(*src_addr);
 180accc:	e0bfff17 	ldw	r2,-4(fp)
 180acd0:	10800003 	ldbu	r2,0(r2)
 180acd4:	10803fcc 	andi	r2,r2,255
 180acd8:	e0bffc0d 	sth	r2,-16(fp)
    half_word_value |= (alt_u16)(*(src_addr + 1)) << 8;
 180acdc:	e0bfff17 	ldw	r2,-4(fp)
 180ace0:	10800044 	addi	r2,r2,1
 180ace4:	10800003 	ldbu	r2,0(r2)
 180ace8:	10803fcc 	andi	r2,r2,255
 180acec:	1004923a 	slli	r2,r2,8
 180acf0:	1007883a 	mov	r3,r2
 180acf4:	e0bffc0b 	ldhu	r2,-16(fp)
 180acf8:	1884b03a 	or	r2,r3,r2
 180acfc:	e0bffc0d 	sth	r2,-16(fp)
    IOWR_16DIRECT(flash->dev.base_addr, offset, half_word_value);
 180ad00:	e0bffd17 	ldw	r2,-12(fp)
 180ad04:	10800a17 	ldw	r2,40(r2)
 180ad08:	1007883a 	mov	r3,r2
 180ad0c:	e0bffe17 	ldw	r2,-8(fp)
 180ad10:	1885883a 	add	r2,r3,r2
 180ad14:	e0fffc0b 	ldhu	r3,-16(fp)
 180ad18:	10c0002d 	sthio	r3,0(r2)
 180ad1c:	00002706 	br	180adbc <alt_write_value_to_flash+0x154>
  }
  else if (flash->mode_width == 4)
 180ad20:	e0bffd17 	ldw	r2,-12(fp)
 180ad24:	10802e17 	ldw	r2,184(r2)
 180ad28:	10800118 	cmpnei	r2,r2,4
 180ad2c:	1000231e 	bne	r2,zero,180adbc <alt_write_value_to_flash+0x154>
  {
    word_value = (alt_u32)(*src_addr);
 180ad30:	e0bfff17 	ldw	r2,-4(fp)
 180ad34:	10800003 	ldbu	r2,0(r2)
 180ad38:	10803fcc 	andi	r2,r2,255
 180ad3c:	e0bffb15 	stw	r2,-20(fp)
    word_value |= ((alt_u32)(*(src_addr + 1)) << 8);
 180ad40:	e0bfff17 	ldw	r2,-4(fp)
 180ad44:	10800044 	addi	r2,r2,1
 180ad48:	10800003 	ldbu	r2,0(r2)
 180ad4c:	10803fcc 	andi	r2,r2,255
 180ad50:	1006923a 	slli	r3,r2,8
 180ad54:	e0bffb17 	ldw	r2,-20(fp)
 180ad58:	10c4b03a 	or	r2,r2,r3
 180ad5c:	e0bffb15 	stw	r2,-20(fp)
    word_value |= ((alt_u32)(*(src_addr + 2)) << 16);
 180ad60:	e0bfff17 	ldw	r2,-4(fp)
 180ad64:	10800084 	addi	r2,r2,2
 180ad68:	10800003 	ldbu	r2,0(r2)
 180ad6c:	10803fcc 	andi	r2,r2,255
 180ad70:	1006943a 	slli	r3,r2,16
 180ad74:	e0bffb17 	ldw	r2,-20(fp)
 180ad78:	10c4b03a 	or	r2,r2,r3
 180ad7c:	e0bffb15 	stw	r2,-20(fp)
    word_value |= ((alt_u32)(*(src_addr + 3)) << 24);
 180ad80:	e0bfff17 	ldw	r2,-4(fp)
 180ad84:	108000c4 	addi	r2,r2,3
 180ad88:	10800003 	ldbu	r2,0(r2)
 180ad8c:	10803fcc 	andi	r2,r2,255
 180ad90:	1006963a 	slli	r3,r2,24
 180ad94:	e0bffb17 	ldw	r2,-20(fp)
 180ad98:	10c4b03a 	or	r2,r2,r3
 180ad9c:	e0bffb15 	stw	r2,-20(fp)
    IOWR_32DIRECT(flash->dev.base_addr, offset, word_value);
 180ada0:	e0bffd17 	ldw	r2,-12(fp)
 180ada4:	10800a17 	ldw	r2,40(r2)
 180ada8:	1007883a 	mov	r3,r2
 180adac:	e0bffe17 	ldw	r2,-8(fp)
 180adb0:	1885883a 	add	r2,r3,r2
 180adb4:	e0fffb17 	ldw	r3,-20(fp)
 180adb8:	10c00035 	stwio	r3,0(r2)
  }

  return;
}
 180adbc:	e037883a 	mov	sp,fp
 180adc0:	df000017 	ldw	fp,0(sp)
 180adc4:	dec00104 	addi	sp,sp,4
 180adc8:	f800283a 	ret

0180adcc <alt_flash_program_block>:
*/
int alt_flash_program_block(  alt_flash_cfi_dev* flash, const int offset, 
                        const alt_u8* src_addr, 
                        const int length,
                        alt_program_word_fn program_word_func)
{
 180adcc:	defff304 	addi	sp,sp,-52
 180add0:	dfc00c15 	stw	ra,48(sp)
 180add4:	df000b15 	stw	fp,44(sp)
 180add8:	df000b04 	addi	fp,sp,44
 180addc:	e13ffc15 	stw	r4,-16(fp)
 180ade0:	e17ffd15 	stw	r5,-12(fp)
 180ade4:	e1bffe15 	stw	r6,-8(fp)
 180ade8:	e1ffff15 	stw	r7,-4(fp)
  int     ret_code = 0;
 180adec:	e03ffa15 	stw	zero,-24(fp)

  /*
   * First take care of any writes which are on none native boundaries
   * as far as the flash is concerned.
   */
  bytes_to_preserve = ((int)((alt_u8*)flash->dev.base_addr + offset) % 
 180adf0:	e0bffc17 	ldw	r2,-16(fp)
 180adf4:	10800a17 	ldw	r2,40(r2)
 180adf8:	1007883a 	mov	r3,r2
 180adfc:	e0bffd17 	ldw	r2,-12(fp)
 180ae00:	1885883a 	add	r2,r3,r2
 180ae04:	1009883a 	mov	r4,r2
 180ae08:	e0bffc17 	ldw	r2,-16(fp)
 180ae0c:	10c02e17 	ldw	r3,184(r2)
 180ae10:	20c5283a 	div	r2,r4,r3
 180ae14:	10c5383a 	mul	r2,r2,r3
 180ae18:	2085c83a 	sub	r2,r4,r2
 180ae1c:	e0bff915 	stw	r2,-28(fp)
                      flash->mode_width);
  if ( bytes_to_preserve != 0)
 180ae20:	e0bff917 	ldw	r2,-28(fp)
 180ae24:	1005003a 	cmpeq	r2,r2,zero
 180ae28:	10003a1e 	bne	r2,zero,180af14 <alt_flash_program_block+0x148>
  {
    unaligned_bytes = flash->mode_width - bytes_to_preserve;
 180ae2c:	e0bffc17 	ldw	r2,-16(fp)
 180ae30:	10c02e17 	ldw	r3,184(r2)
 180ae34:	e0bff917 	ldw	r2,-28(fp)
 180ae38:	1885c83a 	sub	r2,r3,r2
 180ae3c:	e0bff815 	stw	r2,-32(fp)
    /*
     * Read the bytes we wish to preserve out of flash
     */
    for (i=0;i<bytes_to_preserve;i++)
 180ae40:	e03ff615 	stw	zero,-40(fp)
 180ae44:	00001206 	br	180ae90 <alt_flash_program_block+0xc4>
    {
      unaligned[i] = IORD_8DIRECT(flash->dev.base_addr, 
 180ae48:	e17ff617 	ldw	r5,-40(fp)
 180ae4c:	e0bffc17 	ldw	r2,-16(fp)
 180ae50:	10800a17 	ldw	r2,40(r2)
 180ae54:	1009883a 	mov	r4,r2
 180ae58:	e0fffd17 	ldw	r3,-12(fp)
 180ae5c:	e0bff917 	ldw	r2,-28(fp)
 180ae60:	1887c83a 	sub	r3,r3,r2
 180ae64:	e0bff617 	ldw	r2,-40(fp)
 180ae68:	1885883a 	add	r2,r3,r2
 180ae6c:	2085883a 	add	r2,r4,r2
 180ae70:	10800023 	ldbuio	r2,0(r2)
 180ae74:	1007883a 	mov	r3,r2
 180ae78:	e0bffb04 	addi	r2,fp,-20
 180ae7c:	1145883a 	add	r2,r2,r5
 180ae80:	10c00005 	stb	r3,0(r2)
  {
    unaligned_bytes = flash->mode_width - bytes_to_preserve;
    /*
     * Read the bytes we wish to preserve out of flash
     */
    for (i=0;i<bytes_to_preserve;i++)
 180ae84:	e0bff617 	ldw	r2,-40(fp)
 180ae88:	10800044 	addi	r2,r2,1
 180ae8c:	e0bff615 	stw	r2,-40(fp)
 180ae90:	e0fff617 	ldw	r3,-40(fp)
 180ae94:	e0bff917 	ldw	r2,-28(fp)
 180ae98:	18bfeb16 	blt	r3,r2,180ae48 <alt_flash_program_block+0x7c>
    {
      unaligned[i] = IORD_8DIRECT(flash->dev.base_addr, 
                                offset-bytes_to_preserve+i);
    }

    for (i=0;i<unaligned_bytes;i++)
 180ae9c:	e03ff615 	stw	zero,-40(fp)
 180aea0:	00000e06 	br	180aedc <alt_flash_program_block+0x110>
    {
      unaligned[bytes_to_preserve + i] = *(alt_u8*)(src_addr + i);
 180aea4:	e0fff917 	ldw	r3,-28(fp)
 180aea8:	e0bff617 	ldw	r2,-40(fp)
 180aeac:	1889883a 	add	r4,r3,r2
 180aeb0:	e0bff617 	ldw	r2,-40(fp)
 180aeb4:	1007883a 	mov	r3,r2
 180aeb8:	e0bffe17 	ldw	r2,-8(fp)
 180aebc:	1885883a 	add	r2,r3,r2
 180aec0:	10c00003 	ldbu	r3,0(r2)
 180aec4:	e0bffb04 	addi	r2,fp,-20
 180aec8:	1105883a 	add	r2,r2,r4
 180aecc:	10c00005 	stb	r3,0(r2)
    {
      unaligned[i] = IORD_8DIRECT(flash->dev.base_addr, 
                                offset-bytes_to_preserve+i);
    }

    for (i=0;i<unaligned_bytes;i++)
 180aed0:	e0bff617 	ldw	r2,-40(fp)
 180aed4:	10800044 	addi	r2,r2,1
 180aed8:	e0bff615 	stw	r2,-40(fp)
 180aedc:	e0fff617 	ldw	r3,-40(fp)
 180aee0:	e0bff817 	ldw	r2,-32(fp)
 180aee4:	18bfef16 	blt	r3,r2,180aea4 <alt_flash_program_block+0xd8>
    {
      unaligned[bytes_to_preserve + i] = *(alt_u8*)(src_addr + i);
    }
    
    ret_code = (*program_word_func)(flash, offset-bytes_to_preserve, unaligned);
 180aee8:	e0fffd17 	ldw	r3,-12(fp)
 180aeec:	e0bff917 	ldw	r2,-28(fp)
 180aef0:	188bc83a 	sub	r5,r3,r2
 180aef4:	e1bffb04 	addi	r6,fp,-20
 180aef8:	e0800217 	ldw	r2,8(fp)
 180aefc:	e13ffc17 	ldw	r4,-16(fp)
 180af00:	103ee83a 	callr	r2
 180af04:	e0bffa15 	stw	r2,-24(fp)
    i = unaligned_bytes;
 180af08:	e0bff817 	ldw	r2,-32(fp)
 180af0c:	e0bff615 	stw	r2,-40(fp)
 180af10:	00000106 	br	180af18 <alt_flash_program_block+0x14c>
  }
  else
  {
    i = 0;
 180af14:	e03ff615 	stw	zero,-40(fp)
  }

  unaligned_end_bytes = (offset+length) % flash->mode_width;
 180af18:	e0fffd17 	ldw	r3,-12(fp)
 180af1c:	e0bfff17 	ldw	r2,-4(fp)
 180af20:	1889883a 	add	r4,r3,r2
 180af24:	e0bffc17 	ldw	r2,-16(fp)
 180af28:	10c02e17 	ldw	r3,184(r2)
 180af2c:	20c5283a 	div	r2,r4,r3
 180af30:	10c5383a 	mul	r2,r2,r3
 180af34:	2085c83a 	sub	r2,r4,r2
 180af38:	e0bff715 	stw	r2,-36(fp)
  while ((ret_code == 0) && (i < (length-unaligned_end_bytes)))
 180af3c:	00001006 	br	180af80 <alt_flash_program_block+0x1b4>
  {
    ret_code = (*program_word_func)(flash, offset+i, src_addr+i);
 180af40:	e0fffd17 	ldw	r3,-12(fp)
 180af44:	e0bff617 	ldw	r2,-40(fp)
 180af48:	188b883a 	add	r5,r3,r2
 180af4c:	e0bff617 	ldw	r2,-40(fp)
 180af50:	1007883a 	mov	r3,r2
 180af54:	e0bffe17 	ldw	r2,-8(fp)
 180af58:	188d883a 	add	r6,r3,r2
 180af5c:	e0800217 	ldw	r2,8(fp)
 180af60:	e13ffc17 	ldw	r4,-16(fp)
 180af64:	103ee83a 	callr	r2
 180af68:	e0bffa15 	stw	r2,-24(fp)
    i += flash->mode_width;     
 180af6c:	e0bffc17 	ldw	r2,-16(fp)
 180af70:	10c02e17 	ldw	r3,184(r2)
 180af74:	e0bff617 	ldw	r2,-40(fp)
 180af78:	10c5883a 	add	r2,r2,r3
 180af7c:	e0bff615 	stw	r2,-40(fp)
  {
    i = 0;
  }

  unaligned_end_bytes = (offset+length) % flash->mode_width;
  while ((ret_code == 0) && (i < (length-unaligned_end_bytes)))
 180af80:	e0bffa17 	ldw	r2,-24(fp)
 180af84:	1004c03a 	cmpne	r2,r2,zero
 180af88:	1000051e 	bne	r2,zero,180afa0 <alt_flash_program_block+0x1d4>
 180af8c:	e0ffff17 	ldw	r3,-4(fp)
 180af90:	e0bff717 	ldw	r2,-36(fp)
 180af94:	1887c83a 	sub	r3,r3,r2
 180af98:	e0bff617 	ldw	r2,-40(fp)
 180af9c:	10ffe816 	blt	r2,r3,180af40 <alt_flash_program_block+0x174>

  /*
   * Now take care of any writes at the end of the buffer which are on none 
   * native boundaries as far as the flash is concerned.
   */
  if (unaligned_end_bytes && !ret_code)
 180afa0:	e0bff717 	ldw	r2,-36(fp)
 180afa4:	1005003a 	cmpeq	r2,r2,zero
 180afa8:	10003c1e 	bne	r2,zero,180b09c <alt_flash_program_block+0x2d0>
 180afac:	e0bffa17 	ldw	r2,-24(fp)
 180afb0:	1004c03a 	cmpne	r2,r2,zero
 180afb4:	1000391e 	bne	r2,zero,180b09c <alt_flash_program_block+0x2d0>
  {
    bytes_to_preserve = flash->mode_width - unaligned_end_bytes;
 180afb8:	e0bffc17 	ldw	r2,-16(fp)
 180afbc:	10c02e17 	ldw	r3,184(r2)
 180afc0:	e0bff717 	ldw	r2,-36(fp)
 180afc4:	1885c83a 	sub	r2,r3,r2
 180afc8:	e0bff915 	stw	r2,-28(fp)
    
    for (j=0;j<unaligned_end_bytes;j++)
 180afcc:	e03ff515 	stw	zero,-44(fp)
 180afd0:	00000e06 	br	180b00c <alt_flash_program_block+0x240>
    {
      unaligned[j] = *(alt_u8*)(src_addr+i+j);
 180afd4:	e13ff517 	ldw	r4,-44(fp)
 180afd8:	e0bff617 	ldw	r2,-40(fp)
 180afdc:	1007883a 	mov	r3,r2
 180afe0:	e0bffe17 	ldw	r2,-8(fp)
 180afe4:	1887883a 	add	r3,r3,r2
 180afe8:	e0bff517 	ldw	r2,-44(fp)
 180afec:	1885883a 	add	r2,r3,r2
 180aff0:	10c00003 	ldbu	r3,0(r2)
 180aff4:	e0bffb04 	addi	r2,fp,-20
 180aff8:	1105883a 	add	r2,r2,r4
 180affc:	10c00005 	stb	r3,0(r2)
   */
  if (unaligned_end_bytes && !ret_code)
  {
    bytes_to_preserve = flash->mode_width - unaligned_end_bytes;
    
    for (j=0;j<unaligned_end_bytes;j++)
 180b000:	e0bff517 	ldw	r2,-44(fp)
 180b004:	10800044 	addi	r2,r2,1
 180b008:	e0bff515 	stw	r2,-44(fp)
 180b00c:	e0fff517 	ldw	r3,-44(fp)
 180b010:	e0bff717 	ldw	r2,-36(fp)
 180b014:	18bfef16 	blt	r3,r2,180afd4 <alt_flash_program_block+0x208>
    {
      unaligned[j] = *(alt_u8*)(src_addr+i+j);
    }
    
    for (j=0;j<bytes_to_preserve;j++)
 180b018:	e03ff515 	stw	zero,-44(fp)
 180b01c:	00001406 	br	180b070 <alt_flash_program_block+0x2a4>
    {
      unaligned[unaligned_end_bytes+j] = IORD_8DIRECT(flash->dev.base_addr, 
 180b020:	e0fff717 	ldw	r3,-36(fp)
 180b024:	e0bff517 	ldw	r2,-44(fp)
 180b028:	188b883a 	add	r5,r3,r2
 180b02c:	e0bffc17 	ldw	r2,-16(fp)
 180b030:	10800a17 	ldw	r2,40(r2)
 180b034:	1009883a 	mov	r4,r2
 180b038:	e0fffd17 	ldw	r3,-12(fp)
 180b03c:	e0bfff17 	ldw	r2,-4(fp)
 180b040:	1887883a 	add	r3,r3,r2
 180b044:	e0bff517 	ldw	r2,-44(fp)
 180b048:	1885883a 	add	r2,r3,r2
 180b04c:	2085883a 	add	r2,r4,r2
 180b050:	10800023 	ldbuio	r2,0(r2)
 180b054:	1007883a 	mov	r3,r2
 180b058:	e0bffb04 	addi	r2,fp,-20
 180b05c:	1145883a 	add	r2,r2,r5
 180b060:	10c00005 	stb	r3,0(r2)
    for (j=0;j<unaligned_end_bytes;j++)
    {
      unaligned[j] = *(alt_u8*)(src_addr+i+j);
    }
    
    for (j=0;j<bytes_to_preserve;j++)
 180b064:	e0bff517 	ldw	r2,-44(fp)
 180b068:	10800044 	addi	r2,r2,1
 180b06c:	e0bff515 	stw	r2,-44(fp)
 180b070:	e0fff517 	ldw	r3,-44(fp)
 180b074:	e0bff917 	ldw	r2,-28(fp)
 180b078:	18bfe916 	blt	r3,r2,180b020 <alt_flash_program_block+0x254>
    {
      unaligned[unaligned_end_bytes+j] = IORD_8DIRECT(flash->dev.base_addr, 
                                                      offset+length+j);
    }

    ret_code = (*program_word_func)(flash, offset+i, unaligned);      
 180b07c:	e0fffd17 	ldw	r3,-12(fp)
 180b080:	e0bff617 	ldw	r2,-40(fp)
 180b084:	188b883a 	add	r5,r3,r2
 180b088:	e1bffb04 	addi	r6,fp,-20
 180b08c:	e0800217 	ldw	r2,8(fp)
 180b090:	e13ffc17 	ldw	r4,-16(fp)
 180b094:	103ee83a 	callr	r2
 180b098:	e0bffa15 	stw	r2,-24(fp)
  }

  return ret_code;
 180b09c:	e0bffa17 	ldw	r2,-24(fp)
}
 180b0a0:	e037883a 	mov	sp,fp
 180b0a4:	dfc00117 	ldw	ra,4(sp)
 180b0a8:	df000017 	ldw	fp,0(sp)
 180b0ac:	dec00204 	addi	sp,sp,8
 180b0b0:	f800283a 	ret

0180b0b4 <alt_read_query_entry_8bit>:

/*
 *  Read an 8 bit value from the CFI query table in flash
 */
alt_u8 alt_read_query_entry_8bit( alt_flash_cfi_dev* flash, int address)
{
 180b0b4:	defffd04 	addi	sp,sp,-12
 180b0b8:	df000215 	stw	fp,8(sp)
 180b0bc:	df000204 	addi	fp,sp,8
 180b0c0:	e13ffe15 	stw	r4,-8(fp)
 180b0c4:	e17fff15 	stw	r5,-4(fp)
  return IORD_8DIRECT((alt_u8*)flash->dev.base_addr, address);
 180b0c8:	e0bffe17 	ldw	r2,-8(fp)
 180b0cc:	10800a17 	ldw	r2,40(r2)
 180b0d0:	1007883a 	mov	r3,r2
 180b0d4:	e0bfff17 	ldw	r2,-4(fp)
 180b0d8:	1885883a 	add	r2,r3,r2
 180b0dc:	10800023 	ldbuio	r2,0(r2)
 180b0e0:	10803fcc 	andi	r2,r2,255
}
 180b0e4:	e037883a 	mov	sp,fp
 180b0e8:	df000017 	ldw	fp,0(sp)
 180b0ec:	dec00104 	addi	sp,sp,4
 180b0f0:	f800283a 	ret

0180b0f4 <alt_read_query_entry_16bit>:

alt_u8 alt_read_query_entry_16bit( alt_flash_cfi_dev* flash, int address)
{
 180b0f4:	defffd04 	addi	sp,sp,-12
 180b0f8:	df000215 	stw	fp,8(sp)
 180b0fc:	df000204 	addi	fp,sp,8
 180b100:	e13ffe15 	stw	r4,-8(fp)
 180b104:	e17fff15 	stw	r5,-4(fp)
  return (IORD_16DIRECT((alt_u8*)flash->dev.base_addr, address*2) & 0xff);
 180b108:	e0bffe17 	ldw	r2,-8(fp)
 180b10c:	10800a17 	ldw	r2,40(r2)
 180b110:	1007883a 	mov	r3,r2
 180b114:	e0bfff17 	ldw	r2,-4(fp)
 180b118:	1085883a 	add	r2,r2,r2
 180b11c:	1885883a 	add	r2,r3,r2
 180b120:	1080002b 	ldhuio	r2,0(r2)
 180b124:	10803fcc 	andi	r2,r2,255
}
 180b128:	e037883a 	mov	sp,fp
 180b12c:	df000017 	ldw	fp,0(sp)
 180b130:	dec00104 	addi	sp,sp,4
 180b134:	f800283a 	ret

0180b138 <alt_read_query_entry_32bit>:

alt_u8 alt_read_query_entry_32bit( alt_flash_cfi_dev* flash, int address)
{
 180b138:	defffd04 	addi	sp,sp,-12
 180b13c:	df000215 	stw	fp,8(sp)
 180b140:	df000204 	addi	fp,sp,8
 180b144:	e13ffe15 	stw	r4,-8(fp)
 180b148:	e17fff15 	stw	r5,-4(fp)
  return (IORD_32DIRECT((alt_u8*)flash->dev.base_addr, address*4) & 0xff);
 180b14c:	e0bffe17 	ldw	r2,-8(fp)
 180b150:	10800a17 	ldw	r2,40(r2)
 180b154:	1007883a 	mov	r3,r2
 180b158:	e0bfff17 	ldw	r2,-4(fp)
 180b15c:	1085883a 	add	r2,r2,r2
 180b160:	1085883a 	add	r2,r2,r2
 180b164:	1885883a 	add	r2,r3,r2
 180b168:	10800037 	ldwio	r2,0(r2)
 180b16c:	10803fcc 	andi	r2,r2,255
}
 180b170:	e037883a 	mov	sp,fp
 180b174:	df000017 	ldw	fp,0(sp)
 180b178:	dec00104 	addi	sp,sp,4
 180b17c:	f800283a 	ret

0180b180 <alt_write_flash_command_8bit_device_8bit_mode>:

/*
 * Write an 8 bit command to a flash
 */
void alt_write_flash_command_8bit_device_8bit_mode( void* base_addr, int offset, alt_u8 value)
{
 180b180:	defffc04 	addi	sp,sp,-16
 180b184:	df000315 	stw	fp,12(sp)
 180b188:	df000304 	addi	fp,sp,12
 180b18c:	e13ffd15 	stw	r4,-12(fp)
 180b190:	e17ffe15 	stw	r5,-8(fp)
 180b194:	e1bfff05 	stb	r6,-4(fp)
  IOWR_8DIRECT(base_addr, offset, value);
 180b198:	e0fffd17 	ldw	r3,-12(fp)
 180b19c:	e0bffe17 	ldw	r2,-8(fp)
 180b1a0:	1885883a 	add	r2,r3,r2
 180b1a4:	e0ffff03 	ldbu	r3,-4(fp)
 180b1a8:	10c00025 	stbio	r3,0(r2)
  return;
}
 180b1ac:	e037883a 	mov	sp,fp
 180b1b0:	df000017 	ldw	fp,0(sp)
 180b1b4:	dec00104 	addi	sp,sp,4
 180b1b8:	f800283a 	ret

0180b1bc <alt_write_flash_command_16bit_device_8bit_mode>:

void alt_write_flash_command_16bit_device_8bit_mode( void* base_addr, int offset, alt_u8 value)
{
 180b1bc:	defffc04 	addi	sp,sp,-16
 180b1c0:	df000315 	stw	fp,12(sp)
 180b1c4:	df000304 	addi	fp,sp,12
 180b1c8:	e13ffd15 	stw	r4,-12(fp)
 180b1cc:	e17ffe15 	stw	r5,-8(fp)
 180b1d0:	e1bfff05 	stb	r6,-4(fp)
  if (offset % 2)
 180b1d4:	e0bffe17 	ldw	r2,-8(fp)
 180b1d8:	1080004c 	andi	r2,r2,1
 180b1dc:	10803fcc 	andi	r2,r2,255
 180b1e0:	1005003a 	cmpeq	r2,r2,zero
 180b1e4:	1000081e 	bne	r2,zero,180b208 <alt_write_flash_command_16bit_device_8bit_mode+0x4c>
  {
    IOWR_8DIRECT(base_addr, offset*2, value);
 180b1e8:	e0bffe17 	ldw	r2,-8(fp)
 180b1ec:	1085883a 	add	r2,r2,r2
 180b1f0:	1007883a 	mov	r3,r2
 180b1f4:	e0bffd17 	ldw	r2,-12(fp)
 180b1f8:	1885883a 	add	r2,r3,r2
 180b1fc:	e0ffff03 	ldbu	r3,-4(fp)
 180b200:	10c00025 	stbio	r3,0(r2)
 180b204:	00000806 	br	180b228 <alt_write_flash_command_16bit_device_8bit_mode+0x6c>
  }
  else
  {
    IOWR_8DIRECT(base_addr, (offset*2)+1, value);
 180b208:	e0bffe17 	ldw	r2,-8(fp)
 180b20c:	1085883a 	add	r2,r2,r2
 180b210:	1007883a 	mov	r3,r2
 180b214:	e0bffd17 	ldw	r2,-12(fp)
 180b218:	1885883a 	add	r2,r3,r2
 180b21c:	10800044 	addi	r2,r2,1
 180b220:	e0ffff03 	ldbu	r3,-4(fp)
 180b224:	10c00025 	stbio	r3,0(r2)
  }
  return;
}
 180b228:	e037883a 	mov	sp,fp
 180b22c:	df000017 	ldw	fp,0(sp)
 180b230:	dec00104 	addi	sp,sp,4
 180b234:	f800283a 	ret

0180b238 <alt_write_flash_command_32bit_device_8bit_mode>:

void alt_write_flash_command_32bit_device_8bit_mode( void* base_addr, int offset, alt_u8 value)
{
 180b238:	defffc04 	addi	sp,sp,-16
 180b23c:	df000315 	stw	fp,12(sp)
 180b240:	df000304 	addi	fp,sp,12
 180b244:	e13ffd15 	stw	r4,-12(fp)
 180b248:	e17ffe15 	stw	r5,-8(fp)
 180b24c:	e1bfff05 	stb	r6,-4(fp)
  IOWR_8DIRECT(base_addr, offset*4, value);
 180b250:	e0bffe17 	ldw	r2,-8(fp)
 180b254:	1085883a 	add	r2,r2,r2
 180b258:	1085883a 	add	r2,r2,r2
 180b25c:	1007883a 	mov	r3,r2
 180b260:	e0bffd17 	ldw	r2,-12(fp)
 180b264:	1885883a 	add	r2,r3,r2
 180b268:	e0ffff03 	ldbu	r3,-4(fp)
 180b26c:	10c00025 	stbio	r3,0(r2)
  return;
}
 180b270:	e037883a 	mov	sp,fp
 180b274:	df000017 	ldw	fp,0(sp)
 180b278:	dec00104 	addi	sp,sp,4
 180b27c:	f800283a 	ret

0180b280 <alt_write_flash_command_16bit_device_16bit_mode>:

void alt_write_flash_command_16bit_device_16bit_mode( void* base_addr, int offset, alt_u8 value)
{
 180b280:	defffc04 	addi	sp,sp,-16
 180b284:	df000315 	stw	fp,12(sp)
 180b288:	df000304 	addi	fp,sp,12
 180b28c:	e13ffd15 	stw	r4,-12(fp)
 180b290:	e17ffe15 	stw	r5,-8(fp)
 180b294:	e1bfff05 	stb	r6,-4(fp)
  IOWR_16DIRECT(base_addr, offset*2, ((alt_u16)value)& 0x00ff);
 180b298:	e0bffe17 	ldw	r2,-8(fp)
 180b29c:	1085883a 	add	r2,r2,r2
 180b2a0:	1007883a 	mov	r3,r2
 180b2a4:	e0bffd17 	ldw	r2,-12(fp)
 180b2a8:	1885883a 	add	r2,r3,r2
 180b2ac:	e0ffff03 	ldbu	r3,-4(fp)
 180b2b0:	10c0002d 	sthio	r3,0(r2)
  return;
}
 180b2b4:	e037883a 	mov	sp,fp
 180b2b8:	df000017 	ldw	fp,0(sp)
 180b2bc:	dec00104 	addi	sp,sp,4
 180b2c0:	f800283a 	ret

0180b2c4 <alt_write_flash_command_32bit_device_16bit_mode>:

void alt_write_flash_command_32bit_device_16bit_mode( void* base_addr, int offset, alt_u8 value)
{
 180b2c4:	defffc04 	addi	sp,sp,-16
 180b2c8:	df000315 	stw	fp,12(sp)
 180b2cc:	df000304 	addi	fp,sp,12
 180b2d0:	e13ffd15 	stw	r4,-12(fp)
 180b2d4:	e17ffe15 	stw	r5,-8(fp)
 180b2d8:	e1bfff05 	stb	r6,-4(fp)
  IOWR_16DIRECT(base_addr, offset*4, ((alt_u16)value)& 0x00ff);
 180b2dc:	e0bffe17 	ldw	r2,-8(fp)
 180b2e0:	1085883a 	add	r2,r2,r2
 180b2e4:	1085883a 	add	r2,r2,r2
 180b2e8:	1007883a 	mov	r3,r2
 180b2ec:	e0bffd17 	ldw	r2,-12(fp)
 180b2f0:	1885883a 	add	r2,r3,r2
 180b2f4:	e0ffff03 	ldbu	r3,-4(fp)
 180b2f8:	10c0002d 	sthio	r3,0(r2)
  return;
}
 180b2fc:	e037883a 	mov	sp,fp
 180b300:	df000017 	ldw	fp,0(sp)
 180b304:	dec00104 	addi	sp,sp,4
 180b308:	f800283a 	ret

0180b30c <alt_write_flash_command_32bit_device_32bit_mode>:

void alt_write_flash_command_32bit_device_32bit_mode( void* base_addr, int offset, alt_u8 value)
{
 180b30c:	defffc04 	addi	sp,sp,-16
 180b310:	df000315 	stw	fp,12(sp)
 180b314:	df000304 	addi	fp,sp,12
 180b318:	e13ffd15 	stw	r4,-12(fp)
 180b31c:	e17ffe15 	stw	r5,-8(fp)
 180b320:	e1bfff05 	stb	r6,-4(fp)
  IOWR_32DIRECT(base_addr, offset*4, ((alt_u32)value)& 0x000000ff);
 180b324:	e0bffe17 	ldw	r2,-8(fp)
 180b328:	1085883a 	add	r2,r2,r2
 180b32c:	1085883a 	add	r2,r2,r2
 180b330:	1007883a 	mov	r3,r2
 180b334:	e0bffd17 	ldw	r2,-12(fp)
 180b338:	1885883a 	add	r2,r3,r2
 180b33c:	e0ffff03 	ldbu	r3,-4(fp)
 180b340:	10c00035 	stwio	r3,0(r2)
  return;
}
 180b344:	e037883a 	mov	sp,fp
 180b348:	df000017 	ldw	fp,0(sp)
 180b34c:	dec00104 	addi	sp,sp,4
 180b350:	f800283a 	ret

0180b354 <alt_write_native_8bit>:

/*
 * Write the value passed to the flash
 */
void alt_write_native_8bit( void* address, alt_u32 value)
{
 180b354:	defffd04 	addi	sp,sp,-12
 180b358:	df000215 	stw	fp,8(sp)
 180b35c:	df000204 	addi	fp,sp,8
 180b360:	e13ffe15 	stw	r4,-8(fp)
 180b364:	e17fff15 	stw	r5,-4(fp)
  IOWR_8DIRECT(address, 0, (alt_u8)(value&0xff));
 180b368:	e0bfff17 	ldw	r2,-4(fp)
 180b36c:	10c03fcc 	andi	r3,r2,255
 180b370:	e0bffe17 	ldw	r2,-8(fp)
 180b374:	10c00025 	stbio	r3,0(r2)
  return;
}
 180b378:	e037883a 	mov	sp,fp
 180b37c:	df000017 	ldw	fp,0(sp)
 180b380:	dec00104 	addi	sp,sp,4
 180b384:	f800283a 	ret

0180b388 <alt_write_native_16bit>:

void alt_write_native_16bit( void* address, alt_u32 value)
{
 180b388:	defffd04 	addi	sp,sp,-12
 180b38c:	df000215 	stw	fp,8(sp)
 180b390:	df000204 	addi	fp,sp,8
 180b394:	e13ffe15 	stw	r4,-8(fp)
 180b398:	e17fff15 	stw	r5,-4(fp)
  IOWR_16DIRECT(address, 0, ((alt_u16)value)& 0xffff);
 180b39c:	e0bfff17 	ldw	r2,-4(fp)
 180b3a0:	10ffffcc 	andi	r3,r2,65535
 180b3a4:	e0bffe17 	ldw	r2,-8(fp)
 180b3a8:	10c0002d 	sthio	r3,0(r2)
  return;
}
 180b3ac:	e037883a 	mov	sp,fp
 180b3b0:	df000017 	ldw	fp,0(sp)
 180b3b4:	dec00104 	addi	sp,sp,4
 180b3b8:	f800283a 	ret

0180b3bc <alt_write_native_32bit>:

void alt_write_native_32bit( void* address, alt_u32 value)
{
 180b3bc:	defffd04 	addi	sp,sp,-12
 180b3c0:	df000215 	stw	fp,8(sp)
 180b3c4:	df000204 	addi	fp,sp,8
 180b3c8:	e13ffe15 	stw	r4,-8(fp)
 180b3cc:	e17fff15 	stw	r5,-4(fp)
  IOWR_32DIRECT(address, 0, value);
 180b3d0:	e0ffff17 	ldw	r3,-4(fp)
 180b3d4:	e0bffe17 	ldw	r2,-8(fp)
 180b3d8:	10c00035 	stwio	r3,0(r2)
  return;
}
 180b3dc:	e037883a 	mov	sp,fp
 180b3e0:	df000017 	ldw	fp,0(sp)
 180b3e4:	dec00104 	addi	sp,sp,4
 180b3e8:	f800283a 	ret

0180b3ec <alt_set_flash_width_func>:
 * 
 * Setup the function pointers for writing a byte to the flash for the width
 * of the device
 */
int alt_set_flash_width_func( alt_flash_cfi_dev* flash)
{ 
 180b3ec:	defffb04 	addi	sp,sp,-20
 180b3f0:	df000415 	stw	fp,16(sp)
 180b3f4:	df000404 	addi	fp,sp,16
 180b3f8:	e13ffd15 	stw	r4,-12(fp)
  int ret_code = 0;
 180b3fc:	e03ffc15 	stw	zero,-16(fp)
  
  switch(flash->mode_width)
 180b400:	e0bffd17 	ldw	r2,-12(fp)
 180b404:	10802e17 	ldw	r2,184(r2)
 180b408:	e0bfff15 	stw	r2,-4(fp)
 180b40c:	e0ffff17 	ldw	r3,-4(fp)
 180b410:	188000a0 	cmpeqi	r2,r3,2
 180b414:	1000261e 	bne	r2,zero,180b4b0 <alt_set_flash_width_func+0xc4>
 180b418:	e0ffff17 	ldw	r3,-4(fp)
 180b41c:	18800120 	cmpeqi	r2,r3,4
 180b420:	1000391e 	bne	r2,zero,180b508 <alt_set_flash_width_func+0x11c>
 180b424:	e0ffff17 	ldw	r3,-4(fp)
 180b428:	18800060 	cmpeqi	r2,r3,1
 180b42c:	1000011e 	bne	r2,zero,180b434 <alt_set_flash_width_func+0x48>
 180b430:	00003e06 	br	180b52c <alt_set_flash_width_func+0x140>
  {
    case 1:
    {
      flash->write_native = alt_write_native_8bit;
 180b434:	e0fffd17 	ldw	r3,-12(fp)
 180b438:	00806074 	movhi	r2,385
 180b43c:	10acd504 	addi	r2,r2,-19628
 180b440:	18803515 	stw	r2,212(r3)

      if (flash->device_width == 1)
 180b444:	e0bffd17 	ldw	r2,-12(fp)
 180b448:	10802f17 	ldw	r2,188(r2)
 180b44c:	10800058 	cmpnei	r2,r2,1
 180b450:	1000051e 	bne	r2,zero,180b468 <alt_set_flash_width_func+0x7c>
      {
        flash->write_command = alt_write_flash_command_8bit_device_8bit_mode;
 180b454:	e0fffd17 	ldw	r3,-12(fp)
 180b458:	00806074 	movhi	r2,385
 180b45c:	10ac6004 	addi	r2,r2,-20096
 180b460:	18803315 	stw	r2,204(r3)
 180b464:	00003306 	br	180b534 <alt_set_flash_width_func+0x148>
      }
      else if (flash->device_width == 2)
 180b468:	e0bffd17 	ldw	r2,-12(fp)
 180b46c:	10802f17 	ldw	r2,188(r2)
 180b470:	10800098 	cmpnei	r2,r2,2
 180b474:	1000051e 	bne	r2,zero,180b48c <alt_set_flash_width_func+0xa0>
      {
        flash->write_command = alt_write_flash_command_16bit_device_8bit_mode;
 180b478:	e0fffd17 	ldw	r3,-12(fp)
 180b47c:	00806074 	movhi	r2,385
 180b480:	10ac6f04 	addi	r2,r2,-20036
 180b484:	18803315 	stw	r2,204(r3)
 180b488:	00002a06 	br	180b534 <alt_set_flash_width_func+0x148>
      }
      else if (flash->device_width == 4)
 180b48c:	e0bffd17 	ldw	r2,-12(fp)
 180b490:	10802f17 	ldw	r2,188(r2)
 180b494:	10800118 	cmpnei	r2,r2,4
 180b498:	1000261e 	bne	r2,zero,180b534 <alt_set_flash_width_func+0x148>
      {
        flash->write_command = alt_write_flash_command_32bit_device_8bit_mode;
 180b49c:	e0fffd17 	ldw	r3,-12(fp)
 180b4a0:	00806074 	movhi	r2,385
 180b4a4:	10ac8e04 	addi	r2,r2,-19912
 180b4a8:	18803315 	stw	r2,204(r3)
      }
      break;
 180b4ac:	00002106 	br	180b534 <alt_set_flash_width_func+0x148>
    }
    case 2:
    {
      flash->write_native = alt_write_native_16bit;
 180b4b0:	e0fffd17 	ldw	r3,-12(fp)
 180b4b4:	00806074 	movhi	r2,385
 180b4b8:	10ace204 	addi	r2,r2,-19576
 180b4bc:	18803515 	stw	r2,212(r3)

      if (flash->device_width == 2)
 180b4c0:	e0bffd17 	ldw	r2,-12(fp)
 180b4c4:	10802f17 	ldw	r2,188(r2)
 180b4c8:	10800098 	cmpnei	r2,r2,2
 180b4cc:	1000051e 	bne	r2,zero,180b4e4 <alt_set_flash_width_func+0xf8>
      {
        flash->write_command = alt_write_flash_command_16bit_device_16bit_mode;
 180b4d0:	e0fffd17 	ldw	r3,-12(fp)
 180b4d4:	00806074 	movhi	r2,385
 180b4d8:	10aca004 	addi	r2,r2,-19840
 180b4dc:	18803315 	stw	r2,204(r3)
 180b4e0:	00001406 	br	180b534 <alt_set_flash_width_func+0x148>
      }
      else if (flash->device_width == 4)
 180b4e4:	e0bffd17 	ldw	r2,-12(fp)
 180b4e8:	10802f17 	ldw	r2,188(r2)
 180b4ec:	10800118 	cmpnei	r2,r2,4
 180b4f0:	1000101e 	bne	r2,zero,180b534 <alt_set_flash_width_func+0x148>
      {
        flash->write_command = alt_write_flash_command_32bit_device_16bit_mode;
 180b4f4:	e0fffd17 	ldw	r3,-12(fp)
 180b4f8:	00806074 	movhi	r2,385
 180b4fc:	10acb104 	addi	r2,r2,-19772
 180b500:	18803315 	stw	r2,204(r3)
      }

      break;
 180b504:	00000b06 	br	180b534 <alt_set_flash_width_func+0x148>
    }
    case 4:
    {
      flash->write_native = alt_write_native_32bit;
 180b508:	e0fffd17 	ldw	r3,-12(fp)
 180b50c:	00806074 	movhi	r2,385
 180b510:	10acef04 	addi	r2,r2,-19524
 180b514:	18803515 	stw	r2,212(r3)
      flash->write_command = alt_write_flash_command_32bit_device_32bit_mode;
 180b518:	e0fffd17 	ldw	r3,-12(fp)
 180b51c:	00806074 	movhi	r2,385
 180b520:	10acc304 	addi	r2,r2,-19700
 180b524:	18803315 	stw	r2,204(r3)
      break;
 180b528:	00000206 	br	180b534 <alt_set_flash_width_func+0x148>
    }
    default:
    {
      ret_code = -EACCES;
 180b52c:	00bffcc4 	movi	r2,-13
 180b530:	e0bffc15 	stw	r2,-16(fp)
    }
  }

  if (!ret_code)
 180b534:	e0bffc17 	ldw	r2,-16(fp)
 180b538:	1004c03a 	cmpne	r2,r2,zero
 180b53c:	10001e1e 	bne	r2,zero,180b5b8 <alt_set_flash_width_func+0x1cc>
  {
    switch(flash->device_width)
 180b540:	e0bffd17 	ldw	r2,-12(fp)
 180b544:	10802f17 	ldw	r2,188(r2)
 180b548:	e0bffe15 	stw	r2,-8(fp)
 180b54c:	e0fffe17 	ldw	r3,-8(fp)
 180b550:	188000a0 	cmpeqi	r2,r3,2
 180b554:	10000c1e 	bne	r2,zero,180b588 <alt_set_flash_width_func+0x19c>
 180b558:	e0fffe17 	ldw	r3,-8(fp)
 180b55c:	18800120 	cmpeqi	r2,r3,4
 180b560:	10000e1e 	bne	r2,zero,180b59c <alt_set_flash_width_func+0x1b0>
 180b564:	e0fffe17 	ldw	r3,-8(fp)
 180b568:	18800060 	cmpeqi	r2,r3,1
 180b56c:	1000011e 	bne	r2,zero,180b574 <alt_set_flash_width_func+0x188>
 180b570:	00000f06 	br	180b5b0 <alt_set_flash_width_func+0x1c4>
    {
      case 1:
      {
        flash->read_query = alt_read_query_entry_8bit;
 180b574:	e0fffd17 	ldw	r3,-12(fp)
 180b578:	00806074 	movhi	r2,385
 180b57c:	10ac2d04 	addi	r2,r2,-20300
 180b580:	18803415 	stw	r2,208(r3)
        break;
 180b584:	00000c06 	br	180b5b8 <alt_set_flash_width_func+0x1cc>
      }
      case 2:
      {
        flash->read_query = alt_read_query_entry_16bit;
 180b588:	e0fffd17 	ldw	r3,-12(fp)
 180b58c:	00806074 	movhi	r2,385
 180b590:	10ac3d04 	addi	r2,r2,-20236
 180b594:	18803415 	stw	r2,208(r3)
        break;
 180b598:	00000706 	br	180b5b8 <alt_set_flash_width_func+0x1cc>
      }
      case 4:
      {
        flash->read_query = alt_read_query_entry_32bit;
 180b59c:	e0fffd17 	ldw	r3,-12(fp)
 180b5a0:	00806074 	movhi	r2,385
 180b5a4:	10ac4e04 	addi	r2,r2,-20168
 180b5a8:	18803415 	stw	r2,208(r3)
        break;
 180b5ac:	00000206 	br	180b5b8 <alt_set_flash_width_func+0x1cc>
      }
      default:
      {
        ret_code = -EACCES;
 180b5b0:	00bffcc4 	movi	r2,-13
 180b5b4:	e0bffc15 	stw	r2,-16(fp)
      }
    }
  }

  return ret_code;
 180b5b8:	e0bffc17 	ldw	r2,-16(fp)
}
 180b5bc:	e037883a 	mov	sp,fp
 180b5c0:	df000017 	ldw	fp,0(sp)
 180b5c4:	dec00104 	addi	sp,sp,4
 180b5c8:	f800283a 	ret

0180b5cc <alt_set_flash_algorithm_func>:
 * 
 * Setup the function pointers to the functions for this algorithm
 * 
 */
int alt_set_flash_algorithm_func( alt_flash_cfi_dev* flash)
{
 180b5cc:	defffc04 	addi	sp,sp,-16
 180b5d0:	df000315 	stw	fp,12(sp)
 180b5d4:	df000304 	addi	fp,sp,12
 180b5d8:	e13ffe15 	stw	r4,-8(fp)
  int ret_code = 0;
 180b5dc:	e03ffd15 	stw	zero,-12(fp)
 
  switch(flash->algorithm)
 180b5e0:	e0bffe17 	ldw	r2,-8(fp)
 180b5e4:	10802d17 	ldw	r2,180(r2)
 180b5e8:	e0bfff15 	stw	r2,-4(fp)
 180b5ec:	e0ffff17 	ldw	r3,-4(fp)
 180b5f0:	188000a0 	cmpeqi	r2,r3,2
 180b5f4:	1000071e 	bne	r2,zero,180b614 <alt_set_flash_algorithm_func+0x48>
 180b5f8:	e0ffff17 	ldw	r3,-4(fp)
 180b5fc:	188000e0 	cmpeqi	r2,r3,3
 180b600:	10000d1e 	bne	r2,zero,180b638 <alt_set_flash_algorithm_func+0x6c>
 180b604:	e0ffff17 	ldw	r3,-4(fp)
 180b608:	18800060 	cmpeqi	r2,r3,1
 180b60c:	10000a1e 	bne	r2,zero,180b638 <alt_set_flash_algorithm_func+0x6c>
 180b610:	00001206 	br	180b65c <alt_set_flash_algorithm_func+0x90>
  {
    case CFI_ALG_AMD:
    {
      flash->dev.erase_block = alt_erase_block_amd;
 180b614:	e0fffe17 	ldw	r3,-8(fp)
 180b618:	00806074 	movhi	r2,385
 180b61c:	10be0b04 	addi	r2,r2,-2004
 180b620:	18800815 	stw	r2,32(r3)
      flash->dev.write_block = alt_program_amd;
 180b624:	e0fffe17 	ldw	r3,-8(fp)
 180b628:	00806074 	movhi	r2,385
 180b62c:	10bdf104 	addi	r2,r2,-2108
 180b630:	18800915 	stw	r2,36(r3)
      break;
 180b634:	00000b06 	br	180b664 <alt_set_flash_algorithm_func+0x98>
    }
    case CFI_ALG_INTEL:
    case CFI_ALG_INTEL_STRATA:
    {
      flash->dev.erase_block = alt_erase_block_intel;
 180b638:	e0fffe17 	ldw	r3,-8(fp)
 180b63c:	00806074 	movhi	r2,385
 180b640:	10bf2a04 	addi	r2,r2,-856
 180b644:	18800815 	stw	r2,32(r3)
      flash->dev.write_block = alt_program_intel;
 180b648:	e0fffe17 	ldw	r3,-8(fp)
 180b64c:	00806074 	movhi	r2,385
 180b650:	10bf0904 	addi	r2,r2,-988
 180b654:	18800915 	stw	r2,36(r3)
      break;
 180b658:	00000206 	br	180b664 <alt_set_flash_algorithm_func+0x98>
    }
    default:
    {
      ret_code = -EIO;
 180b65c:	00bffec4 	movi	r2,-5
 180b660:	e0bffd15 	stw	r2,-12(fp)
    }
  } 
  return ret_code;  
 180b664:	e0bffd17 	ldw	r2,-12(fp)
}
 180b668:	e037883a 	mov	sp,fp
 180b66c:	df000017 	ldw	fp,0(sp)
 180b670:	dec00104 	addi	sp,sp,4
 180b674:	f800283a 	ret

0180b678 <alt_read_16bit_query_entry>:
 * read_16bit_query_entry
 * 
 * Read a 16 bit entry from the CFI Query table
 */
static alt_u16 alt_read_16bit_query_entry(alt_flash_cfi_dev* flash, int address)
{
 180b678:	defffb04 	addi	sp,sp,-20
 180b67c:	dfc00415 	stw	ra,16(sp)
 180b680:	df000315 	stw	fp,12(sp)
 180b684:	df000304 	addi	fp,sp,12
 180b688:	e13ffe15 	stw	r4,-8(fp)
 180b68c:	e17fff15 	stw	r5,-4(fp)
  alt_u16 ret_code;

  ret_code = (*flash->read_query)( flash, address);
 180b690:	e0bffe17 	ldw	r2,-8(fp)
 180b694:	10803417 	ldw	r2,208(r2)
 180b698:	e13ffe17 	ldw	r4,-8(fp)
 180b69c:	e17fff17 	ldw	r5,-4(fp)
 180b6a0:	103ee83a 	callr	r2
 180b6a4:	10803fcc 	andi	r2,r2,255
 180b6a8:	e0bffd0d 	sth	r2,-12(fp)
  ret_code |= (((int)(*flash->read_query)(flash, address+1)) << 8);                   
 180b6ac:	e0bffe17 	ldw	r2,-8(fp)
 180b6b0:	10c03417 	ldw	r3,208(r2)
 180b6b4:	e0bfff17 	ldw	r2,-4(fp)
 180b6b8:	11400044 	addi	r5,r2,1
 180b6bc:	e13ffe17 	ldw	r4,-8(fp)
 180b6c0:	183ee83a 	callr	r3
 180b6c4:	10803fcc 	andi	r2,r2,255
 180b6c8:	1004923a 	slli	r2,r2,8
 180b6cc:	1007883a 	mov	r3,r2
 180b6d0:	e0bffd0b 	ldhu	r2,-12(fp)
 180b6d4:	1884b03a 	or	r2,r3,r2
 180b6d8:	e0bffd0d 	sth	r2,-12(fp)

  return ret_code;
 180b6dc:	e0bffd0b 	ldhu	r2,-12(fp)
}
 180b6e0:	e037883a 	mov	sp,fp
 180b6e4:	dfc00117 	ldw	ra,4(sp)
 180b6e8:	df000017 	ldw	fp,0(sp)
 180b6ec:	dec00204 	addi	sp,sp,8
 180b6f0:	f800283a 	ret

0180b6f4 <alt_read_cfi_table>:
 * read_cfi_table
 * 
 * Read the CFI Table
 */
int alt_read_cfi_table(alt_flash_cfi_dev* flash)
{
 180b6f4:	defff204 	addi	sp,sp,-56
 180b6f8:	dfc00d15 	stw	ra,52(sp)
 180b6fc:	df000c15 	stw	fp,48(sp)
 180b700:	dc000b15 	stw	r16,44(sp)
 180b704:	df000b04 	addi	fp,sp,44
 180b708:	e13fff15 	stw	r4,-4(fp)
  int   i,j;
  int   device_size;
  int   ret_code = 0;
 180b70c:	e03ffb15 	stw	zero,-20(fp)
  int   size = 0;
 180b710:	e03ffa15 	stw	zero,-24(fp)
  int   swap;
  int   typical_timeout;
  int   max_timeout;
  int   offset = 0;
 180b714:	e03ff615 	stw	zero,-40(fp)
   
  /*
  * Check that the Primary Vendor Specific table
  * starts with the letters PRI                                                         
  */
  ret_code = alt_check_primary_table(flash);
 180b718:	e13fff17 	ldw	r4,-4(fp)
 180b71c:	180c4200 	call	180c420 <alt_check_primary_table>
 180b720:	e0bffb15 	stw	r2,-20(fp)

  if (!ret_code)
 180b724:	e0bffb17 	ldw	r2,-20(fp)
 180b728:	1004c03a 	cmpne	r2,r2,zero
 180b72c:	10014a1e 	bne	r2,zero,180bc58 <alt_read_cfi_table+0x564>
  {
    flash->algorithm = (*flash->read_query)(flash, 0x13);
 180b730:	e0bfff17 	ldw	r2,-4(fp)
 180b734:	10803417 	ldw	r2,208(r2)
 180b738:	e13fff17 	ldw	r4,-4(fp)
 180b73c:	014004c4 	movi	r5,19
 180b740:	103ee83a 	callr	r2
 180b744:	10c03fcc 	andi	r3,r2,255
 180b748:	e0bfff17 	ldw	r2,-4(fp)
 180b74c:	10c02d15 	stw	r3,180(r2)
  
    /* 
     * Let's read the write timeout values from the flash 
     * 
     */
    typical_timeout = (*flash->read_query)( flash, 0x1f);
 180b750:	e0bfff17 	ldw	r2,-4(fp)
 180b754:	10803417 	ldw	r2,208(r2)
 180b758:	e13fff17 	ldw	r4,-4(fp)
 180b75c:	014007c4 	movi	r5,31
 180b760:	103ee83a 	callr	r2
 180b764:	10803fcc 	andi	r2,r2,255
 180b768:	e0bff815 	stw	r2,-32(fp)
    max_timeout = (*flash->read_query)( flash, 0x23);
 180b76c:	e0bfff17 	ldw	r2,-4(fp)
 180b770:	10803417 	ldw	r2,208(r2)
 180b774:	e13fff17 	ldw	r4,-4(fp)
 180b778:	014008c4 	movi	r5,35
 180b77c:	103ee83a 	callr	r2
 180b780:	10803fcc 	andi	r2,r2,255
 180b784:	e0bff715 	stw	r2,-36(fp)
    
    if ((typical_timeout == 0 ) || (max_timeout == 0))
 180b788:	e0bff817 	ldw	r2,-32(fp)
 180b78c:	1005003a 	cmpeq	r2,r2,zero
 180b790:	1000031e 	bne	r2,zero,180b7a0 <alt_read_cfi_table+0xac>
 180b794:	e0bff717 	ldw	r2,-36(fp)
 180b798:	1004c03a 	cmpne	r2,r2,zero
 180b79c:	1000041e 	bne	r2,zero,180b7b0 <alt_read_cfi_table+0xbc>
    {
      flash->write_timeout = 1000; /* 1ms should be more than enough */
 180b7a0:	e0ffff17 	ldw	r3,-4(fp)
 180b7a4:	0080fa04 	movi	r2,1000
 180b7a8:	18803015 	stw	r2,192(r3)
     * 
     */
    typical_timeout = (*flash->read_query)( flash, 0x1f);
    max_timeout = (*flash->read_query)( flash, 0x23);
    
    if ((typical_timeout == 0 ) || (max_timeout == 0))
 180b7ac:	00000706 	br	180b7cc <alt_read_cfi_table+0xd8>
    {
      flash->write_timeout = 1000; /* 1ms should be more than enough */
    }
    else
    {
      flash->write_timeout = (1 << typical_timeout) * (1 << max_timeout);
 180b7b0:	00c00044 	movi	r3,1
 180b7b4:	e0bff817 	ldw	r2,-32(fp)
 180b7b8:	1886983a 	sll	r3,r3,r2
 180b7bc:	e0bff717 	ldw	r2,-36(fp)
 180b7c0:	1886983a 	sll	r3,r3,r2
 180b7c4:	e0bfff17 	ldw	r2,-4(fp)
 180b7c8:	10c03015 	stw	r3,192(r2)
    }
   
    /* Let's read the block erase timeout values from the flash */
    typical_timeout = (*flash->read_query)( flash, 0x21);
 180b7cc:	e0bfff17 	ldw	r2,-4(fp)
 180b7d0:	10803417 	ldw	r2,208(r2)
 180b7d4:	e13fff17 	ldw	r4,-4(fp)
 180b7d8:	01400844 	movi	r5,33
 180b7dc:	103ee83a 	callr	r2
 180b7e0:	10803fcc 	andi	r2,r2,255
 180b7e4:	e0bff815 	stw	r2,-32(fp)
    max_timeout = (*flash->read_query)( flash, 0x25);
 180b7e8:	e0bfff17 	ldw	r2,-4(fp)
 180b7ec:	10803417 	ldw	r2,208(r2)
 180b7f0:	e13fff17 	ldw	r4,-4(fp)
 180b7f4:	01400944 	movi	r5,37
 180b7f8:	103ee83a 	callr	r2
 180b7fc:	10803fcc 	andi	r2,r2,255
 180b800:	e0bff715 	stw	r2,-36(fp)
    
    if ((typical_timeout == 0 ) || (max_timeout == 0))
 180b804:	e0bff817 	ldw	r2,-32(fp)
 180b808:	1005003a 	cmpeq	r2,r2,zero
 180b80c:	1000031e 	bne	r2,zero,180b81c <alt_read_cfi_table+0x128>
 180b810:	e0bff717 	ldw	r2,-36(fp)
 180b814:	1004c03a 	cmpne	r2,r2,zero
 180b818:	1000051e 	bne	r2,zero,180b830 <alt_read_cfi_table+0x13c>
    {
      flash->erase_timeout = 20000000; /* 20s should be more than enough */
 180b81c:	e0ffff17 	ldw	r3,-4(fp)
 180b820:	00804c74 	movhi	r2,305
 180b824:	108b4004 	addi	r2,r2,11520
 180b828:	18803115 	stw	r2,196(r3)
   
    /* Let's read the block erase timeout values from the flash */
    typical_timeout = (*flash->read_query)( flash, 0x21);
    max_timeout = (*flash->read_query)( flash, 0x25);
    
    if ((typical_timeout == 0 ) || (max_timeout == 0))
 180b82c:	00000806 	br	180b850 <alt_read_cfi_table+0x15c>
    {
      flash->erase_timeout = 20000000; /* 20s should be more than enough */
    }
    else
    {
      flash->erase_timeout = (1 << typical_timeout) * (1 << max_timeout) * 1000;
 180b830:	00c00044 	movi	r3,1
 180b834:	e0bff817 	ldw	r2,-32(fp)
 180b838:	1886983a 	sll	r3,r3,r2
 180b83c:	e0bff717 	ldw	r2,-36(fp)
 180b840:	1884983a 	sll	r2,r3,r2
 180b844:	10c0fa24 	muli	r3,r2,1000
 180b848:	e0bfff17 	ldw	r2,-4(fp)
 180b84c:	10c03115 	stw	r3,196(r2)
    }
   
    device_size = 0x1 << (*flash->read_query)( flash, 0x27);
 180b850:	e0bfff17 	ldw	r2,-4(fp)
 180b854:	10803417 	ldw	r2,208(r2)
 180b858:	e13fff17 	ldw	r4,-4(fp)
 180b85c:	014009c4 	movi	r5,39
 180b860:	103ee83a 	callr	r2
 180b864:	10c03fcc 	andi	r3,r2,255
 180b868:	00800044 	movi	r2,1
 180b86c:	10c4983a 	sll	r2,r2,r3
 180b870:	e0bffc15 	stw	r2,-16(fp)
  
    flash->dev.number_of_regions = (*flash->read_query)(flash, 0x2c);
 180b874:	e0bfff17 	ldw	r2,-4(fp)
 180b878:	10803417 	ldw	r2,208(r2)
 180b87c:	e13fff17 	ldw	r4,-4(fp)
 180b880:	01400b04 	movi	r5,44
 180b884:	103ee83a 	callr	r2
 180b888:	10c03fcc 	andi	r3,r2,255
 180b88c:	e0bfff17 	ldw	r2,-4(fp)
 180b890:	10c00c15 	stw	r3,48(r2)
    
    if (flash->dev.number_of_regions > ALT_MAX_NUMBER_OF_FLASH_REGIONS)
 180b894:	e0bfff17 	ldw	r2,-4(fp)
 180b898:	10800c17 	ldw	r2,48(r2)
 180b89c:	10800250 	cmplti	r2,r2,9
 180b8a0:	1000031e 	bne	r2,zero,180b8b0 <alt_read_cfi_table+0x1bc>
    {
      ret_code = -ENOMEM;
 180b8a4:	00bffd04 	movi	r2,-12
 180b8a8:	e0bffb15 	stw	r2,-20(fp)
 180b8ac:	00005e06 	br	180ba28 <alt_read_cfi_table+0x334>
    }
    else
    {
      for(i=0;i<flash->dev.number_of_regions;i++)
 180b8b0:	e03ffe15 	stw	zero,-8(fp)
 180b8b4:	00005306 	br	180ba04 <alt_read_cfi_table+0x310>
      {
        flash->dev.region_info[i].number_of_blocks =  alt_read_16bit_query_entry( 
 180b8b8:	e43ffe17 	ldw	r16,-8(fp)
 180b8bc:	e0bffe17 	ldw	r2,-8(fp)
 180b8c0:	1085883a 	add	r2,r2,r2
 180b8c4:	1085883a 	add	r2,r2,r2
 180b8c8:	11400b44 	addi	r5,r2,45
 180b8cc:	e13fff17 	ldw	r4,-4(fp)
 180b8d0:	180b6780 	call	180b678 <alt_read_16bit_query_entry>
 180b8d4:	113fffcc 	andi	r4,r2,65535
 180b8d8:	e0ffff17 	ldw	r3,-4(fp)
 180b8dc:	8004913a 	slli	r2,r16,4
 180b8e0:	10c5883a 	add	r2,r2,r3
 180b8e4:	10800f04 	addi	r2,r2,60
 180b8e8:	11000015 	stw	r4,0(r2)
                                                            flash,
                                                            (0x2D+i*4));
        flash->dev.region_info[i].number_of_blocks += 1; 
 180b8ec:	e17ffe17 	ldw	r5,-8(fp)
 180b8f0:	e0bffe17 	ldw	r2,-8(fp)
 180b8f4:	e0ffff17 	ldw	r3,-4(fp)
 180b8f8:	1004913a 	slli	r2,r2,4
 180b8fc:	10c5883a 	add	r2,r2,r3
 180b900:	10800f04 	addi	r2,r2,60
 180b904:	10800017 	ldw	r2,0(r2)
 180b908:	11000044 	addi	r4,r2,1
 180b90c:	e0ffff17 	ldw	r3,-4(fp)
 180b910:	2804913a 	slli	r2,r5,4
 180b914:	10c5883a 	add	r2,r2,r3
 180b918:	10800f04 	addi	r2,r2,60
 180b91c:	11000015 	stw	r4,0(r2)
        flash->dev.region_info[i].block_size =  alt_read_16bit_query_entry( flash, 
 180b920:	e43ffe17 	ldw	r16,-8(fp)
 180b924:	e0bffe17 	ldw	r2,-8(fp)
 180b928:	1085883a 	add	r2,r2,r2
 180b92c:	1085883a 	add	r2,r2,r2
 180b930:	11400bc4 	addi	r5,r2,47
 180b934:	e13fff17 	ldw	r4,-4(fp)
 180b938:	180b6780 	call	180b678 <alt_read_16bit_query_entry>
 180b93c:	113fffcc 	andi	r4,r2,65535
 180b940:	e0ffff17 	ldw	r3,-4(fp)
 180b944:	8004913a 	slli	r2,r16,4
 180b948:	10c5883a 	add	r2,r2,r3
 180b94c:	10801004 	addi	r2,r2,64
 180b950:	11000015 	stw	r4,0(r2)
                                                              (0x2F+i*4));
        flash->dev.region_info[i].block_size *= 256;
 180b954:	e17ffe17 	ldw	r5,-8(fp)
 180b958:	e0bffe17 	ldw	r2,-8(fp)
 180b95c:	e0ffff17 	ldw	r3,-4(fp)
 180b960:	1004913a 	slli	r2,r2,4
 180b964:	10c5883a 	add	r2,r2,r3
 180b968:	10801004 	addi	r2,r2,64
 180b96c:	10800017 	ldw	r2,0(r2)
 180b970:	1008923a 	slli	r4,r2,8
 180b974:	e0ffff17 	ldw	r3,-4(fp)
 180b978:	2804913a 	slli	r2,r5,4
 180b97c:	10c5883a 	add	r2,r2,r3
 180b980:	10801004 	addi	r2,r2,64
 180b984:	11000015 	stw	r4,0(r2)
        flash->dev.region_info[i].region_size = 
 180b988:	e17ffe17 	ldw	r5,-8(fp)
 180b98c:	e0bffe17 	ldw	r2,-8(fp)
 180b990:	e0ffff17 	ldw	r3,-4(fp)
 180b994:	1004913a 	slli	r2,r2,4
 180b998:	10c5883a 	add	r2,r2,r3
 180b99c:	10800f04 	addi	r2,r2,60
 180b9a0:	11000017 	ldw	r4,0(r2)
 180b9a4:	e0bffe17 	ldw	r2,-8(fp)
 180b9a8:	e0ffff17 	ldw	r3,-4(fp)
 180b9ac:	1004913a 	slli	r2,r2,4
 180b9b0:	10c5883a 	add	r2,r2,r3
 180b9b4:	10801004 	addi	r2,r2,64
 180b9b8:	10800017 	ldw	r2,0(r2)
 180b9bc:	2089383a 	mul	r4,r4,r2
 180b9c0:	e0ffff17 	ldw	r3,-4(fp)
 180b9c4:	2804913a 	slli	r2,r5,4
 180b9c8:	10c5883a 	add	r2,r2,r3
 180b9cc:	10800e04 	addi	r2,r2,56
 180b9d0:	11000015 	stw	r4,0(r2)
                                    flash->dev.region_info[i].number_of_blocks 
                                    * flash->dev.region_info[i].block_size;
        size += flash->dev.region_info[i].region_size;
 180b9d4:	e0bffe17 	ldw	r2,-8(fp)
 180b9d8:	e0ffff17 	ldw	r3,-4(fp)
 180b9dc:	1004913a 	slli	r2,r2,4
 180b9e0:	10c5883a 	add	r2,r2,r3
 180b9e4:	10800e04 	addi	r2,r2,56
 180b9e8:	10c00017 	ldw	r3,0(r2)
 180b9ec:	e0bffa17 	ldw	r2,-24(fp)
 180b9f0:	10c5883a 	add	r2,r2,r3
 180b9f4:	e0bffa15 	stw	r2,-24(fp)
    {
      ret_code = -ENOMEM;
    }
    else
    {
      for(i=0;i<flash->dev.number_of_regions;i++)
 180b9f8:	e0bffe17 	ldw	r2,-8(fp)
 180b9fc:	10800044 	addi	r2,r2,1
 180ba00:	e0bffe15 	stw	r2,-8(fp)
 180ba04:	e0bfff17 	ldw	r2,-4(fp)
 180ba08:	10c00c17 	ldw	r3,48(r2)
 180ba0c:	e0bffe17 	ldw	r2,-8(fp)
 180ba10:	10ffa916 	blt	r2,r3,180b8b8 <alt_read_cfi_table+0x1c4>
                                    flash->dev.region_info[i].number_of_blocks 
                                    * flash->dev.region_info[i].block_size;
        size += flash->dev.region_info[i].region_size;
      }
       
      if (size != device_size)
 180ba14:	e0fffa17 	ldw	r3,-24(fp)
 180ba18:	e0bffc17 	ldw	r2,-16(fp)
 180ba1c:	18800226 	beq	r3,r2,180ba28 <alt_read_cfi_table+0x334>
      {
        ret_code = -ENODEV;
 180ba20:	00bffb44 	movi	r2,-19
 180ba24:	e0bffb15 	stw	r2,-20(fp)
      }
    }
    
    boot_mode = (*flash->read_query)( flash, flash->primary_address + 0xf);
 180ba28:	e0bfff17 	ldw	r2,-4(fp)
 180ba2c:	10c03417 	ldw	r3,208(r2)
 180ba30:	e0bfff17 	ldw	r2,-4(fp)
 180ba34:	10803217 	ldw	r2,200(r2)
 180ba38:	114003c4 	addi	r5,r2,15
 180ba3c:	e13fff17 	ldw	r4,-4(fp)
 180ba40:	183ee83a 	callr	r3
 180ba44:	e0bff505 	stb	r2,-44(fp)
     * Intel Flash parts describe the sections in the order they appear
     * for AMD they just put all the small ones first then the bigger ones
     * So if it's a top boot part we have to reverse the order of the sectors
     * so they're in the correct order
     */
    if ((flash->algorithm == CFI_ALG_AMD) && (boot_mode == TOP_BOOT_DEVICE))
 180ba48:	e0bfff17 	ldw	r2,-4(fp)
 180ba4c:	10802d17 	ldw	r2,180(r2)
 180ba50:	10800098 	cmpnei	r2,r2,2
 180ba54:	1000601e 	bne	r2,zero,180bbd8 <alt_read_cfi_table+0x4e4>
 180ba58:	e0bff503 	ldbu	r2,-44(fp)
 180ba5c:	108000d8 	cmpnei	r2,r2,3
 180ba60:	10005d1e 	bne	r2,zero,180bbd8 <alt_read_cfi_table+0x4e4>
    {
      for(i=flash->dev.number_of_regions-1, j=0;
 180ba64:	e0bfff17 	ldw	r2,-4(fp)
 180ba68:	10800c17 	ldw	r2,48(r2)
 180ba6c:	10bfffc4 	addi	r2,r2,-1
 180ba70:	e0bffe15 	stw	r2,-8(fp)
 180ba74:	e03ffd15 	stw	zero,-12(fp)
          j<=i;i--,j++)
 180ba78:	00005406 	br	180bbcc <alt_read_cfi_table+0x4d8>
      {
        swap = flash->dev.region_info[i].region_size;
 180ba7c:	e0bffe17 	ldw	r2,-8(fp)
 180ba80:	e0ffff17 	ldw	r3,-4(fp)
 180ba84:	1004913a 	slli	r2,r2,4
 180ba88:	10c5883a 	add	r2,r2,r3
 180ba8c:	10800e04 	addi	r2,r2,56
 180ba90:	10800017 	ldw	r2,0(r2)
 180ba94:	e0bff915 	stw	r2,-28(fp)
        flash->dev.region_info[i].region_size =  
 180ba98:	e17ffe17 	ldw	r5,-8(fp)
 180ba9c:	e0bffd17 	ldw	r2,-12(fp)
 180baa0:	e0ffff17 	ldw	r3,-4(fp)
 180baa4:	1004913a 	slli	r2,r2,4
 180baa8:	10c5883a 	add	r2,r2,r3
 180baac:	10800e04 	addi	r2,r2,56
 180bab0:	11000017 	ldw	r4,0(r2)
 180bab4:	e0ffff17 	ldw	r3,-4(fp)
 180bab8:	2804913a 	slli	r2,r5,4
 180babc:	10c5883a 	add	r2,r2,r3
 180bac0:	10800e04 	addi	r2,r2,56
 180bac4:	11000015 	stw	r4,0(r2)
                                flash->dev.region_info[j].region_size;
        flash->dev.region_info[j].region_size = swap;
 180bac8:	e0bffd17 	ldw	r2,-12(fp)
 180bacc:	e0ffff17 	ldw	r3,-4(fp)
 180bad0:	1004913a 	slli	r2,r2,4
 180bad4:	10c5883a 	add	r2,r2,r3
 180bad8:	10c00e04 	addi	r3,r2,56
 180badc:	e0bff917 	ldw	r2,-28(fp)
 180bae0:	18800015 	stw	r2,0(r3)

        swap = flash->dev.region_info[i].block_size;
 180bae4:	e0bffe17 	ldw	r2,-8(fp)
 180bae8:	e0ffff17 	ldw	r3,-4(fp)
 180baec:	1004913a 	slli	r2,r2,4
 180baf0:	10c5883a 	add	r2,r2,r3
 180baf4:	10801004 	addi	r2,r2,64
 180baf8:	10800017 	ldw	r2,0(r2)
 180bafc:	e0bff915 	stw	r2,-28(fp)
        flash->dev.region_info[i].block_size =  
 180bb00:	e17ffe17 	ldw	r5,-8(fp)
 180bb04:	e0bffd17 	ldw	r2,-12(fp)
 180bb08:	e0ffff17 	ldw	r3,-4(fp)
 180bb0c:	1004913a 	slli	r2,r2,4
 180bb10:	10c5883a 	add	r2,r2,r3
 180bb14:	10801004 	addi	r2,r2,64
 180bb18:	11000017 	ldw	r4,0(r2)
 180bb1c:	e0ffff17 	ldw	r3,-4(fp)
 180bb20:	2804913a 	slli	r2,r5,4
 180bb24:	10c5883a 	add	r2,r2,r3
 180bb28:	10801004 	addi	r2,r2,64
 180bb2c:	11000015 	stw	r4,0(r2)
                                flash->dev.region_info[j].block_size;
        flash->dev.region_info[j].block_size = swap;
 180bb30:	e0bffd17 	ldw	r2,-12(fp)
 180bb34:	e0ffff17 	ldw	r3,-4(fp)
 180bb38:	1004913a 	slli	r2,r2,4
 180bb3c:	10c5883a 	add	r2,r2,r3
 180bb40:	10c01004 	addi	r3,r2,64
 180bb44:	e0bff917 	ldw	r2,-28(fp)
 180bb48:	18800015 	stw	r2,0(r3)
 
        swap = flash->dev.region_info[i].number_of_blocks;
 180bb4c:	e0bffe17 	ldw	r2,-8(fp)
 180bb50:	e0ffff17 	ldw	r3,-4(fp)
 180bb54:	1004913a 	slli	r2,r2,4
 180bb58:	10c5883a 	add	r2,r2,r3
 180bb5c:	10800f04 	addi	r2,r2,60
 180bb60:	10800017 	ldw	r2,0(r2)
 180bb64:	e0bff915 	stw	r2,-28(fp)
        flash->dev.region_info[i].number_of_blocks =  
 180bb68:	e17ffe17 	ldw	r5,-8(fp)
 180bb6c:	e0bffd17 	ldw	r2,-12(fp)
 180bb70:	e0ffff17 	ldw	r3,-4(fp)
 180bb74:	1004913a 	slli	r2,r2,4
 180bb78:	10c5883a 	add	r2,r2,r3
 180bb7c:	10800f04 	addi	r2,r2,60
 180bb80:	11000017 	ldw	r4,0(r2)
 180bb84:	e0ffff17 	ldw	r3,-4(fp)
 180bb88:	2804913a 	slli	r2,r5,4
 180bb8c:	10c5883a 	add	r2,r2,r3
 180bb90:	10800f04 	addi	r2,r2,60
 180bb94:	11000015 	stw	r4,0(r2)
                                flash->dev.region_info[j].number_of_blocks;
        flash->dev.region_info[j].number_of_blocks = swap;
 180bb98:	e0bffd17 	ldw	r2,-12(fp)
 180bb9c:	e0ffff17 	ldw	r3,-4(fp)
 180bba0:	1004913a 	slli	r2,r2,4
 180bba4:	10c5883a 	add	r2,r2,r3
 180bba8:	10c00f04 	addi	r3,r2,60
 180bbac:	e0bff917 	ldw	r2,-28(fp)
 180bbb0:	18800015 	stw	r2,0(r3)
     * so they're in the correct order
     */
    if ((flash->algorithm == CFI_ALG_AMD) && (boot_mode == TOP_BOOT_DEVICE))
    {
      for(i=flash->dev.number_of_regions-1, j=0;
          j<=i;i--,j++)
 180bbb4:	e0bffe17 	ldw	r2,-8(fp)
 180bbb8:	10bfffc4 	addi	r2,r2,-1
 180bbbc:	e0bffe15 	stw	r2,-8(fp)
 180bbc0:	e0bffd17 	ldw	r2,-12(fp)
 180bbc4:	10800044 	addi	r2,r2,1
 180bbc8:	e0bffd15 	stw	r2,-12(fp)
 180bbcc:	e0fffd17 	ldw	r3,-12(fp)
 180bbd0:	e0bffe17 	ldw	r2,-8(fp)
 180bbd4:	10ffa90e 	bge	r2,r3,180ba7c <alt_read_cfi_table+0x388>
        flash->dev.region_info[j].number_of_blocks = swap;

      } 
    }
    
    for(i=0;i<flash->dev.number_of_regions;i++)
 180bbd8:	e03ffe15 	stw	zero,-8(fp)
 180bbdc:	00001306 	br	180bc2c <alt_read_cfi_table+0x538>
    {
      flash->dev.region_info[i].offset = offset;
 180bbe0:	e0bffe17 	ldw	r2,-8(fp)
 180bbe4:	e0ffff17 	ldw	r3,-4(fp)
 180bbe8:	1004913a 	slli	r2,r2,4
 180bbec:	10c5883a 	add	r2,r2,r3
 180bbf0:	10c00d04 	addi	r3,r2,52
 180bbf4:	e0bff617 	ldw	r2,-40(fp)
 180bbf8:	18800015 	stw	r2,0(r3)
      offset += flash->dev.region_info[i].region_size;
 180bbfc:	e0bffe17 	ldw	r2,-8(fp)
 180bc00:	e0ffff17 	ldw	r3,-4(fp)
 180bc04:	1004913a 	slli	r2,r2,4
 180bc08:	10c5883a 	add	r2,r2,r3
 180bc0c:	10800e04 	addi	r2,r2,56
 180bc10:	10c00017 	ldw	r3,0(r2)
 180bc14:	e0bff617 	ldw	r2,-40(fp)
 180bc18:	10c5883a 	add	r2,r2,r3
 180bc1c:	e0bff615 	stw	r2,-40(fp)
        flash->dev.region_info[j].number_of_blocks = swap;

      } 
    }
    
    for(i=0;i<flash->dev.number_of_regions;i++)
 180bc20:	e0bffe17 	ldw	r2,-8(fp)
 180bc24:	10800044 	addi	r2,r2,1
 180bc28:	e0bffe15 	stw	r2,-8(fp)
 180bc2c:	e0bfff17 	ldw	r2,-4(fp)
 180bc30:	10c00c17 	ldw	r3,48(r2)
 180bc34:	e0bffe17 	ldw	r2,-8(fp)
 180bc38:	10ffe916 	blt	r2,r3,180bbe0 <alt_read_cfi_table+0x4ec>
    {
      flash->dev.region_info[i].offset = offset;
      offset += flash->dev.region_info[i].region_size;
    }
    
    (*flash->write_command)(flash->dev.base_addr, 
 180bc3c:	e0bfff17 	ldw	r2,-4(fp)
 180bc40:	10c03317 	ldw	r3,204(r2)
 180bc44:	e0bfff17 	ldw	r2,-4(fp)
 180bc48:	11000a17 	ldw	r4,40(r2)
 180bc4c:	01401544 	movi	r5,85
 180bc50:	01803fc4 	movi	r6,255
 180bc54:	183ee83a 	callr	r3
                            0x55, 
                            READ_ARRAY_MODE);
  }  

  return ret_code;
 180bc58:	e0bffb17 	ldw	r2,-20(fp)
}
 180bc5c:	e037883a 	mov	sp,fp
 180bc60:	dfc00217 	ldw	ra,8(sp)
 180bc64:	df000117 	ldw	fp,4(sp)
 180bc68:	dc000017 	ldw	r16,0(sp)
 180bc6c:	dec00304 	addi	sp,sp,12
 180bc70:	f800283a 	ret

0180bc74 <alt_read_cfi_width>:
 * 
 * Work out the width of the device we're talking to and sanity check that we  
 * can read the CFI and the Primary Vendor specific Table
 */
int alt_read_cfi_width(alt_flash_cfi_dev* flash)
{
 180bc74:	defff704 	addi	sp,sp,-36
 180bc78:	dfc00815 	stw	ra,32(sp)
 180bc7c:	df000715 	stw	fp,28(sp)
 180bc80:	df000704 	addi	fp,sp,28
 180bc84:	e13fff15 	stw	r4,-4(fp)
  int i;
  alt_u8 byte_id[12];
  alt_u16 iface;
  int ret_code = 0;
 180bc88:	e03ff915 	stw	zero,-28(fp)

  /*
  * Check for 8 bit wide flash
  */
  alt_write_flash_command_8bit_device_8bit_mode(flash->dev.base_addr, 0x55, QUERY_MODE);
 180bc8c:	e0bfff17 	ldw	r2,-4(fp)
 180bc90:	11000a17 	ldw	r4,40(r2)
 180bc94:	01401544 	movi	r5,85
 180bc98:	01802604 	movi	r6,152
 180bc9c:	180b1800 	call	180b180 <alt_write_flash_command_8bit_device_8bit_mode>

  for(i=0;i<3;i++)
 180bca0:	e03ffb15 	stw	zero,-20(fp)
 180bca4:	00000f06 	br	180bce4 <alt_read_cfi_width+0x70>
  {
    byte_id[i] = IORD_8DIRECT(flash->dev.base_addr, QUERY_ADDR+i);
 180bca8:	e13ffb17 	ldw	r4,-20(fp)
 180bcac:	e0bfff17 	ldw	r2,-4(fp)
 180bcb0:	10800a17 	ldw	r2,40(r2)
 180bcb4:	1007883a 	mov	r3,r2
 180bcb8:	e0bffb17 	ldw	r2,-20(fp)
 180bcbc:	1885883a 	add	r2,r3,r2
 180bcc0:	10800404 	addi	r2,r2,16
 180bcc4:	10800023 	ldbuio	r2,0(r2)
 180bcc8:	1007883a 	mov	r3,r2
 180bccc:	e0bffc04 	addi	r2,fp,-16
 180bcd0:	1105883a 	add	r2,r2,r4
 180bcd4:	10c00005 	stb	r3,0(r2)
  /*
  * Check for 8 bit wide flash
  */
  alt_write_flash_command_8bit_device_8bit_mode(flash->dev.base_addr, 0x55, QUERY_MODE);

  for(i=0;i<3;i++)
 180bcd8:	e0bffb17 	ldw	r2,-20(fp)
 180bcdc:	10800044 	addi	r2,r2,1
 180bce0:	e0bffb15 	stw	r2,-20(fp)
 180bce4:	e0bffb17 	ldw	r2,-20(fp)
 180bce8:	108000d0 	cmplti	r2,r2,3
 180bcec:	103fee1e 	bne	r2,zero,180bca8 <alt_read_cfi_width+0x34>
  {
    byte_id[i] = IORD_8DIRECT(flash->dev.base_addr, QUERY_ADDR+i);
  }

  if ((byte_id[0] == 'Q') &&
 180bcf0:	e0bffc03 	ldbu	r2,-16(fp)
 180bcf4:	10803fcc 	andi	r2,r2,255
 180bcf8:	10801458 	cmpnei	r2,r2,81
 180bcfc:	10001d1e 	bne	r2,zero,180bd74 <alt_read_cfi_width+0x100>
 180bd00:	e0bffc43 	ldbu	r2,-15(fp)
 180bd04:	10803fcc 	andi	r2,r2,255
 180bd08:	10801498 	cmpnei	r2,r2,82
 180bd0c:	1000191e 	bne	r2,zero,180bd74 <alt_read_cfi_width+0x100>
 180bd10:	e0bffc83 	ldbu	r2,-14(fp)
 180bd14:	10803fcc 	andi	r2,r2,255
 180bd18:	10801658 	cmpnei	r2,r2,89
 180bd1c:	1000151e 	bne	r2,zero,180bd74 <alt_read_cfi_width+0x100>
      (byte_id[1] == 'R') &&
      (byte_id[2] == 'Y'))
  {
    flash->mode_width = 1;
 180bd20:	e0ffff17 	ldw	r3,-4(fp)
 180bd24:	00800044 	movi	r2,1
 180bd28:	18802e15 	stw	r2,184(r3)
    flash->device_width = 1; 
 180bd2c:	e0ffff17 	ldw	r3,-4(fp)
 180bd30:	00800044 	movi	r2,1
 180bd34:	18802f15 	stw	r2,188(r3)
    iface = IORD_16DIRECT(flash->dev.base_addr, INTERFACE_ADDR);
 180bd38:	e0bfff17 	ldw	r2,-4(fp)
 180bd3c:	10800a17 	ldw	r2,40(r2)
 180bd40:	10800a04 	addi	r2,r2,40
 180bd44:	1080002b 	ldhuio	r2,0(r2)
 180bd48:	e0bffa0d 	sth	r2,-24(fp)
    iface += 1;
 180bd4c:	e0bffa0b 	ldhu	r2,-24(fp)
 180bd50:	10800044 	addi	r2,r2,1
 180bd54:	e0bffa0d 	sth	r2,-24(fp)
    if (!(iface & 0x1))
 180bd58:	e0bffa0b 	ldhu	r2,-24(fp)
 180bd5c:	1080004c 	andi	r2,r2,1
 180bd60:	1004c03a 	cmpne	r2,r2,zero
 180bd64:	1001a81e 	bne	r2,zero,180c408 <alt_read_cfi_width+0x794>
    {
      ret_code = -ENODEV;
 180bd68:	00bffb44 	movi	r2,-19
 180bd6c:	e0bff915 	stw	r2,-28(fp)
  for(i=0;i<3;i++)
  {
    byte_id[i] = IORD_8DIRECT(flash->dev.base_addr, QUERY_ADDR+i);
  }

  if ((byte_id[0] == 'Q') &&
 180bd70:	0001a506 	br	180c408 <alt_read_cfi_width+0x794>
  else
  {
    /*
    * Check for 8/16 bit in byte wide mode
    */
    alt_write_flash_command_16bit_device_8bit_mode(flash->dev.base_addr, 0x55, QUERY_MODE);
 180bd74:	e0bfff17 	ldw	r2,-4(fp)
 180bd78:	11000a17 	ldw	r4,40(r2)
 180bd7c:	01401544 	movi	r5,85
 180bd80:	01802604 	movi	r6,152
 180bd84:	180b1bc0 	call	180b1bc <alt_write_flash_command_16bit_device_8bit_mode>
    for(i=0;i<6;i++)
 180bd88:	e03ffb15 	stw	zero,-20(fp)
 180bd8c:	00000f06 	br	180bdcc <alt_read_cfi_width+0x158>
    {
      byte_id[i] = IORD_8DIRECT(flash->dev.base_addr, (QUERY_ADDR*2)+i);
 180bd90:	e13ffb17 	ldw	r4,-20(fp)
 180bd94:	e0bfff17 	ldw	r2,-4(fp)
 180bd98:	10800a17 	ldw	r2,40(r2)
 180bd9c:	1007883a 	mov	r3,r2
 180bda0:	e0bffb17 	ldw	r2,-20(fp)
 180bda4:	1885883a 	add	r2,r3,r2
 180bda8:	10800804 	addi	r2,r2,32
 180bdac:	10800023 	ldbuio	r2,0(r2)
 180bdb0:	1007883a 	mov	r3,r2
 180bdb4:	e0bffc04 	addi	r2,fp,-16
 180bdb8:	1105883a 	add	r2,r2,r4
 180bdbc:	10c00005 	stb	r3,0(r2)
  {
    /*
    * Check for 8/16 bit in byte wide mode
    */
    alt_write_flash_command_16bit_device_8bit_mode(flash->dev.base_addr, 0x55, QUERY_MODE);
    for(i=0;i<6;i++)
 180bdc0:	e0bffb17 	ldw	r2,-20(fp)
 180bdc4:	10800044 	addi	r2,r2,1
 180bdc8:	e0bffb15 	stw	r2,-20(fp)
 180bdcc:	e0bffb17 	ldw	r2,-20(fp)
 180bdd0:	10800190 	cmplti	r2,r2,6
 180bdd4:	103fee1e 	bne	r2,zero,180bd90 <alt_read_cfi_width+0x11c>
    {
      byte_id[i] = IORD_8DIRECT(flash->dev.base_addr, (QUERY_ADDR*2)+i);
    }

    if ((byte_id[0] == 'Q') && 
 180bdd8:	e0bffc03 	ldbu	r2,-16(fp)
 180bddc:	10803fcc 	andi	r2,r2,255
 180bde0:	10801458 	cmpnei	r2,r2,81
 180bde4:	1000291e 	bne	r2,zero,180be8c <alt_read_cfi_width+0x218>
 180bde8:	e0bffc43 	ldbu	r2,-15(fp)
 180bdec:	10803fcc 	andi	r2,r2,255
 180bdf0:	10801458 	cmpnei	r2,r2,81
 180bdf4:	1000251e 	bne	r2,zero,180be8c <alt_read_cfi_width+0x218>
 180bdf8:	e0bffc83 	ldbu	r2,-14(fp)
 180bdfc:	10803fcc 	andi	r2,r2,255
 180be00:	10801498 	cmpnei	r2,r2,82
 180be04:	1000211e 	bne	r2,zero,180be8c <alt_read_cfi_width+0x218>
 180be08:	e0bffcc3 	ldbu	r2,-13(fp)
 180be0c:	10803fcc 	andi	r2,r2,255
 180be10:	10801498 	cmpnei	r2,r2,82
 180be14:	10001d1e 	bne	r2,zero,180be8c <alt_read_cfi_width+0x218>
 180be18:	e0bffd03 	ldbu	r2,-12(fp)
 180be1c:	10803fcc 	andi	r2,r2,255
 180be20:	10801658 	cmpnei	r2,r2,89
 180be24:	1000191e 	bne	r2,zero,180be8c <alt_read_cfi_width+0x218>
 180be28:	e0bffd43 	ldbu	r2,-11(fp)
 180be2c:	10803fcc 	andi	r2,r2,255
 180be30:	10801658 	cmpnei	r2,r2,89
 180be34:	1000151e 	bne	r2,zero,180be8c <alt_read_cfi_width+0x218>
        (byte_id[2] == 'R') &&
        (byte_id[3] == 'R') && 
        (byte_id[4] == 'Y') && 
        (byte_id[5] == 'Y'))
    {
      flash->mode_width = 1;
 180be38:	e0ffff17 	ldw	r3,-4(fp)
 180be3c:	00800044 	movi	r2,1
 180be40:	18802e15 	stw	r2,184(r3)
      flash->device_width = 2; 
 180be44:	e0ffff17 	ldw	r3,-4(fp)
 180be48:	00800084 	movi	r2,2
 180be4c:	18802f15 	stw	r2,188(r3)
      iface = IORD_16DIRECT(flash->dev.base_addr, INTERFACE_ADDR*2);
 180be50:	e0bfff17 	ldw	r2,-4(fp)
 180be54:	10800a17 	ldw	r2,40(r2)
 180be58:	10801404 	addi	r2,r2,80
 180be5c:	1080002b 	ldhuio	r2,0(r2)
 180be60:	e0bffa0d 	sth	r2,-24(fp)
      iface += 1;
 180be64:	e0bffa0b 	ldhu	r2,-24(fp)
 180be68:	10800044 	addi	r2,r2,1
 180be6c:	e0bffa0d 	sth	r2,-24(fp)
      if (!(iface & 0x1))
 180be70:	e0bffa0b 	ldhu	r2,-24(fp)
 180be74:	1080004c 	andi	r2,r2,1
 180be78:	1004c03a 	cmpne	r2,r2,zero
 180be7c:	1001621e 	bne	r2,zero,180c408 <alt_read_cfi_width+0x794>
      {
        ret_code = -ENODEV;
 180be80:	00bffb44 	movi	r2,-19
 180be84:	e0bff915 	stw	r2,-28(fp)
    for(i=0;i<6;i++)
    {
      byte_id[i] = IORD_8DIRECT(flash->dev.base_addr, (QUERY_ADDR*2)+i);
    }

    if ((byte_id[0] == 'Q') && 
 180be88:	00015f06 	br	180c408 <alt_read_cfi_width+0x794>
    else
    {
      /*
      * Check for 16 bit flash in word mode
      */
      alt_write_flash_command_16bit_device_16bit_mode(flash->dev.base_addr, 0x55, QUERY_MODE);
 180be8c:	e0bfff17 	ldw	r2,-4(fp)
 180be90:	11000a17 	ldw	r4,40(r2)
 180be94:	01401544 	movi	r5,85
 180be98:	01802604 	movi	r6,152
 180be9c:	180b2800 	call	180b280 <alt_write_flash_command_16bit_device_16bit_mode>
      for(i=0;i<6;i++)
 180bea0:	e03ffb15 	stw	zero,-20(fp)
 180bea4:	00000f06 	br	180bee4 <alt_read_cfi_width+0x270>
      {
        byte_id[i] = IORD_8DIRECT(flash->dev.base_addr, (QUERY_ADDR*2)+i);
 180bea8:	e13ffb17 	ldw	r4,-20(fp)
 180beac:	e0bfff17 	ldw	r2,-4(fp)
 180beb0:	10800a17 	ldw	r2,40(r2)
 180beb4:	1007883a 	mov	r3,r2
 180beb8:	e0bffb17 	ldw	r2,-20(fp)
 180bebc:	1885883a 	add	r2,r3,r2
 180bec0:	10800804 	addi	r2,r2,32
 180bec4:	10800023 	ldbuio	r2,0(r2)
 180bec8:	1007883a 	mov	r3,r2
 180becc:	e0bffc04 	addi	r2,fp,-16
 180bed0:	1105883a 	add	r2,r2,r4
 180bed4:	10c00005 	stb	r3,0(r2)
    {
      /*
      * Check for 16 bit flash in word mode
      */
      alt_write_flash_command_16bit_device_16bit_mode(flash->dev.base_addr, 0x55, QUERY_MODE);
      for(i=0;i<6;i++)
 180bed8:	e0bffb17 	ldw	r2,-20(fp)
 180bedc:	10800044 	addi	r2,r2,1
 180bee0:	e0bffb15 	stw	r2,-20(fp)
 180bee4:	e0bffb17 	ldw	r2,-20(fp)
 180bee8:	10800190 	cmplti	r2,r2,6
 180beec:	103fee1e 	bne	r2,zero,180bea8 <alt_read_cfi_width+0x234>
      {
        byte_id[i] = IORD_8DIRECT(flash->dev.base_addr, (QUERY_ADDR*2)+i);
      }

      if ((byte_id[0] == 'Q') && 
 180bef0:	e0bffc03 	ldbu	r2,-16(fp)
 180bef4:	10803fcc 	andi	r2,r2,255
 180bef8:	10801458 	cmpnei	r2,r2,81
 180befc:	1000291e 	bne	r2,zero,180bfa4 <alt_read_cfi_width+0x330>
 180bf00:	e0bffc43 	ldbu	r2,-15(fp)
 180bf04:	10803fcc 	andi	r2,r2,255
 180bf08:	1004c03a 	cmpne	r2,r2,zero
 180bf0c:	1000251e 	bne	r2,zero,180bfa4 <alt_read_cfi_width+0x330>
 180bf10:	e0bffc83 	ldbu	r2,-14(fp)
 180bf14:	10803fcc 	andi	r2,r2,255
 180bf18:	10801498 	cmpnei	r2,r2,82
 180bf1c:	1000211e 	bne	r2,zero,180bfa4 <alt_read_cfi_width+0x330>
 180bf20:	e0bffcc3 	ldbu	r2,-13(fp)
 180bf24:	10803fcc 	andi	r2,r2,255
 180bf28:	1004c03a 	cmpne	r2,r2,zero
 180bf2c:	10001d1e 	bne	r2,zero,180bfa4 <alt_read_cfi_width+0x330>
 180bf30:	e0bffd03 	ldbu	r2,-12(fp)
 180bf34:	10803fcc 	andi	r2,r2,255
 180bf38:	10801658 	cmpnei	r2,r2,89
 180bf3c:	1000191e 	bne	r2,zero,180bfa4 <alt_read_cfi_width+0x330>
 180bf40:	e0bffd43 	ldbu	r2,-11(fp)
 180bf44:	10803fcc 	andi	r2,r2,255
 180bf48:	1004c03a 	cmpne	r2,r2,zero
 180bf4c:	1000151e 	bne	r2,zero,180bfa4 <alt_read_cfi_width+0x330>
          (byte_id[2] == 'R') && 
          (byte_id[3] == '\0') && 
          (byte_id[4] == 'Y') && 
          (byte_id[5] == '\0'))
      {
        flash->mode_width = 2;
 180bf50:	e0ffff17 	ldw	r3,-4(fp)
 180bf54:	00800084 	movi	r2,2
 180bf58:	18802e15 	stw	r2,184(r3)
        flash->device_width = 2; 
 180bf5c:	e0ffff17 	ldw	r3,-4(fp)
 180bf60:	00800084 	movi	r2,2
 180bf64:	18802f15 	stw	r2,188(r3)
        iface = IORD_16DIRECT(flash->dev.base_addr, INTERFACE_ADDR*2);
 180bf68:	e0bfff17 	ldw	r2,-4(fp)
 180bf6c:	10800a17 	ldw	r2,40(r2)
 180bf70:	10801404 	addi	r2,r2,80
 180bf74:	1080002b 	ldhuio	r2,0(r2)
 180bf78:	e0bffa0d 	sth	r2,-24(fp)
        iface += 1;
 180bf7c:	e0bffa0b 	ldhu	r2,-24(fp)
 180bf80:	10800044 	addi	r2,r2,1
 180bf84:	e0bffa0d 	sth	r2,-24(fp)
        if (!(iface & 0x2))
 180bf88:	e0bffa0b 	ldhu	r2,-24(fp)
 180bf8c:	1080008c 	andi	r2,r2,2
 180bf90:	1004c03a 	cmpne	r2,r2,zero
 180bf94:	10011c1e 	bne	r2,zero,180c408 <alt_read_cfi_width+0x794>
        {
          ret_code = -ENODEV;
 180bf98:	00bffb44 	movi	r2,-19
 180bf9c:	e0bff915 	stw	r2,-28(fp)
      for(i=0;i<6;i++)
      {
        byte_id[i] = IORD_8DIRECT(flash->dev.base_addr, (QUERY_ADDR*2)+i);
      }

      if ((byte_id[0] == 'Q') && 
 180bfa0:	00011906 	br	180c408 <alt_read_cfi_width+0x794>
      else
      {
        /*
        * Check for 32bit wide flash in 32 bit mode
        */
        alt_write_flash_command_32bit_device_32bit_mode(flash->dev.base_addr, 0x55, QUERY_MODE);
 180bfa4:	e0bfff17 	ldw	r2,-4(fp)
 180bfa8:	11000a17 	ldw	r4,40(r2)
 180bfac:	01401544 	movi	r5,85
 180bfb0:	01802604 	movi	r6,152
 180bfb4:	180b30c0 	call	180b30c <alt_write_flash_command_32bit_device_32bit_mode>
        for(i=0;i<12;i++)
 180bfb8:	e03ffb15 	stw	zero,-20(fp)
 180bfbc:	00000f06 	br	180bffc <alt_read_cfi_width+0x388>
        {
          byte_id[i] = IORD_8DIRECT(flash->dev.base_addr, (QUERY_ADDR*4)+i);
 180bfc0:	e13ffb17 	ldw	r4,-20(fp)
 180bfc4:	e0bfff17 	ldw	r2,-4(fp)
 180bfc8:	10800a17 	ldw	r2,40(r2)
 180bfcc:	1007883a 	mov	r3,r2
 180bfd0:	e0bffb17 	ldw	r2,-20(fp)
 180bfd4:	1885883a 	add	r2,r3,r2
 180bfd8:	10801004 	addi	r2,r2,64
 180bfdc:	10800023 	ldbuio	r2,0(r2)
 180bfe0:	1007883a 	mov	r3,r2
 180bfe4:	e0bffc04 	addi	r2,fp,-16
 180bfe8:	1105883a 	add	r2,r2,r4
 180bfec:	10c00005 	stb	r3,0(r2)
      {
        /*
        * Check for 32bit wide flash in 32 bit mode
        */
        alt_write_flash_command_32bit_device_32bit_mode(flash->dev.base_addr, 0x55, QUERY_MODE);
        for(i=0;i<12;i++)
 180bff0:	e0bffb17 	ldw	r2,-20(fp)
 180bff4:	10800044 	addi	r2,r2,1
 180bff8:	e0bffb15 	stw	r2,-20(fp)
 180bffc:	e0bffb17 	ldw	r2,-20(fp)
 180c000:	10800310 	cmplti	r2,r2,12
 180c004:	103fee1e 	bne	r2,zero,180bfc0 <alt_read_cfi_width+0x34c>
        {
          byte_id[i] = IORD_8DIRECT(flash->dev.base_addr, (QUERY_ADDR*4)+i);
        }

        if ((byte_id[0] == 'Q') &&
 180c008:	e0bffc03 	ldbu	r2,-16(fp)
 180c00c:	10803fcc 	andi	r2,r2,255
 180c010:	10801458 	cmpnei	r2,r2,81
 180c014:	1000411e 	bne	r2,zero,180c11c <alt_read_cfi_width+0x4a8>
 180c018:	e0bffc43 	ldbu	r2,-15(fp)
 180c01c:	10803fcc 	andi	r2,r2,255
 180c020:	1004c03a 	cmpne	r2,r2,zero
 180c024:	10003d1e 	bne	r2,zero,180c11c <alt_read_cfi_width+0x4a8>
 180c028:	e0bffc83 	ldbu	r2,-14(fp)
 180c02c:	10803fcc 	andi	r2,r2,255
 180c030:	1004c03a 	cmpne	r2,r2,zero
 180c034:	1000391e 	bne	r2,zero,180c11c <alt_read_cfi_width+0x4a8>
 180c038:	e0bffcc3 	ldbu	r2,-13(fp)
 180c03c:	10803fcc 	andi	r2,r2,255
 180c040:	1004c03a 	cmpne	r2,r2,zero
 180c044:	1000351e 	bne	r2,zero,180c11c <alt_read_cfi_width+0x4a8>
 180c048:	e0bffd03 	ldbu	r2,-12(fp)
 180c04c:	10803fcc 	andi	r2,r2,255
 180c050:	10801498 	cmpnei	r2,r2,82
 180c054:	1000311e 	bne	r2,zero,180c11c <alt_read_cfi_width+0x4a8>
 180c058:	e0bffd43 	ldbu	r2,-11(fp)
 180c05c:	10803fcc 	andi	r2,r2,255
 180c060:	1004c03a 	cmpne	r2,r2,zero
 180c064:	10002d1e 	bne	r2,zero,180c11c <alt_read_cfi_width+0x4a8>
 180c068:	e0bffd83 	ldbu	r2,-10(fp)
 180c06c:	10803fcc 	andi	r2,r2,255
 180c070:	1004c03a 	cmpne	r2,r2,zero
 180c074:	1000291e 	bne	r2,zero,180c11c <alt_read_cfi_width+0x4a8>
 180c078:	e0bffdc3 	ldbu	r2,-9(fp)
 180c07c:	10803fcc 	andi	r2,r2,255
 180c080:	1004c03a 	cmpne	r2,r2,zero
 180c084:	1000251e 	bne	r2,zero,180c11c <alt_read_cfi_width+0x4a8>
 180c088:	e0bffe03 	ldbu	r2,-8(fp)
 180c08c:	10803fcc 	andi	r2,r2,255
 180c090:	10801658 	cmpnei	r2,r2,89
 180c094:	1000211e 	bne	r2,zero,180c11c <alt_read_cfi_width+0x4a8>
 180c098:	e0bffe43 	ldbu	r2,-7(fp)
 180c09c:	10803fcc 	andi	r2,r2,255
 180c0a0:	1004c03a 	cmpne	r2,r2,zero
 180c0a4:	10001d1e 	bne	r2,zero,180c11c <alt_read_cfi_width+0x4a8>
 180c0a8:	e0bffe83 	ldbu	r2,-6(fp)
 180c0ac:	10803fcc 	andi	r2,r2,255
 180c0b0:	1004c03a 	cmpne	r2,r2,zero
 180c0b4:	1000191e 	bne	r2,zero,180c11c <alt_read_cfi_width+0x4a8>
 180c0b8:	e0bffec3 	ldbu	r2,-5(fp)
 180c0bc:	10803fcc 	andi	r2,r2,255
 180c0c0:	1004c03a 	cmpne	r2,r2,zero
 180c0c4:	1000151e 	bne	r2,zero,180c11c <alt_read_cfi_width+0x4a8>
          (byte_id[8] == 'Y') && 
          (byte_id[9] == '\0') && 
          (byte_id[10] == '\0') && 
          (byte_id[11] == '\0'))
        {
          flash->mode_width = 4;
 180c0c8:	e0ffff17 	ldw	r3,-4(fp)
 180c0cc:	00800104 	movi	r2,4
 180c0d0:	18802e15 	stw	r2,184(r3)
          flash->device_width = 4; 
 180c0d4:	e0ffff17 	ldw	r3,-4(fp)
 180c0d8:	00800104 	movi	r2,4
 180c0dc:	18802f15 	stw	r2,188(r3)
          iface = IORD_32DIRECT(flash->dev.base_addr, INTERFACE_ADDR*4);
 180c0e0:	e0bfff17 	ldw	r2,-4(fp)
 180c0e4:	10800a17 	ldw	r2,40(r2)
 180c0e8:	10802804 	addi	r2,r2,160
 180c0ec:	10800037 	ldwio	r2,0(r2)
 180c0f0:	e0bffa0d 	sth	r2,-24(fp)
          iface += 1;
 180c0f4:	e0bffa0b 	ldhu	r2,-24(fp)
 180c0f8:	10800044 	addi	r2,r2,1
 180c0fc:	e0bffa0d 	sth	r2,-24(fp)
          if (!(iface & 0x4))
 180c100:	e0bffa0b 	ldhu	r2,-24(fp)
 180c104:	1080010c 	andi	r2,r2,4
 180c108:	1004c03a 	cmpne	r2,r2,zero
 180c10c:	1000be1e 	bne	r2,zero,180c408 <alt_read_cfi_width+0x794>
          {
            ret_code = -ENODEV;
 180c110:	00bffb44 	movi	r2,-19
 180c114:	e0bff915 	stw	r2,-28(fp)
        for(i=0;i<12;i++)
        {
          byte_id[i] = IORD_8DIRECT(flash->dev.base_addr, (QUERY_ADDR*4)+i);
        }

        if ((byte_id[0] == 'Q') &&
 180c118:	0000bb06 	br	180c408 <alt_read_cfi_width+0x794>
        else
        {
          /*
          * Check for 32 bit wide in 16 bit mode
          */
          alt_write_flash_command_32bit_device_16bit_mode(flash->dev.base_addr, 0x55, QUERY_MODE);
 180c11c:	e0bfff17 	ldw	r2,-4(fp)
 180c120:	11000a17 	ldw	r4,40(r2)
 180c124:	01401544 	movi	r5,85
 180c128:	01802604 	movi	r6,152
 180c12c:	180b2c40 	call	180b2c4 <alt_write_flash_command_32bit_device_16bit_mode>
          for(i=0;i<12;i++)
 180c130:	e03ffb15 	stw	zero,-20(fp)
 180c134:	00000f06 	br	180c174 <alt_read_cfi_width+0x500>
          {
            byte_id[i] = IORD_8DIRECT(flash->dev.base_addr, (QUERY_ADDR*4)+i);
 180c138:	e13ffb17 	ldw	r4,-20(fp)
 180c13c:	e0bfff17 	ldw	r2,-4(fp)
 180c140:	10800a17 	ldw	r2,40(r2)
 180c144:	1007883a 	mov	r3,r2
 180c148:	e0bffb17 	ldw	r2,-20(fp)
 180c14c:	1885883a 	add	r2,r3,r2
 180c150:	10801004 	addi	r2,r2,64
 180c154:	10800023 	ldbuio	r2,0(r2)
 180c158:	1007883a 	mov	r3,r2
 180c15c:	e0bffc04 	addi	r2,fp,-16
 180c160:	1105883a 	add	r2,r2,r4
 180c164:	10c00005 	stb	r3,0(r2)
        {
          /*
          * Check for 32 bit wide in 16 bit mode
          */
          alt_write_flash_command_32bit_device_16bit_mode(flash->dev.base_addr, 0x55, QUERY_MODE);
          for(i=0;i<12;i++)
 180c168:	e0bffb17 	ldw	r2,-20(fp)
 180c16c:	10800044 	addi	r2,r2,1
 180c170:	e0bffb15 	stw	r2,-20(fp)
 180c174:	e0bffb17 	ldw	r2,-20(fp)
 180c178:	10800310 	cmplti	r2,r2,12
 180c17c:	103fee1e 	bne	r2,zero,180c138 <alt_read_cfi_width+0x4c4>
          {
            byte_id[i] = IORD_8DIRECT(flash->dev.base_addr, (QUERY_ADDR*4)+i);
          }

          if ((byte_id[0] == 'Q') &&
 180c180:	e0bffc03 	ldbu	r2,-16(fp)
 180c184:	10803fcc 	andi	r2,r2,255
 180c188:	10801458 	cmpnei	r2,r2,81
 180c18c:	1000411e 	bne	r2,zero,180c294 <alt_read_cfi_width+0x620>
 180c190:	e0bffc43 	ldbu	r2,-15(fp)
 180c194:	10803fcc 	andi	r2,r2,255
 180c198:	1004c03a 	cmpne	r2,r2,zero
 180c19c:	10003d1e 	bne	r2,zero,180c294 <alt_read_cfi_width+0x620>
 180c1a0:	e0bffc83 	ldbu	r2,-14(fp)
 180c1a4:	10803fcc 	andi	r2,r2,255
 180c1a8:	10801458 	cmpnei	r2,r2,81
 180c1ac:	1000391e 	bne	r2,zero,180c294 <alt_read_cfi_width+0x620>
 180c1b0:	e0bffcc3 	ldbu	r2,-13(fp)
 180c1b4:	10803fcc 	andi	r2,r2,255
 180c1b8:	1004c03a 	cmpne	r2,r2,zero
 180c1bc:	1000351e 	bne	r2,zero,180c294 <alt_read_cfi_width+0x620>
 180c1c0:	e0bffd03 	ldbu	r2,-12(fp)
 180c1c4:	10803fcc 	andi	r2,r2,255
 180c1c8:	10801498 	cmpnei	r2,r2,82
 180c1cc:	1000311e 	bne	r2,zero,180c294 <alt_read_cfi_width+0x620>
 180c1d0:	e0bffd43 	ldbu	r2,-11(fp)
 180c1d4:	10803fcc 	andi	r2,r2,255
 180c1d8:	1004c03a 	cmpne	r2,r2,zero
 180c1dc:	10002d1e 	bne	r2,zero,180c294 <alt_read_cfi_width+0x620>
 180c1e0:	e0bffd83 	ldbu	r2,-10(fp)
 180c1e4:	10803fcc 	andi	r2,r2,255
 180c1e8:	10801498 	cmpnei	r2,r2,82
 180c1ec:	1000291e 	bne	r2,zero,180c294 <alt_read_cfi_width+0x620>
 180c1f0:	e0bffdc3 	ldbu	r2,-9(fp)
 180c1f4:	10803fcc 	andi	r2,r2,255
 180c1f8:	1004c03a 	cmpne	r2,r2,zero
 180c1fc:	1000251e 	bne	r2,zero,180c294 <alt_read_cfi_width+0x620>
 180c200:	e0bffe03 	ldbu	r2,-8(fp)
 180c204:	10803fcc 	andi	r2,r2,255
 180c208:	10801658 	cmpnei	r2,r2,89
 180c20c:	1000211e 	bne	r2,zero,180c294 <alt_read_cfi_width+0x620>
 180c210:	e0bffe43 	ldbu	r2,-7(fp)
 180c214:	10803fcc 	andi	r2,r2,255
 180c218:	1004c03a 	cmpne	r2,r2,zero
 180c21c:	10001d1e 	bne	r2,zero,180c294 <alt_read_cfi_width+0x620>
 180c220:	e0bffe83 	ldbu	r2,-6(fp)
 180c224:	10803fcc 	andi	r2,r2,255
 180c228:	10801658 	cmpnei	r2,r2,89
 180c22c:	1000191e 	bne	r2,zero,180c294 <alt_read_cfi_width+0x620>
 180c230:	e0bffec3 	ldbu	r2,-5(fp)
 180c234:	10803fcc 	andi	r2,r2,255
 180c238:	1004c03a 	cmpne	r2,r2,zero
 180c23c:	1000151e 	bne	r2,zero,180c294 <alt_read_cfi_width+0x620>
              (byte_id[8] == 'Y') &&
              (byte_id[9] == '\0') &&
              (byte_id[10] == 'Y') &&
              (byte_id[11] == '\0'))
          {
            flash->mode_width = 2;
 180c240:	e0ffff17 	ldw	r3,-4(fp)
 180c244:	00800084 	movi	r2,2
 180c248:	18802e15 	stw	r2,184(r3)
            flash->device_width = 4; 
 180c24c:	e0ffff17 	ldw	r3,-4(fp)
 180c250:	00800104 	movi	r2,4
 180c254:	18802f15 	stw	r2,188(r3)
            iface = IORD_32DIRECT(flash->dev.base_addr, INTERFACE_ADDR*4);
 180c258:	e0bfff17 	ldw	r2,-4(fp)
 180c25c:	10800a17 	ldw	r2,40(r2)
 180c260:	10802804 	addi	r2,r2,160
 180c264:	10800037 	ldwio	r2,0(r2)
 180c268:	e0bffa0d 	sth	r2,-24(fp)
            iface += 1;
 180c26c:	e0bffa0b 	ldhu	r2,-24(fp)
 180c270:	10800044 	addi	r2,r2,1
 180c274:	e0bffa0d 	sth	r2,-24(fp)
            if (!(iface & 0x4))
 180c278:	e0bffa0b 	ldhu	r2,-24(fp)
 180c27c:	1080010c 	andi	r2,r2,4
 180c280:	1004c03a 	cmpne	r2,r2,zero
 180c284:	1000601e 	bne	r2,zero,180c408 <alt_read_cfi_width+0x794>
            {
              ret_code = -ENODEV;
 180c288:	00bffb44 	movi	r2,-19
 180c28c:	e0bff915 	stw	r2,-28(fp)
          for(i=0;i<12;i++)
          {
            byte_id[i] = IORD_8DIRECT(flash->dev.base_addr, (QUERY_ADDR*4)+i);
          }

          if ((byte_id[0] == 'Q') &&
 180c290:	00005d06 	br	180c408 <alt_read_cfi_width+0x794>
          else
          {
            /*
            * 32 Bit wide flash in byte mode
            */
            alt_write_flash_command_32bit_device_8bit_mode(flash->dev.base_addr, 0x55, QUERY_MODE);
 180c294:	e0bfff17 	ldw	r2,-4(fp)
 180c298:	11000a17 	ldw	r4,40(r2)
 180c29c:	01401544 	movi	r5,85
 180c2a0:	01802604 	movi	r6,152
 180c2a4:	180b2380 	call	180b238 <alt_write_flash_command_32bit_device_8bit_mode>
            for(i=0;i<12;i++)
 180c2a8:	e03ffb15 	stw	zero,-20(fp)
 180c2ac:	00000f06 	br	180c2ec <alt_read_cfi_width+0x678>
            {
              byte_id[i] = IORD_8DIRECT(flash->dev.base_addr, (QUERY_ADDR*4)+i);
 180c2b0:	e13ffb17 	ldw	r4,-20(fp)
 180c2b4:	e0bfff17 	ldw	r2,-4(fp)
 180c2b8:	10800a17 	ldw	r2,40(r2)
 180c2bc:	1007883a 	mov	r3,r2
 180c2c0:	e0bffb17 	ldw	r2,-20(fp)
 180c2c4:	1885883a 	add	r2,r3,r2
 180c2c8:	10801004 	addi	r2,r2,64
 180c2cc:	10800023 	ldbuio	r2,0(r2)
 180c2d0:	1007883a 	mov	r3,r2
 180c2d4:	e0bffc04 	addi	r2,fp,-16
 180c2d8:	1105883a 	add	r2,r2,r4
 180c2dc:	10c00005 	stb	r3,0(r2)
          {
            /*
            * 32 Bit wide flash in byte mode
            */
            alt_write_flash_command_32bit_device_8bit_mode(flash->dev.base_addr, 0x55, QUERY_MODE);
            for(i=0;i<12;i++)
 180c2e0:	e0bffb17 	ldw	r2,-20(fp)
 180c2e4:	10800044 	addi	r2,r2,1
 180c2e8:	e0bffb15 	stw	r2,-20(fp)
 180c2ec:	e0bffb17 	ldw	r2,-20(fp)
 180c2f0:	10800310 	cmplti	r2,r2,12
 180c2f4:	103fee1e 	bne	r2,zero,180c2b0 <alt_read_cfi_width+0x63c>
            {
              byte_id[i] = IORD_8DIRECT(flash->dev.base_addr, (QUERY_ADDR*4)+i);
            }

            if ((byte_id[0] == 'Q') &&
 180c2f8:	e0bffc03 	ldbu	r2,-16(fp)
 180c2fc:	10803fcc 	andi	r2,r2,255
 180c300:	10801458 	cmpnei	r2,r2,81
 180c304:	1000401e 	bne	r2,zero,180c408 <alt_read_cfi_width+0x794>
 180c308:	e0bffc43 	ldbu	r2,-15(fp)
 180c30c:	10803fcc 	andi	r2,r2,255
 180c310:	10801458 	cmpnei	r2,r2,81
 180c314:	10003c1e 	bne	r2,zero,180c408 <alt_read_cfi_width+0x794>
 180c318:	e0bffc83 	ldbu	r2,-14(fp)
 180c31c:	10803fcc 	andi	r2,r2,255
 180c320:	10801458 	cmpnei	r2,r2,81
 180c324:	1000381e 	bne	r2,zero,180c408 <alt_read_cfi_width+0x794>
 180c328:	e0bffcc3 	ldbu	r2,-13(fp)
 180c32c:	10803fcc 	andi	r2,r2,255
 180c330:	10801458 	cmpnei	r2,r2,81
 180c334:	1000341e 	bne	r2,zero,180c408 <alt_read_cfi_width+0x794>
 180c338:	e0bffd03 	ldbu	r2,-12(fp)
 180c33c:	10803fcc 	andi	r2,r2,255
 180c340:	10801498 	cmpnei	r2,r2,82
 180c344:	1000301e 	bne	r2,zero,180c408 <alt_read_cfi_width+0x794>
 180c348:	e0bffd43 	ldbu	r2,-11(fp)
 180c34c:	10803fcc 	andi	r2,r2,255
 180c350:	10801498 	cmpnei	r2,r2,82
 180c354:	10002c1e 	bne	r2,zero,180c408 <alt_read_cfi_width+0x794>
 180c358:	e0bffd83 	ldbu	r2,-10(fp)
 180c35c:	10803fcc 	andi	r2,r2,255
 180c360:	10801498 	cmpnei	r2,r2,82
 180c364:	1000281e 	bne	r2,zero,180c408 <alt_read_cfi_width+0x794>
 180c368:	e0bffdc3 	ldbu	r2,-9(fp)
 180c36c:	10803fcc 	andi	r2,r2,255
 180c370:	10801498 	cmpnei	r2,r2,82
 180c374:	1000241e 	bne	r2,zero,180c408 <alt_read_cfi_width+0x794>
 180c378:	e0bffe03 	ldbu	r2,-8(fp)
 180c37c:	10803fcc 	andi	r2,r2,255
 180c380:	10801658 	cmpnei	r2,r2,89
 180c384:	1000201e 	bne	r2,zero,180c408 <alt_read_cfi_width+0x794>
 180c388:	e0bffe43 	ldbu	r2,-7(fp)
 180c38c:	10803fcc 	andi	r2,r2,255
 180c390:	10801658 	cmpnei	r2,r2,89
 180c394:	10001c1e 	bne	r2,zero,180c408 <alt_read_cfi_width+0x794>
 180c398:	e0bffe83 	ldbu	r2,-6(fp)
 180c39c:	10803fcc 	andi	r2,r2,255
 180c3a0:	10801658 	cmpnei	r2,r2,89
 180c3a4:	1000181e 	bne	r2,zero,180c408 <alt_read_cfi_width+0x794>
 180c3a8:	e0bffec3 	ldbu	r2,-5(fp)
 180c3ac:	10803fcc 	andi	r2,r2,255
 180c3b0:	10801658 	cmpnei	r2,r2,89
 180c3b4:	1000141e 	bne	r2,zero,180c408 <alt_read_cfi_width+0x794>
                (byte_id[8] == 'Y') && 
                (byte_id[9] == 'Y') && 
                (byte_id[10] == 'Y') && 
                (byte_id[11] == 'Y'))
            {
              flash->mode_width = 1;
 180c3b8:	e0ffff17 	ldw	r3,-4(fp)
 180c3bc:	00800044 	movi	r2,1
 180c3c0:	18802e15 	stw	r2,184(r3)
              flash->device_width = 4; 
 180c3c4:	e0ffff17 	ldw	r3,-4(fp)
 180c3c8:	00800104 	movi	r2,4
 180c3cc:	18802f15 	stw	r2,188(r3)
              iface = IORD_32DIRECT(flash->dev.base_addr, INTERFACE_ADDR*4);
 180c3d0:	e0bfff17 	ldw	r2,-4(fp)
 180c3d4:	10800a17 	ldw	r2,40(r2)
 180c3d8:	10802804 	addi	r2,r2,160
 180c3dc:	10800037 	ldwio	r2,0(r2)
 180c3e0:	e0bffa0d 	sth	r2,-24(fp)
              iface += 1;
 180c3e4:	e0bffa0b 	ldhu	r2,-24(fp)
 180c3e8:	10800044 	addi	r2,r2,1
 180c3ec:	e0bffa0d 	sth	r2,-24(fp)
              if (!(iface & 0x4))
 180c3f0:	e0bffa0b 	ldhu	r2,-24(fp)
 180c3f4:	1080010c 	andi	r2,r2,4
 180c3f8:	1004c03a 	cmpne	r2,r2,zero
 180c3fc:	1000021e 	bne	r2,zero,180c408 <alt_read_cfi_width+0x794>
              {
                ret_code = -ENODEV;
 180c400:	00bffb44 	movi	r2,-19
 180c404:	e0bff915 	stw	r2,-28(fp)
        }
      }
    }
  }
  
  return ret_code;
 180c408:	e0bff917 	ldw	r2,-28(fp)
}
 180c40c:	e037883a 	mov	sp,fp
 180c410:	dfc00117 	ldw	ra,4(sp)
 180c414:	df000017 	ldw	fp,0(sp)
 180c418:	dec00204 	addi	sp,sp,8
 180c41c:	f800283a 	ret

0180c420 <alt_check_primary_table>:
 * 
 * Check that the primary Vendor table starts with the 
 * correct pattern
 */
int alt_check_primary_table(alt_flash_cfi_dev* flash)
{
 180c420:	defff904 	addi	sp,sp,-28
 180c424:	dfc00615 	stw	ra,24(sp)
 180c428:	df000515 	stw	fp,20(sp)
 180c42c:	dc000415 	stw	r16,16(sp)
 180c430:	df000404 	addi	fp,sp,16
 180c434:	e13fff15 	stw	r4,-4(fp)
  int i;
  int ret_code = 0;
 180c438:	e03ffc15 	stw	zero,-16(fp)
  alt_u8 primary_query_string[3];
  
  flash->primary_address = alt_read_16bit_query_entry( flash, 
 180c43c:	e13fff17 	ldw	r4,-4(fp)
 180c440:	01400544 	movi	r5,21
 180c444:	180b6780 	call	180b678 <alt_read_16bit_query_entry>
 180c448:	10ffffcc 	andi	r3,r2,65535
 180c44c:	e0bfff17 	ldw	r2,-4(fp)
 180c450:	10c03215 	stw	r3,200(r2)
                            PRIMARY_ADDR);
  
  for(i=0;i<3;i++)
 180c454:	e03ffd15 	stw	zero,-12(fp)
 180c458:	00001006 	br	180c49c <alt_check_primary_table+0x7c>
  {
    primary_query_string[i] = 
 180c45c:	e43ffd17 	ldw	r16,-12(fp)
 180c460:	e0bfff17 	ldw	r2,-4(fp)
 180c464:	11803417 	ldw	r6,208(r2)
 180c468:	e0bfff17 	ldw	r2,-4(fp)
 180c46c:	10c03217 	ldw	r3,200(r2)
 180c470:	e0bffd17 	ldw	r2,-12(fp)
 180c474:	188b883a 	add	r5,r3,r2
 180c478:	e13fff17 	ldw	r4,-4(fp)
 180c47c:	303ee83a 	callr	r6
 180c480:	1007883a 	mov	r3,r2
 180c484:	e0bffe04 	addi	r2,fp,-8
 180c488:	1405883a 	add	r2,r2,r16
 180c48c:	10c00005 	stb	r3,0(r2)
  alt_u8 primary_query_string[3];
  
  flash->primary_address = alt_read_16bit_query_entry( flash, 
                            PRIMARY_ADDR);
  
  for(i=0;i<3;i++)
 180c490:	e0bffd17 	ldw	r2,-12(fp)
 180c494:	10800044 	addi	r2,r2,1
 180c498:	e0bffd15 	stw	r2,-12(fp)
 180c49c:	e0bffd17 	ldw	r2,-12(fp)
 180c4a0:	108000d0 	cmplti	r2,r2,3
 180c4a4:	103fed1e 	bne	r2,zero,180c45c <alt_check_primary_table+0x3c>
  {
    primary_query_string[i] = 
          (*flash->read_query)( flash,(flash->primary_address + i));
  }
    
  if ((primary_query_string[0] != 'P') ||
 180c4a8:	e0bffe03 	ldbu	r2,-8(fp)
 180c4ac:	10803fcc 	andi	r2,r2,255
 180c4b0:	10801418 	cmpnei	r2,r2,80
 180c4b4:	1000081e 	bne	r2,zero,180c4d8 <alt_check_primary_table+0xb8>
 180c4b8:	e0bffe43 	ldbu	r2,-7(fp)
 180c4bc:	10803fcc 	andi	r2,r2,255
 180c4c0:	10801498 	cmpnei	r2,r2,82
 180c4c4:	1000041e 	bne	r2,zero,180c4d8 <alt_check_primary_table+0xb8>
 180c4c8:	e0bffe83 	ldbu	r2,-6(fp)
 180c4cc:	10803fcc 	andi	r2,r2,255
 180c4d0:	10801260 	cmpeqi	r2,r2,73
 180c4d4:	1000021e 	bne	r2,zero,180c4e0 <alt_check_primary_table+0xc0>
      (primary_query_string[1] != 'R') ||
      (primary_query_string[2] != 'I'))
  {
    ret_code = -ENODEV;
 180c4d8:	00bffb44 	movi	r2,-19
 180c4dc:	e0bffc15 	stw	r2,-16(fp)
  }
  
  return ret_code;
 180c4e0:	e0bffc17 	ldw	r2,-16(fp)
}
 180c4e4:	e037883a 	mov	sp,fp
 180c4e8:	dfc00217 	ldw	ra,8(sp)
 180c4ec:	df000117 	ldw	fp,4(sp)
 180c4f0:	dc000017 	ldw	r16,0(sp)
 180c4f4:	dec00304 	addi	sp,sp,12
 180c4f8:	f800283a 	ret

0180c4fc <altera_avalon_jtag_uart_read_fd>:
 *
 */

int 
altera_avalon_jtag_uart_read_fd(alt_fd* fd, char* buffer, int space)
{
 180c4fc:	defffa04 	addi	sp,sp,-24
 180c500:	dfc00515 	stw	ra,20(sp)
 180c504:	df000415 	stw	fp,16(sp)
 180c508:	df000404 	addi	fp,sp,16
 180c50c:	e13ffd15 	stw	r4,-12(fp)
 180c510:	e17ffe15 	stw	r5,-8(fp)
 180c514:	e1bfff15 	stw	r6,-4(fp)
    altera_avalon_jtag_uart_dev* dev = (altera_avalon_jtag_uart_dev*) fd->dev; 
 180c518:	e0bffd17 	ldw	r2,-12(fp)
 180c51c:	10800017 	ldw	r2,0(r2)
 180c520:	e0bffc15 	stw	r2,-16(fp)

    return altera_avalon_jtag_uart_read(&dev->state, buffer, space,
 180c524:	e0bffc17 	ldw	r2,-16(fp)
 180c528:	11000a04 	addi	r4,r2,40
 180c52c:	e0bffd17 	ldw	r2,-12(fp)
 180c530:	11c00217 	ldw	r7,8(r2)
 180c534:	e17ffe17 	ldw	r5,-8(fp)
 180c538:	e1bfff17 	ldw	r6,-4(fp)
 180c53c:	180cb440 	call	180cb44 <altera_avalon_jtag_uart_read>
      fd->fd_flags);
}
 180c540:	e037883a 	mov	sp,fp
 180c544:	dfc00117 	ldw	ra,4(sp)
 180c548:	df000017 	ldw	fp,0(sp)
 180c54c:	dec00204 	addi	sp,sp,8
 180c550:	f800283a 	ret

0180c554 <altera_avalon_jtag_uart_write_fd>:

int 
altera_avalon_jtag_uart_write_fd(alt_fd* fd, const char* buffer, int space)
{
 180c554:	defffa04 	addi	sp,sp,-24
 180c558:	dfc00515 	stw	ra,20(sp)
 180c55c:	df000415 	stw	fp,16(sp)
 180c560:	df000404 	addi	fp,sp,16
 180c564:	e13ffd15 	stw	r4,-12(fp)
 180c568:	e17ffe15 	stw	r5,-8(fp)
 180c56c:	e1bfff15 	stw	r6,-4(fp)
    altera_avalon_jtag_uart_dev* dev = (altera_avalon_jtag_uart_dev*) fd->dev; 
 180c570:	e0bffd17 	ldw	r2,-12(fp)
 180c574:	10800017 	ldw	r2,0(r2)
 180c578:	e0bffc15 	stw	r2,-16(fp)

    return altera_avalon_jtag_uart_write(&dev->state, buffer, space,
 180c57c:	e0bffc17 	ldw	r2,-16(fp)
 180c580:	11000a04 	addi	r4,r2,40
 180c584:	e0bffd17 	ldw	r2,-12(fp)
 180c588:	11c00217 	ldw	r7,8(r2)
 180c58c:	e17ffe17 	ldw	r5,-8(fp)
 180c590:	e1bfff17 	ldw	r6,-4(fp)
 180c594:	180cd680 	call	180cd68 <altera_avalon_jtag_uart_write>
      fd->fd_flags);
}
 180c598:	e037883a 	mov	sp,fp
 180c59c:	dfc00117 	ldw	ra,4(sp)
 180c5a0:	df000017 	ldw	fp,0(sp)
 180c5a4:	dec00204 	addi	sp,sp,8
 180c5a8:	f800283a 	ret

0180c5ac <altera_avalon_jtag_uart_close_fd>:

#ifndef ALTERA_AVALON_JTAG_UART_SMALL

int 
altera_avalon_jtag_uart_close_fd(alt_fd* fd)
{
 180c5ac:	defffc04 	addi	sp,sp,-16
 180c5b0:	dfc00315 	stw	ra,12(sp)
 180c5b4:	df000215 	stw	fp,8(sp)
 180c5b8:	df000204 	addi	fp,sp,8
 180c5bc:	e13fff15 	stw	r4,-4(fp)
    altera_avalon_jtag_uart_dev* dev = (altera_avalon_jtag_uart_dev*) fd->dev; 
 180c5c0:	e0bfff17 	ldw	r2,-4(fp)
 180c5c4:	10800017 	ldw	r2,0(r2)
 180c5c8:	e0bffe15 	stw	r2,-8(fp)

    return altera_avalon_jtag_uart_close(&dev->state, fd->fd_flags);
 180c5cc:	e0bffe17 	ldw	r2,-8(fp)
 180c5d0:	11000a04 	addi	r4,r2,40
 180c5d4:	e0bfff17 	ldw	r2,-4(fp)
 180c5d8:	11400217 	ldw	r5,8(r2)
 180c5dc:	180c9dc0 	call	180c9dc <altera_avalon_jtag_uart_close>
}
 180c5e0:	e037883a 	mov	sp,fp
 180c5e4:	dfc00117 	ldw	ra,4(sp)
 180c5e8:	df000017 	ldw	fp,0(sp)
 180c5ec:	dec00204 	addi	sp,sp,8
 180c5f0:	f800283a 	ret

0180c5f4 <altera_avalon_jtag_uart_ioctl_fd>:

int 
altera_avalon_jtag_uart_ioctl_fd(alt_fd* fd, int req, void* arg)
{
 180c5f4:	defffa04 	addi	sp,sp,-24
 180c5f8:	dfc00515 	stw	ra,20(sp)
 180c5fc:	df000415 	stw	fp,16(sp)
 180c600:	df000404 	addi	fp,sp,16
 180c604:	e13ffd15 	stw	r4,-12(fp)
 180c608:	e17ffe15 	stw	r5,-8(fp)
 180c60c:	e1bfff15 	stw	r6,-4(fp)
    altera_avalon_jtag_uart_dev* dev = (altera_avalon_jtag_uart_dev*) fd->dev;
 180c610:	e0bffd17 	ldw	r2,-12(fp)
 180c614:	10800017 	ldw	r2,0(r2)
 180c618:	e0bffc15 	stw	r2,-16(fp)

    return altera_avalon_jtag_uart_ioctl(&dev->state, req, arg);
 180c61c:	e0bffc17 	ldw	r2,-16(fp)
 180c620:	11000a04 	addi	r4,r2,40
 180c624:	e17ffe17 	ldw	r5,-8(fp)
 180c628:	e1bfff17 	ldw	r6,-4(fp)
 180c62c:	180ca500 	call	180ca50 <altera_avalon_jtag_uart_ioctl>
}
 180c630:	e037883a 	mov	sp,fp
 180c634:	dfc00117 	ldw	ra,4(sp)
 180c638:	df000017 	ldw	fp,0(sp)
 180c63c:	dec00204 	addi	sp,sp,8
 180c640:	f800283a 	ret

0180c644 <altera_avalon_jtag_uart_init>:
 * Return 1 on sucessful IRQ register and 0 on failure.
 */

void altera_avalon_jtag_uart_init(altera_avalon_jtag_uart_state* sp, 
                                  int irq_controller_id, int irq)
{
 180c644:	defffa04 	addi	sp,sp,-24
 180c648:	dfc00515 	stw	ra,20(sp)
 180c64c:	df000415 	stw	fp,16(sp)
 180c650:	df000404 	addi	fp,sp,16
 180c654:	e13ffd15 	stw	r4,-12(fp)
 180c658:	e17ffe15 	stw	r5,-8(fp)
 180c65c:	e1bfff15 	stw	r6,-4(fp)
  ALT_FLAG_CREATE(&sp->events, 0);
  ALT_SEM_CREATE(&sp->read_lock, 1);
  ALT_SEM_CREATE(&sp->write_lock, 1);

  /* enable read interrupts at the device */
  sp->irq_enable = ALTERA_AVALON_JTAG_UART_CONTROL_RE_MSK;
 180c660:	e0fffd17 	ldw	r3,-12(fp)
 180c664:	00800044 	movi	r2,1
 180c668:	18800815 	stw	r2,32(r3)

  IOWR_ALTERA_AVALON_JTAG_UART_CONTROL(sp->base, sp->irq_enable); 
 180c66c:	e0bffd17 	ldw	r2,-12(fp)
 180c670:	10800017 	ldw	r2,0(r2)
 180c674:	11000104 	addi	r4,r2,4
 180c678:	e0bffd17 	ldw	r2,-12(fp)
 180c67c:	10800817 	ldw	r2,32(r2)
 180c680:	1007883a 	mov	r3,r2
 180c684:	2005883a 	mov	r2,r4
 180c688:	10c00035 	stwio	r3,0(r2)
  
  /* register the interrupt handler */
#ifdef ALT_ENHANCED_INTERRUPT_API_PRESENT
  alt_ic_isr_register(irq_controller_id, irq, altera_avalon_jtag_uart_irq, 
 180c68c:	e13ffe17 	ldw	r4,-8(fp)
 180c690:	e17fff17 	ldw	r5,-4(fp)
 180c694:	d8000015 	stw	zero,0(sp)
 180c698:	01806074 	movhi	r6,385
 180c69c:	31b1c104 	addi	r6,r6,-14588
 180c6a0:	e1fffd17 	ldw	r7,-12(fp)
 180c6a4:	180ef340 	call	180ef34 <alt_ic_isr_register>
#else
  alt_irq_register(irq, sp, altera_avalon_jtag_uart_irq);
#endif  

  /* Register an alarm to go off every second to check for presence of host */
  sp->host_inactive = 0;
 180c6a8:	e0bffd17 	ldw	r2,-12(fp)
 180c6ac:	10000915 	stw	zero,36(r2)

  if (alt_alarm_start(&sp->alarm, alt_ticks_per_second(), 
 180c6b0:	e0bffd17 	ldw	r2,-12(fp)
 180c6b4:	11000204 	addi	r4,r2,8
 * Obtain the system clock rate in ticks/s. 
 */

static ALT_INLINE alt_u32 ALT_ALWAYS_INLINE alt_ticks_per_second (void)
{
  return _alt_tick_rate;
 180c6b8:	00806074 	movhi	r2,385
 180c6bc:	108aea04 	addi	r2,r2,11176
 180c6c0:	10800017 	ldw	r2,0(r2)
 180c6c4:	100b883a 	mov	r5,r2
 180c6c8:	01806074 	movhi	r6,385
 180c6cc:	31b24b04 	addi	r6,r6,-14036
 180c6d0:	e1fffd17 	ldw	r7,-12(fp)
 180c6d4:	180e9900 	call	180e990 <alt_alarm_start>
 180c6d8:	1004403a 	cmpge	r2,r2,zero
 180c6dc:	1000041e 	bne	r2,zero,180c6f0 <altera_avalon_jtag_uart_init+0xac>
    &altera_avalon_jtag_uart_timeout, sp) < 0)
  {
    /* If we can't set the alarm then record "don't know if host present" 
     * and behave as though the host is present.
     */
    sp->timeout = INT_MAX;
 180c6e0:	e0fffd17 	ldw	r3,-12(fp)
 180c6e4:	00a00034 	movhi	r2,32768
 180c6e8:	10bfffc4 	addi	r2,r2,-1
 180c6ec:	18800115 	stw	r2,4(r3)
  }

  /* ALT_LOG - see altera_hal/HAL/inc/sys/alt_log_printf.h */ 
  ALT_LOG_JTAG_UART_ALARM_REGISTER(sp, sp->base);
}
 180c6f0:	e037883a 	mov	sp,fp
 180c6f4:	dfc00117 	ldw	ra,4(sp)
 180c6f8:	df000017 	ldw	fp,0(sp)
 180c6fc:	dec00204 	addi	sp,sp,8
 180c700:	f800283a 	ret

0180c704 <altera_avalon_jtag_uart_irq>:
#ifdef ALT_ENHANCED_INTERRUPT_API_PRESENT
static void altera_avalon_jtag_uart_irq(void* context)
#else
static void altera_avalon_jtag_uart_irq(void* context, alt_u32 id)
#endif
{
 180c704:	defff804 	addi	sp,sp,-32
 180c708:	df000715 	stw	fp,28(sp)
 180c70c:	df000704 	addi	fp,sp,28
 180c710:	e13fff15 	stw	r4,-4(fp)
  altera_avalon_jtag_uart_state* sp = (altera_avalon_jtag_uart_state*) context;
 180c714:	e0bfff17 	ldw	r2,-4(fp)
 180c718:	e0bffe15 	stw	r2,-8(fp)
  unsigned int base = sp->base;
 180c71c:	e0bffe17 	ldw	r2,-8(fp)
 180c720:	10800017 	ldw	r2,0(r2)
 180c724:	e0bffd15 	stw	r2,-12(fp)
 180c728:	00000006 	br	180c72c <altera_avalon_jtag_uart_irq+0x28>
  /* ALT_LOG - see altera_hal/HAL/inc/sys/alt_log_printf.h */ 
  ALT_LOG_JTAG_UART_ISR_FUNCTION(base, sp);

  for ( ; ; )
  {
    unsigned int control = IORD_ALTERA_AVALON_JTAG_UART_CONTROL(base);
 180c72c:	e0bffd17 	ldw	r2,-12(fp)
 180c730:	10800104 	addi	r2,r2,4
 180c734:	10800037 	ldwio	r2,0(r2)
 180c738:	e0bffc15 	stw	r2,-16(fp)

    /* Return once nothing more to do */
    if ((control & (ALTERA_AVALON_JTAG_UART_CONTROL_RI_MSK | ALTERA_AVALON_JTAG_UART_CONTROL_WI_MSK)) == 0)
 180c73c:	e0bffc17 	ldw	r2,-16(fp)
 180c740:	1080c00c 	andi	r2,r2,768
 180c744:	1005003a 	cmpeq	r2,r2,zero
 180c748:	1000741e 	bne	r2,zero,180c91c <altera_avalon_jtag_uart_irq+0x218>
      break;

    if (control & ALTERA_AVALON_JTAG_UART_CONTROL_RI_MSK)
 180c74c:	e0bffc17 	ldw	r2,-16(fp)
 180c750:	1080400c 	andi	r2,r2,256
 180c754:	1005003a 	cmpeq	r2,r2,zero
 180c758:	1000351e 	bne	r2,zero,180c830 <altera_avalon_jtag_uart_irq+0x12c>
    {
      /* process a read irq.  Start by assuming that there is data in the
       * receive FIFO (otherwise why would we have been interrupted?)
       */
      unsigned int data = 1 << ALTERA_AVALON_JTAG_UART_DATA_RAVAIL_OFST;
 180c75c:	00800074 	movhi	r2,1
 180c760:	e0bffb15 	stw	r2,-20(fp)
      for ( ; ; )
      {
        /* Check whether there is space in the buffer.  If not then we must not
         * read any characters from the buffer as they will be lost.
         */
        unsigned int next = (sp->rx_in + 1) % ALTERA_AVALON_JTAG_UART_BUF_LEN;
 180c764:	e0bffe17 	ldw	r2,-8(fp)
 180c768:	10800a17 	ldw	r2,40(r2)
 180c76c:	10800044 	addi	r2,r2,1
 180c770:	1081ffcc 	andi	r2,r2,2047
 180c774:	e0bffa15 	stw	r2,-24(fp)
        if (next == sp->rx_out)
 180c778:	e0bffe17 	ldw	r2,-8(fp)
 180c77c:	10c00b17 	ldw	r3,44(r2)
 180c780:	e0bffa17 	ldw	r2,-24(fp)
 180c784:	18801626 	beq	r3,r2,180c7e0 <altera_avalon_jtag_uart_irq+0xdc>
          break;

        /* Try to remove a character from the FIFO and find out whether there
         * are any more characters remaining.
         */
        data = IORD_ALTERA_AVALON_JTAG_UART_DATA(base);
 180c788:	e0bffd17 	ldw	r2,-12(fp)
 180c78c:	10800037 	ldwio	r2,0(r2)
 180c790:	e0bffb15 	stw	r2,-20(fp)
        
        if ((data & ALTERA_AVALON_JTAG_UART_DATA_RVALID_MSK) == 0)
 180c794:	e0bffb17 	ldw	r2,-20(fp)
 180c798:	10a0000c 	andi	r2,r2,32768
 180c79c:	1005003a 	cmpeq	r2,r2,zero
 180c7a0:	10000f1e 	bne	r2,zero,180c7e0 <altera_avalon_jtag_uart_irq+0xdc>
          break;

        sp->rx_buf[sp->rx_in] = (data & ALTERA_AVALON_JTAG_UART_DATA_DATA_MSK) >> ALTERA_AVALON_JTAG_UART_DATA_DATA_OFST;
 180c7a4:	e0bffe17 	ldw	r2,-8(fp)
 180c7a8:	10c00a17 	ldw	r3,40(r2)
 180c7ac:	e0bffb17 	ldw	r2,-20(fp)
 180c7b0:	1009883a 	mov	r4,r2
 180c7b4:	e0bffe17 	ldw	r2,-8(fp)
 180c7b8:	1885883a 	add	r2,r3,r2
 180c7bc:	10800e04 	addi	r2,r2,56
 180c7c0:	11000005 	stb	r4,0(r2)
        sp->rx_in = (sp->rx_in + 1) % ALTERA_AVALON_JTAG_UART_BUF_LEN;
 180c7c4:	e0bffe17 	ldw	r2,-8(fp)
 180c7c8:	10800a17 	ldw	r2,40(r2)
 180c7cc:	10800044 	addi	r2,r2,1
 180c7d0:	10c1ffcc 	andi	r3,r2,2047
 180c7d4:	e0bffe17 	ldw	r2,-8(fp)
 180c7d8:	10c00a15 	stw	r3,40(r2)

        /* Post an event to notify jtag_uart_read that a character has been read */
        ALT_FLAG_POST (sp->events, ALT_JTAG_UART_READ_RDY, OS_FLAG_SET);
      }
 180c7dc:	003fe106 	br	180c764 <altera_avalon_jtag_uart_irq+0x60>

      if (data & ALTERA_AVALON_JTAG_UART_DATA_RAVAIL_MSK)
 180c7e0:	e0bffb17 	ldw	r2,-20(fp)
 180c7e4:	10bfffec 	andhi	r2,r2,65535
 180c7e8:	1005003a 	cmpeq	r2,r2,zero
 180c7ec:	1000101e 	bne	r2,zero,180c830 <altera_avalon_jtag_uart_irq+0x12c>
      {
        /* If there is still data available here then the buffer is full 
         * so turn off receive interrupts until some space becomes available.
         */
        sp->irq_enable &= ~ALTERA_AVALON_JTAG_UART_CONTROL_RE_MSK;
 180c7f0:	e0bffe17 	ldw	r2,-8(fp)
 180c7f4:	10c00817 	ldw	r3,32(r2)
 180c7f8:	00bfff84 	movi	r2,-2
 180c7fc:	1886703a 	and	r3,r3,r2
 180c800:	e0bffe17 	ldw	r2,-8(fp)
 180c804:	10c00815 	stw	r3,32(r2)
        IOWR_ALTERA_AVALON_JTAG_UART_CONTROL(base, sp->irq_enable);
 180c808:	e0bffd17 	ldw	r2,-12(fp)
 180c80c:	11000104 	addi	r4,r2,4
 180c810:	e0bffe17 	ldw	r2,-8(fp)
 180c814:	10800817 	ldw	r2,32(r2)
 180c818:	1007883a 	mov	r3,r2
 180c81c:	2005883a 	mov	r2,r4
 180c820:	10c00035 	stwio	r3,0(r2)
        
        /* Dummy read to ensure IRQ is cleared prior to ISR completion */
        IORD_ALTERA_AVALON_JTAG_UART_CONTROL(base);
 180c824:	e0bffd17 	ldw	r2,-12(fp)
 180c828:	10800104 	addi	r2,r2,4
 180c82c:	10800037 	ldwio	r2,0(r2)
      }
    }

    if (control & ALTERA_AVALON_JTAG_UART_CONTROL_WI_MSK)
 180c830:	e0bffc17 	ldw	r2,-16(fp)
 180c834:	1080800c 	andi	r2,r2,512
 180c838:	1005003a 	cmpeq	r2,r2,zero
 180c83c:	103fbb1e 	bne	r2,zero,180c72c <altera_avalon_jtag_uart_irq+0x28>
    {
      /* process a write irq */
      unsigned int space = (control & ALTERA_AVALON_JTAG_UART_CONTROL_WSPACE_MSK) >> ALTERA_AVALON_JTAG_UART_CONTROL_WSPACE_OFST;
 180c840:	e0bffc17 	ldw	r2,-16(fp)
 180c844:	10bfffec 	andhi	r2,r2,65535
 180c848:	1004d43a 	srli	r2,r2,16
 180c84c:	e0bff915 	stw	r2,-28(fp)

      while (space > 0 && sp->tx_out != sp->tx_in)
 180c850:	00001506 	br	180c8a8 <altera_avalon_jtag_uart_irq+0x1a4>
      {
        IOWR_ALTERA_AVALON_JTAG_UART_DATA(base, sp->tx_buf[sp->tx_out]);
 180c854:	e13ffd17 	ldw	r4,-12(fp)
 180c858:	e0bffe17 	ldw	r2,-8(fp)
 180c85c:	10c00d17 	ldw	r3,52(r2)
 180c860:	e0bffe17 	ldw	r2,-8(fp)
 180c864:	1885883a 	add	r2,r3,r2
 180c868:	10820e04 	addi	r2,r2,2104
 180c86c:	10800003 	ldbu	r2,0(r2)
 180c870:	10c03fcc 	andi	r3,r2,255
 180c874:	18c0201c 	xori	r3,r3,128
 180c878:	18ffe004 	addi	r3,r3,-128
 180c87c:	2005883a 	mov	r2,r4
 180c880:	10c00035 	stwio	r3,0(r2)

        sp->tx_out = (sp->tx_out + 1) % ALTERA_AVALON_JTAG_UART_BUF_LEN;
 180c884:	e0bffe17 	ldw	r2,-8(fp)
 180c888:	10800d17 	ldw	r2,52(r2)
 180c88c:	10800044 	addi	r2,r2,1
 180c890:	10c1ffcc 	andi	r3,r2,2047
 180c894:	e0bffe17 	ldw	r2,-8(fp)
 180c898:	10c00d15 	stw	r3,52(r2)

        /* Post an event to notify jtag_uart_write that a character has been written */
        ALT_FLAG_POST (sp->events, ALT_JTAG_UART_WRITE_RDY, OS_FLAG_SET);

        space--;
 180c89c:	e0bff917 	ldw	r2,-28(fp)
 180c8a0:	10bfffc4 	addi	r2,r2,-1
 180c8a4:	e0bff915 	stw	r2,-28(fp)
    if (control & ALTERA_AVALON_JTAG_UART_CONTROL_WI_MSK)
    {
      /* process a write irq */
      unsigned int space = (control & ALTERA_AVALON_JTAG_UART_CONTROL_WSPACE_MSK) >> ALTERA_AVALON_JTAG_UART_CONTROL_WSPACE_OFST;

      while (space > 0 && sp->tx_out != sp->tx_in)
 180c8a8:	e0bff917 	ldw	r2,-28(fp)
 180c8ac:	1005003a 	cmpeq	r2,r2,zero
 180c8b0:	1000051e 	bne	r2,zero,180c8c8 <altera_avalon_jtag_uart_irq+0x1c4>
 180c8b4:	e0bffe17 	ldw	r2,-8(fp)
 180c8b8:	10c00d17 	ldw	r3,52(r2)
 180c8bc:	e0bffe17 	ldw	r2,-8(fp)
 180c8c0:	10800c17 	ldw	r2,48(r2)
 180c8c4:	18bfe31e 	bne	r3,r2,180c854 <altera_avalon_jtag_uart_irq+0x150>
        ALT_FLAG_POST (sp->events, ALT_JTAG_UART_WRITE_RDY, OS_FLAG_SET);

        space--;
      }

      if (space > 0)
 180c8c8:	e0bff917 	ldw	r2,-28(fp)
 180c8cc:	1005003a 	cmpeq	r2,r2,zero
 180c8d0:	103f961e 	bne	r2,zero,180c72c <altera_avalon_jtag_uart_irq+0x28>
      {
        /* If we don't have any more data available then turn off the TX interrupt */
        sp->irq_enable &= ~ALTERA_AVALON_JTAG_UART_CONTROL_WE_MSK;
 180c8d4:	e0bffe17 	ldw	r2,-8(fp)
 180c8d8:	10c00817 	ldw	r3,32(r2)
 180c8dc:	00bfff44 	movi	r2,-3
 180c8e0:	1886703a 	and	r3,r3,r2
 180c8e4:	e0bffe17 	ldw	r2,-8(fp)
 180c8e8:	10c00815 	stw	r3,32(r2)
        IOWR_ALTERA_AVALON_JTAG_UART_CONTROL(sp->base, sp->irq_enable);
 180c8ec:	e0bffe17 	ldw	r2,-8(fp)
 180c8f0:	10800017 	ldw	r2,0(r2)
 180c8f4:	11000104 	addi	r4,r2,4
 180c8f8:	e0bffe17 	ldw	r2,-8(fp)
 180c8fc:	10800817 	ldw	r2,32(r2)
 180c900:	1007883a 	mov	r3,r2
 180c904:	2005883a 	mov	r2,r4
 180c908:	10c00035 	stwio	r3,0(r2)
        
        /* Dummy read to ensure IRQ is cleared prior to ISR completion */
        IORD_ALTERA_AVALON_JTAG_UART_CONTROL(base);
 180c90c:	e0bffd17 	ldw	r2,-12(fp)
 180c910:	10800104 	addi	r2,r2,4
 180c914:	10800037 	ldwio	r2,0(r2)
      }
    }
  }
 180c918:	003f8406 	br	180c72c <altera_avalon_jtag_uart_irq+0x28>
}
 180c91c:	e037883a 	mov	sp,fp
 180c920:	df000017 	ldw	fp,0(sp)
 180c924:	dec00104 	addi	sp,sp,4
 180c928:	f800283a 	ret

0180c92c <altera_avalon_jtag_uart_timeout>:
 * Timeout routine is called every second
 */

static alt_u32 
altera_avalon_jtag_uart_timeout(void* context) 
{
 180c92c:	defffc04 	addi	sp,sp,-16
 180c930:	df000315 	stw	fp,12(sp)
 180c934:	df000304 	addi	fp,sp,12
 180c938:	e13fff15 	stw	r4,-4(fp)
  altera_avalon_jtag_uart_state* sp = (altera_avalon_jtag_uart_state *) context;
 180c93c:	e0bfff17 	ldw	r2,-4(fp)
 180c940:	e0bffe15 	stw	r2,-8(fp)

  unsigned int control = IORD_ALTERA_AVALON_JTAG_UART_CONTROL(sp->base);
 180c944:	e0bffe17 	ldw	r2,-8(fp)
 180c948:	10800017 	ldw	r2,0(r2)
 180c94c:	10800104 	addi	r2,r2,4
 180c950:	10800037 	ldwio	r2,0(r2)
 180c954:	e0bffd15 	stw	r2,-12(fp)

  if (control & ALTERA_AVALON_JTAG_UART_CONTROL_AC_MSK)
 180c958:	e0bffd17 	ldw	r2,-12(fp)
 180c95c:	1081000c 	andi	r2,r2,1024
 180c960:	1005003a 	cmpeq	r2,r2,zero
 180c964:	10000c1e 	bne	r2,zero,180c998 <altera_avalon_jtag_uart_timeout+0x6c>
  {
    IOWR_ALTERA_AVALON_JTAG_UART_CONTROL(sp->base, sp->irq_enable | ALTERA_AVALON_JTAG_UART_CONTROL_AC_MSK);
 180c968:	e0bffe17 	ldw	r2,-8(fp)
 180c96c:	10800017 	ldw	r2,0(r2)
 180c970:	11000104 	addi	r4,r2,4
 180c974:	e0bffe17 	ldw	r2,-8(fp)
 180c978:	10800817 	ldw	r2,32(r2)
 180c97c:	10810014 	ori	r2,r2,1024
 180c980:	1007883a 	mov	r3,r2
 180c984:	2005883a 	mov	r2,r4
 180c988:	10c00035 	stwio	r3,0(r2)
    sp->host_inactive = 0;
 180c98c:	e0bffe17 	ldw	r2,-8(fp)
 180c990:	10000915 	stw	zero,36(r2)
 180c994:	00000a06 	br	180c9c0 <altera_avalon_jtag_uart_timeout+0x94>
  }
  else if (sp->host_inactive < INT_MAX - 2) {
 180c998:	e0bffe17 	ldw	r2,-8(fp)
 180c99c:	10c00917 	ldw	r3,36(r2)
 180c9a0:	00a00034 	movhi	r2,32768
 180c9a4:	10bfff04 	addi	r2,r2,-4
 180c9a8:	10c00536 	bltu	r2,r3,180c9c0 <altera_avalon_jtag_uart_timeout+0x94>
    sp->host_inactive++;
 180c9ac:	e0bffe17 	ldw	r2,-8(fp)
 180c9b0:	10800917 	ldw	r2,36(r2)
 180c9b4:	10c00044 	addi	r3,r2,1
 180c9b8:	e0bffe17 	ldw	r2,-8(fp)
 180c9bc:	10c00915 	stw	r3,36(r2)
 180c9c0:	00806074 	movhi	r2,385
 180c9c4:	108aea04 	addi	r2,r2,11176
 180c9c8:	10800017 	ldw	r2,0(r2)
      ALT_FLAG_POST (sp->events, ALT_JTAG_UART_TIMEOUT, OS_FLAG_SET);
    }
  }

  return alt_ticks_per_second();
}
 180c9cc:	e037883a 	mov	sp,fp
 180c9d0:	df000017 	ldw	fp,0(sp)
 180c9d4:	dec00104 	addi	sp,sp,4
 180c9d8:	f800283a 	ret

0180c9dc <altera_avalon_jtag_uart_close>:
 * The close routine is not implemented for the small driver; instead it will
 * map to null. This is because the small driver simply waits while characters
 * are transmitted; there is no interrupt-serviced buffer to empty 
 */
int altera_avalon_jtag_uart_close(altera_avalon_jtag_uart_state* sp, int flags)
{
 180c9dc:	defffc04 	addi	sp,sp,-16
 180c9e0:	df000315 	stw	fp,12(sp)
 180c9e4:	df000304 	addi	fp,sp,12
 180c9e8:	e13ffd15 	stw	r4,-12(fp)
 180c9ec:	e17ffe15 	stw	r5,-8(fp)
  /* 
   * Wait for all transmit data to be emptied by the JTAG UART ISR, or
   * for a host-inactivity timeout, in which case transmit data will be lost
   */
  while ( (sp->tx_out != sp->tx_in) && (sp->host_inactive < sp->timeout) ) {
 180c9f0:	00000706 	br	180ca10 <altera_avalon_jtag_uart_close+0x34>
    if (flags & O_NONBLOCK) {
 180c9f4:	e0bffe17 	ldw	r2,-8(fp)
 180c9f8:	1090000c 	andi	r2,r2,16384
 180c9fc:	1005003a 	cmpeq	r2,r2,zero
 180ca00:	1000031e 	bne	r2,zero,180ca10 <altera_avalon_jtag_uart_close+0x34>
      return -EWOULDBLOCK; 
 180ca04:	00bffd44 	movi	r2,-11
 180ca08:	e0bfff15 	stw	r2,-4(fp)
 180ca0c:	00000b06 	br	180ca3c <altera_avalon_jtag_uart_close+0x60>
{
  /* 
   * Wait for all transmit data to be emptied by the JTAG UART ISR, or
   * for a host-inactivity timeout, in which case transmit data will be lost
   */
  while ( (sp->tx_out != sp->tx_in) && (sp->host_inactive < sp->timeout) ) {
 180ca10:	e0bffd17 	ldw	r2,-12(fp)
 180ca14:	10c00d17 	ldw	r3,52(r2)
 180ca18:	e0bffd17 	ldw	r2,-12(fp)
 180ca1c:	10800c17 	ldw	r2,48(r2)
 180ca20:	18800526 	beq	r3,r2,180ca38 <altera_avalon_jtag_uart_close+0x5c>
 180ca24:	e0bffd17 	ldw	r2,-12(fp)
 180ca28:	10c00917 	ldw	r3,36(r2)
 180ca2c:	e0bffd17 	ldw	r2,-12(fp)
 180ca30:	10800117 	ldw	r2,4(r2)
 180ca34:	18bfef36 	bltu	r3,r2,180c9f4 <altera_avalon_jtag_uart_close+0x18>
    if (flags & O_NONBLOCK) {
      return -EWOULDBLOCK; 
    }
  }

  return 0;
 180ca38:	e03fff15 	stw	zero,-4(fp)
 180ca3c:	e0bfff17 	ldw	r2,-4(fp)
}
 180ca40:	e037883a 	mov	sp,fp
 180ca44:	df000017 	ldw	fp,0(sp)
 180ca48:	dec00104 	addi	sp,sp,4
 180ca4c:	f800283a 	ret

0180ca50 <altera_avalon_jtag_uart_ioctl>:
/* ----------------------------------------------------------- */

int 
altera_avalon_jtag_uart_ioctl(altera_avalon_jtag_uart_state* sp, int req,
  void* arg)
{
 180ca50:	defff804 	addi	sp,sp,-32
 180ca54:	df000715 	stw	fp,28(sp)
 180ca58:	df000704 	addi	fp,sp,28
 180ca5c:	e13ffb15 	stw	r4,-20(fp)
 180ca60:	e17ffc15 	stw	r5,-16(fp)
 180ca64:	e1bffd15 	stw	r6,-12(fp)
  int rc = -ENOTTY;
 180ca68:	00bff9c4 	movi	r2,-25
 180ca6c:	e0bffa15 	stw	r2,-24(fp)

  switch (req)
 180ca70:	e0bffc17 	ldw	r2,-16(fp)
 180ca74:	e0bfff15 	stw	r2,-4(fp)
 180ca78:	e0ffff17 	ldw	r3,-4(fp)
 180ca7c:	189a8060 	cmpeqi	r2,r3,27137
 180ca80:	1000041e 	bne	r2,zero,180ca94 <altera_avalon_jtag_uart_ioctl+0x44>
 180ca84:	e0ffff17 	ldw	r3,-4(fp)
 180ca88:	189a80a0 	cmpeqi	r2,r3,27138
 180ca8c:	10001b1e 	bne	r2,zero,180cafc <altera_avalon_jtag_uart_ioctl+0xac>
 180ca90:	00002706 	br	180cb30 <altera_avalon_jtag_uart_ioctl+0xe0>
  {
  case TIOCSTIMEOUT:
    /* Set the time to wait until assuming host is not connected */
    if (sp->timeout != INT_MAX)
 180ca94:	e0bffb17 	ldw	r2,-20(fp)
 180ca98:	10c00117 	ldw	r3,4(r2)
 180ca9c:	00a00034 	movhi	r2,32768
 180caa0:	10bfffc4 	addi	r2,r2,-1
 180caa4:	18802226 	beq	r3,r2,180cb30 <altera_avalon_jtag_uart_ioctl+0xe0>
    {
      int timeout = *((int *)arg);
 180caa8:	e0bffd17 	ldw	r2,-12(fp)
 180caac:	10800017 	ldw	r2,0(r2)
 180cab0:	e0bff915 	stw	r2,-28(fp)
      sp->timeout = (timeout >= 2 && timeout < INT_MAX) ? timeout : INT_MAX - 1;
 180cab4:	e0bff917 	ldw	r2,-28(fp)
 180cab8:	10800090 	cmplti	r2,r2,2
 180cabc:	1000071e 	bne	r2,zero,180cadc <altera_avalon_jtag_uart_ioctl+0x8c>
 180cac0:	e0fff917 	ldw	r3,-28(fp)
 180cac4:	00a00034 	movhi	r2,32768
 180cac8:	10bfffc4 	addi	r2,r2,-1
 180cacc:	18800326 	beq	r3,r2,180cadc <altera_avalon_jtag_uart_ioctl+0x8c>
 180cad0:	e0bff917 	ldw	r2,-28(fp)
 180cad4:	e0bffe15 	stw	r2,-8(fp)
 180cad8:	00000306 	br	180cae8 <altera_avalon_jtag_uart_ioctl+0x98>
 180cadc:	00e00034 	movhi	r3,32768
 180cae0:	18ffff84 	addi	r3,r3,-2
 180cae4:	e0fffe15 	stw	r3,-8(fp)
 180cae8:	e0bffb17 	ldw	r2,-20(fp)
 180caec:	e0fffe17 	ldw	r3,-8(fp)
 180caf0:	10c00115 	stw	r3,4(r2)
      rc = 0;
 180caf4:	e03ffa15 	stw	zero,-24(fp)
    }
    break;
 180caf8:	00000d06 	br	180cb30 <altera_avalon_jtag_uart_ioctl+0xe0>

  case TIOCGCONNECTED:
    /* Find out whether host is connected */
    if (sp->timeout != INT_MAX)
 180cafc:	e0bffb17 	ldw	r2,-20(fp)
 180cb00:	10c00117 	ldw	r3,4(r2)
 180cb04:	00a00034 	movhi	r2,32768
 180cb08:	10bfffc4 	addi	r2,r2,-1
 180cb0c:	18800826 	beq	r3,r2,180cb30 <altera_avalon_jtag_uart_ioctl+0xe0>
    {
      *((int *)arg) = (sp->host_inactive < sp->timeout) ? 1 : 0;
 180cb10:	e13ffd17 	ldw	r4,-12(fp)
 180cb14:	e0bffb17 	ldw	r2,-20(fp)
 180cb18:	10c00917 	ldw	r3,36(r2)
 180cb1c:	e0bffb17 	ldw	r2,-20(fp)
 180cb20:	10800117 	ldw	r2,4(r2)
 180cb24:	1885803a 	cmpltu	r2,r3,r2
 180cb28:	20800015 	stw	r2,0(r4)
      rc = 0;
 180cb2c:	e03ffa15 	stw	zero,-24(fp)

  default:
    break;
  }

  return rc;
 180cb30:	e0bffa17 	ldw	r2,-24(fp)
}
 180cb34:	e037883a 	mov	sp,fp
 180cb38:	df000017 	ldw	fp,0(sp)
 180cb3c:	dec00104 	addi	sp,sp,4
 180cb40:	f800283a 	ret

0180cb44 <altera_avalon_jtag_uart_read>:
/* ----------------------------------------------------------- */

int 
altera_avalon_jtag_uart_read(altera_avalon_jtag_uart_state* sp, 
  char * buffer, int space, int flags)
{
 180cb44:	defff204 	addi	sp,sp,-56
 180cb48:	dfc00d15 	stw	ra,52(sp)
 180cb4c:	df000c15 	stw	fp,48(sp)
 180cb50:	df000c04 	addi	fp,sp,48
 180cb54:	e13ffb15 	stw	r4,-20(fp)
 180cb58:	e17ffc15 	stw	r5,-16(fp)
 180cb5c:	e1bffd15 	stw	r6,-12(fp)
 180cb60:	e1fffe15 	stw	r7,-8(fp)
  char * ptr = buffer;
 180cb64:	e0bffc17 	ldw	r2,-16(fp)
 180cb68:	e0bffa15 	stw	r2,-24(fp)
   * When running in a multi threaded environment, obtain the "read_lock"
   * semaphore. This ensures that reading from the device is thread-safe.
   */
  ALT_SEM_PEND (sp->read_lock, 0);

  while (space > 0)
 180cb6c:	00004806 	br	180cc90 <altera_avalon_jtag_uart_read+0x14c>
    unsigned int in, out;

    /* Read as much data as possible */
    do
    {
      in  = sp->rx_in;
 180cb70:	e0bffb17 	ldw	r2,-20(fp)
 180cb74:	10800a17 	ldw	r2,40(r2)
 180cb78:	e0bff715 	stw	r2,-36(fp)
      out = sp->rx_out;
 180cb7c:	e0bffb17 	ldw	r2,-20(fp)
 180cb80:	10800b17 	ldw	r2,44(r2)
 180cb84:	e0bff615 	stw	r2,-40(fp)

      if (in >= out)
 180cb88:	e0fff717 	ldw	r3,-36(fp)
 180cb8c:	e0bff617 	ldw	r2,-40(fp)
 180cb90:	18800536 	bltu	r3,r2,180cba8 <altera_avalon_jtag_uart_read+0x64>
        n = in - out;
 180cb94:	e0bff717 	ldw	r2,-36(fp)
 180cb98:	e0fff617 	ldw	r3,-40(fp)
 180cb9c:	10c5c83a 	sub	r2,r2,r3
 180cba0:	e0bff815 	stw	r2,-32(fp)
 180cba4:	00000406 	br	180cbb8 <altera_avalon_jtag_uart_read+0x74>
      else
        n = ALTERA_AVALON_JTAG_UART_BUF_LEN - out;
 180cba8:	00820004 	movi	r2,2048
 180cbac:	e0fff617 	ldw	r3,-40(fp)
 180cbb0:	10c5c83a 	sub	r2,r2,r3
 180cbb4:	e0bff815 	stw	r2,-32(fp)

      if (n == 0)
 180cbb8:	e0bff817 	ldw	r2,-32(fp)
 180cbbc:	1005003a 	cmpeq	r2,r2,zero
 180cbc0:	10001f1e 	bne	r2,zero,180cc40 <altera_avalon_jtag_uart_read+0xfc>
        break; /* No more data available */

      if (n > space)
 180cbc4:	e0fffd17 	ldw	r3,-12(fp)
 180cbc8:	e0bff817 	ldw	r2,-32(fp)
 180cbcc:	1880022e 	bgeu	r3,r2,180cbd8 <altera_avalon_jtag_uart_read+0x94>
        n = space;
 180cbd0:	e0bffd17 	ldw	r2,-12(fp)
 180cbd4:	e0bff815 	stw	r2,-32(fp)

      memcpy(ptr, sp->rx_buf + out, n);
 180cbd8:	e0bffb17 	ldw	r2,-20(fp)
 180cbdc:	10c00e04 	addi	r3,r2,56
 180cbe0:	e0bff617 	ldw	r2,-40(fp)
 180cbe4:	1887883a 	add	r3,r3,r2
 180cbe8:	e0bffa17 	ldw	r2,-24(fp)
 180cbec:	1009883a 	mov	r4,r2
 180cbf0:	180b883a 	mov	r5,r3
 180cbf4:	e1bff817 	ldw	r6,-32(fp)
 180cbf8:	18059040 	call	1805904 <memcpy>
      ptr   += n;
 180cbfc:	e0fff817 	ldw	r3,-32(fp)
 180cc00:	e0bffa17 	ldw	r2,-24(fp)
 180cc04:	10c5883a 	add	r2,r2,r3
 180cc08:	e0bffa15 	stw	r2,-24(fp)
      space -= n;
 180cc0c:	e0fffd17 	ldw	r3,-12(fp)
 180cc10:	e0bff817 	ldw	r2,-32(fp)
 180cc14:	1885c83a 	sub	r2,r3,r2
 180cc18:	e0bffd15 	stw	r2,-12(fp)

      sp->rx_out = (out + n) % ALTERA_AVALON_JTAG_UART_BUF_LEN;
 180cc1c:	e0fff617 	ldw	r3,-40(fp)
 180cc20:	e0bff817 	ldw	r2,-32(fp)
 180cc24:	1885883a 	add	r2,r3,r2
 180cc28:	10c1ffcc 	andi	r3,r2,2047
 180cc2c:	e0bffb17 	ldw	r2,-20(fp)
 180cc30:	10c00b15 	stw	r3,44(r2)
    }
    while (space > 0);
 180cc34:	e0bffd17 	ldw	r2,-12(fp)
 180cc38:	10800048 	cmpgei	r2,r2,1
 180cc3c:	103fcc1e 	bne	r2,zero,180cb70 <altera_avalon_jtag_uart_read+0x2c>

    /* If we read any data then return it */
    if (ptr != buffer)
 180cc40:	e0fffa17 	ldw	r3,-24(fp)
 180cc44:	e0bffc17 	ldw	r2,-16(fp)
 180cc48:	1880141e 	bne	r3,r2,180cc9c <altera_avalon_jtag_uart_read+0x158>
      break;

    /* If in non-blocking mode then return error */
    if (flags & O_NONBLOCK)
 180cc4c:	e0bffe17 	ldw	r2,-8(fp)
 180cc50:	1090000c 	andi	r2,r2,16384
 180cc54:	1004c03a 	cmpne	r2,r2,zero
 180cc58:	1000101e 	bne	r2,zero,180cc9c <altera_avalon_jtag_uart_read+0x158>
      while (in == sp->rx_in && sp->host_inactive < sp->timeout)
        ;
    }
#else
    /* No OS: Always spin */
    while (in == sp->rx_in && sp->host_inactive < sp->timeout)
 180cc5c:	e0bffb17 	ldw	r2,-20(fp)
 180cc60:	10c00a17 	ldw	r3,40(r2)
 180cc64:	e0bff717 	ldw	r2,-36(fp)
 180cc68:	1880051e 	bne	r3,r2,180cc80 <altera_avalon_jtag_uart_read+0x13c>
 180cc6c:	e0bffb17 	ldw	r2,-20(fp)
 180cc70:	10c00917 	ldw	r3,36(r2)
 180cc74:	e0bffb17 	ldw	r2,-20(fp)
 180cc78:	10800117 	ldw	r2,4(r2)
 180cc7c:	18bff736 	bltu	r3,r2,180cc5c <altera_avalon_jtag_uart_read+0x118>
      ;
#endif /* __ucosii__ */

    if (in == sp->rx_in)
 180cc80:	e0bffb17 	ldw	r2,-20(fp)
 180cc84:	10c00a17 	ldw	r3,40(r2)
 180cc88:	e0bff717 	ldw	r2,-36(fp)
 180cc8c:	18800326 	beq	r3,r2,180cc9c <altera_avalon_jtag_uart_read+0x158>
   * When running in a multi threaded environment, obtain the "read_lock"
   * semaphore. This ensures that reading from the device is thread-safe.
   */
  ALT_SEM_PEND (sp->read_lock, 0);

  while (space > 0)
 180cc90:	e0bffd17 	ldw	r2,-12(fp)
 180cc94:	10800048 	cmpgei	r2,r2,1
 180cc98:	103fb51e 	bne	r2,zero,180cb70 <altera_avalon_jtag_uart_read+0x2c>
   * semaphore so that other threads can access the buffer.
   */

  ALT_SEM_POST (sp->read_lock);

  if (ptr != buffer)
 180cc9c:	e0fffa17 	ldw	r3,-24(fp)
 180cca0:	e0bffc17 	ldw	r2,-16(fp)
 180cca4:	18801926 	beq	r3,r2,180cd0c <altera_avalon_jtag_uart_read+0x1c8>
static ALT_INLINE alt_irq_context ALT_ALWAYS_INLINE 
       alt_irq_disable_all (void)
{
  alt_irq_context context;

  NIOS2_READ_STATUS (context);
 180cca8:	0005303a 	rdctl	r2,status
 180ccac:	e0bff515 	stw	r2,-44(fp)

  NIOS2_WRITE_STATUS (context & ~NIOS2_STATUS_PIE_MSK);
 180ccb0:	e0fff517 	ldw	r3,-44(fp)
 180ccb4:	00bfff84 	movi	r2,-2
 180ccb8:	1884703a 	and	r2,r3,r2
 180ccbc:	1001703a 	wrctl	status,r2
  
  return context;
 180ccc0:	e0bff517 	ldw	r2,-44(fp)
  {
    /* If we read any data then there is space in the buffer so enable interrupts */
    context = alt_irq_disable_all();
 180ccc4:	e0bff915 	stw	r2,-28(fp)
    sp->irq_enable |= ALTERA_AVALON_JTAG_UART_CONTROL_RE_MSK;
 180ccc8:	e0bffb17 	ldw	r2,-20(fp)
 180cccc:	10800817 	ldw	r2,32(r2)
 180ccd0:	10c00054 	ori	r3,r2,1
 180ccd4:	e0bffb17 	ldw	r2,-20(fp)
 180ccd8:	10c00815 	stw	r3,32(r2)
    IOWR_ALTERA_AVALON_JTAG_UART_CONTROL(sp->base, sp->irq_enable);
 180ccdc:	e0bffb17 	ldw	r2,-20(fp)
 180cce0:	10800017 	ldw	r2,0(r2)
 180cce4:	11000104 	addi	r4,r2,4
 180cce8:	e0bffb17 	ldw	r2,-20(fp)
 180ccec:	10800817 	ldw	r2,32(r2)
 180ccf0:	1007883a 	mov	r3,r2
 180ccf4:	2005883a 	mov	r2,r4
 180ccf8:	10c00035 	stwio	r3,0(r2)
 180ccfc:	e0bff917 	ldw	r2,-28(fp)
 180cd00:	e0bff415 	stw	r2,-48(fp)
  status &= ~NIOS2_STATUS_PIE_MSK;
  status |= (context & NIOS2_STATUS_PIE_MSK);
  
  NIOS2_WRITE_STATUS (status);
#else
  NIOS2_WRITE_STATUS (context);
 180cd04:	e0bff417 	ldw	r2,-48(fp)
 180cd08:	1001703a 	wrctl	status,r2
    alt_irq_enable_all(context);
  }

  if (ptr != buffer)
 180cd0c:	e0fffa17 	ldw	r3,-24(fp)
 180cd10:	e0bffc17 	ldw	r2,-16(fp)
 180cd14:	18800526 	beq	r3,r2,180cd2c <altera_avalon_jtag_uart_read+0x1e8>
    return ptr - buffer;
 180cd18:	e0fffa17 	ldw	r3,-24(fp)
 180cd1c:	e0bffc17 	ldw	r2,-16(fp)
 180cd20:	1887c83a 	sub	r3,r3,r2
 180cd24:	e0ffff15 	stw	r3,-4(fp)
 180cd28:	00000906 	br	180cd50 <altera_avalon_jtag_uart_read+0x20c>
  else if (flags & O_NONBLOCK)
 180cd2c:	e0bffe17 	ldw	r2,-8(fp)
 180cd30:	1090000c 	andi	r2,r2,16384
 180cd34:	1005003a 	cmpeq	r2,r2,zero
 180cd38:	1000031e 	bne	r2,zero,180cd48 <altera_avalon_jtag_uart_read+0x204>
    return -EWOULDBLOCK;
 180cd3c:	00bffd44 	movi	r2,-11
 180cd40:	e0bfff15 	stw	r2,-4(fp)
 180cd44:	00000206 	br	180cd50 <altera_avalon_jtag_uart_read+0x20c>
  else
    return -EIO;
 180cd48:	00bffec4 	movi	r2,-5
 180cd4c:	e0bfff15 	stw	r2,-4(fp)
 180cd50:	e0bfff17 	ldw	r2,-4(fp)
}
 180cd54:	e037883a 	mov	sp,fp
 180cd58:	dfc00117 	ldw	ra,4(sp)
 180cd5c:	df000017 	ldw	fp,0(sp)
 180cd60:	dec00204 	addi	sp,sp,8
 180cd64:	f800283a 	ret

0180cd68 <altera_avalon_jtag_uart_write>:
/* ----------------------------------------------------------- */

int 
altera_avalon_jtag_uart_write(altera_avalon_jtag_uart_state* sp, 
  const char * ptr, int count, int flags)
{
 180cd68:	defff204 	addi	sp,sp,-56
 180cd6c:	dfc00d15 	stw	ra,52(sp)
 180cd70:	df000c15 	stw	fp,48(sp)
 180cd74:	df000c04 	addi	fp,sp,48
 180cd78:	e13ffb15 	stw	r4,-20(fp)
 180cd7c:	e17ffc15 	stw	r5,-16(fp)
 180cd80:	e1bffd15 	stw	r6,-12(fp)
 180cd84:	e1fffe15 	stw	r7,-8(fp)
  /* Remove warning at optimisation level 03 by seting out to 0 */
  unsigned int in, out=0;
 180cd88:	e03ff915 	stw	zero,-28(fp)
  unsigned int n;
  alt_irq_context context;

  const char * start = ptr;
 180cd8c:	e0bffc17 	ldw	r2,-16(fp)
 180cd90:	e0bff615 	stw	r2,-40(fp)
  ALT_SEM_PEND (sp->write_lock, 0);

  do
  {
    /* Copy as much as we can into the transmit buffer */
    while (count > 0)
 180cd94:	00003a06 	br	180ce80 <altera_avalon_jtag_uart_write+0x118>
    {
      /* We need a stable value of the out pointer to calculate the space available */
      in  = sp->tx_in;
 180cd98:	e0bffb17 	ldw	r2,-20(fp)
 180cd9c:	10800c17 	ldw	r2,48(r2)
 180cda0:	e0bffa15 	stw	r2,-24(fp)
      out = sp->tx_out;
 180cda4:	e0bffb17 	ldw	r2,-20(fp)
 180cda8:	10800d17 	ldw	r2,52(r2)
 180cdac:	e0bff915 	stw	r2,-28(fp)

      if (in < out)
 180cdb0:	e0fffa17 	ldw	r3,-24(fp)
 180cdb4:	e0bff917 	ldw	r2,-28(fp)
 180cdb8:	1880062e 	bgeu	r3,r2,180cdd4 <altera_avalon_jtag_uart_write+0x6c>
        n = out - 1 - in;
 180cdbc:	e0fff917 	ldw	r3,-28(fp)
 180cdc0:	e0bffa17 	ldw	r2,-24(fp)
 180cdc4:	1885c83a 	sub	r2,r3,r2
 180cdc8:	10bfffc4 	addi	r2,r2,-1
 180cdcc:	e0bff815 	stw	r2,-32(fp)
 180cdd0:	00000c06 	br	180ce04 <altera_avalon_jtag_uart_write+0x9c>
      else if (out > 0)
 180cdd4:	e0bff917 	ldw	r2,-28(fp)
 180cdd8:	1005003a 	cmpeq	r2,r2,zero
 180cddc:	1000051e 	bne	r2,zero,180cdf4 <altera_avalon_jtag_uart_write+0x8c>
        n = ALTERA_AVALON_JTAG_UART_BUF_LEN - in;
 180cde0:	00820004 	movi	r2,2048
 180cde4:	e0fffa17 	ldw	r3,-24(fp)
 180cde8:	10c5c83a 	sub	r2,r2,r3
 180cdec:	e0bff815 	stw	r2,-32(fp)
 180cdf0:	00000406 	br	180ce04 <altera_avalon_jtag_uart_write+0x9c>
      else
        n = ALTERA_AVALON_JTAG_UART_BUF_LEN - 1 - in;
 180cdf4:	0081ffc4 	movi	r2,2047
 180cdf8:	e0fffa17 	ldw	r3,-24(fp)
 180cdfc:	10c5c83a 	sub	r2,r2,r3
 180ce00:	e0bff815 	stw	r2,-32(fp)

      if (n == 0)
 180ce04:	e0bff817 	ldw	r2,-32(fp)
 180ce08:	1005003a 	cmpeq	r2,r2,zero
 180ce0c:	10001f1e 	bne	r2,zero,180ce8c <altera_avalon_jtag_uart_write+0x124>
        break;

      if (n > count)
 180ce10:	e0fffd17 	ldw	r3,-12(fp)
 180ce14:	e0bff817 	ldw	r2,-32(fp)
 180ce18:	1880022e 	bgeu	r3,r2,180ce24 <altera_avalon_jtag_uart_write+0xbc>
        n = count;
 180ce1c:	e0bffd17 	ldw	r2,-12(fp)
 180ce20:	e0bff815 	stw	r2,-32(fp)

      memcpy(sp->tx_buf + in, ptr, n);
 180ce24:	e0bffb17 	ldw	r2,-20(fp)
 180ce28:	10c20e04 	addi	r3,r2,2104
 180ce2c:	e0bffa17 	ldw	r2,-24(fp)
 180ce30:	1885883a 	add	r2,r3,r2
 180ce34:	e0fffc17 	ldw	r3,-16(fp)
 180ce38:	1009883a 	mov	r4,r2
 180ce3c:	180b883a 	mov	r5,r3
 180ce40:	e1bff817 	ldw	r6,-32(fp)
 180ce44:	18059040 	call	1805904 <memcpy>
      ptr   += n;
 180ce48:	e0fff817 	ldw	r3,-32(fp)
 180ce4c:	e0bffc17 	ldw	r2,-16(fp)
 180ce50:	10c5883a 	add	r2,r2,r3
 180ce54:	e0bffc15 	stw	r2,-16(fp)
      count -= n;
 180ce58:	e0fffd17 	ldw	r3,-12(fp)
 180ce5c:	e0bff817 	ldw	r2,-32(fp)
 180ce60:	1885c83a 	sub	r2,r3,r2
 180ce64:	e0bffd15 	stw	r2,-12(fp)

      sp->tx_in = (in + n) % ALTERA_AVALON_JTAG_UART_BUF_LEN;
 180ce68:	e0fffa17 	ldw	r3,-24(fp)
 180ce6c:	e0bff817 	ldw	r2,-32(fp)
 180ce70:	1885883a 	add	r2,r3,r2
 180ce74:	10c1ffcc 	andi	r3,r2,2047
 180ce78:	e0bffb17 	ldw	r2,-20(fp)
 180ce7c:	10c00c15 	stw	r3,48(r2)
  ALT_SEM_PEND (sp->write_lock, 0);

  do
  {
    /* Copy as much as we can into the transmit buffer */
    while (count > 0)
 180ce80:	e0bffd17 	ldw	r2,-12(fp)
 180ce84:	10800048 	cmpgei	r2,r2,1
 180ce88:	103fc31e 	bne	r2,zero,180cd98 <altera_avalon_jtag_uart_write+0x30>
static ALT_INLINE alt_irq_context ALT_ALWAYS_INLINE 
       alt_irq_disable_all (void)
{
  alt_irq_context context;

  NIOS2_READ_STATUS (context);
 180ce8c:	0005303a 	rdctl	r2,status
 180ce90:	e0bff515 	stw	r2,-44(fp)

  NIOS2_WRITE_STATUS (context & ~NIOS2_STATUS_PIE_MSK);
 180ce94:	e0fff517 	ldw	r3,-44(fp)
 180ce98:	00bfff84 	movi	r2,-2
 180ce9c:	1884703a 	and	r2,r3,r2
 180cea0:	1001703a 	wrctl	status,r2
  
  return context;
 180cea4:	e0bff517 	ldw	r2,-44(fp)
     * to enable interrupts if there is no space left in the FIFO
     *
     * For now kick the interrupt routine every time to make it transmit 
     * the data 
     */
    context = alt_irq_disable_all();
 180cea8:	e0bff715 	stw	r2,-36(fp)
    sp->irq_enable |= ALTERA_AVALON_JTAG_UART_CONTROL_WE_MSK;
 180ceac:	e0bffb17 	ldw	r2,-20(fp)
 180ceb0:	10800817 	ldw	r2,32(r2)
 180ceb4:	10c00094 	ori	r3,r2,2
 180ceb8:	e0bffb17 	ldw	r2,-20(fp)
 180cebc:	10c00815 	stw	r3,32(r2)
    IOWR_ALTERA_AVALON_JTAG_UART_CONTROL(sp->base, sp->irq_enable);
 180cec0:	e0bffb17 	ldw	r2,-20(fp)
 180cec4:	10800017 	ldw	r2,0(r2)
 180cec8:	11000104 	addi	r4,r2,4
 180cecc:	e0bffb17 	ldw	r2,-20(fp)
 180ced0:	10800817 	ldw	r2,32(r2)
 180ced4:	1007883a 	mov	r3,r2
 180ced8:	2005883a 	mov	r2,r4
 180cedc:	10c00035 	stwio	r3,0(r2)
 180cee0:	e0bff717 	ldw	r2,-36(fp)
 180cee4:	e0bff415 	stw	r2,-48(fp)
  status &= ~NIOS2_STATUS_PIE_MSK;
  status |= (context & NIOS2_STATUS_PIE_MSK);
  
  NIOS2_WRITE_STATUS (status);
#else
  NIOS2_WRITE_STATUS (context);
 180cee8:	e0bff417 	ldw	r2,-48(fp)
 180ceec:	1001703a 	wrctl	status,r2
    /* 
     * If there is any data left then either return now or block until 
     * some has been sent 
     */
    /* consider: test whether there is anything there while doing this and delay for at most 2s. */
    if (count > 0)
 180cef0:	e0bffd17 	ldw	r2,-12(fp)
 180cef4:	10800050 	cmplti	r2,r2,1
 180cef8:	1000111e 	bne	r2,zero,180cf40 <altera_avalon_jtag_uart_write+0x1d8>
    {
      if (flags & O_NONBLOCK)
 180cefc:	e0bffe17 	ldw	r2,-8(fp)
 180cf00:	1090000c 	andi	r2,r2,16384
 180cf04:	1004c03a 	cmpne	r2,r2,zero
 180cf08:	1000101e 	bne	r2,zero,180cf4c <altera_avalon_jtag_uart_write+0x1e4>
      /*
       * No OS present: Always wait for data to be removed from buffer.  Once
       * the interrupt routine has removed some data then we will be able to
       * insert some more.
       */
      while (out == sp->tx_out && sp->host_inactive < sp->timeout)
 180cf0c:	e0bffb17 	ldw	r2,-20(fp)
 180cf10:	10c00d17 	ldw	r3,52(r2)
 180cf14:	e0bff917 	ldw	r2,-28(fp)
 180cf18:	1880051e 	bne	r3,r2,180cf30 <altera_avalon_jtag_uart_write+0x1c8>
 180cf1c:	e0bffb17 	ldw	r2,-20(fp)
 180cf20:	10c00917 	ldw	r3,36(r2)
 180cf24:	e0bffb17 	ldw	r2,-20(fp)
 180cf28:	10800117 	ldw	r2,4(r2)
 180cf2c:	18bff736 	bltu	r3,r2,180cf0c <altera_avalon_jtag_uart_write+0x1a4>
        ;
#endif /* __ucosii__ */

      if (out == sp->tx_out)
 180cf30:	e0bffb17 	ldw	r2,-20(fp)
 180cf34:	10c00d17 	ldw	r3,52(r2)
 180cf38:	e0bff917 	ldw	r2,-28(fp)
 180cf3c:	18800326 	beq	r3,r2,180cf4c <altera_avalon_jtag_uart_write+0x1e4>
        break;
    }
  }
  while (count > 0);
 180cf40:	e0bffd17 	ldw	r2,-12(fp)
 180cf44:	10800048 	cmpgei	r2,r2,1
 180cf48:	103fcd1e 	bne	r2,zero,180ce80 <altera_avalon_jtag_uart_write+0x118>
   * Now that access to the circular buffer is complete, release the write
   * semaphore so that other threads can access the buffer.
   */
  ALT_SEM_POST (sp->write_lock);

  if (ptr != start)
 180cf4c:	e0fffc17 	ldw	r3,-16(fp)
 180cf50:	e0bff617 	ldw	r2,-40(fp)
 180cf54:	18800526 	beq	r3,r2,180cf6c <altera_avalon_jtag_uart_write+0x204>
    return ptr - start;
 180cf58:	e0fffc17 	ldw	r3,-16(fp)
 180cf5c:	e0bff617 	ldw	r2,-40(fp)
 180cf60:	1887c83a 	sub	r3,r3,r2
 180cf64:	e0ffff15 	stw	r3,-4(fp)
 180cf68:	00000906 	br	180cf90 <altera_avalon_jtag_uart_write+0x228>
  else if (flags & O_NONBLOCK)
 180cf6c:	e0bffe17 	ldw	r2,-8(fp)
 180cf70:	1090000c 	andi	r2,r2,16384
 180cf74:	1005003a 	cmpeq	r2,r2,zero
 180cf78:	1000031e 	bne	r2,zero,180cf88 <altera_avalon_jtag_uart_write+0x220>
    return -EWOULDBLOCK;
 180cf7c:	00bffd44 	movi	r2,-11
 180cf80:	e0bfff15 	stw	r2,-4(fp)
 180cf84:	00000206 	br	180cf90 <altera_avalon_jtag_uart_write+0x228>
  else
    return -EIO; /* Host not connected */
 180cf88:	00bffec4 	movi	r2,-5
 180cf8c:	e0bfff15 	stw	r2,-4(fp)
 180cf90:	e0bfff17 	ldw	r2,-4(fp)
}
 180cf94:	e037883a 	mov	sp,fp
 180cf98:	dfc00117 	ldw	ra,4(sp)
 180cf9c:	df000017 	ldw	fp,0(sp)
 180cfa0:	dec00204 	addi	sp,sp,8
 180cfa4:	f800283a 	ret

0180cfa8 <lcd_write_command>:

/* --------------------------------------------------------------------- */

static void lcd_write_command(altera_avalon_lcd_16207_state* sp, 
  unsigned char command)
{
 180cfa8:	defffa04 	addi	sp,sp,-24
 180cfac:	dfc00515 	stw	ra,20(sp)
 180cfb0:	df000415 	stw	fp,16(sp)
 180cfb4:	df000404 	addi	fp,sp,16
 180cfb8:	e13ffe15 	stw	r4,-8(fp)
 180cfbc:	e17fff05 	stb	r5,-4(fp)
  unsigned int base = sp->base;
 180cfc0:	e0bffe17 	ldw	r2,-8(fp)
 180cfc4:	10800017 	ldw	r2,0(r2)
 180cfc8:	e0bffd15 	stw	r2,-12(fp)
  /* We impose a timeout on the driver in case the LCD panel isn't connected.
   * The first time we call this function the timeout is approx 25ms 
   * (assuming 5 cycles per loop and a 200MHz clock).  Obviously systems
   * with slower clocks, or debug builds, or slower memory will take longer.
   */
  int i = 1000000;
 180cfcc:	008003f4 	movhi	r2,15
 180cfd0:	10909004 	addi	r2,r2,16960
 180cfd4:	e0bffc15 	stw	r2,-16(fp)

  /* Don't bother if the LCD panel didn't work before */
  if (sp->broken)
 180cfd8:	e0bffe17 	ldw	r2,-8(fp)
 180cfdc:	10800803 	ldbu	r2,32(r2)
 180cfe0:	10803fcc 	andi	r2,r2,255
 180cfe4:	1080201c 	xori	r2,r2,128
 180cfe8:	10bfe004 	addi	r2,r2,-128
 180cfec:	1004c03a 	cmpne	r2,r2,zero
 180cff0:	1000161e 	bne	r2,zero,180d04c <lcd_write_command+0xa4>
    return;

  /* Wait until LCD isn't busy. */
  while (IORD_ALTERA_AVALON_LCD_16207_STATUS(base) & ALTERA_AVALON_LCD_16207_STATUS_BUSY_MSK)
 180cff4:	00000a06 	br	180d020 <lcd_write_command+0x78>
    if (--i == 0)
 180cff8:	e0bffc17 	ldw	r2,-16(fp)
 180cffc:	10bfffc4 	addi	r2,r2,-1
 180d000:	e0bffc15 	stw	r2,-16(fp)
 180d004:	e0bffc17 	ldw	r2,-16(fp)
 180d008:	1004c03a 	cmpne	r2,r2,zero
 180d00c:	1000041e 	bne	r2,zero,180d020 <lcd_write_command+0x78>
    {
      sp->broken = 1;
 180d010:	e0fffe17 	ldw	r3,-8(fp)
 180d014:	00800044 	movi	r2,1
 180d018:	18800805 	stb	r2,32(r3)
      return;
 180d01c:	00000b06 	br	180d04c <lcd_write_command+0xa4>
  /* Don't bother if the LCD panel didn't work before */
  if (sp->broken)
    return;

  /* Wait until LCD isn't busy. */
  while (IORD_ALTERA_AVALON_LCD_16207_STATUS(base) & ALTERA_AVALON_LCD_16207_STATUS_BUSY_MSK)
 180d020:	e0bffd17 	ldw	r2,-12(fp)
 180d024:	10800104 	addi	r2,r2,4
 180d028:	10800037 	ldwio	r2,0(r2)
 180d02c:	1080200c 	andi	r2,r2,128
 180d030:	1004c03a 	cmpne	r2,r2,zero
 180d034:	103ff01e 	bne	r2,zero,180cff8 <lcd_write_command+0x50>
    }

  /* Despite what it says in the datasheet, the LCD isn't ready to accept
   * a write immediately after it returns BUSY=0.  Wait for 100us more.
   */
  usleep(100);
 180d038:	01001904 	movi	r4,100
 180d03c:	180a5240 	call	180a524 <usleep>

  IOWR_ALTERA_AVALON_LCD_16207_COMMAND(base, command);
 180d040:	e0bffd17 	ldw	r2,-12(fp)
 180d044:	e0ffff03 	ldbu	r3,-4(fp)
 180d048:	10c00035 	stwio	r3,0(r2)
}
 180d04c:	e037883a 	mov	sp,fp
 180d050:	dfc00117 	ldw	ra,4(sp)
 180d054:	df000017 	ldw	fp,0(sp)
 180d058:	dec00204 	addi	sp,sp,8
 180d05c:	f800283a 	ret

0180d060 <lcd_write_data>:

/* --------------------------------------------------------------------- */

static void lcd_write_data(altera_avalon_lcd_16207_state* sp, 
  unsigned char data)
{
 180d060:	defffa04 	addi	sp,sp,-24
 180d064:	dfc00515 	stw	ra,20(sp)
 180d068:	df000415 	stw	fp,16(sp)
 180d06c:	df000404 	addi	fp,sp,16
 180d070:	e13ffe15 	stw	r4,-8(fp)
 180d074:	e17fff05 	stb	r5,-4(fp)
  unsigned int base = sp->base;
 180d078:	e0bffe17 	ldw	r2,-8(fp)
 180d07c:	10800017 	ldw	r2,0(r2)
 180d080:	e0bffd15 	stw	r2,-12(fp)
  /* We impose a timeout on the driver in case the LCD panel isn't connected.
   * The first time we call this function the timeout is approx 25ms 
   * (assuming 5 cycles per loop and a 200MHz clock).  Obviously systems
   * with slower clocks, or debug builds, or slower memory will take longer.
   */
  int i = 1000000;
 180d084:	008003f4 	movhi	r2,15
 180d088:	10909004 	addi	r2,r2,16960
 180d08c:	e0bffc15 	stw	r2,-16(fp)

  /* Don't bother if the LCD panel didn't work before */
  if (sp->broken)
 180d090:	e0bffe17 	ldw	r2,-8(fp)
 180d094:	10800803 	ldbu	r2,32(r2)
 180d098:	10803fcc 	andi	r2,r2,255
 180d09c:	1080201c 	xori	r2,r2,128
 180d0a0:	10bfe004 	addi	r2,r2,-128
 180d0a4:	1004c03a 	cmpne	r2,r2,zero
 180d0a8:	10001d1e 	bne	r2,zero,180d120 <lcd_write_data+0xc0>
    return;

  /* Wait until LCD isn't busy. */
  while (IORD_ALTERA_AVALON_LCD_16207_STATUS(base) & ALTERA_AVALON_LCD_16207_STATUS_BUSY_MSK)
 180d0ac:	00000a06 	br	180d0d8 <lcd_write_data+0x78>
    if (--i == 0)
 180d0b0:	e0bffc17 	ldw	r2,-16(fp)
 180d0b4:	10bfffc4 	addi	r2,r2,-1
 180d0b8:	e0bffc15 	stw	r2,-16(fp)
 180d0bc:	e0bffc17 	ldw	r2,-16(fp)
 180d0c0:	1004c03a 	cmpne	r2,r2,zero
 180d0c4:	1000041e 	bne	r2,zero,180d0d8 <lcd_write_data+0x78>
    {
      sp->broken = 1;
 180d0c8:	e0fffe17 	ldw	r3,-8(fp)
 180d0cc:	00800044 	movi	r2,1
 180d0d0:	18800805 	stb	r2,32(r3)
      return;
 180d0d4:	00001206 	br	180d120 <lcd_write_data+0xc0>
  /* Don't bother if the LCD panel didn't work before */
  if (sp->broken)
    return;

  /* Wait until LCD isn't busy. */
  while (IORD_ALTERA_AVALON_LCD_16207_STATUS(base) & ALTERA_AVALON_LCD_16207_STATUS_BUSY_MSK)
 180d0d8:	e0bffd17 	ldw	r2,-12(fp)
 180d0dc:	10800104 	addi	r2,r2,4
 180d0e0:	10800037 	ldwio	r2,0(r2)
 180d0e4:	1080200c 	andi	r2,r2,128
 180d0e8:	1004c03a 	cmpne	r2,r2,zero
 180d0ec:	103ff01e 	bne	r2,zero,180d0b0 <lcd_write_data+0x50>
    }

  /* Despite what it says in the datasheet, the LCD isn't ready to accept
   * a write immediately after it returns BUSY=0.  Wait for 100us more.
   */
  usleep(100);
 180d0f0:	01001904 	movi	r4,100
 180d0f4:	180a5240 	call	180a524 <usleep>

  IOWR_ALTERA_AVALON_LCD_16207_DATA(base, data);
 180d0f8:	e0bffd17 	ldw	r2,-12(fp)
 180d0fc:	10800204 	addi	r2,r2,8
 180d100:	e0ffff03 	ldbu	r3,-4(fp)
 180d104:	10c00035 	stwio	r3,0(r2)

  sp->address++;
 180d108:	e0bffe17 	ldw	r2,-8(fp)
 180d10c:	108008c3 	ldbu	r2,35(r2)
 180d110:	10800044 	addi	r2,r2,1
 180d114:	1007883a 	mov	r3,r2
 180d118:	e0bffe17 	ldw	r2,-8(fp)
 180d11c:	10c008c5 	stb	r3,35(r2)
}
 180d120:	e037883a 	mov	sp,fp
 180d124:	dfc00117 	ldw	ra,4(sp)
 180d128:	df000017 	ldw	fp,0(sp)
 180d12c:	dec00204 	addi	sp,sp,8
 180d130:	f800283a 	ret

0180d134 <lcd_clear_screen>:

/* --------------------------------------------------------------------- */

static void lcd_clear_screen(altera_avalon_lcd_16207_state* sp)
{
 180d134:	defffc04 	addi	sp,sp,-16
 180d138:	dfc00315 	stw	ra,12(sp)
 180d13c:	df000215 	stw	fp,8(sp)
 180d140:	df000204 	addi	fp,sp,8
 180d144:	e13fff15 	stw	r4,-4(fp)
  int y;

  lcd_write_command(sp, LCD_CMD_CLEAR);
 180d148:	e13fff17 	ldw	r4,-4(fp)
 180d14c:	01400044 	movi	r5,1
 180d150:	180cfa80 	call	180cfa8 <lcd_write_command>

  sp->x = 0;
 180d154:	e0bfff17 	ldw	r2,-4(fp)
 180d158:	10000845 	stb	zero,33(r2)
  sp->y = 0;
 180d15c:	e0bfff17 	ldw	r2,-4(fp)
 180d160:	10000885 	stb	zero,34(r2)
  sp->address = 0;
 180d164:	e0bfff17 	ldw	r2,-4(fp)
 180d168:	100008c5 	stb	zero,35(r2)

  for (y = 0 ; y < ALT_LCD_HEIGHT ; y++)
 180d16c:	e03ffe15 	stw	zero,-8(fp)
 180d170:	00001906 	br	180d1d8 <lcd_clear_screen+0xa4>
  {
    memset(sp->line[y].data, ' ', sizeof(sp->line[0].data));
 180d174:	e0bffe17 	ldw	r2,-8(fp)
 180d178:	108018e4 	muli	r2,r2,99
 180d17c:	10c01004 	addi	r3,r2,64
 180d180:	e0bfff17 	ldw	r2,-4(fp)
 180d184:	1889883a 	add	r4,r3,r2
 180d188:	01400804 	movi	r5,32
 180d18c:	01801444 	movi	r6,81
 180d190:	1805a840 	call	1805a84 <memset>
    memset(sp->line[y].visible, ' ', sizeof(sp->line[0].visible));
 180d194:	e0bffe17 	ldw	r2,-8(fp)
 180d198:	108018e4 	muli	r2,r2,99
 180d19c:	10c00c04 	addi	r3,r2,48
 180d1a0:	e0bfff17 	ldw	r2,-4(fp)
 180d1a4:	1889883a 	add	r4,r3,r2
 180d1a8:	01400804 	movi	r5,32
 180d1ac:	01800404 	movi	r6,16
 180d1b0:	1805a840 	call	1805a84 <memset>
    sp->line[y].width = 0;
 180d1b4:	e0bffe17 	ldw	r2,-8(fp)
 180d1b8:	e0ffff17 	ldw	r3,-4(fp)
 180d1bc:	108018e4 	muli	r2,r2,99
 180d1c0:	10c5883a 	add	r2,r2,r3
 180d1c4:	10802404 	addi	r2,r2,144
 180d1c8:	10000045 	stb	zero,1(r2)

  sp->x = 0;
  sp->y = 0;
  sp->address = 0;

  for (y = 0 ; y < ALT_LCD_HEIGHT ; y++)
 180d1cc:	e0bffe17 	ldw	r2,-8(fp)
 180d1d0:	10800044 	addi	r2,r2,1
 180d1d4:	e0bffe15 	stw	r2,-8(fp)
 180d1d8:	e0bffe17 	ldw	r2,-8(fp)
 180d1dc:	10800090 	cmplti	r2,r2,2
 180d1e0:	103fe41e 	bne	r2,zero,180d174 <lcd_clear_screen+0x40>
  {
    memset(sp->line[y].data, ' ', sizeof(sp->line[0].data));
    memset(sp->line[y].visible, ' ', sizeof(sp->line[0].visible));
    sp->line[y].width = 0;
  }
}
 180d1e4:	e037883a 	mov	sp,fp
 180d1e8:	dfc00117 	ldw	ra,4(sp)
 180d1ec:	df000017 	ldw	fp,0(sp)
 180d1f0:	dec00204 	addi	sp,sp,8
 180d1f4:	f800283a 	ret

0180d1f8 <lcd_repaint_screen>:

/* --------------------------------------------------------------------- */

static void lcd_repaint_screen(altera_avalon_lcd_16207_state* sp)
{
 180d1f8:	defff704 	addi	sp,sp,-36
 180d1fc:	dfc00815 	stw	ra,32(sp)
 180d200:	df000715 	stw	fp,28(sp)
 180d204:	df000704 	addi	fp,sp,28
 180d208:	e13fff15 	stw	r4,-4(fp)
  /* scrollpos controls how much the lines have scrolled round.  The speed
   * each line scrolls at is controlled by its speed variable - while
   * scrolline lines will wrap at the position set by width
   */

  int scrollpos = sp->scrollpos;
 180d20c:	e0bfff17 	ldw	r2,-4(fp)
 180d210:	10800943 	ldbu	r2,37(r2)
 180d214:	10803fcc 	andi	r2,r2,255
 180d218:	1080201c 	xori	r2,r2,128
 180d21c:	10bfe004 	addi	r2,r2,-128
 180d220:	e0bffc15 	stw	r2,-16(fp)

  for (y = 0 ; y < ALT_LCD_HEIGHT ; y++)
 180d224:	e03ffe15 	stw	zero,-8(fp)
 180d228:	00006606 	br	180d3c4 <lcd_repaint_screen+0x1cc>
  {
    int width  = sp->line[y].width;
 180d22c:	e0bffe17 	ldw	r2,-8(fp)
 180d230:	e0ffff17 	ldw	r3,-4(fp)
 180d234:	108018e4 	muli	r2,r2,99
 180d238:	10c5883a 	add	r2,r2,r3
 180d23c:	10802404 	addi	r2,r2,144
 180d240:	10800043 	ldbu	r2,1(r2)
 180d244:	10803fcc 	andi	r2,r2,255
 180d248:	1080201c 	xori	r2,r2,128
 180d24c:	10bfe004 	addi	r2,r2,-128
 180d250:	e0bffb15 	stw	r2,-20(fp)
    int offset = (scrollpos * sp->line[y].speed) >> 8;
 180d254:	e0bffe17 	ldw	r2,-8(fp)
 180d258:	e0ffff17 	ldw	r3,-4(fp)
 180d25c:	108018e4 	muli	r2,r2,99
 180d260:	10c5883a 	add	r2,r2,r3
 180d264:	10802404 	addi	r2,r2,144
 180d268:	10800083 	ldbu	r2,2(r2)
 180d26c:	10c03fcc 	andi	r3,r2,255
 180d270:	e0bffc17 	ldw	r2,-16(fp)
 180d274:	1885383a 	mul	r2,r3,r2
 180d278:	1005d23a 	srai	r2,r2,8
 180d27c:	e0bffa15 	stw	r2,-24(fp)
    if (offset >= width)
 180d280:	e0fffa17 	ldw	r3,-24(fp)
 180d284:	e0bffb17 	ldw	r2,-20(fp)
 180d288:	18800116 	blt	r3,r2,180d290 <lcd_repaint_screen+0x98>
      offset = 0;
 180d28c:	e03ffa15 	stw	zero,-24(fp)

    for (x = 0 ; x < ALT_LCD_WIDTH ; x++)
 180d290:	e03ffd15 	stw	zero,-12(fp)
 180d294:	00004506 	br	180d3ac <lcd_repaint_screen+0x1b4>
    {
      char c = sp->line[y].data[(x + offset) % width];
 180d298:	e17ffe17 	ldw	r5,-8(fp)
 180d29c:	e0fffd17 	ldw	r3,-12(fp)
 180d2a0:	e0bffa17 	ldw	r2,-24(fp)
 180d2a4:	1889883a 	add	r4,r3,r2
 180d2a8:	e0bffb17 	ldw	r2,-20(fp)
 180d2ac:	2087283a 	div	r3,r4,r2
 180d2b0:	e0bffb17 	ldw	r2,-20(fp)
 180d2b4:	1885383a 	mul	r2,r3,r2
 180d2b8:	2089c83a 	sub	r4,r4,r2
 180d2bc:	e0ffff17 	ldw	r3,-4(fp)
 180d2c0:	288018e4 	muli	r2,r5,99
 180d2c4:	10c5883a 	add	r2,r2,r3
 180d2c8:	1105883a 	add	r2,r2,r4
 180d2cc:	10801004 	addi	r2,r2,64
 180d2d0:	10800003 	ldbu	r2,0(r2)
 180d2d4:	e0bff945 	stb	r2,-27(fp)

      /* Writing data takes 40us, so don't do it unless required */
      if (sp->line[y].visible[x] != c)
 180d2d8:	e0bffe17 	ldw	r2,-8(fp)
 180d2dc:	e13ffd17 	ldw	r4,-12(fp)
 180d2e0:	e0ffff17 	ldw	r3,-4(fp)
 180d2e4:	108018e4 	muli	r2,r2,99
 180d2e8:	10c5883a 	add	r2,r2,r3
 180d2ec:	1105883a 	add	r2,r2,r4
 180d2f0:	10800c04 	addi	r2,r2,48
 180d2f4:	10800003 	ldbu	r2,0(r2)
 180d2f8:	10c03fcc 	andi	r3,r2,255
 180d2fc:	18c0201c 	xori	r3,r3,128
 180d300:	18ffe004 	addi	r3,r3,-128
 180d304:	e0bff947 	ldb	r2,-27(fp)
 180d308:	18802526 	beq	r3,r2,180d3a0 <lcd_repaint_screen+0x1a8>
      {
        unsigned char address = x + colstart[y];
 180d30c:	e0fffe17 	ldw	r3,-8(fp)
 180d310:	d0a00d04 	addi	r2,gp,-32716
 180d314:	1885883a 	add	r2,r3,r2
 180d318:	10800003 	ldbu	r2,0(r2)
 180d31c:	1007883a 	mov	r3,r2
 180d320:	e0bffd17 	ldw	r2,-12(fp)
 180d324:	1885883a 	add	r2,r3,r2
 180d328:	e0bff905 	stb	r2,-28(fp)

        if (address != sp->address)
 180d32c:	e0fff903 	ldbu	r3,-28(fp)
 180d330:	e0bfff17 	ldw	r2,-4(fp)
 180d334:	108008c3 	ldbu	r2,35(r2)
 180d338:	10803fcc 	andi	r2,r2,255
 180d33c:	1080201c 	xori	r2,r2,128
 180d340:	10bfe004 	addi	r2,r2,-128
 180d344:	18800926 	beq	r3,r2,180d36c <lcd_repaint_screen+0x174>
        {
          lcd_write_command(sp, LCD_CMD_WRITE_DATA | address);
 180d348:	e0fff903 	ldbu	r3,-28(fp)
 180d34c:	00bfe004 	movi	r2,-128
 180d350:	1884b03a 	or	r2,r3,r2
 180d354:	11403fcc 	andi	r5,r2,255
 180d358:	e13fff17 	ldw	r4,-4(fp)
 180d35c:	180cfa80 	call	180cfa8 <lcd_write_command>
          sp->address = address;
 180d360:	e0fff903 	ldbu	r3,-28(fp)
 180d364:	e0bfff17 	ldw	r2,-4(fp)
 180d368:	10c008c5 	stb	r3,35(r2)
        }

        lcd_write_data(sp, c);
 180d36c:	e0bff943 	ldbu	r2,-27(fp)
 180d370:	11403fcc 	andi	r5,r2,255
 180d374:	e13fff17 	ldw	r4,-4(fp)
 180d378:	180d0600 	call	180d060 <lcd_write_data>
        sp->line[y].visible[x] = c;
 180d37c:	e0bffe17 	ldw	r2,-8(fp)
 180d380:	e13ffd17 	ldw	r4,-12(fp)
 180d384:	e0ffff17 	ldw	r3,-4(fp)
 180d388:	108018e4 	muli	r2,r2,99
 180d38c:	10c5883a 	add	r2,r2,r3
 180d390:	1105883a 	add	r2,r2,r4
 180d394:	10c00c04 	addi	r3,r2,48
 180d398:	e0bff943 	ldbu	r2,-27(fp)
 180d39c:	18800005 	stb	r2,0(r3)
    int width  = sp->line[y].width;
    int offset = (scrollpos * sp->line[y].speed) >> 8;
    if (offset >= width)
      offset = 0;

    for (x = 0 ; x < ALT_LCD_WIDTH ; x++)
 180d3a0:	e0bffd17 	ldw	r2,-12(fp)
 180d3a4:	10800044 	addi	r2,r2,1
 180d3a8:	e0bffd15 	stw	r2,-12(fp)
 180d3ac:	e0bffd17 	ldw	r2,-12(fp)
 180d3b0:	10800410 	cmplti	r2,r2,16
 180d3b4:	103fb81e 	bne	r2,zero,180d298 <lcd_repaint_screen+0xa0>
   * scrolline lines will wrap at the position set by width
   */

  int scrollpos = sp->scrollpos;

  for (y = 0 ; y < ALT_LCD_HEIGHT ; y++)
 180d3b8:	e0bffe17 	ldw	r2,-8(fp)
 180d3bc:	10800044 	addi	r2,r2,1
 180d3c0:	e0bffe15 	stw	r2,-8(fp)
 180d3c4:	e0bffe17 	ldw	r2,-8(fp)
 180d3c8:	10800090 	cmplti	r2,r2,2
 180d3cc:	103f971e 	bne	r2,zero,180d22c <lcd_repaint_screen+0x34>
        lcd_write_data(sp, c);
        sp->line[y].visible[x] = c;
      }
    }
  }
}
 180d3d0:	e037883a 	mov	sp,fp
 180d3d4:	dfc00117 	ldw	ra,4(sp)
 180d3d8:	df000017 	ldw	fp,0(sp)
 180d3dc:	dec00204 	addi	sp,sp,8
 180d3e0:	f800283a 	ret

0180d3e4 <lcd_scroll_up>:

/* --------------------------------------------------------------------- */

static void lcd_scroll_up(altera_avalon_lcd_16207_state* sp)
{
 180d3e4:	defffc04 	addi	sp,sp,-16
 180d3e8:	dfc00315 	stw	ra,12(sp)
 180d3ec:	df000215 	stw	fp,8(sp)
 180d3f0:	df000204 	addi	fp,sp,8
 180d3f4:	e13fff15 	stw	r4,-4(fp)
  int y;

  for (y = 0 ; y < ALT_LCD_HEIGHT ; y++)
 180d3f8:	e03ffe15 	stw	zero,-8(fp)
 180d3fc:	00001d06 	br	180d474 <lcd_scroll_up+0x90>
  {
    if (y < ALT_LCD_HEIGHT-1)
 180d400:	e0bffe17 	ldw	r2,-8(fp)
 180d404:	10800048 	cmpgei	r2,r2,1
 180d408:	10000f1e 	bne	r2,zero,180d448 <lcd_scroll_up+0x64>
      memcpy(sp->line[y].data, sp->line[y+1].data, ALT_LCD_VIRTUAL_WIDTH);
 180d40c:	e0bffe17 	ldw	r2,-8(fp)
 180d410:	108018e4 	muli	r2,r2,99
 180d414:	10c01004 	addi	r3,r2,64
 180d418:	e0bfff17 	ldw	r2,-4(fp)
 180d41c:	1889883a 	add	r4,r3,r2
 180d420:	e0bffe17 	ldw	r2,-8(fp)
 180d424:	10800044 	addi	r2,r2,1
 180d428:	108018e4 	muli	r2,r2,99
 180d42c:	10c01004 	addi	r3,r2,64
 180d430:	e0bfff17 	ldw	r2,-4(fp)
 180d434:	1885883a 	add	r2,r3,r2
 180d438:	100b883a 	mov	r5,r2
 180d43c:	01801404 	movi	r6,80
 180d440:	18059040 	call	1805904 <memcpy>
 180d444:	00000806 	br	180d468 <lcd_scroll_up+0x84>
    else
      memset(sp->line[y].data, ' ', ALT_LCD_VIRTUAL_WIDTH);
 180d448:	e0bffe17 	ldw	r2,-8(fp)
 180d44c:	108018e4 	muli	r2,r2,99
 180d450:	10c01004 	addi	r3,r2,64
 180d454:	e0bfff17 	ldw	r2,-4(fp)
 180d458:	1889883a 	add	r4,r3,r2
 180d45c:	01400804 	movi	r5,32
 180d460:	01801404 	movi	r6,80
 180d464:	1805a840 	call	1805a84 <memset>

static void lcd_scroll_up(altera_avalon_lcd_16207_state* sp)
{
  int y;

  for (y = 0 ; y < ALT_LCD_HEIGHT ; y++)
 180d468:	e0bffe17 	ldw	r2,-8(fp)
 180d46c:	10800044 	addi	r2,r2,1
 180d470:	e0bffe15 	stw	r2,-8(fp)
 180d474:	e0bffe17 	ldw	r2,-8(fp)
 180d478:	10800090 	cmplti	r2,r2,2
 180d47c:	103fe01e 	bne	r2,zero,180d400 <lcd_scroll_up+0x1c>
      memcpy(sp->line[y].data, sp->line[y+1].data, ALT_LCD_VIRTUAL_WIDTH);
    else
      memset(sp->line[y].data, ' ', ALT_LCD_VIRTUAL_WIDTH);
  }

  sp->y--;
 180d480:	e0bfff17 	ldw	r2,-4(fp)
 180d484:	10800883 	ldbu	r2,34(r2)
 180d488:	10bfffc4 	addi	r2,r2,-1
 180d48c:	1007883a 	mov	r3,r2
 180d490:	e0bfff17 	ldw	r2,-4(fp)
 180d494:	10c00885 	stb	r3,34(r2)
}
 180d498:	e037883a 	mov	sp,fp
 180d49c:	dfc00117 	ldw	ra,4(sp)
 180d4a0:	df000017 	ldw	fp,0(sp)
 180d4a4:	dec00204 	addi	sp,sp,8
 180d4a8:	f800283a 	ret

0180d4ac <lcd_handle_escape>:

/* --------------------------------------------------------------------- */

static void lcd_handle_escape(altera_avalon_lcd_16207_state* sp, char c)
{
 180d4ac:	defff804 	addi	sp,sp,-32
 180d4b0:	dfc00715 	stw	ra,28(sp)
 180d4b4:	df000615 	stw	fp,24(sp)
 180d4b8:	df000604 	addi	fp,sp,24
 180d4bc:	e13ffd15 	stw	r4,-12(fp)
 180d4c0:	e17ffe05 	stb	r5,-8(fp)
  int parm1 = 0, parm2 = 0;
 180d4c4:	e03ffc15 	stw	zero,-16(fp)
 180d4c8:	e03ffb15 	stw	zero,-20(fp)

  if (sp->escape[0] == '[')
 180d4cc:	e0bffd17 	ldw	r2,-12(fp)
 180d4d0:	10800a03 	ldbu	r2,40(r2)
 180d4d4:	10803fcc 	andi	r2,r2,255
 180d4d8:	1080201c 	xori	r2,r2,128
 180d4dc:	10bfe004 	addi	r2,r2,-128
 180d4e0:	108016d8 	cmpnei	r2,r2,91
 180d4e4:	1000491e 	bne	r2,zero,180d60c <lcd_handle_escape+0x160>
  {
    char * ptr = sp->escape+1;
 180d4e8:	e0bffd17 	ldw	r2,-12(fp)
 180d4ec:	10800a04 	addi	r2,r2,40
 180d4f0:	10800044 	addi	r2,r2,1
 180d4f4:	e0bffa15 	stw	r2,-24(fp)
    while (isdigit(*ptr))
 180d4f8:	00000d06 	br	180d530 <lcd_handle_escape+0x84>
      parm1 = (parm1 * 10) + (*ptr++ - '0');
 180d4fc:	e0bffc17 	ldw	r2,-16(fp)
 180d500:	10c002a4 	muli	r3,r2,10
 180d504:	e0bffa17 	ldw	r2,-24(fp)
 180d508:	10800003 	ldbu	r2,0(r2)
 180d50c:	10803fcc 	andi	r2,r2,255
 180d510:	1080201c 	xori	r2,r2,128
 180d514:	10bfe004 	addi	r2,r2,-128
 180d518:	1885883a 	add	r2,r3,r2
 180d51c:	10bff404 	addi	r2,r2,-48
 180d520:	e0bffc15 	stw	r2,-16(fp)
 180d524:	e0bffa17 	ldw	r2,-24(fp)
 180d528:	10800044 	addi	r2,r2,1
 180d52c:	e0bffa15 	stw	r2,-24(fp)
  int parm1 = 0, parm2 = 0;

  if (sp->escape[0] == '[')
  {
    char * ptr = sp->escape+1;
    while (isdigit(*ptr))
 180d530:	e0bffa17 	ldw	r2,-24(fp)
 180d534:	10800003 	ldbu	r2,0(r2)
 180d538:	10803fcc 	andi	r2,r2,255
 180d53c:	1080201c 	xori	r2,r2,128
 180d540:	10bfe004 	addi	r2,r2,-128
 180d544:	1007883a 	mov	r3,r2
 180d548:	00806074 	movhi	r2,385
 180d54c:	108ade04 	addi	r2,r2,11128
 180d550:	10800017 	ldw	r2,0(r2)
 180d554:	1885883a 	add	r2,r3,r2
 180d558:	10800003 	ldbu	r2,0(r2)
 180d55c:	10803fcc 	andi	r2,r2,255
 180d560:	1080010c 	andi	r2,r2,4
 180d564:	1004c03a 	cmpne	r2,r2,zero
 180d568:	103fe41e 	bne	r2,zero,180d4fc <lcd_handle_escape+0x50>
      parm1 = (parm1 * 10) + (*ptr++ - '0');

    if (*ptr == ';')
 180d56c:	e0bffa17 	ldw	r2,-24(fp)
 180d570:	10800003 	ldbu	r2,0(r2)
 180d574:	10803fcc 	andi	r2,r2,255
 180d578:	1080201c 	xori	r2,r2,128
 180d57c:	10bfe004 	addi	r2,r2,-128
 180d580:	10800ed8 	cmpnei	r2,r2,59
 180d584:	1000231e 	bne	r2,zero,180d614 <lcd_handle_escape+0x168>
    {
      ptr++;
 180d588:	e0bffa17 	ldw	r2,-24(fp)
 180d58c:	10800044 	addi	r2,r2,1
 180d590:	e0bffa15 	stw	r2,-24(fp)
      while (isdigit(*ptr))
 180d594:	00000d06 	br	180d5cc <lcd_handle_escape+0x120>
        parm2 = (parm2 * 10) + (*ptr++ - '0');
 180d598:	e0bffb17 	ldw	r2,-20(fp)
 180d59c:	10c002a4 	muli	r3,r2,10
 180d5a0:	e0bffa17 	ldw	r2,-24(fp)
 180d5a4:	10800003 	ldbu	r2,0(r2)
 180d5a8:	10803fcc 	andi	r2,r2,255
 180d5ac:	1080201c 	xori	r2,r2,128
 180d5b0:	10bfe004 	addi	r2,r2,-128
 180d5b4:	1885883a 	add	r2,r3,r2
 180d5b8:	10bff404 	addi	r2,r2,-48
 180d5bc:	e0bffb15 	stw	r2,-20(fp)
 180d5c0:	e0bffa17 	ldw	r2,-24(fp)
 180d5c4:	10800044 	addi	r2,r2,1
 180d5c8:	e0bffa15 	stw	r2,-24(fp)
      parm1 = (parm1 * 10) + (*ptr++ - '0');

    if (*ptr == ';')
    {
      ptr++;
      while (isdigit(*ptr))
 180d5cc:	e0bffa17 	ldw	r2,-24(fp)
 180d5d0:	10800003 	ldbu	r2,0(r2)
 180d5d4:	10803fcc 	andi	r2,r2,255
 180d5d8:	1080201c 	xori	r2,r2,128
 180d5dc:	10bfe004 	addi	r2,r2,-128
 180d5e0:	1007883a 	mov	r3,r2
 180d5e4:	00806074 	movhi	r2,385
 180d5e8:	108ade04 	addi	r2,r2,11128
 180d5ec:	10800017 	ldw	r2,0(r2)
 180d5f0:	1885883a 	add	r2,r3,r2
 180d5f4:	10800003 	ldbu	r2,0(r2)
 180d5f8:	10803fcc 	andi	r2,r2,255
 180d5fc:	1080010c 	andi	r2,r2,4
 180d600:	1004c03a 	cmpne	r2,r2,zero
 180d604:	103fe41e 	bne	r2,zero,180d598 <lcd_handle_escape+0xec>
 180d608:	00000206 	br	180d614 <lcd_handle_escape+0x168>
        parm2 = (parm2 * 10) + (*ptr++ - '0');
    }
  }
  else
    parm1 = -1;
 180d60c:	00bfffc4 	movi	r2,-1
 180d610:	e0bffc15 	stw	r2,-16(fp)

  switch (c)
 180d614:	e0bffe07 	ldb	r2,-8(fp)
 180d618:	e0bfff15 	stw	r2,-4(fp)
 180d61c:	e0ffff17 	ldw	r3,-4(fp)
 180d620:	188012a0 	cmpeqi	r2,r3,74
 180d624:	10002f1e 	bne	r2,zero,180d6e4 <lcd_handle_escape+0x238>
 180d628:	e0ffff17 	ldw	r3,-4(fp)
 180d62c:	188012c8 	cmpgei	r2,r3,75
 180d630:	1000041e 	bne	r2,zero,180d644 <lcd_handle_escape+0x198>
 180d634:	e0ffff17 	ldw	r3,-4(fp)
 180d638:	18801220 	cmpeqi	r2,r3,72
 180d63c:	1000081e 	bne	r2,zero,180d660 <lcd_handle_escape+0x1b4>
 180d640:	00004906 	br	180d768 <lcd_handle_escape+0x2bc>
 180d644:	e0ffff17 	ldw	r3,-4(fp)
 180d648:	188012e0 	cmpeqi	r2,r3,75
 180d64c:	10002b1e 	bne	r2,zero,180d6fc <lcd_handle_escape+0x250>
 180d650:	e0ffff17 	ldw	r3,-4(fp)
 180d654:	188019a0 	cmpeqi	r2,r3,102
 180d658:	1000011e 	bne	r2,zero,180d660 <lcd_handle_escape+0x1b4>
 180d65c:	00004206 	br	180d768 <lcd_handle_escape+0x2bc>
  {
  case 'H': /* ESC '[' <y> ';' <x> 'H'  : Move cursor to location */
  case 'f': /* Same as above */
    if (parm2 > 0)
 180d660:	e0bffb17 	ldw	r2,-20(fp)
 180d664:	10800050 	cmplti	r2,r2,1
 180d668:	1000051e 	bne	r2,zero,180d680 <lcd_handle_escape+0x1d4>
      sp->x = parm2 - 1;
 180d66c:	e0bffb17 	ldw	r2,-20(fp)
 180d670:	10bfffc4 	addi	r2,r2,-1
 180d674:	1007883a 	mov	r3,r2
 180d678:	e0bffd17 	ldw	r2,-12(fp)
 180d67c:	10c00845 	stb	r3,33(r2)
    if (parm1 > 0)
 180d680:	e0bffc17 	ldw	r2,-16(fp)
 180d684:	10800050 	cmplti	r2,r2,1
 180d688:	1000371e 	bne	r2,zero,180d768 <lcd_handle_escape+0x2bc>
    {
      sp->y = parm1 - 1;
 180d68c:	e0bffc17 	ldw	r2,-16(fp)
 180d690:	10bfffc4 	addi	r2,r2,-1
 180d694:	1007883a 	mov	r3,r2
 180d698:	e0bffd17 	ldw	r2,-12(fp)
 180d69c:	10c00885 	stb	r3,34(r2)
      if (sp->y > ALT_LCD_HEIGHT * 2)
 180d6a0:	e0bffd17 	ldw	r2,-12(fp)
 180d6a4:	10800883 	ldbu	r2,34(r2)
 180d6a8:	10803fcc 	andi	r2,r2,255
 180d6ac:	10800170 	cmpltui	r2,r2,5
 180d6b0:	1000061e 	bne	r2,zero,180d6cc <lcd_handle_escape+0x220>
        sp->y = ALT_LCD_HEIGHT * 2;
 180d6b4:	e0fffd17 	ldw	r3,-12(fp)
 180d6b8:	00800104 	movi	r2,4
 180d6bc:	18800885 	stb	r2,34(r3)
      while (sp->y > ALT_LCD_HEIGHT)
 180d6c0:	00000206 	br	180d6cc <lcd_handle_escape+0x220>
        lcd_scroll_up(sp);
 180d6c4:	e13ffd17 	ldw	r4,-12(fp)
 180d6c8:	180d3e40 	call	180d3e4 <lcd_scroll_up>
    if (parm1 > 0)
    {
      sp->y = parm1 - 1;
      if (sp->y > ALT_LCD_HEIGHT * 2)
        sp->y = ALT_LCD_HEIGHT * 2;
      while (sp->y > ALT_LCD_HEIGHT)
 180d6cc:	e0bffd17 	ldw	r2,-12(fp)
 180d6d0:	10800883 	ldbu	r2,34(r2)
 180d6d4:	10803fcc 	andi	r2,r2,255
 180d6d8:	108000e8 	cmpgeui	r2,r2,3
 180d6dc:	103ff91e 	bne	r2,zero,180d6c4 <lcd_handle_escape+0x218>
        lcd_scroll_up(sp);
    }
    break;
 180d6e0:	00002106 	br	180d768 <lcd_handle_escape+0x2bc>
    /*   ESC J      is clear to beginning of line    [unimplemented]
     *   ESC [ 0 J  is clear to bottom of screen     [unimplemented]
     *   ESC [ 1 J  is clear to beginning of screen  [unimplemented]
     *   ESC [ 2 J  is clear screen
     */
    if (parm1 == 2)
 180d6e4:	e0bffc17 	ldw	r2,-16(fp)
 180d6e8:	10800098 	cmpnei	r2,r2,2
 180d6ec:	10001e1e 	bne	r2,zero,180d768 <lcd_handle_escape+0x2bc>
      lcd_clear_screen(sp);
 180d6f0:	e13ffd17 	ldw	r4,-12(fp)
 180d6f4:	180d1340 	call	180d134 <lcd_clear_screen>
    break;
 180d6f8:	00001b06 	br	180d768 <lcd_handle_escape+0x2bc>
    /*   ESC K      is clear to end of line
     *   ESC [ 0 K  is clear to end of line
     *   ESC [ 1 K  is clear to beginning of line    [unimplemented]
     *   ESC [ 2 K  is clear line                    [unimplemented]
     */
    if (parm1 < 1)
 180d6fc:	e0bffc17 	ldw	r2,-16(fp)
 180d700:	10800048 	cmpgei	r2,r2,1
 180d704:	1000181e 	bne	r2,zero,180d768 <lcd_handle_escape+0x2bc>
    {
      if (sp->x < ALT_LCD_VIRTUAL_WIDTH)
 180d708:	e0bffd17 	ldw	r2,-12(fp)
 180d70c:	10800843 	ldbu	r2,33(r2)
 180d710:	10803fcc 	andi	r2,r2,255
 180d714:	10801428 	cmpgeui	r2,r2,80
 180d718:	1000131e 	bne	r2,zero,180d768 <lcd_handle_escape+0x2bc>
        memset(sp->line[sp->y].data + sp->x, ' ', ALT_LCD_VIRTUAL_WIDTH - sp->x);
 180d71c:	e0bffd17 	ldw	r2,-12(fp)
 180d720:	10800883 	ldbu	r2,34(r2)
 180d724:	10803fcc 	andi	r2,r2,255
 180d728:	108018e4 	muli	r2,r2,99
 180d72c:	10c01004 	addi	r3,r2,64
 180d730:	e0bffd17 	ldw	r2,-12(fp)
 180d734:	1887883a 	add	r3,r3,r2
 180d738:	e0bffd17 	ldw	r2,-12(fp)
 180d73c:	10800843 	ldbu	r2,33(r2)
 180d740:	10803fcc 	andi	r2,r2,255
 180d744:	1889883a 	add	r4,r3,r2
 180d748:	e0bffd17 	ldw	r2,-12(fp)
 180d74c:	10800843 	ldbu	r2,33(r2)
 180d750:	10c03fcc 	andi	r3,r2,255
 180d754:	00801404 	movi	r2,80
 180d758:	10c5c83a 	sub	r2,r2,r3
 180d75c:	100d883a 	mov	r6,r2
 180d760:	01400804 	movi	r5,32
 180d764:	1805a840 	call	1805a84 <memset>
    }
    break;
  }
}
 180d768:	e037883a 	mov	sp,fp
 180d76c:	dfc00117 	ldw	ra,4(sp)
 180d770:	df000017 	ldw	fp,0(sp)
 180d774:	dec00204 	addi	sp,sp,8
 180d778:	f800283a 	ret

0180d77c <altera_avalon_lcd_16207_write>:

/* --------------------------------------------------------------------- */

int altera_avalon_lcd_16207_write(altera_avalon_lcd_16207_state* sp, 
  const char* ptr, int len, int flags)
{
 180d77c:	defff304 	addi	sp,sp,-52
 180d780:	dfc00c15 	stw	ra,48(sp)
 180d784:	df000b15 	stw	fp,44(sp)
 180d788:	df000b04 	addi	fp,sp,44
 180d78c:	e13ffc15 	stw	r4,-16(fp)
 180d790:	e17ffd15 	stw	r5,-12(fp)
 180d794:	e1bffe15 	stw	r6,-8(fp)
 180d798:	e1ffff15 	stw	r7,-4(fp)
  const char* end = ptr + len;
 180d79c:	e0bffe17 	ldw	r2,-8(fp)
 180d7a0:	1007883a 	mov	r3,r2
 180d7a4:	e0bffd17 	ldw	r2,-12(fp)
 180d7a8:	10c5883a 	add	r2,r2,r3
 180d7ac:	e0bffb15 	stw	r2,-20(fp)

  ALT_SEM_PEND (sp->write_lock, 0);

  /* Tell the routine which is called off the timer interrupt that the
   * foreground routines are active so it must not repaint the display. */
  sp->active = 1;
 180d7b0:	e0fffc17 	ldw	r3,-16(fp)
 180d7b4:	00800044 	movi	r2,1
 180d7b8:	188009c5 	stb	r2,39(r3)

  for ( ; ptr < end ; ptr++)
 180d7bc:	0000a206 	br	180da48 <altera_avalon_lcd_16207_write+0x2cc>
  {
    char c = *ptr;
 180d7c0:	e0bffd17 	ldw	r2,-12(fp)
 180d7c4:	10800003 	ldbu	r2,0(r2)
 180d7c8:	e0bff805 	stb	r2,-32(fp)

    if (sp->esccount >= 0)
 180d7cc:	e0bffc17 	ldw	r2,-16(fp)
 180d7d0:	10800903 	ldbu	r2,36(r2)
 180d7d4:	10803fcc 	andi	r2,r2,255
 180d7d8:	1080201c 	xori	r2,r2,128
 180d7dc:	10bfe004 	addi	r2,r2,-128
 180d7e0:	1004803a 	cmplt	r2,r2,zero
 180d7e4:	10003b1e 	bne	r2,zero,180d8d4 <altera_avalon_lcd_16207_write+0x158>
    {
      unsigned int esccount = sp->esccount;
 180d7e8:	e0bffc17 	ldw	r2,-16(fp)
 180d7ec:	10800903 	ldbu	r2,36(r2)
 180d7f0:	10803fcc 	andi	r2,r2,255
 180d7f4:	1080201c 	xori	r2,r2,128
 180d7f8:	10bfe004 	addi	r2,r2,-128
 180d7fc:	e0bff715 	stw	r2,-36(fp)

      /* Single character escape sequences can end with any character
       * Multi character escape sequences start with '[' and contain
       * digits and semicolons before terminating
       */
      if ((esccount == 0 && c != '[') ||
 180d800:	e0bff717 	ldw	r2,-36(fp)
 180d804:	1004c03a 	cmpne	r2,r2,zero
 180d808:	1000031e 	bne	r2,zero,180d818 <altera_avalon_lcd_16207_write+0x9c>
 180d80c:	e0bff807 	ldb	r2,-32(fp)
 180d810:	108016d8 	cmpnei	r2,r2,91
 180d814:	1000111e 	bne	r2,zero,180d85c <altera_avalon_lcd_16207_write+0xe0>
 180d818:	e0bff717 	ldw	r2,-36(fp)
 180d81c:	1005003a 	cmpeq	r2,r2,zero
 180d820:	10001a1e 	bne	r2,zero,180d88c <altera_avalon_lcd_16207_write+0x110>
 180d824:	e0bff807 	ldb	r2,-32(fp)
 180d828:	1007883a 	mov	r3,r2
 180d82c:	00806074 	movhi	r2,385
 180d830:	108ade04 	addi	r2,r2,11128
 180d834:	10800017 	ldw	r2,0(r2)
 180d838:	1885883a 	add	r2,r3,r2
 180d83c:	10800003 	ldbu	r2,0(r2)
 180d840:	10803fcc 	andi	r2,r2,255
 180d844:	1080010c 	andi	r2,r2,4
 180d848:	1004c03a 	cmpne	r2,r2,zero
 180d84c:	10000f1e 	bne	r2,zero,180d88c <altera_avalon_lcd_16207_write+0x110>
 180d850:	e0bff807 	ldb	r2,-32(fp)
 180d854:	10800ee0 	cmpeqi	r2,r2,59
 180d858:	10000c1e 	bne	r2,zero,180d88c <altera_avalon_lcd_16207_write+0x110>
          (esccount > 0 && !isdigit(c) && c != ';'))
      {
        sp->escape[esccount] = 0;
 180d85c:	e0fff717 	ldw	r3,-36(fp)
 180d860:	e0bffc17 	ldw	r2,-16(fp)
 180d864:	1885883a 	add	r2,r3,r2
 180d868:	10800a04 	addi	r2,r2,40
 180d86c:	10000005 	stb	zero,0(r2)

        lcd_handle_escape(sp, c);
 180d870:	e17ff807 	ldb	r5,-32(fp)
 180d874:	e13ffc17 	ldw	r4,-16(fp)
 180d878:	180d4ac0 	call	180d4ac <lcd_handle_escape>

        sp->esccount = -1;
 180d87c:	e0fffc17 	ldw	r3,-16(fp)
 180d880:	00bfffc4 	movi	r2,-1
 180d884:	18800905 	stb	r2,36(r3)

      /* Single character escape sequences can end with any character
       * Multi character escape sequences start with '[' and contain
       * digits and semicolons before terminating
       */
      if ((esccount == 0 && c != '[') ||
 180d888:	00006c06 	br	180da3c <altera_avalon_lcd_16207_write+0x2c0>

        lcd_handle_escape(sp, c);

        sp->esccount = -1;
      }
      else if (sp->esccount < sizeof(sp->escape)-1)
 180d88c:	e0bffc17 	ldw	r2,-16(fp)
 180d890:	10800903 	ldbu	r2,36(r2)
 180d894:	10803fcc 	andi	r2,r2,255
 180d898:	108001e8 	cmpgeui	r2,r2,7
 180d89c:	1000671e 	bne	r2,zero,180da3c <altera_avalon_lcd_16207_write+0x2c0>
      {
        sp->escape[esccount] = c;
 180d8a0:	e0fff717 	ldw	r3,-36(fp)
 180d8a4:	e0bffc17 	ldw	r2,-16(fp)
 180d8a8:	1885883a 	add	r2,r3,r2
 180d8ac:	10c00a04 	addi	r3,r2,40
 180d8b0:	e0bff803 	ldbu	r2,-32(fp)
 180d8b4:	18800005 	stb	r2,0(r3)
        sp->esccount++;
 180d8b8:	e0bffc17 	ldw	r2,-16(fp)
 180d8bc:	10800903 	ldbu	r2,36(r2)
 180d8c0:	10800044 	addi	r2,r2,1
 180d8c4:	1007883a 	mov	r3,r2
 180d8c8:	e0bffc17 	ldw	r2,-16(fp)
 180d8cc:	10c00905 	stb	r3,36(r2)
 180d8d0:	00005a06 	br	180da3c <altera_avalon_lcd_16207_write+0x2c0>
      }
    }
    else if (c == 27) /* ESC */
 180d8d4:	e0bff807 	ldb	r2,-32(fp)
 180d8d8:	108006d8 	cmpnei	r2,r2,27
 180d8dc:	1000031e 	bne	r2,zero,180d8ec <altera_avalon_lcd_16207_write+0x170>
    {
      sp->esccount = 0;
 180d8e0:	e0bffc17 	ldw	r2,-16(fp)
 180d8e4:	10000905 	stb	zero,36(r2)
 180d8e8:	00005406 	br	180da3c <altera_avalon_lcd_16207_write+0x2c0>
    }
    else if (c == '\r')
 180d8ec:	e0bff807 	ldb	r2,-32(fp)
 180d8f0:	10800358 	cmpnei	r2,r2,13
 180d8f4:	1000031e 	bne	r2,zero,180d904 <altera_avalon_lcd_16207_write+0x188>
    {
      sp->x = 0;
 180d8f8:	e0bffc17 	ldw	r2,-16(fp)
 180d8fc:	10000845 	stb	zero,33(r2)
 180d900:	00004e06 	br	180da3c <altera_avalon_lcd_16207_write+0x2c0>
    }
    else if (c == '\n')
 180d904:	e0bff807 	ldb	r2,-32(fp)
 180d908:	10800298 	cmpnei	r2,r2,10
 180d90c:	1000101e 	bne	r2,zero,180d950 <altera_avalon_lcd_16207_write+0x1d4>
    {
      sp->x = 0;
 180d910:	e0bffc17 	ldw	r2,-16(fp)
 180d914:	10000845 	stb	zero,33(r2)
      sp->y++;
 180d918:	e0bffc17 	ldw	r2,-16(fp)
 180d91c:	10800883 	ldbu	r2,34(r2)
 180d920:	10800044 	addi	r2,r2,1
 180d924:	1007883a 	mov	r3,r2
 180d928:	e0bffc17 	ldw	r2,-16(fp)
 180d92c:	10c00885 	stb	r3,34(r2)

      /* Let the cursor sit at X=0, Y=HEIGHT without scrolling so the user
       * can print two lines of data without losing one.
       */
      if (sp->y > ALT_LCD_HEIGHT)
 180d930:	e0bffc17 	ldw	r2,-16(fp)
 180d934:	10800883 	ldbu	r2,34(r2)
 180d938:	10803fcc 	andi	r2,r2,255
 180d93c:	108000f0 	cmpltui	r2,r2,3
 180d940:	10003e1e 	bne	r2,zero,180da3c <altera_avalon_lcd_16207_write+0x2c0>
        lcd_scroll_up(sp);
 180d944:	e13ffc17 	ldw	r4,-16(fp)
 180d948:	180d3e40 	call	180d3e4 <lcd_scroll_up>
 180d94c:	00003b06 	br	180da3c <altera_avalon_lcd_16207_write+0x2c0>
    }
    else if (c == '\b')
 180d950:	e0bff807 	ldb	r2,-32(fp)
 180d954:	10800218 	cmpnei	r2,r2,8
 180d958:	10000c1e 	bne	r2,zero,180d98c <altera_avalon_lcd_16207_write+0x210>
    {
      if (sp->x > 0)
 180d95c:	e0bffc17 	ldw	r2,-16(fp)
 180d960:	10800843 	ldbu	r2,33(r2)
 180d964:	10803fcc 	andi	r2,r2,255
 180d968:	1005003a 	cmpeq	r2,r2,zero
 180d96c:	1000331e 	bne	r2,zero,180da3c <altera_avalon_lcd_16207_write+0x2c0>
        sp->x--;
 180d970:	e0bffc17 	ldw	r2,-16(fp)
 180d974:	10800843 	ldbu	r2,33(r2)
 180d978:	10bfffc4 	addi	r2,r2,-1
 180d97c:	1007883a 	mov	r3,r2
 180d980:	e0bffc17 	ldw	r2,-16(fp)
 180d984:	10c00845 	stb	r3,33(r2)
 180d988:	00002c06 	br	180da3c <altera_avalon_lcd_16207_write+0x2c0>
    }
    else if (isprint(c))
 180d98c:	e0bff807 	ldb	r2,-32(fp)
 180d990:	1007883a 	mov	r3,r2
 180d994:	00806074 	movhi	r2,385
 180d998:	108ade04 	addi	r2,r2,11128
 180d99c:	10800017 	ldw	r2,0(r2)
 180d9a0:	1885883a 	add	r2,r3,r2
 180d9a4:	10800003 	ldbu	r2,0(r2)
 180d9a8:	10803fcc 	andi	r2,r2,255
 180d9ac:	1080201c 	xori	r2,r2,128
 180d9b0:	10bfe004 	addi	r2,r2,-128
 180d9b4:	108025cc 	andi	r2,r2,151
 180d9b8:	1005003a 	cmpeq	r2,r2,zero
 180d9bc:	10001f1e 	bne	r2,zero,180da3c <altera_avalon_lcd_16207_write+0x2c0>
    {
      /* If we didn't scroll on the last linefeed then we might need to do
       * it now. */
      if (sp->y >= ALT_LCD_HEIGHT)
 180d9c0:	e0bffc17 	ldw	r2,-16(fp)
 180d9c4:	10800883 	ldbu	r2,34(r2)
 180d9c8:	10803fcc 	andi	r2,r2,255
 180d9cc:	108000b0 	cmpltui	r2,r2,2
 180d9d0:	1000021e 	bne	r2,zero,180d9dc <altera_avalon_lcd_16207_write+0x260>
        lcd_scroll_up(sp);
 180d9d4:	e13ffc17 	ldw	r4,-16(fp)
 180d9d8:	180d3e40 	call	180d3e4 <lcd_scroll_up>

      if (sp->x < ALT_LCD_VIRTUAL_WIDTH)
 180d9dc:	e0bffc17 	ldw	r2,-16(fp)
 180d9e0:	10800843 	ldbu	r2,33(r2)
 180d9e4:	10803fcc 	andi	r2,r2,255
 180d9e8:	10801428 	cmpgeui	r2,r2,80
 180d9ec:	10000d1e 	bne	r2,zero,180da24 <altera_avalon_lcd_16207_write+0x2a8>
        sp->line[sp->y].data[sp->x] = c;
 180d9f0:	e0bffc17 	ldw	r2,-16(fp)
 180d9f4:	10800883 	ldbu	r2,34(r2)
 180d9f8:	11003fcc 	andi	r4,r2,255
 180d9fc:	e0bffc17 	ldw	r2,-16(fp)
 180da00:	10800843 	ldbu	r2,33(r2)
 180da04:	11403fcc 	andi	r5,r2,255
 180da08:	e0fffc17 	ldw	r3,-16(fp)
 180da0c:	208018e4 	muli	r2,r4,99
 180da10:	10c5883a 	add	r2,r2,r3
 180da14:	1145883a 	add	r2,r2,r5
 180da18:	10c01004 	addi	r3,r2,64
 180da1c:	e0bff803 	ldbu	r2,-32(fp)
 180da20:	18800005 	stb	r2,0(r3)

      sp->x++;
 180da24:	e0bffc17 	ldw	r2,-16(fp)
 180da28:	10800843 	ldbu	r2,33(r2)
 180da2c:	10800044 	addi	r2,r2,1
 180da30:	1007883a 	mov	r3,r2
 180da34:	e0bffc17 	ldw	r2,-16(fp)
 180da38:	10c00845 	stb	r3,33(r2)

  /* Tell the routine which is called off the timer interrupt that the
   * foreground routines are active so it must not repaint the display. */
  sp->active = 1;

  for ( ; ptr < end ; ptr++)
 180da3c:	e0bffd17 	ldw	r2,-12(fp)
 180da40:	10800044 	addi	r2,r2,1
 180da44:	e0bffd15 	stw	r2,-12(fp)
 180da48:	e0fffd17 	ldw	r3,-12(fp)
 180da4c:	e0bffb17 	ldw	r2,-20(fp)
 180da50:	18bf5b36 	bltu	r3,r2,180d7c0 <altera_avalon_lcd_16207_write+0x44>
      sp->x++;
    }
  }

  /* Recalculate the scrolling parameters */
  widthmax = ALT_LCD_WIDTH;
 180da54:	00800404 	movi	r2,16
 180da58:	e0bff915 	stw	r2,-28(fp)
  for (y = 0 ; y < ALT_LCD_HEIGHT ; y++)
 180da5c:	e03ffa15 	stw	zero,-24(fp)
 180da60:	00003606 	br	180db3c <altera_avalon_lcd_16207_write+0x3c0>
  {
    int width;
    for (width = ALT_LCD_VIRTUAL_WIDTH ; width > 0 ; width--)
 180da64:	00801404 	movi	r2,80
 180da68:	e0bff615 	stw	r2,-40(fp)
 180da6c:	00001106 	br	180dab4 <altera_avalon_lcd_16207_write+0x338>
      if (sp->line[y].data[width-1] != ' ')
 180da70:	e13ffa17 	ldw	r4,-24(fp)
 180da74:	e0bff617 	ldw	r2,-40(fp)
 180da78:	117fffc4 	addi	r5,r2,-1
 180da7c:	e0fffc17 	ldw	r3,-16(fp)
 180da80:	208018e4 	muli	r2,r4,99
 180da84:	10c5883a 	add	r2,r2,r3
 180da88:	1145883a 	add	r2,r2,r5
 180da8c:	10801004 	addi	r2,r2,64
 180da90:	10800003 	ldbu	r2,0(r2)
 180da94:	10803fcc 	andi	r2,r2,255
 180da98:	1080201c 	xori	r2,r2,128
 180da9c:	10bfe004 	addi	r2,r2,-128
 180daa0:	10800818 	cmpnei	r2,r2,32
 180daa4:	1000061e 	bne	r2,zero,180dac0 <altera_avalon_lcd_16207_write+0x344>
  /* Recalculate the scrolling parameters */
  widthmax = ALT_LCD_WIDTH;
  for (y = 0 ; y < ALT_LCD_HEIGHT ; y++)
  {
    int width;
    for (width = ALT_LCD_VIRTUAL_WIDTH ; width > 0 ; width--)
 180daa8:	e0bff617 	ldw	r2,-40(fp)
 180daac:	10bfffc4 	addi	r2,r2,-1
 180dab0:	e0bff615 	stw	r2,-40(fp)
 180dab4:	e0bff617 	ldw	r2,-40(fp)
 180dab8:	10800048 	cmpgei	r2,r2,1
 180dabc:	103fec1e 	bne	r2,zero,180da70 <altera_avalon_lcd_16207_write+0x2f4>

    /* The minimum width is the size of the LCD panel.  If the real width
     * is long enough to require scrolling then add an extra space so the
     * end of the message doesn't run into the beginning of it.
     */
    if (width <= ALT_LCD_WIDTH)
 180dac0:	e0bff617 	ldw	r2,-40(fp)
 180dac4:	10800448 	cmpgei	r2,r2,17
 180dac8:	1000031e 	bne	r2,zero,180dad8 <altera_avalon_lcd_16207_write+0x35c>
      width = ALT_LCD_WIDTH;
 180dacc:	00800404 	movi	r2,16
 180dad0:	e0bff615 	stw	r2,-40(fp)
 180dad4:	00000306 	br	180dae4 <altera_avalon_lcd_16207_write+0x368>
    else
      width++;
 180dad8:	e0bff617 	ldw	r2,-40(fp)
 180dadc:	10800044 	addi	r2,r2,1
 180dae0:	e0bff615 	stw	r2,-40(fp)

    sp->line[y].width = width;
 180dae4:	e13ffa17 	ldw	r4,-24(fp)
 180dae8:	e0bff617 	ldw	r2,-40(fp)
 180daec:	100b883a 	mov	r5,r2
 180daf0:	e0fffc17 	ldw	r3,-16(fp)
 180daf4:	208018e4 	muli	r2,r4,99
 180daf8:	10c5883a 	add	r2,r2,r3
 180dafc:	10802404 	addi	r2,r2,144
 180db00:	11400045 	stb	r5,1(r2)
    if (widthmax < width)
 180db04:	e0fff917 	ldw	r3,-28(fp)
 180db08:	e0bff617 	ldw	r2,-40(fp)
 180db0c:	1880020e 	bge	r3,r2,180db18 <altera_avalon_lcd_16207_write+0x39c>
      widthmax = width;
 180db10:	e0bff617 	ldw	r2,-40(fp)
 180db14:	e0bff915 	stw	r2,-28(fp)
    sp->line[y].speed = 0; /* By default lines don't scroll */
 180db18:	e0bffa17 	ldw	r2,-24(fp)
 180db1c:	e0fffc17 	ldw	r3,-16(fp)
 180db20:	108018e4 	muli	r2,r2,99
 180db24:	10c5883a 	add	r2,r2,r3
 180db28:	10802404 	addi	r2,r2,144
 180db2c:	10000085 	stb	zero,2(r2)
    }
  }

  /* Recalculate the scrolling parameters */
  widthmax = ALT_LCD_WIDTH;
  for (y = 0 ; y < ALT_LCD_HEIGHT ; y++)
 180db30:	e0bffa17 	ldw	r2,-24(fp)
 180db34:	10800044 	addi	r2,r2,1
 180db38:	e0bffa15 	stw	r2,-24(fp)
 180db3c:	e0bffa17 	ldw	r2,-24(fp)
 180db40:	10800090 	cmplti	r2,r2,2
 180db44:	103fc71e 	bne	r2,zero,180da64 <altera_avalon_lcd_16207_write+0x2e8>
    if (widthmax < width)
      widthmax = width;
    sp->line[y].speed = 0; /* By default lines don't scroll */
  }

  if (widthmax <= ALT_LCD_WIDTH)
 180db48:	e0bff917 	ldw	r2,-28(fp)
 180db4c:	10800448 	cmpgei	r2,r2,17
 180db50:	1000031e 	bne	r2,zero,180db60 <altera_avalon_lcd_16207_write+0x3e4>
    sp->scrollmax = 0;
 180db54:	e0bffc17 	ldw	r2,-16(fp)
 180db58:	10000985 	stb	zero,38(r2)
 180db5c:	00002d06 	br	180dc14 <altera_avalon_lcd_16207_write+0x498>
  else
  {
    widthmax *= 2;
 180db60:	e0bff917 	ldw	r2,-28(fp)
 180db64:	1085883a 	add	r2,r2,r2
 180db68:	e0bff915 	stw	r2,-28(fp)
    sp->scrollmax = widthmax;
 180db6c:	e0bff917 	ldw	r2,-28(fp)
 180db70:	1007883a 	mov	r3,r2
 180db74:	e0bffc17 	ldw	r2,-16(fp)
 180db78:	10c00985 	stb	r3,38(r2)

    /* Now calculate how fast each of the other lines should go */
    for (y = 0 ; y < ALT_LCD_HEIGHT ; y++)
 180db7c:	e03ffa15 	stw	zero,-24(fp)
 180db80:	00002106 	br	180dc08 <altera_avalon_lcd_16207_write+0x48c>
      if (sp->line[y].width > ALT_LCD_WIDTH)
 180db84:	e0bffa17 	ldw	r2,-24(fp)
 180db88:	e0fffc17 	ldw	r3,-16(fp)
 180db8c:	108018e4 	muli	r2,r2,99
 180db90:	10c5883a 	add	r2,r2,r3
 180db94:	10802404 	addi	r2,r2,144
 180db98:	10800043 	ldbu	r2,1(r2)
 180db9c:	10803fcc 	andi	r2,r2,255
 180dba0:	1080201c 	xori	r2,r2,128
 180dba4:	10bfe004 	addi	r2,r2,-128
 180dba8:	10800450 	cmplti	r2,r2,17
 180dbac:	1000131e 	bne	r2,zero,180dbfc <altera_avalon_lcd_16207_write+0x480>
         */
#if 1
        /* This option makes all the lines scroll round at different speeds
         * which are chosen so that all the scrolls finish at the same time.
         */
        sp->line[y].speed = 256 * sp->line[y].width / widthmax;
 180dbb0:	e17ffa17 	ldw	r5,-24(fp)
 180dbb4:	e0bffa17 	ldw	r2,-24(fp)
 180dbb8:	e0fffc17 	ldw	r3,-16(fp)
 180dbbc:	108018e4 	muli	r2,r2,99
 180dbc0:	10c5883a 	add	r2,r2,r3
 180dbc4:	10802404 	addi	r2,r2,144
 180dbc8:	10800043 	ldbu	r2,1(r2)
 180dbcc:	10803fcc 	andi	r2,r2,255
 180dbd0:	1080201c 	xori	r2,r2,128
 180dbd4:	10bfe004 	addi	r2,r2,-128
 180dbd8:	1006923a 	slli	r3,r2,8
 180dbdc:	e0bff917 	ldw	r2,-28(fp)
 180dbe0:	1885283a 	div	r2,r3,r2
 180dbe4:	1009883a 	mov	r4,r2
 180dbe8:	e0fffc17 	ldw	r3,-16(fp)
 180dbec:	288018e4 	muli	r2,r5,99
 180dbf0:	10c5883a 	add	r2,r2,r3
 180dbf4:	10802404 	addi	r2,r2,144
 180dbf8:	11000085 	stb	r4,2(r2)
  {
    widthmax *= 2;
    sp->scrollmax = widthmax;

    /* Now calculate how fast each of the other lines should go */
    for (y = 0 ; y < ALT_LCD_HEIGHT ; y++)
 180dbfc:	e0bffa17 	ldw	r2,-24(fp)
 180dc00:	10800044 	addi	r2,r2,1
 180dc04:	e0bffa15 	stw	r2,-24(fp)
 180dc08:	e0bffa17 	ldw	r2,-24(fp)
 180dc0c:	10800090 	cmplti	r2,r2,2
 180dc10:	103fdc1e 	bne	r2,zero,180db84 <altera_avalon_lcd_16207_write+0x408>
   * (because active was set when the timer interrupt occurred).  If there
   * has been a missed repaint then paint again.  And again.  etc.
   */
  for ( ; ; )
  {
    int old_scrollpos = sp->scrollpos;
 180dc14:	e0bffc17 	ldw	r2,-16(fp)
 180dc18:	10800943 	ldbu	r2,37(r2)
 180dc1c:	10803fcc 	andi	r2,r2,255
 180dc20:	1080201c 	xori	r2,r2,128
 180dc24:	10bfe004 	addi	r2,r2,-128
 180dc28:	e0bff515 	stw	r2,-44(fp)

    lcd_repaint_screen(sp);
 180dc2c:	e13ffc17 	ldw	r4,-16(fp)
 180dc30:	180d1f80 	call	180d1f8 <lcd_repaint_screen>

    /* Let the timer routines repaint the display again */
    sp->active = 0;
 180dc34:	e0bffc17 	ldw	r2,-16(fp)
 180dc38:	100009c5 	stb	zero,39(r2)

    /* Have the timer routines tried to scroll while we were painting?
     * If not then we can exit */
    if (sp->scrollpos == old_scrollpos)
 180dc3c:	e0bffc17 	ldw	r2,-16(fp)
 180dc40:	10800943 	ldbu	r2,37(r2)
 180dc44:	10c03fcc 	andi	r3,r2,255
 180dc48:	18c0201c 	xori	r3,r3,128
 180dc4c:	18ffe004 	addi	r3,r3,-128
 180dc50:	e0bff517 	ldw	r2,-44(fp)
 180dc54:	18800426 	beq	r3,r2,180dc68 <altera_avalon_lcd_16207_write+0x4ec>
      break;

    /* We need to repaint again since the display scrolled while we were
     * painting last time */
    sp->active = 1;
 180dc58:	e0fffc17 	ldw	r3,-16(fp)
 180dc5c:	00800044 	movi	r2,1
 180dc60:	188009c5 	stb	r2,39(r3)
  }
 180dc64:	003feb06 	br	180dc14 <altera_avalon_lcd_16207_write+0x498>
   * semaphore so that other threads can access the buffer.
   */

  ALT_SEM_POST (sp->write_lock);

  return len;
 180dc68:	e0bffe17 	ldw	r2,-8(fp)
}
 180dc6c:	e037883a 	mov	sp,fp
 180dc70:	dfc00117 	ldw	ra,4(sp)
 180dc74:	df000017 	ldw	fp,0(sp)
 180dc78:	dec00204 	addi	sp,sp,8
 180dc7c:	f800283a 	ret

0180dc80 <alt_lcd_16207_timeout>:
/*
 * Timeout routine is called every second
 */

static alt_u32 alt_lcd_16207_timeout(void* context) 
{
 180dc80:	defffc04 	addi	sp,sp,-16
 180dc84:	dfc00315 	stw	ra,12(sp)
 180dc88:	df000215 	stw	fp,8(sp)
 180dc8c:	df000204 	addi	fp,sp,8
 180dc90:	e13fff15 	stw	r4,-4(fp)
  altera_avalon_lcd_16207_state* sp = (altera_avalon_lcd_16207_state*)context;
 180dc94:	e0bfff17 	ldw	r2,-4(fp)
 180dc98:	e0bffe15 	stw	r2,-8(fp)

  /* Update the scrolling position */
  if (sp->scrollpos + 1 >= sp->scrollmax)
 180dc9c:	e0bffe17 	ldw	r2,-8(fp)
 180dca0:	10800943 	ldbu	r2,37(r2)
 180dca4:	10803fcc 	andi	r2,r2,255
 180dca8:	1080201c 	xori	r2,r2,128
 180dcac:	10bfe004 	addi	r2,r2,-128
 180dcb0:	10c00044 	addi	r3,r2,1
 180dcb4:	e0bffe17 	ldw	r2,-8(fp)
 180dcb8:	10800983 	ldbu	r2,38(r2)
 180dcbc:	10803fcc 	andi	r2,r2,255
 180dcc0:	1080201c 	xori	r2,r2,128
 180dcc4:	10bfe004 	addi	r2,r2,-128
 180dcc8:	18800316 	blt	r3,r2,180dcd8 <alt_lcd_16207_timeout+0x58>
    sp->scrollpos = 0;
 180dccc:	e0bffe17 	ldw	r2,-8(fp)
 180dcd0:	10000945 	stb	zero,37(r2)
 180dcd4:	00000606 	br	180dcf0 <alt_lcd_16207_timeout+0x70>
  else
    sp->scrollpos = sp->scrollpos + 1;
 180dcd8:	e0bffe17 	ldw	r2,-8(fp)
 180dcdc:	10800943 	ldbu	r2,37(r2)
 180dce0:	10800044 	addi	r2,r2,1
 180dce4:	1007883a 	mov	r3,r2
 180dce8:	e0bffe17 	ldw	r2,-8(fp)
 180dcec:	10c00945 	stb	r3,37(r2)

  /* Repaint the panel unless the foreground will do it again soon */
  if (sp->scrollmax > 0 && !sp->active)
 180dcf0:	e0bffe17 	ldw	r2,-8(fp)
 180dcf4:	10800983 	ldbu	r2,38(r2)
 180dcf8:	10803fcc 	andi	r2,r2,255
 180dcfc:	1080201c 	xori	r2,r2,128
 180dd00:	10bfe004 	addi	r2,r2,-128
 180dd04:	10800050 	cmplti	r2,r2,1
 180dd08:	1000091e 	bne	r2,zero,180dd30 <alt_lcd_16207_timeout+0xb0>
 180dd0c:	e0bffe17 	ldw	r2,-8(fp)
 180dd10:	108009c3 	ldbu	r2,39(r2)
 180dd14:	10803fcc 	andi	r2,r2,255
 180dd18:	1080201c 	xori	r2,r2,128
 180dd1c:	10bfe004 	addi	r2,r2,-128
 180dd20:	1004c03a 	cmpne	r2,r2,zero
 180dd24:	1000021e 	bne	r2,zero,180dd30 <alt_lcd_16207_timeout+0xb0>
    lcd_repaint_screen(sp);
 180dd28:	e13ffe17 	ldw	r4,-8(fp)
 180dd2c:	180d1f80 	call	180d1f8 <lcd_repaint_screen>

  return sp->period;
 180dd30:	e0bffe17 	ldw	r2,-8(fp)
 180dd34:	10800717 	ldw	r2,28(r2)
}
 180dd38:	e037883a 	mov	sp,fp
 180dd3c:	dfc00117 	ldw	ra,4(sp)
 180dd40:	df000017 	ldw	fp,0(sp)
 180dd44:	dec00204 	addi	sp,sp,8
 180dd48:	f800283a 	ret

0180dd4c <altera_avalon_lcd_16207_init>:

/*
 * Called at boot time to initialise the LCD driver
 */
void altera_avalon_lcd_16207_init(altera_avalon_lcd_16207_state* sp)
{
 180dd4c:	defffc04 	addi	sp,sp,-16
 180dd50:	dfc00315 	stw	ra,12(sp)
 180dd54:	df000215 	stw	fp,8(sp)
 180dd58:	df000204 	addi	fp,sp,8
 180dd5c:	e13fff15 	stw	r4,-4(fp)
  unsigned int base = sp->base;
 180dd60:	e0bfff17 	ldw	r2,-4(fp)
 180dd64:	10800017 	ldw	r2,0(r2)
 180dd68:	e0bffe15 	stw	r2,-8(fp)

  /* Mark the device as functional */
  sp->broken = 0;
 180dd6c:	e0bfff17 	ldw	r2,-4(fp)
 180dd70:	10000805 	stb	zero,32(r2)
   * the BUSY bit in the status register doesn't work until the display
   * has been reset three times.
   */

  /* Wait for 15 ms then reset */
  usleep(15000);
 180dd74:	010ea604 	movi	r4,15000
 180dd78:	180a5240 	call	180a524 <usleep>
  IOWR_ALTERA_AVALON_LCD_16207_COMMAND(base, LCD_CMD_FUNCTION_SET | LCD_CMD_8BIT);
 180dd7c:	e0bffe17 	ldw	r2,-8(fp)
 180dd80:	1007883a 	mov	r3,r2
 180dd84:	00800c04 	movi	r2,48
 180dd88:	18800035 	stwio	r2,0(r3)

  /* Wait for another 4.1ms and reset again */
  usleep(4100);  
 180dd8c:	01040104 	movi	r4,4100
 180dd90:	180a5240 	call	180a524 <usleep>
  IOWR_ALTERA_AVALON_LCD_16207_COMMAND(base, LCD_CMD_FUNCTION_SET | LCD_CMD_8BIT);
 180dd94:	e0bffe17 	ldw	r2,-8(fp)
 180dd98:	1007883a 	mov	r3,r2
 180dd9c:	00800c04 	movi	r2,48
 180dda0:	18800035 	stwio	r2,0(r3)

  /* Wait a further 1 ms and reset a third time */
  usleep(1000);
 180dda4:	0100fa04 	movi	r4,1000
 180dda8:	180a5240 	call	180a524 <usleep>
  IOWR_ALTERA_AVALON_LCD_16207_COMMAND(base, LCD_CMD_FUNCTION_SET | LCD_CMD_8BIT);
 180ddac:	e0bffe17 	ldw	r2,-8(fp)
 180ddb0:	1007883a 	mov	r3,r2
 180ddb4:	00800c04 	movi	r2,48
 180ddb8:	18800035 	stwio	r2,0(r3)

  /* Setup interface parameters: 8 bit bus, 2 rows, 5x7 font */
  lcd_write_command(sp, LCD_CMD_FUNCTION_SET | LCD_CMD_8BIT | LCD_CMD_TWO_LINE);
 180ddbc:	e13fff17 	ldw	r4,-4(fp)
 180ddc0:	01400e04 	movi	r5,56
 180ddc4:	180cfa80 	call	180cfa8 <lcd_write_command>
  
  /* Turn display off */
  lcd_write_command(sp, LCD_CMD_ONOFF);
 180ddc8:	e13fff17 	ldw	r4,-4(fp)
 180ddcc:	01400204 	movi	r5,8
 180ddd0:	180cfa80 	call	180cfa8 <lcd_write_command>

  /* Clear display */
  lcd_clear_screen(sp);
 180ddd4:	e13fff17 	ldw	r4,-4(fp)
 180ddd8:	180d1340 	call	180d134 <lcd_clear_screen>
  
  /* Set mode: increment after writing, don't shift display */
  lcd_write_command(sp, LCD_CMD_MODES | LCD_CMD_MODE_INC);
 180dddc:	e13fff17 	ldw	r4,-4(fp)
 180dde0:	01400184 	movi	r5,6
 180dde4:	180cfa80 	call	180cfa8 <lcd_write_command>

  /* Turn display on */
  lcd_write_command(sp, LCD_CMD_ONOFF | LCD_CMD_ENABLE_DISP);
 180dde8:	e13fff17 	ldw	r4,-4(fp)
 180ddec:	01400304 	movi	r5,12
 180ddf0:	180cfa80 	call	180cfa8 <lcd_write_command>

  sp->esccount = -1;
 180ddf4:	e0ffff17 	ldw	r3,-4(fp)
 180ddf8:	00bfffc4 	movi	r2,-1
 180ddfc:	18800905 	stb	r2,36(r3)
  memset(sp->escape, 0, sizeof(sp->escape));
 180de00:	e0bfff17 	ldw	r2,-4(fp)
 180de04:	11000a04 	addi	r4,r2,40
 180de08:	000b883a 	mov	r5,zero
 180de0c:	01800204 	movi	r6,8
 180de10:	1805a840 	call	1805a84 <memset>

  sp->scrollpos = 0;
 180de14:	e0bfff17 	ldw	r2,-4(fp)
 180de18:	10000945 	stb	zero,37(r2)
  sp->scrollmax = 0;
 180de1c:	e0bfff17 	ldw	r2,-4(fp)
 180de20:	10000985 	stb	zero,38(r2)
  sp->active = 0;
 180de24:	e0bfff17 	ldw	r2,-4(fp)
 180de28:	100009c5 	stb	zero,39(r2)
 180de2c:	00806074 	movhi	r2,385
 180de30:	108aea04 	addi	r2,r2,11176
 180de34:	10800017 	ldw	r2,0(r2)
 180de38:	1007883a 	mov	r3,r2

  sp->period = alt_ticks_per_second() / 10; /* Call every 100ms */
 180de3c:	00800284 	movi	r2,10
 180de40:	1885203a 	divu	r2,r3,r2
 180de44:	1007883a 	mov	r3,r2
 180de48:	e0bfff17 	ldw	r2,-4(fp)
 180de4c:	10c00715 	stw	r3,28(r2)

  alt_alarm_start(&sp->alarm, sp->period, &alt_lcd_16207_timeout, sp);
 180de50:	e0bfff17 	ldw	r2,-4(fp)
 180de54:	11000104 	addi	r4,r2,4
 180de58:	e0bfff17 	ldw	r2,-4(fp)
 180de5c:	10800717 	ldw	r2,28(r2)
 180de60:	100b883a 	mov	r5,r2
 180de64:	01806074 	movhi	r6,385
 180de68:	31b72004 	addi	r6,r6,-9088
 180de6c:	e1ffff17 	ldw	r7,-4(fp)
 180de70:	180e9900 	call	180e990 <alt_alarm_start>
}
 180de74:	e037883a 	mov	sp,fp
 180de78:	dfc00117 	ldw	ra,4(sp)
 180de7c:	df000017 	ldw	fp,0(sp)
 180de80:	dec00204 	addi	sp,sp,8
 180de84:	f800283a 	ret

0180de88 <altera_avalon_lcd_16207_write_fd>:
extern int altera_avalon_lcd_16207_write(altera_avalon_lcd_16207_state* sp,
  const char* ptr, int count, int flags);

int 
altera_avalon_lcd_16207_write_fd(alt_fd* fd, const char* buffer, int space)
{
 180de88:	defffa04 	addi	sp,sp,-24
 180de8c:	dfc00515 	stw	ra,20(sp)
 180de90:	df000415 	stw	fp,16(sp)
 180de94:	df000404 	addi	fp,sp,16
 180de98:	e13ffd15 	stw	r4,-12(fp)
 180de9c:	e17ffe15 	stw	r5,-8(fp)
 180dea0:	e1bfff15 	stw	r6,-4(fp)
    altera_avalon_lcd_16207_dev* dev = (altera_avalon_lcd_16207_dev*) fd->dev; 
 180dea4:	e0bffd17 	ldw	r2,-12(fp)
 180dea8:	10800017 	ldw	r2,0(r2)
 180deac:	e0bffc15 	stw	r2,-16(fp)

    return altera_avalon_lcd_16207_write(&dev->state, buffer, space,
 180deb0:	e0bffc17 	ldw	r2,-16(fp)
 180deb4:	11000a04 	addi	r4,r2,40
 180deb8:	e0bffd17 	ldw	r2,-12(fp)
 180debc:	11c00217 	ldw	r7,8(r2)
 180dec0:	e17ffe17 	ldw	r5,-8(fp)
 180dec4:	e1bfff17 	ldw	r6,-4(fp)
 180dec8:	180d77c0 	call	180d77c <altera_avalon_lcd_16207_write>
      fd->fd_flags);
}
 180decc:	e037883a 	mov	sp,fp
 180ded0:	dfc00117 	ldw	ra,4(sp)
 180ded4:	df000017 	ldw	fp,0(sp)
 180ded8:	dec00204 	addi	sp,sp,8
 180dedc:	f800283a 	ret

0180dee0 <alt_avalon_timer_sc_irq>:
#ifdef ALT_ENHANCED_INTERRUPT_API_PRESENT
static void alt_avalon_timer_sc_irq (void* base)
#else
static void alt_avalon_timer_sc_irq (void* base, alt_u32 id)
#endif
{
 180dee0:	defffa04 	addi	sp,sp,-24
 180dee4:	dfc00515 	stw	ra,20(sp)
 180dee8:	df000415 	stw	fp,16(sp)
 180deec:	df000404 	addi	fp,sp,16
 180def0:	e13fff15 	stw	r4,-4(fp)
  alt_irq_context cpu_sr;
  
  /* clear the interrupt */
  IOWR_ALTERA_AVALON_TIMER_STATUS (base, 0);
 180def4:	e0bfff17 	ldw	r2,-4(fp)
 180def8:	10000035 	stwio	zero,0(r2)
  /* 
   * Dummy read to ensure IRQ is negated before the ISR returns.
   * The control register is read because reading the status
   * register has side-effects per the register map documentation.
   */
  IORD_ALTERA_AVALON_TIMER_CONTROL (base);
 180defc:	e0bfff17 	ldw	r2,-4(fp)
 180df00:	10800104 	addi	r2,r2,4
 180df04:	10800037 	ldwio	r2,0(r2)
static ALT_INLINE alt_irq_context ALT_ALWAYS_INLINE 
       alt_irq_disable_all (void)
{
  alt_irq_context context;

  NIOS2_READ_STATUS (context);
 180df08:	0005303a 	rdctl	r2,status
 180df0c:	e0bffd15 	stw	r2,-12(fp)

  NIOS2_WRITE_STATUS (context & ~NIOS2_STATUS_PIE_MSK);
 180df10:	e0fffd17 	ldw	r3,-12(fp)
 180df14:	00bfff84 	movi	r2,-2
 180df18:	1884703a 	and	r2,r3,r2
 180df1c:	1001703a 	wrctl	status,r2
  
  return context;
 180df20:	e0bffd17 	ldw	r2,-12(fp)

  /* 
   * Notify the system of a clock tick. disable interrupts 
   * during this time to safely support ISR preemption
   */
  cpu_sr = alt_irq_disable_all();
 180df24:	e0bffe15 	stw	r2,-8(fp)
  alt_tick ();
 180df28:	180f6980 	call	180f698 <alt_tick>
 180df2c:	e0bffe17 	ldw	r2,-8(fp)
 180df30:	e0bffc15 	stw	r2,-16(fp)
  status &= ~NIOS2_STATUS_PIE_MSK;
  status |= (context & NIOS2_STATUS_PIE_MSK);
  
  NIOS2_WRITE_STATUS (status);
#else
  NIOS2_WRITE_STATUS (context);
 180df34:	e0bffc17 	ldw	r2,-16(fp)
 180df38:	1001703a 	wrctl	status,r2
  alt_irq_enable_all(cpu_sr);
}
 180df3c:	e037883a 	mov	sp,fp
 180df40:	dfc00117 	ldw	ra,4(sp)
 180df44:	df000017 	ldw	fp,0(sp)
 180df48:	dec00204 	addi	sp,sp,8
 180df4c:	f800283a 	ret

0180df50 <alt_avalon_timer_sc_init>:
 * auto-generated alt_sys_init() function.
 */

void alt_avalon_timer_sc_init (void* base, alt_u32 irq_controller_id, 
                                alt_u32 irq, alt_u32 freq)
{
 180df50:	defff804 	addi	sp,sp,-32
 180df54:	dfc00715 	stw	ra,28(sp)
 180df58:	df000615 	stw	fp,24(sp)
 180df5c:	df000604 	addi	fp,sp,24
 180df60:	e13ffc15 	stw	r4,-16(fp)
 180df64:	e17ffd15 	stw	r5,-12(fp)
 180df68:	e1bffe15 	stw	r6,-8(fp)
 180df6c:	e1ffff15 	stw	r7,-4(fp)
 180df70:	e0bfff17 	ldw	r2,-4(fp)
 180df74:	e0bffb15 	stw	r2,-20(fp)
 * in order to initialise the value of the clock frequency.
 */

static ALT_INLINE int ALT_ALWAYS_INLINE alt_sysclk_init (alt_u32 nticks)
{
  if (! _alt_tick_rate)
 180df78:	00806074 	movhi	r2,385
 180df7c:	108aea04 	addi	r2,r2,11176
 180df80:	10800017 	ldw	r2,0(r2)
 180df84:	1004c03a 	cmpne	r2,r2,zero
 180df88:	1000041e 	bne	r2,zero,180df9c <alt_avalon_timer_sc_init+0x4c>
  {
    _alt_tick_rate = nticks;
 180df8c:	00c06074 	movhi	r3,385
 180df90:	18caea04 	addi	r3,r3,11176
 180df94:	e0bffb17 	ldw	r2,-20(fp)
 180df98:	18800015 	stw	r2,0(r3)
  
  alt_sysclk_init (freq);
  
  /* set to free running mode */
  
  IOWR_ALTERA_AVALON_TIMER_CONTROL (base, 
 180df9c:	e0bffc17 	ldw	r2,-16(fp)
 180dfa0:	10800104 	addi	r2,r2,4
 180dfa4:	1007883a 	mov	r3,r2
 180dfa8:	008001c4 	movi	r2,7
 180dfac:	18800035 	stwio	r2,0(r3)
            ALTERA_AVALON_TIMER_CONTROL_CONT_MSK |
            ALTERA_AVALON_TIMER_CONTROL_START_MSK);

  /* register the interrupt handler, and enable the interrupt */
#ifdef ALT_ENHANCED_INTERRUPT_API_PRESENT
  alt_ic_isr_register(irq_controller_id, irq, alt_avalon_timer_sc_irq, 
 180dfb0:	d8000015 	stw	zero,0(sp)
 180dfb4:	e13ffd17 	ldw	r4,-12(fp)
 180dfb8:	e17ffe17 	ldw	r5,-8(fp)
 180dfbc:	01806074 	movhi	r6,385
 180dfc0:	31b7b804 	addi	r6,r6,-8480
 180dfc4:	e1fffc17 	ldw	r7,-16(fp)
 180dfc8:	180ef340 	call	180ef34 <alt_ic_isr_register>
                      base, NULL);
#else
  alt_irq_register (irq, base, alt_avalon_timer_sc_irq);
#endif  
}
 180dfcc:	e037883a 	mov	sp,fp
 180dfd0:	dfc00117 	ldw	ra,4(sp)
 180dfd4:	df000017 	ldw	fp,0(sp)
 180dfd8:	dec00204 	addi	sp,sp,8
 180dfdc:	f800283a 	ret

0180dfe0 <altera_avalon_uart_read_fd>:
 *
 */

int 
altera_avalon_uart_read_fd(alt_fd* fd, char* buffer, int space)
{
 180dfe0:	defffa04 	addi	sp,sp,-24
 180dfe4:	dfc00515 	stw	ra,20(sp)
 180dfe8:	df000415 	stw	fp,16(sp)
 180dfec:	df000404 	addi	fp,sp,16
 180dff0:	e13ffd15 	stw	r4,-12(fp)
 180dff4:	e17ffe15 	stw	r5,-8(fp)
 180dff8:	e1bfff15 	stw	r6,-4(fp)
    altera_avalon_uart_dev* dev = (altera_avalon_uart_dev*) fd->dev; 
 180dffc:	e0bffd17 	ldw	r2,-12(fp)
 180e000:	10800017 	ldw	r2,0(r2)
 180e004:	e0bffc15 	stw	r2,-16(fp)

    return altera_avalon_uart_read(&dev->state, buffer, space,
 180e008:	e0bffc17 	ldw	r2,-16(fp)
 180e00c:	11000a04 	addi	r4,r2,40
 180e010:	e0bffd17 	ldw	r2,-12(fp)
 180e014:	11c00217 	ldw	r7,8(r2)
 180e018:	e17ffe17 	ldw	r5,-8(fp)
 180e01c:	e1bfff17 	ldw	r6,-4(fp)
 180e020:	180e4d80 	call	180e4d8 <altera_avalon_uart_read>
      fd->fd_flags);
}
 180e024:	e037883a 	mov	sp,fp
 180e028:	dfc00117 	ldw	ra,4(sp)
 180e02c:	df000017 	ldw	fp,0(sp)
 180e030:	dec00204 	addi	sp,sp,8
 180e034:	f800283a 	ret

0180e038 <altera_avalon_uart_write_fd>:

int 
altera_avalon_uart_write_fd(alt_fd* fd, const char* buffer, int space)
{
 180e038:	defffa04 	addi	sp,sp,-24
 180e03c:	dfc00515 	stw	ra,20(sp)
 180e040:	df000415 	stw	fp,16(sp)
 180e044:	df000404 	addi	fp,sp,16
 180e048:	e13ffd15 	stw	r4,-12(fp)
 180e04c:	e17ffe15 	stw	r5,-8(fp)
 180e050:	e1bfff15 	stw	r6,-4(fp)
    altera_avalon_uart_dev* dev = (altera_avalon_uart_dev*) fd->dev; 
 180e054:	e0bffd17 	ldw	r2,-12(fp)
 180e058:	10800017 	ldw	r2,0(r2)
 180e05c:	e0bffc15 	stw	r2,-16(fp)

    return altera_avalon_uart_write(&dev->state, buffer, space,
 180e060:	e0bffc17 	ldw	r2,-16(fp)
 180e064:	11000a04 	addi	r4,r2,40
 180e068:	e0bffd17 	ldw	r2,-12(fp)
 180e06c:	11c00217 	ldw	r7,8(r2)
 180e070:	e17ffe17 	ldw	r5,-8(fp)
 180e074:	e1bfff17 	ldw	r6,-4(fp)
 180e078:	180e7680 	call	180e768 <altera_avalon_uart_write>
      fd->fd_flags);
}
 180e07c:	e037883a 	mov	sp,fp
 180e080:	dfc00117 	ldw	ra,4(sp)
 180e084:	df000017 	ldw	fp,0(sp)
 180e088:	dec00204 	addi	sp,sp,8
 180e08c:	f800283a 	ret

0180e090 <altera_avalon_uart_close_fd>:

#endif /* ALTERA_AVALON_UART_USE_IOCTL */

int 
altera_avalon_uart_close_fd(alt_fd* fd)
{
 180e090:	defffc04 	addi	sp,sp,-16
 180e094:	dfc00315 	stw	ra,12(sp)
 180e098:	df000215 	stw	fp,8(sp)
 180e09c:	df000204 	addi	fp,sp,8
 180e0a0:	e13fff15 	stw	r4,-4(fp)
    altera_avalon_uart_dev* dev = (altera_avalon_uart_dev*) fd->dev; 
 180e0a4:	e0bfff17 	ldw	r2,-4(fp)
 180e0a8:	10800017 	ldw	r2,0(r2)
 180e0ac:	e0bffe15 	stw	r2,-8(fp)

    return altera_avalon_uart_close(&dev->state, fd->fd_flags);
 180e0b0:	e0bffe17 	ldw	r2,-8(fp)
 180e0b4:	11000a04 	addi	r4,r2,40
 180e0b8:	e0bfff17 	ldw	r2,-4(fp)
 180e0bc:	11400217 	ldw	r5,8(r2)
 180e0c0:	180e4780 	call	180e478 <altera_avalon_uart_close>
}
 180e0c4:	e037883a 	mov	sp,fp
 180e0c8:	dfc00117 	ldw	ra,4(sp)
 180e0cc:	df000017 	ldw	fp,0(sp)
 180e0d0:	dec00204 	addi	sp,sp,8
 180e0d4:	f800283a 	ret

0180e0d8 <altera_avalon_uart_init>:
  alt_u32 status);

void 
altera_avalon_uart_init(altera_avalon_uart_state* sp, 
  alt_u32 irq_controller_id,  alt_u32 irq)
{
 180e0d8:	defff704 	addi	sp,sp,-36
 180e0dc:	dfc00815 	stw	ra,32(sp)
 180e0e0:	df000715 	stw	fp,28(sp)
 180e0e4:	df000704 	addi	fp,sp,28
 180e0e8:	e13ffc15 	stw	r4,-16(fp)
 180e0ec:	e17ffd15 	stw	r5,-12(fp)
 180e0f0:	e1bffe15 	stw	r6,-8(fp)
  void* base = sp->base;
 180e0f4:	e0bffc17 	ldw	r2,-16(fp)
 180e0f8:	10800017 	ldw	r2,0(r2)
 180e0fc:	e0bffb15 	stw	r2,-20(fp)
 * HAL.
 */

static ALT_INLINE int ALT_ALWAYS_INLINE alt_no_error (void)
{
  return 0;
 180e100:	0005883a 	mov	r2,zero
  /* 
   * Initialise the read and write flags and the semaphores used to 
   * protect access to the circular buffers when running in a multi-threaded
   * environment.
   */
  error = ALT_FLAG_CREATE (&sp->events, 0)    || 
 180e104:	1004c03a 	cmpne	r2,r2,zero
 180e108:	1000061e 	bne	r2,zero,180e124 <altera_avalon_uart_init+0x4c>
 180e10c:	0005883a 	mov	r2,zero
 180e110:	1004c03a 	cmpne	r2,r2,zero
 180e114:	1000031e 	bne	r2,zero,180e124 <altera_avalon_uart_init+0x4c>
 180e118:	0005883a 	mov	r2,zero
 180e11c:	1005003a 	cmpeq	r2,r2,zero
 180e120:	1000031e 	bne	r2,zero,180e130 <altera_avalon_uart_init+0x58>
 180e124:	00800044 	movi	r2,1
 180e128:	e0bfff15 	stw	r2,-4(fp)
 180e12c:	00000106 	br	180e134 <altera_avalon_uart_init+0x5c>
 180e130:	e03fff15 	stw	zero,-4(fp)
 180e134:	e0bfff17 	ldw	r2,-4(fp)
 180e138:	e0bffa15 	stw	r2,-24(fp)
          ALT_SEM_CREATE (&sp->read_lock, 1)  ||
          ALT_SEM_CREATE (&sp->write_lock, 1);

  if (!error)
 180e13c:	e0bffa17 	ldw	r2,-24(fp)
 180e140:	1004c03a 	cmpne	r2,r2,zero
 180e144:	1000111e 	bne	r2,zero,180e18c <altera_avalon_uart_init+0xb4>
  {
    /* enable interrupts at the device */
    sp->ctrl = ALTERA_AVALON_UART_CONTROL_RTS_MSK  |
 180e148:	e0fffc17 	ldw	r3,-16(fp)
 180e14c:	00832004 	movi	r2,3200
 180e150:	18800115 	stw	r2,4(r3)
                ALTERA_AVALON_UART_CONTROL_RRDY_MSK |
                ALTERA_AVALON_UART_CONTROL_DCTS_MSK;

    IOWR_ALTERA_AVALON_UART_CONTROL(base, sp->ctrl); 
 180e154:	e0bffb17 	ldw	r2,-20(fp)
 180e158:	11000304 	addi	r4,r2,12
 180e15c:	e0bffc17 	ldw	r2,-16(fp)
 180e160:	10800117 	ldw	r2,4(r2)
 180e164:	1007883a 	mov	r3,r2
 180e168:	2005883a 	mov	r2,r4
 180e16c:	10c00035 	stwio	r3,0(r2)
  
    /* register the interrupt handler */
#ifdef ALT_ENHANCED_INTERRUPT_API_PRESENT
    alt_ic_isr_register(irq_controller_id, irq, altera_avalon_uart_irq, sp, 
 180e170:	d8000015 	stw	zero,0(sp)
 180e174:	e13ffd17 	ldw	r4,-12(fp)
 180e178:	e17ffe17 	ldw	r5,-8(fp)
 180e17c:	01806074 	movhi	r6,385
 180e180:	31b86804 	addi	r6,r6,-7776
 180e184:	e1fffc17 	ldw	r7,-16(fp)
 180e188:	180ef340 	call	180ef34 <alt_ic_isr_register>
      0x0);
#else
    alt_irq_register (irq, sp, altera_avalon_uart_irq);
#endif  
  }
}
 180e18c:	e037883a 	mov	sp,fp
 180e190:	dfc00117 	ldw	ra,4(sp)
 180e194:	df000017 	ldw	fp,0(sp)
 180e198:	dec00204 	addi	sp,sp,8
 180e19c:	f800283a 	ret

0180e1a0 <altera_avalon_uart_irq>:
#ifdef ALT_ENHANCED_INTERRUPT_API_PRESENT
static void altera_avalon_uart_irq(void* context)
#else
static void altera_avalon_uart_irq(void* context, alt_u32 id)
#endif
{
 180e1a0:	defffa04 	addi	sp,sp,-24
 180e1a4:	dfc00515 	stw	ra,20(sp)
 180e1a8:	df000415 	stw	fp,16(sp)
 180e1ac:	df000404 	addi	fp,sp,16
 180e1b0:	e13fff15 	stw	r4,-4(fp)
  alt_u32 status;

  altera_avalon_uart_state* sp = (altera_avalon_uart_state*) context;
 180e1b4:	e0bfff17 	ldw	r2,-4(fp)
 180e1b8:	e0bffd15 	stw	r2,-12(fp)
  void* base               = sp->base;
 180e1bc:	e0bffd17 	ldw	r2,-12(fp)
 180e1c0:	10800017 	ldw	r2,0(r2)
 180e1c4:	e0bffc15 	stw	r2,-16(fp)
  /*
   * Read the status register in order to determine the cause of the
   * interrupt.
   */

  status = IORD_ALTERA_AVALON_UART_STATUS(base);
 180e1c8:	e0bffc17 	ldw	r2,-16(fp)
 180e1cc:	10800204 	addi	r2,r2,8
 180e1d0:	10800037 	ldwio	r2,0(r2)
 180e1d4:	e0bffe15 	stw	r2,-8(fp)

  /* Clear any error flags set at the device */
  IOWR_ALTERA_AVALON_UART_STATUS(base, 0);
 180e1d8:	e0bffc17 	ldw	r2,-16(fp)
 180e1dc:	10800204 	addi	r2,r2,8
 180e1e0:	10000035 	stwio	zero,0(r2)

  /* Dummy read to ensure IRQ is negated before ISR returns */
  IORD_ALTERA_AVALON_UART_STATUS(base);
 180e1e4:	e0bffc17 	ldw	r2,-16(fp)
 180e1e8:	10800204 	addi	r2,r2,8
 180e1ec:	10800037 	ldwio	r2,0(r2)
  
  /* process a read irq */
  if (status & ALTERA_AVALON_UART_STATUS_RRDY_MSK)
 180e1f0:	e0bffe17 	ldw	r2,-8(fp)
 180e1f4:	1080200c 	andi	r2,r2,128
 180e1f8:	1005003a 	cmpeq	r2,r2,zero
 180e1fc:	1000031e 	bne	r2,zero,180e20c <altera_avalon_uart_irq+0x6c>
  {
    altera_avalon_uart_rxirq(sp, status);
 180e200:	e13ffd17 	ldw	r4,-12(fp)
 180e204:	e17ffe17 	ldw	r5,-8(fp)
 180e208:	180e23c0 	call	180e23c <altera_avalon_uart_rxirq>
  }

  /* process a write irq */
  if (status & (ALTERA_AVALON_UART_STATUS_TRDY_MSK | 
 180e20c:	e0bffe17 	ldw	r2,-8(fp)
 180e210:	1081100c 	andi	r2,r2,1088
 180e214:	1005003a 	cmpeq	r2,r2,zero
 180e218:	1000031e 	bne	r2,zero,180e228 <altera_avalon_uart_irq+0x88>
                  ALTERA_AVALON_UART_STATUS_DCTS_MSK))
  {
    altera_avalon_uart_txirq(sp, status);
 180e21c:	e13ffd17 	ldw	r4,-12(fp)
 180e220:	e17ffe17 	ldw	r5,-8(fp)
 180e224:	180e31c0 	call	180e31c <altera_avalon_uart_txirq>
  }
  

}
 180e228:	e037883a 	mov	sp,fp
 180e22c:	dfc00117 	ldw	ra,4(sp)
 180e230:	df000017 	ldw	fp,0(sp)
 180e234:	dec00204 	addi	sp,sp,8
 180e238:	f800283a 	ret

0180e23c <altera_avalon_uart_rxirq>:
 * the receive circular buffer, and sets the apropriate flags to indicate 
 * that there is data ready to be processed.
 */
static void 
altera_avalon_uart_rxirq(altera_avalon_uart_state* sp, alt_u32 status)
{
 180e23c:	defffc04 	addi	sp,sp,-16
 180e240:	df000315 	stw	fp,12(sp)
 180e244:	df000304 	addi	fp,sp,12
 180e248:	e13ffe15 	stw	r4,-8(fp)
 180e24c:	e17fff15 	stw	r5,-4(fp)
  alt_u32 next;
  
  /* If there was an error, discard the data */

  if (status & (ALTERA_AVALON_UART_STATUS_PE_MSK | 
 180e250:	e0bfff17 	ldw	r2,-4(fp)
 180e254:	108000cc 	andi	r2,r2,3
 180e258:	1004c03a 	cmpne	r2,r2,zero
 180e25c:	10002b1e 	bne	r2,zero,180e30c <altera_avalon_uart_rxirq+0xd0>
   * In a multi-threaded environment, set the read event flag to indicate
   * that there is data ready. This is only done if the circular buffer was
   * previously empty.
   */

  if (sp->rx_end == sp->rx_start)
 180e260:	e0bffe17 	ldw	r2,-8(fp)
 180e264:	10800317 	ldw	r2,12(r2)
    ALT_FLAG_POST (sp->events, ALT_UART_READ_RDY, OS_FLAG_SET);
  }

  /* Determine which slot to use next in the circular buffer */

  next = (sp->rx_end + 1) & ALT_AVALON_UART_BUF_MSK;
 180e268:	e0bffe17 	ldw	r2,-8(fp)
 180e26c:	10800317 	ldw	r2,12(r2)
 180e270:	10800044 	addi	r2,r2,1
 180e274:	10800fcc 	andi	r2,r2,63
 180e278:	e0bffd15 	stw	r2,-12(fp)

  /* Transfer data from the device to the circular buffer */

  sp->rx_buf[sp->rx_end] = IORD_ALTERA_AVALON_UART_RXDATA(sp->base);
 180e27c:	e0bffe17 	ldw	r2,-8(fp)
 180e280:	11000317 	ldw	r4,12(r2)
 180e284:	e0bffe17 	ldw	r2,-8(fp)
 180e288:	10800017 	ldw	r2,0(r2)
 180e28c:	10800037 	ldwio	r2,0(r2)
 180e290:	1007883a 	mov	r3,r2
 180e294:	e0bffe17 	ldw	r2,-8(fp)
 180e298:	2085883a 	add	r2,r4,r2
 180e29c:	10800704 	addi	r2,r2,28
 180e2a0:	10c00005 	stb	r3,0(r2)

  sp->rx_end = next;
 180e2a4:	e0fffe17 	ldw	r3,-8(fp)
 180e2a8:	e0bffd17 	ldw	r2,-12(fp)
 180e2ac:	18800315 	stw	r2,12(r3)

  next = (sp->rx_end + 1) & ALT_AVALON_UART_BUF_MSK;
 180e2b0:	e0bffe17 	ldw	r2,-8(fp)
 180e2b4:	10800317 	ldw	r2,12(r2)
 180e2b8:	10800044 	addi	r2,r2,1
 180e2bc:	10800fcc 	andi	r2,r2,63
 180e2c0:	e0bffd15 	stw	r2,-12(fp)
  /*
   * If the cicular buffer was full, disable interrupts. Interrupts will be
   * re-enabled when data is removed from the buffer.
   */

  if (next == sp->rx_start)
 180e2c4:	e0bffe17 	ldw	r2,-8(fp)
 180e2c8:	10c00217 	ldw	r3,8(r2)
 180e2cc:	e0bffd17 	ldw	r2,-12(fp)
 180e2d0:	18800e1e 	bne	r3,r2,180e30c <altera_avalon_uart_rxirq+0xd0>
  {
    sp->ctrl &= ~ALTERA_AVALON_UART_CONTROL_RRDY_MSK;
 180e2d4:	e0bffe17 	ldw	r2,-8(fp)
 180e2d8:	10c00117 	ldw	r3,4(r2)
 180e2dc:	00bfdfc4 	movi	r2,-129
 180e2e0:	1886703a 	and	r3,r3,r2
 180e2e4:	e0bffe17 	ldw	r2,-8(fp)
 180e2e8:	10c00115 	stw	r3,4(r2)
    IOWR_ALTERA_AVALON_UART_CONTROL(sp->base, sp->ctrl); 
 180e2ec:	e0bffe17 	ldw	r2,-8(fp)
 180e2f0:	10800017 	ldw	r2,0(r2)
 180e2f4:	11000304 	addi	r4,r2,12
 180e2f8:	e0bffe17 	ldw	r2,-8(fp)
 180e2fc:	10800117 	ldw	r2,4(r2)
 180e300:	1007883a 	mov	r3,r2
 180e304:	2005883a 	mov	r2,r4
 180e308:	10c00035 	stwio	r3,0(r2)
  }   
}
 180e30c:	e037883a 	mov	sp,fp
 180e310:	df000017 	ldw	fp,0(sp)
 180e314:	dec00104 	addi	sp,sp,4
 180e318:	f800283a 	ret

0180e31c <altera_avalon_uart_txirq>:
 * buffer to the device, and sets the apropriate flags to indicate that 
 * there is data ready to be processed.
 */
static void 
altera_avalon_uart_txirq(altera_avalon_uart_state* sp, alt_u32 status)
{
 180e31c:	defffd04 	addi	sp,sp,-12
 180e320:	df000215 	stw	fp,8(sp)
 180e324:	df000204 	addi	fp,sp,8
 180e328:	e13ffe15 	stw	r4,-8(fp)
 180e32c:	e17fff15 	stw	r5,-4(fp)
  /* Transfer data if there is some ready to be transfered */

  if (sp->tx_start != sp->tx_end)
 180e330:	e0bffe17 	ldw	r2,-8(fp)
 180e334:	10c00417 	ldw	r3,16(r2)
 180e338:	e0bffe17 	ldw	r2,-8(fp)
 180e33c:	10800517 	ldw	r2,20(r2)
 180e340:	18803626 	beq	r3,r2,180e41c <altera_avalon_uart_txirq+0x100>
    /* 
     * If the device is using flow control (i.e. RTS/CTS), then the
     * transmitter is required to throttle if CTS is high.
     */

    if (!(sp->flags & ALT_AVALON_UART_FC) ||
 180e344:	e0bffe17 	ldw	r2,-8(fp)
 180e348:	10800617 	ldw	r2,24(r2)
 180e34c:	1080008c 	andi	r2,r2,2
 180e350:	1005003a 	cmpeq	r2,r2,zero
 180e354:	1000041e 	bne	r2,zero,180e368 <altera_avalon_uart_txirq+0x4c>
 180e358:	e0bfff17 	ldw	r2,-4(fp)
 180e35c:	1082000c 	andi	r2,r2,2048
 180e360:	1005003a 	cmpeq	r2,r2,zero
 180e364:	10001e1e 	bne	r2,zero,180e3e0 <altera_avalon_uart_txirq+0xc4>
       * In a multi-threaded environment, set the write event flag to indicate
       * that there is space in the circular buffer. This is only done if the
       * buffer was previously empty.
       */

      if (sp->tx_start == ((sp->tx_end + 1) & ALT_AVALON_UART_BUF_MSK))
 180e368:	e0bffe17 	ldw	r2,-8(fp)
 180e36c:	10800417 	ldw	r2,16(r2)
                       OS_FLAG_SET);
      }

      /* Write the data to the device */

      IOWR_ALTERA_AVALON_UART_TXDATA(sp->base, sp->tx_buf[sp->tx_start]);
 180e370:	e0bffe17 	ldw	r2,-8(fp)
 180e374:	10800017 	ldw	r2,0(r2)
 180e378:	11000104 	addi	r4,r2,4
 180e37c:	e0bffe17 	ldw	r2,-8(fp)
 180e380:	10c00417 	ldw	r3,16(r2)
 180e384:	e0bffe17 	ldw	r2,-8(fp)
 180e388:	1885883a 	add	r2,r3,r2
 180e38c:	10801704 	addi	r2,r2,92
 180e390:	10800003 	ldbu	r2,0(r2)
 180e394:	10c03fcc 	andi	r3,r2,255
 180e398:	2005883a 	mov	r2,r4
 180e39c:	10c00035 	stwio	r3,0(r2)

      sp->tx_start = (++sp->tx_start) & ALT_AVALON_UART_BUF_MSK;
 180e3a0:	e0bffe17 	ldw	r2,-8(fp)
 180e3a4:	10800417 	ldw	r2,16(r2)
 180e3a8:	10c00044 	addi	r3,r2,1
 180e3ac:	e0bffe17 	ldw	r2,-8(fp)
 180e3b0:	10c00415 	stw	r3,16(r2)
 180e3b4:	e0bffe17 	ldw	r2,-8(fp)
 180e3b8:	10800417 	ldw	r2,16(r2)
 180e3bc:	10c00fcc 	andi	r3,r2,63
 180e3c0:	e0bffe17 	ldw	r2,-8(fp)
 180e3c4:	10c00415 	stw	r3,16(r2)
      /*
       * In case the tranmit interrupt had previously been disabled by 
       * detecting a low value on CTS, it is reenabled here.
       */ 

      sp->ctrl |= ALTERA_AVALON_UART_CONTROL_TRDY_MSK;
 180e3c8:	e0bffe17 	ldw	r2,-8(fp)
 180e3cc:	10800117 	ldw	r2,4(r2)
 180e3d0:	10c01014 	ori	r3,r2,64
 180e3d4:	e0bffe17 	ldw	r2,-8(fp)
 180e3d8:	10c00115 	stw	r3,4(r2)
    /* 
     * If the device is using flow control (i.e. RTS/CTS), then the
     * transmitter is required to throttle if CTS is high.
     */

    if (!(sp->flags & ALT_AVALON_UART_FC) ||
 180e3dc:	00000f06 	br	180e41c <altera_avalon_uart_txirq+0x100>
       * the last write to the status register. To avoid this resulting in
       * deadlock, it's necessary to re-check the status register here
       * before throttling.
       */
 
      status = IORD_ALTERA_AVALON_UART_STATUS(sp->base); 
 180e3e0:	e0bffe17 	ldw	r2,-8(fp)
 180e3e4:	10800017 	ldw	r2,0(r2)
 180e3e8:	10800204 	addi	r2,r2,8
 180e3ec:	10800037 	ldwio	r2,0(r2)
 180e3f0:	e0bfff15 	stw	r2,-4(fp)

      if (!(status & ALTERA_AVALON_UART_STATUS_CTS_MSK))
 180e3f4:	e0bfff17 	ldw	r2,-4(fp)
 180e3f8:	1082000c 	andi	r2,r2,2048
 180e3fc:	1004c03a 	cmpne	r2,r2,zero
 180e400:	1000061e 	bne	r2,zero,180e41c <altera_avalon_uart_txirq+0x100>
      {
        sp->ctrl &= ~ALTERA_AVALON_UART_CONTROL_TRDY_MSK;
 180e404:	e0bffe17 	ldw	r2,-8(fp)
 180e408:	10c00117 	ldw	r3,4(r2)
 180e40c:	00bfefc4 	movi	r2,-65
 180e410:	1886703a 	and	r3,r3,r2
 180e414:	e0bffe17 	ldw	r2,-8(fp)
 180e418:	10c00115 	stw	r3,4(r2)
  /*
   * If the circular buffer is empty, disable the interrupt. This will be
   * re-enabled when new data is placed in the buffer.
   */

  if (sp->tx_start == sp->tx_end)
 180e41c:	e0bffe17 	ldw	r2,-8(fp)
 180e420:	10c00417 	ldw	r3,16(r2)
 180e424:	e0bffe17 	ldw	r2,-8(fp)
 180e428:	10800517 	ldw	r2,20(r2)
 180e42c:	1880061e 	bne	r3,r2,180e448 <altera_avalon_uart_txirq+0x12c>
  {
    sp->ctrl &= ~(ALTERA_AVALON_UART_CONTROL_TRDY_MSK |
 180e430:	e0bffe17 	ldw	r2,-8(fp)
 180e434:	10c00117 	ldw	r3,4(r2)
 180e438:	00beefc4 	movi	r2,-1089
 180e43c:	1886703a 	and	r3,r3,r2
 180e440:	e0bffe17 	ldw	r2,-8(fp)
 180e444:	10c00115 	stw	r3,4(r2)
                    ALTERA_AVALON_UART_CONTROL_DCTS_MSK);
  }

  IOWR_ALTERA_AVALON_UART_CONTROL(sp->base, sp->ctrl);
 180e448:	e0bffe17 	ldw	r2,-8(fp)
 180e44c:	10800017 	ldw	r2,0(r2)
 180e450:	11000304 	addi	r4,r2,12
 180e454:	e0bffe17 	ldw	r2,-8(fp)
 180e458:	10800117 	ldw	r2,4(r2)
 180e45c:	1007883a 	mov	r3,r2
 180e460:	2005883a 	mov	r2,r4
 180e464:	10c00035 	stwio	r3,0(r2)
}
 180e468:	e037883a 	mov	sp,fp
 180e46c:	df000017 	ldw	fp,0(sp)
 180e470:	dec00104 	addi	sp,sp,4
 180e474:	f800283a 	ret

0180e478 <altera_avalon_uart_close>:
 * The close routine is not implemented for the small driver; instead it will
 * map to null. This is because the small driver simply waits while characters
 * are transmitted; there is no interrupt-serviced buffer to empty 
 */
int altera_avalon_uart_close(altera_avalon_uart_state* sp, int flags)
{
 180e478:	defffc04 	addi	sp,sp,-16
 180e47c:	df000315 	stw	fp,12(sp)
 180e480:	df000304 	addi	fp,sp,12
 180e484:	e13ffd15 	stw	r4,-12(fp)
 180e488:	e17ffe15 	stw	r5,-8(fp)
  /* 
   * Wait for all transmit data to be emptied by the UART ISR.
   */
  while (sp->tx_start != sp->tx_end) {
 180e48c:	00000706 	br	180e4ac <altera_avalon_uart_close+0x34>
    if (flags & O_NONBLOCK) {
 180e490:	e0bffe17 	ldw	r2,-8(fp)
 180e494:	1090000c 	andi	r2,r2,16384
 180e498:	1005003a 	cmpeq	r2,r2,zero
 180e49c:	1000031e 	bne	r2,zero,180e4ac <altera_avalon_uart_close+0x34>
      return -EWOULDBLOCK; 
 180e4a0:	00bffd44 	movi	r2,-11
 180e4a4:	e0bfff15 	stw	r2,-4(fp)
 180e4a8:	00000606 	br	180e4c4 <altera_avalon_uart_close+0x4c>
int altera_avalon_uart_close(altera_avalon_uart_state* sp, int flags)
{
  /* 
   * Wait for all transmit data to be emptied by the UART ISR.
   */
  while (sp->tx_start != sp->tx_end) {
 180e4ac:	e0bffd17 	ldw	r2,-12(fp)
 180e4b0:	10c00417 	ldw	r3,16(r2)
 180e4b4:	e0bffd17 	ldw	r2,-12(fp)
 180e4b8:	10800517 	ldw	r2,20(r2)
 180e4bc:	18bff41e 	bne	r3,r2,180e490 <altera_avalon_uart_close+0x18>
    if (flags & O_NONBLOCK) {
      return -EWOULDBLOCK; 
    }
  }

  return 0;
 180e4c0:	e03fff15 	stw	zero,-4(fp)
 180e4c4:	e0bfff17 	ldw	r2,-4(fp)
}
 180e4c8:	e037883a 	mov	sp,fp
 180e4cc:	df000017 	ldw	fp,0(sp)
 180e4d0:	dec00104 	addi	sp,sp,4
 180e4d4:	f800283a 	ret

0180e4d8 <altera_avalon_uart_read>:
 */

int 
altera_avalon_uart_read(altera_avalon_uart_state* sp, char* ptr, int len,
  int flags)
{
 180e4d8:	defff004 	addi	sp,sp,-64
 180e4dc:	dfc00f15 	stw	ra,60(sp)
 180e4e0:	df000e15 	stw	fp,56(sp)
 180e4e4:	df000e04 	addi	fp,sp,56
 180e4e8:	e13ffb15 	stw	r4,-20(fp)
 180e4ec:	e17ffc15 	stw	r5,-16(fp)
 180e4f0:	e1bffd15 	stw	r6,-12(fp)
 180e4f4:	e1fffe15 	stw	r7,-8(fp)
  alt_irq_context context;
  int             block;
  alt_u32         next;
  alt_u8          read_would_block = 0;
 180e4f8:	e03ff705 	stb	zero,-36(fp)
  int             count = 0;
 180e4fc:	e03ff615 	stw	zero,-40(fp)
  /* 
   * Construct a flag to indicate whether the device is being accessed in
   * blocking or non-blocking mode.
   */

  block = !(flags & O_NONBLOCK);
 180e500:	e0bffe17 	ldw	r2,-8(fp)
 180e504:	1090000c 	andi	r2,r2,16384
 180e508:	1005003a 	cmpeq	r2,r2,zero
 180e50c:	e0bff915 	stw	r2,-28(fp)
  /*
   * Calculate which slot in the circular buffer is the next one to read
   * data from.
   */

  next = (sp->rx_start + 1) & ALT_AVALON_UART_BUF_MSK;
 180e510:	e0bffb17 	ldw	r2,-20(fp)
 180e514:	10800217 	ldw	r2,8(r2)
 180e518:	10800044 	addi	r2,r2,1
 180e51c:	10800fcc 	andi	r2,r2,63
 180e520:	e0bff815 	stw	r2,-32(fp)
    /*
     * Read the required amount of data, until the circular buffer runs
     * empty
     */

    while ((count < len) && (sp->rx_start != sp->rx_end))
 180e524:	00001906 	br	180e58c <altera_avalon_uart_read+0xb4>
    {
      count++;
 180e528:	e0bff617 	ldw	r2,-40(fp)
 180e52c:	10800044 	addi	r2,r2,1
 180e530:	e0bff615 	stw	r2,-40(fp)
      *ptr++ = sp->rx_buf[sp->rx_start];
 180e534:	e0bffb17 	ldw	r2,-20(fp)
 180e538:	10c00217 	ldw	r3,8(r2)
 180e53c:	e0bffb17 	ldw	r2,-20(fp)
 180e540:	1885883a 	add	r2,r3,r2
 180e544:	10800704 	addi	r2,r2,28
 180e548:	10800003 	ldbu	r2,0(r2)
 180e54c:	1007883a 	mov	r3,r2
 180e550:	e0bffc17 	ldw	r2,-16(fp)
 180e554:	10c00005 	stb	r3,0(r2)
 180e558:	e0bffc17 	ldw	r2,-16(fp)
 180e55c:	10800044 	addi	r2,r2,1
 180e560:	e0bffc15 	stw	r2,-16(fp)
      
      sp->rx_start = (++sp->rx_start) & ALT_AVALON_UART_BUF_MSK;
 180e564:	e0bffb17 	ldw	r2,-20(fp)
 180e568:	10800217 	ldw	r2,8(r2)
 180e56c:	10c00044 	addi	r3,r2,1
 180e570:	e0bffb17 	ldw	r2,-20(fp)
 180e574:	10c00215 	stw	r3,8(r2)
 180e578:	e0bffb17 	ldw	r2,-20(fp)
 180e57c:	10800217 	ldw	r2,8(r2)
 180e580:	10c00fcc 	andi	r3,r2,63
 180e584:	e0bffb17 	ldw	r2,-20(fp)
 180e588:	10c00215 	stw	r3,8(r2)
    /*
     * Read the required amount of data, until the circular buffer runs
     * empty
     */

    while ((count < len) && (sp->rx_start != sp->rx_end))
 180e58c:	e0fff617 	ldw	r3,-40(fp)
 180e590:	e0bffd17 	ldw	r2,-12(fp)
 180e594:	1880050e 	bge	r3,r2,180e5ac <altera_avalon_uart_read+0xd4>
 180e598:	e0bffb17 	ldw	r2,-20(fp)
 180e59c:	10c00217 	ldw	r3,8(r2)
 180e5a0:	e0bffb17 	ldw	r2,-20(fp)
 180e5a4:	10800317 	ldw	r2,12(r2)
 180e5a8:	18bfdf1e 	bne	r3,r2,180e528 <altera_avalon_uart_read+0x50>
    /*
     * If no data has been transferred, the circular buffer is empty, and
     * this is not a non-blocking access, block waiting for data to arrive.
     */

    if (!count && (sp->rx_start == sp->rx_end))
 180e5ac:	e0bff617 	ldw	r2,-40(fp)
 180e5b0:	1004c03a 	cmpne	r2,r2,zero
 180e5b4:	1000271e 	bne	r2,zero,180e654 <altera_avalon_uart_read+0x17c>
 180e5b8:	e0bffb17 	ldw	r2,-20(fp)
 180e5bc:	10c00217 	ldw	r3,8(r2)
 180e5c0:	e0bffb17 	ldw	r2,-20(fp)
 180e5c4:	10800317 	ldw	r2,12(r2)
 180e5c8:	1880221e 	bne	r3,r2,180e654 <altera_avalon_uart_read+0x17c>
    {
      if (!block)
 180e5cc:	e0bff917 	ldw	r2,-28(fp)
 180e5d0:	1004c03a 	cmpne	r2,r2,zero
 180e5d4:	1000061e 	bne	r2,zero,180e5f0 <altera_avalon_uart_read+0x118>
      {
        /* Set errno to indicate the reason we're not returning any data */

        ALT_ERRNO = EWOULDBLOCK;
 180e5d8:	180e7080 	call	180e708 <alt_get_errno>
 180e5dc:	00c002c4 	movi	r3,11
 180e5e0:	10c00015 	stw	r3,0(r2)
        read_would_block = 1;
 180e5e4:	00800044 	movi	r2,1
 180e5e8:	e0bff705 	stb	r2,-36(fp)
        break;
 180e5ec:	00001f06 	br	180e66c <altera_avalon_uart_read+0x194>
static ALT_INLINE alt_irq_context ALT_ALWAYS_INLINE 
       alt_irq_disable_all (void)
{
  alt_irq_context context;

  NIOS2_READ_STATUS (context);
 180e5f0:	0005303a 	rdctl	r2,status
 180e5f4:	e0bff515 	stw	r2,-44(fp)

  NIOS2_WRITE_STATUS (context & ~NIOS2_STATUS_PIE_MSK);
 180e5f8:	e0fff517 	ldw	r3,-44(fp)
 180e5fc:	00bfff84 	movi	r2,-2
 180e600:	1884703a 	and	r2,r3,r2
 180e604:	1001703a 	wrctl	status,r2
  
  return context;
 180e608:	e0bff517 	ldw	r2,-44(fp)
      {
       /* Block waiting for some data to arrive */

       /* First, ensure read interrupts are enabled to avoid deadlock */

       context = alt_irq_disable_all ();
 180e60c:	e0bffa15 	stw	r2,-24(fp)
       sp->ctrl |= ALTERA_AVALON_UART_CONTROL_RRDY_MSK;
 180e610:	e0bffb17 	ldw	r2,-20(fp)
 180e614:	10800117 	ldw	r2,4(r2)
 180e618:	10c02014 	ori	r3,r2,128
 180e61c:	e0bffb17 	ldw	r2,-20(fp)
 180e620:	10c00115 	stw	r3,4(r2)
       IOWR_ALTERA_AVALON_UART_CONTROL(sp->base, sp->ctrl);
 180e624:	e0bffb17 	ldw	r2,-20(fp)
 180e628:	10800017 	ldw	r2,0(r2)
 180e62c:	11000304 	addi	r4,r2,12
 180e630:	e0bffb17 	ldw	r2,-20(fp)
 180e634:	10800117 	ldw	r2,4(r2)
 180e638:	1007883a 	mov	r3,r2
 180e63c:	2005883a 	mov	r2,r4
 180e640:	10c00035 	stwio	r3,0(r2)
 180e644:	e0bffa17 	ldw	r2,-24(fp)
 180e648:	e0bff415 	stw	r2,-48(fp)
  status &= ~NIOS2_STATUS_PIE_MSK;
  status |= (context & NIOS2_STATUS_PIE_MSK);
  
  NIOS2_WRITE_STATUS (status);
#else
  NIOS2_WRITE_STATUS (context);
 180e64c:	e0bff417 	ldw	r2,-48(fp)
 180e650:	1001703a 	wrctl	status,r2
                      OS_FLAG_WAIT_SET_ANY + OS_FLAG_CONSUME,
                      0);
      }
    }
  }
  while (!count && len);
 180e654:	e0bff617 	ldw	r2,-40(fp)
 180e658:	1004c03a 	cmpne	r2,r2,zero
 180e65c:	1000031e 	bne	r2,zero,180e66c <altera_avalon_uart_read+0x194>
 180e660:	e0bffd17 	ldw	r2,-12(fp)
 180e664:	1004c03a 	cmpne	r2,r2,zero
 180e668:	103fc81e 	bne	r2,zero,180e58c <altera_avalon_uart_read+0xb4>
static ALT_INLINE alt_irq_context ALT_ALWAYS_INLINE 
       alt_irq_disable_all (void)
{
  alt_irq_context context;

  NIOS2_READ_STATUS (context);
 180e66c:	0005303a 	rdctl	r2,status
 180e670:	e0bff315 	stw	r2,-52(fp)

  NIOS2_WRITE_STATUS (context & ~NIOS2_STATUS_PIE_MSK);
 180e674:	e0fff317 	ldw	r3,-52(fp)
 180e678:	00bfff84 	movi	r2,-2
 180e67c:	1884703a 	and	r2,r3,r2
 180e680:	1001703a 	wrctl	status,r2
  
  return context;
 180e684:	e0bff317 	ldw	r2,-52(fp)
  /*
   * Ensure that interrupts are enabled, so that the circular buffer can
   * re-fill.
   */

  context = alt_irq_disable_all ();
 180e688:	e0bffa15 	stw	r2,-24(fp)
  sp->ctrl |= ALTERA_AVALON_UART_CONTROL_RRDY_MSK;
 180e68c:	e0bffb17 	ldw	r2,-20(fp)
 180e690:	10800117 	ldw	r2,4(r2)
 180e694:	10c02014 	ori	r3,r2,128
 180e698:	e0bffb17 	ldw	r2,-20(fp)
 180e69c:	10c00115 	stw	r3,4(r2)
  IOWR_ALTERA_AVALON_UART_CONTROL(sp->base, sp->ctrl);
 180e6a0:	e0bffb17 	ldw	r2,-20(fp)
 180e6a4:	10800017 	ldw	r2,0(r2)
 180e6a8:	11000304 	addi	r4,r2,12
 180e6ac:	e0bffb17 	ldw	r2,-20(fp)
 180e6b0:	10800117 	ldw	r2,4(r2)
 180e6b4:	1007883a 	mov	r3,r2
 180e6b8:	2005883a 	mov	r2,r4
 180e6bc:	10c00035 	stwio	r3,0(r2)
 180e6c0:	e0bffa17 	ldw	r2,-24(fp)
 180e6c4:	e0bff215 	stw	r2,-56(fp)
  status &= ~NIOS2_STATUS_PIE_MSK;
  status |= (context & NIOS2_STATUS_PIE_MSK);
  
  NIOS2_WRITE_STATUS (status);
#else
  NIOS2_WRITE_STATUS (context);
 180e6c8:	e0bff217 	ldw	r2,-56(fp)
 180e6cc:	1001703a 	wrctl	status,r2
  alt_irq_enable_all (context);

  /* Return the number of bytes read */
  if(read_would_block) {
 180e6d0:	e0bff703 	ldbu	r2,-36(fp)
 180e6d4:	1005003a 	cmpeq	r2,r2,zero
 180e6d8:	1000031e 	bne	r2,zero,180e6e8 <altera_avalon_uart_read+0x210>
    return ~EWOULDBLOCK;
 180e6dc:	00bffd04 	movi	r2,-12
 180e6e0:	e0bfff15 	stw	r2,-4(fp)
 180e6e4:	00000206 	br	180e6f0 <altera_avalon_uart_read+0x218>
  }
  else {
    return count;
 180e6e8:	e0bff617 	ldw	r2,-40(fp)
 180e6ec:	e0bfff15 	stw	r2,-4(fp)
 180e6f0:	e0bfff17 	ldw	r2,-4(fp)
  }
}
 180e6f4:	e037883a 	mov	sp,fp
 180e6f8:	dfc00117 	ldw	ra,4(sp)
 180e6fc:	df000017 	ldw	fp,0(sp)
 180e700:	dec00204 	addi	sp,sp,8
 180e704:	f800283a 	ret

0180e708 <alt_get_errno>:
#undef errno

extern int errno;

static ALT_INLINE int* alt_get_errno(void)
{
 180e708:	defffd04 	addi	sp,sp,-12
 180e70c:	dfc00215 	stw	ra,8(sp)
 180e710:	df000115 	stw	fp,4(sp)
 180e714:	df000104 	addi	fp,sp,4
  return ((alt_errno) ? alt_errno() : &errno);
 180e718:	00806074 	movhi	r2,385
 180e71c:	108ad604 	addi	r2,r2,11096
 180e720:	10800017 	ldw	r2,0(r2)
 180e724:	1005003a 	cmpeq	r2,r2,zero
 180e728:	1000061e 	bne	r2,zero,180e744 <alt_get_errno+0x3c>
 180e72c:	00806074 	movhi	r2,385
 180e730:	108ad604 	addi	r2,r2,11096
 180e734:	10800017 	ldw	r2,0(r2)
 180e738:	103ee83a 	callr	r2
 180e73c:	e0bfff15 	stw	r2,-4(fp)
 180e740:	00000306 	br	180e750 <alt_get_errno+0x48>
 180e744:	00806074 	movhi	r2,385
 180e748:	108ae504 	addi	r2,r2,11156
 180e74c:	e0bfff15 	stw	r2,-4(fp)
 180e750:	e0bfff17 	ldw	r2,-4(fp)
}
 180e754:	e037883a 	mov	sp,fp
 180e758:	dfc00117 	ldw	ra,4(sp)
 180e75c:	df000017 	ldw	fp,0(sp)
 180e760:	dec00204 	addi	sp,sp,8
 180e764:	f800283a 	ret

0180e768 <altera_avalon_uart_write>:
 */

int
altera_avalon_uart_write(altera_avalon_uart_state* sp, const char* ptr, int len,
  int flags)
{
 180e768:	defff204 	addi	sp,sp,-56
 180e76c:	dfc00d15 	stw	ra,52(sp)
 180e770:	df000c15 	stw	fp,48(sp)
 180e774:	df000c04 	addi	fp,sp,48
 180e778:	e13ffc15 	stw	r4,-16(fp)
 180e77c:	e17ffd15 	stw	r5,-12(fp)
 180e780:	e1bffe15 	stw	r6,-8(fp)
 180e784:	e1ffff15 	stw	r7,-4(fp)
  alt_irq_context context;
  int             no_block;
  alt_u32         next;
  int             count = len;
 180e788:	e0bffe17 	ldw	r2,-8(fp)
 180e78c:	e0bff815 	stw	r2,-32(fp)
  /* 
   * Construct a flag to indicate whether the device is being accessed in
   * blocking or non-blocking mode.
   */

  no_block = (flags & O_NONBLOCK);
 180e790:	e0bfff17 	ldw	r2,-4(fp)
 180e794:	1090000c 	andi	r2,r2,16384
 180e798:	e0bffa15 	stw	r2,-24(fp)
   * Loop transferring data from the input buffer to the transmit circular
   * buffer. The loop is terminated once all the data has been transferred,
   * or, (if in non-blocking mode) the buffer becomes full.
   */

  while (count)
 180e79c:	00004006 	br	180e8a0 <altera_avalon_uart_write+0x138>
  {
    /* Determine the next slot in the buffer to access */

    next = (sp->tx_end + 1) & ALT_AVALON_UART_BUF_MSK;
 180e7a0:	e0bffc17 	ldw	r2,-16(fp)
 180e7a4:	10800517 	ldw	r2,20(r2)
 180e7a8:	10800044 	addi	r2,r2,1
 180e7ac:	10800fcc 	andi	r2,r2,63
 180e7b0:	e0bff915 	stw	r2,-28(fp)

    /* block waiting for space if necessary */

    if (next == sp->tx_start)
 180e7b4:	e0bffc17 	ldw	r2,-16(fp)
 180e7b8:	10c00417 	ldw	r3,16(r2)
 180e7bc:	e0bff917 	ldw	r2,-28(fp)
 180e7c0:	1880251e 	bne	r3,r2,180e858 <altera_avalon_uart_write+0xf0>
    {
      if (no_block)
 180e7c4:	e0bffa17 	ldw	r2,-24(fp)
 180e7c8:	1005003a 	cmpeq	r2,r2,zero
 180e7cc:	1000051e 	bne	r2,zero,180e7e4 <altera_avalon_uart_write+0x7c>
      {
        /* Set errno to indicate why this function returned early */
 
        ALT_ERRNO = EWOULDBLOCK;
 180e7d0:	180e9300 	call	180e930 <alt_get_errno>
 180e7d4:	1007883a 	mov	r3,r2
 180e7d8:	008002c4 	movi	r2,11
 180e7dc:	18800015 	stw	r2,0(r3)
        break;
 180e7e0:	00003206 	br	180e8ac <altera_avalon_uart_write+0x144>
static ALT_INLINE alt_irq_context ALT_ALWAYS_INLINE 
       alt_irq_disable_all (void)
{
  alt_irq_context context;

  NIOS2_READ_STATUS (context);
 180e7e4:	0005303a 	rdctl	r2,status
 180e7e8:	e0bff715 	stw	r2,-36(fp)

  NIOS2_WRITE_STATUS (context & ~NIOS2_STATUS_PIE_MSK);
 180e7ec:	e0fff717 	ldw	r3,-36(fp)
 180e7f0:	00bfff84 	movi	r2,-2
 180e7f4:	1884703a 	and	r2,r3,r2
 180e7f8:	1001703a 	wrctl	status,r2
  
  return context;
 180e7fc:	e0bff717 	ldw	r2,-36(fp)
      {
        /* Block waiting for space in the circular buffer */

        /* First, ensure transmit interrupts are enabled to avoid deadlock */

        context = alt_irq_disable_all ();
 180e800:	e0bffb15 	stw	r2,-20(fp)
        sp->ctrl |= (ALTERA_AVALON_UART_CONTROL_TRDY_MSK |
 180e804:	e0bffc17 	ldw	r2,-16(fp)
 180e808:	10800117 	ldw	r2,4(r2)
 180e80c:	10c11014 	ori	r3,r2,1088
 180e810:	e0bffc17 	ldw	r2,-16(fp)
 180e814:	10c00115 	stw	r3,4(r2)
                        ALTERA_AVALON_UART_CONTROL_DCTS_MSK);
        IOWR_ALTERA_AVALON_UART_CONTROL(sp->base, sp->ctrl);
 180e818:	e0bffc17 	ldw	r2,-16(fp)
 180e81c:	10800017 	ldw	r2,0(r2)
 180e820:	11000304 	addi	r4,r2,12
 180e824:	e0bffc17 	ldw	r2,-16(fp)
 180e828:	10800117 	ldw	r2,4(r2)
 180e82c:	1007883a 	mov	r3,r2
 180e830:	2005883a 	mov	r2,r4
 180e834:	10c00035 	stwio	r3,0(r2)
 180e838:	e0bffb17 	ldw	r2,-20(fp)
 180e83c:	e0bff615 	stw	r2,-40(fp)
  status &= ~NIOS2_STATUS_PIE_MSK;
  status |= (context & NIOS2_STATUS_PIE_MSK);
  
  NIOS2_WRITE_STATUS (status);
#else
  NIOS2_WRITE_STATUS (context);
 180e840:	e0bff617 	ldw	r2,-40(fp)
 180e844:	1001703a 	wrctl	status,r2
          ALT_FLAG_PEND (sp->events, 
                         ALT_UART_WRITE_RDY,
                         OS_FLAG_WAIT_SET_ANY + OS_FLAG_CONSUME,
                         0);
        }
        while ((next == sp->tx_start));
 180e848:	e0bffc17 	ldw	r2,-16(fp)
 180e84c:	10c00417 	ldw	r3,16(r2)
 180e850:	e0bff917 	ldw	r2,-28(fp)
 180e854:	18bffc26 	beq	r3,r2,180e848 <altera_avalon_uart_write+0xe0>
      }
    }

    count--;
 180e858:	e0bff817 	ldw	r2,-32(fp)
 180e85c:	10bfffc4 	addi	r2,r2,-1
 180e860:	e0bff815 	stw	r2,-32(fp)

    /* Add the next character to the transmit buffer */

    sp->tx_buf[sp->tx_end] = *ptr++;
 180e864:	e0bffc17 	ldw	r2,-16(fp)
 180e868:	10c00517 	ldw	r3,20(r2)
 180e86c:	e0bffd17 	ldw	r2,-12(fp)
 180e870:	10800003 	ldbu	r2,0(r2)
 180e874:	1009883a 	mov	r4,r2
 180e878:	e0bffc17 	ldw	r2,-16(fp)
 180e87c:	1885883a 	add	r2,r3,r2
 180e880:	10801704 	addi	r2,r2,92
 180e884:	11000005 	stb	r4,0(r2)
 180e888:	e0bffd17 	ldw	r2,-12(fp)
 180e88c:	10800044 	addi	r2,r2,1
 180e890:	e0bffd15 	stw	r2,-12(fp)
    sp->tx_end = next;
 180e894:	e0fffc17 	ldw	r3,-16(fp)
 180e898:	e0bff917 	ldw	r2,-28(fp)
 180e89c:	18800515 	stw	r2,20(r3)
   * Loop transferring data from the input buffer to the transmit circular
   * buffer. The loop is terminated once all the data has been transferred,
   * or, (if in non-blocking mode) the buffer becomes full.
   */

  while (count)
 180e8a0:	e0bff817 	ldw	r2,-32(fp)
 180e8a4:	1004c03a 	cmpne	r2,r2,zero
 180e8a8:	103fbd1e 	bne	r2,zero,180e7a0 <altera_avalon_uart_write+0x38>
static ALT_INLINE alt_irq_context ALT_ALWAYS_INLINE 
       alt_irq_disable_all (void)
{
  alt_irq_context context;

  NIOS2_READ_STATUS (context);
 180e8ac:	0005303a 	rdctl	r2,status
 180e8b0:	e0bff515 	stw	r2,-44(fp)

  NIOS2_WRITE_STATUS (context & ~NIOS2_STATUS_PIE_MSK);
 180e8b4:	e0fff517 	ldw	r3,-44(fp)
 180e8b8:	00bfff84 	movi	r2,-2
 180e8bc:	1884703a 	and	r2,r3,r2
 180e8c0:	1001703a 	wrctl	status,r2
  
  return context;
 180e8c4:	e0bff517 	ldw	r2,-44(fp)
  /* 
   * Ensure that interrupts are enabled, so that the circular buffer can 
   * drain.
   */

  context = alt_irq_disable_all ();
 180e8c8:	e0bffb15 	stw	r2,-20(fp)
  sp->ctrl |= ALTERA_AVALON_UART_CONTROL_TRDY_MSK |
 180e8cc:	e0bffc17 	ldw	r2,-16(fp)
 180e8d0:	10800117 	ldw	r2,4(r2)
 180e8d4:	10c11014 	ori	r3,r2,1088
 180e8d8:	e0bffc17 	ldw	r2,-16(fp)
 180e8dc:	10c00115 	stw	r3,4(r2)
                 ALTERA_AVALON_UART_CONTROL_DCTS_MSK;
  IOWR_ALTERA_AVALON_UART_CONTROL(sp->base, sp->ctrl);
 180e8e0:	e0bffc17 	ldw	r2,-16(fp)
 180e8e4:	10800017 	ldw	r2,0(r2)
 180e8e8:	11000304 	addi	r4,r2,12
 180e8ec:	e0bffc17 	ldw	r2,-16(fp)
 180e8f0:	10800117 	ldw	r2,4(r2)
 180e8f4:	1007883a 	mov	r3,r2
 180e8f8:	2005883a 	mov	r2,r4
 180e8fc:	10c00035 	stwio	r3,0(r2)
 180e900:	e0bffb17 	ldw	r2,-20(fp)
 180e904:	e0bff415 	stw	r2,-48(fp)
  status &= ~NIOS2_STATUS_PIE_MSK;
  status |= (context & NIOS2_STATUS_PIE_MSK);
  
  NIOS2_WRITE_STATUS (status);
#else
  NIOS2_WRITE_STATUS (context);
 180e908:	e0bff417 	ldw	r2,-48(fp)
 180e90c:	1001703a 	wrctl	status,r2
  alt_irq_enable_all (context);

  /* return the number of bytes written */

  return (len - count);
 180e910:	e0fffe17 	ldw	r3,-8(fp)
 180e914:	e0bff817 	ldw	r2,-32(fp)
 180e918:	1885c83a 	sub	r2,r3,r2
}
 180e91c:	e037883a 	mov	sp,fp
 180e920:	dfc00117 	ldw	ra,4(sp)
 180e924:	df000017 	ldw	fp,0(sp)
 180e928:	dec00204 	addi	sp,sp,8
 180e92c:	f800283a 	ret

0180e930 <alt_get_errno>:
#undef errno

extern int errno;

static ALT_INLINE int* alt_get_errno(void)
{
 180e930:	defffd04 	addi	sp,sp,-12
 180e934:	dfc00215 	stw	ra,8(sp)
 180e938:	df000115 	stw	fp,4(sp)
 180e93c:	df000104 	addi	fp,sp,4
  return ((alt_errno) ? alt_errno() : &errno);
 180e940:	00806074 	movhi	r2,385
 180e944:	108ad604 	addi	r2,r2,11096
 180e948:	10800017 	ldw	r2,0(r2)
 180e94c:	1005003a 	cmpeq	r2,r2,zero
 180e950:	1000061e 	bne	r2,zero,180e96c <alt_get_errno+0x3c>
 180e954:	00806074 	movhi	r2,385
 180e958:	108ad604 	addi	r2,r2,11096
 180e95c:	10800017 	ldw	r2,0(r2)
 180e960:	103ee83a 	callr	r2
 180e964:	e0bfff15 	stw	r2,-4(fp)
 180e968:	00000306 	br	180e978 <alt_get_errno+0x48>
 180e96c:	00806074 	movhi	r2,385
 180e970:	108ae504 	addi	r2,r2,11156
 180e974:	e0bfff15 	stw	r2,-4(fp)
 180e978:	e0bfff17 	ldw	r2,-4(fp)
}
 180e97c:	e037883a 	mov	sp,fp
 180e980:	dfc00117 	ldw	ra,4(sp)
 180e984:	df000017 	ldw	fp,0(sp)
 180e988:	dec00204 	addi	sp,sp,8
 180e98c:	f800283a 	ret

0180e990 <alt_alarm_start>:
 */ 

int alt_alarm_start (alt_alarm* alarm, alt_u32 nticks,
                     alt_u32 (*callback) (void* context),
                     void* context)
{
 180e990:	defff404 	addi	sp,sp,-48
 180e994:	df000b15 	stw	fp,44(sp)
 180e998:	df000b04 	addi	fp,sp,44
 180e99c:	e13ffb15 	stw	r4,-20(fp)
 180e9a0:	e17ffc15 	stw	r5,-16(fp)
 180e9a4:	e1bffd15 	stw	r6,-12(fp)
 180e9a8:	e1fffe15 	stw	r7,-8(fp)
  alt_irq_context irq_context;
  alt_u32 current_nticks = 0;
 180e9ac:	e03ff915 	stw	zero,-28(fp)
 * Obtain the system clock rate in ticks/s. 
 */

static ALT_INLINE alt_u32 ALT_ALWAYS_INLINE alt_ticks_per_second (void)
{
  return _alt_tick_rate;
 180e9b0:	00806074 	movhi	r2,385
 180e9b4:	108aea04 	addi	r2,r2,11176
 180e9b8:	10800017 	ldw	r2,0(r2)
  
  if (alt_ticks_per_second ())
 180e9bc:	1005003a 	cmpeq	r2,r2,zero
 180e9c0:	1000411e 	bne	r2,zero,180eac8 <alt_alarm_start+0x138>
  {
    if (alarm)
 180e9c4:	e0bffb17 	ldw	r2,-20(fp)
 180e9c8:	1005003a 	cmpeq	r2,r2,zero
 180e9cc:	10003b1e 	bne	r2,zero,180eabc <alt_alarm_start+0x12c>
    {
      alarm->callback = callback;
 180e9d0:	e0fffb17 	ldw	r3,-20(fp)
 180e9d4:	e0bffd17 	ldw	r2,-12(fp)
 180e9d8:	18800315 	stw	r2,12(r3)
      alarm->context  = context;
 180e9dc:	e0fffb17 	ldw	r3,-20(fp)
 180e9e0:	e0bffe17 	ldw	r2,-8(fp)
 180e9e4:	18800515 	stw	r2,20(r3)
static ALT_INLINE alt_irq_context ALT_ALWAYS_INLINE 
       alt_irq_disable_all (void)
{
  alt_irq_context context;

  NIOS2_READ_STATUS (context);
 180e9e8:	0005303a 	rdctl	r2,status
 180e9ec:	e0bff815 	stw	r2,-32(fp)

  NIOS2_WRITE_STATUS (context & ~NIOS2_STATUS_PIE_MSK);
 180e9f0:	e0fff817 	ldw	r3,-32(fp)
 180e9f4:	00bfff84 	movi	r2,-2
 180e9f8:	1884703a 	and	r2,r3,r2
 180e9fc:	1001703a 	wrctl	status,r2
  
  return context;
 180ea00:	e0bff817 	ldw	r2,-32(fp)
 
      irq_context = alt_irq_disable_all ();
 180ea04:	e0bffa15 	stw	r2,-24(fp)
 * alt_nticks() returns the elapsed number of system clock ticks since reset.
 */

static ALT_INLINE alt_u32 ALT_ALWAYS_INLINE alt_nticks (void)
{
  return _alt_nticks;
 180ea08:	00806074 	movhi	r2,385
 180ea0c:	108aeb04 	addi	r2,r2,11180
 180ea10:	10800017 	ldw	r2,0(r2)
      
      current_nticks = alt_nticks();
 180ea14:	e0bff915 	stw	r2,-28(fp)
      
      alarm->time = nticks + current_nticks + 1; 
 180ea18:	e0fffc17 	ldw	r3,-16(fp)
 180ea1c:	e0bff917 	ldw	r2,-28(fp)
 180ea20:	1885883a 	add	r2,r3,r2
 180ea24:	10c00044 	addi	r3,r2,1
 180ea28:	e0bffb17 	ldw	r2,-20(fp)
 180ea2c:	10c00215 	stw	r3,8(r2)
      /* 
       * If the desired alarm time causes a roll-over, set the rollover
       * flag. This will prevent the subsequent tick event from causing
       * an alarm too early.
       */
      if(alarm->time < current_nticks)
 180ea30:	e0bffb17 	ldw	r2,-20(fp)
 180ea34:	10c00217 	ldw	r3,8(r2)
 180ea38:	e0bff917 	ldw	r2,-28(fp)
 180ea3c:	1880042e 	bgeu	r3,r2,180ea50 <alt_alarm_start+0xc0>
      {
        alarm->rollover = 1;
 180ea40:	e0fffb17 	ldw	r3,-20(fp)
 180ea44:	00800044 	movi	r2,1
 180ea48:	18800405 	stb	r2,16(r3)
 180ea4c:	00000206 	br	180ea58 <alt_alarm_start+0xc8>
      }
      else
      {
        alarm->rollover = 0;
 180ea50:	e0bffb17 	ldw	r2,-20(fp)
 180ea54:	10000405 	stb	zero,16(r2)
      }
    
      alt_llist_insert (&alt_alarm_list, &alarm->llist);
 180ea58:	e0fffb17 	ldw	r3,-20(fp)
 180ea5c:	00806074 	movhi	r2,385
 180ea60:	108adc04 	addi	r2,r2,11120
 180ea64:	e0bff615 	stw	r2,-40(fp)
 180ea68:	e0fff715 	stw	r3,-36(fp)
 */

static ALT_INLINE void ALT_ALWAYS_INLINE alt_llist_insert(alt_llist* list, 
                alt_llist* entry)
{
  entry->previous = list;
 180ea6c:	e0fff717 	ldw	r3,-36(fp)
 180ea70:	e0bff617 	ldw	r2,-40(fp)
 180ea74:	18800115 	stw	r2,4(r3)
  entry->next     = list->next;
 180ea78:	e0bff617 	ldw	r2,-40(fp)
 180ea7c:	10c00017 	ldw	r3,0(r2)
 180ea80:	e0bff717 	ldw	r2,-36(fp)
 180ea84:	10c00015 	stw	r3,0(r2)

  list->next->previous = entry;
 180ea88:	e0bff617 	ldw	r2,-40(fp)
 180ea8c:	10c00017 	ldw	r3,0(r2)
 180ea90:	e0bff717 	ldw	r2,-36(fp)
 180ea94:	18800115 	stw	r2,4(r3)
  list->next           = entry;
 180ea98:	e0fff617 	ldw	r3,-40(fp)
 180ea9c:	e0bff717 	ldw	r2,-36(fp)
 180eaa0:	18800015 	stw	r2,0(r3)
 180eaa4:	e0bffa17 	ldw	r2,-24(fp)
 180eaa8:	e0bff515 	stw	r2,-44(fp)
  status &= ~NIOS2_STATUS_PIE_MSK;
  status |= (context & NIOS2_STATUS_PIE_MSK);
  
  NIOS2_WRITE_STATUS (status);
#else
  NIOS2_WRITE_STATUS (context);
 180eaac:	e0bff517 	ldw	r2,-44(fp)
 180eab0:	1001703a 	wrctl	status,r2
      alt_irq_enable_all (irq_context);

      return 0;
 180eab4:	e03fff15 	stw	zero,-4(fp)
 180eab8:	00000506 	br	180ead0 <alt_alarm_start+0x140>
    }
    else
    {
      return -EINVAL;
 180eabc:	00bffa84 	movi	r2,-22
 180eac0:	e0bfff15 	stw	r2,-4(fp)
 180eac4:	00000206 	br	180ead0 <alt_alarm_start+0x140>
    }
  }
  else
  {
    return -ENOTSUP;
 180eac8:	00bfde84 	movi	r2,-134
 180eacc:	e0bfff15 	stw	r2,-4(fp)
 180ead0:	e0bfff17 	ldw	r2,-4(fp)
  }
}
 180ead4:	e037883a 	mov	sp,fp
 180ead8:	df000017 	ldw	fp,0(sp)
 180eadc:	dec00104 	addi	sp,sp,4
 180eae0:	f800283a 	ret

0180eae4 <alt_busy_sleep>:
#include "alt_types.h"

#include "priv/alt_busy_sleep.h"

unsigned int alt_busy_sleep (unsigned int us)
{
 180eae4:	defffb04 	addi	sp,sp,-20
 180eae8:	df000415 	stw	fp,16(sp)
 180eaec:	df000404 	addi	fp,sp,16
 180eaf0:	e13fff15 	stw	r4,-4(fp)
  {
    cycles_per_loop = 9;
  }
  else  
  {
    cycles_per_loop = 3;
 180eaf4:	008000c4 	movi	r2,3
 180eaf8:	e0bffc15 	stw	r2,-16(fp)
  }
  

  big_loops = us / (INT_MAX/
 180eafc:	e0fffc17 	ldw	r3,-16(fp)
 180eb00:	008003f4 	movhi	r2,15
 180eb04:	10909004 	addi	r2,r2,16960
 180eb08:	1887383a 	mul	r3,r3,r2
 180eb0c:	0080bef4 	movhi	r2,763
 180eb10:	10bc2004 	addi	r2,r2,-3968
 180eb14:	10c7203a 	divu	r3,r2,r3
 180eb18:	00a00034 	movhi	r2,32768
 180eb1c:	10bfffc4 	addi	r2,r2,-1
 180eb20:	10c7203a 	divu	r3,r2,r3
 180eb24:	e0bfff17 	ldw	r2,-4(fp)
 180eb28:	10c5203a 	divu	r2,r2,r3
 180eb2c:	e0bffd15 	stw	r2,-12(fp)
  (ALT_CPU_FREQ/(cycles_per_loop * 1000000)));

  if (big_loops)
 180eb30:	e0bffd17 	ldw	r2,-12(fp)
 180eb34:	1005003a 	cmpeq	r2,r2,zero
 180eb38:	1000251e 	bne	r2,zero,180ebd0 <alt_busy_sleep+0xec>
  {
    for(i=0;i<big_loops;i++)
 180eb3c:	e03ffe15 	stw	zero,-8(fp)
 180eb40:	00001406 	br	180eb94 <alt_busy_sleep+0xb0>
      /*
      * Do NOT Try to single step the asm statement below 
      * (single step will never return)
      * Step out of this function or set a breakpoint after the asm statements
      */
      __asm__ volatile (
 180eb44:	00a00034 	movhi	r2,32768
 180eb48:	10bfffc4 	addi	r2,r2,-1
 180eb4c:	10bfffc4 	addi	r2,r2,-1
 180eb50:	103ffe1e 	bne	r2,zero,180eb4c <alt_busy_sleep+0x68>
        "\n1:"
        "\n\t.pushsection .debug_alt_sim_info"
        "\n\t.int 4, 0, 0b, 1b"
        "\n\t.popsection"
        :: "r" (INT_MAX));
      us -= (INT_MAX/(ALT_CPU_FREQ/
 180eb54:	e0fffc17 	ldw	r3,-16(fp)
 180eb58:	008003f4 	movhi	r2,15
 180eb5c:	10909004 	addi	r2,r2,16960
 180eb60:	1887383a 	mul	r3,r3,r2
 180eb64:	0080bef4 	movhi	r2,763
 180eb68:	10bc2004 	addi	r2,r2,-3968
 180eb6c:	10c7203a 	divu	r3,r2,r3
 180eb70:	00a00034 	movhi	r2,32768
 180eb74:	10bfffc4 	addi	r2,r2,-1
 180eb78:	10c7203a 	divu	r3,r2,r3
 180eb7c:	e0bfff17 	ldw	r2,-4(fp)
 180eb80:	10c5c83a 	sub	r2,r2,r3
 180eb84:	e0bfff15 	stw	r2,-4(fp)
  big_loops = us / (INT_MAX/
  (ALT_CPU_FREQ/(cycles_per_loop * 1000000)));

  if (big_loops)
  {
    for(i=0;i<big_loops;i++)
 180eb88:	e0bffe17 	ldw	r2,-8(fp)
 180eb8c:	10800044 	addi	r2,r2,1
 180eb90:	e0bffe15 	stw	r2,-8(fp)
 180eb94:	e0fffe17 	ldw	r3,-8(fp)
 180eb98:	e0bffd17 	ldw	r2,-12(fp)
 180eb9c:	18bfe916 	blt	r3,r2,180eb44 <alt_busy_sleep+0x60>
    /*
    * Do NOT Try to single step the asm statement below 
    * (single step will never return)
    * Step out of this function or set a breakpoint after the asm statements
    */
    __asm__ volatile (
 180eba0:	e0fffc17 	ldw	r3,-16(fp)
 180eba4:	008003f4 	movhi	r2,15
 180eba8:	10909004 	addi	r2,r2,16960
 180ebac:	1887383a 	mul	r3,r3,r2
 180ebb0:	0080bef4 	movhi	r2,763
 180ebb4:	10bc2004 	addi	r2,r2,-3968
 180ebb8:	10c7203a 	divu	r3,r2,r3
 180ebbc:	e0bfff17 	ldw	r2,-4(fp)
 180ebc0:	1885383a 	mul	r2,r3,r2
 180ebc4:	10bfffc4 	addi	r2,r2,-1
 180ebc8:	103ffe1e 	bne	r2,zero,180ebc4 <alt_busy_sleep+0xe0>
 180ebcc:	00000b06 	br	180ebfc <alt_busy_sleep+0x118>
    /*
    * Do NOT Try to single step the asm statement below 
    * (single step will never return)
    * Step out of this function or set a breakpoint after the asm statements
    */
    __asm__ volatile (
 180ebd0:	e0fffc17 	ldw	r3,-16(fp)
 180ebd4:	008003f4 	movhi	r2,15
 180ebd8:	10909004 	addi	r2,r2,16960
 180ebdc:	1887383a 	mul	r3,r3,r2
 180ebe0:	0080bef4 	movhi	r2,763
 180ebe4:	10bc2004 	addi	r2,r2,-3968
 180ebe8:	10c7203a 	divu	r3,r2,r3
 180ebec:	e0bfff17 	ldw	r2,-4(fp)
 180ebf0:	1885383a 	mul	r2,r3,r2
 180ebf4:	10bfffc4 	addi	r2,r2,-1
 180ebf8:	00bffe16 	blt	zero,r2,180ebf4 <alt_busy_sleep+0x110>
      "\n\t.int 4, 0, 0b, 1b"
      "\n\t.popsection"
      :: "r" (us*(ALT_CPU_FREQ/(cycles_per_loop * 1000000))));
  }
#endif /* #ifndef ALT_SIM_OPTIMIZE */
  return 0;
 180ebfc:	0005883a 	mov	r2,zero
}
 180ec00:	e037883a 	mov	sp,fp
 180ec04:	df000017 	ldw	fp,0(sp)
 180ec08:	dec00104 	addi	sp,sp,4
 180ec0c:	f800283a 	ret

0180ec10 <alt_dcache_flush>:
 *
 * Any dirty lines in the data cache are written back to memory.
 */

void alt_dcache_flush (void* start, alt_u32 len)
{
 180ec10:	defffb04 	addi	sp,sp,-20
 180ec14:	df000415 	stw	fp,16(sp)
 180ec18:	df000404 	addi	fp,sp,16
 180ec1c:	e13ffe15 	stw	r4,-8(fp)
 180ec20:	e17fff15 	stw	r5,-4(fp)
  {
    len = NIOS2_DCACHE_SIZE;
  }
  #endif

  end = ((char*) start) + len; 
 180ec24:	e0fffe17 	ldw	r3,-8(fp)
 180ec28:	e0bfff17 	ldw	r2,-4(fp)
 180ec2c:	1885883a 	add	r2,r3,r2
 180ec30:	e0bffc15 	stw	r2,-16(fp)

  for (i = start; i < end; i+= NIOS2_DCACHE_LINE_SIZE)
 180ec34:	e0bffe17 	ldw	r2,-8(fp)
 180ec38:	e0bffd15 	stw	r2,-12(fp)
 180ec3c:	00000506 	br	180ec54 <alt_dcache_flush+0x44>
  { 
    ALT_FLUSH_DATA(i); 
 180ec40:	e0bffd17 	ldw	r2,-12(fp)
 180ec44:	1000001b 	flushda	0(r2)
  }
  #endif

  end = ((char*) start) + len; 

  for (i = start; i < end; i+= NIOS2_DCACHE_LINE_SIZE)
 180ec48:	e0bffd17 	ldw	r2,-12(fp)
 180ec4c:	10800804 	addi	r2,r2,32
 180ec50:	e0bffd15 	stw	r2,-12(fp)
 180ec54:	e0fffd17 	ldw	r3,-12(fp)
 180ec58:	e0bffc17 	ldw	r2,-16(fp)
 180ec5c:	18bff836 	bltu	r3,r2,180ec40 <alt_dcache_flush+0x30>
   * For an unaligned flush request, we've got one more line left.
   * Note that this is dependent on NIOS2_DCACHE_LINE_SIZE to be a 
   * multiple of 2 (which it always is).
   */

  if (((alt_u32) start) & (NIOS2_DCACHE_LINE_SIZE - 1))
 180ec60:	e0bffe17 	ldw	r2,-8(fp)
 180ec64:	108007cc 	andi	r2,r2,31
 180ec68:	1005003a 	cmpeq	r2,r2,zero
 180ec6c:	1000021e 	bne	r2,zero,180ec78 <alt_dcache_flush+0x68>
  {
    ALT_FLUSH_DATA(i);
 180ec70:	e0bffd17 	ldw	r2,-12(fp)
 180ec74:	1000001b 	flushda	0(r2)
  }

#endif /* NIOS2_DCACHE_SIZE > 0 */
}
 180ec78:	e037883a 	mov	sp,fp
 180ec7c:	df000017 	ldw	fp,0(sp)
 180ec80:	dec00104 	addi	sp,sp,4
 180ec84:	f800283a 	ret

0180ec88 <alt_dev_llist_insert>:
/*
 *
 */

int alt_dev_llist_insert (alt_dev_llist* dev, alt_llist* list)
{
 180ec88:	defff904 	addi	sp,sp,-28
 180ec8c:	dfc00615 	stw	ra,24(sp)
 180ec90:	df000515 	stw	fp,20(sp)
 180ec94:	df000504 	addi	fp,sp,20
 180ec98:	e13ffd15 	stw	r4,-12(fp)
 180ec9c:	e17ffe15 	stw	r5,-8(fp)
  /*
   * check that the device exists, and that it has a valid name.
   */

  if (!dev || !dev->name)
 180eca0:	e0bffd17 	ldw	r2,-12(fp)
 180eca4:	1005003a 	cmpeq	r2,r2,zero
 180eca8:	1000041e 	bne	r2,zero,180ecbc <alt_dev_llist_insert+0x34>
 180ecac:	e0bffd17 	ldw	r2,-12(fp)
 180ecb0:	10800217 	ldw	r2,8(r2)
 180ecb4:	1004c03a 	cmpne	r2,r2,zero
 180ecb8:	1000071e 	bne	r2,zero,180ecd8 <alt_dev_llist_insert+0x50>
  {
    ALT_ERRNO = EINVAL;
 180ecbc:	180ed3c0 	call	180ed3c <alt_get_errno>
 180ecc0:	1007883a 	mov	r3,r2
 180ecc4:	00800584 	movi	r2,22
 180ecc8:	18800015 	stw	r2,0(r3)
    return -EINVAL;
 180eccc:	00bffa84 	movi	r2,-22
 180ecd0:	e0bfff15 	stw	r2,-4(fp)
 180ecd4:	00001306 	br	180ed24 <alt_dev_llist_insert+0x9c>
  
  /*
   * register the device.
   */
  
  alt_llist_insert(list, &dev->llist);
 180ecd8:	e0fffd17 	ldw	r3,-12(fp)
 180ecdc:	e0bffe17 	ldw	r2,-8(fp)
 180ece0:	e0bffb15 	stw	r2,-20(fp)
 180ece4:	e0fffc15 	stw	r3,-16(fp)
 */

static ALT_INLINE void ALT_ALWAYS_INLINE alt_llist_insert(alt_llist* list, 
                alt_llist* entry)
{
  entry->previous = list;
 180ece8:	e0fffc17 	ldw	r3,-16(fp)
 180ecec:	e0bffb17 	ldw	r2,-20(fp)
 180ecf0:	18800115 	stw	r2,4(r3)
  entry->next     = list->next;
 180ecf4:	e0bffb17 	ldw	r2,-20(fp)
 180ecf8:	10c00017 	ldw	r3,0(r2)
 180ecfc:	e0bffc17 	ldw	r2,-16(fp)
 180ed00:	10c00015 	stw	r3,0(r2)

  list->next->previous = entry;
 180ed04:	e0bffb17 	ldw	r2,-20(fp)
 180ed08:	10c00017 	ldw	r3,0(r2)
 180ed0c:	e0bffc17 	ldw	r2,-16(fp)
 180ed10:	18800115 	stw	r2,4(r3)
  list->next           = entry;
 180ed14:	e0fffb17 	ldw	r3,-20(fp)
 180ed18:	e0bffc17 	ldw	r2,-16(fp)
 180ed1c:	18800015 	stw	r2,0(r3)

  return 0;  
 180ed20:	e03fff15 	stw	zero,-4(fp)
 180ed24:	e0bfff17 	ldw	r2,-4(fp)
}
 180ed28:	e037883a 	mov	sp,fp
 180ed2c:	dfc00117 	ldw	ra,4(sp)
 180ed30:	df000017 	ldw	fp,0(sp)
 180ed34:	dec00204 	addi	sp,sp,8
 180ed38:	f800283a 	ret

0180ed3c <alt_get_errno>:
#undef errno

extern int errno;

static ALT_INLINE int* alt_get_errno(void)
{
 180ed3c:	defffd04 	addi	sp,sp,-12
 180ed40:	dfc00215 	stw	ra,8(sp)
 180ed44:	df000115 	stw	fp,4(sp)
 180ed48:	df000104 	addi	fp,sp,4
  return ((alt_errno) ? alt_errno() : &errno);
 180ed4c:	00806074 	movhi	r2,385
 180ed50:	108ad604 	addi	r2,r2,11096
 180ed54:	10800017 	ldw	r2,0(r2)
 180ed58:	1005003a 	cmpeq	r2,r2,zero
 180ed5c:	1000061e 	bne	r2,zero,180ed78 <alt_get_errno+0x3c>
 180ed60:	00806074 	movhi	r2,385
 180ed64:	108ad604 	addi	r2,r2,11096
 180ed68:	10800017 	ldw	r2,0(r2)
 180ed6c:	103ee83a 	callr	r2
 180ed70:	e0bfff15 	stw	r2,-4(fp)
 180ed74:	00000306 	br	180ed84 <alt_get_errno+0x48>
 180ed78:	00806074 	movhi	r2,385
 180ed7c:	108ae504 	addi	r2,r2,11156
 180ed80:	e0bfff15 	stw	r2,-4(fp)
 180ed84:	e0bfff17 	ldw	r2,-4(fp)
}
 180ed88:	e037883a 	mov	sp,fp
 180ed8c:	dfc00117 	ldw	ra,4(sp)
 180ed90:	df000017 	ldw	fp,0(sp)
 180ed94:	dec00204 	addi	sp,sp,8
 180ed98:	f800283a 	ret

0180ed9c <_do_ctors>:
/*
 * Run the C++ static constructors.
 */

void _do_ctors(void)
{
 180ed9c:	defffd04 	addi	sp,sp,-12
 180eda0:	dfc00215 	stw	ra,8(sp)
 180eda4:	df000115 	stw	fp,4(sp)
 180eda8:	df000104 	addi	fp,sp,4
  constructor* ctor;

  for (ctor = &__CTOR_END__[-1]; ctor >= __CTOR_LIST__; ctor--)
 180edac:	00bfff04 	movi	r2,-4
 180edb0:	00c06074 	movhi	r3,385
 180edb4:	18c21104 	addi	r3,r3,2116
 180edb8:	1885883a 	add	r2,r3,r2
 180edbc:	e0bfff15 	stw	r2,-4(fp)
 180edc0:	00000606 	br	180eddc <_do_ctors+0x40>
        (*ctor) (); 
 180edc4:	e0bfff17 	ldw	r2,-4(fp)
 180edc8:	10800017 	ldw	r2,0(r2)
 180edcc:	103ee83a 	callr	r2

void _do_ctors(void)
{
  constructor* ctor;

  for (ctor = &__CTOR_END__[-1]; ctor >= __CTOR_LIST__; ctor--)
 180edd0:	e0bfff17 	ldw	r2,-4(fp)
 180edd4:	10bfff04 	addi	r2,r2,-4
 180edd8:	e0bfff15 	stw	r2,-4(fp)
 180eddc:	e0ffff17 	ldw	r3,-4(fp)
 180ede0:	00806074 	movhi	r2,385
 180ede4:	10821004 	addi	r2,r2,2112
 180ede8:	18bff62e 	bgeu	r3,r2,180edc4 <_do_ctors+0x28>
        (*ctor) (); 
}
 180edec:	e037883a 	mov	sp,fp
 180edf0:	dfc00117 	ldw	ra,4(sp)
 180edf4:	df000017 	ldw	fp,0(sp)
 180edf8:	dec00204 	addi	sp,sp,8
 180edfc:	f800283a 	ret

0180ee00 <_do_dtors>:
/*
 * Run the C++ static destructors.
 */

void _do_dtors(void)
{
 180ee00:	defffd04 	addi	sp,sp,-12
 180ee04:	dfc00215 	stw	ra,8(sp)
 180ee08:	df000115 	stw	fp,4(sp)
 180ee0c:	df000104 	addi	fp,sp,4
  destructor* dtor;

  for (dtor = &__DTOR_END__[-1]; dtor >= __DTOR_LIST__; dtor--)
 180ee10:	00bfff04 	movi	r2,-4
 180ee14:	00c06074 	movhi	r3,385
 180ee18:	18c21104 	addi	r3,r3,2116
 180ee1c:	1885883a 	add	r2,r3,r2
 180ee20:	e0bfff15 	stw	r2,-4(fp)
 180ee24:	00000606 	br	180ee40 <_do_dtors+0x40>
        (*dtor) (); 
 180ee28:	e0bfff17 	ldw	r2,-4(fp)
 180ee2c:	10800017 	ldw	r2,0(r2)
 180ee30:	103ee83a 	callr	r2

void _do_dtors(void)
{
  destructor* dtor;

  for (dtor = &__DTOR_END__[-1]; dtor >= __DTOR_LIST__; dtor--)
 180ee34:	e0bfff17 	ldw	r2,-4(fp)
 180ee38:	10bfff04 	addi	r2,r2,-4
 180ee3c:	e0bfff15 	stw	r2,-4(fp)
 180ee40:	e0ffff17 	ldw	r3,-4(fp)
 180ee44:	00806074 	movhi	r2,385
 180ee48:	10821104 	addi	r2,r2,2116
 180ee4c:	18bff62e 	bgeu	r3,r2,180ee28 <_do_dtors+0x28>
        (*dtor) (); 
}
 180ee50:	e037883a 	mov	sp,fp
 180ee54:	dfc00117 	ldw	ra,4(sp)
 180ee58:	df000017 	ldw	fp,0(sp)
 180ee5c:	dec00204 	addi	sp,sp,8
 180ee60:	f800283a 	ret

0180ee64 <alt_flash_open_dev>:
#include "priv/alt_file.h"

ALT_LLIST_HEAD(alt_flash_dev_list);

alt_flash_fd* alt_flash_open_dev(const char* name)
{
 180ee64:	defffb04 	addi	sp,sp,-20
 180ee68:	dfc00415 	stw	ra,16(sp)
 180ee6c:	df000315 	stw	fp,12(sp)
 180ee70:	df000304 	addi	fp,sp,12
 180ee74:	e13ffe15 	stw	r4,-8(fp)
  alt_flash_dev* dev = (alt_flash_dev*)alt_find_dev(name, &alt_flash_dev_list);
 180ee78:	e13ffe17 	ldw	r4,-8(fp)
 180ee7c:	d1600e04 	addi	r5,gp,-32712
 180ee80:	18100840 	call	1810084 <alt_find_dev>
 180ee84:	e0bffd15 	stw	r2,-12(fp)

  if ((dev) && dev->open)
 180ee88:	e0bffd17 	ldw	r2,-12(fp)
 180ee8c:	1005003a 	cmpeq	r2,r2,zero
 180ee90:	10000b1e 	bne	r2,zero,180eec0 <alt_flash_open_dev+0x5c>
 180ee94:	e0bffd17 	ldw	r2,-12(fp)
 180ee98:	10800317 	ldw	r2,12(r2)
 180ee9c:	1005003a 	cmpeq	r2,r2,zero
 180eea0:	1000071e 	bne	r2,zero,180eec0 <alt_flash_open_dev+0x5c>
  {
    return dev->open(dev, name);
 180eea4:	e0bffd17 	ldw	r2,-12(fp)
 180eea8:	10800317 	ldw	r2,12(r2)
 180eeac:	e13ffd17 	ldw	r4,-12(fp)
 180eeb0:	e17ffe17 	ldw	r5,-8(fp)
 180eeb4:	103ee83a 	callr	r2
 180eeb8:	e0bfff15 	stw	r2,-4(fp)
 180eebc:	00000206 	br	180eec8 <alt_flash_open_dev+0x64>
  }

  return dev;
 180eec0:	e0bffd17 	ldw	r2,-12(fp)
 180eec4:	e0bfff15 	stw	r2,-4(fp)
 180eec8:	e0bfff17 	ldw	r2,-4(fp)
}
 180eecc:	e037883a 	mov	sp,fp
 180eed0:	dfc00117 	ldw	ra,4(sp)
 180eed4:	df000017 	ldw	fp,0(sp)
 180eed8:	dec00204 	addi	sp,sp,8
 180eedc:	f800283a 	ret

0180eee0 <alt_flash_close_dev>:

void alt_flash_close_dev(alt_flash_fd* fd)
{
 180eee0:	defffd04 	addi	sp,sp,-12
 180eee4:	dfc00215 	stw	ra,8(sp)
 180eee8:	df000115 	stw	fp,4(sp)
 180eeec:	df000104 	addi	fp,sp,4
 180eef0:	e13fff15 	stw	r4,-4(fp)
  if (fd && fd->close)
 180eef4:	e0bfff17 	ldw	r2,-4(fp)
 180eef8:	1005003a 	cmpeq	r2,r2,zero
 180eefc:	1000081e 	bne	r2,zero,180ef20 <alt_flash_close_dev+0x40>
 180ef00:	e0bfff17 	ldw	r2,-4(fp)
 180ef04:	10800417 	ldw	r2,16(r2)
 180ef08:	1005003a 	cmpeq	r2,r2,zero
 180ef0c:	1000041e 	bne	r2,zero,180ef20 <alt_flash_close_dev+0x40>
  {
    fd->close(fd);
 180ef10:	e0bfff17 	ldw	r2,-4(fp)
 180ef14:	10800417 	ldw	r2,16(r2)
 180ef18:	e13fff17 	ldw	r4,-4(fp)
 180ef1c:	103ee83a 	callr	r2
  }
  return;
}
 180ef20:	e037883a 	mov	sp,fp
 180ef24:	dfc00117 	ldw	ra,4(sp)
 180ef28:	df000017 	ldw	fp,0(sp)
 180ef2c:	dec00204 	addi	sp,sp,8
 180ef30:	f800283a 	ret

0180ef34 <alt_ic_isr_register>:
  * @param irq              IRQ number
  * @return                 0 if successful, else error (-1)
  */
int alt_ic_isr_register(alt_u32 ic_id, alt_u32 irq, alt_isr_func isr, 
  void *isr_context, void *flags)
{
 180ef34:	defff904 	addi	sp,sp,-28
 180ef38:	dfc00615 	stw	ra,24(sp)
 180ef3c:	df000515 	stw	fp,20(sp)
 180ef40:	df000504 	addi	fp,sp,20
 180ef44:	e13ffc15 	stw	r4,-16(fp)
 180ef48:	e17ffd15 	stw	r5,-12(fp)
 180ef4c:	e1bffe15 	stw	r6,-8(fp)
 180ef50:	e1ffff15 	stw	r7,-4(fp)
    return alt_iic_isr_register(ic_id, irq, isr, isr_context, flags);
 180ef54:	e0800217 	ldw	r2,8(fp)
 180ef58:	d8800015 	stw	r2,0(sp)
 180ef5c:	e13ffc17 	ldw	r4,-16(fp)
 180ef60:	e17ffd17 	ldw	r5,-12(fp)
 180ef64:	e1bffe17 	ldw	r6,-8(fp)
 180ef68:	e1ffff17 	ldw	r7,-4(fp)
 180ef6c:	180f1080 	call	180f108 <alt_iic_isr_register>
}  
 180ef70:	e037883a 	mov	sp,fp
 180ef74:	dfc00117 	ldw	ra,4(sp)
 180ef78:	df000017 	ldw	fp,0(sp)
 180ef7c:	dec00204 	addi	sp,sp,8
 180ef80:	f800283a 	ret

0180ef84 <alt_ic_irq_enable>:
  * @param ic_id            Ignored.
  * @param irq              IRQ number
  * @return                 0 if successful, else error (-1)
  */
int alt_ic_irq_enable (alt_u32 ic_id, alt_u32 irq)
{
 180ef84:	defff904 	addi	sp,sp,-28
 180ef88:	df000615 	stw	fp,24(sp)
 180ef8c:	df000604 	addi	fp,sp,24
 180ef90:	e13ffe15 	stw	r4,-8(fp)
 180ef94:	e17fff15 	stw	r5,-4(fp)
 180ef98:	e0bfff17 	ldw	r2,-4(fp)
 180ef9c:	e0bffc15 	stw	r2,-16(fp)
static ALT_INLINE alt_irq_context ALT_ALWAYS_INLINE 
       alt_irq_disable_all (void)
{
  alt_irq_context context;

  NIOS2_READ_STATUS (context);
 180efa0:	0005303a 	rdctl	r2,status
 180efa4:	e0bffb15 	stw	r2,-20(fp)

  NIOS2_WRITE_STATUS (context & ~NIOS2_STATUS_PIE_MSK);
 180efa8:	e0fffb17 	ldw	r3,-20(fp)
 180efac:	00bfff84 	movi	r2,-2
 180efb0:	1884703a 	and	r2,r3,r2
 180efb4:	1001703a 	wrctl	status,r2
  
  return context;
 180efb8:	e0bffb17 	ldw	r2,-20(fp)
static ALT_INLINE int ALT_ALWAYS_INLINE alt_irq_enable (alt_u32 id)
{
  alt_irq_context  status;
  extern volatile alt_u32 alt_irq_active;

  status = alt_irq_disable_all ();
 180efbc:	e0bffd15 	stw	r2,-12(fp)

  alt_irq_active |= (1 << id);
 180efc0:	e0fffc17 	ldw	r3,-16(fp)
 180efc4:	00800044 	movi	r2,1
 180efc8:	10c4983a 	sll	r2,r2,r3
 180efcc:	1007883a 	mov	r3,r2
 180efd0:	00806074 	movhi	r2,385
 180efd4:	108ae904 	addi	r2,r2,11172
 180efd8:	10800017 	ldw	r2,0(r2)
 180efdc:	1886b03a 	or	r3,r3,r2
 180efe0:	00806074 	movhi	r2,385
 180efe4:	108ae904 	addi	r2,r2,11172
 180efe8:	10c00015 	stw	r3,0(r2)
  NIOS2_WRITE_IENABLE (alt_irq_active);
 180efec:	00806074 	movhi	r2,385
 180eff0:	108ae904 	addi	r2,r2,11172
 180eff4:	10800017 	ldw	r2,0(r2)
 180eff8:	100170fa 	wrctl	ienable,r2
 180effc:	e0bffd17 	ldw	r2,-12(fp)
 180f000:	e0bffa15 	stw	r2,-24(fp)
  status &= ~NIOS2_STATUS_PIE_MSK;
  status |= (context & NIOS2_STATUS_PIE_MSK);
  
  NIOS2_WRITE_STATUS (status);
#else
  NIOS2_WRITE_STATUS (context);
 180f004:	e0bffa17 	ldw	r2,-24(fp)
 180f008:	1001703a 	wrctl	status,r2

  alt_irq_enable_all(status);

  return 0;
 180f00c:	0005883a 	mov	r2,zero
    return alt_irq_enable(irq);
}
 180f010:	e037883a 	mov	sp,fp
 180f014:	df000017 	ldw	fp,0(sp)
 180f018:	dec00104 	addi	sp,sp,4
 180f01c:	f800283a 	ret

0180f020 <alt_ic_irq_disable>:
  * @param ic_id            Ignored.
  * @param irq              IRQ number
  * @return                 0 if successful, else error (-1)
  */
int alt_ic_irq_disable(alt_u32 ic_id, alt_u32 irq)
{
 180f020:	defff904 	addi	sp,sp,-28
 180f024:	df000615 	stw	fp,24(sp)
 180f028:	df000604 	addi	fp,sp,24
 180f02c:	e13ffe15 	stw	r4,-8(fp)
 180f030:	e17fff15 	stw	r5,-4(fp)
 180f034:	e0bfff17 	ldw	r2,-4(fp)
 180f038:	e0bffc15 	stw	r2,-16(fp)
static ALT_INLINE alt_irq_context ALT_ALWAYS_INLINE 
       alt_irq_disable_all (void)
{
  alt_irq_context context;

  NIOS2_READ_STATUS (context);
 180f03c:	0005303a 	rdctl	r2,status
 180f040:	e0bffb15 	stw	r2,-20(fp)

  NIOS2_WRITE_STATUS (context & ~NIOS2_STATUS_PIE_MSK);
 180f044:	e0fffb17 	ldw	r3,-20(fp)
 180f048:	00bfff84 	movi	r2,-2
 180f04c:	1884703a 	and	r2,r3,r2
 180f050:	1001703a 	wrctl	status,r2
  
  return context;
 180f054:	e0bffb17 	ldw	r2,-20(fp)
static ALT_INLINE int ALT_ALWAYS_INLINE alt_irq_disable (alt_u32 id)
{
  alt_irq_context  status;
  extern volatile alt_u32 alt_irq_active;

  status = alt_irq_disable_all ();
 180f058:	e0bffd15 	stw	r2,-12(fp)

  alt_irq_active &= ~(1 << id);
 180f05c:	e0fffc17 	ldw	r3,-16(fp)
 180f060:	00800044 	movi	r2,1
 180f064:	10c4983a 	sll	r2,r2,r3
 180f068:	0084303a 	nor	r2,zero,r2
 180f06c:	1007883a 	mov	r3,r2
 180f070:	00806074 	movhi	r2,385
 180f074:	108ae904 	addi	r2,r2,11172
 180f078:	10800017 	ldw	r2,0(r2)
 180f07c:	1886703a 	and	r3,r3,r2
 180f080:	00806074 	movhi	r2,385
 180f084:	108ae904 	addi	r2,r2,11172
 180f088:	10c00015 	stw	r3,0(r2)
  NIOS2_WRITE_IENABLE (alt_irq_active);
 180f08c:	00806074 	movhi	r2,385
 180f090:	108ae904 	addi	r2,r2,11172
 180f094:	10800017 	ldw	r2,0(r2)
 180f098:	100170fa 	wrctl	ienable,r2
 180f09c:	e0bffd17 	ldw	r2,-12(fp)
 180f0a0:	e0bffa15 	stw	r2,-24(fp)
  status &= ~NIOS2_STATUS_PIE_MSK;
  status |= (context & NIOS2_STATUS_PIE_MSK);
  
  NIOS2_WRITE_STATUS (status);
#else
  NIOS2_WRITE_STATUS (context);
 180f0a4:	e0bffa17 	ldw	r2,-24(fp)
 180f0a8:	1001703a 	wrctl	status,r2

  alt_irq_enable_all(status);

  return 0;
 180f0ac:	0005883a 	mov	r2,zero
    return alt_irq_disable(irq);
}
 180f0b0:	e037883a 	mov	sp,fp
 180f0b4:	df000017 	ldw	fp,0(sp)
 180f0b8:	dec00104 	addi	sp,sp,4
 180f0bc:	f800283a 	ret

0180f0c0 <alt_ic_irq_enabled>:
  * @param irq              IRQ number
  * @return                 Zero if corresponding interrupt is disabled and
  *                         non-zero otherwise.
  */
alt_u32 alt_ic_irq_enabled(alt_u32 ic_id, alt_u32 irq)
{
 180f0c0:	defffc04 	addi	sp,sp,-16
 180f0c4:	df000315 	stw	fp,12(sp)
 180f0c8:	df000304 	addi	fp,sp,12
 180f0cc:	e13ffe15 	stw	r4,-8(fp)
 180f0d0:	e17fff15 	stw	r5,-4(fp)
    alt_u32 irq_enabled;

    NIOS2_READ_IENABLE(irq_enabled);
 180f0d4:	000530fa 	rdctl	r2,ienable
 180f0d8:	e0bffd15 	stw	r2,-12(fp)

    return (irq_enabled & (1 << irq)) ? 1: 0;
 180f0dc:	e0ffff17 	ldw	r3,-4(fp)
 180f0e0:	00800044 	movi	r2,1
 180f0e4:	10c4983a 	sll	r2,r2,r3
 180f0e8:	1007883a 	mov	r3,r2
 180f0ec:	e0bffd17 	ldw	r2,-12(fp)
 180f0f0:	1884703a 	and	r2,r3,r2
 180f0f4:	1004c03a 	cmpne	r2,r2,zero
}
 180f0f8:	e037883a 	mov	sp,fp
 180f0fc:	df000017 	ldw	fp,0(sp)
 180f100:	dec00104 	addi	sp,sp,4
 180f104:	f800283a 	ret

0180f108 <alt_iic_isr_register>:
  * @param flags            
  * @return                 0 if successful, else error (-1)
  */
int alt_iic_isr_register(alt_u32 ic_id, alt_u32 irq, alt_isr_func isr, 
  void *isr_context, void *flags)
{
 180f108:	defff404 	addi	sp,sp,-48
 180f10c:	dfc00b15 	stw	ra,44(sp)
 180f110:	df000a15 	stw	fp,40(sp)
 180f114:	df000a04 	addi	fp,sp,40
 180f118:	e13ffb15 	stw	r4,-20(fp)
 180f11c:	e17ffc15 	stw	r5,-16(fp)
 180f120:	e1bffd15 	stw	r6,-12(fp)
 180f124:	e1fffe15 	stw	r7,-8(fp)
  int rc = -EINVAL;  
 180f128:	00bffa84 	movi	r2,-22
 180f12c:	e0bffa15 	stw	r2,-24(fp)
  int id = irq;             /* IRQ interpreted as the interrupt ID. */
 180f130:	e0bffc17 	ldw	r2,-16(fp)
 180f134:	e0bff915 	stw	r2,-28(fp)
  alt_irq_context status;

  if (id < ALT_NIRQ)
 180f138:	e0bff917 	ldw	r2,-28(fp)
 180f13c:	10800808 	cmpgei	r2,r2,32
 180f140:	1000291e 	bne	r2,zero,180f1e8 <alt_iic_isr_register+0xe0>
static ALT_INLINE alt_irq_context ALT_ALWAYS_INLINE 
       alt_irq_disable_all (void)
{
  alt_irq_context context;

  NIOS2_READ_STATUS (context);
 180f144:	0005303a 	rdctl	r2,status
 180f148:	e0bff715 	stw	r2,-36(fp)

  NIOS2_WRITE_STATUS (context & ~NIOS2_STATUS_PIE_MSK);
 180f14c:	e0fff717 	ldw	r3,-36(fp)
 180f150:	00bfff84 	movi	r2,-2
 180f154:	1884703a 	and	r2,r3,r2
 180f158:	1001703a 	wrctl	status,r2
  
  return context;
 180f15c:	e0bff717 	ldw	r2,-36(fp)
     * interrupts are disabled while the handler tables are updated to ensure
     * that an interrupt doesn't occur while the tables are in an inconsistant
     * state.
     */

    status = alt_irq_disable_all();
 180f160:	e0bff815 	stw	r2,-32(fp)

    alt_irq[id].handler = isr;
 180f164:	e0bff917 	ldw	r2,-28(fp)
 180f168:	00c06074 	movhi	r3,385
 180f16c:	18caf704 	addi	r3,r3,11228
 180f170:	100490fa 	slli	r2,r2,3
 180f174:	10c7883a 	add	r3,r2,r3
 180f178:	e0bffd17 	ldw	r2,-12(fp)
 180f17c:	18800015 	stw	r2,0(r3)
    alt_irq[id].context = isr_context;
 180f180:	e0bff917 	ldw	r2,-28(fp)
 180f184:	00c06074 	movhi	r3,385
 180f188:	18caf704 	addi	r3,r3,11228
 180f18c:	100490fa 	slli	r2,r2,3
 180f190:	10c5883a 	add	r2,r2,r3
 180f194:	10c00104 	addi	r3,r2,4
 180f198:	e0bffe17 	ldw	r2,-8(fp)
 180f19c:	18800015 	stw	r2,0(r3)

    rc = (isr) ? alt_ic_irq_enable(ic_id, id) : alt_ic_irq_disable(ic_id, id);
 180f1a0:	e0bffd17 	ldw	r2,-12(fp)
 180f1a4:	1005003a 	cmpeq	r2,r2,zero
 180f1a8:	1000051e 	bne	r2,zero,180f1c0 <alt_iic_isr_register+0xb8>
 180f1ac:	e17ff917 	ldw	r5,-28(fp)
 180f1b0:	e13ffb17 	ldw	r4,-20(fp)
 180f1b4:	180ef840 	call	180ef84 <alt_ic_irq_enable>
 180f1b8:	e0bfff15 	stw	r2,-4(fp)
 180f1bc:	00000406 	br	180f1d0 <alt_iic_isr_register+0xc8>
 180f1c0:	e17ff917 	ldw	r5,-28(fp)
 180f1c4:	e13ffb17 	ldw	r4,-20(fp)
 180f1c8:	180f0200 	call	180f020 <alt_ic_irq_disable>
 180f1cc:	e0bfff15 	stw	r2,-4(fp)
 180f1d0:	e0bfff17 	ldw	r2,-4(fp)
 180f1d4:	e0bffa15 	stw	r2,-24(fp)
 180f1d8:	e0bff817 	ldw	r2,-32(fp)
 180f1dc:	e0bff615 	stw	r2,-40(fp)
  status &= ~NIOS2_STATUS_PIE_MSK;
  status |= (context & NIOS2_STATUS_PIE_MSK);
  
  NIOS2_WRITE_STATUS (status);
#else
  NIOS2_WRITE_STATUS (context);
 180f1e0:	e0bff617 	ldw	r2,-40(fp)
 180f1e4:	1001703a 	wrctl	status,r2

    alt_irq_enable_all(status);
  }

  return rc; 
 180f1e8:	e0bffa17 	ldw	r2,-24(fp)
}
 180f1ec:	e037883a 	mov	sp,fp
 180f1f0:	dfc00117 	ldw	ra,4(sp)
 180f1f4:	df000017 	ldw	fp,0(sp)
 180f1f8:	dec00204 	addi	sp,sp,8
 180f1fc:	f800283a 	ret

0180f200 <alt_open_fd>:
 * If the device can not be succesfully opened, then the input file descriptor
 * remains unchanged.
 */

static void alt_open_fd(alt_fd* fd, const char* name, int flags, int mode)
{
 180f200:	defff904 	addi	sp,sp,-28
 180f204:	dfc00615 	stw	ra,24(sp)
 180f208:	df000515 	stw	fp,20(sp)
 180f20c:	df000504 	addi	fp,sp,20
 180f210:	e13ffc15 	stw	r4,-16(fp)
 180f214:	e17ffd15 	stw	r5,-12(fp)
 180f218:	e1bffe15 	stw	r6,-8(fp)
 180f21c:	e1ffff15 	stw	r7,-4(fp)
  int old;

  old = open (name, flags, mode);
 180f220:	e13ffd17 	ldw	r4,-12(fp)
 180f224:	e17ffe17 	ldw	r5,-8(fp)
 180f228:	e1bfff17 	ldw	r6,-4(fp)
 180f22c:	180f4180 	call	180f418 <open>
 180f230:	e0bffb15 	stw	r2,-20(fp)

  if (old >= 0)
 180f234:	e0bffb17 	ldw	r2,-20(fp)
 180f238:	1004803a 	cmplt	r2,r2,zero
 180f23c:	10001c1e 	bne	r2,zero,180f2b0 <alt_open_fd+0xb0>
  {
    fd->dev      = alt_fd_list[old].dev;
 180f240:	e0bffb17 	ldw	r2,-20(fp)
 180f244:	00c06074 	movhi	r3,385
 180f248:	18c5a404 	addi	r3,r3,5776
 180f24c:	10800324 	muli	r2,r2,12
 180f250:	10c5883a 	add	r2,r2,r3
 180f254:	10c00017 	ldw	r3,0(r2)
 180f258:	e0bffc17 	ldw	r2,-16(fp)
 180f25c:	10c00015 	stw	r3,0(r2)
    fd->priv     = alt_fd_list[old].priv;
 180f260:	e0bffb17 	ldw	r2,-20(fp)
 180f264:	00c06074 	movhi	r3,385
 180f268:	18c5a404 	addi	r3,r3,5776
 180f26c:	10800324 	muli	r2,r2,12
 180f270:	10c5883a 	add	r2,r2,r3
 180f274:	10800104 	addi	r2,r2,4
 180f278:	10c00017 	ldw	r3,0(r2)
 180f27c:	e0bffc17 	ldw	r2,-16(fp)
 180f280:	10c00115 	stw	r3,4(r2)
    fd->fd_flags = alt_fd_list[old].fd_flags;
 180f284:	e0bffb17 	ldw	r2,-20(fp)
 180f288:	00c06074 	movhi	r3,385
 180f28c:	18c5a404 	addi	r3,r3,5776
 180f290:	10800324 	muli	r2,r2,12
 180f294:	10c5883a 	add	r2,r2,r3
 180f298:	10800204 	addi	r2,r2,8
 180f29c:	10c00017 	ldw	r3,0(r2)
 180f2a0:	e0bffc17 	ldw	r2,-16(fp)
 180f2a4:	10c00215 	stw	r3,8(r2)

    alt_release_fd (old);
 180f2a8:	e13ffb17 	ldw	r4,-20(fp)
 180f2ac:	180a4080 	call	180a408 <alt_release_fd>
  }
} 
 180f2b0:	e037883a 	mov	sp,fp
 180f2b4:	dfc00117 	ldw	ra,4(sp)
 180f2b8:	df000017 	ldw	fp,0(sp)
 180f2bc:	dec00204 	addi	sp,sp,8
 180f2c0:	f800283a 	ret

0180f2c4 <alt_io_redirect>:
 */
 
void alt_io_redirect(const char* stdout_dev, 
                     const char* stdin_dev, 
                     const char* stderr_dev)
{
 180f2c4:	defffb04 	addi	sp,sp,-20
 180f2c8:	dfc00415 	stw	ra,16(sp)
 180f2cc:	df000315 	stw	fp,12(sp)
 180f2d0:	df000304 	addi	fp,sp,12
 180f2d4:	e13ffd15 	stw	r4,-12(fp)
 180f2d8:	e17ffe15 	stw	r5,-8(fp)
 180f2dc:	e1bfff15 	stw	r6,-4(fp)
  /* Redirect the channels */

  alt_open_fd (&alt_fd_list[STDOUT_FILENO], stdout_dev, O_WRONLY, 0777);
 180f2e0:	01006074 	movhi	r4,385
 180f2e4:	2105a704 	addi	r4,r4,5788
 180f2e8:	e17ffd17 	ldw	r5,-12(fp)
 180f2ec:	01800044 	movi	r6,1
 180f2f0:	01c07fc4 	movi	r7,511
 180f2f4:	180f2000 	call	180f200 <alt_open_fd>
  alt_open_fd (&alt_fd_list[STDIN_FILENO], stdin_dev, O_RDONLY, 0777);
 180f2f8:	01006074 	movhi	r4,385
 180f2fc:	2105a404 	addi	r4,r4,5776
 180f300:	e17ffe17 	ldw	r5,-8(fp)
 180f304:	000d883a 	mov	r6,zero
 180f308:	01c07fc4 	movi	r7,511
 180f30c:	180f2000 	call	180f200 <alt_open_fd>
  alt_open_fd (&alt_fd_list[STDERR_FILENO], stderr_dev, O_WRONLY, 0777);
 180f310:	01006074 	movhi	r4,385
 180f314:	2105aa04 	addi	r4,r4,5800
 180f318:	e17fff17 	ldw	r5,-4(fp)
 180f31c:	01800044 	movi	r6,1
 180f320:	01c07fc4 	movi	r7,511
 180f324:	180f2000 	call	180f200 <alt_open_fd>
}  
 180f328:	e037883a 	mov	sp,fp
 180f32c:	dfc00117 	ldw	ra,4(sp)
 180f330:	df000017 	ldw	fp,0(sp)
 180f334:	dec00204 	addi	sp,sp,8
 180f338:	f800283a 	ret

0180f33c <alt_file_locked>:
 * performed for devices. Filesystems are required to handle the ioctl() call
 * themselves, and report the error from the filesystems open() function. 
 */ 

static int alt_file_locked (alt_fd* fd)
{
 180f33c:	defffc04 	addi	sp,sp,-16
 180f340:	df000315 	stw	fp,12(sp)
 180f344:	df000304 	addi	fp,sp,12
 180f348:	e13ffe15 	stw	r4,-8(fp)

  /*
   * Mark the file descriptor as belonging to a device.
   */

  fd->fd_flags |= ALT_FD_DEV;
 180f34c:	e0bffe17 	ldw	r2,-8(fp)
 180f350:	10800217 	ldw	r2,8(r2)
 180f354:	10d00034 	orhi	r3,r2,16384
 180f358:	e0bffe17 	ldw	r2,-8(fp)
 180f35c:	10c00215 	stw	r3,8(r2)
  /*
   * Loop through all current file descriptors searching for one that's locked
   * for exclusive access. If a match is found, generate an error.
   */

  for (i = 0; i <= alt_max_fd; i++)
 180f360:	e03ffd15 	stw	zero,-12(fp)
 180f364:	00002006 	br	180f3e8 <alt_file_locked+0xac>
  {
    if ((alt_fd_list[i].dev == fd->dev) &&
 180f368:	e0bffd17 	ldw	r2,-12(fp)
 180f36c:	00c06074 	movhi	r3,385
 180f370:	18c5a404 	addi	r3,r3,5776
 180f374:	10800324 	muli	r2,r2,12
 180f378:	10c5883a 	add	r2,r2,r3
 180f37c:	10c00017 	ldw	r3,0(r2)
 180f380:	e0bffe17 	ldw	r2,-8(fp)
 180f384:	10800017 	ldw	r2,0(r2)
 180f388:	1880141e 	bne	r3,r2,180f3dc <alt_file_locked+0xa0>
 180f38c:	e0bffd17 	ldw	r2,-12(fp)
 180f390:	00c06074 	movhi	r3,385
 180f394:	18c5a404 	addi	r3,r3,5776
 180f398:	10800324 	muli	r2,r2,12
 180f39c:	10c5883a 	add	r2,r2,r3
 180f3a0:	10800204 	addi	r2,r2,8
 180f3a4:	10800017 	ldw	r2,0(r2)
 180f3a8:	1004403a 	cmpge	r2,r2,zero
 180f3ac:	10000b1e 	bne	r2,zero,180f3dc <alt_file_locked+0xa0>
 180f3b0:	e0bffd17 	ldw	r2,-12(fp)
 180f3b4:	10800324 	muli	r2,r2,12
 180f3b8:	1007883a 	mov	r3,r2
 180f3bc:	00806074 	movhi	r2,385
 180f3c0:	1085a404 	addi	r2,r2,5776
 180f3c4:	1887883a 	add	r3,r3,r2
 180f3c8:	e0bffe17 	ldw	r2,-8(fp)
 180f3cc:	18800326 	beq	r3,r2,180f3dc <alt_file_locked+0xa0>
        (alt_fd_list[i].fd_flags & ALT_FD_EXCL) &&
        (&alt_fd_list[i] != fd))
    {
      return -EACCES;
 180f3d0:	00bffcc4 	movi	r2,-13
 180f3d4:	e0bfff15 	stw	r2,-4(fp)
 180f3d8:	00000a06 	br	180f404 <alt_file_locked+0xc8>
  /*
   * Loop through all current file descriptors searching for one that's locked
   * for exclusive access. If a match is found, generate an error.
   */

  for (i = 0; i <= alt_max_fd; i++)
 180f3dc:	e0bffd17 	ldw	r2,-12(fp)
 180f3e0:	10800044 	addi	r2,r2,1
 180f3e4:	e0bffd15 	stw	r2,-12(fp)
 180f3e8:	00806074 	movhi	r2,385
 180f3ec:	108ad504 	addi	r2,r2,11092
 180f3f0:	10800017 	ldw	r2,0(r2)
 180f3f4:	1007883a 	mov	r3,r2
 180f3f8:	e0bffd17 	ldw	r2,-12(fp)
 180f3fc:	18bfda2e 	bgeu	r3,r2,180f368 <alt_file_locked+0x2c>
    }
  }
  
  /* The device is not locked */
 
  return 0;
 180f400:	e03fff15 	stw	zero,-4(fp)
 180f404:	e0bfff17 	ldw	r2,-4(fp)
}
 180f408:	e037883a 	mov	sp,fp
 180f40c:	df000017 	ldw	fp,0(sp)
 180f410:	dec00104 	addi	sp,sp,4
 180f414:	f800283a 	ret

0180f418 <open>:
 *
 * ALT_OPEN is mapped onto the open() system call in alt_syscall.h
 */
 
int ALT_OPEN (const char* file, int flags, int mode)
{ 
 180f418:	defff404 	addi	sp,sp,-48
 180f41c:	dfc00b15 	stw	ra,44(sp)
 180f420:	df000a15 	stw	fp,40(sp)
 180f424:	df000a04 	addi	fp,sp,40
 180f428:	e13ffb15 	stw	r4,-20(fp)
 180f42c:	e17ffc15 	stw	r5,-16(fp)
 180f430:	e1bffd15 	stw	r6,-12(fp)
  alt_dev* dev;
  alt_fd*  fd;
  int index  = -1;
 180f434:	00bfffc4 	movi	r2,-1
 180f438:	e0bff815 	stw	r2,-32(fp)
  int status = -ENODEV;
 180f43c:	00bffb44 	movi	r2,-19
 180f440:	e0bff715 	stw	r2,-36(fp)
  int isafs = 0;
 180f444:	e03ff615 	stw	zero,-40(fp)
  /* 
   * Check the device list, to see if a device with a matching name is 
   * registered.
   */
  
  if (!(dev = alt_find_dev (file, &alt_dev_list)))
 180f448:	e13ffb17 	ldw	r4,-20(fp)
 180f44c:	01406074 	movhi	r5,385
 180f450:	294ad304 	addi	r5,r5,11084
 180f454:	18100840 	call	1810084 <alt_find_dev>
 180f458:	e0bffa15 	stw	r2,-24(fp)
 180f45c:	e0bffa17 	ldw	r2,-24(fp)
 180f460:	1004c03a 	cmpne	r2,r2,zero
 180f464:	1000051e 	bne	r2,zero,180f47c <open+0x64>
  {
    /* No matching device, so try the filesystem list */

    dev   = alt_find_file (file);
 180f468:	e13ffb17 	ldw	r4,-20(fp)
 180f46c:	18101180 	call	1810118 <alt_find_file>
 180f470:	e0bffa15 	stw	r2,-24(fp)
    isafs = 1;
 180f474:	00800044 	movi	r2,1
 180f478:	e0bff615 	stw	r2,-40(fp)

  /* 
   * If a matching device or filesystem is found, allocate a file descriptor. 
   */

  if (dev)
 180f47c:	e0bffa17 	ldw	r2,-24(fp)
 180f480:	1005003a 	cmpeq	r2,r2,zero
 180f484:	1000301e 	bne	r2,zero,180f548 <open+0x130>
  {
    if ((index = alt_get_fd (dev)) < 0)
 180f488:	e13ffa17 	ldw	r4,-24(fp)
 180f48c:	18102380 	call	1810238 <alt_get_fd>
 180f490:	e0bff815 	stw	r2,-32(fp)
 180f494:	e0bff817 	ldw	r2,-32(fp)
 180f498:	1004403a 	cmpge	r2,r2,zero
 180f49c:	1000031e 	bne	r2,zero,180f4ac <open+0x94>
    {
      status = index;
 180f4a0:	e0bff817 	ldw	r2,-32(fp)
 180f4a4:	e0bff715 	stw	r2,-36(fp)
 180f4a8:	00002906 	br	180f550 <open+0x138>
    }
    else
    {
      fd = &alt_fd_list[index];
 180f4ac:	e0bff817 	ldw	r2,-32(fp)
 180f4b0:	10800324 	muli	r2,r2,12
 180f4b4:	1007883a 	mov	r3,r2
 180f4b8:	00806074 	movhi	r2,385
 180f4bc:	1085a404 	addi	r2,r2,5776
 180f4c0:	1885883a 	add	r2,r3,r2
 180f4c4:	e0bff915 	stw	r2,-28(fp)
      fd->fd_flags = (flags & ~ALT_FD_FLAGS_MASK);
 180f4c8:	e0fffc17 	ldw	r3,-16(fp)
 180f4cc:	00900034 	movhi	r2,16384
 180f4d0:	10bfffc4 	addi	r2,r2,-1
 180f4d4:	1886703a 	and	r3,r3,r2
 180f4d8:	e0bff917 	ldw	r2,-28(fp)
 180f4dc:	10c00215 	stw	r3,8(r2)
      
      /* If this is a device, ensure it isn't already locked */

      if (isafs || ((status = alt_file_locked (fd)) >= 0))
 180f4e0:	e0bff617 	ldw	r2,-40(fp)
 180f4e4:	1004c03a 	cmpne	r2,r2,zero
 180f4e8:	1000061e 	bne	r2,zero,180f504 <open+0xec>
 180f4ec:	e13ff917 	ldw	r4,-28(fp)
 180f4f0:	180f33c0 	call	180f33c <alt_file_locked>
 180f4f4:	e0bff715 	stw	r2,-36(fp)
 180f4f8:	e0bff717 	ldw	r2,-36(fp)
 180f4fc:	1004803a 	cmplt	r2,r2,zero
 180f500:	1000131e 	bne	r2,zero,180f550 <open+0x138>
        /* 
         * If the device or filesystem provides an open() callback function,
         * call it now to perform any device/filesystem specific operations.
         */
    
        status = (dev->open) ? dev->open(fd, file, flags, mode): 0;
 180f504:	e0bffa17 	ldw	r2,-24(fp)
 180f508:	10800317 	ldw	r2,12(r2)
 180f50c:	1005003a 	cmpeq	r2,r2,zero
 180f510:	1000091e 	bne	r2,zero,180f538 <open+0x120>
 180f514:	e0bffa17 	ldw	r2,-24(fp)
 180f518:	10800317 	ldw	r2,12(r2)
 180f51c:	e13ff917 	ldw	r4,-28(fp)
 180f520:	e17ffb17 	ldw	r5,-20(fp)
 180f524:	e1bffc17 	ldw	r6,-16(fp)
 180f528:	e1fffd17 	ldw	r7,-12(fp)
 180f52c:	103ee83a 	callr	r2
 180f530:	e0bfff15 	stw	r2,-4(fp)
 180f534:	00000106 	br	180f53c <open+0x124>
 180f538:	e03fff15 	stw	zero,-4(fp)
 180f53c:	e0bfff17 	ldw	r2,-4(fp)
 180f540:	e0bff715 	stw	r2,-36(fp)
 180f544:	00000206 	br	180f550 <open+0x138>
      }
    }
  }
  else
  {
    status = -ENODEV;
 180f548:	00bffb44 	movi	r2,-19
 180f54c:	e0bff715 	stw	r2,-36(fp)
  }

  /* Allocation failed, so clean up and return an error */ 

  if (status < 0)
 180f550:	e0bff717 	ldw	r2,-36(fp)
 180f554:	1004403a 	cmpge	r2,r2,zero
 180f558:	1000091e 	bne	r2,zero,180f580 <open+0x168>
  {
    alt_release_fd (index);  
 180f55c:	e13ff817 	ldw	r4,-32(fp)
 180f560:	180a4080 	call	180a408 <alt_release_fd>
    ALT_ERRNO = -status;
 180f564:	180f5a00 	call	180f5a0 <alt_get_errno>
 180f568:	e0fff717 	ldw	r3,-36(fp)
 180f56c:	00c7c83a 	sub	r3,zero,r3
 180f570:	10c00015 	stw	r3,0(r2)
    return -1;
 180f574:	00bfffc4 	movi	r2,-1
 180f578:	e0bffe15 	stw	r2,-8(fp)
 180f57c:	00000206 	br	180f588 <open+0x170>
  }
  
  /* return the reference upon success */

  return index;
 180f580:	e0bff817 	ldw	r2,-32(fp)
 180f584:	e0bffe15 	stw	r2,-8(fp)
 180f588:	e0bffe17 	ldw	r2,-8(fp)
}
 180f58c:	e037883a 	mov	sp,fp
 180f590:	dfc00117 	ldw	ra,4(sp)
 180f594:	df000017 	ldw	fp,0(sp)
 180f598:	dec00204 	addi	sp,sp,8
 180f59c:	f800283a 	ret

0180f5a0 <alt_get_errno>:
#undef errno

extern int errno;

static ALT_INLINE int* alt_get_errno(void)
{
 180f5a0:	defffd04 	addi	sp,sp,-12
 180f5a4:	dfc00215 	stw	ra,8(sp)
 180f5a8:	df000115 	stw	fp,4(sp)
 180f5ac:	df000104 	addi	fp,sp,4
  return ((alt_errno) ? alt_errno() : &errno);
 180f5b0:	00806074 	movhi	r2,385
 180f5b4:	108ad604 	addi	r2,r2,11096
 180f5b8:	10800017 	ldw	r2,0(r2)
 180f5bc:	1005003a 	cmpeq	r2,r2,zero
 180f5c0:	1000061e 	bne	r2,zero,180f5dc <alt_get_errno+0x3c>
 180f5c4:	00806074 	movhi	r2,385
 180f5c8:	108ad604 	addi	r2,r2,11096
 180f5cc:	10800017 	ldw	r2,0(r2)
 180f5d0:	103ee83a 	callr	r2
 180f5d4:	e0bfff15 	stw	r2,-4(fp)
 180f5d8:	00000306 	br	180f5e8 <alt_get_errno+0x48>
 180f5dc:	00806074 	movhi	r2,385
 180f5e0:	108ae504 	addi	r2,r2,11156
 180f5e4:	e0bfff15 	stw	r2,-4(fp)
 180f5e8:	e0bfff17 	ldw	r2,-4(fp)
}
 180f5ec:	e037883a 	mov	sp,fp
 180f5f0:	dfc00117 	ldw	ra,4(sp)
 180f5f4:	df000017 	ldw	fp,0(sp)
 180f5f8:	dec00204 	addi	sp,sp,8
 180f5fc:	f800283a 	ret

0180f600 <alt_alarm_stop>:
 * alarms. Alternatively an alarm can unregister itself by returning zero when 
 * the alarm executes.
 */

void alt_alarm_stop (alt_alarm* alarm)
{
 180f600:	defffa04 	addi	sp,sp,-24
 180f604:	df000515 	stw	fp,20(sp)
 180f608:	df000504 	addi	fp,sp,20
 180f60c:	e13fff15 	stw	r4,-4(fp)
static ALT_INLINE alt_irq_context ALT_ALWAYS_INLINE 
       alt_irq_disable_all (void)
{
  alt_irq_context context;

  NIOS2_READ_STATUS (context);
 180f610:	0005303a 	rdctl	r2,status
 180f614:	e0bffd15 	stw	r2,-12(fp)

  NIOS2_WRITE_STATUS (context & ~NIOS2_STATUS_PIE_MSK);
 180f618:	e0fffd17 	ldw	r3,-12(fp)
 180f61c:	00bfff84 	movi	r2,-2
 180f620:	1884703a 	and	r2,r3,r2
 180f624:	1001703a 	wrctl	status,r2
  
  return context;
 180f628:	e0bffd17 	ldw	r2,-12(fp)
  alt_irq_context irq_context;

  irq_context = alt_irq_disable_all();
 180f62c:	e0bffe15 	stw	r2,-8(fp)
  alt_llist_remove (&alarm->llist);
 180f630:	e0bfff17 	ldw	r2,-4(fp)
 180f634:	e0bffc15 	stw	r2,-16(fp)
 * input argument is the element to remove.
 */
     
static ALT_INLINE void ALT_ALWAYS_INLINE alt_llist_remove(alt_llist* entry)
{
  entry->next->previous = entry->previous;
 180f638:	e0bffc17 	ldw	r2,-16(fp)
 180f63c:	10c00017 	ldw	r3,0(r2)
 180f640:	e0bffc17 	ldw	r2,-16(fp)
 180f644:	10800117 	ldw	r2,4(r2)
 180f648:	18800115 	stw	r2,4(r3)
  entry->previous->next = entry->next;
 180f64c:	e0bffc17 	ldw	r2,-16(fp)
 180f650:	10c00117 	ldw	r3,4(r2)
 180f654:	e0bffc17 	ldw	r2,-16(fp)
 180f658:	10800017 	ldw	r2,0(r2)
 180f65c:	18800015 	stw	r2,0(r3)
  /* 
   * Set the entry to point to itself, so that any further calls to
   * alt_llist_remove() are harmless.
   */

  entry->previous = entry;
 180f660:	e0fffc17 	ldw	r3,-16(fp)
 180f664:	e0bffc17 	ldw	r2,-16(fp)
 180f668:	18800115 	stw	r2,4(r3)
  entry->next     = entry;
 180f66c:	e0fffc17 	ldw	r3,-16(fp)
 180f670:	e0bffc17 	ldw	r2,-16(fp)
 180f674:	18800015 	stw	r2,0(r3)
 180f678:	e0bffe17 	ldw	r2,-8(fp)
 180f67c:	e0bffb15 	stw	r2,-20(fp)
  status &= ~NIOS2_STATUS_PIE_MSK;
  status |= (context & NIOS2_STATUS_PIE_MSK);
  
  NIOS2_WRITE_STATUS (status);
#else
  NIOS2_WRITE_STATUS (context);
 180f680:	e0bffb17 	ldw	r2,-20(fp)
 180f684:	1001703a 	wrctl	status,r2
  alt_irq_enable_all (irq_context);
}
 180f688:	e037883a 	mov	sp,fp
 180f68c:	df000017 	ldw	fp,0(sp)
 180f690:	dec00104 	addi	sp,sp,4
 180f694:	f800283a 	ret

0180f698 <alt_tick>:
 * 
 * alt_tick() is expected to run at interrupt level.
 */

void alt_tick (void)
{
 180f698:	defffb04 	addi	sp,sp,-20
 180f69c:	dfc00415 	stw	ra,16(sp)
 180f6a0:	df000315 	stw	fp,12(sp)
 180f6a4:	df000304 	addi	fp,sp,12
  alt_alarm* next;
  alt_alarm* alarm = (alt_alarm*) alt_alarm_list.next;
 180f6a8:	d0a01117 	ldw	r2,-32700(gp)
 180f6ac:	e0bffe15 	stw	r2,-8(fp)

  alt_u32    next_callback;

  /* update the tick counter */

  _alt_nticks++;
 180f6b0:	d0a02017 	ldw	r2,-32640(gp)
 180f6b4:	10800044 	addi	r2,r2,1
 180f6b8:	d0a02015 	stw	r2,-32640(gp)

  /* process the registered callbacks */

  while (alarm != (alt_alarm*) &alt_alarm_list)
 180f6bc:	00003106 	br	180f784 <alt_tick+0xec>
  {
    next = (alt_alarm*) alarm->llist.next;
 180f6c0:	e0bffe17 	ldw	r2,-8(fp)
 180f6c4:	10800017 	ldw	r2,0(r2)
 180f6c8:	e0bfff15 	stw	r2,-4(fp)
    /* 
     * Upon the tick-counter rolling over it is safe to clear the 
     * roll-over flag; once the flag is cleared this (or subsequnt)
     * tick events are enabled to generate an alarm event. 
     */
    if ((alarm->rollover) && (_alt_nticks == 0))
 180f6cc:	e0bffe17 	ldw	r2,-8(fp)
 180f6d0:	10800403 	ldbu	r2,16(r2)
 180f6d4:	10803fcc 	andi	r2,r2,255
 180f6d8:	1005003a 	cmpeq	r2,r2,zero
 180f6dc:	1000051e 	bne	r2,zero,180f6f4 <alt_tick+0x5c>
 180f6e0:	d0a02017 	ldw	r2,-32640(gp)
 180f6e4:	1004c03a 	cmpne	r2,r2,zero
 180f6e8:	1000021e 	bne	r2,zero,180f6f4 <alt_tick+0x5c>
    {
      alarm->rollover = 0;
 180f6ec:	e0bffe17 	ldw	r2,-8(fp)
 180f6f0:	10000405 	stb	zero,16(r2)
    }
    
    /* if the alarm period has expired, make the callback */    
    if ((alarm->time <= _alt_nticks) && (alarm->rollover == 0))
 180f6f4:	e0bffe17 	ldw	r2,-8(fp)
 180f6f8:	10c00217 	ldw	r3,8(r2)
 180f6fc:	d0a02017 	ldw	r2,-32640(gp)
 180f700:	10c01e36 	bltu	r2,r3,180f77c <alt_tick+0xe4>
 180f704:	e0bffe17 	ldw	r2,-8(fp)
 180f708:	10800403 	ldbu	r2,16(r2)
 180f70c:	10803fcc 	andi	r2,r2,255
 180f710:	1004c03a 	cmpne	r2,r2,zero
 180f714:	1000191e 	bne	r2,zero,180f77c <alt_tick+0xe4>
    {
      next_callback = alarm->callback (alarm->context);
 180f718:	e0bffe17 	ldw	r2,-8(fp)
 180f71c:	10c00317 	ldw	r3,12(r2)
 180f720:	e0bffe17 	ldw	r2,-8(fp)
 180f724:	11000517 	ldw	r4,20(r2)
 180f728:	183ee83a 	callr	r3
 180f72c:	e0bffd15 	stw	r2,-12(fp)

      /* deactivate the alarm if the return value is zero */

      if (next_callback == 0)
 180f730:	e0bffd17 	ldw	r2,-12(fp)
 180f734:	1004c03a 	cmpne	r2,r2,zero
 180f738:	1000031e 	bne	r2,zero,180f748 <alt_tick+0xb0>
      {
        alt_alarm_stop (alarm);
 180f73c:	e13ffe17 	ldw	r4,-8(fp)
 180f740:	180f6000 	call	180f600 <alt_alarm_stop>
 180f744:	00000d06 	br	180f77c <alt_tick+0xe4>
      }
      else
      {
        alarm->time += next_callback;
 180f748:	e0bffe17 	ldw	r2,-8(fp)
 180f74c:	10c00217 	ldw	r3,8(r2)
 180f750:	e0bffd17 	ldw	r2,-12(fp)
 180f754:	1887883a 	add	r3,r3,r2
 180f758:	e0bffe17 	ldw	r2,-8(fp)
 180f75c:	10c00215 	stw	r3,8(r2)
        /* 
         * If the desired alarm time causes a roll-over, set the rollover
         * flag. This will prevent the subsequent tick event from causing
         * an alarm too early.
         */
        if(alarm->time < _alt_nticks)
 180f760:	e0bffe17 	ldw	r2,-8(fp)
 180f764:	10c00217 	ldw	r3,8(r2)
 180f768:	d0a02017 	ldw	r2,-32640(gp)
 180f76c:	1880032e 	bgeu	r3,r2,180f77c <alt_tick+0xe4>
        {
          alarm->rollover = 1;
 180f770:	e0fffe17 	ldw	r3,-8(fp)
 180f774:	00800044 	movi	r2,1
 180f778:	18800405 	stb	r2,16(r3)
        }
      }
    }
    alarm = next;
 180f77c:	e0bfff17 	ldw	r2,-4(fp)
 180f780:	e0bffe15 	stw	r2,-8(fp)

  _alt_nticks++;

  /* process the registered callbacks */

  while (alarm != (alt_alarm*) &alt_alarm_list)
 180f784:	d0e01104 	addi	r3,gp,-32700
 180f788:	e0bffe17 	ldw	r2,-8(fp)
 180f78c:	10ffcc1e 	bne	r2,r3,180f6c0 <alt_tick+0x28>
  /* 
   * Update the operating system specific timer facilities.
   */

  ALT_OS_TIME_TICK();
}
 180f790:	e037883a 	mov	sp,fp
 180f794:	dfc00117 	ldw	ra,4(sp)
 180f798:	df000017 	ldw	fp,0(sp)
 180f79c:	dec00204 	addi	sp,sp,8
 180f7a0:	f800283a 	ret

0180f7a4 <altera_nios2_irq_init>:
/*
 * To initialize the internal interrupt controller, just clear the IENABLE
 * register so that all possible IRQs are disabled.
 */
void altera_nios2_irq_init(void) 
{
 180f7a4:	deffff04 	addi	sp,sp,-4
 180f7a8:	df000015 	stw	fp,0(sp)
 180f7ac:	d839883a 	mov	fp,sp
    NIOS2_WRITE_IENABLE(0);
 180f7b0:	000170fa 	wrctl	ienable,zero
}
 180f7b4:	e037883a 	mov	sp,fp
 180f7b8:	df000017 	ldw	fp,0(sp)
 180f7bc:	dec00104 	addi	sp,sp,4
 180f7c0:	f800283a 	ret

0180f7c4 <alt_program_amd>:
 * then writes Addr, Data Addr, Data etc.
 */
int alt_program_amd(alt_flash_dev* flash_info, int block_offset, 
                int offset, const void* src_addr, 
                int length)
{
 180f7c4:	defff704 	addi	sp,sp,-36
 180f7c8:	dfc00815 	stw	ra,32(sp)
 180f7cc:	df000715 	stw	fp,28(sp)
 180f7d0:	df000704 	addi	fp,sp,28
 180f7d4:	e13ffc15 	stw	r4,-16(fp)
 180f7d8:	e17ffd15 	stw	r5,-12(fp)
 180f7dc:	e1bffe15 	stw	r6,-8(fp)
 180f7e0:	e1ffff15 	stw	r7,-4(fp)
  int ret_code = 0;
 180f7e4:	e03ffb15 	stw	zero,-20(fp)
  alt_flash_cfi_dev* flash = (alt_flash_cfi_dev*)flash_info;
 180f7e8:	e0bffc17 	ldw	r2,-16(fp)
 180f7ec:	e0bffa15 	stw	r2,-24(fp)
  
  
  ret_code = alt_flash_program_block( flash, offset, src_addr, length, 
 180f7f0:	e1bfff17 	ldw	r6,-4(fp)
 180f7f4:	00806074 	movhi	r2,385
 180f7f8:	10beda04 	addi	r2,r2,-1176
 180f7fc:	d8800015 	stw	r2,0(sp)
 180f800:	e13ffa17 	ldw	r4,-24(fp)
 180f804:	e17ffe17 	ldw	r5,-8(fp)
 180f808:	e1c00217 	ldw	r7,8(fp)
 180f80c:	180adcc0 	call	180adcc <alt_flash_program_block>
 180f810:	e0bffb15 	stw	r2,-20(fp)
                                    alt_write_word_amd);
  return ret_code;
 180f814:	e0bffb17 	ldw	r2,-20(fp)
}
 180f818:	e037883a 	mov	sp,fp
 180f81c:	dfc00117 	ldw	ra,4(sp)
 180f820:	df000017 	ldw	fp,0(sp)
 180f824:	dec00204 	addi	sp,sp,8
 180f828:	f800283a 	ret

0180f82c <alt_erase_block_amd>:
 * alt_erase_block_amd
 * 
 * Erase the selected erase block
 */
int alt_erase_block_amd(alt_flash_dev* flash_info, int block_offset)
{
 180f82c:	defff804 	addi	sp,sp,-32
 180f830:	dfc00715 	stw	ra,28(sp)
 180f834:	df000615 	stw	fp,24(sp)
 180f838:	df000604 	addi	fp,sp,24
 180f83c:	e13ffe15 	stw	r4,-8(fp)
 180f840:	e17fff15 	stw	r5,-4(fp)
  int   ret_code = 0;
 180f844:	e03ffc15 	stw	zero,-16(fp)
  int   timeout;
  alt_flash_cfi_dev* flash = (alt_flash_cfi_dev*)flash_info;
 180f848:	e0bffe17 	ldw	r2,-8(fp)
 180f84c:	e0bffa15 	stw	r2,-24(fp)
  volatile alt_u8  value;

  (*flash->write_command)(flash->dev.base_addr, 0x555, (alt_u8)0xAA);
 180f850:	e0bffa17 	ldw	r2,-24(fp)
 180f854:	10c03317 	ldw	r3,204(r2)
 180f858:	e0bffa17 	ldw	r2,-24(fp)
 180f85c:	11000a17 	ldw	r4,40(r2)
 180f860:	01415544 	movi	r5,1365
 180f864:	01802a84 	movi	r6,170
 180f868:	183ee83a 	callr	r3
  (*flash->write_command)(flash->dev.base_addr, 0x2AA, (alt_u8)0x55);
 180f86c:	e0bffa17 	ldw	r2,-24(fp)
 180f870:	10c03317 	ldw	r3,204(r2)
 180f874:	e0bffa17 	ldw	r2,-24(fp)
 180f878:	11000a17 	ldw	r4,40(r2)
 180f87c:	0140aa84 	movi	r5,682
 180f880:	01801544 	movi	r6,85
 180f884:	183ee83a 	callr	r3
  (*flash->write_command)(flash->dev.base_addr, 0x555, (alt_u8)0x80);
 180f888:	e0bffa17 	ldw	r2,-24(fp)
 180f88c:	10c03317 	ldw	r3,204(r2)
 180f890:	e0bffa17 	ldw	r2,-24(fp)
 180f894:	11000a17 	ldw	r4,40(r2)
 180f898:	01415544 	movi	r5,1365
 180f89c:	01802004 	movi	r6,128
 180f8a0:	183ee83a 	callr	r3
  (*flash->write_command)(flash->dev.base_addr, 0x555, (alt_u8)0xAA);
 180f8a4:	e0bffa17 	ldw	r2,-24(fp)
 180f8a8:	10c03317 	ldw	r3,204(r2)
 180f8ac:	e0bffa17 	ldw	r2,-24(fp)
 180f8b0:	11000a17 	ldw	r4,40(r2)
 180f8b4:	01415544 	movi	r5,1365
 180f8b8:	01802a84 	movi	r6,170
 180f8bc:	183ee83a 	callr	r3
  (*flash->write_command)(flash->dev.base_addr, 0x2AA, (alt_u8)0x55);
 180f8c0:	e0bffa17 	ldw	r2,-24(fp)
 180f8c4:	10c03317 	ldw	r3,204(r2)
 180f8c8:	e0bffa17 	ldw	r2,-24(fp)
 180f8cc:	11000a17 	ldw	r4,40(r2)
 180f8d0:	0140aa84 	movi	r5,682
 180f8d4:	01801544 	movi	r6,85
 180f8d8:	183ee83a 	callr	r3

  (*flash->write_native)((alt_u8*)flash->dev.base_addr+block_offset, 0x30);
 180f8dc:	e0bffa17 	ldw	r2,-24(fp)
 180f8e0:	11803517 	ldw	r6,212(r2)
 180f8e4:	e0bffa17 	ldw	r2,-24(fp)
 180f8e8:	10800a17 	ldw	r2,40(r2)
 180f8ec:	1007883a 	mov	r3,r2
 180f8f0:	e0bfff17 	ldw	r2,-4(fp)
 180f8f4:	1889883a 	add	r4,r3,r2
 180f8f8:	01400c04 	movi	r5,48
 180f8fc:	303ee83a 	callr	r6

  /*
   * Delay to meet AM29LV065D timing requirements
   */
  usleep(10000);
 180f900:	0109c404 	movi	r4,10000
 180f904:	180a5240 	call	180a524 <usleep>
  
  /*
   * Bit 3 indicates that the erase command has been accepted
   * this last 50S
   */
  timeout = 50;   
 180f908:	00800c84 	movi	r2,50
 180f90c:	e0bffb15 	stw	r2,-20(fp)
  do 
  {
    value = IORD_8DIRECT((alt_u8*)flash->dev.base_addr + block_offset, 0);
 180f910:	e0bffa17 	ldw	r2,-24(fp)
 180f914:	10800a17 	ldw	r2,40(r2)
 180f918:	1007883a 	mov	r3,r2
 180f91c:	e0bfff17 	ldw	r2,-4(fp)
 180f920:	1885883a 	add	r2,r3,r2
 180f924:	10800023 	ldbuio	r2,0(r2)
 180f928:	e0bffd05 	stb	r2,-12(fp)
    usleep(1000);
 180f92c:	0100fa04 	movi	r4,1000
 180f930:	180a5240 	call	180a524 <usleep>
    timeout--;
 180f934:	e0bffb17 	ldw	r2,-20(fp)
 180f938:	10bfffc4 	addi	r2,r2,-1
 180f93c:	e0bffb15 	stw	r2,-20(fp)
  }while(!(value & 0x8) && (timeout > 0));
 180f940:	e0bffd03 	ldbu	r2,-12(fp)
 180f944:	10803fcc 	andi	r2,r2,255
 180f948:	1080020c 	andi	r2,r2,8
 180f94c:	1004c03a 	cmpne	r2,r2,zero
 180f950:	1000031e 	bne	r2,zero,180f960 <alt_erase_block_amd+0x134>
 180f954:	e0bffb17 	ldw	r2,-20(fp)
 180f958:	10800048 	cmpgei	r2,r2,1
 180f95c:	103fec1e 	bne	r2,zero,180f910 <alt_erase_block_amd+0xe4>


  timeout = flash->erase_timeout;
 180f960:	e0bffa17 	ldw	r2,-24(fp)
 180f964:	10803117 	ldw	r2,196(r2)
 180f968:	e0bffb15 	stw	r2,-20(fp)
  
  /*
   *  Bit 7 goes low until the block is erased if bit 5 goes to 
   *  1 it's an error
   */
  while (timeout > 0)
 180f96c:	00001706 	br	180f9cc <alt_erase_block_amd+0x1a0>
  {
    value = IORD_8DIRECT((alt_u8*)flash->dev.base_addr + block_offset, 0);
 180f970:	e0bffa17 	ldw	r2,-24(fp)
 180f974:	10800a17 	ldw	r2,40(r2)
 180f978:	1007883a 	mov	r3,r2
 180f97c:	e0bfff17 	ldw	r2,-4(fp)
 180f980:	1885883a 	add	r2,r3,r2
 180f984:	10800023 	ldbuio	r2,0(r2)
 180f988:	e0bffd05 	stb	r2,-12(fp)
    if ((value & 0x80) || (value &0x20))
 180f98c:	e0bffd03 	ldbu	r2,-12(fp)
 180f990:	10803fcc 	andi	r2,r2,255
 180f994:	1080201c 	xori	r2,r2,128
 180f998:	10bfe004 	addi	r2,r2,-128
 180f99c:	1004803a 	cmplt	r2,r2,zero
 180f9a0:	10000d1e 	bne	r2,zero,180f9d8 <alt_erase_block_amd+0x1ac>
 180f9a4:	e0bffd03 	ldbu	r2,-12(fp)
 180f9a8:	10803fcc 	andi	r2,r2,255
 180f9ac:	1080080c 	andi	r2,r2,32
 180f9b0:	1004c03a 	cmpne	r2,r2,zero
 180f9b4:	1000081e 	bne	r2,zero,180f9d8 <alt_erase_block_amd+0x1ac>
    {
      break;
    }
    usleep(1000);
 180f9b8:	0100fa04 	movi	r4,1000
 180f9bc:	180a5240 	call	180a524 <usleep>
    timeout -= 1000;
 180f9c0:	e0bffb17 	ldw	r2,-20(fp)
 180f9c4:	10bf0604 	addi	r2,r2,-1000
 180f9c8:	e0bffb15 	stw	r2,-20(fp)
  
  /*
   *  Bit 7 goes low until the block is erased if bit 5 goes to 
   *  1 it's an error
   */
  while (timeout > 0)
 180f9cc:	e0bffb17 	ldw	r2,-20(fp)
 180f9d0:	10800048 	cmpgei	r2,r2,1
 180f9d4:	103fe61e 	bne	r2,zero,180f970 <alt_erase_block_amd+0x144>
    }
    usleep(1000);
    timeout -= 1000;
  }
  
  if (timeout <= 0)
 180f9d8:	e0bffb17 	ldw	r2,-20(fp)
 180f9dc:	10800048 	cmpgei	r2,r2,1
 180f9e0:	1000031e 	bne	r2,zero,180f9f0 <alt_erase_block_amd+0x1c4>
  {
    ret_code = -ETIMEDOUT;
 180f9e4:	00bfe304 	movi	r2,-116
 180f9e8:	e0bffc15 	stw	r2,-16(fp)
 180f9ec:	00000f06 	br	180fa2c <alt_erase_block_amd+0x200>
  }
  else
  {
    value = IORD_8DIRECT((alt_u8*)flash->dev.base_addr + block_offset, 0);
 180f9f0:	e0bffa17 	ldw	r2,-24(fp)
 180f9f4:	10800a17 	ldw	r2,40(r2)
 180f9f8:	1007883a 	mov	r3,r2
 180f9fc:	e0bfff17 	ldw	r2,-4(fp)
 180fa00:	1885883a 	add	r2,r3,r2
 180fa04:	10800023 	ldbuio	r2,0(r2)
 180fa08:	e0bffd05 	stb	r2,-12(fp)
    if (!(value & 0x80))
 180fa0c:	e0bffd03 	ldbu	r2,-12(fp)
 180fa10:	10803fcc 	andi	r2,r2,255
 180fa14:	1080201c 	xori	r2,r2,128
 180fa18:	10bfe004 	addi	r2,r2,-128
 180fa1c:	1004803a 	cmplt	r2,r2,zero
 180fa20:	1000021e 	bne	r2,zero,180fa2c <alt_erase_block_amd+0x200>
    {
      ret_code = -EIO;
 180fa24:	00bffec4 	movi	r2,-5
 180fa28:	e0bffc15 	stw	r2,-16(fp)
    }
  }    
  
  return ret_code;
 180fa2c:	e0bffc17 	ldw	r2,-16(fp)
}
 180fa30:	e037883a 	mov	sp,fp
 180fa34:	dfc00117 	ldw	ra,4(sp)
 180fa38:	df000017 	ldw	fp,0(sp)
 180fa3c:	dec00204 	addi	sp,sp,8
 180fa40:	f800283a 	ret

0180fa44 <alt_wait_for_command_to_complete_amd>:
 */
 
int alt_wait_for_command_to_complete_amd(alt_flash_cfi_dev* flash,
                                         int offset, 
                                          alt_u8 data)
{
 180fa44:	defff804 	addi	sp,sp,-32
 180fa48:	dfc00715 	stw	ra,28(sp)
 180fa4c:	df000615 	stw	fp,24(sp)
 180fa50:	df000604 	addi	fp,sp,24
 180fa54:	e13ffd15 	stw	r4,-12(fp)
 180fa58:	e17ffe15 	stw	r5,-8(fp)
 180fa5c:	e1bfff05 	stb	r6,-4(fp)
  volatile alt_u8  value;
  int timeout = flash->write_timeout * 100;
 180fa60:	e0bffd17 	ldw	r2,-12(fp)
 180fa64:	10803017 	ldw	r2,192(r2)
 180fa68:	10801924 	muli	r2,r2,100
 180fa6c:	e0bffb15 	stw	r2,-20(fp)
  int ret_code = 0;
 180fa70:	e03ffa15 	stw	zero,-24(fp)
  
  value = IORD_8DIRECT(flash->dev.base_addr, offset);
 180fa74:	e0bffd17 	ldw	r2,-12(fp)
 180fa78:	10800a17 	ldw	r2,40(r2)
 180fa7c:	1007883a 	mov	r3,r2
 180fa80:	e0bffe17 	ldw	r2,-8(fp)
 180fa84:	1885883a 	add	r2,r3,r2
 180fa88:	10800023 	ldbuio	r2,0(r2)
 180fa8c:	e0bffc05 	stb	r2,-16(fp)
  while (timeout > 0)
 180fa90:	00001706 	br	180faf0 <alt_wait_for_command_to_complete_amd+0xac>
  {
    if (((value & 0x80 ) == (data &0x80)) ||
 180fa94:	e0bffc03 	ldbu	r2,-16(fp)
 180fa98:	10803fcc 	andi	r2,r2,255
 180fa9c:	10c0200c 	andi	r3,r2,128
 180faa0:	e0bfff03 	ldbu	r2,-4(fp)
 180faa4:	1080200c 	andi	r2,r2,128
 180faa8:	18801426 	beq	r3,r2,180fafc <alt_wait_for_command_to_complete_amd+0xb8>
 180faac:	e0bffc03 	ldbu	r2,-16(fp)
 180fab0:	10803fcc 	andi	r2,r2,255
 180fab4:	1080080c 	andi	r2,r2,32
 180fab8:	1004c03a 	cmpne	r2,r2,zero
 180fabc:	10000f1e 	bne	r2,zero,180fafc <alt_wait_for_command_to_complete_amd+0xb8>
        (value & 0x20))
    {
      break;
    }
    usleep (1);
 180fac0:	01000044 	movi	r4,1
 180fac4:	180a5240 	call	180a524 <usleep>
    timeout--;
 180fac8:	e0bffb17 	ldw	r2,-20(fp)
 180facc:	10bfffc4 	addi	r2,r2,-1
 180fad0:	e0bffb15 	stw	r2,-20(fp)
    value = IORD_8DIRECT(flash->dev.base_addr, offset);
 180fad4:	e0bffd17 	ldw	r2,-12(fp)
 180fad8:	10800a17 	ldw	r2,40(r2)
 180fadc:	1007883a 	mov	r3,r2
 180fae0:	e0bffe17 	ldw	r2,-8(fp)
 180fae4:	1885883a 	add	r2,r3,r2
 180fae8:	10800023 	ldbuio	r2,0(r2)
 180faec:	e0bffc05 	stb	r2,-16(fp)
  volatile alt_u8  value;
  int timeout = flash->write_timeout * 100;
  int ret_code = 0;
  
  value = IORD_8DIRECT(flash->dev.base_addr, offset);
  while (timeout > 0)
 180faf0:	e0bffb17 	ldw	r2,-20(fp)
 180faf4:	10800048 	cmpgei	r2,r2,1
 180faf8:	103fe61e 	bne	r2,zero,180fa94 <alt_wait_for_command_to_complete_amd+0x50>
    usleep (1);
    timeout--;
    value = IORD_8DIRECT(flash->dev.base_addr, offset);
  }
  
  if (timeout == 0)
 180fafc:	e0bffb17 	ldw	r2,-20(fp)
 180fb00:	1004c03a 	cmpne	r2,r2,zero
 180fb04:	1000031e 	bne	r2,zero,180fb14 <alt_wait_for_command_to_complete_amd+0xd0>
  {
    ret_code = -ETIMEDOUT;
 180fb08:	00bfe304 	movi	r2,-116
 180fb0c:	e0bffa15 	stw	r2,-24(fp)
 180fb10:	00000f06 	br	180fb50 <alt_wait_for_command_to_complete_amd+0x10c>
  }
  else
  {
    value = IORD_8DIRECT(flash->dev.base_addr, offset);
 180fb14:	e0bffd17 	ldw	r2,-12(fp)
 180fb18:	10800a17 	ldw	r2,40(r2)
 180fb1c:	1007883a 	mov	r3,r2
 180fb20:	e0bffe17 	ldw	r2,-8(fp)
 180fb24:	1885883a 	add	r2,r3,r2
 180fb28:	10800023 	ldbuio	r2,0(r2)
 180fb2c:	e0bffc05 	stb	r2,-16(fp)
    if ((value & 0x80) != (data&0x80))
 180fb30:	e0bffc03 	ldbu	r2,-16(fp)
 180fb34:	10803fcc 	andi	r2,r2,255
 180fb38:	10c0200c 	andi	r3,r2,128
 180fb3c:	e0bfff03 	ldbu	r2,-4(fp)
 180fb40:	1080200c 	andi	r2,r2,128
 180fb44:	18800226 	beq	r3,r2,180fb50 <alt_wait_for_command_to_complete_amd+0x10c>
    {
      ret_code = -EIO;
 180fb48:	00bffec4 	movi	r2,-5
 180fb4c:	e0bffa15 	stw	r2,-24(fp)
    }
  }    
  return ret_code;
 180fb50:	e0bffa17 	ldw	r2,-24(fp)
}
 180fb54:	e037883a 	mov	sp,fp
 180fb58:	dfc00117 	ldw	ra,4(sp)
 180fb5c:	df000017 	ldw	fp,0(sp)
 180fb60:	dec00204 	addi	sp,sp,8
 180fb64:	f800283a 	ret

0180fb68 <alt_write_word_amd>:

static int alt_write_word_amd(  alt_flash_cfi_dev* flash, 
                                const int offset, 
                                const alt_u8* src_addr)
{
 180fb68:	defff904 	addi	sp,sp,-28
 180fb6c:	dfc00615 	stw	ra,24(sp)
 180fb70:	df000515 	stw	fp,20(sp)
 180fb74:	df000504 	addi	fp,sp,20
 180fb78:	e13ffd15 	stw	r4,-12(fp)
 180fb7c:	e17ffe15 	stw	r5,-8(fp)
 180fb80:	e1bfff15 	stw	r6,-4(fp)
  int ret_code = 0;
 180fb84:	e03ffc15 	stw	zero,-16(fp)
  alt_u8 value;
  (*flash->write_command)(flash->dev.base_addr, 0x555, (alt_u8)0xAA);
 180fb88:	e0bffd17 	ldw	r2,-12(fp)
 180fb8c:	10c03317 	ldw	r3,204(r2)
 180fb90:	e0bffd17 	ldw	r2,-12(fp)
 180fb94:	11000a17 	ldw	r4,40(r2)
 180fb98:	01415544 	movi	r5,1365
 180fb9c:	01802a84 	movi	r6,170
 180fba0:	183ee83a 	callr	r3
  (*flash->write_command)(flash->dev.base_addr, 0x2AA, (alt_u8)0x55);
 180fba4:	e0bffd17 	ldw	r2,-12(fp)
 180fba8:	10c03317 	ldw	r3,204(r2)
 180fbac:	e0bffd17 	ldw	r2,-12(fp)
 180fbb0:	11000a17 	ldw	r4,40(r2)
 180fbb4:	0140aa84 	movi	r5,682
 180fbb8:	01801544 	movi	r6,85
 180fbbc:	183ee83a 	callr	r3
  (*flash->write_command)(flash->dev.base_addr, 0x555, (alt_u8)0xA0);
 180fbc0:	e0bffd17 	ldw	r2,-12(fp)
 180fbc4:	10c03317 	ldw	r3,204(r2)
 180fbc8:	e0bffd17 	ldw	r2,-12(fp)
 180fbcc:	11000a17 	ldw	r4,40(r2)
 180fbd0:	01415544 	movi	r5,1365
 180fbd4:	01802804 	movi	r6,160
 180fbd8:	183ee83a 	callr	r3
  
  value = *src_addr;
 180fbdc:	e0bfff17 	ldw	r2,-4(fp)
 180fbe0:	10800003 	ldbu	r2,0(r2)
 180fbe4:	e0bffb05 	stb	r2,-20(fp)

  alt_write_value_to_flash(flash, offset, src_addr);
 180fbe8:	e13ffd17 	ldw	r4,-12(fp)
 180fbec:	e17ffe17 	ldw	r5,-8(fp)
 180fbf0:	e1bfff17 	ldw	r6,-4(fp)
 180fbf4:	180ac680 	call	180ac68 <alt_write_value_to_flash>
  
  ret_code = alt_wait_for_command_to_complete_amd(flash, 
 180fbf8:	e1bffb03 	ldbu	r6,-20(fp)
 180fbfc:	e13ffd17 	ldw	r4,-12(fp)
 180fc00:	e17ffe17 	ldw	r5,-8(fp)
 180fc04:	180fa440 	call	180fa44 <alt_wait_for_command_to_complete_amd>
 180fc08:	e0bffc15 	stw	r2,-16(fp)
                                                  offset,
                                                  value);
  return ret_code;
 180fc0c:	e0bffc17 	ldw	r2,-16(fp)
  
}
 180fc10:	e037883a 	mov	sp,fp
 180fc14:	dfc00117 	ldw	ra,4(sp)
 180fc18:	df000017 	ldw	fp,0(sp)
 180fc1c:	dec00204 	addi	sp,sp,8
 180fc20:	f800283a 	ret

0180fc24 <alt_program_intel>:
 * Program a block (or part of one)
 */
int alt_program_intel(alt_flash_dev* flash_info, int block_offset, 
                int offset, const void* src_addr, 
                int length)
{
 180fc24:	defff704 	addi	sp,sp,-36
 180fc28:	dfc00815 	stw	ra,32(sp)
 180fc2c:	df000715 	stw	fp,28(sp)
 180fc30:	df000704 	addi	fp,sp,28
 180fc34:	e13ffc15 	stw	r4,-16(fp)
 180fc38:	e17ffd15 	stw	r5,-12(fp)
 180fc3c:	e1bffe15 	stw	r6,-8(fp)
 180fc40:	e1ffff15 	stw	r7,-4(fp)
  int ret_code = 0;
 180fc44:	e03ffb15 	stw	zero,-20(fp)
  alt_flash_cfi_dev* flash = (alt_flash_cfi_dev*)flash_info;
 180fc48:	e0bffc17 	ldw	r2,-16(fp)
 180fc4c:	e0bffa15 	stw	r2,-24(fp)
  
   /*
  * If this block is locked then unlock it
  */
  ret_code = alt_unlock_block_intel(flash, block_offset);
 180fc50:	e13ffa17 	ldw	r4,-24(fp)
 180fc54:	e17ffd17 	ldw	r5,-12(fp)
 180fc58:	180fe1c0 	call	180fe1c <alt_unlock_block_intel>
 180fc5c:	e0bffb15 	stw	r2,-20(fp)

  if (!ret_code)
 180fc60:	e0bffb17 	ldw	r2,-20(fp)
 180fc64:	1004c03a 	cmpne	r2,r2,zero
 180fc68:	1000091e 	bne	r2,zero,180fc90 <alt_program_intel+0x6c>
  {

    ret_code = alt_flash_program_block( flash, offset, src_addr, length, 
 180fc6c:	e1bfff17 	ldw	r6,-4(fp)
 180fc70:	00806074 	movhi	r2,385
 180fc74:	10bfea04 	addi	r2,r2,-88
 180fc78:	d8800015 	stw	r2,0(sp)
 180fc7c:	e13ffa17 	ldw	r4,-24(fp)
 180fc80:	e17ffe17 	ldw	r5,-8(fp)
 180fc84:	e1c00217 	ldw	r7,8(fp)
 180fc88:	180adcc0 	call	180adcc <alt_flash_program_block>
 180fc8c:	e0bffb15 	stw	r2,-20(fp)
                                        alt_write_word_intel);
  }
  
  return ret_code;
 180fc90:	e0bffb17 	ldw	r2,-20(fp)
}
 180fc94:	e037883a 	mov	sp,fp
 180fc98:	dfc00117 	ldw	ra,4(sp)
 180fc9c:	df000017 	ldw	fp,0(sp)
 180fca0:	dec00204 	addi	sp,sp,8
 180fca4:	f800283a 	ret

0180fca8 <alt_erase_block_intel>:
 * alt_erase_block_intel
 * 
 * Erase the selected erase block
 */
int alt_erase_block_intel(alt_flash_dev* flash_info, int block_offset)
{
 180fca8:	defff804 	addi	sp,sp,-32
 180fcac:	dfc00715 	stw	ra,28(sp)
 180fcb0:	df000615 	stw	fp,24(sp)
 180fcb4:	df000604 	addi	fp,sp,24
 180fcb8:	e13ffe15 	stw	r4,-8(fp)
 180fcbc:	e17fff15 	stw	r5,-4(fp)
  int   ret_code = 0;
 180fcc0:	e03ffc15 	stw	zero,-16(fp)
  alt_flash_cfi_dev* flash = (alt_flash_cfi_dev*)flash_info;
 180fcc4:	e0bffe17 	ldw	r2,-8(fp)
 180fcc8:	e0bffb15 	stw	r2,-20(fp)
  volatile alt_u8  status;
  int   timeout = flash->erase_timeout;
 180fccc:	e0bffb17 	ldw	r2,-20(fp)
 180fcd0:	10803117 	ldw	r2,196(r2)
 180fcd4:	e0bffa15 	stw	r2,-24(fp)

  /*
  * If this block is locked then unlock it
  */
  ret_code = alt_unlock_block_intel(flash, block_offset);
 180fcd8:	e13ffb17 	ldw	r4,-20(fp)
 180fcdc:	e17fff17 	ldw	r5,-4(fp)
 180fce0:	180fe1c0 	call	180fe1c <alt_unlock_block_intel>
 180fce4:	e0bffc15 	stw	r2,-16(fp)

  if (!ret_code)
 180fce8:	e0bffc17 	ldw	r2,-16(fp)
 180fcec:	1004c03a 	cmpne	r2,r2,zero
 180fcf0:	1000441e 	bne	r2,zero,180fe04 <alt_erase_block_intel+0x15c>
  {

    flash->write_native((alt_u8*)flash->dev.base_addr + block_offset, 0x20);
 180fcf4:	e0bffb17 	ldw	r2,-20(fp)
 180fcf8:	11803517 	ldw	r6,212(r2)
 180fcfc:	e0bffb17 	ldw	r2,-20(fp)
 180fd00:	10800a17 	ldw	r2,40(r2)
 180fd04:	1007883a 	mov	r3,r2
 180fd08:	e0bfff17 	ldw	r2,-4(fp)
 180fd0c:	1889883a 	add	r4,r3,r2
 180fd10:	01400804 	movi	r5,32
 180fd14:	303ee83a 	callr	r6
    flash->write_native((alt_u8*)flash->dev.base_addr + block_offset, 0xD0);
 180fd18:	e0bffb17 	ldw	r2,-20(fp)
 180fd1c:	11803517 	ldw	r6,212(r2)
 180fd20:	e0bffb17 	ldw	r2,-20(fp)
 180fd24:	10800a17 	ldw	r2,40(r2)
 180fd28:	1007883a 	mov	r3,r2
 180fd2c:	e0bfff17 	ldw	r2,-4(fp)
 180fd30:	1889883a 	add	r4,r3,r2
 180fd34:	01403404 	movi	r5,208
 180fd38:	303ee83a 	callr	r6

    do
    {
      status = IORD_8DIRECT(flash->dev.base_addr, block_offset);
 180fd3c:	e0bffb17 	ldw	r2,-20(fp)
 180fd40:	10800a17 	ldw	r2,40(r2)
 180fd44:	1007883a 	mov	r3,r2
 180fd48:	e0bfff17 	ldw	r2,-4(fp)
 180fd4c:	1885883a 	add	r2,r3,r2
 180fd50:	10800023 	ldbuio	r2,0(r2)
 180fd54:	e0bffd05 	stb	r2,-12(fp)
      if (status & 0x80)
 180fd58:	e0bffd03 	ldbu	r2,-12(fp)
 180fd5c:	10803fcc 	andi	r2,r2,255
 180fd60:	1080201c 	xori	r2,r2,128
 180fd64:	10bfe004 	addi	r2,r2,-128
 180fd68:	1004803a 	cmplt	r2,r2,zero
 180fd6c:	1000081e 	bne	r2,zero,180fd90 <alt_erase_block_intel+0xe8>
      {
        break;
      }
      usleep(1000);
 180fd70:	0100fa04 	movi	r4,1000
 180fd74:	180a5240 	call	180a524 <usleep>
      timeout -= 1000;
 180fd78:	e0bffa17 	ldw	r2,-24(fp)
 180fd7c:	10bf0604 	addi	r2,r2,-1000
 180fd80:	e0bffa15 	stw	r2,-24(fp)
    }while(timeout > 0);
 180fd84:	e0bffa17 	ldw	r2,-24(fp)
 180fd88:	10800048 	cmpgei	r2,r2,1
 180fd8c:	103feb1e 	bne	r2,zero,180fd3c <alt_erase_block_intel+0x94>
    
    if (timeout <= 0)
 180fd90:	e0bffa17 	ldw	r2,-24(fp)
 180fd94:	10800048 	cmpgei	r2,r2,1
 180fd98:	1000031e 	bne	r2,zero,180fda8 <alt_erase_block_intel+0x100>
    {
      ret_code = -ETIMEDOUT;
 180fd9c:	00bfe304 	movi	r2,-116
 180fda0:	e0bffc15 	stw	r2,-16(fp)
 180fda4:	00000e06 	br	180fde0 <alt_erase_block_intel+0x138>
    }
    else if (status & 0x7f)
 180fda8:	e0bffd03 	ldbu	r2,-12(fp)
 180fdac:	10803fcc 	andi	r2,r2,255
 180fdb0:	10801fcc 	andi	r2,r2,127
 180fdb4:	1005003a 	cmpeq	r2,r2,zero
 180fdb8:	1000091e 	bne	r2,zero,180fde0 <alt_erase_block_intel+0x138>
    {
      /* If we have an error of some kind bomb out */
      ret_code = -EIO;
 180fdbc:	00bffec4 	movi	r2,-5
 180fdc0:	e0bffc15 	stw	r2,-16(fp)
      status = IORD_8DIRECT(flash->dev.base_addr, block_offset);
 180fdc4:	e0bffb17 	ldw	r2,-20(fp)
 180fdc8:	10800a17 	ldw	r2,40(r2)
 180fdcc:	1007883a 	mov	r3,r2
 180fdd0:	e0bfff17 	ldw	r2,-4(fp)
 180fdd4:	1885883a 	add	r2,r3,r2
 180fdd8:	10800023 	ldbuio	r2,0(r2)
 180fddc:	e0bffd05 	stb	r2,-12(fp)
    }

    /* Put the device back into read array mode */
    flash->write_native((alt_u8*)flash->dev.base_addr + block_offset, 0xFF);
 180fde0:	e0bffb17 	ldw	r2,-20(fp)
 180fde4:	11803517 	ldw	r6,212(r2)
 180fde8:	e0bffb17 	ldw	r2,-20(fp)
 180fdec:	10800a17 	ldw	r2,40(r2)
 180fdf0:	1007883a 	mov	r3,r2
 180fdf4:	e0bfff17 	ldw	r2,-4(fp)
 180fdf8:	1889883a 	add	r4,r3,r2
 180fdfc:	01403fc4 	movi	r5,255
 180fe00:	303ee83a 	callr	r6
  }
  
  return ret_code;
 180fe04:	e0bffc17 	ldw	r2,-16(fp)
}
 180fe08:	e037883a 	mov	sp,fp
 180fe0c:	dfc00117 	ldw	ra,4(sp)
 180fe10:	df000017 	ldw	fp,0(sp)
 180fe14:	dec00204 	addi	sp,sp,8
 180fe18:	f800283a 	ret

0180fe1c <alt_unlock_block_intel>:
/*
* Private Intel specific functions
*/

static int alt_unlock_block_intel(alt_flash_cfi_dev* flash, int block_offset)
{
 180fe1c:	defff904 	addi	sp,sp,-28
 180fe20:	dfc00615 	stw	ra,24(sp)
 180fe24:	df000515 	stw	fp,20(sp)
 180fe28:	df000504 	addi	fp,sp,20
 180fe2c:	e13ffe15 	stw	r4,-8(fp)
 180fe30:	e17fff15 	stw	r5,-4(fp)
  alt_u8  locked;
  alt_u8  status;
  int ret_code = 0;
 180fe34:	e03ffc15 	stw	zero,-16(fp)
  int timeout = flash->write_timeout * 100;
 180fe38:	e0bffe17 	ldw	r2,-8(fp)
 180fe3c:	10803017 	ldw	r2,192(r2)
 180fe40:	10801924 	muli	r2,r2,100
 180fe44:	e0bffb15 	stw	r2,-20(fp)


  /*
  * Is this block locked?
  */
  flash->write_native((alt_u8*)flash->dev.base_addr + block_offset, 0x90);
 180fe48:	e0bffe17 	ldw	r2,-8(fp)
 180fe4c:	11803517 	ldw	r6,212(r2)
 180fe50:	e0bffe17 	ldw	r2,-8(fp)
 180fe54:	10800a17 	ldw	r2,40(r2)
 180fe58:	1007883a 	mov	r3,r2
 180fe5c:	e0bfff17 	ldw	r2,-4(fp)
 180fe60:	1889883a 	add	r4,r3,r2
 180fe64:	01402404 	movi	r5,144
 180fe68:	303ee83a 	callr	r6
  locked = IORD_8DIRECT(flash->dev.base_addr, block_offset + 4);
 180fe6c:	e0bffe17 	ldw	r2,-8(fp)
 180fe70:	10800a17 	ldw	r2,40(r2)
 180fe74:	1007883a 	mov	r3,r2
 180fe78:	e0bfff17 	ldw	r2,-4(fp)
 180fe7c:	1885883a 	add	r2,r3,r2
 180fe80:	10800104 	addi	r2,r2,4
 180fe84:	10800023 	ldbuio	r2,0(r2)
 180fe88:	e0bffd45 	stb	r2,-11(fp)
  if (locked & 0x1)
 180fe8c:	e0bffd43 	ldbu	r2,-11(fp)
 180fe90:	1080004c 	andi	r2,r2,1
 180fe94:	10803fcc 	andi	r2,r2,255
 180fe98:	1005003a 	cmpeq	r2,r2,zero
 180fe9c:	1000331e 	bne	r2,zero,180ff6c <alt_unlock_block_intel+0x150>
  {
    flash->write_native((alt_u8*)flash->dev.base_addr + block_offset, 0x60);
 180fea0:	e0bffe17 	ldw	r2,-8(fp)
 180fea4:	11803517 	ldw	r6,212(r2)
 180fea8:	e0bffe17 	ldw	r2,-8(fp)
 180feac:	10800a17 	ldw	r2,40(r2)
 180feb0:	1007883a 	mov	r3,r2
 180feb4:	e0bfff17 	ldw	r2,-4(fp)
 180feb8:	1889883a 	add	r4,r3,r2
 180febc:	01401804 	movi	r5,96
 180fec0:	303ee83a 	callr	r6
    flash->write_native((alt_u8*)flash->dev.base_addr + block_offset, 0xD0);
 180fec4:	e0bffe17 	ldw	r2,-8(fp)
 180fec8:	11803517 	ldw	r6,212(r2)
 180fecc:	e0bffe17 	ldw	r2,-8(fp)
 180fed0:	10800a17 	ldw	r2,40(r2)
 180fed4:	1007883a 	mov	r3,r2
 180fed8:	e0bfff17 	ldw	r2,-4(fp)
 180fedc:	1889883a 	add	r4,r3,r2
 180fee0:	01403404 	movi	r5,208
 180fee4:	303ee83a 	callr	r6

    do
    {
      status = IORD_8DIRECT(flash->dev.base_addr, block_offset);
 180fee8:	e0bffe17 	ldw	r2,-8(fp)
 180feec:	10800a17 	ldw	r2,40(r2)
 180fef0:	1007883a 	mov	r3,r2
 180fef4:	e0bfff17 	ldw	r2,-4(fp)
 180fef8:	1885883a 	add	r2,r3,r2
 180fefc:	10800023 	ldbuio	r2,0(r2)
 180ff00:	e0bffd05 	stb	r2,-12(fp)
      if (status & 0x80)
 180ff04:	e0bffd03 	ldbu	r2,-12(fp)
 180ff08:	10803fcc 	andi	r2,r2,255
 180ff0c:	1080201c 	xori	r2,r2,128
 180ff10:	10bfe004 	addi	r2,r2,-128
 180ff14:	1004803a 	cmplt	r2,r2,zero
 180ff18:	1000081e 	bne	r2,zero,180ff3c <alt_unlock_block_intel+0x120>
      {
        break;
      }
      timeout--;
 180ff1c:	e0bffb17 	ldw	r2,-20(fp)
 180ff20:	10bfffc4 	addi	r2,r2,-1
 180ff24:	e0bffb15 	stw	r2,-20(fp)
      usleep(1);
 180ff28:	01000044 	movi	r4,1
 180ff2c:	180a5240 	call	180a524 <usleep>
    }while(timeout > 0);
 180ff30:	e0bffb17 	ldw	r2,-20(fp)
 180ff34:	10800048 	cmpgei	r2,r2,1
 180ff38:	103feb1e 	bne	r2,zero,180fee8 <alt_unlock_block_intel+0xcc>

    if (timeout == 0)
 180ff3c:	e0bffb17 	ldw	r2,-20(fp)
 180ff40:	1004c03a 	cmpne	r2,r2,zero
 180ff44:	1000031e 	bne	r2,zero,180ff54 <alt_unlock_block_intel+0x138>
    {
      ret_code = -ETIMEDOUT;
 180ff48:	00bfe304 	movi	r2,-116
 180ff4c:	e0bffc15 	stw	r2,-16(fp)
 180ff50:	00000606 	br	180ff6c <alt_unlock_block_intel+0x150>
    }
    else if (status & 0x7f)
 180ff54:	e0bffd03 	ldbu	r2,-12(fp)
 180ff58:	10801fcc 	andi	r2,r2,127
 180ff5c:	1005003a 	cmpeq	r2,r2,zero
 180ff60:	1000021e 	bne	r2,zero,180ff6c <alt_unlock_block_intel+0x150>
    {
      /* If we have an error of some kind bomb out */
      ret_code = -EIO;
 180ff64:	00bffec4 	movi	r2,-5
 180ff68:	e0bffc15 	stw	r2,-16(fp)
  }

  /*
  * Back to Read Array mode
  */
  flash->write_native((alt_u8*)flash->dev.base_addr + block_offset, 0xFF);
 180ff6c:	e0bffe17 	ldw	r2,-8(fp)
 180ff70:	11803517 	ldw	r6,212(r2)
 180ff74:	e0bffe17 	ldw	r2,-8(fp)
 180ff78:	10800a17 	ldw	r2,40(r2)
 180ff7c:	1007883a 	mov	r3,r2
 180ff80:	e0bfff17 	ldw	r2,-4(fp)
 180ff84:	1889883a 	add	r4,r3,r2
 180ff88:	01403fc4 	movi	r5,255
 180ff8c:	303ee83a 	callr	r6

  return ret_code;
 180ff90:	e0bffc17 	ldw	r2,-16(fp)
}
 180ff94:	e037883a 	mov	sp,fp
 180ff98:	dfc00117 	ldw	ra,4(sp)
 180ff9c:	df000017 	ldw	fp,0(sp)
 180ffa0:	dec00204 	addi	sp,sp,8
 180ffa4:	f800283a 	ret

0180ffa8 <alt_write_word_intel>:
 * offset bytes into the flash
 */
 
int alt_write_word_intel( alt_flash_cfi_dev* flash, 
                                  const int offset, const alt_u8* src_addr)
{ 
 180ffa8:	defff904 	addi	sp,sp,-28
 180ffac:	dfc00615 	stw	ra,24(sp)
 180ffb0:	df000515 	stw	fp,20(sp)
 180ffb4:	df000504 	addi	fp,sp,20
 180ffb8:	e13ffd15 	stw	r4,-12(fp)
 180ffbc:	e17ffe15 	stw	r5,-8(fp)
 180ffc0:	e1bfff15 	stw	r6,-4(fp)
  int ret_code = 0;
 180ffc4:	e03ffc15 	stw	zero,-16(fp)
  alt_u8 status;
  (*flash->write_native)((alt_u8*)flash->dev.base_addr+offset, 0x40);
 180ffc8:	e0bffd17 	ldw	r2,-12(fp)
 180ffcc:	11803517 	ldw	r6,212(r2)
 180ffd0:	e0bffd17 	ldw	r2,-12(fp)
 180ffd4:	10800a17 	ldw	r2,40(r2)
 180ffd8:	1007883a 	mov	r3,r2
 180ffdc:	e0bffe17 	ldw	r2,-8(fp)
 180ffe0:	1889883a 	add	r4,r3,r2
 180ffe4:	01401004 	movi	r5,64
 180ffe8:	303ee83a 	callr	r6
  alt_write_value_to_flash(flash, offset, src_addr);
 180ffec:	e13ffd17 	ldw	r4,-12(fp)
 180fff0:	e17ffe17 	ldw	r5,-8(fp)
 180fff4:	e1bfff17 	ldw	r6,-4(fp)
 180fff8:	180ac680 	call	180ac68 <alt_write_value_to_flash>

  do
  {
    status = IORD_8DIRECT(flash->dev.base_addr, offset);
 180fffc:	e0bffd17 	ldw	r2,-12(fp)
 1810000:	10800a17 	ldw	r2,40(r2)
 1810004:	1007883a 	mov	r3,r2
 1810008:	e0bffe17 	ldw	r2,-8(fp)
 181000c:	1885883a 	add	r2,r3,r2
 1810010:	10800023 	ldbuio	r2,0(r2)
 1810014:	e0bffb05 	stb	r2,-20(fp)
  }while(!(status & 0x80));
 1810018:	e0bffb03 	ldbu	r2,-20(fp)
 181001c:	10803fcc 	andi	r2,r2,255
 1810020:	1080201c 	xori	r2,r2,128
 1810024:	10bfe004 	addi	r2,r2,-128
 1810028:	1004403a 	cmpge	r2,r2,zero
 181002c:	103ff31e 	bne	r2,zero,180fffc <alt_write_word_intel+0x54>

  /* If we have an error of some kind bomb out */
  if (status & 0x7f)
 1810030:	e0bffb03 	ldbu	r2,-20(fp)
 1810034:	10801fcc 	andi	r2,r2,127
 1810038:	1005003a 	cmpeq	r2,r2,zero
 181003c:	1000021e 	bne	r2,zero,1810048 <alt_write_word_intel+0xa0>
  {
    ret_code = -EIO;
 1810040:	00bffec4 	movi	r2,-5
 1810044:	e0bffc15 	stw	r2,-16(fp)
  }

  /* Put the device back into read array mode */
  flash->write_native((alt_u8*)flash->dev.base_addr + offset, 0xFF);
 1810048:	e0bffd17 	ldw	r2,-12(fp)
 181004c:	11803517 	ldw	r6,212(r2)
 1810050:	e0bffd17 	ldw	r2,-12(fp)
 1810054:	10800a17 	ldw	r2,40(r2)
 1810058:	1007883a 	mov	r3,r2
 181005c:	e0bffe17 	ldw	r2,-8(fp)
 1810060:	1889883a 	add	r4,r3,r2
 1810064:	01403fc4 	movi	r5,255
 1810068:	303ee83a 	callr	r6
  
  return ret_code;
 181006c:	e0bffc17 	ldw	r2,-16(fp)
}
 1810070:	e037883a 	mov	sp,fp
 1810074:	dfc00117 	ldw	ra,4(sp)
 1810078:	df000017 	ldw	fp,0(sp)
 181007c:	dec00204 	addi	sp,sp,8
 1810080:	f800283a 	ret

01810084 <alt_find_dev>:
 * "name" must be an exact match for the devices registered name for a match to
 * be found.
 */
 
alt_dev* alt_find_dev(const char* name, alt_llist* llist)
{
 1810084:	defff904 	addi	sp,sp,-28
 1810088:	dfc00615 	stw	ra,24(sp)
 181008c:	df000515 	stw	fp,20(sp)
 1810090:	df000504 	addi	fp,sp,20
 1810094:	e13ffd15 	stw	r4,-12(fp)
 1810098:	e17ffe15 	stw	r5,-8(fp)
  alt_dev* next = (alt_dev*) llist->next;
 181009c:	e0bffe17 	ldw	r2,-8(fp)
 18100a0:	10800017 	ldw	r2,0(r2)
 18100a4:	e0bffc15 	stw	r2,-16(fp)
  alt_32 len;

  len  = strlen(name) + 1;
 18100a8:	e13ffd17 	ldw	r4,-12(fp)
 18100ac:	18006980 	call	1800698 <strlen>
 18100b0:	10800044 	addi	r2,r2,1
 18100b4:	e0bffb15 	stw	r2,-20(fp)
  /*
   * Check each list entry in turn, until a match is found, or we reach the
   * end of the list (i.e. next winds up pointing back to the list head).
   */ 

  while (next != (alt_dev*) llist)
 18100b8:	00000d06 	br	18100f0 <alt_find_dev+0x6c>
    /* 
     * memcmp() is used here rather than strcmp() in order to reduce the size
     * of the executable.
     */

    if (!memcmp (next->name, name, len))
 18100bc:	e0bffc17 	ldw	r2,-16(fp)
 18100c0:	11000217 	ldw	r4,8(r2)
 18100c4:	e1bffb17 	ldw	r6,-20(fp)
 18100c8:	e17ffd17 	ldw	r5,-12(fp)
 18100cc:	18104180 	call	1810418 <memcmp>
 18100d0:	1004c03a 	cmpne	r2,r2,zero
 18100d4:	1000031e 	bne	r2,zero,18100e4 <alt_find_dev+0x60>
    {
      /* match found */

      return next;
 18100d8:	e0bffc17 	ldw	r2,-16(fp)
 18100dc:	e0bfff15 	stw	r2,-4(fp)
 18100e0:	00000706 	br	1810100 <alt_find_dev+0x7c>
    }
    next = (alt_dev*) next->llist.next;
 18100e4:	e0bffc17 	ldw	r2,-16(fp)
 18100e8:	10800017 	ldw	r2,0(r2)
 18100ec:	e0bffc15 	stw	r2,-16(fp)
  /*
   * Check each list entry in turn, until a match is found, or we reach the
   * end of the list (i.e. next winds up pointing back to the list head).
   */ 

  while (next != (alt_dev*) llist)
 18100f0:	e0fffe17 	ldw	r3,-8(fp)
 18100f4:	e0bffc17 	ldw	r2,-16(fp)
 18100f8:	10fff01e 	bne	r2,r3,18100bc <alt_find_dev+0x38>
    next = (alt_dev*) next->llist.next;
  }
  
  /* No match found */
  
  return NULL;
 18100fc:	e03fff15 	stw	zero,-4(fp)
 1810100:	e0bfff17 	ldw	r2,-4(fp)
}
 1810104:	e037883a 	mov	sp,fp
 1810108:	dfc00117 	ldw	ra,4(sp)
 181010c:	df000017 	ldw	fp,0(sp)
 1810110:	dec00204 	addi	sp,sp,8
 1810114:	f800283a 	ret

01810118 <alt_find_file>:
 * either '/' or '\0' is the prefix of the filename. For example the filename:
 * "/myfilesystem/junk.txt" would match: "/myfilesystem", but not: "/myfile". 
 */
 
alt_dev* alt_find_file (const char* name)
{
 1810118:	defffa04 	addi	sp,sp,-24
 181011c:	dfc00515 	stw	ra,20(sp)
 1810120:	df000415 	stw	fp,16(sp)
 1810124:	df000404 	addi	fp,sp,16
 1810128:	e13ffe15 	stw	r4,-8(fp)
  alt_dev* next = (alt_dev*) alt_fs_list.next;   
 181012c:	00806074 	movhi	r2,385
 1810130:	108ad104 	addi	r2,r2,11076
 1810134:	10800017 	ldw	r2,0(r2)
 1810138:	e0bffd15 	stw	r2,-12(fp)
  /*
   * Check each list entry in turn, until a match is found, or we reach the
   * end of the list (i.e. next winds up pointing back to the list head).
   */ 
 
  while (next != (alt_dev*) &alt_fs_list)
 181013c:	00003306 	br	181020c <alt_find_file+0xf4>
  {
    len = strlen(next->name);
 1810140:	e0bffd17 	ldw	r2,-12(fp)
 1810144:	11000217 	ldw	r4,8(r2)
 1810148:	18006980 	call	1800698 <strlen>
 181014c:	e0bffc15 	stw	r2,-16(fp)
    
    if (next->name[len-1] == '/')
 1810150:	e0bffd17 	ldw	r2,-12(fp)
 1810154:	10c00217 	ldw	r3,8(r2)
 1810158:	e0bffc17 	ldw	r2,-16(fp)
 181015c:	1885883a 	add	r2,r3,r2
 1810160:	10bfffc4 	addi	r2,r2,-1
 1810164:	10800003 	ldbu	r2,0(r2)
 1810168:	10803fcc 	andi	r2,r2,255
 181016c:	1080201c 	xori	r2,r2,128
 1810170:	10bfe004 	addi	r2,r2,-128
 1810174:	10800bd8 	cmpnei	r2,r2,47
 1810178:	1000031e 	bne	r2,zero,1810188 <alt_find_file+0x70>
    {
      len -= 1;
 181017c:	e0bffc17 	ldw	r2,-16(fp)
 1810180:	10bfffc4 	addi	r2,r2,-1
 1810184:	e0bffc15 	stw	r2,-16(fp)
    }

    if (((name[len] == '/') || (name[len] == '\0')) && 
 1810188:	e0bffc17 	ldw	r2,-16(fp)
 181018c:	1007883a 	mov	r3,r2
 1810190:	e0bffe17 	ldw	r2,-8(fp)
 1810194:	1885883a 	add	r2,r3,r2
 1810198:	10800003 	ldbu	r2,0(r2)
 181019c:	10803fcc 	andi	r2,r2,255
 18101a0:	1080201c 	xori	r2,r2,128
 18101a4:	10bfe004 	addi	r2,r2,-128
 18101a8:	10800be0 	cmpeqi	r2,r2,47
 18101ac:	10000a1e 	bne	r2,zero,18101d8 <alt_find_file+0xc0>
 18101b0:	e0bffc17 	ldw	r2,-16(fp)
 18101b4:	1007883a 	mov	r3,r2
 18101b8:	e0bffe17 	ldw	r2,-8(fp)
 18101bc:	1885883a 	add	r2,r3,r2
 18101c0:	10800003 	ldbu	r2,0(r2)
 18101c4:	10803fcc 	andi	r2,r2,255
 18101c8:	1080201c 	xori	r2,r2,128
 18101cc:	10bfe004 	addi	r2,r2,-128
 18101d0:	1004c03a 	cmpne	r2,r2,zero
 18101d4:	10000a1e 	bne	r2,zero,1810200 <alt_find_file+0xe8>
 18101d8:	e0bffd17 	ldw	r2,-12(fp)
 18101dc:	11000217 	ldw	r4,8(r2)
 18101e0:	e1bffc17 	ldw	r6,-16(fp)
 18101e4:	e17ffe17 	ldw	r5,-8(fp)
 18101e8:	18104180 	call	1810418 <memcmp>
 18101ec:	1004c03a 	cmpne	r2,r2,zero
 18101f0:	1000031e 	bne	r2,zero,1810200 <alt_find_file+0xe8>
        !memcmp (next->name, name, len))
    {
      /* match found */

      return next;
 18101f4:	e0bffd17 	ldw	r2,-12(fp)
 18101f8:	e0bfff15 	stw	r2,-4(fp)
 18101fc:	00000806 	br	1810220 <alt_find_file+0x108>
    }
    next = (alt_dev*) next->llist.next;
 1810200:	e0bffd17 	ldw	r2,-12(fp)
 1810204:	10800017 	ldw	r2,0(r2)
 1810208:	e0bffd15 	stw	r2,-12(fp)
  /*
   * Check each list entry in turn, until a match is found, or we reach the
   * end of the list (i.e. next winds up pointing back to the list head).
   */ 
 
  while (next != (alt_dev*) &alt_fs_list)
 181020c:	00c06074 	movhi	r3,385
 1810210:	18cad104 	addi	r3,r3,11076
 1810214:	e0bffd17 	ldw	r2,-12(fp)
 1810218:	10ffc91e 	bne	r2,r3,1810140 <alt_find_file+0x28>
    next = (alt_dev*) next->llist.next;
  }
  
  /* No match found */
  
  return NULL;     
 181021c:	e03fff15 	stw	zero,-4(fp)
 1810220:	e0bfff17 	ldw	r2,-4(fp)
}
 1810224:	e037883a 	mov	sp,fp
 1810228:	dfc00117 	ldw	ra,4(sp)
 181022c:	df000017 	ldw	fp,0(sp)
 1810230:	dec00204 	addi	sp,sp,8
 1810234:	f800283a 	ret

01810238 <alt_get_fd>:
 * the offset of the file descriptor within the file descriptor array). A
 * negative value indicates failure.
 */

int alt_get_fd (alt_dev* dev)
{
 1810238:	defffc04 	addi	sp,sp,-16
 181023c:	df000315 	stw	fp,12(sp)
 1810240:	df000304 	addi	fp,sp,12
 1810244:	e13fff15 	stw	r4,-4(fp)
  alt_32 i;
  int rc = -EMFILE;
 1810248:	00bffa04 	movi	r2,-24
 181024c:	e0bffd15 	stw	r2,-12(fp)
   * indicates the highest file descriptor ever allocated. This is used to
   * improve efficency when searching the file descriptor list, and 
   * therefore reduce contention on the alt_fd_list_lock semaphore. 
   */

  for (i = 0; i < ALT_MAX_FD; i++)
 1810250:	e03ffe15 	stw	zero,-8(fp)
 1810254:	00001e06 	br	18102d0 <alt_get_fd+0x98>
  {
    if (!alt_fd_list[i].dev)
 1810258:	e0bffe17 	ldw	r2,-8(fp)
 181025c:	00c06074 	movhi	r3,385
 1810260:	18c5a404 	addi	r3,r3,5776
 1810264:	10800324 	muli	r2,r2,12
 1810268:	10c5883a 	add	r2,r2,r3
 181026c:	10800017 	ldw	r2,0(r2)
 1810270:	1004c03a 	cmpne	r2,r2,zero
 1810274:	1000131e 	bne	r2,zero,18102c4 <alt_get_fd+0x8c>
    {
      alt_fd_list[i].dev = dev;
 1810278:	e0bffe17 	ldw	r2,-8(fp)
 181027c:	00c06074 	movhi	r3,385
 1810280:	18c5a404 	addi	r3,r3,5776
 1810284:	10800324 	muli	r2,r2,12
 1810288:	10c7883a 	add	r3,r2,r3
 181028c:	e0bfff17 	ldw	r2,-4(fp)
 1810290:	18800015 	stw	r2,0(r3)
      if (i > alt_max_fd)
 1810294:	00806074 	movhi	r2,385
 1810298:	108ad504 	addi	r2,r2,11092
 181029c:	10c00017 	ldw	r3,0(r2)
 18102a0:	e0bffe17 	ldw	r2,-8(fp)
 18102a4:	1880040e 	bge	r3,r2,18102b8 <alt_get_fd+0x80>
      {
        alt_max_fd = i;
 18102a8:	00c06074 	movhi	r3,385
 18102ac:	18cad504 	addi	r3,r3,11092
 18102b0:	e0bffe17 	ldw	r2,-8(fp)
 18102b4:	18800015 	stw	r2,0(r3)
      }
      rc = i;
 18102b8:	e0bffe17 	ldw	r2,-8(fp)
 18102bc:	e0bffd15 	stw	r2,-12(fp)
      goto alt_get_fd_exit;
 18102c0:	00000606 	br	18102dc <alt_get_fd+0xa4>
   * indicates the highest file descriptor ever allocated. This is used to
   * improve efficency when searching the file descriptor list, and 
   * therefore reduce contention on the alt_fd_list_lock semaphore. 
   */

  for (i = 0; i < ALT_MAX_FD; i++)
 18102c4:	e0bffe17 	ldw	r2,-8(fp)
 18102c8:	10800044 	addi	r2,r2,1
 18102cc:	e0bffe15 	stw	r2,-8(fp)
 18102d0:	e0bffe17 	ldw	r2,-8(fp)
 18102d4:	10800810 	cmplti	r2,r2,32
 18102d8:	103fdf1e 	bne	r2,zero,1810258 <alt_get_fd+0x20>
   * file descriptor pool.
   */

  ALT_SEM_POST(alt_fd_list_lock);

  return rc;
 18102dc:	e0bffd17 	ldw	r2,-12(fp)
}
 18102e0:	e037883a 	mov	sp,fp
 18102e4:	df000017 	ldw	fp,0(sp)
 18102e8:	dec00104 	addi	sp,sp,4
 18102ec:	f800283a 	ret

018102f0 <alt_exception_cause_generated_bad_addr>:
 *
 * Return: 1: BADADDR (bad_addr argument to handler) is valid
 *         0: BADADDR is not valid
 */
int alt_exception_cause_generated_bad_addr(alt_exception_cause cause)
{
 18102f0:	defffc04 	addi	sp,sp,-16
 18102f4:	df000315 	stw	fp,12(sp)
 18102f8:	df000304 	addi	fp,sp,12
 18102fc:	e13ffd15 	stw	r4,-12(fp)
  switch (cause) {
 1810300:	e0bffd17 	ldw	r2,-12(fp)
 1810304:	10bffe84 	addi	r2,r2,-6
 1810308:	e0bfff15 	stw	r2,-4(fp)
 181030c:	e0ffff17 	ldw	r3,-4(fp)
 1810310:	18800328 	cmpgeui	r2,r3,12
 1810314:	1000271e 	bne	r2,zero,18103b4 <alt_exception_cause_generated_bad_addr+0xc4>
 1810318:	e13fff17 	ldw	r4,-4(fp)
 181031c:	e13fff17 	ldw	r4,-4(fp)
 1810320:	2105883a 	add	r2,r4,r4
 1810324:	1087883a 	add	r3,r2,r2
 1810328:	00806074 	movhi	r2,385
 181032c:	1080cf04 	addi	r2,r2,828
 1810330:	1885883a 	add	r2,r3,r2
 1810334:	10800017 	ldw	r2,0(r2)
 1810338:	1000683a 	jmp	r2
 181033c:	01810378 	rdprs	r6,zero,1037
 1810340:	01810384 	movi	r6,1038
 1810344:	018103b4 	movhi	r6,1038
 1810348:	018103b4 	movhi	r6,1038
 181034c:	018103b4 	movhi	r6,1038
 1810350:	0181036c 	andhi	r6,zero,1037
 1810354:	018103b4 	movhi	r6,1038
 1810358:	018103b4 	movhi	r6,1038
 181035c:	01810390 	cmplti	r6,zero,1038
 1810360:	0181039c 	xori	r6,zero,1038
 1810364:	018103b4 	movhi	r6,1038
 1810368:	018103a8 	cmpgeui	r6,zero,1038
  case NIOS2_EXCEPTION_SUPERVISOR_ONLY_DATA_ADDR:
    return 1;
 181036c:	00800044 	movi	r2,1
 1810370:	e0bffe15 	stw	r2,-8(fp)
 1810374:	00001006 	br	18103b8 <alt_exception_cause_generated_bad_addr+0xc8>
  case NIOS2_EXCEPTION_MISALIGNED_DATA_ADDR:
    return 1;
 1810378:	00c00044 	movi	r3,1
 181037c:	e0fffe15 	stw	r3,-8(fp)
 1810380:	00000d06 	br	18103b8 <alt_exception_cause_generated_bad_addr+0xc8>
  case NIOS2_EXCEPTION_MISALIGNED_TARGET_PC:
    return 1;
 1810384:	01000044 	movi	r4,1
 1810388:	e13ffe15 	stw	r4,-8(fp)
 181038c:	00000a06 	br	18103b8 <alt_exception_cause_generated_bad_addr+0xc8>
  case NIOS2_EXCEPTION_TLB_READ_PERM_VIOLATION:
    return 1;
 1810390:	00800044 	movi	r2,1
 1810394:	e0bffe15 	stw	r2,-8(fp)
 1810398:	00000706 	br	18103b8 <alt_exception_cause_generated_bad_addr+0xc8>
  case NIOS2_EXCEPTION_TLB_WRITE_PERM_VIOLATION:
    return 1;
 181039c:	00c00044 	movi	r3,1
 18103a0:	e0fffe15 	stw	r3,-8(fp)
 18103a4:	00000406 	br	18103b8 <alt_exception_cause_generated_bad_addr+0xc8>
  case NIOS2_EXCEPTION_MPU_DATA_REGION_VIOLATION:
    return 1;
 18103a8:	01000044 	movi	r4,1
 18103ac:	e13ffe15 	stw	r4,-8(fp)
 18103b0:	00000106 	br	18103b8 <alt_exception_cause_generated_bad_addr+0xc8>
  default:
    return 0;
 18103b4:	e03ffe15 	stw	zero,-8(fp)
 18103b8:	e0bffe17 	ldw	r2,-8(fp)
  }
}
 18103bc:	e037883a 	mov	sp,fp
 18103c0:	df000017 	ldw	fp,0(sp)
 18103c4:	dec00104 	addi	sp,sp,4
 18103c8:	f800283a 	ret

018103cc <atexit>:
 18103cc:	200b883a 	mov	r5,r4
 18103d0:	000d883a 	mov	r6,zero
 18103d4:	0009883a 	mov	r4,zero
 18103d8:	000f883a 	mov	r7,zero
 18103dc:	181048c1 	jmpi	181048c <__register_exitproc>

018103e0 <exit>:
 18103e0:	defffe04 	addi	sp,sp,-8
 18103e4:	000b883a 	mov	r5,zero
 18103e8:	dc000015 	stw	r16,0(sp)
 18103ec:	dfc00115 	stw	ra,4(sp)
 18103f0:	2021883a 	mov	r16,r4
 18103f4:	18105c40 	call	18105c4 <__call_exitprocs>
 18103f8:	00806074 	movhi	r2,385
 18103fc:	108acc04 	addi	r2,r2,11056
 1810400:	11000017 	ldw	r4,0(r2)
 1810404:	20800f17 	ldw	r2,60(r4)
 1810408:	10000126 	beq	r2,zero,1810410 <exit+0x30>
 181040c:	103ee83a 	callr	r2
 1810410:	8009883a 	mov	r4,r16
 1810414:	18107b40 	call	18107b4 <_exit>

01810418 <memcmp>:
 1810418:	00c000c4 	movi	r3,3
 181041c:	1980032e 	bgeu	r3,r6,181042c <memcmp+0x14>
 1810420:	2144b03a 	or	r2,r4,r5
 1810424:	10c4703a 	and	r2,r2,r3
 1810428:	10000f26 	beq	r2,zero,1810468 <memcmp+0x50>
 181042c:	31ffffc4 	addi	r7,r6,-1
 1810430:	3000061e 	bne	r6,zero,181044c <memcmp+0x34>
 1810434:	00000a06 	br	1810460 <memcmp+0x48>
 1810438:	39ffffc4 	addi	r7,r7,-1
 181043c:	00bfffc4 	movi	r2,-1
 1810440:	21000044 	addi	r4,r4,1
 1810444:	29400044 	addi	r5,r5,1
 1810448:	38800526 	beq	r7,r2,1810460 <memcmp+0x48>
 181044c:	20c00003 	ldbu	r3,0(r4)
 1810450:	28800003 	ldbu	r2,0(r5)
 1810454:	18bff826 	beq	r3,r2,1810438 <memcmp+0x20>
 1810458:	1885c83a 	sub	r2,r3,r2
 181045c:	f800283a 	ret
 1810460:	0005883a 	mov	r2,zero
 1810464:	f800283a 	ret
 1810468:	180f883a 	mov	r7,r3
 181046c:	20c00017 	ldw	r3,0(r4)
 1810470:	28800017 	ldw	r2,0(r5)
 1810474:	18bfed1e 	bne	r3,r2,181042c <memcmp+0x14>
 1810478:	31bfff04 	addi	r6,r6,-4
 181047c:	21000104 	addi	r4,r4,4
 1810480:	29400104 	addi	r5,r5,4
 1810484:	39bff936 	bltu	r7,r6,181046c <memcmp+0x54>
 1810488:	003fe806 	br	181042c <memcmp+0x14>

0181048c <__register_exitproc>:
 181048c:	defffa04 	addi	sp,sp,-24
 1810490:	00806074 	movhi	r2,385
 1810494:	108acc04 	addi	r2,r2,11056
 1810498:	dc000015 	stw	r16,0(sp)
 181049c:	14000017 	ldw	r16,0(r2)
 18104a0:	dd000415 	stw	r20,16(sp)
 18104a4:	2829883a 	mov	r20,r5
 18104a8:	81405217 	ldw	r5,328(r16)
 18104ac:	dcc00315 	stw	r19,12(sp)
 18104b0:	dc800215 	stw	r18,8(sp)
 18104b4:	dc400115 	stw	r17,4(sp)
 18104b8:	dfc00515 	stw	ra,20(sp)
 18104bc:	2023883a 	mov	r17,r4
 18104c0:	3027883a 	mov	r19,r6
 18104c4:	3825883a 	mov	r18,r7
 18104c8:	28002526 	beq	r5,zero,1810560 <__register_exitproc+0xd4>
 18104cc:	29000117 	ldw	r4,4(r5)
 18104d0:	008007c4 	movi	r2,31
 18104d4:	11002716 	blt	r2,r4,1810574 <__register_exitproc+0xe8>
 18104d8:	8800101e 	bne	r17,zero,181051c <__register_exitproc+0x90>
 18104dc:	2105883a 	add	r2,r4,r4
 18104e0:	1085883a 	add	r2,r2,r2
 18104e4:	20c00044 	addi	r3,r4,1
 18104e8:	1145883a 	add	r2,r2,r5
 18104ec:	0009883a 	mov	r4,zero
 18104f0:	15000215 	stw	r20,8(r2)
 18104f4:	28c00115 	stw	r3,4(r5)
 18104f8:	2005883a 	mov	r2,r4
 18104fc:	dfc00517 	ldw	ra,20(sp)
 1810500:	dd000417 	ldw	r20,16(sp)
 1810504:	dcc00317 	ldw	r19,12(sp)
 1810508:	dc800217 	ldw	r18,8(sp)
 181050c:	dc400117 	ldw	r17,4(sp)
 1810510:	dc000017 	ldw	r16,0(sp)
 1810514:	dec00604 	addi	sp,sp,24
 1810518:	f800283a 	ret
 181051c:	29802204 	addi	r6,r5,136
 1810520:	00800044 	movi	r2,1
 1810524:	110e983a 	sll	r7,r2,r4
 1810528:	30c04017 	ldw	r3,256(r6)
 181052c:	2105883a 	add	r2,r4,r4
 1810530:	1085883a 	add	r2,r2,r2
 1810534:	1185883a 	add	r2,r2,r6
 1810538:	19c6b03a 	or	r3,r3,r7
 181053c:	14802015 	stw	r18,128(r2)
 1810540:	14c00015 	stw	r19,0(r2)
 1810544:	00800084 	movi	r2,2
 1810548:	30c04015 	stw	r3,256(r6)
 181054c:	88bfe31e 	bne	r17,r2,18104dc <__register_exitproc+0x50>
 1810550:	30804117 	ldw	r2,260(r6)
 1810554:	11c4b03a 	or	r2,r2,r7
 1810558:	30804115 	stw	r2,260(r6)
 181055c:	003fdf06 	br	18104dc <__register_exitproc+0x50>
 1810560:	00806074 	movhi	r2,385
 1810564:	108b3704 	addi	r2,r2,11484
 1810568:	100b883a 	mov	r5,r2
 181056c:	80805215 	stw	r2,328(r16)
 1810570:	003fd606 	br	18104cc <__register_exitproc+0x40>
 1810574:	00800034 	movhi	r2,0
 1810578:	10800004 	addi	r2,r2,0
 181057c:	1000021e 	bne	r2,zero,1810588 <__register_exitproc+0xfc>
 1810580:	013fffc4 	movi	r4,-1
 1810584:	003fdc06 	br	18104f8 <__register_exitproc+0x6c>
 1810588:	01006404 	movi	r4,400
 181058c:	103ee83a 	callr	r2
 1810590:	1007883a 	mov	r3,r2
 1810594:	103ffa26 	beq	r2,zero,1810580 <__register_exitproc+0xf4>
 1810598:	80805217 	ldw	r2,328(r16)
 181059c:	180b883a 	mov	r5,r3
 18105a0:	18000115 	stw	zero,4(r3)
 18105a4:	18800015 	stw	r2,0(r3)
 18105a8:	80c05215 	stw	r3,328(r16)
 18105ac:	18006215 	stw	zero,392(r3)
 18105b0:	18006315 	stw	zero,396(r3)
 18105b4:	0009883a 	mov	r4,zero
 18105b8:	883fc826 	beq	r17,zero,18104dc <__register_exitproc+0x50>
 18105bc:	003fd706 	br	181051c <__register_exitproc+0x90>

018105c0 <register_fini>:
 18105c0:	f800283a 	ret

018105c4 <__call_exitprocs>:
 18105c4:	00806074 	movhi	r2,385
 18105c8:	108acc04 	addi	r2,r2,11056
 18105cc:	10800017 	ldw	r2,0(r2)
 18105d0:	defff304 	addi	sp,sp,-52
 18105d4:	df000b15 	stw	fp,44(sp)
 18105d8:	d8800115 	stw	r2,4(sp)
 18105dc:	00800034 	movhi	r2,0
 18105e0:	10800004 	addi	r2,r2,0
 18105e4:	1005003a 	cmpeq	r2,r2,zero
 18105e8:	d8800215 	stw	r2,8(sp)
 18105ec:	d8800117 	ldw	r2,4(sp)
 18105f0:	dd400815 	stw	r21,32(sp)
 18105f4:	dd000715 	stw	r20,28(sp)
 18105f8:	10805204 	addi	r2,r2,328
 18105fc:	dfc00c15 	stw	ra,48(sp)
 1810600:	ddc00a15 	stw	r23,40(sp)
 1810604:	dd800915 	stw	r22,36(sp)
 1810608:	dcc00615 	stw	r19,24(sp)
 181060c:	dc800515 	stw	r18,20(sp)
 1810610:	dc400415 	stw	r17,16(sp)
 1810614:	dc000315 	stw	r16,12(sp)
 1810618:	282b883a 	mov	r21,r5
 181061c:	2039883a 	mov	fp,r4
 1810620:	d8800015 	stw	r2,0(sp)
 1810624:	2829003a 	cmpeq	r20,r5,zero
 1810628:	d8800117 	ldw	r2,4(sp)
 181062c:	14405217 	ldw	r17,328(r2)
 1810630:	88001026 	beq	r17,zero,1810674 <__call_exitprocs+0xb0>
 1810634:	ddc00017 	ldw	r23,0(sp)
 1810638:	88800117 	ldw	r2,4(r17)
 181063c:	8c802204 	addi	r18,r17,136
 1810640:	143fffc4 	addi	r16,r2,-1
 1810644:	80000916 	blt	r16,zero,181066c <__call_exitprocs+0xa8>
 1810648:	05bfffc4 	movi	r22,-1
 181064c:	a000151e 	bne	r20,zero,18106a4 <__call_exitprocs+0xe0>
 1810650:	8409883a 	add	r4,r16,r16
 1810654:	2105883a 	add	r2,r4,r4
 1810658:	1485883a 	add	r2,r2,r18
 181065c:	10c02017 	ldw	r3,128(r2)
 1810660:	a8c01126 	beq	r21,r3,18106a8 <__call_exitprocs+0xe4>
 1810664:	843fffc4 	addi	r16,r16,-1
 1810668:	85bff81e 	bne	r16,r22,181064c <__call_exitprocs+0x88>
 181066c:	d8800217 	ldw	r2,8(sp)
 1810670:	10003126 	beq	r2,zero,1810738 <__call_exitprocs+0x174>
 1810674:	dfc00c17 	ldw	ra,48(sp)
 1810678:	df000b17 	ldw	fp,44(sp)
 181067c:	ddc00a17 	ldw	r23,40(sp)
 1810680:	dd800917 	ldw	r22,36(sp)
 1810684:	dd400817 	ldw	r21,32(sp)
 1810688:	dd000717 	ldw	r20,28(sp)
 181068c:	dcc00617 	ldw	r19,24(sp)
 1810690:	dc800517 	ldw	r18,20(sp)
 1810694:	dc400417 	ldw	r17,16(sp)
 1810698:	dc000317 	ldw	r16,12(sp)
 181069c:	dec00d04 	addi	sp,sp,52
 18106a0:	f800283a 	ret
 18106a4:	8409883a 	add	r4,r16,r16
 18106a8:	88c00117 	ldw	r3,4(r17)
 18106ac:	2105883a 	add	r2,r4,r4
 18106b0:	1445883a 	add	r2,r2,r17
 18106b4:	18ffffc4 	addi	r3,r3,-1
 18106b8:	11800217 	ldw	r6,8(r2)
 18106bc:	1c001526 	beq	r3,r16,1810714 <__call_exitprocs+0x150>
 18106c0:	10000215 	stw	zero,8(r2)
 18106c4:	303fe726 	beq	r6,zero,1810664 <__call_exitprocs+0xa0>
 18106c8:	00c00044 	movi	r3,1
 18106cc:	1c06983a 	sll	r3,r3,r16
 18106d0:	90804017 	ldw	r2,256(r18)
 18106d4:	8cc00117 	ldw	r19,4(r17)
 18106d8:	1884703a 	and	r2,r3,r2
 18106dc:	10001426 	beq	r2,zero,1810730 <__call_exitprocs+0x16c>
 18106e0:	90804117 	ldw	r2,260(r18)
 18106e4:	1884703a 	and	r2,r3,r2
 18106e8:	10000c1e 	bne	r2,zero,181071c <__call_exitprocs+0x158>
 18106ec:	2105883a 	add	r2,r4,r4
 18106f0:	1485883a 	add	r2,r2,r18
 18106f4:	11400017 	ldw	r5,0(r2)
 18106f8:	e009883a 	mov	r4,fp
 18106fc:	303ee83a 	callr	r6
 1810700:	88800117 	ldw	r2,4(r17)
 1810704:	98bfc81e 	bne	r19,r2,1810628 <__call_exitprocs+0x64>
 1810708:	b8800017 	ldw	r2,0(r23)
 181070c:	147fd526 	beq	r2,r17,1810664 <__call_exitprocs+0xa0>
 1810710:	003fc506 	br	1810628 <__call_exitprocs+0x64>
 1810714:	8c000115 	stw	r16,4(r17)
 1810718:	003fea06 	br	18106c4 <__call_exitprocs+0x100>
 181071c:	2105883a 	add	r2,r4,r4
 1810720:	1485883a 	add	r2,r2,r18
 1810724:	11000017 	ldw	r4,0(r2)
 1810728:	303ee83a 	callr	r6
 181072c:	003ff406 	br	1810700 <__call_exitprocs+0x13c>
 1810730:	303ee83a 	callr	r6
 1810734:	003ff206 	br	1810700 <__call_exitprocs+0x13c>
 1810738:	88800117 	ldw	r2,4(r17)
 181073c:	1000081e 	bne	r2,zero,1810760 <__call_exitprocs+0x19c>
 1810740:	89000017 	ldw	r4,0(r17)
 1810744:	20000726 	beq	r4,zero,1810764 <__call_exitprocs+0x1a0>
 1810748:	b9000015 	stw	r4,0(r23)
 181074c:	8809883a 	mov	r4,r17
 1810750:	00000000 	call	0 <__alt_mem_sdram-0x1800000>
 1810754:	bc400017 	ldw	r17,0(r23)
 1810758:	883fb71e 	bne	r17,zero,1810638 <__call_exitprocs+0x74>
 181075c:	003fc506 	br	1810674 <__call_exitprocs+0xb0>
 1810760:	89000017 	ldw	r4,0(r17)
 1810764:	882f883a 	mov	r23,r17
 1810768:	2023883a 	mov	r17,r4
 181076c:	883fb21e 	bne	r17,zero,1810638 <__call_exitprocs+0x74>
 1810770:	003fc006 	br	1810674 <__call_exitprocs+0xb0>

01810774 <alt_sim_halt>:

/*
 * Routine called on exit.
 */
static ALT_ALWAYS_INLINE void alt_sim_halt(int exit_code)
{
 1810774:	defffd04 	addi	sp,sp,-12
 1810778:	df000215 	stw	fp,8(sp)
 181077c:	df000204 	addi	fp,sp,8
 1810780:	e13fff15 	stw	r4,-4(fp)
  int r2 = exit_code;
 1810784:	e0bfff17 	ldw	r2,-4(fp)
 1810788:	e0bffe15 	stw	r2,-8(fp)
  __asm__ volatile ("\n0:\n\taddi %0,%0, -1\n\tbgt %0,zero,0b" : : "r" (ALT_CPU_FREQ/100) ); /* Delay for >30ms */

  __asm__ volatile ("break 2" : : "D02"(r2), "D03"(r3) ALT_GMON_DATA );

#else /* !DEBUG_STUB */
  if (r2) {
 181078c:	e0bffe17 	ldw	r2,-8(fp)
 1810790:	1005003a 	cmpeq	r2,r2,zero
 1810794:	1000021e 	bne	r2,zero,18107a0 <alt_sim_halt+0x2c>
    ALT_SIM_FAIL();
 1810798:	002af070 	cmpltui	zero,zero,43969
 181079c:	00000106 	br	18107a4 <alt_sim_halt+0x30>
  } else {
    ALT_SIM_PASS();
 18107a0:	002af0b0 	cmpltui	zero,zero,43970
  }
#endif /* DEBUG_STUB */
}
 18107a4:	e037883a 	mov	sp,fp
 18107a8:	df000017 	ldw	fp,0(sp)
 18107ac:	dec00104 	addi	sp,sp,4
 18107b0:	f800283a 	ret

018107b4 <_exit>:
 *
 * ALT_EXIT is mapped onto the _exit() system call in alt_syscall.h
 */

void ALT_EXIT (int exit_code)
{
 18107b4:	defffd04 	addi	sp,sp,-12
 18107b8:	dfc00215 	stw	ra,8(sp)
 18107bc:	df000115 	stw	fp,4(sp)
 18107c0:	df000104 	addi	fp,sp,4
 18107c4:	e13fff15 	stw	r4,-4(fp)
  ALT_OS_STOP();

  /* Provide notification to the simulator that we've stopped */

  ALT_LOG_PRINT_BOOT("[alt_exit.c] Calling ALT_SIM_HALT().\r\n");
  ALT_SIM_HALT(exit_code);
 18107c8:	e13fff17 	ldw	r4,-4(fp)
 18107cc:	18107740 	call	1810774 <alt_sim_halt>

  /* spin forever, since there's no where to go back to */

  ALT_LOG_PRINT_BOOT("[alt_exit.c] Spinning forever.\r\n");
  while (1);
 18107d0:	003fff06 	br	18107d0 <_exit+0x1c>
 18107d4:	00000010 	cmplti	zero,zero,0
 18107d8:	00000000 	call	0 <__alt_mem_sdram-0x1800000>
 18107dc:	00527a01 	jmpi	527a0 <__alt_mem_sdram-0x17ad860>
 18107e0:	011f7c01 	jmpi	11f7c0 <__alt_mem_sdram-0x16e0840>
 18107e4:	001b0c0b 	ldhu	zero,27696(zero)
 18107e8:	00000028 	cmpgeui	zero,zero,0
 18107ec:	00000018 	cmpnei	zero,zero,0
 18107f0:	01807880 	call	180788 <__alt_mem_sdram-0x167f878>
 18107f4:	000005dc 	xori	zero,zero,23
 18107f8:	400e4400 	call	400e440 <alt_instruction_exception_entry+0x180627c>
 18107fc:	92099170 	cmpltui	r8,r18,9797
 1810800:	95079308 	cmpgei	r20,r18,7756
 1810804:	97049605 	stb	fp,4696(r18)
 1810808:	90019f03 	ldbu	zero,1660(r18)
 181080c:	9c06940a 	0x9c06940a
 1810810:	00000002 	0x2
 1810814:	00000028 	cmpgeui	zero,zero,0
 1810818:	00000044 	movi	zero,1
 181081c:	01807e5c 	xori	r6,zero,505
 1810820:	000005b0 	cmpltui	zero,zero,22
 1810824:	3c0e4400 	call	3c0e440 <alt_instruction_exception_entry+0x140627c>
 1810828:	92099168 	cmpgeui	r8,r18,9797
 181082c:	95079308 	cmpgei	r20,r18,7756
 1810830:	9c039705 	stb	r16,3676(r19)
 1810834:	90019f02 	0x90019f02
 1810838:	9606940a 	0x9606940a
 181083c:	00000004 	movi	zero,0
 1810840:	018105c0 	call	18105c <__alt_mem_sdram-0x167efa4>
