
HelloWorldnew.elf:     file format elf32-littlenios2
HelloWorldnew.elf
architecture: nios2, flags 0x00000112:
EXEC_P, HAS_SYMS, D_PAGED
start address 0x01800000

Program Header:
    LOAD off    0x00001000 vaddr 0x01800000 paddr 0x01800000 align 2**12
         filesz 0x0001322c memsz 0x0001351c flags rwx
    LOAD off    0x00015000 vaddr 0x02400000 paddr 0x02400000 align 2**12
         filesz 0x00000000 memsz 0x00000000 flags r-x
    LOAD off    0x00015020 vaddr 0x02808020 paddr 0x02808020 align 2**12
         filesz 0x0000020c memsz 0x0000020c flags r-x

Sections:
Idx Name          Size      VMA       LMA       File off  Algn
  0 .entry        00000000  02400000  02400000  00015000  2**5
                  CONTENTS, ALLOC, LOAD, READONLY, CODE
  1 .exceptions   0000020c  02808020  02808020  00015020  2**2
                  CONTENTS, ALLOC, LOAD, READONLY, CODE
  2 .text         00010f08  01800000  01800000  00001000  2**2
                  CONTENTS, ALLOC, LOAD, READONLY, CODE
  3 .rodata       000005fc  01810f08  01810f08  00011f08  2**2
                  CONTENTS, ALLOC, LOAD, READONLY, DATA
  4 .rwdata       00001d28  01811504  01811504  00012504  2**2
                  CONTENTS, ALLOC, LOAD, DATA, SMALL_DATA
  5 .bss          000002f0  0181322c  0181322c  0001422c  2**2
                  ALLOC, SMALL_DATA
  6 .comment      00000026  00000000  00000000  0001522c  2**0
                  CONTENTS, READONLY
  7 .debug_aranges 00000ed8  00000000  00000000  00015258  2**3
                  CONTENTS, READONLY, DEBUGGING
  8 .debug_pubnames 00001aa2  00000000  00000000  00016130  2**0
                  CONTENTS, READONLY, DEBUGGING
  9 .debug_info   0002a264  00000000  00000000  00017bd2  2**0
                  CONTENTS, READONLY, DEBUGGING
 10 .debug_abbrev 000091bc  00000000  00000000  00041e36  2**0
                  CONTENTS, READONLY, DEBUGGING
 11 .debug_line   000174cb  00000000  00000000  0004aff2  2**0
                  CONTENTS, READONLY, DEBUGGING
 12 .debug_frame  0000207c  00000000  00000000  000624c0  2**2
                  CONTENTS, READONLY, DEBUGGING
 13 .debug_str    00002598  00000000  00000000  0006453c  2**0
                  CONTENTS, READONLY, DEBUGGING
 14 .debug_loc    0000cc7a  00000000  00000000  00066ad4  2**0
                  CONTENTS, READONLY, DEBUGGING
 15 .debug_alt_sim_info 00000050  00000000  00000000  00073750  2**2
                  CONTENTS, READONLY, DEBUGGING
 16 .debug_ranges 00000a18  00000000  00000000  000737a0  2**3
                  CONTENTS, READONLY, DEBUGGING
 17 .thread_model 00000003  00000000  00000000  00077d3d  2**0
                  CONTENTS, READONLY
 18 .cpu          00000003  00000000  00000000  00077d40  2**0
                  CONTENTS, READONLY
 19 .simulation_enabled 00000001  00000000  00000000  00077d43  2**0
                  CONTENTS, READONLY
 20 .sysid_hash   00000004  00000000  00000000  00077d44  2**0
                  CONTENTS, READONLY
 21 .sysid_base   00000004  00000000  00000000  00077d48  2**0
                  CONTENTS, READONLY
 22 .sysid_time   00000004  00000000  00000000  00077d4c  2**0
                  CONTENTS, READONLY
 23 .stderr_dev   00000009  00000000  00000000  00077d50  2**0
                  CONTENTS, READONLY
 24 .stdin_dev    00000009  00000000  00000000  00077d59  2**0
                  CONTENTS, READONLY
 25 .stdout_dev   00000009  00000000  00000000  00077d62  2**0
                  CONTENTS, READONLY
 26 .sopc_system_name 00000008  00000000  00000000  00077d6b  2**0
                  CONTENTS, READONLY
 27 .quartus_project_dir 00000052  00000000  00000000  00077d73  2**0
                  CONTENTS, READONLY
 28 .jdi          00004101  00000000  00000000  00077dc5  2**0
                  CONTENTS, READONLY
 29 .sopcinfo     000c4d50  00000000  00000000  0007bec6  2**0
                  CONTENTS, READONLY
SYMBOL TABLE:
02400000 l    d  .entry	00000000 .entry
02808020 l    d  .exceptions	00000000 .exceptions
01800000 l    d  .text	00000000 .text
01810f08 l    d  .rodata	00000000 .rodata
01811504 l    d  .rwdata	00000000 .rwdata
0181322c l    d  .bss	00000000 .bss
00000000 l    d  .comment	00000000 .comment
00000000 l    d  .debug_aranges	00000000 .debug_aranges
00000000 l    d  .debug_pubnames	00000000 .debug_pubnames
00000000 l    d  .debug_info	00000000 .debug_info
00000000 l    d  .debug_abbrev	00000000 .debug_abbrev
00000000 l    d  .debug_line	00000000 .debug_line
00000000 l    d  .debug_frame	00000000 .debug_frame
00000000 l    d  .debug_str	00000000 .debug_str
00000000 l    d  .debug_loc	00000000 .debug_loc
00000000 l    d  .debug_alt_sim_info	00000000 .debug_alt_sim_info
00000000 l    d  .debug_ranges	00000000 .debug_ranges
01800044 l       .text	00000000 alt_after_alt_main
00000000 l    df *ABS*	00000000 alt_irq_handler.c
00000000 l    df *ABS*	00000000 alt_instruction_exception_entry.c
00000000 l    df *ABS*	00000000 hello_world.c
00000000 l    df *ABS*	00000000 pwm.c
00000000 l    df *ABS*	00000000 utilities.c
00000000 l    df *ABS*	00000000 s_round.c
00000000 l    df *ABS*	00000000 fp-bit.c
00000000 l    df *ABS*	00000000 fp-bit.c
00000000 l    df *ABS*	00000000 fp-bit.c
00000000 l    df *ABS*	00000000 fp-bit.c
00000000 l    df *ABS*	00000000 dp-bit.c
01800a84 l     F .text	00000410 _fpadd_parts
00000000 l    df *ABS*	00000000 dp-bit.c
00000000 l    df *ABS*	00000000 dp-bit.c
00000000 l    df *ABS*	00000000 dp-bit.c
00000000 l    df *ABS*	00000000 libgcc2.c
00000000 l    df *ABS*	00000000 fp-bit.c
00000000 l    df *ABS*	00000000 fp-bit.c
00000000 l    df *ABS*	00000000 dp-bit.c
00000000 l    df *ABS*	00000000 dp-bit.c
00000000 l    df *ABS*	00000000 libgcc2.c
00000000 l    df *ABS*	00000000 printf.c
00000000 l    df *ABS*	00000000 vfprintf.c
01801804 l     F .text	00000058 __sprint_r
018110a2 l     O .rodata	00000010 blanks.3452
01811092 l     O .rodata	00000010 zeroes.3453
00000000 l    df *ABS*	00000000 wsetup.c
00000000 l    df *ABS*	00000000 dtoa.c
01803868 l     F .text	00000218 quorem
00000000 l    df *ABS*	00000000 fflush.c
00000000 l    df *ABS*	00000000 findfp.c
01805264 l     F .text	00000058 std
01805370 l     F .text	00000008 __fp_lock
01805378 l     F .text	00000008 __fp_unlock
00000000 l    df *ABS*	00000000 mallocr.c
00000000 l    df *ABS*	00000000 fvwrite.c
00000000 l    df *ABS*	00000000 fwalk.c
00000000 l    df *ABS*	00000000 impure.c
01811504 l     O .rwdata	00000400 impure_data
00000000 l    df *ABS*	00000000 locale.c
018131e8 l     O .rwdata	00000004 charset
018110d8 l     O .rodata	00000030 lconv
00000000 l    df *ABS*	00000000 makebuf.c
00000000 l    df *ABS*	00000000 mallocr.c
00000000 l    df *ABS*	00000000 memchr.c
00000000 l    df *ABS*	00000000 memcpy.c
00000000 l    df *ABS*	00000000 memmove.c
00000000 l    df *ABS*	00000000 memset.c
00000000 l    df *ABS*	00000000 mprec.c
01811220 l     O .rodata	0000000c p05.2458
00000000 l    df *ABS*	00000000 mallocr.c
00000000 l    df *ABS*	00000000 s_isinfd.c
00000000 l    df *ABS*	00000000 s_isnand.c
00000000 l    df *ABS*	00000000 sbrkr.c
00000000 l    df *ABS*	00000000 stdio.c
00000000 l    df *ABS*	00000000 strcmp.c
00000000 l    df *ABS*	00000000 strlen.c
00000000 l    df *ABS*	00000000 writer.c
00000000 l    df *ABS*	00000000 mallocr.c
00000000 l    df *ABS*	00000000 closer.c
00000000 l    df *ABS*	00000000 fclose.c
00000000 l    df *ABS*	00000000 fstatr.c
00000000 l    df *ABS*	00000000 int_errno.c
00000000 l    df *ABS*	00000000 isattyr.c
00000000 l    df *ABS*	00000000 lseekr.c
00000000 l    df *ABS*	00000000 readr.c
00000000 l    df *ABS*	00000000 libgcc2.c
00000000 l    df *ABS*	00000000 libgcc2.c
00000000 l    df *ABS*	00000000 dp-bit.c
00000000 l    df *ABS*	00000000 dp-bit.c
00000000 l    df *ABS*	00000000 dp-bit.c
00000000 l    df *ABS*	00000000 dp-bit.c
00000000 l    df *ABS*	00000000 dp-bit.c
00000000 l    df *ABS*	00000000 dp-bit.c
00000000 l    df *ABS*	00000000 dp-bit.c
00000000 l    df *ABS*	00000000 dp-bit.c
00000000 l    df *ABS*	00000000 dp-bit.c
00000000 l    df *ABS*	00000000 lib2-divmod.c
0180a0c8 l     F .text	0000007c udivmodsi4
00000000 l    df *ABS*	00000000 libgcc2.c
00000000 l    df *ABS*	00000000 dp-bit.c
00000000 l    df *ABS*	00000000 alt_close.c
0180a470 l     F .text	00000060 alt_get_errno
00000000 l    df *ABS*	00000000 alt_dev.c
0180a4d0 l     F .text	0000002c alt_dev_null_write
00000000 l    df *ABS*	00000000 alt_errno.c
00000000 l    df *ABS*	00000000 alt_fstat.c
0180a5d0 l     F .text	00000060 alt_get_errno
00000000 l    df *ABS*	00000000 alt_isatty.c
0180a6f0 l     F .text	00000060 alt_get_errno
00000000 l    df *ABS*	00000000 alt_lseek.c
0180a840 l     F .text	00000060 alt_get_errno
00000000 l    df *ABS*	00000000 alt_main.c
00000000 l    df *ABS*	00000000 alt_malloc_lock.c
00000000 l    df *ABS*	00000000 alt_read.c
0180aa6c l     F .text	00000060 alt_get_errno
00000000 l    df *ABS*	00000000 alt_release_fd.c
00000000 l    df *ABS*	00000000 alt_sbrk.c
0181320c l     O .rwdata	00000004 heap_end
00000000 l    df *ABS*	00000000 alt_usleep.c
00000000 l    df *ABS*	00000000 alt_write.c
0180ad38 l     F .text	00000060 alt_get_errno
00000000 l    df *ABS*	00000000 alt_sys_init.c
01811ec0 l     O .rwdata	000000d8 cfi_flash
01811f98 l     O .rwdata	00001060 jtag_uart
01812ff8 l     O .rwdata	00000120 lcd
01813118 l     O .rwdata	000000c4 uart
0180ae68 l     F .text	00000038 alt_dev_reg
00000000 l    df *ABS*	00000000 altera_avalon_cfi_flash.c
0180af3c l     F .text	00000038 alt_flash_device_register
00000000 l    df *ABS*	00000000 altera_avalon_cfi_flash_table.c
0180bd3c l     F .text	0000007c alt_read_16bit_query_entry
00000000 l    df *ABS*	00000000 altera_avalon_jtag_uart_fd.c
00000000 l    df *ABS*	00000000 altera_avalon_jtag_uart_init.c
0180cdc8 l     F .text	00000228 altera_avalon_jtag_uart_irq
0180cff0 l     F .text	000000b0 altera_avalon_jtag_uart_timeout
00000000 l    df *ABS*	00000000 altera_avalon_jtag_uart_ioctl.c
00000000 l    df *ABS*	00000000 altera_avalon_jtag_uart_read.c
00000000 l    df *ABS*	00000000 altera_avalon_jtag_uart_write.c
00000000 l    df *ABS*	00000000 altera_avalon_lcd_16207.c
01813210 l     O .rwdata	00000004 colstart
0180d66c l     F .text	000000b8 lcd_write_command
0180d724 l     F .text	000000d4 lcd_write_data
0180d7f8 l     F .text	000000c4 lcd_clear_screen
0180d8bc l     F .text	000001ec lcd_repaint_screen
0180daa8 l     F .text	000000c8 lcd_scroll_up
0180db70 l     F .text	000002d0 lcd_handle_escape
0180e344 l     F .text	000000cc alt_lcd_16207_timeout
00000000 l    df *ABS*	00000000 altera_avalon_lcd_16207_fd.c
00000000 l    df *ABS*	00000000 altera_avalon_timer_sc.c
0180e5a4 l     F .text	00000070 alt_avalon_timer_sc_irq
00000000 l    df *ABS*	00000000 altera_avalon_uart_fd.c
00000000 l    df *ABS*	00000000 altera_avalon_uart_init.c
0180e864 l     F .text	0000009c altera_avalon_uart_irq
0180e900 l     F .text	000000e0 altera_avalon_uart_rxirq
0180e9e0 l     F .text	0000015c altera_avalon_uart_txirq
00000000 l    df *ABS*	00000000 altera_avalon_uart_read.c
0180edcc l     F .text	00000060 alt_get_errno
00000000 l    df *ABS*	00000000 altera_avalon_uart_write.c
0180eff4 l     F .text	00000060 alt_get_errno
00000000 l    df *ABS*	00000000 alt_alarm_start.c
00000000 l    df *ABS*	00000000 alt_busy_sleep.c
00000000 l    df *ABS*	00000000 alt_dcache_flush.c
00000000 l    df *ABS*	00000000 alt_dev_llist_insert.c
0180f400 l     F .text	00000060 alt_get_errno
00000000 l    df *ABS*	00000000 alt_do_ctors.c
00000000 l    df *ABS*	00000000 alt_do_dtors.c
00000000 l    df *ABS*	00000000 alt_flash_dev.c
00000000 l    df *ABS*	00000000 alt_iic.c
00000000 l    df *ABS*	00000000 alt_iic_isr_register.c
00000000 l    df *ABS*	00000000 alt_io_redirect.c
0180f8c4 l     F .text	000000c4 alt_open_fd
00000000 l    df *ABS*	00000000 alt_irq_vars.c
00000000 l    df *ABS*	00000000 alt_open.c
0180fa00 l     F .text	000000dc alt_file_locked
0180fc64 l     F .text	00000060 alt_get_errno
00000000 l    df *ABS*	00000000 alt_tick.c
00000000 l    df *ABS*	00000000 altera_nios2_irq.c
00000000 l    df *ABS*	00000000 altera_avalon_cfi_flash_amd.c
0181022c l     F .text	000000bc alt_write_word_amd
01810108 l     F .text	00000124 alt_wait_for_command_to_complete_amd
00000000 l    df *ABS*	00000000 altera_avalon_cfi_flash_intel.c
018104e0 l     F .text	0000018c alt_unlock_block_intel
0181066c l     F .text	000000dc alt_write_word_intel
00000000 l    df *ABS*	00000000 alt_find_dev.c
00000000 l    df *ABS*	00000000 alt_find_file.c
00000000 l    df *ABS*	00000000 alt_get_fd.c
00000000 l    df *ABS*	00000000 atexit.c
00000000 l    df *ABS*	00000000 ctype_.c
01811381 l     O .rodata	00000180 _ctype_b
00000000 l    df *ABS*	00000000 exit.c
00000000 l    df *ABS*	00000000 memcmp.c
00000000 l    df *ABS*	00000000 __atexit.c
00000000 l    df *ABS*	00000000 __call_atexit.c
01810c84 l     F .text	00000004 register_fini
00000000 l    df *ABS*	00000000 alt_exit.c
01810e38 l     F .text	00000040 alt_sim_halt
01813260 g     O .bss	00000004 alt_instruction_exception_handler
01807020 g     F .text	00000094 _mprec_log10
0180710c g     F .text	00000088 __any_on
0180888c g     F .text	00000070 _isatty_r
018111f8 g     O .rodata	00000028 __mprec_tinytens
0180a8a0 g     F .text	0000006c alt_main
0180b7fc g     F .text	00000048 alt_read_query_entry_32bit
0181328c g     O .bss	00000100 alt_irq
018088fc g     F .text	00000078 _lseek_r
0180af74 g     F .text	000002c0 alt_flash_cfi_write
01809b94 g     F .text	00000088 __eqdf2
018005c4 g     F .text	00000060 map
0181351c g       *ABS*	00000000 __alt_heap_start
0180178c g     F .text	00000044 printf
018082e4 g     F .text	00000068 __sseek
018052cc g     F .text	000000a4 __sinit
01805fa4 g     F .text	00000084 _setlocale_r
018053cc g     F .text	00000068 __sfmoreglue
0180a92c g     F .text	00000020 __malloc_unlock
01800718 g     F .text	0000010c round
01800824 g     F .text	00000174 __divsf3
01806a9c g     F .text	000000e0 memmove
018053bc g     F .text	00000010 _cleanup
01807194 g     F .text	000000bc _Balloc
01809ca4 g     F .text	00000088 __gtdf2
00000000  w      *UND*	00000000 __errno
0180b988 g     F .text	00000048 alt_write_flash_command_32bit_device_16bit_mode
02400000 g     F .entry	00000000 __reset
01808818 g     F .text	00000074 _fstat_r
0180b490 g     F .text	000002e8 alt_flash_program_block
01813244 g     O .bss	00000004 errno
01801060 g     F .text	00000038 __make_dp
0181324c g     O .bss	00000004 alt_argv
0181b1dc g       *ABS*	00000000 _gp
0180abe8 g     F .text	00000030 usleep
01811d40 g     O .rwdata	00000180 alt_fd_list
01810748 g     F .text	00000094 alt_find_dev
018069fc g     F .text	000000a0 memcpy
018053b0 g     F .text	0000000c _cleanup_r
01809e3c g     F .text	000000f8 __floatsidf
0180f988 g     F .text	00000078 alt_io_redirect
01809db4 g     F .text	00000088 __ltdf2
01810f08 g       *ABS*	00000000 __DTOR_END__
018109b4 g     F .text	000000dc alt_exception_cause_generated_bad_addr
0180fe68 g     F .text	00000020 altera_nios2_irq_init
01806f70 g     F .text	000000b0 __ratio
0180d208 g     F .text	00000224 altera_avalon_jtag_uart_read
00000000  w      *UND*	00000000 malloc
018017d0 g     F .text	00000034 _printf_r
0180a204 g     F .text	00000008 __udivsi3
0180a630 g     F .text	000000c0 isatty
01811108 g     O .rodata	000000c8 __mprec_tens
01805f80 g     F .text	00000008 __locale_charset
01813238 g     O .bss	00000004 __malloc_top_pad
018131e4 g     O .rwdata	00000004 __mb_cur_max
01805f88 g     F .text	0000000c _localeconv_r
0180788c g     F .text	0000003c __i2b
01805964 g     F .text	0000049c __sfvwrite_r
0180826c g     F .text	00000070 _sbrk_r
018102e8 g     F .text	00000084 alt_program_intel
01808974 g     F .text	00000078 _read_r
0180f2d4 g     F .text	00000078 alt_dcache_flush
01811904 g     O .rwdata	0000000c __lc_ctype
01813204 g     O .rwdata	00000004 alt_max_fd
0180b778 g     F .text	00000040 alt_read_query_entry_8bit
01801654 g     F .text	00000138 __unpack_d
018086f4 g     F .text	00000110 _fclose_r
0181036c g     F .text	00000174 alt_erase_block_intel
01805230 g     F .text	00000034 fflush
0181323c g     O .bss	00000004 __malloc_max_sbrked_mem
01800a30 g     F .text	00000054 __extendsfdf2
01800f14 g     F .text	00000074 __adddf3
01806e50 g     F .text	00000120 __b2d
01808fc8 g     F .text	000005b0 __umoddi3
0180a750 g     F .text	000000f0 lseek
018131e0 g     O .rwdata	00000004 _global_impure_ptr
01807c08 g     F .text	000005f4 _realloc_r
0181351c g       *ABS*	00000000 __bss_end
0180f7cc g     F .text	000000f8 alt_iic_isr_register
0180fd5c g     F .text	0000010c alt_tick
018089ec g     F .text	000005dc __udivdi3
018111d0 g     O .rodata	00000028 __mprec_bigtens
01807ae8 g     F .text	00000120 __s2b
01809f34 g     F .text	00000194 __floatunsidf
01806d70 g     F .text	00000060 __mcmp
0180e79c g     F .text	000000c8 altera_avalon_uart_init
01813228 g     O .rwdata	00000004 __ctype_ptr
01805398 g     F .text	00000018 __fp_lock_all
0180f784 g     F .text	00000048 alt_ic_irq_enabled
0180fcc4 g     F .text	00000098 alt_alarm_stop
01813254 g     O .bss	00000004 alt_irq_active
02808000 g       *ABS*	00000000 __alt_mem_onchip_mem
028080fc g     F .exceptions	000000c8 alt_irq_handler
01811d18 g     O .rwdata	00000028 alt_dev_null
01801278 g     F .text	000000c8 __unpack_f
0180bc90 g     F .text	000000ac alt_set_flash_algorithm_func
01806c3c g     F .text	00000070 __hi0bits
01800f88 g     F .text	000000d8 __fixdfsi
01800474 g     F .text	00000150 Set_Servo_Position
0180b844 g     F .text	0000003c alt_write_flash_command_8bit_device_8bit_mode
018131fc g     O .rwdata	00000008 alt_dev_list
0180ac18 g     F .text	00000120 write
0180a4fc g     F .text	000000d4 fstat
0180cae4 g     F .text	000000dc alt_check_primary_table
018079c8 g     F .text	00000120 __pow5mult
0181322c g     O .bss	00000004 __nlocale_changed
0180a20c g     F .text	00000008 __umodsi3
0180b2c4 g     F .text	00000068 alt_flash_cfi_read
0180ba18 g     F .text	00000034 alt_write_native_8bit
0181351c g       *ABS*	00000000 end
01801118 g     F .text	00000160 __pack_f
0180b880 g     F .text	0000007c alt_write_flash_command_16bit_device_8bit_mode
0180de40 g     F .text	00000504 altera_avalon_lcd_16207_write
0180ee2c g     F .text	000001c8 altera_avalon_uart_write
0180bdb8 g     F .text	00000580 alt_read_cfi_table
0180cd08 g     F .text	000000c0 altera_avalon_jtag_uart_init
028081c4 g     F .exceptions	00000068 alt_instruction_exception_entry
01810f04 g       *ABS*	00000000 __CTOR_LIST__
02000000 g       *ABS*	00000000 __alt_stack_pointer
0180e614 g     F .text	00000090 alt_avalon_timer_sc_init
0180e6fc g     F .text	00000058 altera_avalon_uart_write_fd
01801098 g     F .text	00000080 __clzsi2
0180e754 g     F .text	00000048 altera_avalon_uart_close_fd
0180d42c g     F .text	00000240 altera_avalon_jtag_uart_write
0180aea0 g     F .text	0000009c alt_flash_cfi_init
01800194 g     F .text	000001e8 Initilise_PWM
018052bc g     F .text	00000004 __sfp_lock_acquire
01806918 g     F .text	000000e4 memchr
0180185c g     F .text	00001eac ___vfprintf_internal_r
01805650 g     F .text	00000314 _free_r
01810c88 g     F .text	000001b0 __call_exitprocs
01813230 g     O .bss	00000004 __mlocale_changed
018131f0 g     O .rwdata	00000004 __malloc_sbrk_base
01800000 g     F .text	00000048 _start
01813258 g     O .bss	00000004 _alt_tick_rate
01807558 g     F .text	0000014c __lshift
0181325c g     O .bss	00000004 _alt_nticks
0180a94c g     F .text	00000120 read
0180adcc g     F .text	0000009c alt_sys_init
01800998 g     F .text	00000098 __floatsisf
01810b50 g     F .text	00000134 __register_exitproc
0180b7b8 g     F .text	00000044 alt_read_query_entry_16bit
018076a4 g     F .text	000001e8 __multiply
0180d0a0 g     F .text	00000074 altera_avalon_jtag_uart_close
01813264 g     O .bss	00000028 __malloc_current_mallinfo
0180bab0 g     F .text	000001e0 alt_set_flash_width_func
01807250 g     F .text	0000017c __d2b
0180cbc0 g     F .text	00000058 altera_avalon_jtag_uart_read_fd
018108fc g     F .text	000000b8 alt_get_fd
0180f1a8 g     F .text	0000012c alt_busy_sleep
0180a2ac g     F .text	000000c8 __fpcmp_parts_d
01808684 g     F .text	00000070 _close_r
0180fef0 g     F .text	00000218 alt_erase_block_amd
01810adc g     F .text	00000074 memcmp
0180cc70 g     F .text	00000048 altera_avalon_jtag_uart_close_fd
0181351c g       *ABS*	00000000 __alt_stack_base
0180ccb8 g     F .text	00000050 altera_avalon_jtag_uart_ioctl_fd
01800624 g     F .text	000000f4 smoothstep
0180372c g     F .text	0000013c __swsetup_r
0180c338 g     F .text	000007ac alt_read_cfi_width
0180993c g     F .text	00000258 __divdf3
01805434 g     F .text	000000f0 __sfp
018070b4 g     F .text	00000058 __copybits
01811910 g     O .rwdata	00000408 __malloc_av_
018052c8 g     F .text	00000004 __sinit_lock_release
01809578 g     F .text	000003c4 __muldf3
018083c8 g     F .text	00000060 __sread
01810f10 g     O .rodata	00000010 __thenan_sf
018107dc g     F .text	00000120 alt_find_file
0180037c g     F .text	000000f8 Set_PWM_Duty_Cycle
0180f34c g     F .text	000000b4 alt_dev_llist_insert
0180a90c g     F .text	00000020 __malloc_lock
0180ab2c g     F .text	000000bc sbrk
01805034 g     F .text	000001fc _fflush_r
018085d0 g     F .text	000000b4 _calloc_r
01813214 g     O .rwdata	00000008 alt_flash_dev_list
0180b944 g     F .text	00000044 alt_write_flash_command_16bit_device_16bit_mode
0181322c g       *ABS*	00000000 __bss_start
01806b7c g     F .text	00000098 memset
01800048 g     F .text	0000014c main
01813250 g     O .bss	00000004 alt_envp
01813240 g     O .bss	00000004 __malloc_max_total_mem
0180cc18 g     F .text	00000058 altera_avalon_jtag_uart_write_fd
0180e410 g     F .text	0000013c altera_avalon_lcd_16207_init
018082dc g     F .text	00000008 __sclose
02000000 g       *ABS*	00000000 __alt_heap_limit
01808804 g     F .text	00000014 fclose
0181338c g     O .bss	00000190 _atexit0
01803a80 g     F .text	000015b4 _dtoa_r
018061d8 g     F .text	00000740 _malloc_r
01813208 g     O .rwdata	00000004 alt_errno
0180b9d0 g     F .text	00000048 alt_write_flash_command_32bit_device_32bit_mode
01805ec8 g     F .text	000000b8 _fwalk
0180b32c g     F .text	00000164 alt_write_value_to_flash
0180ba4c g     F .text	00000034 alt_write_native_16bit
0180a144 g     F .text	00000060 __divsi3
02400000 g       *ABS*	00000000 __alt_mem_cfi_flash
01810f20 g     O .rodata	00000014 __thenan_df
01805524 g     F .text	0000012c _malloc_trim_r
01810f08 g       *ABS*	00000000 __CTOR_END__
01808428 g     F .text	000000bc strcmp
01810f08 g       *ABS*	00000000 __DTOR_LIST__
01809c1c g     F .text	00000088 __nedf2
0180ad98 g     F .text	00000034 alt_irq_init
0180aacc g     F .text	00000060 alt_release_fd
01810f34 g     O .rodata	00000100 __clz_tab
01813234 g     O .bss	00000004 _PathLocale
01810a90 g     F .text	00000014 atexit
01808558 g     F .text	00000078 _write_r
01806028 g     F .text	0000001c setlocale
018131dc g     O .rwdata	00000004 _impure_ptr
01813248 g     O .bss	00000004 alt_argc
0180f4c4 g     F .text	00000064 _do_dtors
02808020 g       .exceptions	00000000 alt_irq_entry
01806dd0 g     F .text	00000080 __ulp
018081fc g     F .text	00000040 __isinfd
01805380 g     F .text	00000018 __fp_unlock_all
0180e54c g     F .text	00000058 altera_avalon_lcd_16207_write_fd
018131f4 g     O .rwdata	00000008 alt_fs_list
0180b8fc g     F .text	00000048 alt_write_flash_command_32bit_device_8bit_mode
01805f94 g     F .text	00000010 localeconv
0180f5f8 g     F .text	00000050 alt_ic_isr_register
0181322c g       *ABS*	00000000 _edata
0180e6a4 g     F .text	00000058 altera_avalon_uart_read_fd
0181351c g       *ABS*	00000000 _end
0180f528 g     F .text	0000007c alt_flash_open_dev
0180d114 g     F .text	000000f4 altera_avalon_jtag_uart_ioctl
0180f6e4 g     F .text	000000a0 alt_ic_irq_disable
0180834c g     F .text	0000007c __swrite
018131ec g     O .rwdata	00000004 __malloc_trim_threshold
01810aa4 g     F .text	00000038 exit
01805e00 g     F .text	000000c8 _fwalk_reent
018073cc g     F .text	0000018c __mdiff
0180f5a4 g     F .text	00000054 alt_flash_close_dev
0180a1a4 g     F .text	00000060 __modsi3
02000000 g       *ABS*	00000000 __alt_data_end
02808020 g     F .exceptions	00000000 alt_exception
018052c0 g     F .text	00000004 __sfp_lock_release
01800000 g       *ABS*	00000000 __alt_mem_sdram
01811280 g     O .rodata	00000101 _ctype_
0180eb3c g     F .text	00000060 altera_avalon_uart_close
01810e78 g     F .text	00000020 _exit
0180823c g     F .text	00000030 __isnand
0180f054 g     F .text	00000154 alt_alarm_start
0180a214 g     F .text	00000098 __muldi3
01806044 g     F .text	00000194 __smakebuf_r
0180ba80 g     F .text	00000030 alt_write_native_32bit
018084e4 g     F .text	00000074 strlen
0180fadc g     F .text	00000188 open
01809d2c g     F .text	00000088 __gedf2
0180b234 g     F .text	00000090 alt_flash_cfi_get_info
0181321c g     O .rwdata	00000004 alt_priority_mask
0180f648 g     F .text	0000009c alt_ic_irq_enable
01803708 g     F .text	00000024 __vfprintf_internal
0180eb9c g     F .text	00000230 altera_avalon_uart_read
01800e94 g     F .text	00000080 __subdf3
01806cac g     F .text	000000c4 __lo0bits
01813220 g     O .rwdata	00000008 alt_alarm_list
0180f460 g     F .text	00000064 _do_ctors
0180a374 g     F .text	000000fc close
0180fe88 g     F .text	00000068 alt_program_amd
01801340 g     F .text	00000314 __pack_d
00000000  w      *UND*	00000000 free
018052c4 g     F .text	00000004 __sinit_lock_acquire
018078c8 g     F .text	00000100 __multadd
01806c14 g     F .text	00000028 _Bfree



Disassembly of section .exceptions:

02808020 <alt_exception>:
         * Process an exception.  For all exceptions we must preserve all
         * caller saved registers on the stack (See the Nios2 ABI
         * documentation for details).
         */

        addi  sp, sp, -76
 2808020:	deffed04 	addi	sp,sp,-76

#endif

#endif

        stw   ra,  0(sp)
 2808024:	dfc00015 	stw	ra,0(sp)
        /*
         * Leave a gap in the stack frame at 4(sp) for the muldiv handler to
         * store zero into.
         */

        stw   r1,   8(sp)
 2808028:	d8400215 	stw	at,8(sp)
        stw   r2,  12(sp)
 280802c:	d8800315 	stw	r2,12(sp)
        stw   r3,  16(sp)
 2808030:	d8c00415 	stw	r3,16(sp)
        stw   r4,  20(sp)
 2808034:	d9000515 	stw	r4,20(sp)
        stw   r5,  24(sp)
 2808038:	d9400615 	stw	r5,24(sp)
        stw   r6,  28(sp)
 280803c:	d9800715 	stw	r6,28(sp)
        stw   r7,  32(sp)
 2808040:	d9c00815 	stw	r7,32(sp)

        rdctl r5, estatus
 2808044:	000b307a 	rdctl	r5,estatus

        stw   r8,  36(sp)
 2808048:	da000915 	stw	r8,36(sp)
        stw   r9,  40(sp)
 280804c:	da400a15 	stw	r9,40(sp)
        stw   r10, 44(sp)
 2808050:	da800b15 	stw	r10,44(sp)
        stw   r11, 48(sp)
 2808054:	dac00c15 	stw	r11,48(sp)
        stw   r12, 52(sp)
 2808058:	db000d15 	stw	r12,52(sp)
        stw   r13, 56(sp)
 280805c:	db400e15 	stw	r13,56(sp)
        stw   r14, 60(sp)
 2808060:	db800f15 	stw	r14,60(sp)
        stw   r15, 64(sp)
 2808064:	dbc01015 	stw	r15,64(sp)
        /*
         * ea-4 contains the address of the instruction being executed
         * when the exception occured. For interrupt exceptions, we will
         * will be re-issue the isntruction. Store it in 72(sp)
         */
        stw   r5,  68(sp)  /* estatus */
 2808068:	d9401115 	stw	r5,68(sp)
        addi  r15, ea, -4  /* instruction that caused exception */
 280806c:	ebffff04 	addi	r15,ea,-4
        stw   r15,  72(sp)
 2808070:	dbc01215 	stw	r15,72(sp)
#else
        /*
         * Test to see if the exception was a software exception or caused 
         * by an external interrupt, and vector accordingly.
         */
        rdctl r4, ipending
 2808074:	0009313a 	rdctl	r4,ipending
        andi  r2, r5, 1
 2808078:	2880004c 	andi	r2,r5,1
        beq   r2, zero, .Lnot_irq
 280807c:	10000326 	beq	r2,zero,280808c <alt_exception+0x6c>
        beq   r4, zero, .Lnot_irq
 2808080:	20000226 	beq	r4,zero,280808c <alt_exception+0x6c>
        /*
         * Now that all necessary registers have been preserved, call 
         * alt_irq_handler() to process the interrupts.
         */

        call alt_irq_handler
 2808084:	28080fc0 	call	28080fc <alt_irq_handler>

        .section .exceptions.irqreturn, "xa"

        br    .Lexception_exit
 2808088:	00000706 	br	28080a8 <alt_exception+0x88>
         * upon completion, so we write ea (address of instruction *after*
         * the one where the exception occured) into 72(sp). The actual
         * instruction that caused the exception is written in r2, which these
         * handlers will utilize.
         */
        stw   ea,  72(sp)  /* Don't re-issue */
 280808c:	df401215 	stw	ea,72(sp)
        ldw   r2, -4(ea)   /* Instruction that caused exception */
 2808090:	e8bfff17 	ldw	r2,-4(ea)
         * debugger is present) or go into an infinite loop since the
         * handling behavior is undefined; in that case we will not return here.
         */

        /* Load exception-causing address as first argument (r4) */
        addi   r4, ea, -4
 2808094:	e93fff04 	addi	r4,ea,-4

        /* Call the instruction-exception entry */
        call   alt_instruction_exception_entry
 2808098:	28081c40 	call	28081c4 <alt_instruction_exception_entry>
         * instruction
         *
         * Return code was 0: Skip. The instruction after the exception is
         * already stored in 72(sp).
         */
        bne   r2, r0, .Lexception_exit
 280809c:	1000021e 	bne	r2,zero,28080a8 <alt_exception+0x88>

        /*
         * Otherwise, modify 72(sp) to re-issue the instruction that caused the
         * exception.
         */
        addi  r15, ea, -4  /* instruction that caused exception */
 28080a0:	ebffff04 	addi	r15,ea,-4
        stw   r15,  72(sp)
 28080a4:	dbc01215 	stw	r15,72(sp)
        /* 
         * Restore the saved registers, so that all general purpose registers 
         * have been restored to their state at the time the interrupt occured.
         */

        ldw   r5,  68(sp)
 28080a8:	d9401117 	ldw	r5,68(sp)
        ldw   ea,  72(sp)  /* This becomes the PC once eret is executed */
 28080ac:	df401217 	ldw	ea,72(sp)
        ldw   ra,   0(sp)
 28080b0:	dfc00017 	ldw	ra,0(sp)

        wrctl estatus, r5
 28080b4:	2801707a 	wrctl	estatus,r5

        ldw   r1,   8(sp)
 28080b8:	d8400217 	ldw	at,8(sp)
        ldw   r2,  12(sp)
 28080bc:	d8800317 	ldw	r2,12(sp)
        ldw   r3,  16(sp)
 28080c0:	d8c00417 	ldw	r3,16(sp)
        ldw   r4,  20(sp)
 28080c4:	d9000517 	ldw	r4,20(sp)
        ldw   r5,  24(sp)
 28080c8:	d9400617 	ldw	r5,24(sp)
        ldw   r6,  28(sp)
 28080cc:	d9800717 	ldw	r6,28(sp)
        ldw   r7,  32(sp)
 28080d0:	d9c00817 	ldw	r7,32(sp)
#ifdef ALT_STACK_CHECK
        ldw   et, %gprel(alt_exception_old_stack_limit)(gp)
#endif
#endif

        ldw   r8,  36(sp)
 28080d4:	da000917 	ldw	r8,36(sp)
        ldw   r9,  40(sp)
 28080d8:	da400a17 	ldw	r9,40(sp)
        ldw   r10, 44(sp)
 28080dc:	da800b17 	ldw	r10,44(sp)
        ldw   r11, 48(sp)
 28080e0:	dac00c17 	ldw	r11,48(sp)
        ldw   r12, 52(sp)
 28080e4:	db000d17 	ldw	r12,52(sp)
        ldw   r13, 56(sp)
 28080e8:	db400e17 	ldw	r13,56(sp)
        ldw   r14, 60(sp)
 28080ec:	db800f17 	ldw	r14,60(sp)
        ldw   r15, 64(sp)
 28080f0:	dbc01017 	ldw	r15,64(sp)
#endif

        ldw   sp,  76(sp)

#else
        addi  sp, sp, 76
 28080f4:	dec01304 	addi	sp,sp,76

        /*
         * Return to the interrupted instruction.
         */

        eret
 28080f8:	ef80083a 	eret

028080fc <alt_irq_handler>:
 * instruction is present if the macro ALT_CI_INTERRUPT_VECTOR defined.
 */

void alt_irq_handler (void) __attribute__ ((section (".exceptions")));
void alt_irq_handler (void)
{
 28080fc:	defff904 	addi	sp,sp,-28
 2808100:	dfc00615 	stw	ra,24(sp)
 2808104:	df000515 	stw	fp,20(sp)
 2808108:	df000504 	addi	fp,sp,20
#ifndef NIOS2_EIC_PRESENT
static ALT_INLINE alt_u32 ALT_ALWAYS_INLINE alt_irq_pending (void)
{
  alt_u32 active;

  NIOS2_READ_IPENDING (active);
 280810c:	0005313a 	rdctl	r2,ipending
 2808110:	e0bffc15 	stw	r2,-16(fp)

  return active;
 2808114:	e0bffc17 	ldw	r2,-16(fp)
   * Consider the case where the high priority interupt is asserted during
   * the interrupt entry sequence for a lower priority interrupt to see why
   * this is the case.
   */

  active = alt_irq_pending ();
 2808118:	e0bfff15 	stw	r2,-4(fp)

  do
  {
    i = 0;
 280811c:	e03ffd15 	stw	zero,-12(fp)
    mask = 1;
 2808120:	00800044 	movi	r2,1
 2808124:	e0bffe15 	stw	r2,-8(fp)
     * called to clear the interrupt condition.
     */

    do
    {
      if (active & mask)
 2808128:	e0ffff17 	ldw	r3,-4(fp)
 280812c:	e0bffe17 	ldw	r2,-8(fp)
 2808130:	1884703a 	and	r2,r3,r2
 2808134:	1005003a 	cmpeq	r2,r2,zero
 2808138:	1000161e 	bne	r2,zero,2808194 <alt_irq_handler+0x98>
      { 
#ifdef ALT_ENHANCED_INTERRUPT_API_PRESENT
        alt_irq[i].handler(alt_irq[i].context); 
 280813c:	e0bffd17 	ldw	r2,-12(fp)
 2808140:	00c06074 	movhi	r3,385
 2808144:	18cca304 	addi	r3,r3,12940
 2808148:	100490fa 	slli	r2,r2,3
 280814c:	10c5883a 	add	r2,r2,r3
 2808150:	11400017 	ldw	r5,0(r2)
 2808154:	e0bffd17 	ldw	r2,-12(fp)
 2808158:	00c06074 	movhi	r3,385
 280815c:	18cca304 	addi	r3,r3,12940
 2808160:	100490fa 	slli	r2,r2,3
 2808164:	10c5883a 	add	r2,r2,r3
 2808168:	10800104 	addi	r2,r2,4
 280816c:	11000017 	ldw	r4,0(r2)
 2808170:	283ee83a 	callr	r5
#ifndef NIOS2_EIC_PRESENT
static ALT_INLINE alt_u32 ALT_ALWAYS_INLINE alt_irq_pending (void)
{
  alt_u32 active;

  NIOS2_READ_IPENDING (active);
 2808174:	0005313a 	rdctl	r2,ipending
 2808178:	e0bffb15 	stw	r2,-20(fp)

  return active;
 280817c:	e0bffb17 	ldw	r2,-20(fp)
      mask <<= 1;
      i++;

    } while (1);

    active = alt_irq_pending ();
 2808180:	e0bfff15 	stw	r2,-4(fp)
    
  } while (active);
 2808184:	e0bfff17 	ldw	r2,-4(fp)
 2808188:	1004c03a 	cmpne	r2,r2,zero
 280818c:	103fe31e 	bne	r2,zero,280811c <alt_irq_handler+0x20>
 2808190:	00000706 	br	28081b0 <alt_irq_handler+0xb4>
#else
        alt_irq[i].handler(alt_irq[i].context, i); 
#endif
        break;
      }
      mask <<= 1;
 2808194:	e0bffe17 	ldw	r2,-8(fp)
 2808198:	1085883a 	add	r2,r2,r2
 280819c:	e0bffe15 	stw	r2,-8(fp)
      i++;
 28081a0:	e0bffd17 	ldw	r2,-12(fp)
 28081a4:	10800044 	addi	r2,r2,1
 28081a8:	e0bffd15 	stw	r2,-12(fp)

    } while (1);
 28081ac:	003fde06 	br	2808128 <alt_irq_handler+0x2c>
  /*
   * Notify the operating system that interrupt processing is complete.
   */ 

  ALT_OS_INT_EXIT();
}
 28081b0:	e037883a 	mov	sp,fp
 28081b4:	dfc00117 	ldw	ra,4(sp)
 28081b8:	df000017 	ldw	fp,0(sp)
 28081bc:	dec00204 	addi	sp,sp,8
 28081c0:	f800283a 	ret

028081c4 <alt_instruction_exception_entry>:
 * using alt_instruction_exception_register(). This routine will call
 * that handler if it has been registered. Absent a handler, it will
 * break break or hang as discussed below.
 */
int alt_instruction_exception_entry (alt_u32 exception_pc)
{
 28081c4:	defffa04 	addi	sp,sp,-24
 28081c8:	dfc00515 	stw	ra,20(sp)
 28081cc:	df000415 	stw	fp,16(sp)
 28081d0:	df000404 	addi	fp,sp,16
 28081d4:	e13ffe15 	stw	r4,-8(fp)
  cause = ( (cause & NIOS2_EXCEPTION_REG_CAUSE_MASK) >>
              NIOS2_EXCEPTION_REG_CAUSE_OFST );

  NIOS2_READ_BADADDR(badaddr);
#else
  cause = NIOS2_EXCEPTION_CAUSE_NOT_PRESENT;
 28081d8:	00bfffc4 	movi	r2,-1
 28081dc:	e0bffd15 	stw	r2,-12(fp)
  badaddr = 0;
 28081e0:	e03ffc15 	stw	zero,-16(fp)
#endif /* NIOS2_HAS_EXTRA_EXCEPTION_INFO */

  if(alt_instruction_exception_handler) {
 28081e4:	d0a02117 	ldw	r2,-32636(gp)
 28081e8:	1005003a 	cmpeq	r2,r2,zero
 28081ec:	1000071e 	bne	r2,zero,280820c <alt_instruction_exception_entry+0x48>
     * Call handler. Its return value indicates whether the exception-causing
     * instruction should be re-issued. The code that called us,
     * alt_eceptions_entry.S, will look at this value and adjust the ea
     * register as necessary
     */
    return alt_instruction_exception_handler(cause, exception_pc, badaddr);
 28081f0:	d0a02117 	ldw	r2,-32636(gp)
 28081f4:	e13ffd17 	ldw	r4,-12(fp)
 28081f8:	e17ffe17 	ldw	r5,-8(fp)
 28081fc:	e1bffc17 	ldw	r6,-16(fp)
 2808200:	103ee83a 	callr	r2
 2808204:	e0bfff15 	stw	r2,-4(fp)
 2808208:	00000206 	br	2808214 <alt_instruction_exception_entry+0x50>
   *    (a peripheral which negates its interrupt output before its
   *    interrupt handler has been executed will cause spurious interrupts)
   */
  else {
#ifdef NIOS2_HAS_DEBUG_STUB
    NIOS2_BREAK();
 280820c:	003da03a 	break	0
      ;
#endif /* NIOS2_HAS_DEBUG_STUB */
  }

  /* // We should not get here. Remove compiler warning. */
  return NIOS2_EXCEPTION_RETURN_REISSUE_INST;
 2808210:	e03fff15 	stw	zero,-4(fp)
 2808214:	e0bfff17 	ldw	r2,-4(fp)
}
 2808218:	e037883a 	mov	sp,fp
 280821c:	dfc00117 	ldw	ra,4(sp)
 2808220:	df000017 	ldw	fp,0(sp)
 2808224:	dec00204 	addi	sp,sp,8
 2808228:	f800283a 	ret

Disassembly of section .text:

01800000 <_start>:

    /* Assume the data cache size is always a power of two. */
#if NIOS2_DCACHE_SIZE > 0x8000
    movhi r2, %hi(NIOS2_DCACHE_SIZE)
#else
    movui r2, NIOS2_DCACHE_SIZE
 1800000:	00840014 	movui	r2,4096
#endif

0:
    initd 0(r2)
 1800004:	10000033 	initd	0(r2)
    addi r2, r2, -NIOS2_DCACHE_LINE_SIZE
 1800008:	10bff804 	addi	r2,r2,-32
    bgt r2, zero, 0b
 180000c:	00bffd16 	blt	zero,r2,1800004 <_start+0x4>
#if (NIOS2_NUM_OF_SHADOW_REG_SETS == 0)    
    /*
     * Now that the caches are initialized, set up the stack pointer.
     * The value provided by the linker is assumed to be correctly aligned.
     */
    movhi sp, %hi(__alt_stack_pointer)
 1800010:	06c08034 	movhi	sp,512
    ori sp, sp, %lo(__alt_stack_pointer)
 1800014:	dec00014 	ori	sp,sp,0

    /* Set up the global pointer. */
    movhi gp, %hi(_gp)
 1800018:	06806074 	movhi	gp,385
    ori gp, gp, %lo(_gp)
 180001c:	d6ac7714 	ori	gp,gp,45532
 */
#ifndef ALT_SIM_OPTIMIZE
    /* Log that the BSS is about to be cleared. */
    ALT_LOG_PUTS(alt_log_msg_bss)

    movhi r2, %hi(__bss_start)
 1800020:	00806074 	movhi	r2,385
    ori r2, r2, %lo(__bss_start)
 1800024:	108c8b14 	ori	r2,r2,12844

    movhi r3, %hi(__bss_end)
 1800028:	00c06074 	movhi	r3,385
    ori r3, r3, %lo(__bss_end)
 180002c:	18cd4714 	ori	r3,r3,13596

    beq r2, r3, 1f
 1800030:	10c00326 	beq	r2,r3,1800040 <_start+0x40>

0:
    stw zero, (r2)
 1800034:	10000015 	stw	zero,0(r2)
    addi r2, r2, 4
 1800038:	10800104 	addi	r2,r2,4
    bltu r2, r3, 0b
 180003c:	10fffd36 	bltu	r2,r3,1800034 <_start+0x34>

    /* Log that alt_main is about to be called. */
    ALT_LOG_PUTS(alt_log_msg_alt_main)

    /* Call the C entry point. It should never return. */
    call alt_main
 1800040:	180a8a00 	call	180a8a0 <alt_main>

01800044 <alt_after_alt_main>:

    /* Wait in infinite loop in case alt_main does return. */
alt_after_alt_main:
    br alt_after_alt_main
 1800044:	003fff06 	br	1800044 <alt_after_alt_main>

01800048 <main>:
#include "pwm.h"
#include "utilities.h"



int main() {
 1800048:	deffee04 	addi	sp,sp,-72
 180004c:	dfc01115 	stw	ra,68(sp)
 1800050:	df001015 	stw	fp,64(sp)
 1800054:	df001004 	addi	fp,sp,64
	//printf("lololol lolol\n");
	//Initilise_PWM('G');
	Initilise_PWM('W');
 1800058:	010015c4 	movi	r4,87
 180005c:	18001940 	call	1800194 <Initilise_PWM>
	//int positions[][] = {1,45,-45,-30,-15};
	int positions[5][2] = {{ 0, 100 },
						   { 45, 500 },
						   { -45, 400 },
						   { 45, 800 },
						   { -15, 200 }};
 1800060:	e03ff615 	stw	zero,-40(fp)
 1800064:	00801904 	movi	r2,100
 1800068:	e0bff715 	stw	r2,-36(fp)
 180006c:	00800b44 	movi	r2,45
 1800070:	e0bff815 	stw	r2,-32(fp)
 1800074:	00807d04 	movi	r2,500
 1800078:	e0bff915 	stw	r2,-28(fp)
 180007c:	00bff4c4 	movi	r2,-45
 1800080:	e0bffa15 	stw	r2,-24(fp)
 1800084:	00806404 	movi	r2,400
 1800088:	e0bffb15 	stw	r2,-20(fp)
 180008c:	00800b44 	movi	r2,45
 1800090:	e0bffc15 	stw	r2,-16(fp)
 1800094:	0080c804 	movi	r2,800
 1800098:	e0bffd15 	stw	r2,-12(fp)
 180009c:	00bffc44 	movi	r2,-15
 18000a0:	e0bffe15 	stw	r2,-8(fp)
 18000a4:	00803204 	movi	r2,200
 18000a8:	e0bfff15 	stw	r2,-4(fp)
	int interpolations = 500;
 18000ac:	00807d04 	movi	r2,500
 18000b0:	e0bff515 	stw	r2,-44(fp)
	int X = 0;
 18000b4:	e03ff415 	stw	zero,-48(fp)
	int i;
	int oldPosition = 0;
 18000b8:	e03ff215 	stw	zero,-56(fp)
	int newPosition = 0;
 18000bc:	e03ff115 	stw	zero,-60(fp)
	int move = 0;
 18000c0:	e03ff015 	stw	zero,-64(fp)
 18000c4:	00000006 	br	18000c8 <main+0x80>

	while (1) {
		oldPosition = newPosition;
 18000c8:	e0bff117 	ldw	r2,-60(fp)
 18000cc:	e0bff215 	stw	r2,-56(fp)
		newPosition = positions[move][0];
 18000d0:	e0bff017 	ldw	r2,-64(fp)
 18000d4:	100490fa 	slli	r2,r2,3
 18000d8:	e0fff004 	addi	r3,fp,-64
 18000dc:	10c5883a 	add	r2,r2,r3
 18000e0:	10800604 	addi	r2,r2,24
 18000e4:	10800017 	ldw	r2,0(r2)
 18000e8:	e0bff115 	stw	r2,-60(fp)
		interpolations = positions[move][1];
 18000ec:	e0bff017 	ldw	r2,-64(fp)
 18000f0:	100490fa 	slli	r2,r2,3
 18000f4:	e0fff004 	addi	r3,fp,-64
 18000f8:	10c5883a 	add	r2,r2,r3
 18000fc:	10800704 	addi	r2,r2,28
 1800100:	10800017 	ldw	r2,0(r2)
 1800104:	e0bff515 	stw	r2,-44(fp)
		//printf("%d,%d \n", newPosition, interpolations);

		for (i = 0; i < interpolations; i++) {
 1800108:	e03ff315 	stw	zero,-52(fp)
 180010c:	00001306 	br	180015c <main+0x114>
			X = smoothstep(oldPosition, newPosition, interpolations, i);
 1800110:	e13ff217 	ldw	r4,-56(fp)
 1800114:	e17ff117 	ldw	r5,-60(fp)
 1800118:	e1bff517 	ldw	r6,-44(fp)
 180011c:	e1fff317 	ldw	r7,-52(fp)
 1800120:	18006240 	call	1800624 <smoothstep>
 1800124:	e0bff415 	stw	r2,-48(fp)
			printf("%d,%d \n", interpolations, X);
 1800128:	01006074 	movhi	r4,385
 180012c:	2103c204 	addi	r4,r4,3848
 1800130:	e17ff517 	ldw	r5,-44(fp)
 1800134:	e1bff417 	ldw	r6,-48(fp)
 1800138:	180178c0 	call	180178c <printf>
			Set_Servo_Position('W', X);
 180013c:	010015c4 	movi	r4,87
 1800140:	e17ff417 	ldw	r5,-48(fp)
 1800144:	18004740 	call	1800474 <Set_Servo_Position>
			usleep(1000);
 1800148:	0100fa04 	movi	r4,1000
 180014c:	180abe80 	call	180abe8 <usleep>
		oldPosition = newPosition;
		newPosition = positions[move][0];
		interpolations = positions[move][1];
		//printf("%d,%d \n", newPosition, interpolations);

		for (i = 0; i < interpolations; i++) {
 1800150:	e0bff317 	ldw	r2,-52(fp)
 1800154:	10800044 	addi	r2,r2,1
 1800158:	e0bff315 	stw	r2,-52(fp)
 180015c:	e0fff317 	ldw	r3,-52(fp)
 1800160:	e0bff517 	ldw	r2,-44(fp)
 1800164:	18bfea16 	blt	r3,r2,1800110 <main+0xc8>
			X = smoothstep(oldPosition, newPosition, interpolations, i);
			printf("%d,%d \n", interpolations, X);
			Set_Servo_Position('W', X);
			usleep(1000);
		}
		usleep(1000000);
 1800168:	010003f4 	movhi	r4,15
 180016c:	21109004 	addi	r4,r4,16960
 1800170:	180abe80 	call	180abe8 <usleep>

		move=move+1;
 1800174:	e0bff017 	ldw	r2,-64(fp)
 1800178:	10800044 	addi	r2,r2,1
 180017c:	e0bff015 	stw	r2,-64(fp)
		if(move>=5){move=0;}
 1800180:	e0bff017 	ldw	r2,-64(fp)
 1800184:	10800150 	cmplti	r2,r2,5
 1800188:	103fcf1e 	bne	r2,zero,18000c8 <main+0x80>
 180018c:	e03ff015 	stw	zero,-64(fp)
		//			Set_Servo_Position('W', X);
		//			usleep(10000);
		//		}
		////		usleep(200000);

	}
 1800190:	003fcd06 	br	18000c8 <main+0x80>

01800194 <Initilise_PWM>:
 *  Description : This module runs the start up sequence for whichever PWM module is specified
 *                by the input variable
 *
 **************************************************************************************************/
int Initilise_PWM(char Module_To_Initilise)
{
 1800194:	defffd04 	addi	sp,sp,-12
 1800198:	df000215 	stw	fp,8(sp)
 180019c:	df000204 	addi	fp,sp,8
 18001a0:	e13ffe05 	stb	r4,-8(fp)
    switch (Module_To_Initilise)
 18001a4:	e0bffe07 	ldb	r2,-8(fp)
 18001a8:	10bfef84 	addi	r2,r2,-66
 18001ac:	e0bfff15 	stw	r2,-4(fp)
 18001b0:	e0ffff17 	ldw	r3,-4(fp)
 18001b4:	188005a8 	cmpgeui	r2,r3,22
 18001b8:	10006b1e 	bne	r2,zero,1800368 <Initilise_PWM+0x1d4>
 18001bc:	e13fff17 	ldw	r4,-4(fp)
 18001c0:	e13fff17 	ldw	r4,-4(fp)
 18001c4:	2105883a 	add	r2,r4,r4
 18001c8:	1087883a 	add	r3,r2,r2
 18001cc:	00806034 	movhi	r2,384
 18001d0:	10807804 	addi	r2,r2,480
 18001d4:	1885883a 	add	r2,r3,r2
 18001d8:	10800017 	ldw	r2,0(r2)
 18001dc:	1000683a 	jmp	r2
 18001e0:	01800238 	rdprs	r6,zero,8
 18001e4:	01800368 	cmpgeui	r6,zero,13
 18001e8:	01800368 	cmpgeui	r6,zero,13
 18001ec:	018002d0 	cmplti	r6,zero,11
 18001f0:	01800368 	cmpgeui	r6,zero,13
 18001f4:	01800338 	rdprs	r6,zero,12
 18001f8:	01800368 	cmpgeui	r6,zero,13
 18001fc:	01800368 	cmpgeui	r6,zero,13
 1800200:	01800368 	cmpgeui	r6,zero,13
 1800204:	01800368 	cmpgeui	r6,zero,13
 1800208:	01800368 	cmpgeui	r6,zero,13
 180020c:	01800368 	cmpgeui	r6,zero,13
 1800210:	01800368 	cmpgeui	r6,zero,13
 1800214:	01800368 	cmpgeui	r6,zero,13
 1800218:	01800368 	cmpgeui	r6,zero,13
 180021c:	01800368 	cmpgeui	r6,zero,13
 1800220:	01800368 	cmpgeui	r6,zero,13
 1800224:	0180026c 	andhi	r6,zero,9
 1800228:	01800368 	cmpgeui	r6,zero,13
 180022c:	01800368 	cmpgeui	r6,zero,13
 1800230:	01800368 	cmpgeui	r6,zero,13
 1800234:	01800304 	movi	r6,12
    {
        case 'B' :
            IOWR_ALTERA_AVALON_PWM_CLK_DIV(MY_PWM_5_BASE, 50);
 1800238:	00c07904 	movi	r3,484
 180023c:	00800c84 	movi	r2,50
 1800240:	18800035 	stwio	r2,0(r3)
            IOWR_ALTERA_AVALON_PWM_DUTY(MY_PWM_5_BASE, 50);
 1800244:	00c07804 	movi	r3,480
 1800248:	00800c84 	movi	r2,50
 180024c:	18800035 	stwio	r2,0(r3)
            IOWR_ALTERA_AVALON_PWM_PERIOD(MY_PWM_5_BASE, 2000);
 1800250:	00c07a04 	movi	r3,488
 1800254:	0081f404 	movi	r2,2000
 1800258:	18800035 	stwio	r2,0(r3)
            IOWR_ALTERA_AVALON_PWM_CONTROL(MY_PWM_5_BASE, 1);
 180025c:	00c07b04 	movi	r3,492
 1800260:	00800044 	movi	r2,1
 1800264:	18800035 	stwio	r2,0(r3)
            break;
 1800268:	00003f06 	br	1800368 <Initilise_PWM+0x1d4>

        case 'S' :
            IOWR_ALTERA_AVALON_PWM_CLK_DIV(MY_PWM_3_BASE, 50);
 180026c:	00c07104 	movi	r3,452
 1800270:	00800c84 	movi	r2,50
 1800274:	18800035 	stwio	r2,0(r3)
            IOWR_ALTERA_AVALON_PWM_DUTY(MY_PWM_3_BASE, 50);
 1800278:	00c07004 	movi	r3,448
 180027c:	00800c84 	movi	r2,50
 1800280:	18800035 	stwio	r2,0(r3)
            IOWR_ALTERA_AVALON_PWM_PERIOD(MY_PWM_3_BASE, 2000);
 1800284:	00c07204 	movi	r3,456
 1800288:	0081f404 	movi	r2,2000
 180028c:	18800035 	stwio	r2,0(r3)
            IOWR_ALTERA_AVALON_PWM_CONTROL(MY_PWM_3_BASE, 1);
 1800290:	00c07304 	movi	r3,460
 1800294:	00800044 	movi	r2,1
 1800298:	18800035 	stwio	r2,0(r3)

            IOWR_ALTERA_AVALON_PWM_CLK_DIV(MY_PWM_4_BASE, 50);
 180029c:	00c07504 	movi	r3,468
 18002a0:	00800c84 	movi	r2,50
 18002a4:	18800035 	stwio	r2,0(r3)
            IOWR_ALTERA_AVALON_PWM_DUTY(MY_PWM_4_BASE, 50);
 18002a8:	00c07404 	movi	r3,464
 18002ac:	00800c84 	movi	r2,50
 18002b0:	18800035 	stwio	r2,0(r3)
            IOWR_ALTERA_AVALON_PWM_PERIOD(MY_PWM_4_BASE, 2000);
 18002b4:	00c07604 	movi	r3,472
 18002b8:	0081f404 	movi	r2,2000
 18002bc:	18800035 	stwio	r2,0(r3)
            IOWR_ALTERA_AVALON_PWM_CONTROL(MY_PWM_4_BASE, 1);
 18002c0:	00c07704 	movi	r3,476
 18002c4:	00800044 	movi	r2,1
 18002c8:	18800035 	stwio	r2,0(r3)
            break;
 18002cc:	00002606 	br	1800368 <Initilise_PWM+0x1d4>

        case 'E' :
            IOWR_ALTERA_AVALON_PWM_CLK_DIV(MY_PWM_2_BASE, 50);
 18002d0:	00c06d04 	movi	r3,436
 18002d4:	00800c84 	movi	r2,50
 18002d8:	18800035 	stwio	r2,0(r3)
            IOWR_ALTERA_AVALON_PWM_DUTY(MY_PWM_2_BASE, 50);
 18002dc:	00c06c04 	movi	r3,432
 18002e0:	00800c84 	movi	r2,50
 18002e4:	18800035 	stwio	r2,0(r3)
            IOWR_ALTERA_AVALON_PWM_PERIOD(MY_PWM_2_BASE, 2000);
 18002e8:	00c06e04 	movi	r3,440
 18002ec:	0081f404 	movi	r2,2000
 18002f0:	18800035 	stwio	r2,0(r3)
            IOWR_ALTERA_AVALON_PWM_CONTROL(MY_PWM_2_BASE, 1);
 18002f4:	00c06f04 	movi	r3,444
 18002f8:	00800044 	movi	r2,1
 18002fc:	18800035 	stwio	r2,0(r3)
            break;
 1800300:	00001906 	br	1800368 <Initilise_PWM+0x1d4>

        case 'W' :
            IOWR_ALTERA_AVALON_PWM_CLK_DIV(MY_PWM_1_BASE, 50);
 1800304:	00c06904 	movi	r3,420
 1800308:	00800c84 	movi	r2,50
 180030c:	18800035 	stwio	r2,0(r3)
            IOWR_ALTERA_AVALON_PWM_DUTY(MY_PWM_1_BASE, 50);
 1800310:	00c06804 	movi	r3,416
 1800314:	00800c84 	movi	r2,50
 1800318:	18800035 	stwio	r2,0(r3)
            IOWR_ALTERA_AVALON_PWM_PERIOD(MY_PWM_1_BASE, 2000);
 180031c:	00c06a04 	movi	r3,424
 1800320:	0081f404 	movi	r2,2000
 1800324:	18800035 	stwio	r2,0(r3)
            IOWR_ALTERA_AVALON_PWM_CONTROL(MY_PWM_1_BASE, 1);
 1800328:	00c06b04 	movi	r3,428
 180032c:	00800044 	movi	r2,1
 1800330:	18800035 	stwio	r2,0(r3)
            break;
 1800334:	00000c06 	br	1800368 <Initilise_PWM+0x1d4>

        case 'G' :
            IOWR_ALTERA_AVALON_PWM_CLK_DIV(MY_PWM_0_BASE,50);//100
 1800338:	00c06504 	movi	r3,404
 180033c:	00800c84 	movi	r2,50
 1800340:	18800035 	stwio	r2,0(r3)
            IOWR_ALTERA_AVALON_PWM_DUTY(MY_PWM_0_BASE, 50);
 1800344:	00c06404 	movi	r3,400
 1800348:	00800c84 	movi	r2,50
 180034c:	18800035 	stwio	r2,0(r3)
            IOWR_ALTERA_AVALON_PWM_PERIOD(MY_PWM_0_BASE, 2000);//1000
 1800350:	00c06604 	movi	r3,408
 1800354:	0081f404 	movi	r2,2000
 1800358:	18800035 	stwio	r2,0(r3)
            IOWR_ALTERA_AVALON_PWM_CONTROL(MY_PWM_0_BASE, 1);
 180035c:	00c06704 	movi	r3,412
 1800360:	00800044 	movi	r2,1
 1800364:	18800035 	stwio	r2,0(r3)

            default :
            	break;
                return 0;
    }
    return 1;
 1800368:	00800044 	movi	r2,1
}
 180036c:	e037883a 	mov	sp,fp
 1800370:	df000017 	ldw	fp,0(sp)
 1800374:	dec00104 	addi	sp,sp,4
 1800378:	f800283a 	ret

0180037c <Set_PWM_Duty_Cycle>:
 *
 *  Description : This module updates the duty cycle for the selected PWM module
 *
 **************************************************************************************************/
int Set_PWM_Duty_Cycle ( int Channel, int Duty_Cycle)
{
 180037c:	defffb04 	addi	sp,sp,-20
 1800380:	df000415 	stw	fp,16(sp)
 1800384:	df000404 	addi	fp,sp,16
 1800388:	e13ffd15 	stw	r4,-12(fp)
 180038c:	e17ffe15 	stw	r5,-8(fp)
    //get address of PWM Channel

    int Address = 0;
 1800390:	e03ffc15 	stw	zero,-16(fp)

    switch (Channel)
 1800394:	e0bffd17 	ldw	r2,-12(fp)
 1800398:	108001e8 	cmpgeui	r2,r2,7
 180039c:	1000211e 	bne	r2,zero,1800424 <Set_PWM_Duty_Cycle+0xa8>
 18003a0:	e0bffd17 	ldw	r2,-12(fp)
 18003a4:	1085883a 	add	r2,r2,r2
 18003a8:	1087883a 	add	r3,r2,r2
 18003ac:	00806034 	movhi	r2,384
 18003b0:	1080f004 	addi	r2,r2,960
 18003b4:	1885883a 	add	r2,r3,r2
 18003b8:	10800017 	ldw	r2,0(r2)
 18003bc:	1000683a 	jmp	r2
 18003c0:	01800424 	muli	r6,zero,16
 18003c4:	018003dc 	xori	r6,zero,15
 18003c8:	018003e8 	cmpgeui	r6,zero,15
 18003cc:	018003f4 	movhi	r6,15
 18003d0:	01800400 	call	180040 <__alt_mem_sdram-0x167ffc0>
 18003d4:	0180040c 	andi	r6,zero,16
 18003d8:	01800418 	cmpnei	r6,zero,16
    {
        case 1 :
            Address = MY_PWM_0_BASE;
 18003dc:	00806404 	movi	r2,400
 18003e0:	e0bffc15 	stw	r2,-16(fp)
            break;
 18003e4:	00001106 	br	180042c <Set_PWM_Duty_Cycle+0xb0>
        case 2 :
            Address = MY_PWM_1_BASE;
 18003e8:	00806804 	movi	r2,416
 18003ec:	e0bffc15 	stw	r2,-16(fp)
            break;
 18003f0:	00000e06 	br	180042c <Set_PWM_Duty_Cycle+0xb0>
        case 3 :
            Address = MY_PWM_2_BASE;
 18003f4:	00806c04 	movi	r2,432
 18003f8:	e0bffc15 	stw	r2,-16(fp)
            break;
 18003fc:	00000b06 	br	180042c <Set_PWM_Duty_Cycle+0xb0>
        case 4 :
            Address = MY_PWM_3_BASE;
 1800400:	00807004 	movi	r2,448
 1800404:	e0bffc15 	stw	r2,-16(fp)
            break;
 1800408:	00000806 	br	180042c <Set_PWM_Duty_Cycle+0xb0>
        case 5 :
            Address = MY_PWM_4_BASE;
 180040c:	00807404 	movi	r2,464
 1800410:	e0bffc15 	stw	r2,-16(fp)
            break;
 1800414:	00000506 	br	180042c <Set_PWM_Duty_Cycle+0xb0>
        case 6 :
            Address = MY_PWM_5_BASE;
 1800418:	00807804 	movi	r2,480
 180041c:	e0bffc15 	stw	r2,-16(fp)
            break;
 1800420:	00000206 	br	180042c <Set_PWM_Duty_Cycle+0xb0>
        default :
            //unrecognised channal selected
            return 0;
 1800424:	e03fff15 	stw	zero,-4(fp)
 1800428:	00000d06 	br	1800460 <Set_PWM_Duty_Cycle+0xe4>

    }

    //check the desired PWM module is active
    if(IORD_ALTERA_AVALON_PWM_CONTROL(Address) == 0)
 180042c:	e0bffc17 	ldw	r2,-16(fp)
 1800430:	10800304 	addi	r2,r2,12
 1800434:	10800037 	ldwio	r2,0(r2)
 1800438:	1004c03a 	cmpne	r2,r2,zero
 180043c:	1000021e 	bne	r2,zero,1800448 <Set_PWM_Duty_Cycle+0xcc>
    {
        return 0;
 1800440:	e03fff15 	stw	zero,-4(fp)
 1800444:	00000606 	br	1800460 <Set_PWM_Duty_Cycle+0xe4>

    //check duty cycle is within bounds (0-100)
    //if(Duty_Cycle > 125) Duty_Cycle = 125;
    //if(Duty_Cycle < 25) Duty_Cycle = 0;
    //set the channel to the desired Duty Cycle
    IOWR_ALTERA_AVALON_PWM_DUTY(Address, Duty_Cycle);
 1800448:	e0bffc17 	ldw	r2,-16(fp)
 180044c:	1007883a 	mov	r3,r2
 1800450:	e0bffe17 	ldw	r2,-8(fp)
 1800454:	18800035 	stwio	r2,0(r3)

    return 1;
 1800458:	00800044 	movi	r2,1
 180045c:	e0bfff15 	stw	r2,-4(fp)
 1800460:	e0bfff17 	ldw	r2,-4(fp)
}
 1800464:	e037883a 	mov	sp,fp
 1800468:	df000017 	ldw	fp,0(sp)
 180046c:	dec00104 	addi	sp,sp,4
 1800470:	f800283a 	ret

01800474 <Set_Servo_Position>:
 *
 *  Description : This module updates the duty cycle for the selected PWM module
 *
 **************************************************************************************************/
int Set_Servo_Position (char Servo, int Position)
{
 1800474:	defff804 	addi	sp,sp,-32
 1800478:	dfc00715 	stw	ra,28(sp)
 180047c:	df000615 	stw	fp,24(sp)
 1800480:	df000604 	addi	fp,sp,24
 1800484:	e17ffd15 	stw	r5,-12(fp)
 1800488:	e13ffc05 	stb	r4,-16(fp)
	int pulseWidth = map(Position,-90,90,50,250);
 180048c:	00803e84 	movi	r2,250
 1800490:	d8800015 	stw	r2,0(sp)
 1800494:	e13ffd17 	ldw	r4,-12(fp)
 1800498:	017fe984 	movi	r5,-90
 180049c:	01801684 	movi	r6,90
 18004a0:	01c00c84 	movi	r7,50
 18004a4:	18005c40 	call	18005c4 <map>
 18004a8:	e0bffb15 	stw	r2,-20(fp)
    switch (Servo)
 18004ac:	e0bffc07 	ldb	r2,-16(fp)
 18004b0:	10bfef84 	addi	r2,r2,-66
 18004b4:	e0bfff15 	stw	r2,-4(fp)
 18004b8:	e0ffff17 	ldw	r3,-4(fp)
 18004bc:	188005a8 	cmpgeui	r2,r3,22
 18004c0:	1000361e 	bne	r2,zero,180059c <Set_Servo_Position+0x128>
 18004c4:	e13fff17 	ldw	r4,-4(fp)
 18004c8:	e13fff17 	ldw	r4,-4(fp)
 18004cc:	2105883a 	add	r2,r4,r4
 18004d0:	1087883a 	add	r3,r2,r2
 18004d4:	00806034 	movhi	r2,384
 18004d8:	10813a04 	addi	r2,r2,1256
 18004dc:	1885883a 	add	r2,r3,r2
 18004e0:	10800017 	ldw	r2,0(r2)
 18004e4:	1000683a 	jmp	r2
 18004e8:	0180058c 	andi	r6,zero,22
 18004ec:	0180059c 	xori	r6,zero,22
 18004f0:	0180059c 	xori	r6,zero,22
 18004f4:	01800560 	cmpeqi	r6,zero,21
 18004f8:	0180059c 	xori	r6,zero,22
 18004fc:	01800540 	call	180054 <__alt_mem_sdram-0x167ffac>
 1800500:	0180059c 	xori	r6,zero,22
 1800504:	0180059c 	xori	r6,zero,22
 1800508:	0180059c 	xori	r6,zero,22
 180050c:	0180059c 	xori	r6,zero,22
 1800510:	0180059c 	xori	r6,zero,22
 1800514:	0180059c 	xori	r6,zero,22
 1800518:	0180059c 	xori	r6,zero,22
 180051c:	0180059c 	xori	r6,zero,22
 1800520:	0180059c 	xori	r6,zero,22
 1800524:	0180059c 	xori	r6,zero,22
 1800528:	0180059c 	xori	r6,zero,22
 180052c:	01800570 	cmpltui	r6,zero,21
 1800530:	0180059c 	xori	r6,zero,22
 1800534:	0180059c 	xori	r6,zero,22
 1800538:	0180059c 	xori	r6,zero,22
 180053c:	01800550 	cmplti	r6,zero,21
    {
        case 'G' :
        	Set_PWM_Duty_Cycle(1, pulseWidth);
 1800540:	01000044 	movi	r4,1
 1800544:	e17ffb17 	ldw	r5,-20(fp)
 1800548:	180037c0 	call	180037c <Set_PWM_Duty_Cycle>
            break;
 180054c:	00001506 	br	18005a4 <Set_Servo_Position+0x130>
        case 'W' :
        	Set_PWM_Duty_Cycle(2, pulseWidth);
 1800550:	01000084 	movi	r4,2
 1800554:	e17ffb17 	ldw	r5,-20(fp)
 1800558:	180037c0 	call	180037c <Set_PWM_Duty_Cycle>
            break;
 180055c:	00001106 	br	18005a4 <Set_Servo_Position+0x130>
        case 'E' :
        	Set_PWM_Duty_Cycle(3, pulseWidth);
 1800560:	010000c4 	movi	r4,3
 1800564:	e17ffb17 	ldw	r5,-20(fp)
 1800568:	180037c0 	call	180037c <Set_PWM_Duty_Cycle>
            break;
 180056c:	00000d06 	br	18005a4 <Set_Servo_Position+0x130>
        case 'S' :
        	Set_PWM_Duty_Cycle(4, pulseWidth);
 1800570:	01000104 	movi	r4,4
 1800574:	e17ffb17 	ldw	r5,-20(fp)
 1800578:	180037c0 	call	180037c <Set_PWM_Duty_Cycle>
        	Set_PWM_Duty_Cycle(5, pulseWidth);
 180057c:	01000144 	movi	r4,5
 1800580:	e17ffb17 	ldw	r5,-20(fp)
 1800584:	180037c0 	call	180037c <Set_PWM_Duty_Cycle>
            break;
 1800588:	00000606 	br	18005a4 <Set_Servo_Position+0x130>
        case 'B' :
        	Set_PWM_Duty_Cycle(6, pulseWidth);
 180058c:	01000184 	movi	r4,6
 1800590:	e17ffb17 	ldw	r5,-20(fp)
 1800594:	180037c0 	call	180037c <Set_PWM_Duty_Cycle>
            break;
 1800598:	00000206 	br	18005a4 <Set_Servo_Position+0x130>
        default :
            //unrecognised channal selected
            return 0;
 180059c:	e03ffe15 	stw	zero,-8(fp)
 18005a0:	00000206 	br	18005ac <Set_Servo_Position+0x138>
    }
    return pulseWidth;
 18005a4:	e0bffb17 	ldw	r2,-20(fp)
 18005a8:	e0bffe15 	stw	r2,-8(fp)
 18005ac:	e0bffe17 	ldw	r2,-8(fp)
}
 18005b0:	e037883a 	mov	sp,fp
 18005b4:	dfc00117 	ldw	ra,4(sp)
 18005b8:	df000017 	ldw	fp,0(sp)
 18005bc:	dec00204 	addi	sp,sp,8
 18005c0:	f800283a 	ret

018005c4 <map>:
 *                by the input variable
 *
 **************************************************************************************************/

long map(long x, long in_min, long in_max, long out_min, long out_max)
{
 18005c4:	defffb04 	addi	sp,sp,-20
 18005c8:	df000415 	stw	fp,16(sp)
 18005cc:	df000404 	addi	fp,sp,16
 18005d0:	e13ffc15 	stw	r4,-16(fp)
 18005d4:	e17ffd15 	stw	r5,-12(fp)
 18005d8:	e1bffe15 	stw	r6,-8(fp)
 18005dc:	e1ffff15 	stw	r7,-4(fp)
  return (x - in_min) * (out_max - out_min) / (in_max - in_min) + out_min;
 18005e0:	e0fffc17 	ldw	r3,-16(fp)
 18005e4:	e0bffd17 	ldw	r2,-12(fp)
 18005e8:	1889c83a 	sub	r4,r3,r2
 18005ec:	e0c00117 	ldw	r3,4(fp)
 18005f0:	e0bfff17 	ldw	r2,-4(fp)
 18005f4:	1885c83a 	sub	r2,r3,r2
 18005f8:	2089383a 	mul	r4,r4,r2
 18005fc:	e0fffe17 	ldw	r3,-8(fp)
 1800600:	e0bffd17 	ldw	r2,-12(fp)
 1800604:	1885c83a 	sub	r2,r3,r2
 1800608:	2087283a 	div	r3,r4,r2
 180060c:	e0bfff17 	ldw	r2,-4(fp)
 1800610:	1885883a 	add	r2,r3,r2
}
 1800614:	e037883a 	mov	sp,fp
 1800618:	df000017 	ldw	fp,0(sp)
 180061c:	dec00104 	addi	sp,sp,4
 1800620:	f800283a 	ret

01800624 <smoothstep>:
 *                by the input variable
 *
 **************************************************************************************************/

int smoothstep(int startVal, int endVal, int totalItterations, int currentItteration)
{
 1800624:	defff704 	addi	sp,sp,-36
 1800628:	dfc00815 	stw	ra,32(sp)
 180062c:	df000715 	stw	fp,28(sp)
 1800630:	dc000615 	stw	r16,24(sp)
 1800634:	df000604 	addi	fp,sp,24
 1800638:	e13ffc15 	stw	r4,-16(fp)
 180063c:	e17ffd15 	stw	r5,-12(fp)
 1800640:	e1bffe15 	stw	r6,-8(fp)
 1800644:	e1ffff15 	stw	r7,-4(fp)
	float v; //temp value for progras through move between 0 and 1
	int v2;
	v = (float)currentItteration / totalItterations;
 1800648:	e13fff17 	ldw	r4,-4(fp)
 180064c:	18009980 	call	1800998 <__floatsisf>
 1800650:	1021883a 	mov	r16,r2
 1800654:	e13ffe17 	ldw	r4,-8(fp)
 1800658:	18009980 	call	1800998 <__floatsisf>
 180065c:	8009883a 	mov	r4,r16
 1800660:	100b883a 	mov	r5,r2
 1800664:	18008240 	call	1800824 <__divsf3>
 1800668:	e0bffb15 	stw	r2,-20(fp)
	v = ((v) * (v) * (3 - 2 * (v)));
 180066c:	e0fffb17 	ldw	r3,-20(fp)
 1800670:	e0bffb17 	ldw	r2,-20(fp)
 1800674:	1889ff32 	custom	252,r4,r3,r2
 1800678:	e0fffb17 	ldw	r3,-20(fp)
 180067c:	00b00034 	movhi	r2,49152
 1800680:	1887ff32 	custom	252,r3,r3,r2
 1800684:	00901034 	movhi	r2,16448
 1800688:	1885ff72 	custom	253,r2,r3,r2
 180068c:	2085ff32 	custom	252,r2,r4,r2
 1800690:	e0bffb15 	stw	r2,-20(fp)
	v2 = (int)round(((endVal * v) + (startVal * (1 - v))));
 1800694:	e13ffd17 	ldw	r4,-12(fp)
 1800698:	18009980 	call	1800998 <__floatsisf>
 180069c:	1007883a 	mov	r3,r2
 18006a0:	e0bffb17 	ldw	r2,-20(fp)
 18006a4:	18a1ff32 	custom	252,r16,r3,r2
 18006a8:	e13ffc17 	ldw	r4,-16(fp)
 18006ac:	18009980 	call	1800998 <__floatsisf>
 18006b0:	1009883a 	mov	r4,r2
 18006b4:	00cfe034 	movhi	r3,16256
 18006b8:	e0bffb17 	ldw	r2,-20(fp)
 18006bc:	1885ffb2 	custom	254,r2,r3,r2
 18006c0:	2085ff32 	custom	252,r2,r4,r2
 18006c4:	8085ff72 	custom	253,r2,r16,r2
 18006c8:	1009883a 	mov	r4,r2
 18006cc:	1800a300 	call	1800a30 <__extendsfdf2>
 18006d0:	100b883a 	mov	r5,r2
 18006d4:	180d883a 	mov	r6,r3
 18006d8:	2809883a 	mov	r4,r5
 18006dc:	300b883a 	mov	r5,r6
 18006e0:	18007180 	call	1800718 <round>
 18006e4:	100b883a 	mov	r5,r2
 18006e8:	180d883a 	mov	r6,r3
 18006ec:	2809883a 	mov	r4,r5
 18006f0:	300b883a 	mov	r5,r6
 18006f4:	1800f880 	call	1800f88 <__fixdfsi>
 18006f8:	e0bffa15 	stw	r2,-24(fp)
	return  v2;
 18006fc:	e0bffa17 	ldw	r2,-24(fp)
}
 1800700:	e037883a 	mov	sp,fp
 1800704:	dfc00217 	ldw	ra,8(sp)
 1800708:	df000117 	ldw	fp,4(sp)
 180070c:	dc000017 	ldw	r16,0(sp)
 1800710:	dec00304 	addi	sp,sp,12
 1800714:	f800283a 	ret

01800718 <round>:
 1800718:	289ffc2c 	andhi	r2,r5,32752
 180071c:	101bd53a 	srai	r13,r2,20
 1800720:	deffff04 	addi	sp,sp,-4
 1800724:	008004c4 	movi	r2,19
 1800728:	6abf0044 	addi	r10,r13,-1023
 180072c:	dfc00015 	stw	ra,0(sp)
 1800730:	2011883a 	mov	r8,r4
 1800734:	2813883a 	mov	r9,r5
 1800738:	2817883a 	mov	r11,r5
 180073c:	12801316 	blt	r2,r10,180078c <round+0x74>
 1800740:	50003016 	blt	r10,zero,1800804 <round+0xec>
 1800744:	00800434 	movhi	r2,16
 1800748:	10bfffc4 	addi	r2,r2,-1
 180074c:	1289d83a 	sra	r4,r2,r10
 1800750:	2146703a 	and	r3,r4,r5
 1800754:	18002926 	beq	r3,zero,18007fc <round+0xe4>
 1800758:	00800234 	movhi	r2,8
 180075c:	1285d83a 	sra	r2,r2,r10
 1800760:	0106303a 	nor	r3,zero,r4
 1800764:	0009883a 	mov	r4,zero
 1800768:	5885883a 	add	r2,r11,r2
 180076c:	1896703a 	and	r11,r3,r2
 1800770:	2011883a 	mov	r8,r4
 1800774:	5813883a 	mov	r9,r11
 1800778:	4005883a 	mov	r2,r8
 180077c:	4807883a 	mov	r3,r9
 1800780:	dfc00017 	ldw	ra,0(sp)
 1800784:	dec00104 	addi	sp,sp,4
 1800788:	f800283a 	ret
 180078c:	03800cc4 	movi	r14,51
 1800790:	72800e16 	blt	r14,r10,18007cc <round+0xb4>
 1800794:	68befb44 	addi	r2,r13,-1043
 1800798:	00ffffc4 	movi	r3,-1
 180079c:	188ad83a 	srl	r5,r3,r2
 18007a0:	2148703a 	and	r4,r4,r5
 18007a4:	203ff426 	beq	r4,zero,1800778 <round+0x60>
 18007a8:	7287c83a 	sub	r3,r14,r10
 18007ac:	00800044 	movi	r2,1
 18007b0:	10c4983a 	sll	r2,r2,r3
 18007b4:	4087883a 	add	r3,r8,r2
 18007b8:	1a00012e 	bgeu	r3,r8,18007c0 <round+0xa8>
 18007bc:	4ac00044 	addi	r11,r9,1
 18007c0:	0144303a 	nor	r2,zero,r5
 18007c4:	1888703a 	and	r4,r3,r2
 18007c8:	003fe906 	br	1800770 <round+0x58>
 18007cc:	00810004 	movi	r2,1024
 18007d0:	50bfe91e 	bne	r10,r2,1800778 <round+0x60>
 18007d4:	400d883a 	mov	r6,r8
 18007d8:	280f883a 	mov	r7,r5
 18007dc:	1800f140 	call	1800f14 <__adddf3>
 18007e0:	1011883a 	mov	r8,r2
 18007e4:	1813883a 	mov	r9,r3
 18007e8:	4005883a 	mov	r2,r8
 18007ec:	4807883a 	mov	r3,r9
 18007f0:	dfc00017 	ldw	ra,0(sp)
 18007f4:	dec00104 	addi	sp,sp,4
 18007f8:	f800283a 	ret
 18007fc:	403fd61e 	bne	r8,zero,1800758 <round+0x40>
 1800800:	003fdd06 	br	1800778 <round+0x60>
 1800804:	00bfffc4 	movi	r2,-1
 1800808:	2ae0002c 	andhi	r11,r5,32768
 180080c:	50800226 	beq	r10,r2,1800818 <round+0x100>
 1800810:	0009883a 	mov	r4,zero
 1800814:	003fd606 	br	1800770 <round+0x58>
 1800818:	5acffc34 	orhi	r11,r11,16368
 180081c:	0009883a 	mov	r4,zero
 1800820:	003fd306 	br	1800770 <round+0x58>

01800824 <__divsf3>:
 1800824:	defff304 	addi	sp,sp,-52
 1800828:	dc400b15 	stw	r17,44(sp)
 180082c:	dc400204 	addi	r17,sp,8
 1800830:	dc000a15 	stw	r16,40(sp)
 1800834:	d9000015 	stw	r4,0(sp)
 1800838:	d9400115 	stw	r5,4(sp)
 180083c:	d809883a 	mov	r4,sp
 1800840:	880b883a 	mov	r5,r17
 1800844:	dc000604 	addi	r16,sp,24
 1800848:	dfc00c15 	stw	ra,48(sp)
 180084c:	18012780 	call	1801278 <__unpack_f>
 1800850:	d9000104 	addi	r4,sp,4
 1800854:	800b883a 	mov	r5,r16
 1800858:	18012780 	call	1801278 <__unpack_f>
 180085c:	d9000217 	ldw	r4,8(sp)
 1800860:	00800044 	movi	r2,1
 1800864:	01800104 	movi	r6,4
 1800868:	11000a2e 	bgeu	r2,r4,1800894 <__divsf3+0x70>
 180086c:	d9400617 	ldw	r5,24(sp)
 1800870:	1140432e 	bgeu	r2,r5,1800980 <__divsf3+0x15c>
 1800874:	d8800317 	ldw	r2,12(sp)
 1800878:	d8c00717 	ldw	r3,28(sp)
 180087c:	10c4f03a 	xor	r2,r2,r3
 1800880:	d8800315 	stw	r2,12(sp)
 1800884:	21800226 	beq	r4,r6,1800890 <__divsf3+0x6c>
 1800888:	00800084 	movi	r2,2
 180088c:	2080101e 	bne	r4,r2,18008d0 <__divsf3+0xac>
 1800890:	29000726 	beq	r5,r4,18008b0 <__divsf3+0x8c>
 1800894:	8809883a 	mov	r4,r17
 1800898:	18011180 	call	1801118 <__pack_f>
 180089c:	dfc00c17 	ldw	ra,48(sp)
 18008a0:	dc400b17 	ldw	r17,44(sp)
 18008a4:	dc000a17 	ldw	r16,40(sp)
 18008a8:	dec00d04 	addi	sp,sp,52
 18008ac:	f800283a 	ret
 18008b0:	01006074 	movhi	r4,385
 18008b4:	2103c404 	addi	r4,r4,3856
 18008b8:	18011180 	call	1801118 <__pack_f>
 18008bc:	dfc00c17 	ldw	ra,48(sp)
 18008c0:	dc400b17 	ldw	r17,44(sp)
 18008c4:	dc000a17 	ldw	r16,40(sp)
 18008c8:	dec00d04 	addi	sp,sp,52
 18008cc:	f800283a 	ret
 18008d0:	29802d26 	beq	r5,r6,1800988 <__divsf3+0x164>
 18008d4:	28801a26 	beq	r5,r2,1800940 <__divsf3+0x11c>
 18008d8:	d8c00417 	ldw	r3,16(sp)
 18008dc:	d8800817 	ldw	r2,32(sp)
 18008e0:	d9000517 	ldw	r4,20(sp)
 18008e4:	d9800917 	ldw	r6,36(sp)
 18008e8:	1885c83a 	sub	r2,r3,r2
 18008ec:	d8800415 	stw	r2,16(sp)
 18008f0:	2180032e 	bgeu	r4,r6,1800900 <__divsf3+0xdc>
 18008f4:	10bfffc4 	addi	r2,r2,-1
 18008f8:	d8800415 	stw	r2,16(sp)
 18008fc:	2109883a 	add	r4,r4,r4
 1800900:	01500034 	movhi	r5,16384
 1800904:	0007883a 	mov	r3,zero
 1800908:	0005883a 	mov	r2,zero
 180090c:	01c007c4 	movi	r7,31
 1800910:	10800044 	addi	r2,r2,1
 1800914:	21800236 	bltu	r4,r6,1800920 <__divsf3+0xfc>
 1800918:	1946b03a 	or	r3,r3,r5
 180091c:	2189c83a 	sub	r4,r4,r6
 1800920:	280ad07a 	srli	r5,r5,1
 1800924:	2109883a 	add	r4,r4,r4
 1800928:	11fff91e 	bne	r2,r7,1800910 <__divsf3+0xec>
 180092c:	19401fcc 	andi	r5,r3,127
 1800930:	00801004 	movi	r2,64
 1800934:	28800a26 	beq	r5,r2,1800960 <__divsf3+0x13c>
 1800938:	d8c00515 	stw	r3,20(sp)
 180093c:	003fd506 	br	1800894 <__divsf3+0x70>
 1800940:	8809883a 	mov	r4,r17
 1800944:	d9800215 	stw	r6,8(sp)
 1800948:	18011180 	call	1801118 <__pack_f>
 180094c:	dfc00c17 	ldw	ra,48(sp)
 1800950:	dc400b17 	ldw	r17,44(sp)
 1800954:	dc000a17 	ldw	r16,40(sp)
 1800958:	dec00d04 	addi	sp,sp,52
 180095c:	f800283a 	ret
 1800960:	1880200c 	andi	r2,r3,128
 1800964:	103ff41e 	bne	r2,zero,1800938 <__divsf3+0x114>
 1800968:	203ff326 	beq	r4,zero,1800938 <__divsf3+0x114>
 180096c:	1947883a 	add	r3,r3,r5
 1800970:	00bfe004 	movi	r2,-128
 1800974:	1886703a 	and	r3,r3,r2
 1800978:	d8c00515 	stw	r3,20(sp)
 180097c:	003fc506 	br	1800894 <__divsf3+0x70>
 1800980:	8009883a 	mov	r4,r16
 1800984:	003fc406 	br	1800898 <__divsf3+0x74>
 1800988:	8809883a 	mov	r4,r17
 180098c:	d8000515 	stw	zero,20(sp)
 1800990:	d8000415 	stw	zero,16(sp)
 1800994:	003fc006 	br	1800898 <__divsf3+0x74>

01800998 <__floatsisf>:
 1800998:	2006d7fa 	srli	r3,r4,31
 180099c:	defffa04 	addi	sp,sp,-24
 18009a0:	008000c4 	movi	r2,3
 18009a4:	dfc00515 	stw	ra,20(sp)
 18009a8:	dc000415 	stw	r16,16(sp)
 18009ac:	d8800015 	stw	r2,0(sp)
 18009b0:	d8c00115 	stw	r3,4(sp)
 18009b4:	2000081e 	bne	r4,zero,18009d8 <__floatsisf+0x40>
 18009b8:	00800084 	movi	r2,2
 18009bc:	d8800015 	stw	r2,0(sp)
 18009c0:	d809883a 	mov	r4,sp
 18009c4:	18011180 	call	1801118 <__pack_f>
 18009c8:	dfc00517 	ldw	ra,20(sp)
 18009cc:	dc000417 	ldw	r16,16(sp)
 18009d0:	dec00604 	addi	sp,sp,24
 18009d4:	f800283a 	ret
 18009d8:	00800784 	movi	r2,30
 18009dc:	1807003a 	cmpeq	r3,r3,zero
 18009e0:	d8800215 	stw	r2,8(sp)
 18009e4:	18000e1e 	bne	r3,zero,1800a20 <__floatsisf+0x88>
 18009e8:	00a00034 	movhi	r2,32768
 18009ec:	20800e26 	beq	r4,r2,1800a28 <__floatsisf+0x90>
 18009f0:	0121c83a 	sub	r16,zero,r4
 18009f4:	8009883a 	mov	r4,r16
 18009f8:	dc000315 	stw	r16,12(sp)
 18009fc:	18010980 	call	1801098 <__clzsi2>
 1800a00:	117fffc4 	addi	r5,r2,-1
 1800a04:	017fee0e 	bge	zero,r5,18009c0 <__floatsisf+0x28>
 1800a08:	d8800217 	ldw	r2,8(sp)
 1800a0c:	8146983a 	sll	r3,r16,r5
 1800a10:	1145c83a 	sub	r2,r2,r5
 1800a14:	d8c00315 	stw	r3,12(sp)
 1800a18:	d8800215 	stw	r2,8(sp)
 1800a1c:	003fe806 	br	18009c0 <__floatsisf+0x28>
 1800a20:	2021883a 	mov	r16,r4
 1800a24:	003ff306 	br	18009f4 <__floatsisf+0x5c>
 1800a28:	00b3c034 	movhi	r2,52992
 1800a2c:	003fe606 	br	18009c8 <__floatsisf+0x30>

01800a30 <__extendsfdf2>:
 1800a30:	defff904 	addi	sp,sp,-28
 1800a34:	d9000115 	stw	r4,4(sp)
 1800a38:	d9400204 	addi	r5,sp,8
 1800a3c:	d9000104 	addi	r4,sp,4
 1800a40:	dfc00615 	stw	ra,24(sp)
 1800a44:	18012780 	call	1801278 <__unpack_f>
 1800a48:	d9c00517 	ldw	r7,20(sp)
 1800a4c:	0011883a 	mov	r8,zero
 1800a50:	400697ba 	slli	r3,r8,30
 1800a54:	3812d0ba 	srli	r9,r7,2
 1800a58:	380497ba 	slli	r2,r7,30
 1800a5c:	d9000217 	ldw	r4,8(sp)
 1800a60:	d9400317 	ldw	r5,12(sp)
 1800a64:	d9800417 	ldw	r6,16(sp)
 1800a68:	48c6b03a 	or	r3,r9,r3
 1800a6c:	100f883a 	mov	r7,r2
 1800a70:	d8c00015 	stw	r3,0(sp)
 1800a74:	18010600 	call	1801060 <__make_dp>
 1800a78:	dfc00617 	ldw	ra,24(sp)
 1800a7c:	dec00704 	addi	sp,sp,28
 1800a80:	f800283a 	ret

01800a84 <_fpadd_parts>:
 1800a84:	defff804 	addi	sp,sp,-32
 1800a88:	dcc00315 	stw	r19,12(sp)
 1800a8c:	2027883a 	mov	r19,r4
 1800a90:	21000017 	ldw	r4,0(r4)
 1800a94:	00c00044 	movi	r3,1
 1800a98:	dd400515 	stw	r21,20(sp)
 1800a9c:	dd000415 	stw	r20,16(sp)
 1800aa0:	ddc00715 	stw	r23,28(sp)
 1800aa4:	dd800615 	stw	r22,24(sp)
 1800aa8:	dc800215 	stw	r18,8(sp)
 1800aac:	dc400115 	stw	r17,4(sp)
 1800ab0:	dc000015 	stw	r16,0(sp)
 1800ab4:	282b883a 	mov	r21,r5
 1800ab8:	3029883a 	mov	r20,r6
 1800abc:	1900632e 	bgeu	r3,r4,1800c4c <_fpadd_parts+0x1c8>
 1800ac0:	28800017 	ldw	r2,0(r5)
 1800ac4:	1880812e 	bgeu	r3,r2,1800ccc <_fpadd_parts+0x248>
 1800ac8:	00c00104 	movi	r3,4
 1800acc:	20c0dc26 	beq	r4,r3,1800e40 <_fpadd_parts+0x3bc>
 1800ad0:	10c07e26 	beq	r2,r3,1800ccc <_fpadd_parts+0x248>
 1800ad4:	00c00084 	movi	r3,2
 1800ad8:	10c06726 	beq	r2,r3,1800c78 <_fpadd_parts+0x1f4>
 1800adc:	20c07b26 	beq	r4,r3,1800ccc <_fpadd_parts+0x248>
 1800ae0:	9dc00217 	ldw	r23,8(r19)
 1800ae4:	28c00217 	ldw	r3,8(r5)
 1800ae8:	9c400317 	ldw	r17,12(r19)
 1800aec:	2bc00317 	ldw	r15,12(r5)
 1800af0:	b8cdc83a 	sub	r6,r23,r3
 1800af4:	9c800417 	ldw	r18,16(r19)
 1800af8:	2c000417 	ldw	r16,16(r5)
 1800afc:	3009883a 	mov	r4,r6
 1800b00:	30009716 	blt	r6,zero,1800d60 <_fpadd_parts+0x2dc>
 1800b04:	00800fc4 	movi	r2,63
 1800b08:	11806b16 	blt	r2,r6,1800cb8 <_fpadd_parts+0x234>
 1800b0c:	0100a40e 	bge	zero,r4,1800da0 <_fpadd_parts+0x31c>
 1800b10:	35bff804 	addi	r22,r6,-32
 1800b14:	b000bc16 	blt	r22,zero,1800e08 <_fpadd_parts+0x384>
 1800b18:	8596d83a 	srl	r11,r16,r22
 1800b1c:	0019883a 	mov	r12,zero
 1800b20:	0013883a 	mov	r9,zero
 1800b24:	01000044 	movi	r4,1
 1800b28:	0015883a 	mov	r10,zero
 1800b2c:	b000be16 	blt	r22,zero,1800e28 <_fpadd_parts+0x3a4>
 1800b30:	2590983a 	sll	r8,r4,r22
 1800b34:	000f883a 	mov	r7,zero
 1800b38:	00bfffc4 	movi	r2,-1
 1800b3c:	3889883a 	add	r4,r7,r2
 1800b40:	408b883a 	add	r5,r8,r2
 1800b44:	21cd803a 	cmpltu	r6,r4,r7
 1800b48:	314b883a 	add	r5,r6,r5
 1800b4c:	7904703a 	and	r2,r15,r4
 1800b50:	8146703a 	and	r3,r16,r5
 1800b54:	10c4b03a 	or	r2,r2,r3
 1800b58:	10000226 	beq	r2,zero,1800b64 <_fpadd_parts+0xe0>
 1800b5c:	02400044 	movi	r9,1
 1800b60:	0015883a 	mov	r10,zero
 1800b64:	5a5eb03a 	or	r15,r11,r9
 1800b68:	62a0b03a 	or	r16,r12,r10
 1800b6c:	99400117 	ldw	r5,4(r19)
 1800b70:	a8800117 	ldw	r2,4(r21)
 1800b74:	28806e26 	beq	r5,r2,1800d30 <_fpadd_parts+0x2ac>
 1800b78:	28006626 	beq	r5,zero,1800d14 <_fpadd_parts+0x290>
 1800b7c:	7c45c83a 	sub	r2,r15,r17
 1800b80:	7889803a 	cmpltu	r4,r15,r2
 1800b84:	8487c83a 	sub	r3,r16,r18
 1800b88:	1909c83a 	sub	r4,r3,r4
 1800b8c:	100d883a 	mov	r6,r2
 1800b90:	200f883a 	mov	r7,r4
 1800b94:	38007716 	blt	r7,zero,1800d74 <_fpadd_parts+0x2f0>
 1800b98:	a5c00215 	stw	r23,8(r20)
 1800b9c:	a1c00415 	stw	r7,16(r20)
 1800ba0:	a0000115 	stw	zero,4(r20)
 1800ba4:	a1800315 	stw	r6,12(r20)
 1800ba8:	a2000317 	ldw	r8,12(r20)
 1800bac:	a2400417 	ldw	r9,16(r20)
 1800bb0:	00bfffc4 	movi	r2,-1
 1800bb4:	408b883a 	add	r5,r8,r2
 1800bb8:	2a09803a 	cmpltu	r4,r5,r8
 1800bbc:	488d883a 	add	r6,r9,r2
 1800bc0:	01c40034 	movhi	r7,4096
 1800bc4:	39ffffc4 	addi	r7,r7,-1
 1800bc8:	218d883a 	add	r6,r4,r6
 1800bcc:	39801736 	bltu	r7,r6,1800c2c <_fpadd_parts+0x1a8>
 1800bd0:	31c06526 	beq	r6,r7,1800d68 <_fpadd_parts+0x2e4>
 1800bd4:	a3000217 	ldw	r12,8(r20)
 1800bd8:	4209883a 	add	r4,r8,r8
 1800bdc:	00bfffc4 	movi	r2,-1
 1800be0:	220f803a 	cmpltu	r7,r4,r8
 1800be4:	4a4b883a 	add	r5,r9,r9
 1800be8:	394f883a 	add	r7,r7,r5
 1800bec:	2095883a 	add	r10,r4,r2
 1800bf0:	3897883a 	add	r11,r7,r2
 1800bf4:	510d803a 	cmpltu	r6,r10,r4
 1800bf8:	6099883a 	add	r12,r12,r2
 1800bfc:	32d7883a 	add	r11,r6,r11
 1800c00:	00840034 	movhi	r2,4096
 1800c04:	10bfffc4 	addi	r2,r2,-1
 1800c08:	2011883a 	mov	r8,r4
 1800c0c:	3813883a 	mov	r9,r7
 1800c10:	a1000315 	stw	r4,12(r20)
 1800c14:	a1c00415 	stw	r7,16(r20)
 1800c18:	a3000215 	stw	r12,8(r20)
 1800c1c:	12c00336 	bltu	r2,r11,1800c2c <_fpadd_parts+0x1a8>
 1800c20:	58bfed1e 	bne	r11,r2,1800bd8 <_fpadd_parts+0x154>
 1800c24:	00bfff84 	movi	r2,-2
 1800c28:	12bfeb2e 	bgeu	r2,r10,1800bd8 <_fpadd_parts+0x154>
 1800c2c:	a2800417 	ldw	r10,16(r20)
 1800c30:	008000c4 	movi	r2,3
 1800c34:	00c80034 	movhi	r3,8192
 1800c38:	18ffffc4 	addi	r3,r3,-1
 1800c3c:	a2400317 	ldw	r9,12(r20)
 1800c40:	a0800015 	stw	r2,0(r20)
 1800c44:	1a802336 	bltu	r3,r10,1800cd4 <_fpadd_parts+0x250>
 1800c48:	a027883a 	mov	r19,r20
 1800c4c:	9805883a 	mov	r2,r19
 1800c50:	ddc00717 	ldw	r23,28(sp)
 1800c54:	dd800617 	ldw	r22,24(sp)
 1800c58:	dd400517 	ldw	r21,20(sp)
 1800c5c:	dd000417 	ldw	r20,16(sp)
 1800c60:	dcc00317 	ldw	r19,12(sp)
 1800c64:	dc800217 	ldw	r18,8(sp)
 1800c68:	dc400117 	ldw	r17,4(sp)
 1800c6c:	dc000017 	ldw	r16,0(sp)
 1800c70:	dec00804 	addi	sp,sp,32
 1800c74:	f800283a 	ret
 1800c78:	20fff41e 	bne	r4,r3,1800c4c <_fpadd_parts+0x1c8>
 1800c7c:	31000015 	stw	r4,0(r6)
 1800c80:	98800117 	ldw	r2,4(r19)
 1800c84:	30800115 	stw	r2,4(r6)
 1800c88:	98c00217 	ldw	r3,8(r19)
 1800c8c:	30c00215 	stw	r3,8(r6)
 1800c90:	98800317 	ldw	r2,12(r19)
 1800c94:	30800315 	stw	r2,12(r6)
 1800c98:	98c00417 	ldw	r3,16(r19)
 1800c9c:	30c00415 	stw	r3,16(r6)
 1800ca0:	98800117 	ldw	r2,4(r19)
 1800ca4:	28c00117 	ldw	r3,4(r5)
 1800ca8:	3027883a 	mov	r19,r6
 1800cac:	10c4703a 	and	r2,r2,r3
 1800cb0:	30800115 	stw	r2,4(r6)
 1800cb4:	003fe506 	br	1800c4c <_fpadd_parts+0x1c8>
 1800cb8:	1dc02616 	blt	r3,r23,1800d54 <_fpadd_parts+0x2d0>
 1800cbc:	0023883a 	mov	r17,zero
 1800cc0:	182f883a 	mov	r23,r3
 1800cc4:	0025883a 	mov	r18,zero
 1800cc8:	003fa806 	br	1800b6c <_fpadd_parts+0xe8>
 1800ccc:	a827883a 	mov	r19,r21
 1800cd0:	003fde06 	br	1800c4c <_fpadd_parts+0x1c8>
 1800cd4:	01800044 	movi	r6,1
 1800cd8:	500497fa 	slli	r2,r10,31
 1800cdc:	4808d07a 	srli	r4,r9,1
 1800ce0:	518ad83a 	srl	r5,r10,r6
 1800ce4:	a2000217 	ldw	r8,8(r20)
 1800ce8:	1108b03a 	or	r4,r2,r4
 1800cec:	0007883a 	mov	r3,zero
 1800cf0:	4984703a 	and	r2,r9,r6
 1800cf4:	208cb03a 	or	r6,r4,r2
 1800cf8:	28ceb03a 	or	r7,r5,r3
 1800cfc:	42000044 	addi	r8,r8,1
 1800d00:	a027883a 	mov	r19,r20
 1800d04:	a1c00415 	stw	r7,16(r20)
 1800d08:	a2000215 	stw	r8,8(r20)
 1800d0c:	a1800315 	stw	r6,12(r20)
 1800d10:	003fce06 	br	1800c4c <_fpadd_parts+0x1c8>
 1800d14:	8bc5c83a 	sub	r2,r17,r15
 1800d18:	8889803a 	cmpltu	r4,r17,r2
 1800d1c:	9407c83a 	sub	r3,r18,r16
 1800d20:	1909c83a 	sub	r4,r3,r4
 1800d24:	100d883a 	mov	r6,r2
 1800d28:	200f883a 	mov	r7,r4
 1800d2c:	003f9906 	br	1800b94 <_fpadd_parts+0x110>
 1800d30:	7c45883a 	add	r2,r15,r17
 1800d34:	13c9803a 	cmpltu	r4,r2,r15
 1800d38:	8487883a 	add	r3,r16,r18
 1800d3c:	20c9883a 	add	r4,r4,r3
 1800d40:	a1400115 	stw	r5,4(r20)
 1800d44:	a5c00215 	stw	r23,8(r20)
 1800d48:	a0800315 	stw	r2,12(r20)
 1800d4c:	a1000415 	stw	r4,16(r20)
 1800d50:	003fb606 	br	1800c2c <_fpadd_parts+0x1a8>
 1800d54:	001f883a 	mov	r15,zero
 1800d58:	0021883a 	mov	r16,zero
 1800d5c:	003f8306 	br	1800b6c <_fpadd_parts+0xe8>
 1800d60:	018dc83a 	sub	r6,zero,r6
 1800d64:	003f6706 	br	1800b04 <_fpadd_parts+0x80>
 1800d68:	00bfff84 	movi	r2,-2
 1800d6c:	117faf36 	bltu	r2,r5,1800c2c <_fpadd_parts+0x1a8>
 1800d70:	003f9806 	br	1800bd4 <_fpadd_parts+0x150>
 1800d74:	0005883a 	mov	r2,zero
 1800d78:	1189c83a 	sub	r4,r2,r6
 1800d7c:	1105803a 	cmpltu	r2,r2,r4
 1800d80:	01cbc83a 	sub	r5,zero,r7
 1800d84:	2885c83a 	sub	r2,r5,r2
 1800d88:	01800044 	movi	r6,1
 1800d8c:	a1800115 	stw	r6,4(r20)
 1800d90:	a5c00215 	stw	r23,8(r20)
 1800d94:	a1000315 	stw	r4,12(r20)
 1800d98:	a0800415 	stw	r2,16(r20)
 1800d9c:	003f8206 	br	1800ba8 <_fpadd_parts+0x124>
 1800da0:	203f7226 	beq	r4,zero,1800b6c <_fpadd_parts+0xe8>
 1800da4:	35bff804 	addi	r22,r6,-32
 1800da8:	b9af883a 	add	r23,r23,r6
 1800dac:	b0003116 	blt	r22,zero,1800e74 <_fpadd_parts+0x3f0>
 1800db0:	959ad83a 	srl	r13,r18,r22
 1800db4:	001d883a 	mov	r14,zero
 1800db8:	000f883a 	mov	r7,zero
 1800dbc:	01000044 	movi	r4,1
 1800dc0:	0011883a 	mov	r8,zero
 1800dc4:	b0002516 	blt	r22,zero,1800e5c <_fpadd_parts+0x3d8>
 1800dc8:	2594983a 	sll	r10,r4,r22
 1800dcc:	0013883a 	mov	r9,zero
 1800dd0:	00bfffc4 	movi	r2,-1
 1800dd4:	4889883a 	add	r4,r9,r2
 1800dd8:	508b883a 	add	r5,r10,r2
 1800ddc:	224d803a 	cmpltu	r6,r4,r9
 1800de0:	314b883a 	add	r5,r6,r5
 1800de4:	8904703a 	and	r2,r17,r4
 1800de8:	9146703a 	and	r3,r18,r5
 1800dec:	10c4b03a 	or	r2,r2,r3
 1800df0:	10000226 	beq	r2,zero,1800dfc <_fpadd_parts+0x378>
 1800df4:	01c00044 	movi	r7,1
 1800df8:	0011883a 	mov	r8,zero
 1800dfc:	69e2b03a 	or	r17,r13,r7
 1800e00:	7224b03a 	or	r18,r14,r8
 1800e04:	003f5906 	br	1800b6c <_fpadd_parts+0xe8>
 1800e08:	8407883a 	add	r3,r16,r16
 1800e0c:	008007c4 	movi	r2,31
 1800e10:	1185c83a 	sub	r2,r2,r6
 1800e14:	1886983a 	sll	r3,r3,r2
 1800e18:	7996d83a 	srl	r11,r15,r6
 1800e1c:	8198d83a 	srl	r12,r16,r6
 1800e20:	1ad6b03a 	or	r11,r3,r11
 1800e24:	003f3e06 	br	1800b20 <_fpadd_parts+0x9c>
 1800e28:	2006d07a 	srli	r3,r4,1
 1800e2c:	008007c4 	movi	r2,31
 1800e30:	1185c83a 	sub	r2,r2,r6
 1800e34:	1890d83a 	srl	r8,r3,r2
 1800e38:	218e983a 	sll	r7,r4,r6
 1800e3c:	003f3e06 	br	1800b38 <_fpadd_parts+0xb4>
 1800e40:	113f821e 	bne	r2,r4,1800c4c <_fpadd_parts+0x1c8>
 1800e44:	28c00117 	ldw	r3,4(r5)
 1800e48:	98800117 	ldw	r2,4(r19)
 1800e4c:	10ff7f26 	beq	r2,r3,1800c4c <_fpadd_parts+0x1c8>
 1800e50:	04c06074 	movhi	r19,385
 1800e54:	9cc3c804 	addi	r19,r19,3872
 1800e58:	003f7c06 	br	1800c4c <_fpadd_parts+0x1c8>
 1800e5c:	2006d07a 	srli	r3,r4,1
 1800e60:	008007c4 	movi	r2,31
 1800e64:	1185c83a 	sub	r2,r2,r6
 1800e68:	1894d83a 	srl	r10,r3,r2
 1800e6c:	2192983a 	sll	r9,r4,r6
 1800e70:	003fd706 	br	1800dd0 <_fpadd_parts+0x34c>
 1800e74:	9487883a 	add	r3,r18,r18
 1800e78:	008007c4 	movi	r2,31
 1800e7c:	1185c83a 	sub	r2,r2,r6
 1800e80:	1886983a 	sll	r3,r3,r2
 1800e84:	899ad83a 	srl	r13,r17,r6
 1800e88:	919cd83a 	srl	r14,r18,r6
 1800e8c:	1b5ab03a 	or	r13,r3,r13
 1800e90:	003fc906 	br	1800db8 <_fpadd_parts+0x334>

01800e94 <__subdf3>:
 1800e94:	deffea04 	addi	sp,sp,-88
 1800e98:	dcc01415 	stw	r19,80(sp)
 1800e9c:	dcc00404 	addi	r19,sp,16
 1800ea0:	2011883a 	mov	r8,r4
 1800ea4:	2813883a 	mov	r9,r5
 1800ea8:	dc401315 	stw	r17,76(sp)
 1800eac:	d809883a 	mov	r4,sp
 1800eb0:	980b883a 	mov	r5,r19
 1800eb4:	dc400904 	addi	r17,sp,36
 1800eb8:	dfc01515 	stw	ra,84(sp)
 1800ebc:	da400115 	stw	r9,4(sp)
 1800ec0:	d9c00315 	stw	r7,12(sp)
 1800ec4:	da000015 	stw	r8,0(sp)
 1800ec8:	d9800215 	stw	r6,8(sp)
 1800ecc:	18016540 	call	1801654 <__unpack_d>
 1800ed0:	d9000204 	addi	r4,sp,8
 1800ed4:	880b883a 	mov	r5,r17
 1800ed8:	18016540 	call	1801654 <__unpack_d>
 1800edc:	d8800a17 	ldw	r2,40(sp)
 1800ee0:	880b883a 	mov	r5,r17
 1800ee4:	9809883a 	mov	r4,r19
 1800ee8:	d9800e04 	addi	r6,sp,56
 1800eec:	1080005c 	xori	r2,r2,1
 1800ef0:	d8800a15 	stw	r2,40(sp)
 1800ef4:	1800a840 	call	1800a84 <_fpadd_parts>
 1800ef8:	1009883a 	mov	r4,r2
 1800efc:	18013400 	call	1801340 <__pack_d>
 1800f00:	dfc01517 	ldw	ra,84(sp)
 1800f04:	dcc01417 	ldw	r19,80(sp)
 1800f08:	dc401317 	ldw	r17,76(sp)
 1800f0c:	dec01604 	addi	sp,sp,88
 1800f10:	f800283a 	ret

01800f14 <__adddf3>:
 1800f14:	deffea04 	addi	sp,sp,-88
 1800f18:	dcc01415 	stw	r19,80(sp)
 1800f1c:	dcc00404 	addi	r19,sp,16
 1800f20:	2011883a 	mov	r8,r4
 1800f24:	2813883a 	mov	r9,r5
 1800f28:	dc401315 	stw	r17,76(sp)
 1800f2c:	d809883a 	mov	r4,sp
 1800f30:	980b883a 	mov	r5,r19
 1800f34:	dc400904 	addi	r17,sp,36
 1800f38:	dfc01515 	stw	ra,84(sp)
 1800f3c:	da400115 	stw	r9,4(sp)
 1800f40:	d9c00315 	stw	r7,12(sp)
 1800f44:	da000015 	stw	r8,0(sp)
 1800f48:	d9800215 	stw	r6,8(sp)
 1800f4c:	18016540 	call	1801654 <__unpack_d>
 1800f50:	d9000204 	addi	r4,sp,8
 1800f54:	880b883a 	mov	r5,r17
 1800f58:	18016540 	call	1801654 <__unpack_d>
 1800f5c:	d9800e04 	addi	r6,sp,56
 1800f60:	9809883a 	mov	r4,r19
 1800f64:	880b883a 	mov	r5,r17
 1800f68:	1800a840 	call	1800a84 <_fpadd_parts>
 1800f6c:	1009883a 	mov	r4,r2
 1800f70:	18013400 	call	1801340 <__pack_d>
 1800f74:	dfc01517 	ldw	ra,84(sp)
 1800f78:	dcc01417 	ldw	r19,80(sp)
 1800f7c:	dc401317 	ldw	r17,76(sp)
 1800f80:	dec01604 	addi	sp,sp,88
 1800f84:	f800283a 	ret

01800f88 <__fixdfsi>:
 1800f88:	defff804 	addi	sp,sp,-32
 1800f8c:	2005883a 	mov	r2,r4
 1800f90:	2807883a 	mov	r3,r5
 1800f94:	d809883a 	mov	r4,sp
 1800f98:	d9400204 	addi	r5,sp,8
 1800f9c:	d8c00115 	stw	r3,4(sp)
 1800fa0:	d8800015 	stw	r2,0(sp)
 1800fa4:	dfc00715 	stw	ra,28(sp)
 1800fa8:	18016540 	call	1801654 <__unpack_d>
 1800fac:	d8c00217 	ldw	r3,8(sp)
 1800fb0:	00800084 	movi	r2,2
 1800fb4:	1880051e 	bne	r3,r2,1800fcc <__fixdfsi+0x44>
 1800fb8:	0007883a 	mov	r3,zero
 1800fbc:	1805883a 	mov	r2,r3
 1800fc0:	dfc00717 	ldw	ra,28(sp)
 1800fc4:	dec00804 	addi	sp,sp,32
 1800fc8:	f800283a 	ret
 1800fcc:	00800044 	movi	r2,1
 1800fd0:	10fff92e 	bgeu	r2,r3,1800fb8 <__fixdfsi+0x30>
 1800fd4:	00800104 	movi	r2,4
 1800fd8:	18800426 	beq	r3,r2,1800fec <__fixdfsi+0x64>
 1800fdc:	d8c00417 	ldw	r3,16(sp)
 1800fe0:	183ff516 	blt	r3,zero,1800fb8 <__fixdfsi+0x30>
 1800fe4:	00800784 	movi	r2,30
 1800fe8:	10c0080e 	bge	r2,r3,180100c <__fixdfsi+0x84>
 1800fec:	d8800317 	ldw	r2,12(sp)
 1800ff0:	1000121e 	bne	r2,zero,180103c <__fixdfsi+0xb4>
 1800ff4:	00e00034 	movhi	r3,32768
 1800ff8:	18ffffc4 	addi	r3,r3,-1
 1800ffc:	1805883a 	mov	r2,r3
 1801000:	dfc00717 	ldw	ra,28(sp)
 1801004:	dec00804 	addi	sp,sp,32
 1801008:	f800283a 	ret
 180100c:	00800f04 	movi	r2,60
 1801010:	10d1c83a 	sub	r8,r2,r3
 1801014:	40bff804 	addi	r2,r8,-32
 1801018:	d9800517 	ldw	r6,20(sp)
 180101c:	d9c00617 	ldw	r7,24(sp)
 1801020:	10000816 	blt	r2,zero,1801044 <__fixdfsi+0xbc>
 1801024:	3888d83a 	srl	r4,r7,r2
 1801028:	d8800317 	ldw	r2,12(sp)
 180102c:	2007883a 	mov	r3,r4
 1801030:	103fe226 	beq	r2,zero,1800fbc <__fixdfsi+0x34>
 1801034:	0107c83a 	sub	r3,zero,r4
 1801038:	003fe006 	br	1800fbc <__fixdfsi+0x34>
 180103c:	00e00034 	movhi	r3,32768
 1801040:	003fde06 	br	1800fbc <__fixdfsi+0x34>
 1801044:	39c7883a 	add	r3,r7,r7
 1801048:	008007c4 	movi	r2,31
 180104c:	1205c83a 	sub	r2,r2,r8
 1801050:	1886983a 	sll	r3,r3,r2
 1801054:	3208d83a 	srl	r4,r6,r8
 1801058:	1908b03a 	or	r4,r3,r4
 180105c:	003ff206 	br	1801028 <__fixdfsi+0xa0>

01801060 <__make_dp>:
 1801060:	defff904 	addi	sp,sp,-28
 1801064:	d8c00717 	ldw	r3,28(sp)
 1801068:	d9000015 	stw	r4,0(sp)
 180106c:	d809883a 	mov	r4,sp
 1801070:	dfc00515 	stw	ra,20(sp)
 1801074:	d9c00615 	stw	r7,24(sp)
 1801078:	d9400115 	stw	r5,4(sp)
 180107c:	d9800215 	stw	r6,8(sp)
 1801080:	d8c00415 	stw	r3,16(sp)
 1801084:	d9c00315 	stw	r7,12(sp)
 1801088:	18013400 	call	1801340 <__pack_d>
 180108c:	dfc00517 	ldw	ra,20(sp)
 1801090:	dec00704 	addi	sp,sp,28
 1801094:	f800283a 	ret

01801098 <__clzsi2>:
 1801098:	00bfffd4 	movui	r2,65535
 180109c:	11000e36 	bltu	r2,r4,18010d8 <__clzsi2+0x40>
 18010a0:	00803fc4 	movi	r2,255
 18010a4:	01400204 	movi	r5,8
 18010a8:	0007883a 	mov	r3,zero
 18010ac:	11001036 	bltu	r2,r4,18010f0 <__clzsi2+0x58>
 18010b0:	000b883a 	mov	r5,zero
 18010b4:	20c6d83a 	srl	r3,r4,r3
 18010b8:	00806074 	movhi	r2,385
 18010bc:	1083cd04 	addi	r2,r2,3892
 18010c0:	1887883a 	add	r3,r3,r2
 18010c4:	18800003 	ldbu	r2,0(r3)
 18010c8:	00c00804 	movi	r3,32
 18010cc:	2885883a 	add	r2,r5,r2
 18010d0:	1885c83a 	sub	r2,r3,r2
 18010d4:	f800283a 	ret
 18010d8:	01400404 	movi	r5,16
 18010dc:	00804034 	movhi	r2,256
 18010e0:	10bfffc4 	addi	r2,r2,-1
 18010e4:	2807883a 	mov	r3,r5
 18010e8:	113ff22e 	bgeu	r2,r4,18010b4 <__clzsi2+0x1c>
 18010ec:	01400604 	movi	r5,24
 18010f0:	2807883a 	mov	r3,r5
 18010f4:	20c6d83a 	srl	r3,r4,r3
 18010f8:	00806074 	movhi	r2,385
 18010fc:	1083cd04 	addi	r2,r2,3892
 1801100:	1887883a 	add	r3,r3,r2
 1801104:	18800003 	ldbu	r2,0(r3)
 1801108:	00c00804 	movi	r3,32
 180110c:	2885883a 	add	r2,r5,r2
 1801110:	1885c83a 	sub	r2,r3,r2
 1801114:	f800283a 	ret

01801118 <__pack_f>:
 1801118:	20c00017 	ldw	r3,0(r4)
 180111c:	01c00044 	movi	r7,1
 1801120:	21800317 	ldw	r6,12(r4)
 1801124:	21400117 	ldw	r5,4(r4)
 1801128:	38c02d2e 	bgeu	r7,r3,18011e0 <__pack_f+0xc8>
 180112c:	00800104 	movi	r2,4
 1801130:	18802826 	beq	r3,r2,18011d4 <__pack_f+0xbc>
 1801134:	00800084 	movi	r2,2
 1801138:	18800126 	beq	r3,r2,1801140 <__pack_f+0x28>
 180113c:	3000101e 	bne	r6,zero,1801180 <__pack_f+0x68>
 1801140:	000d883a 	mov	r6,zero
 1801144:	0007883a 	mov	r3,zero
 1801148:	19003fcc 	andi	r4,r3,255
 180114c:	200895fa 	slli	r4,r4,23
 1801150:	00c02034 	movhi	r3,128
 1801154:	18ffffc4 	addi	r3,r3,-1
 1801158:	30c6703a 	and	r3,r6,r3
 180115c:	10a0002c 	andhi	r2,r2,32768
 1801160:	10c4b03a 	or	r2,r2,r3
 1801164:	280a97fa 	slli	r5,r5,31
 1801168:	1104b03a 	or	r2,r2,r4
 180116c:	00e00034 	movhi	r3,32768
 1801170:	18ffffc4 	addi	r3,r3,-1
 1801174:	10c4703a 	and	r2,r2,r3
 1801178:	1144b03a 	or	r2,r2,r5
 180117c:	f800283a 	ret
 1801180:	21000217 	ldw	r4,8(r4)
 1801184:	00bfe084 	movi	r2,-126
 1801188:	20801b16 	blt	r4,r2,18011f8 <__pack_f+0xe0>
 180118c:	00801fc4 	movi	r2,127
 1801190:	11001016 	blt	r2,r4,18011d4 <__pack_f+0xbc>
 1801194:	308e703a 	and	r7,r6,r2
 1801198:	2087883a 	add	r3,r4,r2
 180119c:	00801004 	movi	r2,64
 18011a0:	38800526 	beq	r7,r2,18011b8 <__pack_f+0xa0>
 18011a4:	31800fc4 	addi	r6,r6,63
 18011a8:	30000716 	blt	r6,zero,18011c8 <__pack_f+0xb0>
 18011ac:	300490ba 	slli	r2,r6,2
 18011b0:	100cd27a 	srli	r6,r2,9
 18011b4:	003fe406 	br	1801148 <__pack_f+0x30>
 18011b8:	3080200c 	andi	r2,r6,128
 18011bc:	103ffa26 	beq	r2,zero,18011a8 <__pack_f+0x90>
 18011c0:	31cd883a 	add	r6,r6,r7
 18011c4:	003ff806 	br	18011a8 <__pack_f+0x90>
 18011c8:	300cd07a 	srli	r6,r6,1
 18011cc:	18c00044 	addi	r3,r3,1
 18011d0:	003ff606 	br	18011ac <__pack_f+0x94>
 18011d4:	000d883a 	mov	r6,zero
 18011d8:	00ffffc4 	movi	r3,-1
 18011dc:	003fda06 	br	1801148 <__pack_f+0x30>
 18011e0:	31800434 	orhi	r6,r6,16
 18011e4:	00802034 	movhi	r2,128
 18011e8:	10bfffc4 	addi	r2,r2,-1
 18011ec:	308c703a 	and	r6,r6,r2
 18011f0:	00ffffc4 	movi	r3,-1
 18011f4:	003fd406 	br	1801148 <__pack_f+0x30>
 18011f8:	1109c83a 	sub	r4,r2,r4
 18011fc:	00800644 	movi	r2,25
 1801200:	11001216 	blt	r2,r4,180124c <__pack_f+0x134>
 1801204:	3904983a 	sll	r2,r7,r4
 1801208:	3106d83a 	srl	r3,r6,r4
 180120c:	10bfffc4 	addi	r2,r2,-1
 1801210:	3084703a 	and	r2,r6,r2
 1801214:	1004c03a 	cmpne	r2,r2,zero
 1801218:	1886b03a 	or	r3,r3,r2
 180121c:	19001fcc 	andi	r4,r3,127
 1801220:	00801004 	movi	r2,64
 1801224:	20800c26 	beq	r4,r2,1801258 <__pack_f+0x140>
 1801228:	18c00fc4 	addi	r3,r3,63
 180122c:	00900034 	movhi	r2,16384
 1801230:	10bfffc4 	addi	r2,r2,-1
 1801234:	180cd1fa 	srli	r6,r3,7
 1801238:	10c7803a 	cmpltu	r3,r2,r3
 180123c:	00802034 	movhi	r2,128
 1801240:	10bfffc4 	addi	r2,r2,-1
 1801244:	308c703a 	and	r6,r6,r2
 1801248:	003fbf06 	br	1801148 <__pack_f+0x30>
 180124c:	0007883a 	mov	r3,zero
 1801250:	000d883a 	mov	r6,zero
 1801254:	003ff906 	br	180123c <__pack_f+0x124>
 1801258:	1880200c 	andi	r2,r3,128
 180125c:	10000126 	beq	r2,zero,1801264 <__pack_f+0x14c>
 1801260:	1907883a 	add	r3,r3,r4
 1801264:	180cd1fa 	srli	r6,r3,7
 1801268:	00900034 	movhi	r2,16384
 180126c:	10bfffc4 	addi	r2,r2,-1
 1801270:	10c7803a 	cmpltu	r3,r2,r3
 1801274:	003ff106 	br	180123c <__pack_f+0x124>

01801278 <__unpack_f>:
 1801278:	21800017 	ldw	r6,0(r4)
 180127c:	00c02034 	movhi	r3,128
 1801280:	18ffffc4 	addi	r3,r3,-1
 1801284:	3004d5fa 	srli	r2,r6,23
 1801288:	3008d7fa 	srli	r4,r6,31
 180128c:	30ce703a 	and	r7,r6,r3
 1801290:	10c03fcc 	andi	r3,r2,255
 1801294:	29000115 	stw	r4,4(r5)
 1801298:	1800131e 	bne	r3,zero,18012e8 <__unpack_f+0x70>
 180129c:	38000f26 	beq	r7,zero,18012dc <__unpack_f+0x64>
 18012a0:	380691fa 	slli	r3,r7,7
 18012a4:	01bfe084 	movi	r6,-126
 18012a8:	008000c4 	movi	r2,3
 18012ac:	01100034 	movhi	r4,16384
 18012b0:	213fffc4 	addi	r4,r4,-1
 18012b4:	28800015 	stw	r2,0(r5)
 18012b8:	29800215 	stw	r6,8(r5)
 18012bc:	20c00536 	bltu	r4,r3,18012d4 <__unpack_f+0x5c>
 18012c0:	3005883a 	mov	r2,r6
 18012c4:	18c7883a 	add	r3,r3,r3
 18012c8:	10bfffc4 	addi	r2,r2,-1
 18012cc:	20fffd2e 	bgeu	r4,r3,18012c4 <__unpack_f+0x4c>
 18012d0:	28800215 	stw	r2,8(r5)
 18012d4:	28c00315 	stw	r3,12(r5)
 18012d8:	f800283a 	ret
 18012dc:	00800084 	movi	r2,2
 18012e0:	28800015 	stw	r2,0(r5)
 18012e4:	f800283a 	ret
 18012e8:	00803fc4 	movi	r2,255
 18012ec:	18800826 	beq	r3,r2,1801310 <__unpack_f+0x98>
 18012f0:	380491fa 	slli	r2,r7,7
 18012f4:	18ffe044 	addi	r3,r3,-127
 18012f8:	28c00215 	stw	r3,8(r5)
 18012fc:	10900034 	orhi	r2,r2,16384
 1801300:	28800315 	stw	r2,12(r5)
 1801304:	008000c4 	movi	r2,3
 1801308:	28800015 	stw	r2,0(r5)
 180130c:	f800283a 	ret
 1801310:	3800031e 	bne	r7,zero,1801320 <__unpack_f+0xa8>
 1801314:	00800104 	movi	r2,4
 1801318:	28800015 	stw	r2,0(r5)
 180131c:	f800283a 	ret
 1801320:	3080042c 	andhi	r2,r6,16
 1801324:	10000426 	beq	r2,zero,1801338 <__unpack_f+0xc0>
 1801328:	00800044 	movi	r2,1
 180132c:	28800015 	stw	r2,0(r5)
 1801330:	29c00315 	stw	r7,12(r5)
 1801334:	f800283a 	ret
 1801338:	28000015 	stw	zero,0(r5)
 180133c:	003ffc06 	br	1801330 <__unpack_f+0xb8>

01801340 <__pack_d>:
 1801340:	20c00017 	ldw	r3,0(r4)
 1801344:	defffd04 	addi	sp,sp,-12
 1801348:	dc000015 	stw	r16,0(sp)
 180134c:	dc800215 	stw	r18,8(sp)
 1801350:	dc400115 	stw	r17,4(sp)
 1801354:	00800044 	movi	r2,1
 1801358:	22000317 	ldw	r8,12(r4)
 180135c:	001f883a 	mov	r15,zero
 1801360:	22400417 	ldw	r9,16(r4)
 1801364:	24000117 	ldw	r16,4(r4)
 1801368:	10c0552e 	bgeu	r2,r3,18014c0 <__pack_d+0x180>
 180136c:	00800104 	movi	r2,4
 1801370:	18804f26 	beq	r3,r2,18014b0 <__pack_d+0x170>
 1801374:	00800084 	movi	r2,2
 1801378:	18800226 	beq	r3,r2,1801384 <__pack_d+0x44>
 180137c:	4244b03a 	or	r2,r8,r9
 1801380:	10001a1e 	bne	r2,zero,18013ec <__pack_d+0xac>
 1801384:	000d883a 	mov	r6,zero
 1801388:	000f883a 	mov	r7,zero
 180138c:	0011883a 	mov	r8,zero
 1801390:	00800434 	movhi	r2,16
 1801394:	10bfffc4 	addi	r2,r2,-1
 1801398:	301d883a 	mov	r14,r6
 180139c:	3884703a 	and	r2,r7,r2
 18013a0:	400a953a 	slli	r5,r8,20
 18013a4:	79bffc2c 	andhi	r6,r15,65520
 18013a8:	308cb03a 	or	r6,r6,r2
 18013ac:	00e00434 	movhi	r3,32784
 18013b0:	18ffffc4 	addi	r3,r3,-1
 18013b4:	800497fa 	slli	r2,r16,31
 18013b8:	30c6703a 	and	r3,r6,r3
 18013bc:	1946b03a 	or	r3,r3,r5
 18013c0:	01600034 	movhi	r5,32768
 18013c4:	297fffc4 	addi	r5,r5,-1
 18013c8:	194a703a 	and	r5,r3,r5
 18013cc:	288ab03a 	or	r5,r5,r2
 18013d0:	2807883a 	mov	r3,r5
 18013d4:	7005883a 	mov	r2,r14
 18013d8:	dc800217 	ldw	r18,8(sp)
 18013dc:	dc400117 	ldw	r17,4(sp)
 18013e0:	dc000017 	ldw	r16,0(sp)
 18013e4:	dec00304 	addi	sp,sp,12
 18013e8:	f800283a 	ret
 18013ec:	21000217 	ldw	r4,8(r4)
 18013f0:	00bf0084 	movi	r2,-1022
 18013f4:	20803f16 	blt	r4,r2,18014f4 <__pack_d+0x1b4>
 18013f8:	0080ffc4 	movi	r2,1023
 18013fc:	11002c16 	blt	r2,r4,18014b0 <__pack_d+0x170>
 1801400:	00803fc4 	movi	r2,255
 1801404:	408c703a 	and	r6,r8,r2
 1801408:	00802004 	movi	r2,128
 180140c:	0007883a 	mov	r3,zero
 1801410:	000f883a 	mov	r7,zero
 1801414:	2280ffc4 	addi	r10,r4,1023
 1801418:	30801e26 	beq	r6,r2,1801494 <__pack_d+0x154>
 180141c:	00801fc4 	movi	r2,127
 1801420:	4089883a 	add	r4,r8,r2
 1801424:	220d803a 	cmpltu	r6,r4,r8
 1801428:	324d883a 	add	r6,r6,r9
 180142c:	2011883a 	mov	r8,r4
 1801430:	3013883a 	mov	r9,r6
 1801434:	00880034 	movhi	r2,8192
 1801438:	10bfffc4 	addi	r2,r2,-1
 180143c:	12400d36 	bltu	r2,r9,1801474 <__pack_d+0x134>
 1801440:	4804963a 	slli	r2,r9,24
 1801444:	400cd23a 	srli	r6,r8,8
 1801448:	480ed23a 	srli	r7,r9,8
 180144c:	013fffc4 	movi	r4,-1
 1801450:	118cb03a 	or	r6,r2,r6
 1801454:	01400434 	movhi	r5,16
 1801458:	297fffc4 	addi	r5,r5,-1
 180145c:	3104703a 	and	r2,r6,r4
 1801460:	3946703a 	and	r3,r7,r5
 1801464:	5201ffcc 	andi	r8,r10,2047
 1801468:	100d883a 	mov	r6,r2
 180146c:	180f883a 	mov	r7,r3
 1801470:	003fc706 	br	1801390 <__pack_d+0x50>
 1801474:	480897fa 	slli	r4,r9,31
 1801478:	4004d07a 	srli	r2,r8,1
 180147c:	4806d07a 	srli	r3,r9,1
 1801480:	52800044 	addi	r10,r10,1
 1801484:	2084b03a 	or	r2,r4,r2
 1801488:	1011883a 	mov	r8,r2
 180148c:	1813883a 	mov	r9,r3
 1801490:	003feb06 	br	1801440 <__pack_d+0x100>
 1801494:	383fe11e 	bne	r7,zero,180141c <__pack_d+0xdc>
 1801498:	01004004 	movi	r4,256
 180149c:	4104703a 	and	r2,r8,r4
 18014a0:	10c4b03a 	or	r2,r2,r3
 18014a4:	103fe326 	beq	r2,zero,1801434 <__pack_d+0xf4>
 18014a8:	3005883a 	mov	r2,r6
 18014ac:	003fdc06 	br	1801420 <__pack_d+0xe0>
 18014b0:	000d883a 	mov	r6,zero
 18014b4:	000f883a 	mov	r7,zero
 18014b8:	0201ffc4 	movi	r8,2047
 18014bc:	003fb406 	br	1801390 <__pack_d+0x50>
 18014c0:	0005883a 	mov	r2,zero
 18014c4:	00c00234 	movhi	r3,8
 18014c8:	408cb03a 	or	r6,r8,r2
 18014cc:	48ceb03a 	or	r7,r9,r3
 18014d0:	013fffc4 	movi	r4,-1
 18014d4:	01400434 	movhi	r5,16
 18014d8:	297fffc4 	addi	r5,r5,-1
 18014dc:	3104703a 	and	r2,r6,r4
 18014e0:	3946703a 	and	r3,r7,r5
 18014e4:	100d883a 	mov	r6,r2
 18014e8:	180f883a 	mov	r7,r3
 18014ec:	0201ffc4 	movi	r8,2047
 18014f0:	003fa706 	br	1801390 <__pack_d+0x50>
 18014f4:	1109c83a 	sub	r4,r2,r4
 18014f8:	00800e04 	movi	r2,56
 18014fc:	11004316 	blt	r2,r4,180160c <__pack_d+0x2cc>
 1801500:	21fff804 	addi	r7,r4,-32
 1801504:	38004516 	blt	r7,zero,180161c <__pack_d+0x2dc>
 1801508:	49d8d83a 	srl	r12,r9,r7
 180150c:	001b883a 	mov	r13,zero
 1801510:	0023883a 	mov	r17,zero
 1801514:	01400044 	movi	r5,1
 1801518:	0025883a 	mov	r18,zero
 180151c:	38004716 	blt	r7,zero,180163c <__pack_d+0x2fc>
 1801520:	29d6983a 	sll	r11,r5,r7
 1801524:	0015883a 	mov	r10,zero
 1801528:	00bfffc4 	movi	r2,-1
 180152c:	5089883a 	add	r4,r10,r2
 1801530:	588b883a 	add	r5,r11,r2
 1801534:	228d803a 	cmpltu	r6,r4,r10
 1801538:	314b883a 	add	r5,r6,r5
 180153c:	4104703a 	and	r2,r8,r4
 1801540:	4946703a 	and	r3,r9,r5
 1801544:	10c4b03a 	or	r2,r2,r3
 1801548:	10000226 	beq	r2,zero,1801554 <__pack_d+0x214>
 180154c:	04400044 	movi	r17,1
 1801550:	0025883a 	mov	r18,zero
 1801554:	00803fc4 	movi	r2,255
 1801558:	644eb03a 	or	r7,r12,r17
 180155c:	3892703a 	and	r9,r7,r2
 1801560:	00802004 	movi	r2,128
 1801564:	6c90b03a 	or	r8,r13,r18
 1801568:	0015883a 	mov	r10,zero
 180156c:	48801626 	beq	r9,r2,18015c8 <__pack_d+0x288>
 1801570:	01001fc4 	movi	r4,127
 1801574:	3905883a 	add	r2,r7,r4
 1801578:	11cd803a 	cmpltu	r6,r2,r7
 180157c:	320d883a 	add	r6,r6,r8
 1801580:	100f883a 	mov	r7,r2
 1801584:	00840034 	movhi	r2,4096
 1801588:	10bfffc4 	addi	r2,r2,-1
 180158c:	3011883a 	mov	r8,r6
 1801590:	0007883a 	mov	r3,zero
 1801594:	11801b36 	bltu	r2,r6,1801604 <__pack_d+0x2c4>
 1801598:	4004963a 	slli	r2,r8,24
 180159c:	3808d23a 	srli	r4,r7,8
 18015a0:	400ad23a 	srli	r5,r8,8
 18015a4:	1813883a 	mov	r9,r3
 18015a8:	1108b03a 	or	r4,r2,r4
 18015ac:	00bfffc4 	movi	r2,-1
 18015b0:	00c00434 	movhi	r3,16
 18015b4:	18ffffc4 	addi	r3,r3,-1
 18015b8:	208c703a 	and	r6,r4,r2
 18015bc:	28ce703a 	and	r7,r5,r3
 18015c0:	4a01ffcc 	andi	r8,r9,2047
 18015c4:	003f7206 	br	1801390 <__pack_d+0x50>
 18015c8:	503fe91e 	bne	r10,zero,1801570 <__pack_d+0x230>
 18015cc:	01004004 	movi	r4,256
 18015d0:	3904703a 	and	r2,r7,r4
 18015d4:	0007883a 	mov	r3,zero
 18015d8:	10c4b03a 	or	r2,r2,r3
 18015dc:	10000626 	beq	r2,zero,18015f8 <__pack_d+0x2b8>
 18015e0:	3a45883a 	add	r2,r7,r9
 18015e4:	11cd803a 	cmpltu	r6,r2,r7
 18015e8:	320d883a 	add	r6,r6,r8
 18015ec:	100f883a 	mov	r7,r2
 18015f0:	3011883a 	mov	r8,r6
 18015f4:	0007883a 	mov	r3,zero
 18015f8:	00840034 	movhi	r2,4096
 18015fc:	10bfffc4 	addi	r2,r2,-1
 1801600:	123fe52e 	bgeu	r2,r8,1801598 <__pack_d+0x258>
 1801604:	00c00044 	movi	r3,1
 1801608:	003fe306 	br	1801598 <__pack_d+0x258>
 180160c:	0009883a 	mov	r4,zero
 1801610:	0013883a 	mov	r9,zero
 1801614:	000b883a 	mov	r5,zero
 1801618:	003fe406 	br	18015ac <__pack_d+0x26c>
 180161c:	4a47883a 	add	r3,r9,r9
 1801620:	008007c4 	movi	r2,31
 1801624:	1105c83a 	sub	r2,r2,r4
 1801628:	1886983a 	sll	r3,r3,r2
 180162c:	4118d83a 	srl	r12,r8,r4
 1801630:	491ad83a 	srl	r13,r9,r4
 1801634:	1b18b03a 	or	r12,r3,r12
 1801638:	003fb506 	br	1801510 <__pack_d+0x1d0>
 180163c:	2806d07a 	srli	r3,r5,1
 1801640:	008007c4 	movi	r2,31
 1801644:	1105c83a 	sub	r2,r2,r4
 1801648:	1896d83a 	srl	r11,r3,r2
 180164c:	2914983a 	sll	r10,r5,r4
 1801650:	003fb506 	br	1801528 <__pack_d+0x1e8>

01801654 <__unpack_d>:
 1801654:	20c00117 	ldw	r3,4(r4)
 1801658:	22400017 	ldw	r9,0(r4)
 180165c:	00800434 	movhi	r2,16
 1801660:	10bfffc4 	addi	r2,r2,-1
 1801664:	1808d53a 	srli	r4,r3,20
 1801668:	180cd7fa 	srli	r6,r3,31
 180166c:	1894703a 	and	r10,r3,r2
 1801670:	2201ffcc 	andi	r8,r4,2047
 1801674:	281b883a 	mov	r13,r5
 1801678:	4817883a 	mov	r11,r9
 180167c:	29800115 	stw	r6,4(r5)
 1801680:	5019883a 	mov	r12,r10
 1801684:	40001e1e 	bne	r8,zero,1801700 <__unpack_d+0xac>
 1801688:	4a84b03a 	or	r2,r9,r10
 180168c:	10001926 	beq	r2,zero,18016f4 <__unpack_d+0xa0>
 1801690:	4804d63a 	srli	r2,r9,24
 1801694:	500c923a 	slli	r6,r10,8
 1801698:	013f0084 	movi	r4,-1022
 180169c:	00c40034 	movhi	r3,4096
 18016a0:	18ffffc4 	addi	r3,r3,-1
 18016a4:	118cb03a 	or	r6,r2,r6
 18016a8:	008000c4 	movi	r2,3
 18016ac:	480a923a 	slli	r5,r9,8
 18016b0:	68800015 	stw	r2,0(r13)
 18016b4:	69000215 	stw	r4,8(r13)
 18016b8:	19800b36 	bltu	r3,r6,18016e8 <__unpack_d+0x94>
 18016bc:	200f883a 	mov	r7,r4
 18016c0:	1811883a 	mov	r8,r3
 18016c4:	2945883a 	add	r2,r5,r5
 18016c8:	1149803a 	cmpltu	r4,r2,r5
 18016cc:	3187883a 	add	r3,r6,r6
 18016d0:	20c9883a 	add	r4,r4,r3
 18016d4:	100b883a 	mov	r5,r2
 18016d8:	200d883a 	mov	r6,r4
 18016dc:	39ffffc4 	addi	r7,r7,-1
 18016e0:	413ff82e 	bgeu	r8,r4,18016c4 <__unpack_d+0x70>
 18016e4:	69c00215 	stw	r7,8(r13)
 18016e8:	69800415 	stw	r6,16(r13)
 18016ec:	69400315 	stw	r5,12(r13)
 18016f0:	f800283a 	ret
 18016f4:	00800084 	movi	r2,2
 18016f8:	28800015 	stw	r2,0(r5)
 18016fc:	f800283a 	ret
 1801700:	0081ffc4 	movi	r2,2047
 1801704:	40800f26 	beq	r8,r2,1801744 <__unpack_d+0xf0>
 1801708:	480cd63a 	srli	r6,r9,24
 180170c:	5006923a 	slli	r3,r10,8
 1801710:	4804923a 	slli	r2,r9,8
 1801714:	0009883a 	mov	r4,zero
 1801718:	30c6b03a 	or	r3,r6,r3
 180171c:	01440034 	movhi	r5,4096
 1801720:	110cb03a 	or	r6,r2,r4
 1801724:	423f0044 	addi	r8,r8,-1023
 1801728:	194eb03a 	or	r7,r3,r5
 180172c:	008000c4 	movi	r2,3
 1801730:	69c00415 	stw	r7,16(r13)
 1801734:	6a000215 	stw	r8,8(r13)
 1801738:	68800015 	stw	r2,0(r13)
 180173c:	69800315 	stw	r6,12(r13)
 1801740:	f800283a 	ret
 1801744:	4a84b03a 	or	r2,r9,r10
 1801748:	1000031e 	bne	r2,zero,1801758 <__unpack_d+0x104>
 180174c:	00800104 	movi	r2,4
 1801750:	28800015 	stw	r2,0(r5)
 1801754:	f800283a 	ret
 1801758:	0009883a 	mov	r4,zero
 180175c:	01400234 	movhi	r5,8
 1801760:	4904703a 	and	r2,r9,r4
 1801764:	5146703a 	and	r3,r10,r5
 1801768:	10c4b03a 	or	r2,r2,r3
 180176c:	10000526 	beq	r2,zero,1801784 <__unpack_d+0x130>
 1801770:	00800044 	movi	r2,1
 1801774:	68800015 	stw	r2,0(r13)
 1801778:	6b000415 	stw	r12,16(r13)
 180177c:	6ac00315 	stw	r11,12(r13)
 1801780:	f800283a 	ret
 1801784:	68000015 	stw	zero,0(r13)
 1801788:	003ffb06 	br	1801778 <__unpack_d+0x124>

0180178c <printf>:
 180178c:	defffb04 	addi	sp,sp,-20
 1801790:	dfc00115 	stw	ra,4(sp)
 1801794:	d9400215 	stw	r5,8(sp)
 1801798:	d9800315 	stw	r6,12(sp)
 180179c:	d9c00415 	stw	r7,16(sp)
 18017a0:	00806074 	movhi	r2,385
 18017a4:	108c7704 	addi	r2,r2,12764
 18017a8:	10c00017 	ldw	r3,0(r2)
 18017ac:	200b883a 	mov	r5,r4
 18017b0:	d8800204 	addi	r2,sp,8
 18017b4:	19000217 	ldw	r4,8(r3)
 18017b8:	100d883a 	mov	r6,r2
 18017bc:	d8800015 	stw	r2,0(sp)
 18017c0:	18037080 	call	1803708 <__vfprintf_internal>
 18017c4:	dfc00117 	ldw	ra,4(sp)
 18017c8:	dec00504 	addi	sp,sp,20
 18017cc:	f800283a 	ret

018017d0 <_printf_r>:
 18017d0:	defffc04 	addi	sp,sp,-16
 18017d4:	dfc00115 	stw	ra,4(sp)
 18017d8:	d9800215 	stw	r6,8(sp)
 18017dc:	d9c00315 	stw	r7,12(sp)
 18017e0:	280d883a 	mov	r6,r5
 18017e4:	21400217 	ldw	r5,8(r4)
 18017e8:	d8c00204 	addi	r3,sp,8
 18017ec:	180f883a 	mov	r7,r3
 18017f0:	d8c00015 	stw	r3,0(sp)
 18017f4:	180185c0 	call	180185c <___vfprintf_internal_r>
 18017f8:	dfc00117 	ldw	ra,4(sp)
 18017fc:	dec00404 	addi	sp,sp,16
 1801800:	f800283a 	ret

01801804 <__sprint_r>:
 1801804:	30800217 	ldw	r2,8(r6)
 1801808:	defffe04 	addi	sp,sp,-8
 180180c:	dc000015 	stw	r16,0(sp)
 1801810:	dfc00115 	stw	ra,4(sp)
 1801814:	3021883a 	mov	r16,r6
 1801818:	0007883a 	mov	r3,zero
 180181c:	1000061e 	bne	r2,zero,1801838 <__sprint_r+0x34>
 1801820:	1805883a 	mov	r2,r3
 1801824:	30000115 	stw	zero,4(r6)
 1801828:	dfc00117 	ldw	ra,4(sp)
 180182c:	dc000017 	ldw	r16,0(sp)
 1801830:	dec00204 	addi	sp,sp,8
 1801834:	f800283a 	ret
 1801838:	18059640 	call	1805964 <__sfvwrite_r>
 180183c:	1007883a 	mov	r3,r2
 1801840:	1805883a 	mov	r2,r3
 1801844:	80000115 	stw	zero,4(r16)
 1801848:	80000215 	stw	zero,8(r16)
 180184c:	dfc00117 	ldw	ra,4(sp)
 1801850:	dc000017 	ldw	r16,0(sp)
 1801854:	dec00204 	addi	sp,sp,8
 1801858:	f800283a 	ret

0180185c <___vfprintf_internal_r>:
 180185c:	defea404 	addi	sp,sp,-1392
 1801860:	dd815815 	stw	r22,1376(sp)
 1801864:	dc015215 	stw	r16,1352(sp)
 1801868:	d9c15115 	stw	r7,1348(sp)
 180186c:	dfc15b15 	stw	ra,1388(sp)
 1801870:	df015a15 	stw	fp,1384(sp)
 1801874:	ddc15915 	stw	r23,1380(sp)
 1801878:	dd415715 	stw	r21,1372(sp)
 180187c:	dd015615 	stw	r20,1368(sp)
 1801880:	dcc15515 	stw	r19,1364(sp)
 1801884:	dc815415 	stw	r18,1360(sp)
 1801888:	dc415315 	stw	r17,1356(sp)
 180188c:	282d883a 	mov	r22,r5
 1801890:	3021883a 	mov	r16,r6
 1801894:	d9014f15 	stw	r4,1340(sp)
 1801898:	1805f880 	call	1805f88 <_localeconv_r>
 180189c:	10800017 	ldw	r2,0(r2)
 18018a0:	d9c15117 	ldw	r7,1348(sp)
 18018a4:	d8814915 	stw	r2,1316(sp)
 18018a8:	d8814f17 	ldw	r2,1340(sp)
 18018ac:	10000226 	beq	r2,zero,18018b8 <___vfprintf_internal_r+0x5c>
 18018b0:	10800e17 	ldw	r2,56(r2)
 18018b4:	10020d26 	beq	r2,zero,18020ec <___vfprintf_internal_r+0x890>
 18018b8:	b080030b 	ldhu	r2,12(r22)
 18018bc:	1080020c 	andi	r2,r2,8
 18018c0:	10020e26 	beq	r2,zero,18020fc <___vfprintf_internal_r+0x8a0>
 18018c4:	b0800417 	ldw	r2,16(r22)
 18018c8:	10020c26 	beq	r2,zero,18020fc <___vfprintf_internal_r+0x8a0>
 18018cc:	b200030b 	ldhu	r8,12(r22)
 18018d0:	00800284 	movi	r2,10
 18018d4:	40c0068c 	andi	r3,r8,26
 18018d8:	18802f1e 	bne	r3,r2,1801998 <___vfprintf_internal_r+0x13c>
 18018dc:	b080038f 	ldh	r2,14(r22)
 18018e0:	10002d16 	blt	r2,zero,1801998 <___vfprintf_internal_r+0x13c>
 18018e4:	b240038b 	ldhu	r9,14(r22)
 18018e8:	b2800717 	ldw	r10,28(r22)
 18018ec:	b2c00917 	ldw	r11,36(r22)
 18018f0:	d9014f17 	ldw	r4,1340(sp)
 18018f4:	dc402904 	addi	r17,sp,164
 18018f8:	d8804004 	addi	r2,sp,256
 18018fc:	00c10004 	movi	r3,1024
 1801900:	423fff4c 	andi	r8,r8,65533
 1801904:	800d883a 	mov	r6,r16
 1801908:	880b883a 	mov	r5,r17
 180190c:	da002c0d 	sth	r8,176(sp)
 1801910:	da402c8d 	sth	r9,178(sp)
 1801914:	da803015 	stw	r10,192(sp)
 1801918:	dac03215 	stw	r11,200(sp)
 180191c:	d8802d15 	stw	r2,180(sp)
 1801920:	d8c02e15 	stw	r3,184(sp)
 1801924:	d8802915 	stw	r2,164(sp)
 1801928:	d8c02b15 	stw	r3,172(sp)
 180192c:	d8002f15 	stw	zero,188(sp)
 1801930:	180185c0 	call	180185c <___vfprintf_internal_r>
 1801934:	d8814b15 	stw	r2,1324(sp)
 1801938:	10000416 	blt	r2,zero,180194c <___vfprintf_internal_r+0xf0>
 180193c:	d9014f17 	ldw	r4,1340(sp)
 1801940:	880b883a 	mov	r5,r17
 1801944:	18050340 	call	1805034 <_fflush_r>
 1801948:	1002321e 	bne	r2,zero,1802214 <___vfprintf_internal_r+0x9b8>
 180194c:	d8802c0b 	ldhu	r2,176(sp)
 1801950:	1080100c 	andi	r2,r2,64
 1801954:	10000326 	beq	r2,zero,1801964 <___vfprintf_internal_r+0x108>
 1801958:	b080030b 	ldhu	r2,12(r22)
 180195c:	10801014 	ori	r2,r2,64
 1801960:	b080030d 	sth	r2,12(r22)
 1801964:	d8814b17 	ldw	r2,1324(sp)
 1801968:	dfc15b17 	ldw	ra,1388(sp)
 180196c:	df015a17 	ldw	fp,1384(sp)
 1801970:	ddc15917 	ldw	r23,1380(sp)
 1801974:	dd815817 	ldw	r22,1376(sp)
 1801978:	dd415717 	ldw	r21,1372(sp)
 180197c:	dd015617 	ldw	r20,1368(sp)
 1801980:	dcc15517 	ldw	r19,1364(sp)
 1801984:	dc815417 	ldw	r18,1360(sp)
 1801988:	dc415317 	ldw	r17,1356(sp)
 180198c:	dc015217 	ldw	r16,1352(sp)
 1801990:	dec15c04 	addi	sp,sp,1392
 1801994:	f800283a 	ret
 1801998:	0005883a 	mov	r2,zero
 180199c:	0007883a 	mov	r3,zero
 18019a0:	dd401904 	addi	r21,sp,100
 18019a4:	d8814215 	stw	r2,1288(sp)
 18019a8:	802f883a 	mov	r23,r16
 18019ac:	d8c14315 	stw	r3,1292(sp)
 18019b0:	d8014b15 	stw	zero,1324(sp)
 18019b4:	d8014815 	stw	zero,1312(sp)
 18019b8:	d8014415 	stw	zero,1296(sp)
 18019bc:	d8014715 	stw	zero,1308(sp)
 18019c0:	dd400c15 	stw	r21,48(sp)
 18019c4:	d8000e15 	stw	zero,56(sp)
 18019c8:	d8000d15 	stw	zero,52(sp)
 18019cc:	b8800007 	ldb	r2,0(r23)
 18019d0:	10001926 	beq	r2,zero,1801a38 <___vfprintf_internal_r+0x1dc>
 18019d4:	00c00944 	movi	r3,37
 18019d8:	10c01726 	beq	r2,r3,1801a38 <___vfprintf_internal_r+0x1dc>
 18019dc:	b821883a 	mov	r16,r23
 18019e0:	00000106 	br	18019e8 <___vfprintf_internal_r+0x18c>
 18019e4:	10c00326 	beq	r2,r3,18019f4 <___vfprintf_internal_r+0x198>
 18019e8:	84000044 	addi	r16,r16,1
 18019ec:	80800007 	ldb	r2,0(r16)
 18019f0:	103ffc1e 	bne	r2,zero,18019e4 <___vfprintf_internal_r+0x188>
 18019f4:	85e7c83a 	sub	r19,r16,r23
 18019f8:	98000e26 	beq	r19,zero,1801a34 <___vfprintf_internal_r+0x1d8>
 18019fc:	dc800e17 	ldw	r18,56(sp)
 1801a00:	dc400d17 	ldw	r17,52(sp)
 1801a04:	008001c4 	movi	r2,7
 1801a08:	94e5883a 	add	r18,r18,r19
 1801a0c:	8c400044 	addi	r17,r17,1
 1801a10:	adc00015 	stw	r23,0(r21)
 1801a14:	dc800e15 	stw	r18,56(sp)
 1801a18:	acc00115 	stw	r19,4(r21)
 1801a1c:	dc400d15 	stw	r17,52(sp)
 1801a20:	14428b16 	blt	r2,r17,1802450 <___vfprintf_internal_r+0xbf4>
 1801a24:	ad400204 	addi	r21,r21,8
 1801a28:	d9014b17 	ldw	r4,1324(sp)
 1801a2c:	24c9883a 	add	r4,r4,r19
 1801a30:	d9014b15 	stw	r4,1324(sp)
 1801a34:	802f883a 	mov	r23,r16
 1801a38:	b8800007 	ldb	r2,0(r23)
 1801a3c:	10013c26 	beq	r2,zero,1801f30 <___vfprintf_internal_r+0x6d4>
 1801a40:	bdc00044 	addi	r23,r23,1
 1801a44:	d8000405 	stb	zero,16(sp)
 1801a48:	b8c00007 	ldb	r3,0(r23)
 1801a4c:	04ffffc4 	movi	r19,-1
 1801a50:	d8014c15 	stw	zero,1328(sp)
 1801a54:	d8014a15 	stw	zero,1320(sp)
 1801a58:	d8c14d15 	stw	r3,1332(sp)
 1801a5c:	bdc00044 	addi	r23,r23,1
 1801a60:	d9414d17 	ldw	r5,1332(sp)
 1801a64:	00801604 	movi	r2,88
 1801a68:	28fff804 	addi	r3,r5,-32
 1801a6c:	10c06036 	bltu	r2,r3,1801bf0 <___vfprintf_internal_r+0x394>
 1801a70:	18c5883a 	add	r2,r3,r3
 1801a74:	1085883a 	add	r2,r2,r2
 1801a78:	00c06034 	movhi	r3,384
 1801a7c:	18c6a304 	addi	r3,r3,6796
 1801a80:	10c5883a 	add	r2,r2,r3
 1801a84:	11000017 	ldw	r4,0(r2)
 1801a88:	2000683a 	jmp	r4
 1801a8c:	01802a00 	call	1802a0 <__alt_mem_sdram-0x167fd60>
 1801a90:	01801bf0 	cmpltui	r6,zero,111
 1801a94:	01801bf0 	cmpltui	r6,zero,111
 1801a98:	018029ec 	andhi	r6,zero,167
 1801a9c:	01801bf0 	cmpltui	r6,zero,111
 1801aa0:	01801bf0 	cmpltui	r6,zero,111
 1801aa4:	01801bf0 	cmpltui	r6,zero,111
 1801aa8:	01801bf0 	cmpltui	r6,zero,111
 1801aac:	01801bf0 	cmpltui	r6,zero,111
 1801ab0:	01801bf0 	cmpltui	r6,zero,111
 1801ab4:	018027cc 	andi	r6,zero,159
 1801ab8:	018029dc 	xori	r6,zero,167
 1801abc:	01801bf0 	cmpltui	r6,zero,111
 1801ac0:	018027e4 	muli	r6,zero,159
 1801ac4:	01802a78 	rdprs	r6,zero,169
 1801ac8:	01801bf0 	cmpltui	r6,zero,111
 1801acc:	01802a64 	muli	r6,zero,169
 1801ad0:	01802a2c 	andhi	r6,zero,168
 1801ad4:	01802a2c 	andhi	r6,zero,168
 1801ad8:	01802a2c 	andhi	r6,zero,168
 1801adc:	01802a2c 	andhi	r6,zero,168
 1801ae0:	01802a2c 	andhi	r6,zero,168
 1801ae4:	01802a2c 	andhi	r6,zero,168
 1801ae8:	01802a2c 	andhi	r6,zero,168
 1801aec:	01802a2c 	andhi	r6,zero,168
 1801af0:	01802a2c 	andhi	r6,zero,168
 1801af4:	01801bf0 	cmpltui	r6,zero,111
 1801af8:	01801bf0 	cmpltui	r6,zero,111
 1801afc:	01801bf0 	cmpltui	r6,zero,111
 1801b00:	01801bf0 	cmpltui	r6,zero,111
 1801b04:	01801bf0 	cmpltui	r6,zero,111
 1801b08:	01801bf0 	cmpltui	r6,zero,111
 1801b0c:	01801bf0 	cmpltui	r6,zero,111
 1801b10:	01801bf0 	cmpltui	r6,zero,111
 1801b14:	01801bf0 	cmpltui	r6,zero,111
 1801b18:	01801bf0 	cmpltui	r6,zero,111
 1801b1c:	01802248 	cmpgei	r6,zero,137
 1801b20:	018028b4 	movhi	r6,162
 1801b24:	01801bf0 	cmpltui	r6,zero,111
 1801b28:	018028b4 	movhi	r6,162
 1801b2c:	01801bf0 	cmpltui	r6,zero,111
 1801b30:	01801bf0 	cmpltui	r6,zero,111
 1801b34:	01801bf0 	cmpltui	r6,zero,111
 1801b38:	01801bf0 	cmpltui	r6,zero,111
 1801b3c:	01802a18 	cmpnei	r6,zero,168
 1801b40:	01801bf0 	cmpltui	r6,zero,111
 1801b44:	01801bf0 	cmpltui	r6,zero,111
 1801b48:	018022fc 	xorhi	r6,zero,139
 1801b4c:	01801bf0 	cmpltui	r6,zero,111
 1801b50:	01801bf0 	cmpltui	r6,zero,111
 1801b54:	01801bf0 	cmpltui	r6,zero,111
 1801b58:	01801bf0 	cmpltui	r6,zero,111
 1801b5c:	01801bf0 	cmpltui	r6,zero,111
 1801b60:	01802348 	cmpgei	r6,zero,141
 1801b64:	01801bf0 	cmpltui	r6,zero,111
 1801b68:	01801bf0 	cmpltui	r6,zero,111
 1801b6c:	01802968 	cmpgeui	r6,zero,165
 1801b70:	01801bf0 	cmpltui	r6,zero,111
 1801b74:	01801bf0 	cmpltui	r6,zero,111
 1801b78:	01801bf0 	cmpltui	r6,zero,111
 1801b7c:	01801bf0 	cmpltui	r6,zero,111
 1801b80:	01801bf0 	cmpltui	r6,zero,111
 1801b84:	01801bf0 	cmpltui	r6,zero,111
 1801b88:	01801bf0 	cmpltui	r6,zero,111
 1801b8c:	01801bf0 	cmpltui	r6,zero,111
 1801b90:	01801bf0 	cmpltui	r6,zero,111
 1801b94:	01801bf0 	cmpltui	r6,zero,111
 1801b98:	0180293c 	xorhi	r6,zero,164
 1801b9c:	01802254 	movui	r6,137
 1801ba0:	018028b4 	movhi	r6,162
 1801ba4:	018028b4 	movhi	r6,162
 1801ba8:	018028b4 	movhi	r6,162
 1801bac:	018028a0 	cmpeqi	r6,zero,162
 1801bb0:	01802254 	movui	r6,137
 1801bb4:	01801bf0 	cmpltui	r6,zero,111
 1801bb8:	01801bf0 	cmpltui	r6,zero,111
 1801bbc:	01802828 	cmpgeui	r6,zero,160
 1801bc0:	01801bf0 	cmpltui	r6,zero,111
 1801bc4:	018027f8 	rdprs	r6,zero,159
 1801bc8:	01802308 	cmpgei	r6,zero,140
 1801bcc:	01802858 	cmpnei	r6,zero,161
 1801bd0:	01802844 	movi	r6,161
 1801bd4:	01801bf0 	cmpltui	r6,zero,111
 1801bd8:	01802ad4 	movui	r6,171
 1801bdc:	01801bf0 	cmpltui	r6,zero,111
 1801be0:	01802354 	movui	r6,141
 1801be4:	01801bf0 	cmpltui	r6,zero,111
 1801be8:	01801bf0 	cmpltui	r6,zero,111
 1801bec:	018029cc 	andi	r6,zero,167
 1801bf0:	d9014d17 	ldw	r4,1332(sp)
 1801bf4:	2000ce26 	beq	r4,zero,1801f30 <___vfprintf_internal_r+0x6d4>
 1801bf8:	01400044 	movi	r5,1
 1801bfc:	d9800f04 	addi	r6,sp,60
 1801c00:	d9c14015 	stw	r7,1280(sp)
 1801c04:	d9414515 	stw	r5,1300(sp)
 1801c08:	d9814115 	stw	r6,1284(sp)
 1801c0c:	280f883a 	mov	r7,r5
 1801c10:	d9000f05 	stb	r4,60(sp)
 1801c14:	d8000405 	stb	zero,16(sp)
 1801c18:	d8014615 	stw	zero,1304(sp)
 1801c1c:	d8c14c17 	ldw	r3,1328(sp)
 1801c20:	1880008c 	andi	r2,r3,2
 1801c24:	1005003a 	cmpeq	r2,r2,zero
 1801c28:	d8815015 	stw	r2,1344(sp)
 1801c2c:	1000031e 	bne	r2,zero,1801c3c <___vfprintf_internal_r+0x3e0>
 1801c30:	d9014517 	ldw	r4,1300(sp)
 1801c34:	21000084 	addi	r4,r4,2
 1801c38:	d9014515 	stw	r4,1300(sp)
 1801c3c:	d9414c17 	ldw	r5,1328(sp)
 1801c40:	2940210c 	andi	r5,r5,132
 1801c44:	d9414e15 	stw	r5,1336(sp)
 1801c48:	28002d1e 	bne	r5,zero,1801d00 <___vfprintf_internal_r+0x4a4>
 1801c4c:	d9814a17 	ldw	r6,1320(sp)
 1801c50:	d8814517 	ldw	r2,1300(sp)
 1801c54:	30a1c83a 	sub	r16,r6,r2
 1801c58:	0400290e 	bge	zero,r16,1801d00 <___vfprintf_internal_r+0x4a4>
 1801c5c:	00800404 	movi	r2,16
 1801c60:	1404580e 	bge	r2,r16,1802dc4 <___vfprintf_internal_r+0x1568>
 1801c64:	dc800e17 	ldw	r18,56(sp)
 1801c68:	dc400d17 	ldw	r17,52(sp)
 1801c6c:	1027883a 	mov	r19,r2
 1801c70:	07006074 	movhi	fp,385
 1801c74:	e7042884 	addi	fp,fp,4258
 1801c78:	050001c4 	movi	r20,7
 1801c7c:	00000306 	br	1801c8c <___vfprintf_internal_r+0x430>
 1801c80:	843ffc04 	addi	r16,r16,-16
 1801c84:	ad400204 	addi	r21,r21,8
 1801c88:	9c00130e 	bge	r19,r16,1801cd8 <___vfprintf_internal_r+0x47c>
 1801c8c:	94800404 	addi	r18,r18,16
 1801c90:	8c400044 	addi	r17,r17,1
 1801c94:	af000015 	stw	fp,0(r21)
 1801c98:	acc00115 	stw	r19,4(r21)
 1801c9c:	dc800e15 	stw	r18,56(sp)
 1801ca0:	dc400d15 	stw	r17,52(sp)
 1801ca4:	a47ff60e 	bge	r20,r17,1801c80 <___vfprintf_internal_r+0x424>
 1801ca8:	d9014f17 	ldw	r4,1340(sp)
 1801cac:	b00b883a 	mov	r5,r22
 1801cb0:	d9800c04 	addi	r6,sp,48
 1801cb4:	d9c15115 	stw	r7,1348(sp)
 1801cb8:	18018040 	call	1801804 <__sprint_r>
 1801cbc:	d9c15117 	ldw	r7,1348(sp)
 1801cc0:	10009e1e 	bne	r2,zero,1801f3c <___vfprintf_internal_r+0x6e0>
 1801cc4:	843ffc04 	addi	r16,r16,-16
 1801cc8:	dc800e17 	ldw	r18,56(sp)
 1801ccc:	dc400d17 	ldw	r17,52(sp)
 1801cd0:	dd401904 	addi	r21,sp,100
 1801cd4:	9c3fed16 	blt	r19,r16,1801c8c <___vfprintf_internal_r+0x430>
 1801cd8:	9425883a 	add	r18,r18,r16
 1801cdc:	8c400044 	addi	r17,r17,1
 1801ce0:	008001c4 	movi	r2,7
 1801ce4:	af000015 	stw	fp,0(r21)
 1801ce8:	ac000115 	stw	r16,4(r21)
 1801cec:	dc800e15 	stw	r18,56(sp)
 1801cf0:	dc400d15 	stw	r17,52(sp)
 1801cf4:	1441f516 	blt	r2,r17,18024cc <___vfprintf_internal_r+0xc70>
 1801cf8:	ad400204 	addi	r21,r21,8
 1801cfc:	00000206 	br	1801d08 <___vfprintf_internal_r+0x4ac>
 1801d00:	dc800e17 	ldw	r18,56(sp)
 1801d04:	dc400d17 	ldw	r17,52(sp)
 1801d08:	d8800407 	ldb	r2,16(sp)
 1801d0c:	10000b26 	beq	r2,zero,1801d3c <___vfprintf_internal_r+0x4e0>
 1801d10:	00800044 	movi	r2,1
 1801d14:	94800044 	addi	r18,r18,1
 1801d18:	8c400044 	addi	r17,r17,1
 1801d1c:	a8800115 	stw	r2,4(r21)
 1801d20:	d8c00404 	addi	r3,sp,16
 1801d24:	008001c4 	movi	r2,7
 1801d28:	a8c00015 	stw	r3,0(r21)
 1801d2c:	dc800e15 	stw	r18,56(sp)
 1801d30:	dc400d15 	stw	r17,52(sp)
 1801d34:	1441da16 	blt	r2,r17,18024a0 <___vfprintf_internal_r+0xc44>
 1801d38:	ad400204 	addi	r21,r21,8
 1801d3c:	d9015017 	ldw	r4,1344(sp)
 1801d40:	20000b1e 	bne	r4,zero,1801d70 <___vfprintf_internal_r+0x514>
 1801d44:	d8800444 	addi	r2,sp,17
 1801d48:	94800084 	addi	r18,r18,2
 1801d4c:	8c400044 	addi	r17,r17,1
 1801d50:	a8800015 	stw	r2,0(r21)
 1801d54:	00c00084 	movi	r3,2
 1801d58:	008001c4 	movi	r2,7
 1801d5c:	a8c00115 	stw	r3,4(r21)
 1801d60:	dc800e15 	stw	r18,56(sp)
 1801d64:	dc400d15 	stw	r17,52(sp)
 1801d68:	1441c216 	blt	r2,r17,1802474 <___vfprintf_internal_r+0xc18>
 1801d6c:	ad400204 	addi	r21,r21,8
 1801d70:	d9414e17 	ldw	r5,1336(sp)
 1801d74:	00802004 	movi	r2,128
 1801d78:	2880b126 	beq	r5,r2,1802040 <___vfprintf_internal_r+0x7e4>
 1801d7c:	d8c14617 	ldw	r3,1304(sp)
 1801d80:	19e1c83a 	sub	r16,r3,r7
 1801d84:	0400260e 	bge	zero,r16,1801e20 <___vfprintf_internal_r+0x5c4>
 1801d88:	00800404 	movi	r2,16
 1801d8c:	1403c90e 	bge	r2,r16,1802cb4 <___vfprintf_internal_r+0x1458>
 1801d90:	1027883a 	mov	r19,r2
 1801d94:	07006074 	movhi	fp,385
 1801d98:	e7042484 	addi	fp,fp,4242
 1801d9c:	050001c4 	movi	r20,7
 1801da0:	00000306 	br	1801db0 <___vfprintf_internal_r+0x554>
 1801da4:	843ffc04 	addi	r16,r16,-16
 1801da8:	ad400204 	addi	r21,r21,8
 1801dac:	9c00130e 	bge	r19,r16,1801dfc <___vfprintf_internal_r+0x5a0>
 1801db0:	94800404 	addi	r18,r18,16
 1801db4:	8c400044 	addi	r17,r17,1
 1801db8:	af000015 	stw	fp,0(r21)
 1801dbc:	acc00115 	stw	r19,4(r21)
 1801dc0:	dc800e15 	stw	r18,56(sp)
 1801dc4:	dc400d15 	stw	r17,52(sp)
 1801dc8:	a47ff60e 	bge	r20,r17,1801da4 <___vfprintf_internal_r+0x548>
 1801dcc:	d9014f17 	ldw	r4,1340(sp)
 1801dd0:	b00b883a 	mov	r5,r22
 1801dd4:	d9800c04 	addi	r6,sp,48
 1801dd8:	d9c15115 	stw	r7,1348(sp)
 1801ddc:	18018040 	call	1801804 <__sprint_r>
 1801de0:	d9c15117 	ldw	r7,1348(sp)
 1801de4:	1000551e 	bne	r2,zero,1801f3c <___vfprintf_internal_r+0x6e0>
 1801de8:	843ffc04 	addi	r16,r16,-16
 1801dec:	dc800e17 	ldw	r18,56(sp)
 1801df0:	dc400d17 	ldw	r17,52(sp)
 1801df4:	dd401904 	addi	r21,sp,100
 1801df8:	9c3fed16 	blt	r19,r16,1801db0 <___vfprintf_internal_r+0x554>
 1801dfc:	9425883a 	add	r18,r18,r16
 1801e00:	8c400044 	addi	r17,r17,1
 1801e04:	008001c4 	movi	r2,7
 1801e08:	af000015 	stw	fp,0(r21)
 1801e0c:	ac000115 	stw	r16,4(r21)
 1801e10:	dc800e15 	stw	r18,56(sp)
 1801e14:	dc400d15 	stw	r17,52(sp)
 1801e18:	14418216 	blt	r2,r17,1802424 <___vfprintf_internal_r+0xbc8>
 1801e1c:	ad400204 	addi	r21,r21,8
 1801e20:	d9014c17 	ldw	r4,1328(sp)
 1801e24:	2080400c 	andi	r2,r4,256
 1801e28:	10004a1e 	bne	r2,zero,1801f54 <___vfprintf_internal_r+0x6f8>
 1801e2c:	d9414117 	ldw	r5,1284(sp)
 1801e30:	91e5883a 	add	r18,r18,r7
 1801e34:	8c400044 	addi	r17,r17,1
 1801e38:	008001c4 	movi	r2,7
 1801e3c:	a9400015 	stw	r5,0(r21)
 1801e40:	a9c00115 	stw	r7,4(r21)
 1801e44:	dc800e15 	stw	r18,56(sp)
 1801e48:	dc400d15 	stw	r17,52(sp)
 1801e4c:	14416716 	blt	r2,r17,18023ec <___vfprintf_internal_r+0xb90>
 1801e50:	a8c00204 	addi	r3,r21,8
 1801e54:	d9814c17 	ldw	r6,1328(sp)
 1801e58:	3080010c 	andi	r2,r6,4
 1801e5c:	10002826 	beq	r2,zero,1801f00 <___vfprintf_internal_r+0x6a4>
 1801e60:	d8814a17 	ldw	r2,1320(sp)
 1801e64:	d9014517 	ldw	r4,1300(sp)
 1801e68:	1121c83a 	sub	r16,r2,r4
 1801e6c:	0400240e 	bge	zero,r16,1801f00 <___vfprintf_internal_r+0x6a4>
 1801e70:	00800404 	movi	r2,16
 1801e74:	14044f0e 	bge	r2,r16,1802fb4 <___vfprintf_internal_r+0x1758>
 1801e78:	dc400d17 	ldw	r17,52(sp)
 1801e7c:	1027883a 	mov	r19,r2
 1801e80:	07006074 	movhi	fp,385
 1801e84:	e7042884 	addi	fp,fp,4258
 1801e88:	050001c4 	movi	r20,7
 1801e8c:	00000306 	br	1801e9c <___vfprintf_internal_r+0x640>
 1801e90:	843ffc04 	addi	r16,r16,-16
 1801e94:	18c00204 	addi	r3,r3,8
 1801e98:	9c00110e 	bge	r19,r16,1801ee0 <___vfprintf_internal_r+0x684>
 1801e9c:	94800404 	addi	r18,r18,16
 1801ea0:	8c400044 	addi	r17,r17,1
 1801ea4:	1f000015 	stw	fp,0(r3)
 1801ea8:	1cc00115 	stw	r19,4(r3)
 1801eac:	dc800e15 	stw	r18,56(sp)
 1801eb0:	dc400d15 	stw	r17,52(sp)
 1801eb4:	a47ff60e 	bge	r20,r17,1801e90 <___vfprintf_internal_r+0x634>
 1801eb8:	d9014f17 	ldw	r4,1340(sp)
 1801ebc:	b00b883a 	mov	r5,r22
 1801ec0:	d9800c04 	addi	r6,sp,48
 1801ec4:	18018040 	call	1801804 <__sprint_r>
 1801ec8:	10001c1e 	bne	r2,zero,1801f3c <___vfprintf_internal_r+0x6e0>
 1801ecc:	843ffc04 	addi	r16,r16,-16
 1801ed0:	dc800e17 	ldw	r18,56(sp)
 1801ed4:	dc400d17 	ldw	r17,52(sp)
 1801ed8:	d8c01904 	addi	r3,sp,100
 1801edc:	9c3fef16 	blt	r19,r16,1801e9c <___vfprintf_internal_r+0x640>
 1801ee0:	9425883a 	add	r18,r18,r16
 1801ee4:	8c400044 	addi	r17,r17,1
 1801ee8:	008001c4 	movi	r2,7
 1801eec:	1f000015 	stw	fp,0(r3)
 1801ef0:	1c000115 	stw	r16,4(r3)
 1801ef4:	dc800e15 	stw	r18,56(sp)
 1801ef8:	dc400d15 	stw	r17,52(sp)
 1801efc:	1440cb16 	blt	r2,r17,180222c <___vfprintf_internal_r+0x9d0>
 1801f00:	d8814a17 	ldw	r2,1320(sp)
 1801f04:	d9414517 	ldw	r5,1300(sp)
 1801f08:	1140010e 	bge	r2,r5,1801f10 <___vfprintf_internal_r+0x6b4>
 1801f0c:	2805883a 	mov	r2,r5
 1801f10:	d9814b17 	ldw	r6,1324(sp)
 1801f14:	308d883a 	add	r6,r6,r2
 1801f18:	d9814b15 	stw	r6,1324(sp)
 1801f1c:	90013b1e 	bne	r18,zero,180240c <___vfprintf_internal_r+0xbb0>
 1801f20:	d9c14017 	ldw	r7,1280(sp)
 1801f24:	dd401904 	addi	r21,sp,100
 1801f28:	d8000d15 	stw	zero,52(sp)
 1801f2c:	003ea706 	br	18019cc <___vfprintf_internal_r+0x170>
 1801f30:	d8800e17 	ldw	r2,56(sp)
 1801f34:	10053f1e 	bne	r2,zero,1803434 <___vfprintf_internal_r+0x1bd8>
 1801f38:	d8000d15 	stw	zero,52(sp)
 1801f3c:	b080030b 	ldhu	r2,12(r22)
 1801f40:	1080100c 	andi	r2,r2,64
 1801f44:	103e8726 	beq	r2,zero,1801964 <___vfprintf_internal_r+0x108>
 1801f48:	00bfffc4 	movi	r2,-1
 1801f4c:	d8814b15 	stw	r2,1324(sp)
 1801f50:	003e8406 	br	1801964 <___vfprintf_internal_r+0x108>
 1801f54:	d9814d17 	ldw	r6,1332(sp)
 1801f58:	00801944 	movi	r2,101
 1801f5c:	11806e16 	blt	r2,r6,1802118 <___vfprintf_internal_r+0x8bc>
 1801f60:	d9414717 	ldw	r5,1308(sp)
 1801f64:	00c00044 	movi	r3,1
 1801f68:	1943430e 	bge	r3,r5,1802c78 <___vfprintf_internal_r+0x141c>
 1801f6c:	d8814117 	ldw	r2,1284(sp)
 1801f70:	94800044 	addi	r18,r18,1
 1801f74:	8c400044 	addi	r17,r17,1
 1801f78:	a8800015 	stw	r2,0(r21)
 1801f7c:	008001c4 	movi	r2,7
 1801f80:	a8c00115 	stw	r3,4(r21)
 1801f84:	dc800e15 	stw	r18,56(sp)
 1801f88:	dc400d15 	stw	r17,52(sp)
 1801f8c:	1441ca16 	blt	r2,r17,18026b8 <___vfprintf_internal_r+0xe5c>
 1801f90:	a8c00204 	addi	r3,r21,8
 1801f94:	d9014917 	ldw	r4,1316(sp)
 1801f98:	00800044 	movi	r2,1
 1801f9c:	94800044 	addi	r18,r18,1
 1801fa0:	8c400044 	addi	r17,r17,1
 1801fa4:	18800115 	stw	r2,4(r3)
 1801fa8:	008001c4 	movi	r2,7
 1801fac:	19000015 	stw	r4,0(r3)
 1801fb0:	dc800e15 	stw	r18,56(sp)
 1801fb4:	dc400d15 	stw	r17,52(sp)
 1801fb8:	1441b616 	blt	r2,r17,1802694 <___vfprintf_internal_r+0xe38>
 1801fbc:	1cc00204 	addi	r19,r3,8
 1801fc0:	d9014217 	ldw	r4,1288(sp)
 1801fc4:	d9414317 	ldw	r5,1292(sp)
 1801fc8:	000d883a 	mov	r6,zero
 1801fcc:	000f883a 	mov	r7,zero
 1801fd0:	1809c1c0 	call	1809c1c <__nedf2>
 1801fd4:	10017426 	beq	r2,zero,18025a8 <___vfprintf_internal_r+0xd4c>
 1801fd8:	d9414717 	ldw	r5,1308(sp)
 1801fdc:	d9814117 	ldw	r6,1284(sp)
 1801fe0:	8c400044 	addi	r17,r17,1
 1801fe4:	2c85883a 	add	r2,r5,r18
 1801fe8:	14bfffc4 	addi	r18,r2,-1
 1801fec:	28bfffc4 	addi	r2,r5,-1
 1801ff0:	30c00044 	addi	r3,r6,1
 1801ff4:	98800115 	stw	r2,4(r19)
 1801ff8:	008001c4 	movi	r2,7
 1801ffc:	98c00015 	stw	r3,0(r19)
 1802000:	dc800e15 	stw	r18,56(sp)
 1802004:	dc400d15 	stw	r17,52(sp)
 1802008:	14418e16 	blt	r2,r17,1802644 <___vfprintf_internal_r+0xde8>
 180200c:	9cc00204 	addi	r19,r19,8
 1802010:	d9414817 	ldw	r5,1312(sp)
 1802014:	d8800804 	addi	r2,sp,32
 1802018:	8c400044 	addi	r17,r17,1
 180201c:	9165883a 	add	r18,r18,r5
 1802020:	98800015 	stw	r2,0(r19)
 1802024:	008001c4 	movi	r2,7
 1802028:	99400115 	stw	r5,4(r19)
 180202c:	dc800e15 	stw	r18,56(sp)
 1802030:	dc400d15 	stw	r17,52(sp)
 1802034:	1440ed16 	blt	r2,r17,18023ec <___vfprintf_internal_r+0xb90>
 1802038:	98c00204 	addi	r3,r19,8
 180203c:	003f8506 	br	1801e54 <___vfprintf_internal_r+0x5f8>
 1802040:	d9814a17 	ldw	r6,1320(sp)
 1802044:	d8814517 	ldw	r2,1300(sp)
 1802048:	30a1c83a 	sub	r16,r6,r2
 180204c:	043f4b0e 	bge	zero,r16,1801d7c <___vfprintf_internal_r+0x520>
 1802050:	00800404 	movi	r2,16
 1802054:	1404340e 	bge	r2,r16,1803128 <___vfprintf_internal_r+0x18cc>
 1802058:	1027883a 	mov	r19,r2
 180205c:	07006074 	movhi	fp,385
 1802060:	e7042484 	addi	fp,fp,4242
 1802064:	050001c4 	movi	r20,7
 1802068:	00000306 	br	1802078 <___vfprintf_internal_r+0x81c>
 180206c:	843ffc04 	addi	r16,r16,-16
 1802070:	ad400204 	addi	r21,r21,8
 1802074:	9c00130e 	bge	r19,r16,18020c4 <___vfprintf_internal_r+0x868>
 1802078:	94800404 	addi	r18,r18,16
 180207c:	8c400044 	addi	r17,r17,1
 1802080:	af000015 	stw	fp,0(r21)
 1802084:	acc00115 	stw	r19,4(r21)
 1802088:	dc800e15 	stw	r18,56(sp)
 180208c:	dc400d15 	stw	r17,52(sp)
 1802090:	a47ff60e 	bge	r20,r17,180206c <___vfprintf_internal_r+0x810>
 1802094:	d9014f17 	ldw	r4,1340(sp)
 1802098:	b00b883a 	mov	r5,r22
 180209c:	d9800c04 	addi	r6,sp,48
 18020a0:	d9c15115 	stw	r7,1348(sp)
 18020a4:	18018040 	call	1801804 <__sprint_r>
 18020a8:	d9c15117 	ldw	r7,1348(sp)
 18020ac:	103fa31e 	bne	r2,zero,1801f3c <___vfprintf_internal_r+0x6e0>
 18020b0:	843ffc04 	addi	r16,r16,-16
 18020b4:	dc800e17 	ldw	r18,56(sp)
 18020b8:	dc400d17 	ldw	r17,52(sp)
 18020bc:	dd401904 	addi	r21,sp,100
 18020c0:	9c3fed16 	blt	r19,r16,1802078 <___vfprintf_internal_r+0x81c>
 18020c4:	9425883a 	add	r18,r18,r16
 18020c8:	8c400044 	addi	r17,r17,1
 18020cc:	008001c4 	movi	r2,7
 18020d0:	af000015 	stw	fp,0(r21)
 18020d4:	ac000115 	stw	r16,4(r21)
 18020d8:	dc800e15 	stw	r18,56(sp)
 18020dc:	dc400d15 	stw	r17,52(sp)
 18020e0:	14416116 	blt	r2,r17,1802668 <___vfprintf_internal_r+0xe0c>
 18020e4:	ad400204 	addi	r21,r21,8
 18020e8:	003f2406 	br	1801d7c <___vfprintf_internal_r+0x520>
 18020ec:	d9014f17 	ldw	r4,1340(sp)
 18020f0:	18052cc0 	call	18052cc <__sinit>
 18020f4:	d9c15117 	ldw	r7,1348(sp)
 18020f8:	003def06 	br	18018b8 <___vfprintf_internal_r+0x5c>
 18020fc:	d9014f17 	ldw	r4,1340(sp)
 1802100:	b00b883a 	mov	r5,r22
 1802104:	d9c15115 	stw	r7,1348(sp)
 1802108:	180372c0 	call	180372c <__swsetup_r>
 180210c:	d9c15117 	ldw	r7,1348(sp)
 1802110:	103dee26 	beq	r2,zero,18018cc <___vfprintf_internal_r+0x70>
 1802114:	003f8c06 	br	1801f48 <___vfprintf_internal_r+0x6ec>
 1802118:	d9014217 	ldw	r4,1288(sp)
 180211c:	d9414317 	ldw	r5,1292(sp)
 1802120:	000d883a 	mov	r6,zero
 1802124:	000f883a 	mov	r7,zero
 1802128:	1809b940 	call	1809b94 <__eqdf2>
 180212c:	1000f21e 	bne	r2,zero,18024f8 <___vfprintf_internal_r+0xc9c>
 1802130:	00806074 	movhi	r2,385
 1802134:	10842404 	addi	r2,r2,4240
 1802138:	94800044 	addi	r18,r18,1
 180213c:	8c400044 	addi	r17,r17,1
 1802140:	a8800015 	stw	r2,0(r21)
 1802144:	00c00044 	movi	r3,1
 1802148:	008001c4 	movi	r2,7
 180214c:	a8c00115 	stw	r3,4(r21)
 1802150:	dc800e15 	stw	r18,56(sp)
 1802154:	dc400d15 	stw	r17,52(sp)
 1802158:	1442fa16 	blt	r2,r17,1802d44 <___vfprintf_internal_r+0x14e8>
 180215c:	a8c00204 	addi	r3,r21,8
 1802160:	d8800517 	ldw	r2,20(sp)
 1802164:	d9014717 	ldw	r4,1308(sp)
 1802168:	11015c0e 	bge	r2,r4,18026dc <___vfprintf_internal_r+0xe80>
 180216c:	dc400d17 	ldw	r17,52(sp)
 1802170:	d9814917 	ldw	r6,1316(sp)
 1802174:	00800044 	movi	r2,1
 1802178:	94800044 	addi	r18,r18,1
 180217c:	8c400044 	addi	r17,r17,1
 1802180:	18800115 	stw	r2,4(r3)
 1802184:	008001c4 	movi	r2,7
 1802188:	19800015 	stw	r6,0(r3)
 180218c:	dc800e15 	stw	r18,56(sp)
 1802190:	dc400d15 	stw	r17,52(sp)
 1802194:	14431016 	blt	r2,r17,1802dd8 <___vfprintf_internal_r+0x157c>
 1802198:	18c00204 	addi	r3,r3,8
 180219c:	d8814717 	ldw	r2,1308(sp)
 18021a0:	143fffc4 	addi	r16,r2,-1
 18021a4:	043f2b0e 	bge	zero,r16,1801e54 <___vfprintf_internal_r+0x5f8>
 18021a8:	00800404 	movi	r2,16
 18021ac:	1402a20e 	bge	r2,r16,1802c38 <___vfprintf_internal_r+0x13dc>
 18021b0:	dc400d17 	ldw	r17,52(sp)
 18021b4:	1027883a 	mov	r19,r2
 18021b8:	07006074 	movhi	fp,385
 18021bc:	e7042484 	addi	fp,fp,4242
 18021c0:	050001c4 	movi	r20,7
 18021c4:	00000306 	br	18021d4 <___vfprintf_internal_r+0x978>
 18021c8:	18c00204 	addi	r3,r3,8
 18021cc:	843ffc04 	addi	r16,r16,-16
 18021d0:	9c029c0e 	bge	r19,r16,1802c44 <___vfprintf_internal_r+0x13e8>
 18021d4:	94800404 	addi	r18,r18,16
 18021d8:	8c400044 	addi	r17,r17,1
 18021dc:	1f000015 	stw	fp,0(r3)
 18021e0:	1cc00115 	stw	r19,4(r3)
 18021e4:	dc800e15 	stw	r18,56(sp)
 18021e8:	dc400d15 	stw	r17,52(sp)
 18021ec:	a47ff60e 	bge	r20,r17,18021c8 <___vfprintf_internal_r+0x96c>
 18021f0:	d9014f17 	ldw	r4,1340(sp)
 18021f4:	b00b883a 	mov	r5,r22
 18021f8:	d9800c04 	addi	r6,sp,48
 18021fc:	18018040 	call	1801804 <__sprint_r>
 1802200:	103f4e1e 	bne	r2,zero,1801f3c <___vfprintf_internal_r+0x6e0>
 1802204:	dc800e17 	ldw	r18,56(sp)
 1802208:	dc400d17 	ldw	r17,52(sp)
 180220c:	d8c01904 	addi	r3,sp,100
 1802210:	003fee06 	br	18021cc <___vfprintf_internal_r+0x970>
 1802214:	d8802c0b 	ldhu	r2,176(sp)
 1802218:	00ffffc4 	movi	r3,-1
 180221c:	d8c14b15 	stw	r3,1324(sp)
 1802220:	1080100c 	andi	r2,r2,64
 1802224:	103dcc1e 	bne	r2,zero,1801958 <___vfprintf_internal_r+0xfc>
 1802228:	003dce06 	br	1801964 <___vfprintf_internal_r+0x108>
 180222c:	d9014f17 	ldw	r4,1340(sp)
 1802230:	b00b883a 	mov	r5,r22
 1802234:	d9800c04 	addi	r6,sp,48
 1802238:	18018040 	call	1801804 <__sprint_r>
 180223c:	103f3f1e 	bne	r2,zero,1801f3c <___vfprintf_internal_r+0x6e0>
 1802240:	dc800e17 	ldw	r18,56(sp)
 1802244:	003f2e06 	br	1801f00 <___vfprintf_internal_r+0x6a4>
 1802248:	d9414c17 	ldw	r5,1328(sp)
 180224c:	29400414 	ori	r5,r5,16
 1802250:	d9414c15 	stw	r5,1328(sp)
 1802254:	d9814c17 	ldw	r6,1328(sp)
 1802258:	3080080c 	andi	r2,r6,32
 180225c:	10014f1e 	bne	r2,zero,180279c <___vfprintf_internal_r+0xf40>
 1802260:	d8c14c17 	ldw	r3,1328(sp)
 1802264:	1880040c 	andi	r2,r3,16
 1802268:	1002ea1e 	bne	r2,zero,1802e14 <___vfprintf_internal_r+0x15b8>
 180226c:	d9014c17 	ldw	r4,1328(sp)
 1802270:	2080100c 	andi	r2,r4,64
 1802274:	1002e726 	beq	r2,zero,1802e14 <___vfprintf_internal_r+0x15b8>
 1802278:	3880000f 	ldh	r2,0(r7)
 180227c:	39c00104 	addi	r7,r7,4
 1802280:	d9c14015 	stw	r7,1280(sp)
 1802284:	1023d7fa 	srai	r17,r2,31
 1802288:	1021883a 	mov	r16,r2
 180228c:	88037216 	blt	r17,zero,1803058 <___vfprintf_internal_r+0x17fc>
 1802290:	01000044 	movi	r4,1
 1802294:	98000416 	blt	r19,zero,18022a8 <___vfprintf_internal_r+0xa4c>
 1802298:	d8c14c17 	ldw	r3,1328(sp)
 180229c:	00bfdfc4 	movi	r2,-129
 18022a0:	1886703a 	and	r3,r3,r2
 18022a4:	d8c14c15 	stw	r3,1328(sp)
 18022a8:	8444b03a 	or	r2,r16,r17
 18022ac:	1002261e 	bne	r2,zero,1802b48 <___vfprintf_internal_r+0x12ec>
 18022b0:	9802251e 	bne	r19,zero,1802b48 <___vfprintf_internal_r+0x12ec>
 18022b4:	20803fcc 	andi	r2,r4,255
 18022b8:	10029b26 	beq	r2,zero,1802d28 <___vfprintf_internal_r+0x14cc>
 18022bc:	d8c01904 	addi	r3,sp,100
 18022c0:	dd000f04 	addi	r20,sp,60
 18022c4:	d8c14115 	stw	r3,1284(sp)
 18022c8:	d8c14117 	ldw	r3,1284(sp)
 18022cc:	dcc14515 	stw	r19,1300(sp)
 18022d0:	a0c5c83a 	sub	r2,r20,r3
 18022d4:	11c00a04 	addi	r7,r2,40
 18022d8:	99c0010e 	bge	r19,r7,18022e0 <___vfprintf_internal_r+0xa84>
 18022dc:	d9c14515 	stw	r7,1300(sp)
 18022e0:	dcc14615 	stw	r19,1304(sp)
 18022e4:	d8800407 	ldb	r2,16(sp)
 18022e8:	103e4c26 	beq	r2,zero,1801c1c <___vfprintf_internal_r+0x3c0>
 18022ec:	d8814517 	ldw	r2,1300(sp)
 18022f0:	10800044 	addi	r2,r2,1
 18022f4:	d8814515 	stw	r2,1300(sp)
 18022f8:	003e4806 	br	1801c1c <___vfprintf_internal_r+0x3c0>
 18022fc:	d9814c17 	ldw	r6,1328(sp)
 1802300:	31800414 	ori	r6,r6,16
 1802304:	d9814c15 	stw	r6,1328(sp)
 1802308:	d8c14c17 	ldw	r3,1328(sp)
 180230c:	1880080c 	andi	r2,r3,32
 1802310:	1001271e 	bne	r2,zero,18027b0 <___vfprintf_internal_r+0xf54>
 1802314:	d9414c17 	ldw	r5,1328(sp)
 1802318:	2880040c 	andi	r2,r5,16
 180231c:	1002b61e 	bne	r2,zero,1802df8 <___vfprintf_internal_r+0x159c>
 1802320:	d9814c17 	ldw	r6,1328(sp)
 1802324:	3080100c 	andi	r2,r6,64
 1802328:	1002b326 	beq	r2,zero,1802df8 <___vfprintf_internal_r+0x159c>
 180232c:	3c00000b 	ldhu	r16,0(r7)
 1802330:	0009883a 	mov	r4,zero
 1802334:	39c00104 	addi	r7,r7,4
 1802338:	0023883a 	mov	r17,zero
 180233c:	d9c14015 	stw	r7,1280(sp)
 1802340:	d8000405 	stb	zero,16(sp)
 1802344:	003fd306 	br	1802294 <___vfprintf_internal_r+0xa38>
 1802348:	d9014c17 	ldw	r4,1328(sp)
 180234c:	21000414 	ori	r4,r4,16
 1802350:	d9014c15 	stw	r4,1328(sp)
 1802354:	d9414c17 	ldw	r5,1328(sp)
 1802358:	2880080c 	andi	r2,r5,32
 180235c:	1001081e 	bne	r2,zero,1802780 <___vfprintf_internal_r+0xf24>
 1802360:	d8c14c17 	ldw	r3,1328(sp)
 1802364:	1880040c 	andi	r2,r3,16
 1802368:	1002b01e 	bne	r2,zero,1802e2c <___vfprintf_internal_r+0x15d0>
 180236c:	d9014c17 	ldw	r4,1328(sp)
 1802370:	2080100c 	andi	r2,r4,64
 1802374:	1002ad26 	beq	r2,zero,1802e2c <___vfprintf_internal_r+0x15d0>
 1802378:	3c00000b 	ldhu	r16,0(r7)
 180237c:	01000044 	movi	r4,1
 1802380:	39c00104 	addi	r7,r7,4
 1802384:	0023883a 	mov	r17,zero
 1802388:	d9c14015 	stw	r7,1280(sp)
 180238c:	d8000405 	stb	zero,16(sp)
 1802390:	003fc006 	br	1802294 <___vfprintf_internal_r+0xa38>
 1802394:	d9014f17 	ldw	r4,1340(sp)
 1802398:	b00b883a 	mov	r5,r22
 180239c:	d9800c04 	addi	r6,sp,48
 18023a0:	18018040 	call	1801804 <__sprint_r>
 18023a4:	103ee51e 	bne	r2,zero,1801f3c <___vfprintf_internal_r+0x6e0>
 18023a8:	dc800e17 	ldw	r18,56(sp)
 18023ac:	d8c01904 	addi	r3,sp,100
 18023b0:	d9814c17 	ldw	r6,1328(sp)
 18023b4:	3080004c 	andi	r2,r6,1
 18023b8:	1005003a 	cmpeq	r2,r2,zero
 18023bc:	103ea51e 	bne	r2,zero,1801e54 <___vfprintf_internal_r+0x5f8>
 18023c0:	00800044 	movi	r2,1
 18023c4:	dc400d17 	ldw	r17,52(sp)
 18023c8:	18800115 	stw	r2,4(r3)
 18023cc:	d8814917 	ldw	r2,1316(sp)
 18023d0:	94800044 	addi	r18,r18,1
 18023d4:	8c400044 	addi	r17,r17,1
 18023d8:	18800015 	stw	r2,0(r3)
 18023dc:	008001c4 	movi	r2,7
 18023e0:	dc800e15 	stw	r18,56(sp)
 18023e4:	dc400d15 	stw	r17,52(sp)
 18023e8:	14421e0e 	bge	r2,r17,1802c64 <___vfprintf_internal_r+0x1408>
 18023ec:	d9014f17 	ldw	r4,1340(sp)
 18023f0:	b00b883a 	mov	r5,r22
 18023f4:	d9800c04 	addi	r6,sp,48
 18023f8:	18018040 	call	1801804 <__sprint_r>
 18023fc:	103ecf1e 	bne	r2,zero,1801f3c <___vfprintf_internal_r+0x6e0>
 1802400:	dc800e17 	ldw	r18,56(sp)
 1802404:	d8c01904 	addi	r3,sp,100
 1802408:	003e9206 	br	1801e54 <___vfprintf_internal_r+0x5f8>
 180240c:	d9014f17 	ldw	r4,1340(sp)
 1802410:	b00b883a 	mov	r5,r22
 1802414:	d9800c04 	addi	r6,sp,48
 1802418:	18018040 	call	1801804 <__sprint_r>
 180241c:	103ec026 	beq	r2,zero,1801f20 <___vfprintf_internal_r+0x6c4>
 1802420:	003ec606 	br	1801f3c <___vfprintf_internal_r+0x6e0>
 1802424:	d9014f17 	ldw	r4,1340(sp)
 1802428:	b00b883a 	mov	r5,r22
 180242c:	d9800c04 	addi	r6,sp,48
 1802430:	d9c15115 	stw	r7,1348(sp)
 1802434:	18018040 	call	1801804 <__sprint_r>
 1802438:	d9c15117 	ldw	r7,1348(sp)
 180243c:	103ebf1e 	bne	r2,zero,1801f3c <___vfprintf_internal_r+0x6e0>
 1802440:	dc800e17 	ldw	r18,56(sp)
 1802444:	dc400d17 	ldw	r17,52(sp)
 1802448:	dd401904 	addi	r21,sp,100
 180244c:	003e7406 	br	1801e20 <___vfprintf_internal_r+0x5c4>
 1802450:	d9014f17 	ldw	r4,1340(sp)
 1802454:	b00b883a 	mov	r5,r22
 1802458:	d9800c04 	addi	r6,sp,48
 180245c:	d9c15115 	stw	r7,1348(sp)
 1802460:	18018040 	call	1801804 <__sprint_r>
 1802464:	d9c15117 	ldw	r7,1348(sp)
 1802468:	103eb41e 	bne	r2,zero,1801f3c <___vfprintf_internal_r+0x6e0>
 180246c:	dd401904 	addi	r21,sp,100
 1802470:	003d6d06 	br	1801a28 <___vfprintf_internal_r+0x1cc>
 1802474:	d9014f17 	ldw	r4,1340(sp)
 1802478:	b00b883a 	mov	r5,r22
 180247c:	d9800c04 	addi	r6,sp,48
 1802480:	d9c15115 	stw	r7,1348(sp)
 1802484:	18018040 	call	1801804 <__sprint_r>
 1802488:	d9c15117 	ldw	r7,1348(sp)
 180248c:	103eab1e 	bne	r2,zero,1801f3c <___vfprintf_internal_r+0x6e0>
 1802490:	dc800e17 	ldw	r18,56(sp)
 1802494:	dc400d17 	ldw	r17,52(sp)
 1802498:	dd401904 	addi	r21,sp,100
 180249c:	003e3406 	br	1801d70 <___vfprintf_internal_r+0x514>
 18024a0:	d9014f17 	ldw	r4,1340(sp)
 18024a4:	b00b883a 	mov	r5,r22
 18024a8:	d9800c04 	addi	r6,sp,48
 18024ac:	d9c15115 	stw	r7,1348(sp)
 18024b0:	18018040 	call	1801804 <__sprint_r>
 18024b4:	d9c15117 	ldw	r7,1348(sp)
 18024b8:	103ea01e 	bne	r2,zero,1801f3c <___vfprintf_internal_r+0x6e0>
 18024bc:	dc800e17 	ldw	r18,56(sp)
 18024c0:	dc400d17 	ldw	r17,52(sp)
 18024c4:	dd401904 	addi	r21,sp,100
 18024c8:	003e1c06 	br	1801d3c <___vfprintf_internal_r+0x4e0>
 18024cc:	d9014f17 	ldw	r4,1340(sp)
 18024d0:	b00b883a 	mov	r5,r22
 18024d4:	d9800c04 	addi	r6,sp,48
 18024d8:	d9c15115 	stw	r7,1348(sp)
 18024dc:	18018040 	call	1801804 <__sprint_r>
 18024e0:	d9c15117 	ldw	r7,1348(sp)
 18024e4:	103e951e 	bne	r2,zero,1801f3c <___vfprintf_internal_r+0x6e0>
 18024e8:	dc800e17 	ldw	r18,56(sp)
 18024ec:	dc400d17 	ldw	r17,52(sp)
 18024f0:	dd401904 	addi	r21,sp,100
 18024f4:	003e0406 	br	1801d08 <___vfprintf_internal_r+0x4ac>
 18024f8:	d9000517 	ldw	r4,20(sp)
 18024fc:	0102520e 	bge	zero,r4,1802e48 <___vfprintf_internal_r+0x15ec>
 1802500:	d9814717 	ldw	r6,1308(sp)
 1802504:	21807a16 	blt	r4,r6,18026f0 <___vfprintf_internal_r+0xe94>
 1802508:	d8814117 	ldw	r2,1284(sp)
 180250c:	91a5883a 	add	r18,r18,r6
 1802510:	8c400044 	addi	r17,r17,1
 1802514:	a8800015 	stw	r2,0(r21)
 1802518:	008001c4 	movi	r2,7
 180251c:	a9800115 	stw	r6,4(r21)
 1802520:	dc800e15 	stw	r18,56(sp)
 1802524:	dc400d15 	stw	r17,52(sp)
 1802528:	1442f616 	blt	r2,r17,1803104 <___vfprintf_internal_r+0x18a8>
 180252c:	a8c00204 	addi	r3,r21,8
 1802530:	d9414717 	ldw	r5,1308(sp)
 1802534:	2161c83a 	sub	r16,r4,r5
 1802538:	043f9d0e 	bge	zero,r16,18023b0 <___vfprintf_internal_r+0xb54>
 180253c:	00800404 	movi	r2,16
 1802540:	1402130e 	bge	r2,r16,1802d90 <___vfprintf_internal_r+0x1534>
 1802544:	dc400d17 	ldw	r17,52(sp)
 1802548:	1027883a 	mov	r19,r2
 180254c:	07006074 	movhi	fp,385
 1802550:	e7042484 	addi	fp,fp,4242
 1802554:	050001c4 	movi	r20,7
 1802558:	00000306 	br	1802568 <___vfprintf_internal_r+0xd0c>
 180255c:	18c00204 	addi	r3,r3,8
 1802560:	843ffc04 	addi	r16,r16,-16
 1802564:	9c020d0e 	bge	r19,r16,1802d9c <___vfprintf_internal_r+0x1540>
 1802568:	94800404 	addi	r18,r18,16
 180256c:	8c400044 	addi	r17,r17,1
 1802570:	1f000015 	stw	fp,0(r3)
 1802574:	1cc00115 	stw	r19,4(r3)
 1802578:	dc800e15 	stw	r18,56(sp)
 180257c:	dc400d15 	stw	r17,52(sp)
 1802580:	a47ff60e 	bge	r20,r17,180255c <___vfprintf_internal_r+0xd00>
 1802584:	d9014f17 	ldw	r4,1340(sp)
 1802588:	b00b883a 	mov	r5,r22
 180258c:	d9800c04 	addi	r6,sp,48
 1802590:	18018040 	call	1801804 <__sprint_r>
 1802594:	103e691e 	bne	r2,zero,1801f3c <___vfprintf_internal_r+0x6e0>
 1802598:	dc800e17 	ldw	r18,56(sp)
 180259c:	dc400d17 	ldw	r17,52(sp)
 18025a0:	d8c01904 	addi	r3,sp,100
 18025a4:	003fee06 	br	1802560 <___vfprintf_internal_r+0xd04>
 18025a8:	d8814717 	ldw	r2,1308(sp)
 18025ac:	143fffc4 	addi	r16,r2,-1
 18025b0:	043e970e 	bge	zero,r16,1802010 <___vfprintf_internal_r+0x7b4>
 18025b4:	00800404 	movi	r2,16
 18025b8:	1400180e 	bge	r2,r16,180261c <___vfprintf_internal_r+0xdc0>
 18025bc:	1029883a 	mov	r20,r2
 18025c0:	07006074 	movhi	fp,385
 18025c4:	e7042484 	addi	fp,fp,4242
 18025c8:	054001c4 	movi	r21,7
 18025cc:	00000306 	br	18025dc <___vfprintf_internal_r+0xd80>
 18025d0:	9cc00204 	addi	r19,r19,8
 18025d4:	843ffc04 	addi	r16,r16,-16
 18025d8:	a400120e 	bge	r20,r16,1802624 <___vfprintf_internal_r+0xdc8>
 18025dc:	94800404 	addi	r18,r18,16
 18025e0:	8c400044 	addi	r17,r17,1
 18025e4:	9f000015 	stw	fp,0(r19)
 18025e8:	9d000115 	stw	r20,4(r19)
 18025ec:	dc800e15 	stw	r18,56(sp)
 18025f0:	dc400d15 	stw	r17,52(sp)
 18025f4:	ac7ff60e 	bge	r21,r17,18025d0 <___vfprintf_internal_r+0xd74>
 18025f8:	d9014f17 	ldw	r4,1340(sp)
 18025fc:	b00b883a 	mov	r5,r22
 1802600:	d9800c04 	addi	r6,sp,48
 1802604:	18018040 	call	1801804 <__sprint_r>
 1802608:	103e4c1e 	bne	r2,zero,1801f3c <___vfprintf_internal_r+0x6e0>
 180260c:	dc800e17 	ldw	r18,56(sp)
 1802610:	dc400d17 	ldw	r17,52(sp)
 1802614:	dcc01904 	addi	r19,sp,100
 1802618:	003fee06 	br	18025d4 <___vfprintf_internal_r+0xd78>
 180261c:	07006074 	movhi	fp,385
 1802620:	e7042484 	addi	fp,fp,4242
 1802624:	9425883a 	add	r18,r18,r16
 1802628:	8c400044 	addi	r17,r17,1
 180262c:	008001c4 	movi	r2,7
 1802630:	9f000015 	stw	fp,0(r19)
 1802634:	9c000115 	stw	r16,4(r19)
 1802638:	dc800e15 	stw	r18,56(sp)
 180263c:	dc400d15 	stw	r17,52(sp)
 1802640:	147e720e 	bge	r2,r17,180200c <___vfprintf_internal_r+0x7b0>
 1802644:	d9014f17 	ldw	r4,1340(sp)
 1802648:	b00b883a 	mov	r5,r22
 180264c:	d9800c04 	addi	r6,sp,48
 1802650:	18018040 	call	1801804 <__sprint_r>
 1802654:	103e391e 	bne	r2,zero,1801f3c <___vfprintf_internal_r+0x6e0>
 1802658:	dc800e17 	ldw	r18,56(sp)
 180265c:	dc400d17 	ldw	r17,52(sp)
 1802660:	dcc01904 	addi	r19,sp,100
 1802664:	003e6a06 	br	1802010 <___vfprintf_internal_r+0x7b4>
 1802668:	d9014f17 	ldw	r4,1340(sp)
 180266c:	b00b883a 	mov	r5,r22
 1802670:	d9800c04 	addi	r6,sp,48
 1802674:	d9c15115 	stw	r7,1348(sp)
 1802678:	18018040 	call	1801804 <__sprint_r>
 180267c:	d9c15117 	ldw	r7,1348(sp)
 1802680:	103e2e1e 	bne	r2,zero,1801f3c <___vfprintf_internal_r+0x6e0>
 1802684:	dc800e17 	ldw	r18,56(sp)
 1802688:	dc400d17 	ldw	r17,52(sp)
 180268c:	dd401904 	addi	r21,sp,100
 1802690:	003dba06 	br	1801d7c <___vfprintf_internal_r+0x520>
 1802694:	d9014f17 	ldw	r4,1340(sp)
 1802698:	b00b883a 	mov	r5,r22
 180269c:	d9800c04 	addi	r6,sp,48
 18026a0:	18018040 	call	1801804 <__sprint_r>
 18026a4:	103e251e 	bne	r2,zero,1801f3c <___vfprintf_internal_r+0x6e0>
 18026a8:	dc800e17 	ldw	r18,56(sp)
 18026ac:	dc400d17 	ldw	r17,52(sp)
 18026b0:	dcc01904 	addi	r19,sp,100
 18026b4:	003e4206 	br	1801fc0 <___vfprintf_internal_r+0x764>
 18026b8:	d9014f17 	ldw	r4,1340(sp)
 18026bc:	b00b883a 	mov	r5,r22
 18026c0:	d9800c04 	addi	r6,sp,48
 18026c4:	18018040 	call	1801804 <__sprint_r>
 18026c8:	103e1c1e 	bne	r2,zero,1801f3c <___vfprintf_internal_r+0x6e0>
 18026cc:	dc800e17 	ldw	r18,56(sp)
 18026d0:	dc400d17 	ldw	r17,52(sp)
 18026d4:	d8c01904 	addi	r3,sp,100
 18026d8:	003e2e06 	br	1801f94 <___vfprintf_internal_r+0x738>
 18026dc:	d9414c17 	ldw	r5,1328(sp)
 18026e0:	2880004c 	andi	r2,r5,1
 18026e4:	1005003a 	cmpeq	r2,r2,zero
 18026e8:	103dda1e 	bne	r2,zero,1801e54 <___vfprintf_internal_r+0x5f8>
 18026ec:	003e9f06 	br	180216c <___vfprintf_internal_r+0x910>
 18026f0:	d8c14117 	ldw	r3,1284(sp)
 18026f4:	9125883a 	add	r18,r18,r4
 18026f8:	8c400044 	addi	r17,r17,1
 18026fc:	008001c4 	movi	r2,7
 1802700:	a8c00015 	stw	r3,0(r21)
 1802704:	a9000115 	stw	r4,4(r21)
 1802708:	dc800e15 	stw	r18,56(sp)
 180270c:	dc400d15 	stw	r17,52(sp)
 1802710:	14426616 	blt	r2,r17,18030ac <___vfprintf_internal_r+0x1850>
 1802714:	a8c00204 	addi	r3,r21,8
 1802718:	d9414917 	ldw	r5,1316(sp)
 180271c:	00800044 	movi	r2,1
 1802720:	94800044 	addi	r18,r18,1
 1802724:	8c400044 	addi	r17,r17,1
 1802728:	18800115 	stw	r2,4(r3)
 180272c:	008001c4 	movi	r2,7
 1802730:	19400015 	stw	r5,0(r3)
 1802734:	dc800e15 	stw	r18,56(sp)
 1802738:	dc400d15 	stw	r17,52(sp)
 180273c:	2021883a 	mov	r16,r4
 1802740:	14425016 	blt	r2,r17,1803084 <___vfprintf_internal_r+0x1828>
 1802744:	19400204 	addi	r5,r3,8
 1802748:	d9814717 	ldw	r6,1308(sp)
 180274c:	8c400044 	addi	r17,r17,1
 1802750:	dc400d15 	stw	r17,52(sp)
 1802754:	3107c83a 	sub	r3,r6,r4
 1802758:	d9014117 	ldw	r4,1284(sp)
 180275c:	90e5883a 	add	r18,r18,r3
 1802760:	28c00115 	stw	r3,4(r5)
 1802764:	8105883a 	add	r2,r16,r4
 1802768:	28800015 	stw	r2,0(r5)
 180276c:	008001c4 	movi	r2,7
 1802770:	dc800e15 	stw	r18,56(sp)
 1802774:	147f1d16 	blt	r2,r17,18023ec <___vfprintf_internal_r+0xb90>
 1802778:	28c00204 	addi	r3,r5,8
 180277c:	003db506 	br	1801e54 <___vfprintf_internal_r+0x5f8>
 1802780:	3c000017 	ldw	r16,0(r7)
 1802784:	3c400117 	ldw	r17,4(r7)
 1802788:	39800204 	addi	r6,r7,8
 180278c:	01000044 	movi	r4,1
 1802790:	d9814015 	stw	r6,1280(sp)
 1802794:	d8000405 	stb	zero,16(sp)
 1802798:	003ebe06 	br	1802294 <___vfprintf_internal_r+0xa38>
 180279c:	3c000017 	ldw	r16,0(r7)
 18027a0:	3c400117 	ldw	r17,4(r7)
 18027a4:	38800204 	addi	r2,r7,8
 18027a8:	d8814015 	stw	r2,1280(sp)
 18027ac:	003eb706 	br	180228c <___vfprintf_internal_r+0xa30>
 18027b0:	3c000017 	ldw	r16,0(r7)
 18027b4:	3c400117 	ldw	r17,4(r7)
 18027b8:	39000204 	addi	r4,r7,8
 18027bc:	d9014015 	stw	r4,1280(sp)
 18027c0:	0009883a 	mov	r4,zero
 18027c4:	d8000405 	stb	zero,16(sp)
 18027c8:	003eb206 	br	1802294 <___vfprintf_internal_r+0xa38>
 18027cc:	38c00017 	ldw	r3,0(r7)
 18027d0:	39c00104 	addi	r7,r7,4
 18027d4:	d8c14a15 	stw	r3,1320(sp)
 18027d8:	1800d10e 	bge	r3,zero,1802b20 <___vfprintf_internal_r+0x12c4>
 18027dc:	00c7c83a 	sub	r3,zero,r3
 18027e0:	d8c14a15 	stw	r3,1320(sp)
 18027e4:	d9014c17 	ldw	r4,1328(sp)
 18027e8:	b8c00007 	ldb	r3,0(r23)
 18027ec:	21000114 	ori	r4,r4,4
 18027f0:	d9014c15 	stw	r4,1328(sp)
 18027f4:	003c9806 	br	1801a58 <___vfprintf_internal_r+0x1fc>
 18027f8:	d9814c17 	ldw	r6,1328(sp)
 18027fc:	3080080c 	andi	r2,r6,32
 1802800:	1001f026 	beq	r2,zero,1802fc4 <___vfprintf_internal_r+0x1768>
 1802804:	d9014b17 	ldw	r4,1324(sp)
 1802808:	38800017 	ldw	r2,0(r7)
 180280c:	39c00104 	addi	r7,r7,4
 1802810:	d9c14015 	stw	r7,1280(sp)
 1802814:	2007d7fa 	srai	r3,r4,31
 1802818:	d9c14017 	ldw	r7,1280(sp)
 180281c:	11000015 	stw	r4,0(r2)
 1802820:	10c00115 	stw	r3,4(r2)
 1802824:	003c6906 	br	18019cc <___vfprintf_internal_r+0x170>
 1802828:	b8c00007 	ldb	r3,0(r23)
 180282c:	00801b04 	movi	r2,108
 1802830:	18824f26 	beq	r3,r2,1803170 <___vfprintf_internal_r+0x1914>
 1802834:	d9414c17 	ldw	r5,1328(sp)
 1802838:	29400414 	ori	r5,r5,16
 180283c:	d9414c15 	stw	r5,1328(sp)
 1802840:	003c8506 	br	1801a58 <___vfprintf_internal_r+0x1fc>
 1802844:	d9814c17 	ldw	r6,1328(sp)
 1802848:	b8c00007 	ldb	r3,0(r23)
 180284c:	31800814 	ori	r6,r6,32
 1802850:	d9814c15 	stw	r6,1328(sp)
 1802854:	003c8006 	br	1801a58 <___vfprintf_internal_r+0x1fc>
 1802858:	d8814c17 	ldw	r2,1328(sp)
 180285c:	3c000017 	ldw	r16,0(r7)
 1802860:	00c01e04 	movi	r3,120
 1802864:	10800094 	ori	r2,r2,2
 1802868:	d8814c15 	stw	r2,1328(sp)
 180286c:	39c00104 	addi	r7,r7,4
 1802870:	01406074 	movhi	r5,385
 1802874:	29440d04 	addi	r5,r5,4148
 1802878:	00800c04 	movi	r2,48
 180287c:	0023883a 	mov	r17,zero
 1802880:	01000084 	movi	r4,2
 1802884:	d9c14015 	stw	r7,1280(sp)
 1802888:	d8c14d15 	stw	r3,1332(sp)
 180288c:	d9414415 	stw	r5,1296(sp)
 1802890:	d8800445 	stb	r2,17(sp)
 1802894:	d8c00485 	stb	r3,18(sp)
 1802898:	d8000405 	stb	zero,16(sp)
 180289c:	003e7d06 	br	1802294 <___vfprintf_internal_r+0xa38>
 18028a0:	d8814c17 	ldw	r2,1328(sp)
 18028a4:	b8c00007 	ldb	r3,0(r23)
 18028a8:	10801014 	ori	r2,r2,64
 18028ac:	d8814c15 	stw	r2,1328(sp)
 18028b0:	003c6906 	br	1801a58 <___vfprintf_internal_r+0x1fc>
 18028b4:	d9414c17 	ldw	r5,1328(sp)
 18028b8:	2880020c 	andi	r2,r5,8
 18028bc:	1001df26 	beq	r2,zero,180303c <___vfprintf_internal_r+0x17e0>
 18028c0:	39800017 	ldw	r6,0(r7)
 18028c4:	38800204 	addi	r2,r7,8
 18028c8:	d8814015 	stw	r2,1280(sp)
 18028cc:	d9814215 	stw	r6,1288(sp)
 18028d0:	39c00117 	ldw	r7,4(r7)
 18028d4:	d9c14315 	stw	r7,1292(sp)
 18028d8:	d9014217 	ldw	r4,1288(sp)
 18028dc:	d9414317 	ldw	r5,1292(sp)
 18028e0:	18081fc0 	call	18081fc <__isinfd>
 18028e4:	10021726 	beq	r2,zero,1803144 <___vfprintf_internal_r+0x18e8>
 18028e8:	d9014217 	ldw	r4,1288(sp)
 18028ec:	d9414317 	ldw	r5,1292(sp)
 18028f0:	000d883a 	mov	r6,zero
 18028f4:	000f883a 	mov	r7,zero
 18028f8:	1809db40 	call	1809db4 <__ltdf2>
 18028fc:	1002ca16 	blt	r2,zero,1803428 <___vfprintf_internal_r+0x1bcc>
 1802900:	d9414d17 	ldw	r5,1332(sp)
 1802904:	008011c4 	movi	r2,71
 1802908:	11420a16 	blt	r2,r5,1803134 <___vfprintf_internal_r+0x18d8>
 180290c:	01806074 	movhi	r6,385
 1802910:	31841204 	addi	r6,r6,4168
 1802914:	d9814115 	stw	r6,1284(sp)
 1802918:	d9014c17 	ldw	r4,1328(sp)
 180291c:	00c000c4 	movi	r3,3
 1802920:	00bfdfc4 	movi	r2,-129
 1802924:	2088703a 	and	r4,r4,r2
 1802928:	180f883a 	mov	r7,r3
 180292c:	d8c14515 	stw	r3,1300(sp)
 1802930:	d9014c15 	stw	r4,1328(sp)
 1802934:	d8014615 	stw	zero,1304(sp)
 1802938:	003e6a06 	br	18022e4 <___vfprintf_internal_r+0xa88>
 180293c:	38800017 	ldw	r2,0(r7)
 1802940:	00c00044 	movi	r3,1
 1802944:	39c00104 	addi	r7,r7,4
 1802948:	d9c14015 	stw	r7,1280(sp)
 180294c:	d9000f04 	addi	r4,sp,60
 1802950:	180f883a 	mov	r7,r3
 1802954:	d8c14515 	stw	r3,1300(sp)
 1802958:	d9014115 	stw	r4,1284(sp)
 180295c:	d8800f05 	stb	r2,60(sp)
 1802960:	d8000405 	stb	zero,16(sp)
 1802964:	003cac06 	br	1801c18 <___vfprintf_internal_r+0x3bc>
 1802968:	01406074 	movhi	r5,385
 180296c:	29441804 	addi	r5,r5,4192
 1802970:	d9414415 	stw	r5,1296(sp)
 1802974:	d9814c17 	ldw	r6,1328(sp)
 1802978:	3080080c 	andi	r2,r6,32
 180297c:	1000f926 	beq	r2,zero,1802d64 <___vfprintf_internal_r+0x1508>
 1802980:	3c000017 	ldw	r16,0(r7)
 1802984:	3c400117 	ldw	r17,4(r7)
 1802988:	38800204 	addi	r2,r7,8
 180298c:	d8814015 	stw	r2,1280(sp)
 1802990:	d9414c17 	ldw	r5,1328(sp)
 1802994:	2880004c 	andi	r2,r5,1
 1802998:	1005003a 	cmpeq	r2,r2,zero
 180299c:	1000b31e 	bne	r2,zero,1802c6c <___vfprintf_internal_r+0x1410>
 18029a0:	8444b03a 	or	r2,r16,r17
 18029a4:	1000b126 	beq	r2,zero,1802c6c <___vfprintf_internal_r+0x1410>
 18029a8:	d9814d17 	ldw	r6,1332(sp)
 18029ac:	29400094 	ori	r5,r5,2
 18029b0:	00800c04 	movi	r2,48
 18029b4:	01000084 	movi	r4,2
 18029b8:	d9414c15 	stw	r5,1328(sp)
 18029bc:	d8800445 	stb	r2,17(sp)
 18029c0:	d9800485 	stb	r6,18(sp)
 18029c4:	d8000405 	stb	zero,16(sp)
 18029c8:	003e3206 	br	1802294 <___vfprintf_internal_r+0xa38>
 18029cc:	01806074 	movhi	r6,385
 18029d0:	31840d04 	addi	r6,r6,4148
 18029d4:	d9814415 	stw	r6,1296(sp)
 18029d8:	003fe606 	br	1802974 <___vfprintf_internal_r+0x1118>
 18029dc:	00800ac4 	movi	r2,43
 18029e0:	d8800405 	stb	r2,16(sp)
 18029e4:	b8c00007 	ldb	r3,0(r23)
 18029e8:	003c1b06 	br	1801a58 <___vfprintf_internal_r+0x1fc>
 18029ec:	d8814c17 	ldw	r2,1328(sp)
 18029f0:	b8c00007 	ldb	r3,0(r23)
 18029f4:	10800054 	ori	r2,r2,1
 18029f8:	d8814c15 	stw	r2,1328(sp)
 18029fc:	003c1606 	br	1801a58 <___vfprintf_internal_r+0x1fc>
 1802a00:	d8800407 	ldb	r2,16(sp)
 1802a04:	1000461e 	bne	r2,zero,1802b20 <___vfprintf_internal_r+0x12c4>
 1802a08:	00800804 	movi	r2,32
 1802a0c:	d8800405 	stb	r2,16(sp)
 1802a10:	b8c00007 	ldb	r3,0(r23)
 1802a14:	003c1006 	br	1801a58 <___vfprintf_internal_r+0x1fc>
 1802a18:	d9814c17 	ldw	r6,1328(sp)
 1802a1c:	b8c00007 	ldb	r3,0(r23)
 1802a20:	31800214 	ori	r6,r6,8
 1802a24:	d9814c15 	stw	r6,1328(sp)
 1802a28:	003c0b06 	br	1801a58 <___vfprintf_internal_r+0x1fc>
 1802a2c:	0007883a 	mov	r3,zero
 1802a30:	01000244 	movi	r4,9
 1802a34:	188002a4 	muli	r2,r3,10
 1802a38:	b8c00007 	ldb	r3,0(r23)
 1802a3c:	d9814d17 	ldw	r6,1332(sp)
 1802a40:	bdc00044 	addi	r23,r23,1
 1802a44:	d8c14d15 	stw	r3,1332(sp)
 1802a48:	d9414d17 	ldw	r5,1332(sp)
 1802a4c:	3085883a 	add	r2,r6,r2
 1802a50:	10fff404 	addi	r3,r2,-48
 1802a54:	28bff404 	addi	r2,r5,-48
 1802a58:	20bff62e 	bgeu	r4,r2,1802a34 <___vfprintf_internal_r+0x11d8>
 1802a5c:	d8c14a15 	stw	r3,1320(sp)
 1802a60:	003bff06 	br	1801a60 <___vfprintf_internal_r+0x204>
 1802a64:	d9414c17 	ldw	r5,1328(sp)
 1802a68:	b8c00007 	ldb	r3,0(r23)
 1802a6c:	29402014 	ori	r5,r5,128
 1802a70:	d9414c15 	stw	r5,1328(sp)
 1802a74:	003bf806 	br	1801a58 <___vfprintf_internal_r+0x1fc>
 1802a78:	b8c00007 	ldb	r3,0(r23)
 1802a7c:	00800a84 	movi	r2,42
 1802a80:	bdc00044 	addi	r23,r23,1
 1802a84:	18831526 	beq	r3,r2,18036dc <___vfprintf_internal_r+0x1e80>
 1802a88:	d8c14d15 	stw	r3,1332(sp)
 1802a8c:	18bff404 	addi	r2,r3,-48
 1802a90:	00c00244 	movi	r3,9
 1802a94:	18827836 	bltu	r3,r2,1803478 <___vfprintf_internal_r+0x1c1c>
 1802a98:	000d883a 	mov	r6,zero
 1802a9c:	308002a4 	muli	r2,r6,10
 1802aa0:	b9800007 	ldb	r6,0(r23)
 1802aa4:	d9414d17 	ldw	r5,1332(sp)
 1802aa8:	bdc00044 	addi	r23,r23,1
 1802aac:	d9814d15 	stw	r6,1332(sp)
 1802ab0:	d9014d17 	ldw	r4,1332(sp)
 1802ab4:	1145883a 	add	r2,r2,r5
 1802ab8:	11bff404 	addi	r6,r2,-48
 1802abc:	20bff404 	addi	r2,r4,-48
 1802ac0:	18bff62e 	bgeu	r3,r2,1802a9c <___vfprintf_internal_r+0x1240>
 1802ac4:	3027883a 	mov	r19,r6
 1802ac8:	303be50e 	bge	r6,zero,1801a60 <___vfprintf_internal_r+0x204>
 1802acc:	04ffffc4 	movi	r19,-1
 1802ad0:	003be306 	br	1801a60 <___vfprintf_internal_r+0x204>
 1802ad4:	d8000405 	stb	zero,16(sp)
 1802ad8:	39800017 	ldw	r6,0(r7)
 1802adc:	39c00104 	addi	r7,r7,4
 1802ae0:	d9c14015 	stw	r7,1280(sp)
 1802ae4:	d9814115 	stw	r6,1284(sp)
 1802ae8:	3001c926 	beq	r6,zero,1803210 <___vfprintf_internal_r+0x19b4>
 1802aec:	98000e16 	blt	r19,zero,1802b28 <___vfprintf_internal_r+0x12cc>
 1802af0:	d9014117 	ldw	r4,1284(sp)
 1802af4:	000b883a 	mov	r5,zero
 1802af8:	980d883a 	mov	r6,r19
 1802afc:	18069180 	call	1806918 <memchr>
 1802b00:	10025926 	beq	r2,zero,1803468 <___vfprintf_internal_r+0x1c0c>
 1802b04:	d8c14117 	ldw	r3,1284(sp)
 1802b08:	10cfc83a 	sub	r7,r2,r3
 1802b0c:	99c19e16 	blt	r19,r7,1803188 <___vfprintf_internal_r+0x192c>
 1802b10:	d9c14515 	stw	r7,1300(sp)
 1802b14:	38000916 	blt	r7,zero,1802b3c <___vfprintf_internal_r+0x12e0>
 1802b18:	d8014615 	stw	zero,1304(sp)
 1802b1c:	003df106 	br	18022e4 <___vfprintf_internal_r+0xa88>
 1802b20:	b8c00007 	ldb	r3,0(r23)
 1802b24:	003bcc06 	br	1801a58 <___vfprintf_internal_r+0x1fc>
 1802b28:	d9014117 	ldw	r4,1284(sp)
 1802b2c:	18084e40 	call	18084e4 <strlen>
 1802b30:	d8814515 	stw	r2,1300(sp)
 1802b34:	100f883a 	mov	r7,r2
 1802b38:	103ff70e 	bge	r2,zero,1802b18 <___vfprintf_internal_r+0x12bc>
 1802b3c:	d8014515 	stw	zero,1300(sp)
 1802b40:	d8014615 	stw	zero,1304(sp)
 1802b44:	003de706 	br	18022e4 <___vfprintf_internal_r+0xa88>
 1802b48:	20c03fcc 	andi	r3,r4,255
 1802b4c:	00800044 	movi	r2,1
 1802b50:	18802d26 	beq	r3,r2,1802c08 <___vfprintf_internal_r+0x13ac>
 1802b54:	18800e36 	bltu	r3,r2,1802b90 <___vfprintf_internal_r+0x1334>
 1802b58:	00800084 	movi	r2,2
 1802b5c:	1880fa26 	beq	r3,r2,1802f48 <___vfprintf_internal_r+0x16ec>
 1802b60:	01006074 	movhi	r4,385
 1802b64:	21041d04 	addi	r4,r4,4212
 1802b68:	18084e40 	call	18084e4 <strlen>
 1802b6c:	100f883a 	mov	r7,r2
 1802b70:	dcc14515 	stw	r19,1300(sp)
 1802b74:	9880010e 	bge	r19,r2,1802b7c <___vfprintf_internal_r+0x1320>
 1802b78:	d8814515 	stw	r2,1300(sp)
 1802b7c:	00806074 	movhi	r2,385
 1802b80:	10841d04 	addi	r2,r2,4212
 1802b84:	dcc14615 	stw	r19,1304(sp)
 1802b88:	d8814115 	stw	r2,1284(sp)
 1802b8c:	003dd506 	br	18022e4 <___vfprintf_internal_r+0xa88>
 1802b90:	d9401904 	addi	r5,sp,100
 1802b94:	dd000f04 	addi	r20,sp,60
 1802b98:	d9414115 	stw	r5,1284(sp)
 1802b9c:	880a977a 	slli	r5,r17,29
 1802ba0:	d9814117 	ldw	r6,1284(sp)
 1802ba4:	8004d0fa 	srli	r2,r16,3
 1802ba8:	8806d0fa 	srli	r3,r17,3
 1802bac:	810001cc 	andi	r4,r16,7
 1802bb0:	2884b03a 	or	r2,r5,r2
 1802bb4:	31bfffc4 	addi	r6,r6,-1
 1802bb8:	21000c04 	addi	r4,r4,48
 1802bbc:	d9814115 	stw	r6,1284(sp)
 1802bc0:	10cab03a 	or	r5,r2,r3
 1802bc4:	31000005 	stb	r4,0(r6)
 1802bc8:	1021883a 	mov	r16,r2
 1802bcc:	1823883a 	mov	r17,r3
 1802bd0:	283ff21e 	bne	r5,zero,1802b9c <___vfprintf_internal_r+0x1340>
 1802bd4:	d8c14c17 	ldw	r3,1328(sp)
 1802bd8:	1880004c 	andi	r2,r3,1
 1802bdc:	1005003a 	cmpeq	r2,r2,zero
 1802be0:	103db91e 	bne	r2,zero,18022c8 <___vfprintf_internal_r+0xa6c>
 1802be4:	20803fcc 	andi	r2,r4,255
 1802be8:	1080201c 	xori	r2,r2,128
 1802bec:	10bfe004 	addi	r2,r2,-128
 1802bf0:	00c00c04 	movi	r3,48
 1802bf4:	10fdb426 	beq	r2,r3,18022c8 <___vfprintf_internal_r+0xa6c>
 1802bf8:	31bfffc4 	addi	r6,r6,-1
 1802bfc:	d9814115 	stw	r6,1284(sp)
 1802c00:	30c00005 	stb	r3,0(r6)
 1802c04:	003db006 	br	18022c8 <___vfprintf_internal_r+0xa6c>
 1802c08:	88800068 	cmpgeui	r2,r17,1
 1802c0c:	10002c1e 	bne	r2,zero,1802cc0 <___vfprintf_internal_r+0x1464>
 1802c10:	8800021e 	bne	r17,zero,1802c1c <___vfprintf_internal_r+0x13c0>
 1802c14:	00800244 	movi	r2,9
 1802c18:	14002936 	bltu	r2,r16,1802cc0 <___vfprintf_internal_r+0x1464>
 1802c1c:	d90018c4 	addi	r4,sp,99
 1802c20:	dd000f04 	addi	r20,sp,60
 1802c24:	d9014115 	stw	r4,1284(sp)
 1802c28:	d9014117 	ldw	r4,1284(sp)
 1802c2c:	80800c04 	addi	r2,r16,48
 1802c30:	20800005 	stb	r2,0(r4)
 1802c34:	003da406 	br	18022c8 <___vfprintf_internal_r+0xa6c>
 1802c38:	dc400d17 	ldw	r17,52(sp)
 1802c3c:	07006074 	movhi	fp,385
 1802c40:	e7042484 	addi	fp,fp,4242
 1802c44:	9425883a 	add	r18,r18,r16
 1802c48:	8c400044 	addi	r17,r17,1
 1802c4c:	008001c4 	movi	r2,7
 1802c50:	1f000015 	stw	fp,0(r3)
 1802c54:	1c000115 	stw	r16,4(r3)
 1802c58:	dc800e15 	stw	r18,56(sp)
 1802c5c:	dc400d15 	stw	r17,52(sp)
 1802c60:	147de216 	blt	r2,r17,18023ec <___vfprintf_internal_r+0xb90>
 1802c64:	18c00204 	addi	r3,r3,8
 1802c68:	003c7a06 	br	1801e54 <___vfprintf_internal_r+0x5f8>
 1802c6c:	01000084 	movi	r4,2
 1802c70:	d8000405 	stb	zero,16(sp)
 1802c74:	003d8706 	br	1802294 <___vfprintf_internal_r+0xa38>
 1802c78:	d9814c17 	ldw	r6,1328(sp)
 1802c7c:	30c4703a 	and	r2,r6,r3
 1802c80:	1005003a 	cmpeq	r2,r2,zero
 1802c84:	103cb926 	beq	r2,zero,1801f6c <___vfprintf_internal_r+0x710>
 1802c88:	d9014117 	ldw	r4,1284(sp)
 1802c8c:	94800044 	addi	r18,r18,1
 1802c90:	8c400044 	addi	r17,r17,1
 1802c94:	008001c4 	movi	r2,7
 1802c98:	a9000015 	stw	r4,0(r21)
 1802c9c:	a8c00115 	stw	r3,4(r21)
 1802ca0:	dc800e15 	stw	r18,56(sp)
 1802ca4:	dc400d15 	stw	r17,52(sp)
 1802ca8:	147e6616 	blt	r2,r17,1802644 <___vfprintf_internal_r+0xde8>
 1802cac:	acc00204 	addi	r19,r21,8
 1802cb0:	003cd706 	br	1802010 <___vfprintf_internal_r+0x7b4>
 1802cb4:	07006074 	movhi	fp,385
 1802cb8:	e7042484 	addi	fp,fp,4242
 1802cbc:	003c4f06 	br	1801dfc <___vfprintf_internal_r+0x5a0>
 1802cc0:	dd000f04 	addi	r20,sp,60
 1802cc4:	dc801904 	addi	r18,sp,100
 1802cc8:	8009883a 	mov	r4,r16
 1802ccc:	880b883a 	mov	r5,r17
 1802cd0:	01800284 	movi	r6,10
 1802cd4:	000f883a 	mov	r7,zero
 1802cd8:	1808fc80 	call	1808fc8 <__umoddi3>
 1802cdc:	12000c04 	addi	r8,r2,48
 1802ce0:	94bfffc4 	addi	r18,r18,-1
 1802ce4:	8009883a 	mov	r4,r16
 1802ce8:	880b883a 	mov	r5,r17
 1802cec:	01800284 	movi	r6,10
 1802cf0:	000f883a 	mov	r7,zero
 1802cf4:	92000005 	stb	r8,0(r18)
 1802cf8:	18089ec0 	call	18089ec <__udivdi3>
 1802cfc:	1009883a 	mov	r4,r2
 1802d00:	1021883a 	mov	r16,r2
 1802d04:	18800068 	cmpgeui	r2,r3,1
 1802d08:	1823883a 	mov	r17,r3
 1802d0c:	103fee1e 	bne	r2,zero,1802cc8 <___vfprintf_internal_r+0x146c>
 1802d10:	1800021e 	bne	r3,zero,1802d1c <___vfprintf_internal_r+0x14c0>
 1802d14:	00800244 	movi	r2,9
 1802d18:	113feb36 	bltu	r2,r4,1802cc8 <___vfprintf_internal_r+0x146c>
 1802d1c:	94bfffc4 	addi	r18,r18,-1
 1802d20:	dc814115 	stw	r18,1284(sp)
 1802d24:	003fc006 	br	1802c28 <___vfprintf_internal_r+0x13cc>
 1802d28:	d9014c17 	ldw	r4,1328(sp)
 1802d2c:	2080004c 	andi	r2,r4,1
 1802d30:	10009a1e 	bne	r2,zero,1802f9c <___vfprintf_internal_r+0x1740>
 1802d34:	d9401904 	addi	r5,sp,100
 1802d38:	dd000f04 	addi	r20,sp,60
 1802d3c:	d9414115 	stw	r5,1284(sp)
 1802d40:	003d6106 	br	18022c8 <___vfprintf_internal_r+0xa6c>
 1802d44:	d9014f17 	ldw	r4,1340(sp)
 1802d48:	b00b883a 	mov	r5,r22
 1802d4c:	d9800c04 	addi	r6,sp,48
 1802d50:	18018040 	call	1801804 <__sprint_r>
 1802d54:	103c791e 	bne	r2,zero,1801f3c <___vfprintf_internal_r+0x6e0>
 1802d58:	dc800e17 	ldw	r18,56(sp)
 1802d5c:	d8c01904 	addi	r3,sp,100
 1802d60:	003cff06 	br	1802160 <___vfprintf_internal_r+0x904>
 1802d64:	d8c14c17 	ldw	r3,1328(sp)
 1802d68:	1880040c 	andi	r2,r3,16
 1802d6c:	1000711e 	bne	r2,zero,1802f34 <___vfprintf_internal_r+0x16d8>
 1802d70:	d9014c17 	ldw	r4,1328(sp)
 1802d74:	2080100c 	andi	r2,r4,64
 1802d78:	10006e26 	beq	r2,zero,1802f34 <___vfprintf_internal_r+0x16d8>
 1802d7c:	3c00000b 	ldhu	r16,0(r7)
 1802d80:	0023883a 	mov	r17,zero
 1802d84:	39c00104 	addi	r7,r7,4
 1802d88:	d9c14015 	stw	r7,1280(sp)
 1802d8c:	003f0006 	br	1802990 <___vfprintf_internal_r+0x1134>
 1802d90:	dc400d17 	ldw	r17,52(sp)
 1802d94:	07006074 	movhi	fp,385
 1802d98:	e7042484 	addi	fp,fp,4242
 1802d9c:	9425883a 	add	r18,r18,r16
 1802da0:	8c400044 	addi	r17,r17,1
 1802da4:	008001c4 	movi	r2,7
 1802da8:	1f000015 	stw	fp,0(r3)
 1802dac:	1c000115 	stw	r16,4(r3)
 1802db0:	dc800e15 	stw	r18,56(sp)
 1802db4:	dc400d15 	stw	r17,52(sp)
 1802db8:	147d7616 	blt	r2,r17,1802394 <___vfprintf_internal_r+0xb38>
 1802dbc:	18c00204 	addi	r3,r3,8
 1802dc0:	003d7b06 	br	18023b0 <___vfprintf_internal_r+0xb54>
 1802dc4:	dc800e17 	ldw	r18,56(sp)
 1802dc8:	dc400d17 	ldw	r17,52(sp)
 1802dcc:	07006074 	movhi	fp,385
 1802dd0:	e7042884 	addi	fp,fp,4258
 1802dd4:	003bc006 	br	1801cd8 <___vfprintf_internal_r+0x47c>
 1802dd8:	d9014f17 	ldw	r4,1340(sp)
 1802ddc:	b00b883a 	mov	r5,r22
 1802de0:	d9800c04 	addi	r6,sp,48
 1802de4:	18018040 	call	1801804 <__sprint_r>
 1802de8:	103c541e 	bne	r2,zero,1801f3c <___vfprintf_internal_r+0x6e0>
 1802dec:	dc800e17 	ldw	r18,56(sp)
 1802df0:	d8c01904 	addi	r3,sp,100
 1802df4:	003ce906 	br	180219c <___vfprintf_internal_r+0x940>
 1802df8:	3c000017 	ldw	r16,0(r7)
 1802dfc:	0009883a 	mov	r4,zero
 1802e00:	39c00104 	addi	r7,r7,4
 1802e04:	0023883a 	mov	r17,zero
 1802e08:	d9c14015 	stw	r7,1280(sp)
 1802e0c:	d8000405 	stb	zero,16(sp)
 1802e10:	003d2006 	br	1802294 <___vfprintf_internal_r+0xa38>
 1802e14:	38800017 	ldw	r2,0(r7)
 1802e18:	39c00104 	addi	r7,r7,4
 1802e1c:	d9c14015 	stw	r7,1280(sp)
 1802e20:	1023d7fa 	srai	r17,r2,31
 1802e24:	1021883a 	mov	r16,r2
 1802e28:	003d1806 	br	180228c <___vfprintf_internal_r+0xa30>
 1802e2c:	3c000017 	ldw	r16,0(r7)
 1802e30:	01000044 	movi	r4,1
 1802e34:	39c00104 	addi	r7,r7,4
 1802e38:	0023883a 	mov	r17,zero
 1802e3c:	d9c14015 	stw	r7,1280(sp)
 1802e40:	d8000405 	stb	zero,16(sp)
 1802e44:	003d1306 	br	1802294 <___vfprintf_internal_r+0xa38>
 1802e48:	00806074 	movhi	r2,385
 1802e4c:	10842404 	addi	r2,r2,4240
 1802e50:	94800044 	addi	r18,r18,1
 1802e54:	8c400044 	addi	r17,r17,1
 1802e58:	a8800015 	stw	r2,0(r21)
 1802e5c:	00c00044 	movi	r3,1
 1802e60:	008001c4 	movi	r2,7
 1802e64:	a8c00115 	stw	r3,4(r21)
 1802e68:	dc800e15 	stw	r18,56(sp)
 1802e6c:	dc400d15 	stw	r17,52(sp)
 1802e70:	1440ca16 	blt	r2,r17,180319c <___vfprintf_internal_r+0x1940>
 1802e74:	a8c00204 	addi	r3,r21,8
 1802e78:	2000061e 	bne	r4,zero,1802e94 <___vfprintf_internal_r+0x1638>
 1802e7c:	d9414717 	ldw	r5,1308(sp)
 1802e80:	2800041e 	bne	r5,zero,1802e94 <___vfprintf_internal_r+0x1638>
 1802e84:	d9814c17 	ldw	r6,1328(sp)
 1802e88:	3080004c 	andi	r2,r6,1
 1802e8c:	1005003a 	cmpeq	r2,r2,zero
 1802e90:	103bf01e 	bne	r2,zero,1801e54 <___vfprintf_internal_r+0x5f8>
 1802e94:	00800044 	movi	r2,1
 1802e98:	dc400d17 	ldw	r17,52(sp)
 1802e9c:	18800115 	stw	r2,4(r3)
 1802ea0:	d8814917 	ldw	r2,1316(sp)
 1802ea4:	94800044 	addi	r18,r18,1
 1802ea8:	8c400044 	addi	r17,r17,1
 1802eac:	18800015 	stw	r2,0(r3)
 1802eb0:	008001c4 	movi	r2,7
 1802eb4:	dc800e15 	stw	r18,56(sp)
 1802eb8:	dc400d15 	stw	r17,52(sp)
 1802ebc:	1440ca16 	blt	r2,r17,18031e8 <___vfprintf_internal_r+0x198c>
 1802ec0:	18c00204 	addi	r3,r3,8
 1802ec4:	0121c83a 	sub	r16,zero,r4
 1802ec8:	0400500e 	bge	zero,r16,180300c <___vfprintf_internal_r+0x17b0>
 1802ecc:	00800404 	movi	r2,16
 1802ed0:	1400800e 	bge	r2,r16,18030d4 <___vfprintf_internal_r+0x1878>
 1802ed4:	1027883a 	mov	r19,r2
 1802ed8:	07006074 	movhi	fp,385
 1802edc:	e7042484 	addi	fp,fp,4242
 1802ee0:	050001c4 	movi	r20,7
 1802ee4:	00000306 	br	1802ef4 <___vfprintf_internal_r+0x1698>
 1802ee8:	18c00204 	addi	r3,r3,8
 1802eec:	843ffc04 	addi	r16,r16,-16
 1802ef0:	9c007a0e 	bge	r19,r16,18030dc <___vfprintf_internal_r+0x1880>
 1802ef4:	94800404 	addi	r18,r18,16
 1802ef8:	8c400044 	addi	r17,r17,1
 1802efc:	1f000015 	stw	fp,0(r3)
 1802f00:	1cc00115 	stw	r19,4(r3)
 1802f04:	dc800e15 	stw	r18,56(sp)
 1802f08:	dc400d15 	stw	r17,52(sp)
 1802f0c:	a47ff60e 	bge	r20,r17,1802ee8 <___vfprintf_internal_r+0x168c>
 1802f10:	d9014f17 	ldw	r4,1340(sp)
 1802f14:	b00b883a 	mov	r5,r22
 1802f18:	d9800c04 	addi	r6,sp,48
 1802f1c:	18018040 	call	1801804 <__sprint_r>
 1802f20:	103c061e 	bne	r2,zero,1801f3c <___vfprintf_internal_r+0x6e0>
 1802f24:	dc800e17 	ldw	r18,56(sp)
 1802f28:	dc400d17 	ldw	r17,52(sp)
 1802f2c:	d8c01904 	addi	r3,sp,100
 1802f30:	003fee06 	br	1802eec <___vfprintf_internal_r+0x1690>
 1802f34:	3c000017 	ldw	r16,0(r7)
 1802f38:	0023883a 	mov	r17,zero
 1802f3c:	39c00104 	addi	r7,r7,4
 1802f40:	d9c14015 	stw	r7,1280(sp)
 1802f44:	003e9206 	br	1802990 <___vfprintf_internal_r+0x1134>
 1802f48:	d9401904 	addi	r5,sp,100
 1802f4c:	dd000f04 	addi	r20,sp,60
 1802f50:	d9414115 	stw	r5,1284(sp)
 1802f54:	d9814417 	ldw	r6,1296(sp)
 1802f58:	880a973a 	slli	r5,r17,28
 1802f5c:	8004d13a 	srli	r2,r16,4
 1802f60:	810003cc 	andi	r4,r16,15
 1802f64:	3109883a 	add	r4,r6,r4
 1802f68:	2884b03a 	or	r2,r5,r2
 1802f6c:	21400003 	ldbu	r5,0(r4)
 1802f70:	d9014117 	ldw	r4,1284(sp)
 1802f74:	8806d13a 	srli	r3,r17,4
 1802f78:	1021883a 	mov	r16,r2
 1802f7c:	213fffc4 	addi	r4,r4,-1
 1802f80:	d9014115 	stw	r4,1284(sp)
 1802f84:	d9814117 	ldw	r6,1284(sp)
 1802f88:	10c8b03a 	or	r4,r2,r3
 1802f8c:	1823883a 	mov	r17,r3
 1802f90:	31400005 	stb	r5,0(r6)
 1802f94:	203fef1e 	bne	r4,zero,1802f54 <___vfprintf_internal_r+0x16f8>
 1802f98:	003ccb06 	br	18022c8 <___vfprintf_internal_r+0xa6c>
 1802f9c:	00800c04 	movi	r2,48
 1802fa0:	d98018c4 	addi	r6,sp,99
 1802fa4:	dd000f04 	addi	r20,sp,60
 1802fa8:	d88018c5 	stb	r2,99(sp)
 1802fac:	d9814115 	stw	r6,1284(sp)
 1802fb0:	003cc506 	br	18022c8 <___vfprintf_internal_r+0xa6c>
 1802fb4:	dc400d17 	ldw	r17,52(sp)
 1802fb8:	07006074 	movhi	fp,385
 1802fbc:	e7042884 	addi	fp,fp,4258
 1802fc0:	003bc706 	br	1801ee0 <___vfprintf_internal_r+0x684>
 1802fc4:	d9414c17 	ldw	r5,1328(sp)
 1802fc8:	2880040c 	andi	r2,r5,16
 1802fcc:	10007c26 	beq	r2,zero,18031c0 <___vfprintf_internal_r+0x1964>
 1802fd0:	38800017 	ldw	r2,0(r7)
 1802fd4:	39c00104 	addi	r7,r7,4
 1802fd8:	d9c14015 	stw	r7,1280(sp)
 1802fdc:	d9814b17 	ldw	r6,1324(sp)
 1802fe0:	d9c14017 	ldw	r7,1280(sp)
 1802fe4:	11800015 	stw	r6,0(r2)
 1802fe8:	003a7806 	br	18019cc <___vfprintf_internal_r+0x170>
 1802fec:	d9014f17 	ldw	r4,1340(sp)
 1802ff0:	b00b883a 	mov	r5,r22
 1802ff4:	d9800c04 	addi	r6,sp,48
 1802ff8:	18018040 	call	1801804 <__sprint_r>
 1802ffc:	103bcf1e 	bne	r2,zero,1801f3c <___vfprintf_internal_r+0x6e0>
 1803000:	dc800e17 	ldw	r18,56(sp)
 1803004:	dc400d17 	ldw	r17,52(sp)
 1803008:	d8c01904 	addi	r3,sp,100
 180300c:	d9014717 	ldw	r4,1308(sp)
 1803010:	d9414117 	ldw	r5,1284(sp)
 1803014:	8c400044 	addi	r17,r17,1
 1803018:	9125883a 	add	r18,r18,r4
 180301c:	008001c4 	movi	r2,7
 1803020:	19400015 	stw	r5,0(r3)
 1803024:	19000115 	stw	r4,4(r3)
 1803028:	dc800e15 	stw	r18,56(sp)
 180302c:	dc400d15 	stw	r17,52(sp)
 1803030:	147cee16 	blt	r2,r17,18023ec <___vfprintf_internal_r+0xb90>
 1803034:	18c00204 	addi	r3,r3,8
 1803038:	003b8606 	br	1801e54 <___vfprintf_internal_r+0x5f8>
 180303c:	38c00017 	ldw	r3,0(r7)
 1803040:	39000204 	addi	r4,r7,8
 1803044:	d9014015 	stw	r4,1280(sp)
 1803048:	d8c14215 	stw	r3,1288(sp)
 180304c:	39c00117 	ldw	r7,4(r7)
 1803050:	d9c14315 	stw	r7,1292(sp)
 1803054:	003e2006 	br	18028d8 <___vfprintf_internal_r+0x107c>
 1803058:	0005883a 	mov	r2,zero
 180305c:	1409c83a 	sub	r4,r2,r16
 1803060:	1105803a 	cmpltu	r2,r2,r4
 1803064:	044bc83a 	sub	r5,zero,r17
 1803068:	2885c83a 	sub	r2,r5,r2
 180306c:	2021883a 	mov	r16,r4
 1803070:	1023883a 	mov	r17,r2
 1803074:	01000044 	movi	r4,1
 1803078:	00800b44 	movi	r2,45
 180307c:	d8800405 	stb	r2,16(sp)
 1803080:	003c8406 	br	1802294 <___vfprintf_internal_r+0xa38>
 1803084:	d9014f17 	ldw	r4,1340(sp)
 1803088:	b00b883a 	mov	r5,r22
 180308c:	d9800c04 	addi	r6,sp,48
 1803090:	18018040 	call	1801804 <__sprint_r>
 1803094:	103ba91e 	bne	r2,zero,1801f3c <___vfprintf_internal_r+0x6e0>
 1803098:	dc800e17 	ldw	r18,56(sp)
 180309c:	dc400d17 	ldw	r17,52(sp)
 18030a0:	d9000517 	ldw	r4,20(sp)
 18030a4:	d9401904 	addi	r5,sp,100
 18030a8:	003da706 	br	1802748 <___vfprintf_internal_r+0xeec>
 18030ac:	d9014f17 	ldw	r4,1340(sp)
 18030b0:	b00b883a 	mov	r5,r22
 18030b4:	d9800c04 	addi	r6,sp,48
 18030b8:	18018040 	call	1801804 <__sprint_r>
 18030bc:	103b9f1e 	bne	r2,zero,1801f3c <___vfprintf_internal_r+0x6e0>
 18030c0:	dc800e17 	ldw	r18,56(sp)
 18030c4:	dc400d17 	ldw	r17,52(sp)
 18030c8:	d9000517 	ldw	r4,20(sp)
 18030cc:	d8c01904 	addi	r3,sp,100
 18030d0:	003d9106 	br	1802718 <___vfprintf_internal_r+0xebc>
 18030d4:	07006074 	movhi	fp,385
 18030d8:	e7042484 	addi	fp,fp,4242
 18030dc:	9425883a 	add	r18,r18,r16
 18030e0:	8c400044 	addi	r17,r17,1
 18030e4:	008001c4 	movi	r2,7
 18030e8:	1f000015 	stw	fp,0(r3)
 18030ec:	1c000115 	stw	r16,4(r3)
 18030f0:	dc800e15 	stw	r18,56(sp)
 18030f4:	dc400d15 	stw	r17,52(sp)
 18030f8:	147fbc16 	blt	r2,r17,1802fec <___vfprintf_internal_r+0x1790>
 18030fc:	18c00204 	addi	r3,r3,8
 1803100:	003fc206 	br	180300c <___vfprintf_internal_r+0x17b0>
 1803104:	d9014f17 	ldw	r4,1340(sp)
 1803108:	b00b883a 	mov	r5,r22
 180310c:	d9800c04 	addi	r6,sp,48
 1803110:	18018040 	call	1801804 <__sprint_r>
 1803114:	103b891e 	bne	r2,zero,1801f3c <___vfprintf_internal_r+0x6e0>
 1803118:	dc800e17 	ldw	r18,56(sp)
 180311c:	d9000517 	ldw	r4,20(sp)
 1803120:	d8c01904 	addi	r3,sp,100
 1803124:	003d0206 	br	1802530 <___vfprintf_internal_r+0xcd4>
 1803128:	07006074 	movhi	fp,385
 180312c:	e7042484 	addi	fp,fp,4242
 1803130:	003be406 	br	18020c4 <___vfprintf_internal_r+0x868>
 1803134:	00806074 	movhi	r2,385
 1803138:	10841304 	addi	r2,r2,4172
 180313c:	d8814115 	stw	r2,1284(sp)
 1803140:	003df506 	br	1802918 <___vfprintf_internal_r+0x10bc>
 1803144:	d9014217 	ldw	r4,1288(sp)
 1803148:	d9414317 	ldw	r5,1292(sp)
 180314c:	180823c0 	call	180823c <__isnand>
 1803150:	10003926 	beq	r2,zero,1803238 <___vfprintf_internal_r+0x19dc>
 1803154:	d9414d17 	ldw	r5,1332(sp)
 1803158:	008011c4 	movi	r2,71
 180315c:	1140ce16 	blt	r2,r5,1803498 <___vfprintf_internal_r+0x1c3c>
 1803160:	01806074 	movhi	r6,385
 1803164:	31841404 	addi	r6,r6,4176
 1803168:	d9814115 	stw	r6,1284(sp)
 180316c:	003dea06 	br	1802918 <___vfprintf_internal_r+0x10bc>
 1803170:	d9014c17 	ldw	r4,1328(sp)
 1803174:	bdc00044 	addi	r23,r23,1
 1803178:	b8c00007 	ldb	r3,0(r23)
 180317c:	21000814 	ori	r4,r4,32
 1803180:	d9014c15 	stw	r4,1328(sp)
 1803184:	003a3406 	br	1801a58 <___vfprintf_internal_r+0x1fc>
 1803188:	dcc14515 	stw	r19,1300(sp)
 180318c:	98011016 	blt	r19,zero,18035d0 <___vfprintf_internal_r+0x1d74>
 1803190:	980f883a 	mov	r7,r19
 1803194:	d8014615 	stw	zero,1304(sp)
 1803198:	003c5206 	br	18022e4 <___vfprintf_internal_r+0xa88>
 180319c:	d9014f17 	ldw	r4,1340(sp)
 18031a0:	b00b883a 	mov	r5,r22
 18031a4:	d9800c04 	addi	r6,sp,48
 18031a8:	18018040 	call	1801804 <__sprint_r>
 18031ac:	103b631e 	bne	r2,zero,1801f3c <___vfprintf_internal_r+0x6e0>
 18031b0:	dc800e17 	ldw	r18,56(sp)
 18031b4:	d9000517 	ldw	r4,20(sp)
 18031b8:	d8c01904 	addi	r3,sp,100
 18031bc:	003f2e06 	br	1802e78 <___vfprintf_internal_r+0x161c>
 18031c0:	d8c14c17 	ldw	r3,1328(sp)
 18031c4:	1880100c 	andi	r2,r3,64
 18031c8:	1000a026 	beq	r2,zero,180344c <___vfprintf_internal_r+0x1bf0>
 18031cc:	38800017 	ldw	r2,0(r7)
 18031d0:	39c00104 	addi	r7,r7,4
 18031d4:	d9c14015 	stw	r7,1280(sp)
 18031d8:	d9014b17 	ldw	r4,1324(sp)
 18031dc:	d9c14017 	ldw	r7,1280(sp)
 18031e0:	1100000d 	sth	r4,0(r2)
 18031e4:	0039f906 	br	18019cc <___vfprintf_internal_r+0x170>
 18031e8:	d9014f17 	ldw	r4,1340(sp)
 18031ec:	b00b883a 	mov	r5,r22
 18031f0:	d9800c04 	addi	r6,sp,48
 18031f4:	18018040 	call	1801804 <__sprint_r>
 18031f8:	103b501e 	bne	r2,zero,1801f3c <___vfprintf_internal_r+0x6e0>
 18031fc:	dc800e17 	ldw	r18,56(sp)
 1803200:	dc400d17 	ldw	r17,52(sp)
 1803204:	d9000517 	ldw	r4,20(sp)
 1803208:	d8c01904 	addi	r3,sp,100
 180320c:	003f2d06 	br	1802ec4 <___vfprintf_internal_r+0x1668>
 1803210:	00800184 	movi	r2,6
 1803214:	14c09a36 	bltu	r2,r19,1803480 <___vfprintf_internal_r+0x1c24>
 1803218:	dcc14515 	stw	r19,1300(sp)
 180321c:	9800010e 	bge	r19,zero,1803224 <___vfprintf_internal_r+0x19c8>
 1803220:	d8014515 	stw	zero,1300(sp)
 1803224:	00806074 	movhi	r2,385
 1803228:	10841604 	addi	r2,r2,4184
 180322c:	980f883a 	mov	r7,r19
 1803230:	d8814115 	stw	r2,1284(sp)
 1803234:	003a7806 	br	1801c18 <___vfprintf_internal_r+0x3bc>
 1803238:	00bfffc4 	movi	r2,-1
 180323c:	9880e226 	beq	r19,r2,18035c8 <___vfprintf_internal_r+0x1d6c>
 1803240:	d9414d17 	ldw	r5,1332(sp)
 1803244:	008019c4 	movi	r2,103
 1803248:	2880dc26 	beq	r5,r2,18035bc <___vfprintf_internal_r+0x1d60>
 180324c:	008011c4 	movi	r2,71
 1803250:	2880da26 	beq	r5,r2,18035bc <___vfprintf_internal_r+0x1d60>
 1803254:	d9414c17 	ldw	r5,1328(sp)
 1803258:	d9014317 	ldw	r4,1292(sp)
 180325c:	d9814217 	ldw	r6,1288(sp)
 1803260:	29404014 	ori	r5,r5,256
 1803264:	d9414c15 	stw	r5,1328(sp)
 1803268:	2000cc16 	blt	r4,zero,180359c <___vfprintf_internal_r+0x1d40>
 180326c:	3021883a 	mov	r16,r6
 1803270:	2023883a 	mov	r17,r4
 1803274:	0039883a 	mov	fp,zero
 1803278:	d9414d17 	ldw	r5,1332(sp)
 180327c:	00801984 	movi	r2,102
 1803280:	2880b726 	beq	r5,r2,1803560 <___vfprintf_internal_r+0x1d04>
 1803284:	00801184 	movi	r2,70
 1803288:	2880b526 	beq	r5,r2,1803560 <___vfprintf_internal_r+0x1d04>
 180328c:	00801944 	movi	r2,101
 1803290:	2880c826 	beq	r5,r2,18035b4 <___vfprintf_internal_r+0x1d58>
 1803294:	00801144 	movi	r2,69
 1803298:	2880c626 	beq	r5,r2,18035b4 <___vfprintf_internal_r+0x1d58>
 180329c:	9829883a 	mov	r20,r19
 18032a0:	d9014f17 	ldw	r4,1340(sp)
 18032a4:	d8800504 	addi	r2,sp,20
 18032a8:	880d883a 	mov	r6,r17
 18032ac:	d8800115 	stw	r2,4(sp)
 18032b0:	d8c00604 	addi	r3,sp,24
 18032b4:	d8800704 	addi	r2,sp,28
 18032b8:	800b883a 	mov	r5,r16
 18032bc:	01c00084 	movi	r7,2
 18032c0:	d8c00215 	stw	r3,8(sp)
 18032c4:	d8800315 	stw	r2,12(sp)
 18032c8:	dd000015 	stw	r20,0(sp)
 18032cc:	1803a800 	call	1803a80 <_dtoa_r>
 18032d0:	d9814d17 	ldw	r6,1332(sp)
 18032d4:	d8814115 	stw	r2,1284(sp)
 18032d8:	008019c4 	movi	r2,103
 18032dc:	30809526 	beq	r6,r2,1803534 <___vfprintf_internal_r+0x1cd8>
 18032e0:	d8c14d17 	ldw	r3,1332(sp)
 18032e4:	008011c4 	movi	r2,71
 18032e8:	18809226 	beq	r3,r2,1803534 <___vfprintf_internal_r+0x1cd8>
 18032ec:	d9414117 	ldw	r5,1284(sp)
 18032f0:	d9814d17 	ldw	r6,1332(sp)
 18032f4:	00801984 	movi	r2,102
 18032f8:	2d25883a 	add	r18,r5,r20
 18032fc:	30808626 	beq	r6,r2,1803518 <___vfprintf_internal_r+0x1cbc>
 1803300:	00801184 	movi	r2,70
 1803304:	30808426 	beq	r6,r2,1803518 <___vfprintf_internal_r+0x1cbc>
 1803308:	000d883a 	mov	r6,zero
 180330c:	000f883a 	mov	r7,zero
 1803310:	880b883a 	mov	r5,r17
 1803314:	8009883a 	mov	r4,r16
 1803318:	1809b940 	call	1809b94 <__eqdf2>
 180331c:	1000751e 	bne	r2,zero,18034f4 <___vfprintf_internal_r+0x1c98>
 1803320:	9005883a 	mov	r2,r18
 1803324:	dc800715 	stw	r18,28(sp)
 1803328:	d9014117 	ldw	r4,1284(sp)
 180332c:	d9414d17 	ldw	r5,1332(sp)
 1803330:	00c019c4 	movi	r3,103
 1803334:	1125c83a 	sub	r18,r2,r4
 1803338:	28c06826 	beq	r5,r3,18034dc <___vfprintf_internal_r+0x1c80>
 180333c:	008011c4 	movi	r2,71
 1803340:	28806626 	beq	r5,r2,18034dc <___vfprintf_internal_r+0x1c80>
 1803344:	d9000517 	ldw	r4,20(sp)
 1803348:	d8c14d17 	ldw	r3,1332(sp)
 180334c:	00801944 	movi	r2,101
 1803350:	10c05516 	blt	r2,r3,18034a8 <___vfprintf_internal_r+0x1c4c>
 1803354:	213fffc4 	addi	r4,r4,-1
 1803358:	d9000515 	stw	r4,20(sp)
 180335c:	d8c00805 	stb	r3,32(sp)
 1803360:	2021883a 	mov	r16,r4
 1803364:	2000c116 	blt	r4,zero,180366c <___vfprintf_internal_r+0x1e10>
 1803368:	00800ac4 	movi	r2,43
 180336c:	d8800845 	stb	r2,33(sp)
 1803370:	00800244 	movi	r2,9
 1803374:	1400af0e 	bge	r2,r16,1803634 <___vfprintf_internal_r+0x1dd8>
 1803378:	1027883a 	mov	r19,r2
 180337c:	dc400b84 	addi	r17,sp,46
 1803380:	8009883a 	mov	r4,r16
 1803384:	01400284 	movi	r5,10
 1803388:	180a1a40 	call	180a1a4 <__modsi3>
 180338c:	10800c04 	addi	r2,r2,48
 1803390:	8c7fffc4 	addi	r17,r17,-1
 1803394:	8009883a 	mov	r4,r16
 1803398:	01400284 	movi	r5,10
 180339c:	88800005 	stb	r2,0(r17)
 18033a0:	180a1440 	call	180a144 <__divsi3>
 18033a4:	1021883a 	mov	r16,r2
 18033a8:	98bff516 	blt	r19,r2,1803380 <___vfprintf_internal_r+0x1b24>
 18033ac:	10c00c04 	addi	r3,r2,48
 18033b0:	d88009c4 	addi	r2,sp,39
 18033b4:	108001c4 	addi	r2,r2,7
 18033b8:	897fffc4 	addi	r5,r17,-1
 18033bc:	88ffffc5 	stb	r3,-1(r17)
 18033c0:	2880a72e 	bgeu	r5,r2,1803660 <___vfprintf_internal_r+0x1e04>
 18033c4:	1009883a 	mov	r4,r2
 18033c8:	d9800804 	addi	r6,sp,32
 18033cc:	d8c00884 	addi	r3,sp,34
 18033d0:	28800003 	ldbu	r2,0(r5)
 18033d4:	29400044 	addi	r5,r5,1
 18033d8:	18800005 	stb	r2,0(r3)
 18033dc:	18c00044 	addi	r3,r3,1
 18033e0:	293ffb36 	bltu	r5,r4,18033d0 <___vfprintf_internal_r+0x1b74>
 18033e4:	1987c83a 	sub	r3,r3,r6
 18033e8:	00800044 	movi	r2,1
 18033ec:	d8c14815 	stw	r3,1312(sp)
 18033f0:	90cf883a 	add	r7,r18,r3
 18033f4:	1480960e 	bge	r2,r18,1803650 <___vfprintf_internal_r+0x1df4>
 18033f8:	39c00044 	addi	r7,r7,1
 18033fc:	d9c14515 	stw	r7,1300(sp)
 1803400:	38003416 	blt	r7,zero,18034d4 <___vfprintf_internal_r+0x1c78>
 1803404:	e0803fcc 	andi	r2,fp,255
 1803408:	1080201c 	xori	r2,r2,128
 180340c:	10bfe004 	addi	r2,r2,-128
 1803410:	10004e26 	beq	r2,zero,180354c <___vfprintf_internal_r+0x1cf0>
 1803414:	00800b44 	movi	r2,45
 1803418:	dc814715 	stw	r18,1308(sp)
 180341c:	d8014615 	stw	zero,1304(sp)
 1803420:	d8800405 	stb	r2,16(sp)
 1803424:	003bb106 	br	18022ec <___vfprintf_internal_r+0xa90>
 1803428:	00800b44 	movi	r2,45
 180342c:	d8800405 	stb	r2,16(sp)
 1803430:	003d3306 	br	1802900 <___vfprintf_internal_r+0x10a4>
 1803434:	d9014f17 	ldw	r4,1340(sp)
 1803438:	b00b883a 	mov	r5,r22
 180343c:	d9800c04 	addi	r6,sp,48
 1803440:	18018040 	call	1801804 <__sprint_r>
 1803444:	103abd1e 	bne	r2,zero,1801f3c <___vfprintf_internal_r+0x6e0>
 1803448:	003abb06 	br	1801f38 <___vfprintf_internal_r+0x6dc>
 180344c:	38800017 	ldw	r2,0(r7)
 1803450:	39c00104 	addi	r7,r7,4
 1803454:	d9c14015 	stw	r7,1280(sp)
 1803458:	d9414b17 	ldw	r5,1324(sp)
 180345c:	d9c14017 	ldw	r7,1280(sp)
 1803460:	11400015 	stw	r5,0(r2)
 1803464:	00395906 	br	18019cc <___vfprintf_internal_r+0x170>
 1803468:	980f883a 	mov	r7,r19
 180346c:	dcc14515 	stw	r19,1300(sp)
 1803470:	d8014615 	stw	zero,1304(sp)
 1803474:	003b9b06 	br	18022e4 <___vfprintf_internal_r+0xa88>
 1803478:	0027883a 	mov	r19,zero
 180347c:	00397806 	br	1801a60 <___vfprintf_internal_r+0x204>
 1803480:	00c06074 	movhi	r3,385
 1803484:	18c41604 	addi	r3,r3,4184
 1803488:	100f883a 	mov	r7,r2
 180348c:	d8814515 	stw	r2,1300(sp)
 1803490:	d8c14115 	stw	r3,1284(sp)
 1803494:	0039e006 	br	1801c18 <___vfprintf_internal_r+0x3bc>
 1803498:	00806074 	movhi	r2,385
 180349c:	10841504 	addi	r2,r2,4180
 18034a0:	d8814115 	stw	r2,1284(sp)
 18034a4:	003d1c06 	br	1802918 <___vfprintf_internal_r+0x10bc>
 18034a8:	d9414d17 	ldw	r5,1332(sp)
 18034ac:	00801984 	movi	r2,102
 18034b0:	28804926 	beq	r5,r2,18035d8 <___vfprintf_internal_r+0x1d7c>
 18034b4:	200f883a 	mov	r7,r4
 18034b8:	24805716 	blt	r4,r18,1803618 <___vfprintf_internal_r+0x1dbc>
 18034bc:	d9414c17 	ldw	r5,1328(sp)
 18034c0:	2880004c 	andi	r2,r5,1
 18034c4:	10000126 	beq	r2,zero,18034cc <___vfprintf_internal_r+0x1c70>
 18034c8:	21c00044 	addi	r7,r4,1
 18034cc:	d9c14515 	stw	r7,1300(sp)
 18034d0:	383fcc0e 	bge	r7,zero,1803404 <___vfprintf_internal_r+0x1ba8>
 18034d4:	d8014515 	stw	zero,1300(sp)
 18034d8:	003fca06 	br	1803404 <___vfprintf_internal_r+0x1ba8>
 18034dc:	d9000517 	ldw	r4,20(sp)
 18034e0:	00bfff04 	movi	r2,-4
 18034e4:	1100480e 	bge	r2,r4,1803608 <___vfprintf_internal_r+0x1dac>
 18034e8:	99004716 	blt	r19,r4,1803608 <___vfprintf_internal_r+0x1dac>
 18034ec:	d8c14d15 	stw	r3,1332(sp)
 18034f0:	003ff006 	br	18034b4 <___vfprintf_internal_r+0x1c58>
 18034f4:	d8800717 	ldw	r2,28(sp)
 18034f8:	14bf8b2e 	bgeu	r2,r18,1803328 <___vfprintf_internal_r+0x1acc>
 18034fc:	9007883a 	mov	r3,r18
 1803500:	01000c04 	movi	r4,48
 1803504:	11000005 	stb	r4,0(r2)
 1803508:	10800044 	addi	r2,r2,1
 180350c:	d8800715 	stw	r2,28(sp)
 1803510:	18bffc1e 	bne	r3,r2,1803504 <___vfprintf_internal_r+0x1ca8>
 1803514:	003f8406 	br	1803328 <___vfprintf_internal_r+0x1acc>
 1803518:	d8814117 	ldw	r2,1284(sp)
 180351c:	10c00007 	ldb	r3,0(r2)
 1803520:	00800c04 	movi	r2,48
 1803524:	18805b26 	beq	r3,r2,1803694 <___vfprintf_internal_r+0x1e38>
 1803528:	d9000517 	ldw	r4,20(sp)
 180352c:	9125883a 	add	r18,r18,r4
 1803530:	003f7506 	br	1803308 <___vfprintf_internal_r+0x1aac>
 1803534:	d9014c17 	ldw	r4,1328(sp)
 1803538:	2080004c 	andi	r2,r4,1
 180353c:	1005003a 	cmpeq	r2,r2,zero
 1803540:	103f6a26 	beq	r2,zero,18032ec <___vfprintf_internal_r+0x1a90>
 1803544:	d8800717 	ldw	r2,28(sp)
 1803548:	003f7706 	br	1803328 <___vfprintf_internal_r+0x1acc>
 180354c:	d9c14515 	stw	r7,1300(sp)
 1803550:	38004d16 	blt	r7,zero,1803688 <___vfprintf_internal_r+0x1e2c>
 1803554:	dc814715 	stw	r18,1308(sp)
 1803558:	d8014615 	stw	zero,1304(sp)
 180355c:	003b6106 	br	18022e4 <___vfprintf_internal_r+0xa88>
 1803560:	d9014f17 	ldw	r4,1340(sp)
 1803564:	d8800504 	addi	r2,sp,20
 1803568:	d8800115 	stw	r2,4(sp)
 180356c:	d8c00604 	addi	r3,sp,24
 1803570:	d8800704 	addi	r2,sp,28
 1803574:	800b883a 	mov	r5,r16
 1803578:	880d883a 	mov	r6,r17
 180357c:	01c000c4 	movi	r7,3
 1803580:	d8c00215 	stw	r3,8(sp)
 1803584:	d8800315 	stw	r2,12(sp)
 1803588:	dcc00015 	stw	r19,0(sp)
 180358c:	9829883a 	mov	r20,r19
 1803590:	1803a800 	call	1803a80 <_dtoa_r>
 1803594:	d8814115 	stw	r2,1284(sp)
 1803598:	003f5106 	br	18032e0 <___vfprintf_internal_r+0x1a84>
 180359c:	d8c14217 	ldw	r3,1288(sp)
 18035a0:	d9014317 	ldw	r4,1292(sp)
 18035a4:	07000b44 	movi	fp,45
 18035a8:	1821883a 	mov	r16,r3
 18035ac:	2460003c 	xorhi	r17,r4,32768
 18035b0:	003f3106 	br	1803278 <___vfprintf_internal_r+0x1a1c>
 18035b4:	9d000044 	addi	r20,r19,1
 18035b8:	003f3906 	br	18032a0 <___vfprintf_internal_r+0x1a44>
 18035bc:	983f251e 	bne	r19,zero,1803254 <___vfprintf_internal_r+0x19f8>
 18035c0:	04c00044 	movi	r19,1
 18035c4:	003f2306 	br	1803254 <___vfprintf_internal_r+0x19f8>
 18035c8:	04c00184 	movi	r19,6
 18035cc:	003f2106 	br	1803254 <___vfprintf_internal_r+0x19f8>
 18035d0:	d8014515 	stw	zero,1300(sp)
 18035d4:	003eee06 	br	1803190 <___vfprintf_internal_r+0x1934>
 18035d8:	200f883a 	mov	r7,r4
 18035dc:	0100370e 	bge	zero,r4,18036bc <___vfprintf_internal_r+0x1e60>
 18035e0:	9800031e 	bne	r19,zero,18035f0 <___vfprintf_internal_r+0x1d94>
 18035e4:	d9814c17 	ldw	r6,1328(sp)
 18035e8:	3080004c 	andi	r2,r6,1
 18035ec:	103fb726 	beq	r2,zero,18034cc <___vfprintf_internal_r+0x1c70>
 18035f0:	20800044 	addi	r2,r4,1
 18035f4:	98a7883a 	add	r19,r19,r2
 18035f8:	dcc14515 	stw	r19,1300(sp)
 18035fc:	980f883a 	mov	r7,r19
 1803600:	983f800e 	bge	r19,zero,1803404 <___vfprintf_internal_r+0x1ba8>
 1803604:	003fb306 	br	18034d4 <___vfprintf_internal_r+0x1c78>
 1803608:	d9814d17 	ldw	r6,1332(sp)
 180360c:	31bfff84 	addi	r6,r6,-2
 1803610:	d9814d15 	stw	r6,1332(sp)
 1803614:	003f4c06 	br	1803348 <___vfprintf_internal_r+0x1aec>
 1803618:	0100180e 	bge	zero,r4,180367c <___vfprintf_internal_r+0x1e20>
 180361c:	00800044 	movi	r2,1
 1803620:	1485883a 	add	r2,r2,r18
 1803624:	d8814515 	stw	r2,1300(sp)
 1803628:	100f883a 	mov	r7,r2
 180362c:	103f750e 	bge	r2,zero,1803404 <___vfprintf_internal_r+0x1ba8>
 1803630:	003fa806 	br	18034d4 <___vfprintf_internal_r+0x1c78>
 1803634:	80c00c04 	addi	r3,r16,48
 1803638:	00800c04 	movi	r2,48
 180363c:	d8c008c5 	stb	r3,35(sp)
 1803640:	d9800804 	addi	r6,sp,32
 1803644:	d8c00904 	addi	r3,sp,36
 1803648:	d8800885 	stb	r2,34(sp)
 180364c:	003f6506 	br	18033e4 <___vfprintf_internal_r+0x1b88>
 1803650:	d9014c17 	ldw	r4,1328(sp)
 1803654:	2084703a 	and	r2,r4,r2
 1803658:	103f9c26 	beq	r2,zero,18034cc <___vfprintf_internal_r+0x1c70>
 180365c:	003f6606 	br	18033f8 <___vfprintf_internal_r+0x1b9c>
 1803660:	d9800804 	addi	r6,sp,32
 1803664:	d8c00884 	addi	r3,sp,34
 1803668:	003f5e06 	br	18033e4 <___vfprintf_internal_r+0x1b88>
 180366c:	00800b44 	movi	r2,45
 1803670:	0121c83a 	sub	r16,zero,r4
 1803674:	d8800845 	stb	r2,33(sp)
 1803678:	003f3d06 	br	1803370 <___vfprintf_internal_r+0x1b14>
 180367c:	00800084 	movi	r2,2
 1803680:	1105c83a 	sub	r2,r2,r4
 1803684:	003fe606 	br	1803620 <___vfprintf_internal_r+0x1dc4>
 1803688:	d8014515 	stw	zero,1300(sp)
 180368c:	dc814715 	stw	r18,1308(sp)
 1803690:	003fb106 	br	1803558 <___vfprintf_internal_r+0x1cfc>
 1803694:	000d883a 	mov	r6,zero
 1803698:	000f883a 	mov	r7,zero
 180369c:	8009883a 	mov	r4,r16
 18036a0:	880b883a 	mov	r5,r17
 18036a4:	1809c1c0 	call	1809c1c <__nedf2>
 18036a8:	103f9f26 	beq	r2,zero,1803528 <___vfprintf_internal_r+0x1ccc>
 18036ac:	00800044 	movi	r2,1
 18036b0:	1509c83a 	sub	r4,r2,r20
 18036b4:	d9000515 	stw	r4,20(sp)
 18036b8:	003f9b06 	br	1803528 <___vfprintf_internal_r+0x1ccc>
 18036bc:	98000d1e 	bne	r19,zero,18036f4 <___vfprintf_internal_r+0x1e98>
 18036c0:	d8c14c17 	ldw	r3,1328(sp)
 18036c4:	1880004c 	andi	r2,r3,1
 18036c8:	10000a1e 	bne	r2,zero,18036f4 <___vfprintf_internal_r+0x1e98>
 18036cc:	01000044 	movi	r4,1
 18036d0:	200f883a 	mov	r7,r4
 18036d4:	d9014515 	stw	r4,1300(sp)
 18036d8:	003f4a06 	br	1803404 <___vfprintf_internal_r+0x1ba8>
 18036dc:	3cc00017 	ldw	r19,0(r7)
 18036e0:	39c00104 	addi	r7,r7,4
 18036e4:	983d0e0e 	bge	r19,zero,1802b20 <___vfprintf_internal_r+0x12c4>
 18036e8:	b8c00007 	ldb	r3,0(r23)
 18036ec:	04ffffc4 	movi	r19,-1
 18036f0:	0038d906 	br	1801a58 <___vfprintf_internal_r+0x1fc>
 18036f4:	9cc00084 	addi	r19,r19,2
 18036f8:	dcc14515 	stw	r19,1300(sp)
 18036fc:	980f883a 	mov	r7,r19
 1803700:	983f400e 	bge	r19,zero,1803404 <___vfprintf_internal_r+0x1ba8>
 1803704:	003f7306 	br	18034d4 <___vfprintf_internal_r+0x1c78>

01803708 <__vfprintf_internal>:
 1803708:	00806074 	movhi	r2,385
 180370c:	108c7704 	addi	r2,r2,12764
 1803710:	2013883a 	mov	r9,r4
 1803714:	11000017 	ldw	r4,0(r2)
 1803718:	2805883a 	mov	r2,r5
 180371c:	300f883a 	mov	r7,r6
 1803720:	480b883a 	mov	r5,r9
 1803724:	100d883a 	mov	r6,r2
 1803728:	180185c1 	jmpi	180185c <___vfprintf_internal_r>

0180372c <__swsetup_r>:
 180372c:	00806074 	movhi	r2,385
 1803730:	108c7704 	addi	r2,r2,12764
 1803734:	10c00017 	ldw	r3,0(r2)
 1803738:	defffd04 	addi	sp,sp,-12
 180373c:	dc400115 	stw	r17,4(sp)
 1803740:	dc000015 	stw	r16,0(sp)
 1803744:	dfc00215 	stw	ra,8(sp)
 1803748:	2023883a 	mov	r17,r4
 180374c:	2821883a 	mov	r16,r5
 1803750:	18000226 	beq	r3,zero,180375c <__swsetup_r+0x30>
 1803754:	18800e17 	ldw	r2,56(r3)
 1803758:	10001f26 	beq	r2,zero,18037d8 <__swsetup_r+0xac>
 180375c:	8100030b 	ldhu	r4,12(r16)
 1803760:	2080020c 	andi	r2,r4,8
 1803764:	10002826 	beq	r2,zero,1803808 <__swsetup_r+0xdc>
 1803768:	81400417 	ldw	r5,16(r16)
 180376c:	28001d26 	beq	r5,zero,18037e4 <__swsetup_r+0xb8>
 1803770:	2080004c 	andi	r2,r4,1
 1803774:	1005003a 	cmpeq	r2,r2,zero
 1803778:	10000b26 	beq	r2,zero,18037a8 <__swsetup_r+0x7c>
 180377c:	2080008c 	andi	r2,r4,2
 1803780:	10001226 	beq	r2,zero,18037cc <__swsetup_r+0xa0>
 1803784:	0005883a 	mov	r2,zero
 1803788:	80800215 	stw	r2,8(r16)
 180378c:	28000b26 	beq	r5,zero,18037bc <__swsetup_r+0x90>
 1803790:	0005883a 	mov	r2,zero
 1803794:	dfc00217 	ldw	ra,8(sp)
 1803798:	dc400117 	ldw	r17,4(sp)
 180379c:	dc000017 	ldw	r16,0(sp)
 18037a0:	dec00304 	addi	sp,sp,12
 18037a4:	f800283a 	ret
 18037a8:	80800517 	ldw	r2,20(r16)
 18037ac:	80000215 	stw	zero,8(r16)
 18037b0:	0085c83a 	sub	r2,zero,r2
 18037b4:	80800615 	stw	r2,24(r16)
 18037b8:	283ff51e 	bne	r5,zero,1803790 <__swsetup_r+0x64>
 18037bc:	2080200c 	andi	r2,r4,128
 18037c0:	103ff326 	beq	r2,zero,1803790 <__swsetup_r+0x64>
 18037c4:	00bfffc4 	movi	r2,-1
 18037c8:	003ff206 	br	1803794 <__swsetup_r+0x68>
 18037cc:	80800517 	ldw	r2,20(r16)
 18037d0:	80800215 	stw	r2,8(r16)
 18037d4:	003fed06 	br	180378c <__swsetup_r+0x60>
 18037d8:	1809883a 	mov	r4,r3
 18037dc:	18052cc0 	call	18052cc <__sinit>
 18037e0:	003fde06 	br	180375c <__swsetup_r+0x30>
 18037e4:	20c0a00c 	andi	r3,r4,640
 18037e8:	00808004 	movi	r2,512
 18037ec:	18bfe026 	beq	r3,r2,1803770 <__swsetup_r+0x44>
 18037f0:	8809883a 	mov	r4,r17
 18037f4:	800b883a 	mov	r5,r16
 18037f8:	18060440 	call	1806044 <__smakebuf_r>
 18037fc:	8100030b 	ldhu	r4,12(r16)
 1803800:	81400417 	ldw	r5,16(r16)
 1803804:	003fda06 	br	1803770 <__swsetup_r+0x44>
 1803808:	2080040c 	andi	r2,r4,16
 180380c:	103fed26 	beq	r2,zero,18037c4 <__swsetup_r+0x98>
 1803810:	2080010c 	andi	r2,r4,4
 1803814:	10001226 	beq	r2,zero,1803860 <__swsetup_r+0x134>
 1803818:	81400c17 	ldw	r5,48(r16)
 180381c:	28000526 	beq	r5,zero,1803834 <__swsetup_r+0x108>
 1803820:	80801004 	addi	r2,r16,64
 1803824:	28800226 	beq	r5,r2,1803830 <__swsetup_r+0x104>
 1803828:	8809883a 	mov	r4,r17
 180382c:	18056500 	call	1805650 <_free_r>
 1803830:	80000c15 	stw	zero,48(r16)
 1803834:	8080030b 	ldhu	r2,12(r16)
 1803838:	81400417 	ldw	r5,16(r16)
 180383c:	80000115 	stw	zero,4(r16)
 1803840:	10bff6cc 	andi	r2,r2,65499
 1803844:	8080030d 	sth	r2,12(r16)
 1803848:	81400015 	stw	r5,0(r16)
 180384c:	8080030b 	ldhu	r2,12(r16)
 1803850:	10800214 	ori	r2,r2,8
 1803854:	113fffcc 	andi	r4,r2,65535
 1803858:	8080030d 	sth	r2,12(r16)
 180385c:	003fc306 	br	180376c <__swsetup_r+0x40>
 1803860:	81400417 	ldw	r5,16(r16)
 1803864:	003ff906 	br	180384c <__swsetup_r+0x120>

01803868 <quorem>:
 1803868:	28c00417 	ldw	r3,16(r5)
 180386c:	20800417 	ldw	r2,16(r4)
 1803870:	defff604 	addi	sp,sp,-40
 1803874:	ddc00715 	stw	r23,28(sp)
 1803878:	dd400515 	stw	r21,20(sp)
 180387c:	dfc00915 	stw	ra,36(sp)
 1803880:	df000815 	stw	fp,32(sp)
 1803884:	dd800615 	stw	r22,24(sp)
 1803888:	dd000415 	stw	r20,16(sp)
 180388c:	dcc00315 	stw	r19,12(sp)
 1803890:	dc800215 	stw	r18,8(sp)
 1803894:	dc400115 	stw	r17,4(sp)
 1803898:	dc000015 	stw	r16,0(sp)
 180389c:	202f883a 	mov	r23,r4
 18038a0:	282b883a 	mov	r21,r5
 18038a4:	10c07416 	blt	r2,r3,1803a78 <quorem+0x210>
 18038a8:	1c7fffc4 	addi	r17,r3,-1
 18038ac:	8c45883a 	add	r2,r17,r17
 18038b0:	1085883a 	add	r2,r2,r2
 18038b4:	2c000504 	addi	r16,r5,20
 18038b8:	24c00504 	addi	r19,r4,20
 18038bc:	14ed883a 	add	r22,r2,r19
 18038c0:	80a5883a 	add	r18,r16,r2
 18038c4:	b7000017 	ldw	fp,0(r22)
 18038c8:	91400017 	ldw	r5,0(r18)
 18038cc:	e009883a 	mov	r4,fp
 18038d0:	29400044 	addi	r5,r5,1
 18038d4:	180a2040 	call	180a204 <__udivsi3>
 18038d8:	1029883a 	mov	r20,r2
 18038dc:	10003c1e 	bne	r2,zero,18039d0 <quorem+0x168>
 18038e0:	a80b883a 	mov	r5,r21
 18038e4:	b809883a 	mov	r4,r23
 18038e8:	1806d700 	call	1806d70 <__mcmp>
 18038ec:	10002b16 	blt	r2,zero,180399c <quorem+0x134>
 18038f0:	a5000044 	addi	r20,r20,1
 18038f4:	980f883a 	mov	r7,r19
 18038f8:	0011883a 	mov	r8,zero
 18038fc:	0009883a 	mov	r4,zero
 1803900:	81400017 	ldw	r5,0(r16)
 1803904:	38c00017 	ldw	r3,0(r7)
 1803908:	84000104 	addi	r16,r16,4
 180390c:	28bfffcc 	andi	r2,r5,65535
 1803910:	2085883a 	add	r2,r4,r2
 1803914:	11bfffcc 	andi	r6,r2,65535
 1803918:	193fffcc 	andi	r4,r3,65535
 180391c:	1004d43a 	srli	r2,r2,16
 1803920:	280ad43a 	srli	r5,r5,16
 1803924:	2189c83a 	sub	r4,r4,r6
 1803928:	2209883a 	add	r4,r4,r8
 180392c:	1806d43a 	srli	r3,r3,16
 1803930:	288b883a 	add	r5,r5,r2
 1803934:	200dd43a 	srai	r6,r4,16
 1803938:	28bfffcc 	andi	r2,r5,65535
 180393c:	1887c83a 	sub	r3,r3,r2
 1803940:	1987883a 	add	r3,r3,r6
 1803944:	3900000d 	sth	r4,0(r7)
 1803948:	38c0008d 	sth	r3,2(r7)
 180394c:	2808d43a 	srli	r4,r5,16
 1803950:	39c00104 	addi	r7,r7,4
 1803954:	1811d43a 	srai	r8,r3,16
 1803958:	943fe92e 	bgeu	r18,r16,1803900 <quorem+0x98>
 180395c:	8c45883a 	add	r2,r17,r17
 1803960:	1085883a 	add	r2,r2,r2
 1803964:	9885883a 	add	r2,r19,r2
 1803968:	10c00017 	ldw	r3,0(r2)
 180396c:	18000b1e 	bne	r3,zero,180399c <quorem+0x134>
 1803970:	113fff04 	addi	r4,r2,-4
 1803974:	9900082e 	bgeu	r19,r4,1803998 <quorem+0x130>
 1803978:	10bfff17 	ldw	r2,-4(r2)
 180397c:	10000326 	beq	r2,zero,180398c <quorem+0x124>
 1803980:	00000506 	br	1803998 <quorem+0x130>
 1803984:	20800017 	ldw	r2,0(r4)
 1803988:	1000031e 	bne	r2,zero,1803998 <quorem+0x130>
 180398c:	213fff04 	addi	r4,r4,-4
 1803990:	8c7fffc4 	addi	r17,r17,-1
 1803994:	993ffb36 	bltu	r19,r4,1803984 <quorem+0x11c>
 1803998:	bc400415 	stw	r17,16(r23)
 180399c:	a005883a 	mov	r2,r20
 18039a0:	dfc00917 	ldw	ra,36(sp)
 18039a4:	df000817 	ldw	fp,32(sp)
 18039a8:	ddc00717 	ldw	r23,28(sp)
 18039ac:	dd800617 	ldw	r22,24(sp)
 18039b0:	dd400517 	ldw	r21,20(sp)
 18039b4:	dd000417 	ldw	r20,16(sp)
 18039b8:	dcc00317 	ldw	r19,12(sp)
 18039bc:	dc800217 	ldw	r18,8(sp)
 18039c0:	dc400117 	ldw	r17,4(sp)
 18039c4:	dc000017 	ldw	r16,0(sp)
 18039c8:	dec00a04 	addi	sp,sp,40
 18039cc:	f800283a 	ret
 18039d0:	980f883a 	mov	r7,r19
 18039d4:	8011883a 	mov	r8,r16
 18039d8:	0013883a 	mov	r9,zero
 18039dc:	000d883a 	mov	r6,zero
 18039e0:	40c00017 	ldw	r3,0(r8)
 18039e4:	39000017 	ldw	r4,0(r7)
 18039e8:	42000104 	addi	r8,r8,4
 18039ec:	18bfffcc 	andi	r2,r3,65535
 18039f0:	a085383a 	mul	r2,r20,r2
 18039f4:	1806d43a 	srli	r3,r3,16
 18039f8:	217fffcc 	andi	r5,r4,65535
 18039fc:	3085883a 	add	r2,r6,r2
 1803a00:	11bfffcc 	andi	r6,r2,65535
 1803a04:	a0c7383a 	mul	r3,r20,r3
 1803a08:	1004d43a 	srli	r2,r2,16
 1803a0c:	298bc83a 	sub	r5,r5,r6
 1803a10:	2a4b883a 	add	r5,r5,r9
 1803a14:	2008d43a 	srli	r4,r4,16
 1803a18:	1887883a 	add	r3,r3,r2
 1803a1c:	280dd43a 	srai	r6,r5,16
 1803a20:	18bfffcc 	andi	r2,r3,65535
 1803a24:	2089c83a 	sub	r4,r4,r2
 1803a28:	2189883a 	add	r4,r4,r6
 1803a2c:	3900008d 	sth	r4,2(r7)
 1803a30:	3940000d 	sth	r5,0(r7)
 1803a34:	180cd43a 	srli	r6,r3,16
 1803a38:	39c00104 	addi	r7,r7,4
 1803a3c:	2013d43a 	srai	r9,r4,16
 1803a40:	923fe72e 	bgeu	r18,r8,18039e0 <quorem+0x178>
 1803a44:	e03fa61e 	bne	fp,zero,18038e0 <quorem+0x78>
 1803a48:	b0ffff04 	addi	r3,r22,-4
 1803a4c:	98c0082e 	bgeu	r19,r3,1803a70 <quorem+0x208>
 1803a50:	b0bfff17 	ldw	r2,-4(r22)
 1803a54:	10000326 	beq	r2,zero,1803a64 <quorem+0x1fc>
 1803a58:	00000506 	br	1803a70 <quorem+0x208>
 1803a5c:	18800017 	ldw	r2,0(r3)
 1803a60:	1000031e 	bne	r2,zero,1803a70 <quorem+0x208>
 1803a64:	18ffff04 	addi	r3,r3,-4
 1803a68:	8c7fffc4 	addi	r17,r17,-1
 1803a6c:	98fffb36 	bltu	r19,r3,1803a5c <quorem+0x1f4>
 1803a70:	bc400415 	stw	r17,16(r23)
 1803a74:	003f9a06 	br	18038e0 <quorem+0x78>
 1803a78:	0005883a 	mov	r2,zero
 1803a7c:	003fc806 	br	18039a0 <quorem+0x138>

01803a80 <_dtoa_r>:
 1803a80:	22001017 	ldw	r8,64(r4)
 1803a84:	deffda04 	addi	sp,sp,-152
 1803a88:	dd402115 	stw	r21,132(sp)
 1803a8c:	dd002015 	stw	r20,128(sp)
 1803a90:	dc801e15 	stw	r18,120(sp)
 1803a94:	dc401d15 	stw	r17,116(sp)
 1803a98:	dfc02515 	stw	ra,148(sp)
 1803a9c:	df002415 	stw	fp,144(sp)
 1803aa0:	ddc02315 	stw	r23,140(sp)
 1803aa4:	dd802215 	stw	r22,136(sp)
 1803aa8:	dcc01f15 	stw	r19,124(sp)
 1803aac:	dc001c15 	stw	r16,112(sp)
 1803ab0:	d9001615 	stw	r4,88(sp)
 1803ab4:	3023883a 	mov	r17,r6
 1803ab8:	2829883a 	mov	r20,r5
 1803abc:	d9c01715 	stw	r7,92(sp)
 1803ac0:	dc802817 	ldw	r18,160(sp)
 1803ac4:	302b883a 	mov	r21,r6
 1803ac8:	40000a26 	beq	r8,zero,1803af4 <_dtoa_r+0x74>
 1803acc:	20801117 	ldw	r2,68(r4)
 1803ad0:	400b883a 	mov	r5,r8
 1803ad4:	40800115 	stw	r2,4(r8)
 1803ad8:	20c01117 	ldw	r3,68(r4)
 1803adc:	00800044 	movi	r2,1
 1803ae0:	10c4983a 	sll	r2,r2,r3
 1803ae4:	40800215 	stw	r2,8(r8)
 1803ae8:	1806c140 	call	1806c14 <_Bfree>
 1803aec:	d8c01617 	ldw	r3,88(sp)
 1803af0:	18001015 	stw	zero,64(r3)
 1803af4:	8800a316 	blt	r17,zero,1803d84 <_dtoa_r+0x304>
 1803af8:	90000015 	stw	zero,0(r18)
 1803afc:	a8dffc2c 	andhi	r3,r21,32752
 1803b00:	009ffc34 	movhi	r2,32752
 1803b04:	18809126 	beq	r3,r2,1803d4c <_dtoa_r+0x2cc>
 1803b08:	000d883a 	mov	r6,zero
 1803b0c:	000f883a 	mov	r7,zero
 1803b10:	a009883a 	mov	r4,r20
 1803b14:	a80b883a 	mov	r5,r21
 1803b18:	dd001215 	stw	r20,72(sp)
 1803b1c:	dd401315 	stw	r21,76(sp)
 1803b20:	1809c1c0 	call	1809c1c <__nedf2>
 1803b24:	1000171e 	bne	r2,zero,1803b84 <_dtoa_r+0x104>
 1803b28:	d9802717 	ldw	r6,156(sp)
 1803b2c:	00800044 	movi	r2,1
 1803b30:	30800015 	stw	r2,0(r6)
 1803b34:	d8802917 	ldw	r2,164(sp)
 1803b38:	10029b26 	beq	r2,zero,18045a8 <_dtoa_r+0xb28>
 1803b3c:	d9002917 	ldw	r4,164(sp)
 1803b40:	00806074 	movhi	r2,385
 1803b44:	10842444 	addi	r2,r2,4241
 1803b48:	10ffffc4 	addi	r3,r2,-1
 1803b4c:	20800015 	stw	r2,0(r4)
 1803b50:	1805883a 	mov	r2,r3
 1803b54:	dfc02517 	ldw	ra,148(sp)
 1803b58:	df002417 	ldw	fp,144(sp)
 1803b5c:	ddc02317 	ldw	r23,140(sp)
 1803b60:	dd802217 	ldw	r22,136(sp)
 1803b64:	dd402117 	ldw	r21,132(sp)
 1803b68:	dd002017 	ldw	r20,128(sp)
 1803b6c:	dcc01f17 	ldw	r19,124(sp)
 1803b70:	dc801e17 	ldw	r18,120(sp)
 1803b74:	dc401d17 	ldw	r17,116(sp)
 1803b78:	dc001c17 	ldw	r16,112(sp)
 1803b7c:	dec02604 	addi	sp,sp,152
 1803b80:	f800283a 	ret
 1803b84:	d9001617 	ldw	r4,88(sp)
 1803b88:	d9401217 	ldw	r5,72(sp)
 1803b8c:	d8800104 	addi	r2,sp,4
 1803b90:	a80d883a 	mov	r6,r21
 1803b94:	d9c00204 	addi	r7,sp,8
 1803b98:	d8800015 	stw	r2,0(sp)
 1803b9c:	18072500 	call	1807250 <__d2b>
 1803ba0:	d8800715 	stw	r2,28(sp)
 1803ba4:	a804d53a 	srli	r2,r21,20
 1803ba8:	1101ffcc 	andi	r4,r2,2047
 1803bac:	20008626 	beq	r4,zero,1803dc8 <_dtoa_r+0x348>
 1803bb0:	d8c01217 	ldw	r3,72(sp)
 1803bb4:	00800434 	movhi	r2,16
 1803bb8:	10bfffc4 	addi	r2,r2,-1
 1803bbc:	ddc00117 	ldw	r23,4(sp)
 1803bc0:	a884703a 	and	r2,r21,r2
 1803bc4:	1811883a 	mov	r8,r3
 1803bc8:	124ffc34 	orhi	r9,r2,16368
 1803bcc:	25bf0044 	addi	r22,r4,-1023
 1803bd0:	d8000815 	stw	zero,32(sp)
 1803bd4:	0005883a 	mov	r2,zero
 1803bd8:	00cffe34 	movhi	r3,16376
 1803bdc:	480b883a 	mov	r5,r9
 1803be0:	4009883a 	mov	r4,r8
 1803be4:	180f883a 	mov	r7,r3
 1803be8:	100d883a 	mov	r6,r2
 1803bec:	1800e940 	call	1800e94 <__subdf3>
 1803bf0:	0218dbf4 	movhi	r8,25455
 1803bf4:	4210d844 	addi	r8,r8,17249
 1803bf8:	024ff4f4 	movhi	r9,16339
 1803bfc:	4a61e9c4 	addi	r9,r9,-30809
 1803c00:	480f883a 	mov	r7,r9
 1803c04:	400d883a 	mov	r6,r8
 1803c08:	180b883a 	mov	r5,r3
 1803c0c:	1009883a 	mov	r4,r2
 1803c10:	18095780 	call	1809578 <__muldf3>
 1803c14:	0222d874 	movhi	r8,35681
 1803c18:	42322cc4 	addi	r8,r8,-14157
 1803c1c:	024ff1f4 	movhi	r9,16327
 1803c20:	4a628a04 	addi	r9,r9,-30168
 1803c24:	480f883a 	mov	r7,r9
 1803c28:	400d883a 	mov	r6,r8
 1803c2c:	180b883a 	mov	r5,r3
 1803c30:	1009883a 	mov	r4,r2
 1803c34:	1800f140 	call	1800f14 <__adddf3>
 1803c38:	b009883a 	mov	r4,r22
 1803c3c:	1021883a 	mov	r16,r2
 1803c40:	1823883a 	mov	r17,r3
 1803c44:	1809e3c0 	call	1809e3c <__floatsidf>
 1803c48:	021427f4 	movhi	r8,20639
 1803c4c:	421e7ec4 	addi	r8,r8,31227
 1803c50:	024ff4f4 	movhi	r9,16339
 1803c54:	4a5104c4 	addi	r9,r9,17427
 1803c58:	480f883a 	mov	r7,r9
 1803c5c:	400d883a 	mov	r6,r8
 1803c60:	180b883a 	mov	r5,r3
 1803c64:	1009883a 	mov	r4,r2
 1803c68:	18095780 	call	1809578 <__muldf3>
 1803c6c:	180f883a 	mov	r7,r3
 1803c70:	880b883a 	mov	r5,r17
 1803c74:	100d883a 	mov	r6,r2
 1803c78:	8009883a 	mov	r4,r16
 1803c7c:	1800f140 	call	1800f14 <__adddf3>
 1803c80:	1009883a 	mov	r4,r2
 1803c84:	180b883a 	mov	r5,r3
 1803c88:	1021883a 	mov	r16,r2
 1803c8c:	1823883a 	mov	r17,r3
 1803c90:	1800f880 	call	1800f88 <__fixdfsi>
 1803c94:	000d883a 	mov	r6,zero
 1803c98:	000f883a 	mov	r7,zero
 1803c9c:	8009883a 	mov	r4,r16
 1803ca0:	880b883a 	mov	r5,r17
 1803ca4:	d8800d15 	stw	r2,52(sp)
 1803ca8:	1809db40 	call	1809db4 <__ltdf2>
 1803cac:	10031716 	blt	r2,zero,180490c <_dtoa_r+0xe8c>
 1803cb0:	d8c00d17 	ldw	r3,52(sp)
 1803cb4:	00800584 	movi	r2,22
 1803cb8:	10c1482e 	bgeu	r2,r3,18041dc <_dtoa_r+0x75c>
 1803cbc:	01000044 	movi	r4,1
 1803cc0:	d9000c15 	stw	r4,48(sp)
 1803cc4:	bd85c83a 	sub	r2,r23,r22
 1803cc8:	11bfffc4 	addi	r6,r2,-1
 1803ccc:	30030b16 	blt	r6,zero,18048fc <_dtoa_r+0xe7c>
 1803cd0:	d9800a15 	stw	r6,40(sp)
 1803cd4:	d8001115 	stw	zero,68(sp)
 1803cd8:	d8c00d17 	ldw	r3,52(sp)
 1803cdc:	1802ff16 	blt	r3,zero,18048dc <_dtoa_r+0xe5c>
 1803ce0:	d9000a17 	ldw	r4,40(sp)
 1803ce4:	d8c00915 	stw	r3,36(sp)
 1803ce8:	d8001015 	stw	zero,64(sp)
 1803cec:	20c9883a 	add	r4,r4,r3
 1803cf0:	d9000a15 	stw	r4,40(sp)
 1803cf4:	d9001717 	ldw	r4,92(sp)
 1803cf8:	00800244 	movi	r2,9
 1803cfc:	11004636 	bltu	r2,r4,1803e18 <_dtoa_r+0x398>
 1803d00:	00800144 	movi	r2,5
 1803d04:	11020416 	blt	r2,r4,1804518 <_dtoa_r+0xa98>
 1803d08:	04400044 	movi	r17,1
 1803d0c:	d8c01717 	ldw	r3,92(sp)
 1803d10:	00800144 	movi	r2,5
 1803d14:	10c1ed36 	bltu	r2,r3,18044cc <_dtoa_r+0xa4c>
 1803d18:	18c5883a 	add	r2,r3,r3
 1803d1c:	1085883a 	add	r2,r2,r2
 1803d20:	00c06034 	movhi	r3,384
 1803d24:	18cf4d04 	addi	r3,r3,15668
 1803d28:	10c5883a 	add	r2,r2,r3
 1803d2c:	11000017 	ldw	r4,0(r2)
 1803d30:	2000683a 	jmp	r4
 1803d34:	01803e20 	cmpeqi	r6,zero,248
 1803d38:	01803e20 	cmpeqi	r6,zero,248
 1803d3c:	01804820 	cmpeqi	r6,zero,288
 1803d40:	018047f8 	rdprs	r6,zero,287
 1803d44:	0180483c 	xorhi	r6,zero,288
 1803d48:	01804848 	cmpgei	r6,zero,289
 1803d4c:	d9002717 	ldw	r4,156(sp)
 1803d50:	0089c3c4 	movi	r2,9999
 1803d54:	20800015 	stw	r2,0(r4)
 1803d58:	a0001026 	beq	r20,zero,1803d9c <_dtoa_r+0x31c>
 1803d5c:	00c06074 	movhi	r3,385
 1803d60:	18c43004 	addi	r3,r3,4288
 1803d64:	d9802917 	ldw	r6,164(sp)
 1803d68:	303f7926 	beq	r6,zero,1803b50 <_dtoa_r+0xd0>
 1803d6c:	188000c7 	ldb	r2,3(r3)
 1803d70:	190000c4 	addi	r4,r3,3
 1803d74:	1000101e 	bne	r2,zero,1803db8 <_dtoa_r+0x338>
 1803d78:	d8802917 	ldw	r2,164(sp)
 1803d7c:	11000015 	stw	r4,0(r2)
 1803d80:	003f7306 	br	1803b50 <_dtoa_r+0xd0>
 1803d84:	00a00034 	movhi	r2,32768
 1803d88:	10bfffc4 	addi	r2,r2,-1
 1803d8c:	00c00044 	movi	r3,1
 1803d90:	88aa703a 	and	r21,r17,r2
 1803d94:	90c00015 	stw	r3,0(r18)
 1803d98:	003f5806 	br	1803afc <_dtoa_r+0x7c>
 1803d9c:	00800434 	movhi	r2,16
 1803da0:	10bfffc4 	addi	r2,r2,-1
 1803da4:	a884703a 	and	r2,r21,r2
 1803da8:	103fec1e 	bne	r2,zero,1803d5c <_dtoa_r+0x2dc>
 1803dac:	00c06074 	movhi	r3,385
 1803db0:	18c42d04 	addi	r3,r3,4276
 1803db4:	003feb06 	br	1803d64 <_dtoa_r+0x2e4>
 1803db8:	d8802917 	ldw	r2,164(sp)
 1803dbc:	19000204 	addi	r4,r3,8
 1803dc0:	11000015 	stw	r4,0(r2)
 1803dc4:	003f6206 	br	1803b50 <_dtoa_r+0xd0>
 1803dc8:	ddc00117 	ldw	r23,4(sp)
 1803dcc:	d8800217 	ldw	r2,8(sp)
 1803dd0:	01000804 	movi	r4,32
 1803dd4:	b8c10c84 	addi	r3,r23,1074
 1803dd8:	18a3883a 	add	r17,r3,r2
 1803ddc:	2441b80e 	bge	r4,r17,18044c0 <_dtoa_r+0xa40>
 1803de0:	00c01004 	movi	r3,64
 1803de4:	1c47c83a 	sub	r3,r3,r17
 1803de8:	88bff804 	addi	r2,r17,-32
 1803dec:	a8c6983a 	sll	r3,r21,r3
 1803df0:	a084d83a 	srl	r2,r20,r2
 1803df4:	1888b03a 	or	r4,r3,r2
 1803df8:	1809f340 	call	1809f34 <__floatunsidf>
 1803dfc:	1011883a 	mov	r8,r2
 1803e00:	00bf8434 	movhi	r2,65040
 1803e04:	01000044 	movi	r4,1
 1803e08:	10d3883a 	add	r9,r2,r3
 1803e0c:	8dbef344 	addi	r22,r17,-1075
 1803e10:	d9000815 	stw	r4,32(sp)
 1803e14:	003f6f06 	br	1803bd4 <_dtoa_r+0x154>
 1803e18:	d8001715 	stw	zero,92(sp)
 1803e1c:	04400044 	movi	r17,1
 1803e20:	00bfffc4 	movi	r2,-1
 1803e24:	00c00044 	movi	r3,1
 1803e28:	d8800e15 	stw	r2,56(sp)
 1803e2c:	d8002615 	stw	zero,152(sp)
 1803e30:	d8800f15 	stw	r2,60(sp)
 1803e34:	d8c00b15 	stw	r3,44(sp)
 1803e38:	1021883a 	mov	r16,r2
 1803e3c:	d8801617 	ldw	r2,88(sp)
 1803e40:	10001115 	stw	zero,68(r2)
 1803e44:	d8801617 	ldw	r2,88(sp)
 1803e48:	11401117 	ldw	r5,68(r2)
 1803e4c:	1009883a 	mov	r4,r2
 1803e50:	18071940 	call	1807194 <_Balloc>
 1803e54:	d8c01617 	ldw	r3,88(sp)
 1803e58:	d8800515 	stw	r2,20(sp)
 1803e5c:	18801015 	stw	r2,64(r3)
 1803e60:	00800384 	movi	r2,14
 1803e64:	14006836 	bltu	r2,r16,1804008 <_dtoa_r+0x588>
 1803e68:	8805003a 	cmpeq	r2,r17,zero
 1803e6c:	1000661e 	bne	r2,zero,1804008 <_dtoa_r+0x588>
 1803e70:	d9000d17 	ldw	r4,52(sp)
 1803e74:	0102300e 	bge	zero,r4,1804738 <_dtoa_r+0xcb8>
 1803e78:	208003cc 	andi	r2,r4,15
 1803e7c:	100490fa 	slli	r2,r2,3
 1803e80:	2025d13a 	srai	r18,r4,4
 1803e84:	00c06074 	movhi	r3,385
 1803e88:	18c44204 	addi	r3,r3,4360
 1803e8c:	10c5883a 	add	r2,r2,r3
 1803e90:	90c0040c 	andi	r3,r18,16
 1803e94:	14000017 	ldw	r16,0(r2)
 1803e98:	14400117 	ldw	r17,4(r2)
 1803e9c:	18036a1e 	bne	r3,zero,1804c48 <_dtoa_r+0x11c8>
 1803ea0:	05800084 	movi	r22,2
 1803ea4:	90001026 	beq	r18,zero,1803ee8 <_dtoa_r+0x468>
 1803ea8:	04c06074 	movhi	r19,385
 1803eac:	9cc47404 	addi	r19,r19,4560
 1803eb0:	9080004c 	andi	r2,r18,1
 1803eb4:	1005003a 	cmpeq	r2,r2,zero
 1803eb8:	1000081e 	bne	r2,zero,1803edc <_dtoa_r+0x45c>
 1803ebc:	99800017 	ldw	r6,0(r19)
 1803ec0:	99c00117 	ldw	r7,4(r19)
 1803ec4:	880b883a 	mov	r5,r17
 1803ec8:	8009883a 	mov	r4,r16
 1803ecc:	18095780 	call	1809578 <__muldf3>
 1803ed0:	1021883a 	mov	r16,r2
 1803ed4:	b5800044 	addi	r22,r22,1
 1803ed8:	1823883a 	mov	r17,r3
 1803edc:	9025d07a 	srai	r18,r18,1
 1803ee0:	9cc00204 	addi	r19,r19,8
 1803ee4:	903ff21e 	bne	r18,zero,1803eb0 <_dtoa_r+0x430>
 1803ee8:	a80b883a 	mov	r5,r21
 1803eec:	a009883a 	mov	r4,r20
 1803ef0:	880f883a 	mov	r7,r17
 1803ef4:	800d883a 	mov	r6,r16
 1803ef8:	180993c0 	call	180993c <__divdf3>
 1803efc:	1029883a 	mov	r20,r2
 1803f00:	182b883a 	mov	r21,r3
 1803f04:	d8c00c17 	ldw	r3,48(sp)
 1803f08:	1805003a 	cmpeq	r2,r3,zero
 1803f0c:	1000081e 	bne	r2,zero,1803f30 <_dtoa_r+0x4b0>
 1803f10:	0005883a 	mov	r2,zero
 1803f14:	00cffc34 	movhi	r3,16368
 1803f18:	180f883a 	mov	r7,r3
 1803f1c:	a009883a 	mov	r4,r20
 1803f20:	a80b883a 	mov	r5,r21
 1803f24:	100d883a 	mov	r6,r2
 1803f28:	1809db40 	call	1809db4 <__ltdf2>
 1803f2c:	1003fe16 	blt	r2,zero,1804f28 <_dtoa_r+0x14a8>
 1803f30:	b009883a 	mov	r4,r22
 1803f34:	1809e3c0 	call	1809e3c <__floatsidf>
 1803f38:	180b883a 	mov	r5,r3
 1803f3c:	1009883a 	mov	r4,r2
 1803f40:	a00d883a 	mov	r6,r20
 1803f44:	a80f883a 	mov	r7,r21
 1803f48:	18095780 	call	1809578 <__muldf3>
 1803f4c:	0011883a 	mov	r8,zero
 1803f50:	02500734 	movhi	r9,16412
 1803f54:	1009883a 	mov	r4,r2
 1803f58:	180b883a 	mov	r5,r3
 1803f5c:	480f883a 	mov	r7,r9
 1803f60:	400d883a 	mov	r6,r8
 1803f64:	1800f140 	call	1800f14 <__adddf3>
 1803f68:	d9000f17 	ldw	r4,60(sp)
 1803f6c:	102d883a 	mov	r22,r2
 1803f70:	00bf3034 	movhi	r2,64704
 1803f74:	18b9883a 	add	fp,r3,r2
 1803f78:	e02f883a 	mov	r23,fp
 1803f7c:	20028f1e 	bne	r4,zero,18049bc <_dtoa_r+0xf3c>
 1803f80:	0005883a 	mov	r2,zero
 1803f84:	00d00534 	movhi	r3,16404
 1803f88:	a009883a 	mov	r4,r20
 1803f8c:	a80b883a 	mov	r5,r21
 1803f90:	180f883a 	mov	r7,r3
 1803f94:	100d883a 	mov	r6,r2
 1803f98:	1800e940 	call	1800e94 <__subdf3>
 1803f9c:	1009883a 	mov	r4,r2
 1803fa0:	e00f883a 	mov	r7,fp
 1803fa4:	180b883a 	mov	r5,r3
 1803fa8:	b00d883a 	mov	r6,r22
 1803fac:	1025883a 	mov	r18,r2
 1803fb0:	1827883a 	mov	r19,r3
 1803fb4:	1809ca40 	call	1809ca4 <__gtdf2>
 1803fb8:	00834f16 	blt	zero,r2,1804cf8 <_dtoa_r+0x1278>
 1803fbc:	e0e0003c 	xorhi	r3,fp,32768
 1803fc0:	9009883a 	mov	r4,r18
 1803fc4:	980b883a 	mov	r5,r19
 1803fc8:	180f883a 	mov	r7,r3
 1803fcc:	b00d883a 	mov	r6,r22
 1803fd0:	1809db40 	call	1809db4 <__ltdf2>
 1803fd4:	1000080e 	bge	r2,zero,1803ff8 <_dtoa_r+0x578>
 1803fd8:	0027883a 	mov	r19,zero
 1803fdc:	0025883a 	mov	r18,zero
 1803fe0:	d8802617 	ldw	r2,152(sp)
 1803fe4:	df000517 	ldw	fp,20(sp)
 1803fe8:	d8000615 	stw	zero,24(sp)
 1803fec:	0084303a 	nor	r2,zero,r2
 1803ff0:	d8800d15 	stw	r2,52(sp)
 1803ff4:	00019b06 	br	1804664 <_dtoa_r+0xbe4>
 1803ff8:	d9801217 	ldw	r6,72(sp)
 1803ffc:	d8801317 	ldw	r2,76(sp)
 1804000:	3029883a 	mov	r20,r6
 1804004:	102b883a 	mov	r21,r2
 1804008:	d8c00217 	ldw	r3,8(sp)
 180400c:	18008516 	blt	r3,zero,1804224 <_dtoa_r+0x7a4>
 1804010:	d9000d17 	ldw	r4,52(sp)
 1804014:	00800384 	movi	r2,14
 1804018:	11008216 	blt	r2,r4,1804224 <_dtoa_r+0x7a4>
 180401c:	200490fa 	slli	r2,r4,3
 1804020:	d9802617 	ldw	r6,152(sp)
 1804024:	00c06074 	movhi	r3,385
 1804028:	18c44204 	addi	r3,r3,4360
 180402c:	10c5883a 	add	r2,r2,r3
 1804030:	14800017 	ldw	r18,0(r2)
 1804034:	14c00117 	ldw	r19,4(r2)
 1804038:	30031e16 	blt	r6,zero,1804cb4 <_dtoa_r+0x1234>
 180403c:	d9000517 	ldw	r4,20(sp)
 1804040:	d8c00f17 	ldw	r3,60(sp)
 1804044:	a823883a 	mov	r17,r21
 1804048:	a021883a 	mov	r16,r20
 180404c:	192b883a 	add	r21,r3,r4
 1804050:	2039883a 	mov	fp,r4
 1804054:	00000f06 	br	1804094 <_dtoa_r+0x614>
 1804058:	0005883a 	mov	r2,zero
 180405c:	00d00934 	movhi	r3,16420
 1804060:	5009883a 	mov	r4,r10
 1804064:	580b883a 	mov	r5,r11
 1804068:	180f883a 	mov	r7,r3
 180406c:	100d883a 	mov	r6,r2
 1804070:	18095780 	call	1809578 <__muldf3>
 1804074:	180b883a 	mov	r5,r3
 1804078:	000d883a 	mov	r6,zero
 180407c:	000f883a 	mov	r7,zero
 1804080:	1009883a 	mov	r4,r2
 1804084:	1021883a 	mov	r16,r2
 1804088:	1823883a 	mov	r17,r3
 180408c:	1809c1c0 	call	1809c1c <__nedf2>
 1804090:	10004526 	beq	r2,zero,18041a8 <_dtoa_r+0x728>
 1804094:	900d883a 	mov	r6,r18
 1804098:	980f883a 	mov	r7,r19
 180409c:	8009883a 	mov	r4,r16
 18040a0:	880b883a 	mov	r5,r17
 18040a4:	180993c0 	call	180993c <__divdf3>
 18040a8:	180b883a 	mov	r5,r3
 18040ac:	1009883a 	mov	r4,r2
 18040b0:	1800f880 	call	1800f88 <__fixdfsi>
 18040b4:	1009883a 	mov	r4,r2
 18040b8:	1029883a 	mov	r20,r2
 18040bc:	1809e3c0 	call	1809e3c <__floatsidf>
 18040c0:	180f883a 	mov	r7,r3
 18040c4:	9009883a 	mov	r4,r18
 18040c8:	980b883a 	mov	r5,r19
 18040cc:	100d883a 	mov	r6,r2
 18040d0:	18095780 	call	1809578 <__muldf3>
 18040d4:	180f883a 	mov	r7,r3
 18040d8:	880b883a 	mov	r5,r17
 18040dc:	8009883a 	mov	r4,r16
 18040e0:	100d883a 	mov	r6,r2
 18040e4:	1800e940 	call	1800e94 <__subdf3>
 18040e8:	1015883a 	mov	r10,r2
 18040ec:	a0800c04 	addi	r2,r20,48
 18040f0:	e0800005 	stb	r2,0(fp)
 18040f4:	e7000044 	addi	fp,fp,1
 18040f8:	1817883a 	mov	r11,r3
 18040fc:	e57fd61e 	bne	fp,r21,1804058 <_dtoa_r+0x5d8>
 1804100:	500d883a 	mov	r6,r10
 1804104:	180f883a 	mov	r7,r3
 1804108:	5009883a 	mov	r4,r10
 180410c:	180b883a 	mov	r5,r3
 1804110:	1800f140 	call	1800f14 <__adddf3>
 1804114:	100d883a 	mov	r6,r2
 1804118:	9009883a 	mov	r4,r18
 180411c:	980b883a 	mov	r5,r19
 1804120:	180f883a 	mov	r7,r3
 1804124:	1021883a 	mov	r16,r2
 1804128:	1823883a 	mov	r17,r3
 180412c:	1809db40 	call	1809db4 <__ltdf2>
 1804130:	10000816 	blt	r2,zero,1804154 <_dtoa_r+0x6d4>
 1804134:	980b883a 	mov	r5,r19
 1804138:	800d883a 	mov	r6,r16
 180413c:	880f883a 	mov	r7,r17
 1804140:	9009883a 	mov	r4,r18
 1804144:	1809b940 	call	1809b94 <__eqdf2>
 1804148:	1000171e 	bne	r2,zero,18041a8 <_dtoa_r+0x728>
 180414c:	a080004c 	andi	r2,r20,1
 1804150:	10001526 	beq	r2,zero,18041a8 <_dtoa_r+0x728>
 1804154:	d8800d17 	ldw	r2,52(sp)
 1804158:	d8800415 	stw	r2,16(sp)
 180415c:	e009883a 	mov	r4,fp
 1804160:	213fffc4 	addi	r4,r4,-1
 1804164:	20c00007 	ldb	r3,0(r4)
 1804168:	00800e44 	movi	r2,57
 180416c:	1880081e 	bne	r3,r2,1804190 <_dtoa_r+0x710>
 1804170:	d8800517 	ldw	r2,20(sp)
 1804174:	113ffa1e 	bne	r2,r4,1804160 <_dtoa_r+0x6e0>
 1804178:	d8c00417 	ldw	r3,16(sp)
 180417c:	d9800517 	ldw	r6,20(sp)
 1804180:	00800c04 	movi	r2,48
 1804184:	18c00044 	addi	r3,r3,1
 1804188:	d8c00415 	stw	r3,16(sp)
 180418c:	30800005 	stb	r2,0(r6)
 1804190:	20800003 	ldbu	r2,0(r4)
 1804194:	d8c00417 	ldw	r3,16(sp)
 1804198:	27000044 	addi	fp,r4,1
 180419c:	10800044 	addi	r2,r2,1
 18041a0:	d8c00d15 	stw	r3,52(sp)
 18041a4:	20800005 	stb	r2,0(r4)
 18041a8:	d9001617 	ldw	r4,88(sp)
 18041ac:	d9400717 	ldw	r5,28(sp)
 18041b0:	1806c140 	call	1806c14 <_Bfree>
 18041b4:	e0000005 	stb	zero,0(fp)
 18041b8:	d9800d17 	ldw	r6,52(sp)
 18041bc:	d8c02717 	ldw	r3,156(sp)
 18041c0:	d9002917 	ldw	r4,164(sp)
 18041c4:	30800044 	addi	r2,r6,1
 18041c8:	18800015 	stw	r2,0(r3)
 18041cc:	20029c26 	beq	r4,zero,1804c40 <_dtoa_r+0x11c0>
 18041d0:	d8c00517 	ldw	r3,20(sp)
 18041d4:	27000015 	stw	fp,0(r4)
 18041d8:	003e5d06 	br	1803b50 <_dtoa_r+0xd0>
 18041dc:	d9800d17 	ldw	r6,52(sp)
 18041e0:	00c06074 	movhi	r3,385
 18041e4:	18c44204 	addi	r3,r3,4360
 18041e8:	d9001217 	ldw	r4,72(sp)
 18041ec:	300490fa 	slli	r2,r6,3
 18041f0:	d9401317 	ldw	r5,76(sp)
 18041f4:	10c5883a 	add	r2,r2,r3
 18041f8:	12000017 	ldw	r8,0(r2)
 18041fc:	12400117 	ldw	r9,4(r2)
 1804200:	400d883a 	mov	r6,r8
 1804204:	480f883a 	mov	r7,r9
 1804208:	1809db40 	call	1809db4 <__ltdf2>
 180420c:	1000030e 	bge	r2,zero,180421c <_dtoa_r+0x79c>
 1804210:	d8800d17 	ldw	r2,52(sp)
 1804214:	10bfffc4 	addi	r2,r2,-1
 1804218:	d8800d15 	stw	r2,52(sp)
 180421c:	d8000c15 	stw	zero,48(sp)
 1804220:	003ea806 	br	1803cc4 <_dtoa_r+0x244>
 1804224:	d9000b17 	ldw	r4,44(sp)
 1804228:	202cc03a 	cmpne	r22,r4,zero
 180422c:	b000c71e 	bne	r22,zero,180454c <_dtoa_r+0xacc>
 1804230:	dc001117 	ldw	r16,68(sp)
 1804234:	dc801017 	ldw	r18,64(sp)
 1804238:	0027883a 	mov	r19,zero
 180423c:	04000b0e 	bge	zero,r16,180426c <_dtoa_r+0x7ec>
 1804240:	d8c00a17 	ldw	r3,40(sp)
 1804244:	00c0090e 	bge	zero,r3,180426c <_dtoa_r+0x7ec>
 1804248:	8005883a 	mov	r2,r16
 180424c:	1c011316 	blt	r3,r16,180469c <_dtoa_r+0xc1c>
 1804250:	d9000a17 	ldw	r4,40(sp)
 1804254:	d9801117 	ldw	r6,68(sp)
 1804258:	80a1c83a 	sub	r16,r16,r2
 180425c:	2089c83a 	sub	r4,r4,r2
 1804260:	308dc83a 	sub	r6,r6,r2
 1804264:	d9000a15 	stw	r4,40(sp)
 1804268:	d9801115 	stw	r6,68(sp)
 180426c:	d8801017 	ldw	r2,64(sp)
 1804270:	0080150e 	bge	zero,r2,18042c8 <_dtoa_r+0x848>
 1804274:	d8c00b17 	ldw	r3,44(sp)
 1804278:	1805003a 	cmpeq	r2,r3,zero
 180427c:	1001c91e 	bne	r2,zero,18049a4 <_dtoa_r+0xf24>
 1804280:	04800e0e 	bge	zero,r18,18042bc <_dtoa_r+0x83c>
 1804284:	d9001617 	ldw	r4,88(sp)
 1804288:	980b883a 	mov	r5,r19
 180428c:	900d883a 	mov	r6,r18
 1804290:	18079c80 	call	18079c8 <__pow5mult>
 1804294:	d9001617 	ldw	r4,88(sp)
 1804298:	d9800717 	ldw	r6,28(sp)
 180429c:	100b883a 	mov	r5,r2
 18042a0:	1027883a 	mov	r19,r2
 18042a4:	18076a40 	call	18076a4 <__multiply>
 18042a8:	d9001617 	ldw	r4,88(sp)
 18042ac:	d9400717 	ldw	r5,28(sp)
 18042b0:	1023883a 	mov	r17,r2
 18042b4:	1806c140 	call	1806c14 <_Bfree>
 18042b8:	dc400715 	stw	r17,28(sp)
 18042bc:	d9001017 	ldw	r4,64(sp)
 18042c0:	248dc83a 	sub	r6,r4,r18
 18042c4:	30010e1e 	bne	r6,zero,1804700 <_dtoa_r+0xc80>
 18042c8:	d9001617 	ldw	r4,88(sp)
 18042cc:	04400044 	movi	r17,1
 18042d0:	880b883a 	mov	r5,r17
 18042d4:	180788c0 	call	180788c <__i2b>
 18042d8:	d9800917 	ldw	r6,36(sp)
 18042dc:	1025883a 	mov	r18,r2
 18042e0:	0180040e 	bge	zero,r6,18042f4 <_dtoa_r+0x874>
 18042e4:	d9001617 	ldw	r4,88(sp)
 18042e8:	100b883a 	mov	r5,r2
 18042ec:	18079c80 	call	18079c8 <__pow5mult>
 18042f0:	1025883a 	mov	r18,r2
 18042f4:	d8801717 	ldw	r2,92(sp)
 18042f8:	8880f30e 	bge	r17,r2,18046c8 <_dtoa_r+0xc48>
 18042fc:	0023883a 	mov	r17,zero
 1804300:	d9800917 	ldw	r6,36(sp)
 1804304:	30019e1e 	bne	r6,zero,1804980 <_dtoa_r+0xf00>
 1804308:	00c00044 	movi	r3,1
 180430c:	d9000a17 	ldw	r4,40(sp)
 1804310:	20c5883a 	add	r2,r4,r3
 1804314:	10c007cc 	andi	r3,r2,31
 1804318:	1800841e 	bne	r3,zero,180452c <_dtoa_r+0xaac>
 180431c:	00800704 	movi	r2,28
 1804320:	d9000a17 	ldw	r4,40(sp)
 1804324:	d9801117 	ldw	r6,68(sp)
 1804328:	80a1883a 	add	r16,r16,r2
 180432c:	2089883a 	add	r4,r4,r2
 1804330:	308d883a 	add	r6,r6,r2
 1804334:	d9000a15 	stw	r4,40(sp)
 1804338:	d9801115 	stw	r6,68(sp)
 180433c:	d8801117 	ldw	r2,68(sp)
 1804340:	0080050e 	bge	zero,r2,1804358 <_dtoa_r+0x8d8>
 1804344:	d9400717 	ldw	r5,28(sp)
 1804348:	d9001617 	ldw	r4,88(sp)
 180434c:	100d883a 	mov	r6,r2
 1804350:	18075580 	call	1807558 <__lshift>
 1804354:	d8800715 	stw	r2,28(sp)
 1804358:	d8c00a17 	ldw	r3,40(sp)
 180435c:	00c0050e 	bge	zero,r3,1804374 <_dtoa_r+0x8f4>
 1804360:	d9001617 	ldw	r4,88(sp)
 1804364:	900b883a 	mov	r5,r18
 1804368:	180d883a 	mov	r6,r3
 180436c:	18075580 	call	1807558 <__lshift>
 1804370:	1025883a 	mov	r18,r2
 1804374:	d9000c17 	ldw	r4,48(sp)
 1804378:	2005003a 	cmpeq	r2,r4,zero
 180437c:	10016f26 	beq	r2,zero,180493c <_dtoa_r+0xebc>
 1804380:	d9000f17 	ldw	r4,60(sp)
 1804384:	0102170e 	bge	zero,r4,1804be4 <_dtoa_r+0x1164>
 1804388:	d9800b17 	ldw	r6,44(sp)
 180438c:	3005003a 	cmpeq	r2,r6,zero
 1804390:	1000881e 	bne	r2,zero,18045b4 <_dtoa_r+0xb34>
 1804394:	0400050e 	bge	zero,r16,18043ac <_dtoa_r+0x92c>
 1804398:	d9001617 	ldw	r4,88(sp)
 180439c:	980b883a 	mov	r5,r19
 18043a0:	800d883a 	mov	r6,r16
 18043a4:	18075580 	call	1807558 <__lshift>
 18043a8:	1027883a 	mov	r19,r2
 18043ac:	8804c03a 	cmpne	r2,r17,zero
 18043b0:	1002541e 	bne	r2,zero,1804d04 <_dtoa_r+0x1284>
 18043b4:	980b883a 	mov	r5,r19
 18043b8:	dd800517 	ldw	r22,20(sp)
 18043bc:	dcc00615 	stw	r19,24(sp)
 18043c0:	a700004c 	andi	fp,r20,1
 18043c4:	2827883a 	mov	r19,r5
 18043c8:	d9000717 	ldw	r4,28(sp)
 18043cc:	900b883a 	mov	r5,r18
 18043d0:	18038680 	call	1803868 <quorem>
 18043d4:	d9000717 	ldw	r4,28(sp)
 18043d8:	d9400617 	ldw	r5,24(sp)
 18043dc:	1023883a 	mov	r17,r2
 18043e0:	8dc00c04 	addi	r23,r17,48
 18043e4:	1806d700 	call	1806d70 <__mcmp>
 18043e8:	d9001617 	ldw	r4,88(sp)
 18043ec:	900b883a 	mov	r5,r18
 18043f0:	980d883a 	mov	r6,r19
 18043f4:	1029883a 	mov	r20,r2
 18043f8:	18073cc0 	call	18073cc <__mdiff>
 18043fc:	102b883a 	mov	r21,r2
 1804400:	10800317 	ldw	r2,12(r2)
 1804404:	1001281e 	bne	r2,zero,18048a8 <_dtoa_r+0xe28>
 1804408:	d9000717 	ldw	r4,28(sp)
 180440c:	a80b883a 	mov	r5,r21
 1804410:	1806d700 	call	1806d70 <__mcmp>
 1804414:	d9001617 	ldw	r4,88(sp)
 1804418:	1021883a 	mov	r16,r2
 180441c:	a80b883a 	mov	r5,r21
 1804420:	1806c140 	call	1806c14 <_Bfree>
 1804424:	8000041e 	bne	r16,zero,1804438 <_dtoa_r+0x9b8>
 1804428:	d8801717 	ldw	r2,92(sp)
 180442c:	1000021e 	bne	r2,zero,1804438 <_dtoa_r+0x9b8>
 1804430:	e004c03a 	cmpne	r2,fp,zero
 1804434:	10011726 	beq	r2,zero,1804894 <_dtoa_r+0xe14>
 1804438:	a0010616 	blt	r20,zero,1804854 <_dtoa_r+0xdd4>
 180443c:	a000041e 	bne	r20,zero,1804450 <_dtoa_r+0x9d0>
 1804440:	d8c01717 	ldw	r3,92(sp)
 1804444:	1800021e 	bne	r3,zero,1804450 <_dtoa_r+0x9d0>
 1804448:	e004c03a 	cmpne	r2,fp,zero
 180444c:	10010126 	beq	r2,zero,1804854 <_dtoa_r+0xdd4>
 1804450:	04023d16 	blt	zero,r16,1804d48 <_dtoa_r+0x12c8>
 1804454:	b5c00005 	stb	r23,0(r22)
 1804458:	d9800517 	ldw	r6,20(sp)
 180445c:	d9000f17 	ldw	r4,60(sp)
 1804460:	b5800044 	addi	r22,r22,1
 1804464:	3105883a 	add	r2,r6,r4
 1804468:	b0806526 	beq	r22,r2,1804600 <_dtoa_r+0xb80>
 180446c:	d9400717 	ldw	r5,28(sp)
 1804470:	d9001617 	ldw	r4,88(sp)
 1804474:	01800284 	movi	r6,10
 1804478:	000f883a 	mov	r7,zero
 180447c:	18078c80 	call	18078c8 <__multadd>
 1804480:	d8800715 	stw	r2,28(sp)
 1804484:	d8800617 	ldw	r2,24(sp)
 1804488:	14c10c26 	beq	r2,r19,18048bc <_dtoa_r+0xe3c>
 180448c:	d9400617 	ldw	r5,24(sp)
 1804490:	d9001617 	ldw	r4,88(sp)
 1804494:	01800284 	movi	r6,10
 1804498:	000f883a 	mov	r7,zero
 180449c:	18078c80 	call	18078c8 <__multadd>
 18044a0:	d9001617 	ldw	r4,88(sp)
 18044a4:	980b883a 	mov	r5,r19
 18044a8:	01800284 	movi	r6,10
 18044ac:	000f883a 	mov	r7,zero
 18044b0:	d8800615 	stw	r2,24(sp)
 18044b4:	18078c80 	call	18078c8 <__multadd>
 18044b8:	1027883a 	mov	r19,r2
 18044bc:	003fc206 	br	18043c8 <_dtoa_r+0x948>
 18044c0:	2445c83a 	sub	r2,r4,r17
 18044c4:	a088983a 	sll	r4,r20,r2
 18044c8:	003e4b06 	br	1803df8 <_dtoa_r+0x378>
 18044cc:	01bfffc4 	movi	r6,-1
 18044d0:	00800044 	movi	r2,1
 18044d4:	d9800e15 	stw	r6,56(sp)
 18044d8:	d9800f15 	stw	r6,60(sp)
 18044dc:	d8800b15 	stw	r2,44(sp)
 18044e0:	d8c01617 	ldw	r3,88(sp)
 18044e4:	008005c4 	movi	r2,23
 18044e8:	18001115 	stw	zero,68(r3)
 18044ec:	1580082e 	bgeu	r2,r22,1804510 <_dtoa_r+0xa90>
 18044f0:	00c00104 	movi	r3,4
 18044f4:	0009883a 	mov	r4,zero
 18044f8:	18c7883a 	add	r3,r3,r3
 18044fc:	18800504 	addi	r2,r3,20
 1804500:	21000044 	addi	r4,r4,1
 1804504:	b0bffc2e 	bgeu	r22,r2,18044f8 <_dtoa_r+0xa78>
 1804508:	d9801617 	ldw	r6,88(sp)
 180450c:	31001115 	stw	r4,68(r6)
 1804510:	dc000f17 	ldw	r16,60(sp)
 1804514:	003e4b06 	br	1803e44 <_dtoa_r+0x3c4>
 1804518:	d9801717 	ldw	r6,92(sp)
 180451c:	0023883a 	mov	r17,zero
 1804520:	31bfff04 	addi	r6,r6,-4
 1804524:	d9801715 	stw	r6,92(sp)
 1804528:	003df806 	br	1803d0c <_dtoa_r+0x28c>
 180452c:	00800804 	movi	r2,32
 1804530:	10c9c83a 	sub	r4,r2,r3
 1804534:	00c00104 	movi	r3,4
 1804538:	19005a16 	blt	r3,r4,18046a4 <_dtoa_r+0xc24>
 180453c:	008000c4 	movi	r2,3
 1804540:	113f7e16 	blt	r2,r4,180433c <_dtoa_r+0x8bc>
 1804544:	20800704 	addi	r2,r4,28
 1804548:	003f7506 	br	1804320 <_dtoa_r+0x8a0>
 180454c:	d9801717 	ldw	r6,92(sp)
 1804550:	00800044 	movi	r2,1
 1804554:	1180a10e 	bge	r2,r6,18047dc <_dtoa_r+0xd5c>
 1804558:	d9800f17 	ldw	r6,60(sp)
 180455c:	d8c01017 	ldw	r3,64(sp)
 1804560:	30bfffc4 	addi	r2,r6,-1
 1804564:	1881c616 	blt	r3,r2,1804c80 <_dtoa_r+0x1200>
 1804568:	18a5c83a 	sub	r18,r3,r2
 180456c:	d8800f17 	ldw	r2,60(sp)
 1804570:	10026216 	blt	r2,zero,1804efc <_dtoa_r+0x147c>
 1804574:	dc001117 	ldw	r16,68(sp)
 1804578:	1007883a 	mov	r3,r2
 180457c:	d9800a17 	ldw	r6,40(sp)
 1804580:	d8801117 	ldw	r2,68(sp)
 1804584:	d9001617 	ldw	r4,88(sp)
 1804588:	30cd883a 	add	r6,r6,r3
 180458c:	10c5883a 	add	r2,r2,r3
 1804590:	01400044 	movi	r5,1
 1804594:	d9800a15 	stw	r6,40(sp)
 1804598:	d8801115 	stw	r2,68(sp)
 180459c:	180788c0 	call	180788c <__i2b>
 18045a0:	1027883a 	mov	r19,r2
 18045a4:	003f2506 	br	180423c <_dtoa_r+0x7bc>
 18045a8:	00c06074 	movhi	r3,385
 18045ac:	18c42404 	addi	r3,r3,4240
 18045b0:	003d6706 	br	1803b50 <_dtoa_r+0xd0>
 18045b4:	dd800517 	ldw	r22,20(sp)
 18045b8:	04000044 	movi	r16,1
 18045bc:	00000706 	br	18045dc <_dtoa_r+0xb5c>
 18045c0:	d9400717 	ldw	r5,28(sp)
 18045c4:	d9001617 	ldw	r4,88(sp)
 18045c8:	01800284 	movi	r6,10
 18045cc:	000f883a 	mov	r7,zero
 18045d0:	18078c80 	call	18078c8 <__multadd>
 18045d4:	d8800715 	stw	r2,28(sp)
 18045d8:	84000044 	addi	r16,r16,1
 18045dc:	d9000717 	ldw	r4,28(sp)
 18045e0:	900b883a 	mov	r5,r18
 18045e4:	18038680 	call	1803868 <quorem>
 18045e8:	15c00c04 	addi	r23,r2,48
 18045ec:	b5c00005 	stb	r23,0(r22)
 18045f0:	d8c00f17 	ldw	r3,60(sp)
 18045f4:	b5800044 	addi	r22,r22,1
 18045f8:	80fff116 	blt	r16,r3,18045c0 <_dtoa_r+0xb40>
 18045fc:	d8000615 	stw	zero,24(sp)
 1804600:	d9400717 	ldw	r5,28(sp)
 1804604:	d9001617 	ldw	r4,88(sp)
 1804608:	01800044 	movi	r6,1
 180460c:	18075580 	call	1807558 <__lshift>
 1804610:	1009883a 	mov	r4,r2
 1804614:	900b883a 	mov	r5,r18
 1804618:	d8800715 	stw	r2,28(sp)
 180461c:	1806d700 	call	1806d70 <__mcmp>
 1804620:	00803c0e 	bge	zero,r2,1804714 <_dtoa_r+0xc94>
 1804624:	b009883a 	mov	r4,r22
 1804628:	213fffc4 	addi	r4,r4,-1
 180462c:	21400003 	ldbu	r5,0(r4)
 1804630:	00800e44 	movi	r2,57
 1804634:	28c03fcc 	andi	r3,r5,255
 1804638:	18c0201c 	xori	r3,r3,128
 180463c:	18ffe004 	addi	r3,r3,-128
 1804640:	1881981e 	bne	r3,r2,1804ca4 <_dtoa_r+0x1224>
 1804644:	d9800517 	ldw	r6,20(sp)
 1804648:	21bff71e 	bne	r4,r6,1804628 <_dtoa_r+0xba8>
 180464c:	d8800d17 	ldw	r2,52(sp)
 1804650:	37000044 	addi	fp,r6,1
 1804654:	10800044 	addi	r2,r2,1
 1804658:	d8800d15 	stw	r2,52(sp)
 180465c:	00800c44 	movi	r2,49
 1804660:	30800005 	stb	r2,0(r6)
 1804664:	d9001617 	ldw	r4,88(sp)
 1804668:	900b883a 	mov	r5,r18
 180466c:	1806c140 	call	1806c14 <_Bfree>
 1804670:	983ecd26 	beq	r19,zero,18041a8 <_dtoa_r+0x728>
 1804674:	d8c00617 	ldw	r3,24(sp)
 1804678:	18000426 	beq	r3,zero,180468c <_dtoa_r+0xc0c>
 180467c:	1cc00326 	beq	r3,r19,180468c <_dtoa_r+0xc0c>
 1804680:	d9001617 	ldw	r4,88(sp)
 1804684:	180b883a 	mov	r5,r3
 1804688:	1806c140 	call	1806c14 <_Bfree>
 180468c:	d9001617 	ldw	r4,88(sp)
 1804690:	980b883a 	mov	r5,r19
 1804694:	1806c140 	call	1806c14 <_Bfree>
 1804698:	003ec306 	br	18041a8 <_dtoa_r+0x728>
 180469c:	1805883a 	mov	r2,r3
 18046a0:	003eeb06 	br	1804250 <_dtoa_r+0x7d0>
 18046a4:	d9800a17 	ldw	r6,40(sp)
 18046a8:	d8c01117 	ldw	r3,68(sp)
 18046ac:	20bfff04 	addi	r2,r4,-4
 18046b0:	308d883a 	add	r6,r6,r2
 18046b4:	1887883a 	add	r3,r3,r2
 18046b8:	80a1883a 	add	r16,r16,r2
 18046bc:	d9800a15 	stw	r6,40(sp)
 18046c0:	d8c01115 	stw	r3,68(sp)
 18046c4:	003f1d06 	br	180433c <_dtoa_r+0x8bc>
 18046c8:	a03f0c1e 	bne	r20,zero,18042fc <_dtoa_r+0x87c>
 18046cc:	00800434 	movhi	r2,16
 18046d0:	10bfffc4 	addi	r2,r2,-1
 18046d4:	a884703a 	and	r2,r21,r2
 18046d8:	103f081e 	bne	r2,zero,18042fc <_dtoa_r+0x87c>
 18046dc:	a89ffc2c 	andhi	r2,r21,32752
 18046e0:	103f0626 	beq	r2,zero,18042fc <_dtoa_r+0x87c>
 18046e4:	d8c01117 	ldw	r3,68(sp)
 18046e8:	d9000a17 	ldw	r4,40(sp)
 18046ec:	18c00044 	addi	r3,r3,1
 18046f0:	21000044 	addi	r4,r4,1
 18046f4:	d8c01115 	stw	r3,68(sp)
 18046f8:	d9000a15 	stw	r4,40(sp)
 18046fc:	003f0006 	br	1804300 <_dtoa_r+0x880>
 1804700:	d9400717 	ldw	r5,28(sp)
 1804704:	d9001617 	ldw	r4,88(sp)
 1804708:	18079c80 	call	18079c8 <__pow5mult>
 180470c:	d8800715 	stw	r2,28(sp)
 1804710:	003eed06 	br	18042c8 <_dtoa_r+0x848>
 1804714:	1000021e 	bne	r2,zero,1804720 <_dtoa_r+0xca0>
 1804718:	b880004c 	andi	r2,r23,1
 180471c:	103fc11e 	bne	r2,zero,1804624 <_dtoa_r+0xba4>
 1804720:	b5bfffc4 	addi	r22,r22,-1
 1804724:	b0c00007 	ldb	r3,0(r22)
 1804728:	00800c04 	movi	r2,48
 180472c:	18bffc26 	beq	r3,r2,1804720 <_dtoa_r+0xca0>
 1804730:	b7000044 	addi	fp,r22,1
 1804734:	003fcb06 	br	1804664 <_dtoa_r+0xbe4>
 1804738:	d9800d17 	ldw	r6,52(sp)
 180473c:	018fc83a 	sub	r7,zero,r6
 1804740:	3801f726 	beq	r7,zero,1804f20 <_dtoa_r+0x14a0>
 1804744:	398003cc 	andi	r6,r7,15
 1804748:	300c90fa 	slli	r6,r6,3
 180474c:	01406074 	movhi	r5,385
 1804750:	29444204 	addi	r5,r5,4360
 1804754:	d9001217 	ldw	r4,72(sp)
 1804758:	314d883a 	add	r6,r6,r5
 180475c:	30c00117 	ldw	r3,4(r6)
 1804760:	30800017 	ldw	r2,0(r6)
 1804764:	d9401317 	ldw	r5,76(sp)
 1804768:	3821d13a 	srai	r16,r7,4
 180476c:	100d883a 	mov	r6,r2
 1804770:	180f883a 	mov	r7,r3
 1804774:	18095780 	call	1809578 <__muldf3>
 1804778:	1011883a 	mov	r8,r2
 180477c:	1813883a 	mov	r9,r3
 1804780:	1029883a 	mov	r20,r2
 1804784:	182b883a 	mov	r21,r3
 1804788:	8001e526 	beq	r16,zero,1804f20 <_dtoa_r+0x14a0>
 180478c:	05800084 	movi	r22,2
 1804790:	04406074 	movhi	r17,385
 1804794:	8c447404 	addi	r17,r17,4560
 1804798:	8080004c 	andi	r2,r16,1
 180479c:	1005003a 	cmpeq	r2,r2,zero
 18047a0:	1000081e 	bne	r2,zero,18047c4 <_dtoa_r+0xd44>
 18047a4:	89800017 	ldw	r6,0(r17)
 18047a8:	89c00117 	ldw	r7,4(r17)
 18047ac:	480b883a 	mov	r5,r9
 18047b0:	4009883a 	mov	r4,r8
 18047b4:	18095780 	call	1809578 <__muldf3>
 18047b8:	1011883a 	mov	r8,r2
 18047bc:	b5800044 	addi	r22,r22,1
 18047c0:	1813883a 	mov	r9,r3
 18047c4:	8021d07a 	srai	r16,r16,1
 18047c8:	8c400204 	addi	r17,r17,8
 18047cc:	803ff21e 	bne	r16,zero,1804798 <_dtoa_r+0xd18>
 18047d0:	4029883a 	mov	r20,r8
 18047d4:	482b883a 	mov	r21,r9
 18047d8:	003dca06 	br	1803f04 <_dtoa_r+0x484>
 18047dc:	d9000817 	ldw	r4,32(sp)
 18047e0:	2005003a 	cmpeq	r2,r4,zero
 18047e4:	1001f61e 	bne	r2,zero,1804fc0 <_dtoa_r+0x1540>
 18047e8:	dc001117 	ldw	r16,68(sp)
 18047ec:	dc801017 	ldw	r18,64(sp)
 18047f0:	18c10cc4 	addi	r3,r3,1075
 18047f4:	003f6106 	br	180457c <_dtoa_r+0xafc>
 18047f8:	d8000b15 	stw	zero,44(sp)
 18047fc:	d9802617 	ldw	r6,152(sp)
 1804800:	d8c00d17 	ldw	r3,52(sp)
 1804804:	30800044 	addi	r2,r6,1
 1804808:	18ad883a 	add	r22,r3,r2
 180480c:	b13fffc4 	addi	r4,r22,-1
 1804810:	d9000e15 	stw	r4,56(sp)
 1804814:	0581f60e 	bge	zero,r22,1804ff0 <_dtoa_r+0x1570>
 1804818:	dd800f15 	stw	r22,60(sp)
 180481c:	003f3006 	br	18044e0 <_dtoa_r+0xa60>
 1804820:	d8000b15 	stw	zero,44(sp)
 1804824:	d9002617 	ldw	r4,152(sp)
 1804828:	0101eb0e 	bge	zero,r4,1804fd8 <_dtoa_r+0x1558>
 180482c:	202d883a 	mov	r22,r4
 1804830:	d9000e15 	stw	r4,56(sp)
 1804834:	d9000f15 	stw	r4,60(sp)
 1804838:	003f2906 	br	18044e0 <_dtoa_r+0xa60>
 180483c:	01800044 	movi	r6,1
 1804840:	d9800b15 	stw	r6,44(sp)
 1804844:	003ff706 	br	1804824 <_dtoa_r+0xda4>
 1804848:	01000044 	movi	r4,1
 180484c:	d9000b15 	stw	r4,44(sp)
 1804850:	003fea06 	br	18047fc <_dtoa_r+0xd7c>
 1804854:	04000c0e 	bge	zero,r16,1804888 <_dtoa_r+0xe08>
 1804858:	d9400717 	ldw	r5,28(sp)
 180485c:	d9001617 	ldw	r4,88(sp)
 1804860:	01800044 	movi	r6,1
 1804864:	18075580 	call	1807558 <__lshift>
 1804868:	1009883a 	mov	r4,r2
 180486c:	900b883a 	mov	r5,r18
 1804870:	d8800715 	stw	r2,28(sp)
 1804874:	1806d700 	call	1806d70 <__mcmp>
 1804878:	0081e00e 	bge	zero,r2,1804ffc <_dtoa_r+0x157c>
 180487c:	bdc00044 	addi	r23,r23,1
 1804880:	00800e84 	movi	r2,58
 1804884:	b881a226 	beq	r23,r2,1804f10 <_dtoa_r+0x1490>
 1804888:	b7000044 	addi	fp,r22,1
 180488c:	b5c00005 	stb	r23,0(r22)
 1804890:	003f7406 	br	1804664 <_dtoa_r+0xbe4>
 1804894:	00800e44 	movi	r2,57
 1804898:	b8819d26 	beq	r23,r2,1804f10 <_dtoa_r+0x1490>
 180489c:	053ffa0e 	bge	zero,r20,1804888 <_dtoa_r+0xe08>
 18048a0:	8dc00c44 	addi	r23,r17,49
 18048a4:	003ff806 	br	1804888 <_dtoa_r+0xe08>
 18048a8:	d9001617 	ldw	r4,88(sp)
 18048ac:	a80b883a 	mov	r5,r21
 18048b0:	04000044 	movi	r16,1
 18048b4:	1806c140 	call	1806c14 <_Bfree>
 18048b8:	003edf06 	br	1804438 <_dtoa_r+0x9b8>
 18048bc:	d9001617 	ldw	r4,88(sp)
 18048c0:	980b883a 	mov	r5,r19
 18048c4:	01800284 	movi	r6,10
 18048c8:	000f883a 	mov	r7,zero
 18048cc:	18078c80 	call	18078c8 <__multadd>
 18048d0:	1027883a 	mov	r19,r2
 18048d4:	d8800615 	stw	r2,24(sp)
 18048d8:	003ebb06 	br	18043c8 <_dtoa_r+0x948>
 18048dc:	d9801117 	ldw	r6,68(sp)
 18048e0:	d8800d17 	ldw	r2,52(sp)
 18048e4:	d8000915 	stw	zero,36(sp)
 18048e8:	308dc83a 	sub	r6,r6,r2
 18048ec:	0087c83a 	sub	r3,zero,r2
 18048f0:	d9801115 	stw	r6,68(sp)
 18048f4:	d8c01015 	stw	r3,64(sp)
 18048f8:	003cfe06 	br	1803cf4 <_dtoa_r+0x274>
 18048fc:	018dc83a 	sub	r6,zero,r6
 1804900:	d9801115 	stw	r6,68(sp)
 1804904:	d8000a15 	stw	zero,40(sp)
 1804908:	003cf306 	br	1803cd8 <_dtoa_r+0x258>
 180490c:	d9000d17 	ldw	r4,52(sp)
 1804910:	1809e3c0 	call	1809e3c <__floatsidf>
 1804914:	880b883a 	mov	r5,r17
 1804918:	8009883a 	mov	r4,r16
 180491c:	180f883a 	mov	r7,r3
 1804920:	100d883a 	mov	r6,r2
 1804924:	1809c1c0 	call	1809c1c <__nedf2>
 1804928:	103ce126 	beq	r2,zero,1803cb0 <_dtoa_r+0x230>
 180492c:	d9800d17 	ldw	r6,52(sp)
 1804930:	31bfffc4 	addi	r6,r6,-1
 1804934:	d9800d15 	stw	r6,52(sp)
 1804938:	003cdd06 	br	1803cb0 <_dtoa_r+0x230>
 180493c:	d9000717 	ldw	r4,28(sp)
 1804940:	900b883a 	mov	r5,r18
 1804944:	1806d700 	call	1806d70 <__mcmp>
 1804948:	103e8d0e 	bge	r2,zero,1804380 <_dtoa_r+0x900>
 180494c:	d9400717 	ldw	r5,28(sp)
 1804950:	d9001617 	ldw	r4,88(sp)
 1804954:	01800284 	movi	r6,10
 1804958:	000f883a 	mov	r7,zero
 180495c:	18078c80 	call	18078c8 <__multadd>
 1804960:	d9800d17 	ldw	r6,52(sp)
 1804964:	d8800715 	stw	r2,28(sp)
 1804968:	31bfffc4 	addi	r6,r6,-1
 180496c:	d9800d15 	stw	r6,52(sp)
 1804970:	b001a71e 	bne	r22,zero,1805010 <_dtoa_r+0x1590>
 1804974:	d8800e17 	ldw	r2,56(sp)
 1804978:	d8800f15 	stw	r2,60(sp)
 180497c:	003e8006 	br	1804380 <_dtoa_r+0x900>
 1804980:	90800417 	ldw	r2,16(r18)
 1804984:	1085883a 	add	r2,r2,r2
 1804988:	1085883a 	add	r2,r2,r2
 180498c:	1485883a 	add	r2,r2,r18
 1804990:	11000417 	ldw	r4,16(r2)
 1804994:	1806c3c0 	call	1806c3c <__hi0bits>
 1804998:	00c00804 	movi	r3,32
 180499c:	1887c83a 	sub	r3,r3,r2
 18049a0:	003e5a06 	br	180430c <_dtoa_r+0x88c>
 18049a4:	d9400717 	ldw	r5,28(sp)
 18049a8:	d9801017 	ldw	r6,64(sp)
 18049ac:	d9001617 	ldw	r4,88(sp)
 18049b0:	18079c80 	call	18079c8 <__pow5mult>
 18049b4:	d8800715 	stw	r2,28(sp)
 18049b8:	003e4306 	br	18042c8 <_dtoa_r+0x848>
 18049bc:	d9800f17 	ldw	r6,60(sp)
 18049c0:	d8800d17 	ldw	r2,52(sp)
 18049c4:	d9800315 	stw	r6,12(sp)
 18049c8:	d8800415 	stw	r2,16(sp)
 18049cc:	d8c00b17 	ldw	r3,44(sp)
 18049d0:	1805003a 	cmpeq	r2,r3,zero
 18049d4:	1000e21e 	bne	r2,zero,1804d60 <_dtoa_r+0x12e0>
 18049d8:	d9000317 	ldw	r4,12(sp)
 18049dc:	0005883a 	mov	r2,zero
 18049e0:	00cff834 	movhi	r3,16352
 18049e4:	200c90fa 	slli	r6,r4,3
 18049e8:	01006074 	movhi	r4,385
 18049ec:	21044204 	addi	r4,r4,4360
 18049f0:	180b883a 	mov	r5,r3
 18049f4:	310d883a 	add	r6,r6,r4
 18049f8:	327fff17 	ldw	r9,-4(r6)
 18049fc:	323ffe17 	ldw	r8,-8(r6)
 1804a00:	1009883a 	mov	r4,r2
 1804a04:	480f883a 	mov	r7,r9
 1804a08:	400d883a 	mov	r6,r8
 1804a0c:	180993c0 	call	180993c <__divdf3>
 1804a10:	180b883a 	mov	r5,r3
 1804a14:	b00d883a 	mov	r6,r22
 1804a18:	b80f883a 	mov	r7,r23
 1804a1c:	1009883a 	mov	r4,r2
 1804a20:	1800e940 	call	1800e94 <__subdf3>
 1804a24:	a80b883a 	mov	r5,r21
 1804a28:	a009883a 	mov	r4,r20
 1804a2c:	d8c01915 	stw	r3,100(sp)
 1804a30:	d8801815 	stw	r2,96(sp)
 1804a34:	1800f880 	call	1800f88 <__fixdfsi>
 1804a38:	1009883a 	mov	r4,r2
 1804a3c:	1027883a 	mov	r19,r2
 1804a40:	1809e3c0 	call	1809e3c <__floatsidf>
 1804a44:	a80b883a 	mov	r5,r21
 1804a48:	a009883a 	mov	r4,r20
 1804a4c:	180f883a 	mov	r7,r3
 1804a50:	100d883a 	mov	r6,r2
 1804a54:	1800e940 	call	1800e94 <__subdf3>
 1804a58:	d9801817 	ldw	r6,96(sp)
 1804a5c:	1823883a 	mov	r17,r3
 1804a60:	d8801415 	stw	r2,80(sp)
 1804a64:	302d883a 	mov	r22,r6
 1804a68:	d9800517 	ldw	r6,20(sp)
 1804a6c:	9cc00c04 	addi	r19,r19,48
 1804a70:	dc401515 	stw	r17,84(sp)
 1804a74:	d8c01917 	ldw	r3,100(sp)
 1804a78:	34c00005 	stb	r19,0(r6)
 1804a7c:	d8800517 	ldw	r2,20(sp)
 1804a80:	d9401917 	ldw	r5,100(sp)
 1804a84:	d9801417 	ldw	r6,80(sp)
 1804a88:	b009883a 	mov	r4,r22
 1804a8c:	880f883a 	mov	r7,r17
 1804a90:	182f883a 	mov	r23,r3
 1804a94:	17000044 	addi	fp,r2,1
 1804a98:	1809ca40 	call	1809ca4 <__gtdf2>
 1804a9c:	00804e16 	blt	zero,r2,1804bd8 <_dtoa_r+0x1158>
 1804aa0:	d9801417 	ldw	r6,80(sp)
 1804aa4:	0005883a 	mov	r2,zero
 1804aa8:	00cffc34 	movhi	r3,16368
 1804aac:	180b883a 	mov	r5,r3
 1804ab0:	880f883a 	mov	r7,r17
 1804ab4:	1009883a 	mov	r4,r2
 1804ab8:	1800e940 	call	1800e94 <__subdf3>
 1804abc:	d9401917 	ldw	r5,100(sp)
 1804ac0:	180f883a 	mov	r7,r3
 1804ac4:	b009883a 	mov	r4,r22
 1804ac8:	100d883a 	mov	r6,r2
 1804acc:	1809ca40 	call	1809ca4 <__gtdf2>
 1804ad0:	00bda216 	blt	zero,r2,180415c <_dtoa_r+0x6dc>
 1804ad4:	d8c00317 	ldw	r3,12(sp)
 1804ad8:	00800044 	movi	r2,1
 1804adc:	10c01216 	blt	r2,r3,1804b28 <_dtoa_r+0x10a8>
 1804ae0:	003d4506 	br	1803ff8 <_dtoa_r+0x578>
 1804ae4:	d9801417 	ldw	r6,80(sp)
 1804ae8:	0005883a 	mov	r2,zero
 1804aec:	00cffc34 	movhi	r3,16368
 1804af0:	180b883a 	mov	r5,r3
 1804af4:	880f883a 	mov	r7,r17
 1804af8:	1009883a 	mov	r4,r2
 1804afc:	1800e940 	call	1800e94 <__subdf3>
 1804b00:	d9c01b17 	ldw	r7,108(sp)
 1804b04:	180b883a 	mov	r5,r3
 1804b08:	1009883a 	mov	r4,r2
 1804b0c:	b00d883a 	mov	r6,r22
 1804b10:	1809db40 	call	1809db4 <__ltdf2>
 1804b14:	103d9116 	blt	r2,zero,180415c <_dtoa_r+0x6dc>
 1804b18:	d9800517 	ldw	r6,20(sp)
 1804b1c:	d9000317 	ldw	r4,12(sp)
 1804b20:	3105883a 	add	r2,r6,r4
 1804b24:	e0bd3426 	beq	fp,r2,1803ff8 <_dtoa_r+0x578>
 1804b28:	04500934 	movhi	r17,16420
 1804b2c:	0021883a 	mov	r16,zero
 1804b30:	b80b883a 	mov	r5,r23
 1804b34:	b009883a 	mov	r4,r22
 1804b38:	800d883a 	mov	r6,r16
 1804b3c:	880f883a 	mov	r7,r17
 1804b40:	18095780 	call	1809578 <__muldf3>
 1804b44:	d9401517 	ldw	r5,84(sp)
 1804b48:	d9001417 	ldw	r4,80(sp)
 1804b4c:	880f883a 	mov	r7,r17
 1804b50:	000d883a 	mov	r6,zero
 1804b54:	d8801a15 	stw	r2,104(sp)
 1804b58:	d8c01b15 	stw	r3,108(sp)
 1804b5c:	18095780 	call	1809578 <__muldf3>
 1804b60:	180b883a 	mov	r5,r3
 1804b64:	1009883a 	mov	r4,r2
 1804b68:	1823883a 	mov	r17,r3
 1804b6c:	1021883a 	mov	r16,r2
 1804b70:	1800f880 	call	1800f88 <__fixdfsi>
 1804b74:	1009883a 	mov	r4,r2
 1804b78:	102b883a 	mov	r21,r2
 1804b7c:	1809e3c0 	call	1809e3c <__floatsidf>
 1804b80:	880b883a 	mov	r5,r17
 1804b84:	8009883a 	mov	r4,r16
 1804b88:	180f883a 	mov	r7,r3
 1804b8c:	100d883a 	mov	r6,r2
 1804b90:	1800e940 	call	1800e94 <__subdf3>
 1804b94:	1021883a 	mov	r16,r2
 1804b98:	d9001b17 	ldw	r4,108(sp)
 1804b9c:	1823883a 	mov	r17,r3
 1804ba0:	dc001415 	stw	r16,80(sp)
 1804ba4:	ad400c04 	addi	r21,r21,48
 1804ba8:	dc401515 	stw	r17,84(sp)
 1804bac:	d8801a17 	ldw	r2,104(sp)
 1804bb0:	e5400005 	stb	r21,0(fp)
 1804bb4:	202f883a 	mov	r23,r4
 1804bb8:	d9c01b17 	ldw	r7,108(sp)
 1804bbc:	d9001417 	ldw	r4,80(sp)
 1804bc0:	880b883a 	mov	r5,r17
 1804bc4:	100d883a 	mov	r6,r2
 1804bc8:	102d883a 	mov	r22,r2
 1804bcc:	e7000044 	addi	fp,fp,1
 1804bd0:	1809db40 	call	1809db4 <__ltdf2>
 1804bd4:	103fc30e 	bge	r2,zero,1804ae4 <_dtoa_r+0x1064>
 1804bd8:	d9000417 	ldw	r4,16(sp)
 1804bdc:	d9000d15 	stw	r4,52(sp)
 1804be0:	003d7106 	br	18041a8 <_dtoa_r+0x728>
 1804be4:	d9801717 	ldw	r6,92(sp)
 1804be8:	00800084 	movi	r2,2
 1804bec:	11bde60e 	bge	r2,r6,1804388 <_dtoa_r+0x908>
 1804bf0:	203cfb1e 	bne	r4,zero,1803fe0 <_dtoa_r+0x560>
 1804bf4:	d9001617 	ldw	r4,88(sp)
 1804bf8:	900b883a 	mov	r5,r18
 1804bfc:	01800144 	movi	r6,5
 1804c00:	000f883a 	mov	r7,zero
 1804c04:	18078c80 	call	18078c8 <__multadd>
 1804c08:	d9000717 	ldw	r4,28(sp)
 1804c0c:	100b883a 	mov	r5,r2
 1804c10:	1025883a 	mov	r18,r2
 1804c14:	1806d700 	call	1806d70 <__mcmp>
 1804c18:	00bcf10e 	bge	zero,r2,1803fe0 <_dtoa_r+0x560>
 1804c1c:	d8c00d17 	ldw	r3,52(sp)
 1804c20:	d9000517 	ldw	r4,20(sp)
 1804c24:	d8000615 	stw	zero,24(sp)
 1804c28:	18c00044 	addi	r3,r3,1
 1804c2c:	d8c00d15 	stw	r3,52(sp)
 1804c30:	00800c44 	movi	r2,49
 1804c34:	27000044 	addi	fp,r4,1
 1804c38:	20800005 	stb	r2,0(r4)
 1804c3c:	003e8906 	br	1804664 <_dtoa_r+0xbe4>
 1804c40:	d8c00517 	ldw	r3,20(sp)
 1804c44:	003bc206 	br	1803b50 <_dtoa_r+0xd0>
 1804c48:	01806074 	movhi	r6,385
 1804c4c:	31847404 	addi	r6,r6,4560
 1804c50:	30c00917 	ldw	r3,36(r6)
 1804c54:	30800817 	ldw	r2,32(r6)
 1804c58:	d9001217 	ldw	r4,72(sp)
 1804c5c:	d9401317 	ldw	r5,76(sp)
 1804c60:	180f883a 	mov	r7,r3
 1804c64:	100d883a 	mov	r6,r2
 1804c68:	180993c0 	call	180993c <__divdf3>
 1804c6c:	948003cc 	andi	r18,r18,15
 1804c70:	058000c4 	movi	r22,3
 1804c74:	1029883a 	mov	r20,r2
 1804c78:	182b883a 	mov	r21,r3
 1804c7c:	003c8906 	br	1803ea4 <_dtoa_r+0x424>
 1804c80:	d9001017 	ldw	r4,64(sp)
 1804c84:	d9800917 	ldw	r6,36(sp)
 1804c88:	0025883a 	mov	r18,zero
 1804c8c:	1105c83a 	sub	r2,r2,r4
 1804c90:	2089883a 	add	r4,r4,r2
 1804c94:	308d883a 	add	r6,r6,r2
 1804c98:	d9001015 	stw	r4,64(sp)
 1804c9c:	d9800915 	stw	r6,36(sp)
 1804ca0:	003e3206 	br	180456c <_dtoa_r+0xaec>
 1804ca4:	28800044 	addi	r2,r5,1
 1804ca8:	27000044 	addi	fp,r4,1
 1804cac:	20800005 	stb	r2,0(r4)
 1804cb0:	003e6c06 	br	1804664 <_dtoa_r+0xbe4>
 1804cb4:	d8800f17 	ldw	r2,60(sp)
 1804cb8:	00bce016 	blt	zero,r2,180403c <_dtoa_r+0x5bc>
 1804cbc:	d9800f17 	ldw	r6,60(sp)
 1804cc0:	303cc51e 	bne	r6,zero,1803fd8 <_dtoa_r+0x558>
 1804cc4:	0005883a 	mov	r2,zero
 1804cc8:	00d00534 	movhi	r3,16404
 1804ccc:	980b883a 	mov	r5,r19
 1804cd0:	180f883a 	mov	r7,r3
 1804cd4:	9009883a 	mov	r4,r18
 1804cd8:	100d883a 	mov	r6,r2
 1804cdc:	18095780 	call	1809578 <__muldf3>
 1804ce0:	180b883a 	mov	r5,r3
 1804ce4:	a80f883a 	mov	r7,r21
 1804ce8:	1009883a 	mov	r4,r2
 1804cec:	a00d883a 	mov	r6,r20
 1804cf0:	1809d2c0 	call	1809d2c <__gedf2>
 1804cf4:	103cb80e 	bge	r2,zero,1803fd8 <_dtoa_r+0x558>
 1804cf8:	0027883a 	mov	r19,zero
 1804cfc:	0025883a 	mov	r18,zero
 1804d00:	003fc606 	br	1804c1c <_dtoa_r+0x119c>
 1804d04:	99400117 	ldw	r5,4(r19)
 1804d08:	d9001617 	ldw	r4,88(sp)
 1804d0c:	18071940 	call	1807194 <_Balloc>
 1804d10:	99800417 	ldw	r6,16(r19)
 1804d14:	11000304 	addi	r4,r2,12
 1804d18:	99400304 	addi	r5,r19,12
 1804d1c:	318d883a 	add	r6,r6,r6
 1804d20:	318d883a 	add	r6,r6,r6
 1804d24:	31800204 	addi	r6,r6,8
 1804d28:	1023883a 	mov	r17,r2
 1804d2c:	18069fc0 	call	18069fc <memcpy>
 1804d30:	d9001617 	ldw	r4,88(sp)
 1804d34:	880b883a 	mov	r5,r17
 1804d38:	01800044 	movi	r6,1
 1804d3c:	18075580 	call	1807558 <__lshift>
 1804d40:	100b883a 	mov	r5,r2
 1804d44:	003d9c06 	br	18043b8 <_dtoa_r+0x938>
 1804d48:	00800e44 	movi	r2,57
 1804d4c:	b8807026 	beq	r23,r2,1804f10 <_dtoa_r+0x1490>
 1804d50:	b8800044 	addi	r2,r23,1
 1804d54:	b7000044 	addi	fp,r22,1
 1804d58:	b0800005 	stb	r2,0(r22)
 1804d5c:	003e4106 	br	1804664 <_dtoa_r+0xbe4>
 1804d60:	d8800317 	ldw	r2,12(sp)
 1804d64:	01806074 	movhi	r6,385
 1804d68:	31844204 	addi	r6,r6,4360
 1804d6c:	b009883a 	mov	r4,r22
 1804d70:	100e90fa 	slli	r7,r2,3
 1804d74:	b80b883a 	mov	r5,r23
 1804d78:	398f883a 	add	r7,r7,r6
 1804d7c:	38bffe17 	ldw	r2,-8(r7)
 1804d80:	d9800517 	ldw	r6,20(sp)
 1804d84:	38ffff17 	ldw	r3,-4(r7)
 1804d88:	37000044 	addi	fp,r6,1
 1804d8c:	180f883a 	mov	r7,r3
 1804d90:	100d883a 	mov	r6,r2
 1804d94:	18095780 	call	1809578 <__muldf3>
 1804d98:	a80b883a 	mov	r5,r21
 1804d9c:	a009883a 	mov	r4,r20
 1804da0:	182f883a 	mov	r23,r3
 1804da4:	102d883a 	mov	r22,r2
 1804da8:	1800f880 	call	1800f88 <__fixdfsi>
 1804dac:	1009883a 	mov	r4,r2
 1804db0:	1027883a 	mov	r19,r2
 1804db4:	1809e3c0 	call	1809e3c <__floatsidf>
 1804db8:	a80b883a 	mov	r5,r21
 1804dbc:	a009883a 	mov	r4,r20
 1804dc0:	180f883a 	mov	r7,r3
 1804dc4:	100d883a 	mov	r6,r2
 1804dc8:	1800e940 	call	1800e94 <__subdf3>
 1804dcc:	180b883a 	mov	r5,r3
 1804dd0:	d8c00517 	ldw	r3,20(sp)
 1804dd4:	9cc00c04 	addi	r19,r19,48
 1804dd8:	1009883a 	mov	r4,r2
 1804ddc:	1cc00005 	stb	r19,0(r3)
 1804de0:	2021883a 	mov	r16,r4
 1804de4:	d9000317 	ldw	r4,12(sp)
 1804de8:	00800044 	movi	r2,1
 1804dec:	2823883a 	mov	r17,r5
 1804df0:	20802226 	beq	r4,r2,1804e7c <_dtoa_r+0x13fc>
 1804df4:	1029883a 	mov	r20,r2
 1804df8:	0005883a 	mov	r2,zero
 1804dfc:	00d00934 	movhi	r3,16420
 1804e00:	180f883a 	mov	r7,r3
 1804e04:	100d883a 	mov	r6,r2
 1804e08:	880b883a 	mov	r5,r17
 1804e0c:	8009883a 	mov	r4,r16
 1804e10:	18095780 	call	1809578 <__muldf3>
 1804e14:	180b883a 	mov	r5,r3
 1804e18:	1009883a 	mov	r4,r2
 1804e1c:	1823883a 	mov	r17,r3
 1804e20:	1021883a 	mov	r16,r2
 1804e24:	1800f880 	call	1800f88 <__fixdfsi>
 1804e28:	1009883a 	mov	r4,r2
 1804e2c:	102b883a 	mov	r21,r2
 1804e30:	1809e3c0 	call	1809e3c <__floatsidf>
 1804e34:	880b883a 	mov	r5,r17
 1804e38:	8009883a 	mov	r4,r16
 1804e3c:	180f883a 	mov	r7,r3
 1804e40:	100d883a 	mov	r6,r2
 1804e44:	1800e940 	call	1800e94 <__subdf3>
 1804e48:	180b883a 	mov	r5,r3
 1804e4c:	d8c00517 	ldw	r3,20(sp)
 1804e50:	1009883a 	mov	r4,r2
 1804e54:	ad400c04 	addi	r21,r21,48
 1804e58:	1d05883a 	add	r2,r3,r20
 1804e5c:	15400005 	stb	r21,0(r2)
 1804e60:	2021883a 	mov	r16,r4
 1804e64:	d9000317 	ldw	r4,12(sp)
 1804e68:	a5000044 	addi	r20,r20,1
 1804e6c:	2823883a 	mov	r17,r5
 1804e70:	a13fe11e 	bne	r20,r4,1804df8 <_dtoa_r+0x1378>
 1804e74:	e505883a 	add	r2,fp,r20
 1804e78:	173fffc4 	addi	fp,r2,-1
 1804e7c:	0025883a 	mov	r18,zero
 1804e80:	04cff834 	movhi	r19,16352
 1804e84:	b009883a 	mov	r4,r22
 1804e88:	b80b883a 	mov	r5,r23
 1804e8c:	900d883a 	mov	r6,r18
 1804e90:	980f883a 	mov	r7,r19
 1804e94:	1800f140 	call	1800f14 <__adddf3>
 1804e98:	180b883a 	mov	r5,r3
 1804e9c:	1009883a 	mov	r4,r2
 1804ea0:	800d883a 	mov	r6,r16
 1804ea4:	880f883a 	mov	r7,r17
 1804ea8:	1809db40 	call	1809db4 <__ltdf2>
 1804eac:	103cab16 	blt	r2,zero,180415c <_dtoa_r+0x6dc>
 1804eb0:	0009883a 	mov	r4,zero
 1804eb4:	980b883a 	mov	r5,r19
 1804eb8:	b80f883a 	mov	r7,r23
 1804ebc:	b00d883a 	mov	r6,r22
 1804ec0:	1800e940 	call	1800e94 <__subdf3>
 1804ec4:	180b883a 	mov	r5,r3
 1804ec8:	880f883a 	mov	r7,r17
 1804ecc:	1009883a 	mov	r4,r2
 1804ed0:	800d883a 	mov	r6,r16
 1804ed4:	1809ca40 	call	1809ca4 <__gtdf2>
 1804ed8:	00bc470e 	bge	zero,r2,1803ff8 <_dtoa_r+0x578>
 1804edc:	00c00c04 	movi	r3,48
 1804ee0:	e73fffc4 	addi	fp,fp,-1
 1804ee4:	e0800007 	ldb	r2,0(fp)
 1804ee8:	10fffd26 	beq	r2,r3,1804ee0 <_dtoa_r+0x1460>
 1804eec:	d9800417 	ldw	r6,16(sp)
 1804ef0:	e7000044 	addi	fp,fp,1
 1804ef4:	d9800d15 	stw	r6,52(sp)
 1804ef8:	003cab06 	br	18041a8 <_dtoa_r+0x728>
 1804efc:	d8c00f17 	ldw	r3,60(sp)
 1804f00:	d9001117 	ldw	r4,68(sp)
 1804f04:	20e1c83a 	sub	r16,r4,r3
 1804f08:	0007883a 	mov	r3,zero
 1804f0c:	003d9b06 	br	180457c <_dtoa_r+0xafc>
 1804f10:	00800e44 	movi	r2,57
 1804f14:	b0800005 	stb	r2,0(r22)
 1804f18:	b5800044 	addi	r22,r22,1
 1804f1c:	003dc106 	br	1804624 <_dtoa_r+0xba4>
 1804f20:	05800084 	movi	r22,2
 1804f24:	003bf706 	br	1803f04 <_dtoa_r+0x484>
 1804f28:	d9000f17 	ldw	r4,60(sp)
 1804f2c:	013c000e 	bge	zero,r4,1803f30 <_dtoa_r+0x4b0>
 1804f30:	d9800e17 	ldw	r6,56(sp)
 1804f34:	01bc300e 	bge	zero,r6,1803ff8 <_dtoa_r+0x578>
 1804f38:	0005883a 	mov	r2,zero
 1804f3c:	00d00934 	movhi	r3,16420
 1804f40:	a80b883a 	mov	r5,r21
 1804f44:	180f883a 	mov	r7,r3
 1804f48:	a009883a 	mov	r4,r20
 1804f4c:	100d883a 	mov	r6,r2
 1804f50:	18095780 	call	1809578 <__muldf3>
 1804f54:	b1000044 	addi	r4,r22,1
 1804f58:	1021883a 	mov	r16,r2
 1804f5c:	1823883a 	mov	r17,r3
 1804f60:	1809e3c0 	call	1809e3c <__floatsidf>
 1804f64:	880b883a 	mov	r5,r17
 1804f68:	8009883a 	mov	r4,r16
 1804f6c:	180f883a 	mov	r7,r3
 1804f70:	100d883a 	mov	r6,r2
 1804f74:	18095780 	call	1809578 <__muldf3>
 1804f78:	0011883a 	mov	r8,zero
 1804f7c:	02500734 	movhi	r9,16412
 1804f80:	180b883a 	mov	r5,r3
 1804f84:	480f883a 	mov	r7,r9
 1804f88:	1009883a 	mov	r4,r2
 1804f8c:	400d883a 	mov	r6,r8
 1804f90:	1800f140 	call	1800f14 <__adddf3>
 1804f94:	102d883a 	mov	r22,r2
 1804f98:	00bf3034 	movhi	r2,64704
 1804f9c:	10ef883a 	add	r23,r2,r3
 1804fa0:	d8800d17 	ldw	r2,52(sp)
 1804fa4:	d8c00e17 	ldw	r3,56(sp)
 1804fa8:	8029883a 	mov	r20,r16
 1804fac:	10bfffc4 	addi	r2,r2,-1
 1804fb0:	882b883a 	mov	r21,r17
 1804fb4:	d8800415 	stw	r2,16(sp)
 1804fb8:	d8c00315 	stw	r3,12(sp)
 1804fbc:	003e8306 	br	18049cc <_dtoa_r+0xf4c>
 1804fc0:	d8800117 	ldw	r2,4(sp)
 1804fc4:	dc001117 	ldw	r16,68(sp)
 1804fc8:	dc801017 	ldw	r18,64(sp)
 1804fcc:	00c00d84 	movi	r3,54
 1804fd0:	1887c83a 	sub	r3,r3,r2
 1804fd4:	003d6906 	br	180457c <_dtoa_r+0xafc>
 1804fd8:	01800044 	movi	r6,1
 1804fdc:	3021883a 	mov	r16,r6
 1804fe0:	d9800f15 	stw	r6,60(sp)
 1804fe4:	d9802615 	stw	r6,152(sp)
 1804fe8:	d9800e15 	stw	r6,56(sp)
 1804fec:	003b9306 	br	1803e3c <_dtoa_r+0x3bc>
 1804ff0:	b021883a 	mov	r16,r22
 1804ff4:	dd800f15 	stw	r22,60(sp)
 1804ff8:	003b9006 	br	1803e3c <_dtoa_r+0x3bc>
 1804ffc:	103e221e 	bne	r2,zero,1804888 <_dtoa_r+0xe08>
 1805000:	b880004c 	andi	r2,r23,1
 1805004:	1005003a 	cmpeq	r2,r2,zero
 1805008:	103e1f1e 	bne	r2,zero,1804888 <_dtoa_r+0xe08>
 180500c:	003e1b06 	br	180487c <_dtoa_r+0xdfc>
 1805010:	d9001617 	ldw	r4,88(sp)
 1805014:	980b883a 	mov	r5,r19
 1805018:	01800284 	movi	r6,10
 180501c:	000f883a 	mov	r7,zero
 1805020:	18078c80 	call	18078c8 <__multadd>
 1805024:	d8c00e17 	ldw	r3,56(sp)
 1805028:	1027883a 	mov	r19,r2
 180502c:	d8c00f15 	stw	r3,60(sp)
 1805030:	003cd306 	br	1804380 <_dtoa_r+0x900>

01805034 <_fflush_r>:
 1805034:	defffb04 	addi	sp,sp,-20
 1805038:	dcc00315 	stw	r19,12(sp)
 180503c:	dc800215 	stw	r18,8(sp)
 1805040:	dfc00415 	stw	ra,16(sp)
 1805044:	dc400115 	stw	r17,4(sp)
 1805048:	dc000015 	stw	r16,0(sp)
 180504c:	2027883a 	mov	r19,r4
 1805050:	2825883a 	mov	r18,r5
 1805054:	20000226 	beq	r4,zero,1805060 <_fflush_r+0x2c>
 1805058:	20800e17 	ldw	r2,56(r4)
 180505c:	10005626 	beq	r2,zero,18051b8 <_fflush_r+0x184>
 1805060:	9100030b 	ldhu	r4,12(r18)
 1805064:	20ffffcc 	andi	r3,r4,65535
 1805068:	18e0001c 	xori	r3,r3,32768
 180506c:	18e00004 	addi	r3,r3,-32768
 1805070:	1880020c 	andi	r2,r3,8
 1805074:	1000261e 	bne	r2,zero,1805110 <_fflush_r+0xdc>
 1805078:	90c00117 	ldw	r3,4(r18)
 180507c:	20820014 	ori	r2,r4,2048
 1805080:	9080030d 	sth	r2,12(r18)
 1805084:	1009883a 	mov	r4,r2
 1805088:	00c0400e 	bge	zero,r3,180518c <_fflush_r+0x158>
 180508c:	92000a17 	ldw	r8,40(r18)
 1805090:	40004026 	beq	r8,zero,1805194 <_fflush_r+0x160>
 1805094:	2084000c 	andi	r2,r4,4096
 1805098:	10005326 	beq	r2,zero,18051e8 <_fflush_r+0x1b4>
 180509c:	94001417 	ldw	r16,80(r18)
 18050a0:	9080030b 	ldhu	r2,12(r18)
 18050a4:	1080010c 	andi	r2,r2,4
 18050a8:	1000481e 	bne	r2,zero,18051cc <_fflush_r+0x198>
 18050ac:	91400717 	ldw	r5,28(r18)
 18050b0:	9809883a 	mov	r4,r19
 18050b4:	800d883a 	mov	r6,r16
 18050b8:	000f883a 	mov	r7,zero
 18050bc:	403ee83a 	callr	r8
 18050c0:	8080261e 	bne	r16,r2,180515c <_fflush_r+0x128>
 18050c4:	9080030b 	ldhu	r2,12(r18)
 18050c8:	91000417 	ldw	r4,16(r18)
 18050cc:	90000115 	stw	zero,4(r18)
 18050d0:	10bdffcc 	andi	r2,r2,63487
 18050d4:	10ffffcc 	andi	r3,r2,65535
 18050d8:	18c4000c 	andi	r3,r3,4096
 18050dc:	9080030d 	sth	r2,12(r18)
 18050e0:	91000015 	stw	r4,0(r18)
 18050e4:	18002b26 	beq	r3,zero,1805194 <_fflush_r+0x160>
 18050e8:	0007883a 	mov	r3,zero
 18050ec:	1805883a 	mov	r2,r3
 18050f0:	94001415 	stw	r16,80(r18)
 18050f4:	dfc00417 	ldw	ra,16(sp)
 18050f8:	dcc00317 	ldw	r19,12(sp)
 18050fc:	dc800217 	ldw	r18,8(sp)
 1805100:	dc400117 	ldw	r17,4(sp)
 1805104:	dc000017 	ldw	r16,0(sp)
 1805108:	dec00504 	addi	sp,sp,20
 180510c:	f800283a 	ret
 1805110:	94400417 	ldw	r17,16(r18)
 1805114:	88001f26 	beq	r17,zero,1805194 <_fflush_r+0x160>
 1805118:	90800017 	ldw	r2,0(r18)
 180511c:	18c000cc 	andi	r3,r3,3
 1805120:	94400015 	stw	r17,0(r18)
 1805124:	1461c83a 	sub	r16,r2,r17
 1805128:	18002526 	beq	r3,zero,18051c0 <_fflush_r+0x18c>
 180512c:	0005883a 	mov	r2,zero
 1805130:	90800215 	stw	r2,8(r18)
 1805134:	0400170e 	bge	zero,r16,1805194 <_fflush_r+0x160>
 1805138:	90c00917 	ldw	r3,36(r18)
 180513c:	91400717 	ldw	r5,28(r18)
 1805140:	880d883a 	mov	r6,r17
 1805144:	800f883a 	mov	r7,r16
 1805148:	9809883a 	mov	r4,r19
 180514c:	183ee83a 	callr	r3
 1805150:	88a3883a 	add	r17,r17,r2
 1805154:	80a1c83a 	sub	r16,r16,r2
 1805158:	00bff616 	blt	zero,r2,1805134 <_fflush_r+0x100>
 180515c:	9080030b 	ldhu	r2,12(r18)
 1805160:	00ffffc4 	movi	r3,-1
 1805164:	10801014 	ori	r2,r2,64
 1805168:	9080030d 	sth	r2,12(r18)
 180516c:	1805883a 	mov	r2,r3
 1805170:	dfc00417 	ldw	ra,16(sp)
 1805174:	dcc00317 	ldw	r19,12(sp)
 1805178:	dc800217 	ldw	r18,8(sp)
 180517c:	dc400117 	ldw	r17,4(sp)
 1805180:	dc000017 	ldw	r16,0(sp)
 1805184:	dec00504 	addi	sp,sp,20
 1805188:	f800283a 	ret
 180518c:	90800f17 	ldw	r2,60(r18)
 1805190:	00bfbe16 	blt	zero,r2,180508c <_fflush_r+0x58>
 1805194:	0007883a 	mov	r3,zero
 1805198:	1805883a 	mov	r2,r3
 180519c:	dfc00417 	ldw	ra,16(sp)
 18051a0:	dcc00317 	ldw	r19,12(sp)
 18051a4:	dc800217 	ldw	r18,8(sp)
 18051a8:	dc400117 	ldw	r17,4(sp)
 18051ac:	dc000017 	ldw	r16,0(sp)
 18051b0:	dec00504 	addi	sp,sp,20
 18051b4:	f800283a 	ret
 18051b8:	18052cc0 	call	18052cc <__sinit>
 18051bc:	003fa806 	br	1805060 <_fflush_r+0x2c>
 18051c0:	90800517 	ldw	r2,20(r18)
 18051c4:	90800215 	stw	r2,8(r18)
 18051c8:	003fda06 	br	1805134 <_fflush_r+0x100>
 18051cc:	90800117 	ldw	r2,4(r18)
 18051d0:	90c00c17 	ldw	r3,48(r18)
 18051d4:	80a1c83a 	sub	r16,r16,r2
 18051d8:	183fb426 	beq	r3,zero,18050ac <_fflush_r+0x78>
 18051dc:	90800f17 	ldw	r2,60(r18)
 18051e0:	80a1c83a 	sub	r16,r16,r2
 18051e4:	003fb106 	br	18050ac <_fflush_r+0x78>
 18051e8:	91400717 	ldw	r5,28(r18)
 18051ec:	9809883a 	mov	r4,r19
 18051f0:	000d883a 	mov	r6,zero
 18051f4:	01c00044 	movi	r7,1
 18051f8:	403ee83a 	callr	r8
 18051fc:	1021883a 	mov	r16,r2
 1805200:	00bfffc4 	movi	r2,-1
 1805204:	80800226 	beq	r16,r2,1805210 <_fflush_r+0x1dc>
 1805208:	92000a17 	ldw	r8,40(r18)
 180520c:	003fa406 	br	18050a0 <_fflush_r+0x6c>
 1805210:	98c00017 	ldw	r3,0(r19)
 1805214:	00800744 	movi	r2,29
 1805218:	18bfde26 	beq	r3,r2,1805194 <_fflush_r+0x160>
 180521c:	9080030b 	ldhu	r2,12(r18)
 1805220:	8007883a 	mov	r3,r16
 1805224:	10801014 	ori	r2,r2,64
 1805228:	9080030d 	sth	r2,12(r18)
 180522c:	003fcf06 	br	180516c <_fflush_r+0x138>

01805230 <fflush>:
 1805230:	01406034 	movhi	r5,384
 1805234:	29540d04 	addi	r5,r5,20532
 1805238:	2007883a 	mov	r3,r4
 180523c:	20000526 	beq	r4,zero,1805254 <fflush+0x24>
 1805240:	00806074 	movhi	r2,385
 1805244:	108c7704 	addi	r2,r2,12764
 1805248:	11000017 	ldw	r4,0(r2)
 180524c:	180b883a 	mov	r5,r3
 1805250:	18050341 	jmpi	1805034 <_fflush_r>
 1805254:	00806074 	movhi	r2,385
 1805258:	108c7804 	addi	r2,r2,12768
 180525c:	11000017 	ldw	r4,0(r2)
 1805260:	1805e001 	jmpi	1805e00 <_fwalk_reent>

01805264 <std>:
 1805264:	00806074 	movhi	r2,385
 1805268:	10a0b704 	addi	r2,r2,-32036
 180526c:	20800b15 	stw	r2,44(r4)
 1805270:	00806074 	movhi	r2,385
 1805274:	10a0f204 	addi	r2,r2,-31800
 1805278:	20800815 	stw	r2,32(r4)
 180527c:	00c06074 	movhi	r3,385
 1805280:	18e0d304 	addi	r3,r3,-31924
 1805284:	00806074 	movhi	r2,385
 1805288:	10a0b904 	addi	r2,r2,-32028
 180528c:	2140030d 	sth	r5,12(r4)
 1805290:	2180038d 	sth	r6,14(r4)
 1805294:	20c00915 	stw	r3,36(r4)
 1805298:	20800a15 	stw	r2,40(r4)
 180529c:	20000015 	stw	zero,0(r4)
 18052a0:	20000115 	stw	zero,4(r4)
 18052a4:	20000215 	stw	zero,8(r4)
 18052a8:	20000415 	stw	zero,16(r4)
 18052ac:	20000515 	stw	zero,20(r4)
 18052b0:	20000615 	stw	zero,24(r4)
 18052b4:	21000715 	stw	r4,28(r4)
 18052b8:	f800283a 	ret

018052bc <__sfp_lock_acquire>:
 18052bc:	f800283a 	ret

018052c0 <__sfp_lock_release>:
 18052c0:	f800283a 	ret

018052c4 <__sinit_lock_acquire>:
 18052c4:	f800283a 	ret

018052c8 <__sinit_lock_release>:
 18052c8:	f800283a 	ret

018052cc <__sinit>:
 18052cc:	20800e17 	ldw	r2,56(r4)
 18052d0:	defffd04 	addi	sp,sp,-12
 18052d4:	dc400115 	stw	r17,4(sp)
 18052d8:	dc000015 	stw	r16,0(sp)
 18052dc:	dfc00215 	stw	ra,8(sp)
 18052e0:	04400044 	movi	r17,1
 18052e4:	01400104 	movi	r5,4
 18052e8:	000d883a 	mov	r6,zero
 18052ec:	2021883a 	mov	r16,r4
 18052f0:	2200bb04 	addi	r8,r4,748
 18052f4:	200f883a 	mov	r7,r4
 18052f8:	10000526 	beq	r2,zero,1805310 <__sinit+0x44>
 18052fc:	dfc00217 	ldw	ra,8(sp)
 1805300:	dc400117 	ldw	r17,4(sp)
 1805304:	dc000017 	ldw	r16,0(sp)
 1805308:	dec00304 	addi	sp,sp,12
 180530c:	f800283a 	ret
 1805310:	21000117 	ldw	r4,4(r4)
 1805314:	00806034 	movhi	r2,384
 1805318:	1094ec04 	addi	r2,r2,21424
 180531c:	00c000c4 	movi	r3,3
 1805320:	80800f15 	stw	r2,60(r16)
 1805324:	80c0b915 	stw	r3,740(r16)
 1805328:	8200ba15 	stw	r8,744(r16)
 180532c:	84400e15 	stw	r17,56(r16)
 1805330:	8000b815 	stw	zero,736(r16)
 1805334:	18052640 	call	1805264 <std>
 1805338:	81000217 	ldw	r4,8(r16)
 180533c:	880d883a 	mov	r6,r17
 1805340:	800f883a 	mov	r7,r16
 1805344:	01400284 	movi	r5,10
 1805348:	18052640 	call	1805264 <std>
 180534c:	81000317 	ldw	r4,12(r16)
 1805350:	800f883a 	mov	r7,r16
 1805354:	01400484 	movi	r5,18
 1805358:	01800084 	movi	r6,2
 180535c:	dfc00217 	ldw	ra,8(sp)
 1805360:	dc400117 	ldw	r17,4(sp)
 1805364:	dc000017 	ldw	r16,0(sp)
 1805368:	dec00304 	addi	sp,sp,12
 180536c:	18052641 	jmpi	1805264 <std>

01805370 <__fp_lock>:
 1805370:	0005883a 	mov	r2,zero
 1805374:	f800283a 	ret

01805378 <__fp_unlock>:
 1805378:	0005883a 	mov	r2,zero
 180537c:	f800283a 	ret

01805380 <__fp_unlock_all>:
 1805380:	00806074 	movhi	r2,385
 1805384:	108c7704 	addi	r2,r2,12764
 1805388:	11000017 	ldw	r4,0(r2)
 180538c:	01406034 	movhi	r5,384
 1805390:	2954de04 	addi	r5,r5,21368
 1805394:	1805ec81 	jmpi	1805ec8 <_fwalk>

01805398 <__fp_lock_all>:
 1805398:	00806074 	movhi	r2,385
 180539c:	108c7704 	addi	r2,r2,12764
 18053a0:	11000017 	ldw	r4,0(r2)
 18053a4:	01406034 	movhi	r5,384
 18053a8:	2954dc04 	addi	r5,r5,21360
 18053ac:	1805ec81 	jmpi	1805ec8 <_fwalk>

018053b0 <_cleanup_r>:
 18053b0:	01406074 	movhi	r5,385
 18053b4:	29620104 	addi	r5,r5,-30716
 18053b8:	1805ec81 	jmpi	1805ec8 <_fwalk>

018053bc <_cleanup>:
 18053bc:	00806074 	movhi	r2,385
 18053c0:	108c7804 	addi	r2,r2,12768
 18053c4:	11000017 	ldw	r4,0(r2)
 18053c8:	18053b01 	jmpi	18053b0 <_cleanup_r>

018053cc <__sfmoreglue>:
 18053cc:	defffc04 	addi	sp,sp,-16
 18053d0:	dc400115 	stw	r17,4(sp)
 18053d4:	2c401724 	muli	r17,r5,92
 18053d8:	dc800215 	stw	r18,8(sp)
 18053dc:	2825883a 	mov	r18,r5
 18053e0:	89400304 	addi	r5,r17,12
 18053e4:	dc000015 	stw	r16,0(sp)
 18053e8:	dfc00315 	stw	ra,12(sp)
 18053ec:	18061d80 	call	18061d8 <_malloc_r>
 18053f0:	0021883a 	mov	r16,zero
 18053f4:	880d883a 	mov	r6,r17
 18053f8:	000b883a 	mov	r5,zero
 18053fc:	10000626 	beq	r2,zero,1805418 <__sfmoreglue+0x4c>
 1805400:	11000304 	addi	r4,r2,12
 1805404:	14800115 	stw	r18,4(r2)
 1805408:	10000015 	stw	zero,0(r2)
 180540c:	11000215 	stw	r4,8(r2)
 1805410:	1021883a 	mov	r16,r2
 1805414:	1806b7c0 	call	1806b7c <memset>
 1805418:	8005883a 	mov	r2,r16
 180541c:	dfc00317 	ldw	ra,12(sp)
 1805420:	dc800217 	ldw	r18,8(sp)
 1805424:	dc400117 	ldw	r17,4(sp)
 1805428:	dc000017 	ldw	r16,0(sp)
 180542c:	dec00404 	addi	sp,sp,16
 1805430:	f800283a 	ret

01805434 <__sfp>:
 1805434:	defffd04 	addi	sp,sp,-12
 1805438:	00806074 	movhi	r2,385
 180543c:	108c7804 	addi	r2,r2,12768
 1805440:	dc000015 	stw	r16,0(sp)
 1805444:	14000017 	ldw	r16,0(r2)
 1805448:	dc400115 	stw	r17,4(sp)
 180544c:	dfc00215 	stw	ra,8(sp)
 1805450:	80800e17 	ldw	r2,56(r16)
 1805454:	2023883a 	mov	r17,r4
 1805458:	10002626 	beq	r2,zero,18054f4 <__sfp+0xc0>
 180545c:	8400b804 	addi	r16,r16,736
 1805460:	80800117 	ldw	r2,4(r16)
 1805464:	81000217 	ldw	r4,8(r16)
 1805468:	10ffffc4 	addi	r3,r2,-1
 180546c:	18000916 	blt	r3,zero,1805494 <__sfp+0x60>
 1805470:	2080030f 	ldh	r2,12(r4)
 1805474:	10000b26 	beq	r2,zero,18054a4 <__sfp+0x70>
 1805478:	017fffc4 	movi	r5,-1
 180547c:	00000206 	br	1805488 <__sfp+0x54>
 1805480:	2080030f 	ldh	r2,12(r4)
 1805484:	10000726 	beq	r2,zero,18054a4 <__sfp+0x70>
 1805488:	18ffffc4 	addi	r3,r3,-1
 180548c:	21001704 	addi	r4,r4,92
 1805490:	197ffb1e 	bne	r3,r5,1805480 <__sfp+0x4c>
 1805494:	80800017 	ldw	r2,0(r16)
 1805498:	10001926 	beq	r2,zero,1805500 <__sfp+0xcc>
 180549c:	1021883a 	mov	r16,r2
 18054a0:	003fef06 	br	1805460 <__sfp+0x2c>
 18054a4:	00bfffc4 	movi	r2,-1
 18054a8:	00c00044 	movi	r3,1
 18054ac:	2080038d 	sth	r2,14(r4)
 18054b0:	20c0030d 	sth	r3,12(r4)
 18054b4:	20000015 	stw	zero,0(r4)
 18054b8:	20000215 	stw	zero,8(r4)
 18054bc:	20000115 	stw	zero,4(r4)
 18054c0:	20000415 	stw	zero,16(r4)
 18054c4:	20000515 	stw	zero,20(r4)
 18054c8:	20000615 	stw	zero,24(r4)
 18054cc:	20000c15 	stw	zero,48(r4)
 18054d0:	20000d15 	stw	zero,52(r4)
 18054d4:	20001115 	stw	zero,68(r4)
 18054d8:	20001215 	stw	zero,72(r4)
 18054dc:	2005883a 	mov	r2,r4
 18054e0:	dfc00217 	ldw	ra,8(sp)
 18054e4:	dc400117 	ldw	r17,4(sp)
 18054e8:	dc000017 	ldw	r16,0(sp)
 18054ec:	dec00304 	addi	sp,sp,12
 18054f0:	f800283a 	ret
 18054f4:	8009883a 	mov	r4,r16
 18054f8:	18052cc0 	call	18052cc <__sinit>
 18054fc:	003fd706 	br	180545c <__sfp+0x28>
 1805500:	8809883a 	mov	r4,r17
 1805504:	01400104 	movi	r5,4
 1805508:	18053cc0 	call	18053cc <__sfmoreglue>
 180550c:	80800015 	stw	r2,0(r16)
 1805510:	103fe21e 	bne	r2,zero,180549c <__sfp+0x68>
 1805514:	00800304 	movi	r2,12
 1805518:	0009883a 	mov	r4,zero
 180551c:	88800015 	stw	r2,0(r17)
 1805520:	003fee06 	br	18054dc <__sfp+0xa8>

01805524 <_malloc_trim_r>:
 1805524:	defffb04 	addi	sp,sp,-20
 1805528:	dcc00315 	stw	r19,12(sp)
 180552c:	04c06074 	movhi	r19,385
 1805530:	9cc64404 	addi	r19,r19,6416
 1805534:	dc800215 	stw	r18,8(sp)
 1805538:	dc400115 	stw	r17,4(sp)
 180553c:	dc000015 	stw	r16,0(sp)
 1805540:	2823883a 	mov	r17,r5
 1805544:	2025883a 	mov	r18,r4
 1805548:	dfc00415 	stw	ra,16(sp)
 180554c:	180a90c0 	call	180a90c <__malloc_lock>
 1805550:	98800217 	ldw	r2,8(r19)
 1805554:	9009883a 	mov	r4,r18
 1805558:	000b883a 	mov	r5,zero
 180555c:	10c00117 	ldw	r3,4(r2)
 1805560:	00bfff04 	movi	r2,-4
 1805564:	18a0703a 	and	r16,r3,r2
 1805568:	8463c83a 	sub	r17,r16,r17
 180556c:	8c43fbc4 	addi	r17,r17,4079
 1805570:	8822d33a 	srli	r17,r17,12
 1805574:	0083ffc4 	movi	r2,4095
 1805578:	8c7fffc4 	addi	r17,r17,-1
 180557c:	8822933a 	slli	r17,r17,12
 1805580:	1440060e 	bge	r2,r17,180559c <_malloc_trim_r+0x78>
 1805584:	180826c0 	call	180826c <_sbrk_r>
 1805588:	98c00217 	ldw	r3,8(r19)
 180558c:	9009883a 	mov	r4,r18
 1805590:	044bc83a 	sub	r5,zero,r17
 1805594:	80c7883a 	add	r3,r16,r3
 1805598:	10c00926 	beq	r2,r3,18055c0 <_malloc_trim_r+0x9c>
 180559c:	180a92c0 	call	180a92c <__malloc_unlock>
 18055a0:	0005883a 	mov	r2,zero
 18055a4:	dfc00417 	ldw	ra,16(sp)
 18055a8:	dcc00317 	ldw	r19,12(sp)
 18055ac:	dc800217 	ldw	r18,8(sp)
 18055b0:	dc400117 	ldw	r17,4(sp)
 18055b4:	dc000017 	ldw	r16,0(sp)
 18055b8:	dec00504 	addi	sp,sp,20
 18055bc:	f800283a 	ret
 18055c0:	9009883a 	mov	r4,r18
 18055c4:	180826c0 	call	180826c <_sbrk_r>
 18055c8:	844dc83a 	sub	r6,r16,r17
 18055cc:	00ffffc4 	movi	r3,-1
 18055d0:	9009883a 	mov	r4,r18
 18055d4:	000b883a 	mov	r5,zero
 18055d8:	01c06074 	movhi	r7,385
 18055dc:	39cc9904 	addi	r7,r7,12900
 18055e0:	31800054 	ori	r6,r6,1
 18055e4:	10c00926 	beq	r2,r3,180560c <_malloc_trim_r+0xe8>
 18055e8:	38800017 	ldw	r2,0(r7)
 18055ec:	98c00217 	ldw	r3,8(r19)
 18055f0:	9009883a 	mov	r4,r18
 18055f4:	1445c83a 	sub	r2,r2,r17
 18055f8:	38800015 	stw	r2,0(r7)
 18055fc:	19800115 	stw	r6,4(r3)
 1805600:	180a92c0 	call	180a92c <__malloc_unlock>
 1805604:	00800044 	movi	r2,1
 1805608:	003fe606 	br	18055a4 <_malloc_trim_r+0x80>
 180560c:	180826c0 	call	180826c <_sbrk_r>
 1805610:	99800217 	ldw	r6,8(r19)
 1805614:	100f883a 	mov	r7,r2
 1805618:	9009883a 	mov	r4,r18
 180561c:	1187c83a 	sub	r3,r2,r6
 1805620:	008003c4 	movi	r2,15
 1805624:	19400054 	ori	r5,r3,1
 1805628:	10ffdc0e 	bge	r2,r3,180559c <_malloc_trim_r+0x78>
 180562c:	00806074 	movhi	r2,385
 1805630:	108c7c04 	addi	r2,r2,12784
 1805634:	10c00017 	ldw	r3,0(r2)
 1805638:	00806074 	movhi	r2,385
 180563c:	108c9904 	addi	r2,r2,12900
 1805640:	31400115 	stw	r5,4(r6)
 1805644:	38c7c83a 	sub	r3,r7,r3
 1805648:	10c00015 	stw	r3,0(r2)
 180564c:	003fd306 	br	180559c <_malloc_trim_r+0x78>

01805650 <_free_r>:
 1805650:	defffd04 	addi	sp,sp,-12
 1805654:	dc400115 	stw	r17,4(sp)
 1805658:	dc000015 	stw	r16,0(sp)
 180565c:	dfc00215 	stw	ra,8(sp)
 1805660:	2821883a 	mov	r16,r5
 1805664:	2023883a 	mov	r17,r4
 1805668:	28005a26 	beq	r5,zero,18057d4 <_free_r+0x184>
 180566c:	180a90c0 	call	180a90c <__malloc_lock>
 1805670:	823ffe04 	addi	r8,r16,-8
 1805674:	41400117 	ldw	r5,4(r8)
 1805678:	00bfff84 	movi	r2,-2
 180567c:	02806074 	movhi	r10,385
 1805680:	52864404 	addi	r10,r10,6416
 1805684:	288e703a 	and	r7,r5,r2
 1805688:	41cd883a 	add	r6,r8,r7
 180568c:	30c00117 	ldw	r3,4(r6)
 1805690:	51000217 	ldw	r4,8(r10)
 1805694:	00bfff04 	movi	r2,-4
 1805698:	1892703a 	and	r9,r3,r2
 180569c:	5017883a 	mov	r11,r10
 18056a0:	31006726 	beq	r6,r4,1805840 <_free_r+0x1f0>
 18056a4:	2880004c 	andi	r2,r5,1
 18056a8:	1005003a 	cmpeq	r2,r2,zero
 18056ac:	32400115 	stw	r9,4(r6)
 18056b0:	10001a1e 	bne	r2,zero,180571c <_free_r+0xcc>
 18056b4:	000b883a 	mov	r5,zero
 18056b8:	3247883a 	add	r3,r6,r9
 18056bc:	18800117 	ldw	r2,4(r3)
 18056c0:	1080004c 	andi	r2,r2,1
 18056c4:	1000231e 	bne	r2,zero,1805754 <_free_r+0x104>
 18056c8:	280ac03a 	cmpne	r5,r5,zero
 18056cc:	3a4f883a 	add	r7,r7,r9
 18056d0:	2800451e 	bne	r5,zero,18057e8 <_free_r+0x198>
 18056d4:	31000217 	ldw	r4,8(r6)
 18056d8:	00806074 	movhi	r2,385
 18056dc:	10864604 	addi	r2,r2,6424
 18056e0:	20807b26 	beq	r4,r2,18058d0 <_free_r+0x280>
 18056e4:	30800317 	ldw	r2,12(r6)
 18056e8:	3a07883a 	add	r3,r7,r8
 18056ec:	19c00015 	stw	r7,0(r3)
 18056f0:	11000215 	stw	r4,8(r2)
 18056f4:	20800315 	stw	r2,12(r4)
 18056f8:	38800054 	ori	r2,r7,1
 18056fc:	40800115 	stw	r2,4(r8)
 1805700:	28001a26 	beq	r5,zero,180576c <_free_r+0x11c>
 1805704:	8809883a 	mov	r4,r17
 1805708:	dfc00217 	ldw	ra,8(sp)
 180570c:	dc400117 	ldw	r17,4(sp)
 1805710:	dc000017 	ldw	r16,0(sp)
 1805714:	dec00304 	addi	sp,sp,12
 1805718:	180a92c1 	jmpi	180a92c <__malloc_unlock>
 180571c:	80bffe17 	ldw	r2,-8(r16)
 1805720:	50c00204 	addi	r3,r10,8
 1805724:	4091c83a 	sub	r8,r8,r2
 1805728:	41000217 	ldw	r4,8(r8)
 180572c:	388f883a 	add	r7,r7,r2
 1805730:	20c06126 	beq	r4,r3,18058b8 <_free_r+0x268>
 1805734:	40800317 	ldw	r2,12(r8)
 1805738:	3247883a 	add	r3,r6,r9
 180573c:	000b883a 	mov	r5,zero
 1805740:	11000215 	stw	r4,8(r2)
 1805744:	20800315 	stw	r2,12(r4)
 1805748:	18800117 	ldw	r2,4(r3)
 180574c:	1080004c 	andi	r2,r2,1
 1805750:	103fdd26 	beq	r2,zero,18056c8 <_free_r+0x78>
 1805754:	38800054 	ori	r2,r7,1
 1805758:	3a07883a 	add	r3,r7,r8
 180575c:	280ac03a 	cmpne	r5,r5,zero
 1805760:	40800115 	stw	r2,4(r8)
 1805764:	19c00015 	stw	r7,0(r3)
 1805768:	283fe61e 	bne	r5,zero,1805704 <_free_r+0xb4>
 180576c:	00807fc4 	movi	r2,511
 1805770:	11c01f2e 	bgeu	r2,r7,18057f0 <_free_r+0x1a0>
 1805774:	3806d27a 	srli	r3,r7,9
 1805778:	1800481e 	bne	r3,zero,180589c <_free_r+0x24c>
 180577c:	3804d0fa 	srli	r2,r7,3
 1805780:	100690fa 	slli	r3,r2,3
 1805784:	1acd883a 	add	r6,r3,r11
 1805788:	31400217 	ldw	r5,8(r6)
 180578c:	31405926 	beq	r6,r5,18058f4 <_free_r+0x2a4>
 1805790:	28800117 	ldw	r2,4(r5)
 1805794:	00ffff04 	movi	r3,-4
 1805798:	10c4703a 	and	r2,r2,r3
 180579c:	3880022e 	bgeu	r7,r2,18057a8 <_free_r+0x158>
 18057a0:	29400217 	ldw	r5,8(r5)
 18057a4:	317ffa1e 	bne	r6,r5,1805790 <_free_r+0x140>
 18057a8:	29800317 	ldw	r6,12(r5)
 18057ac:	41800315 	stw	r6,12(r8)
 18057b0:	41400215 	stw	r5,8(r8)
 18057b4:	8809883a 	mov	r4,r17
 18057b8:	2a000315 	stw	r8,12(r5)
 18057bc:	32000215 	stw	r8,8(r6)
 18057c0:	dfc00217 	ldw	ra,8(sp)
 18057c4:	dc400117 	ldw	r17,4(sp)
 18057c8:	dc000017 	ldw	r16,0(sp)
 18057cc:	dec00304 	addi	sp,sp,12
 18057d0:	180a92c1 	jmpi	180a92c <__malloc_unlock>
 18057d4:	dfc00217 	ldw	ra,8(sp)
 18057d8:	dc400117 	ldw	r17,4(sp)
 18057dc:	dc000017 	ldw	r16,0(sp)
 18057e0:	dec00304 	addi	sp,sp,12
 18057e4:	f800283a 	ret
 18057e8:	31000217 	ldw	r4,8(r6)
 18057ec:	003fbd06 	br	18056e4 <_free_r+0x94>
 18057f0:	3806d0fa 	srli	r3,r7,3
 18057f4:	00800044 	movi	r2,1
 18057f8:	51400117 	ldw	r5,4(r10)
 18057fc:	180890fa 	slli	r4,r3,3
 1805800:	1807d0ba 	srai	r3,r3,2
 1805804:	22c9883a 	add	r4,r4,r11
 1805808:	21800217 	ldw	r6,8(r4)
 180580c:	10c4983a 	sll	r2,r2,r3
 1805810:	41000315 	stw	r4,12(r8)
 1805814:	41800215 	stw	r6,8(r8)
 1805818:	288ab03a 	or	r5,r5,r2
 180581c:	22000215 	stw	r8,8(r4)
 1805820:	8809883a 	mov	r4,r17
 1805824:	51400115 	stw	r5,4(r10)
 1805828:	32000315 	stw	r8,12(r6)
 180582c:	dfc00217 	ldw	ra,8(sp)
 1805830:	dc400117 	ldw	r17,4(sp)
 1805834:	dc000017 	ldw	r16,0(sp)
 1805838:	dec00304 	addi	sp,sp,12
 180583c:	180a92c1 	jmpi	180a92c <__malloc_unlock>
 1805840:	2880004c 	andi	r2,r5,1
 1805844:	3a4d883a 	add	r6,r7,r9
 1805848:	1000071e 	bne	r2,zero,1805868 <_free_r+0x218>
 180584c:	80bffe17 	ldw	r2,-8(r16)
 1805850:	4091c83a 	sub	r8,r8,r2
 1805854:	41000317 	ldw	r4,12(r8)
 1805858:	40c00217 	ldw	r3,8(r8)
 180585c:	308d883a 	add	r6,r6,r2
 1805860:	20c00215 	stw	r3,8(r4)
 1805864:	19000315 	stw	r4,12(r3)
 1805868:	00806074 	movhi	r2,385
 180586c:	108c7b04 	addi	r2,r2,12780
 1805870:	11000017 	ldw	r4,0(r2)
 1805874:	30c00054 	ori	r3,r6,1
 1805878:	52000215 	stw	r8,8(r10)
 180587c:	40c00115 	stw	r3,4(r8)
 1805880:	313fa036 	bltu	r6,r4,1805704 <_free_r+0xb4>
 1805884:	00806074 	movhi	r2,385
 1805888:	108c8e04 	addi	r2,r2,12856
 180588c:	11400017 	ldw	r5,0(r2)
 1805890:	8809883a 	mov	r4,r17
 1805894:	18055240 	call	1805524 <_malloc_trim_r>
 1805898:	003f9a06 	br	1805704 <_free_r+0xb4>
 180589c:	00800104 	movi	r2,4
 18058a0:	10c0072e 	bgeu	r2,r3,18058c0 <_free_r+0x270>
 18058a4:	00800504 	movi	r2,20
 18058a8:	10c01936 	bltu	r2,r3,1805910 <_free_r+0x2c0>
 18058ac:	188016c4 	addi	r2,r3,91
 18058b0:	100690fa 	slli	r3,r2,3
 18058b4:	003fb306 	br	1805784 <_free_r+0x134>
 18058b8:	01400044 	movi	r5,1
 18058bc:	003f7e06 	br	18056b8 <_free_r+0x68>
 18058c0:	3804d1ba 	srli	r2,r7,6
 18058c4:	10800e04 	addi	r2,r2,56
 18058c8:	100690fa 	slli	r3,r2,3
 18058cc:	003fad06 	br	1805784 <_free_r+0x134>
 18058d0:	22000315 	stw	r8,12(r4)
 18058d4:	22000215 	stw	r8,8(r4)
 18058d8:	3a05883a 	add	r2,r7,r8
 18058dc:	38c00054 	ori	r3,r7,1
 18058e0:	11c00015 	stw	r7,0(r2)
 18058e4:	41000215 	stw	r4,8(r8)
 18058e8:	40c00115 	stw	r3,4(r8)
 18058ec:	41000315 	stw	r4,12(r8)
 18058f0:	003f8406 	br	1805704 <_free_r+0xb4>
 18058f4:	1005d0ba 	srai	r2,r2,2
 18058f8:	00c00044 	movi	r3,1
 18058fc:	51000117 	ldw	r4,4(r10)
 1805900:	1886983a 	sll	r3,r3,r2
 1805904:	20c8b03a 	or	r4,r4,r3
 1805908:	51000115 	stw	r4,4(r10)
 180590c:	003fa706 	br	18057ac <_free_r+0x15c>
 1805910:	00801504 	movi	r2,84
 1805914:	10c00436 	bltu	r2,r3,1805928 <_free_r+0x2d8>
 1805918:	3804d33a 	srli	r2,r7,12
 180591c:	10801b84 	addi	r2,r2,110
 1805920:	100690fa 	slli	r3,r2,3
 1805924:	003f9706 	br	1805784 <_free_r+0x134>
 1805928:	00805504 	movi	r2,340
 180592c:	10c00436 	bltu	r2,r3,1805940 <_free_r+0x2f0>
 1805930:	3804d3fa 	srli	r2,r7,15
 1805934:	10801dc4 	addi	r2,r2,119
 1805938:	100690fa 	slli	r3,r2,3
 180593c:	003f9106 	br	1805784 <_free_r+0x134>
 1805940:	00815504 	movi	r2,1364
 1805944:	10c0032e 	bgeu	r2,r3,1805954 <_free_r+0x304>
 1805948:	00801f84 	movi	r2,126
 180594c:	00c0fc04 	movi	r3,1008
 1805950:	003f8c06 	br	1805784 <_free_r+0x134>
 1805954:	3804d4ba 	srli	r2,r7,18
 1805958:	10801f04 	addi	r2,r2,124
 180595c:	100690fa 	slli	r3,r2,3
 1805960:	003f8806 	br	1805784 <_free_r+0x134>

01805964 <__sfvwrite_r>:
 1805964:	30800217 	ldw	r2,8(r6)
 1805968:	defff504 	addi	sp,sp,-44
 180596c:	df000915 	stw	fp,36(sp)
 1805970:	dd800715 	stw	r22,28(sp)
 1805974:	dc800315 	stw	r18,12(sp)
 1805978:	dfc00a15 	stw	ra,40(sp)
 180597c:	ddc00815 	stw	r23,32(sp)
 1805980:	dd400615 	stw	r21,24(sp)
 1805984:	dd000515 	stw	r20,20(sp)
 1805988:	dcc00415 	stw	r19,16(sp)
 180598c:	dc400215 	stw	r17,8(sp)
 1805990:	dc000115 	stw	r16,4(sp)
 1805994:	302d883a 	mov	r22,r6
 1805998:	2039883a 	mov	fp,r4
 180599c:	2825883a 	mov	r18,r5
 18059a0:	10001c26 	beq	r2,zero,1805a14 <__sfvwrite_r+0xb0>
 18059a4:	29c0030b 	ldhu	r7,12(r5)
 18059a8:	3880020c 	andi	r2,r7,8
 18059ac:	10002726 	beq	r2,zero,1805a4c <__sfvwrite_r+0xe8>
 18059b0:	28800417 	ldw	r2,16(r5)
 18059b4:	10002526 	beq	r2,zero,1805a4c <__sfvwrite_r+0xe8>
 18059b8:	3880008c 	andi	r2,r7,2
 18059bc:	b5400017 	ldw	r21,0(r22)
 18059c0:	10002826 	beq	r2,zero,1805a64 <__sfvwrite_r+0x100>
 18059c4:	0021883a 	mov	r16,zero
 18059c8:	0023883a 	mov	r17,zero
 18059cc:	880d883a 	mov	r6,r17
 18059d0:	e009883a 	mov	r4,fp
 18059d4:	00810004 	movi	r2,1024
 18059d8:	80006e26 	beq	r16,zero,1805b94 <__sfvwrite_r+0x230>
 18059dc:	800f883a 	mov	r7,r16
 18059e0:	91400717 	ldw	r5,28(r18)
 18059e4:	1400012e 	bgeu	r2,r16,18059ec <__sfvwrite_r+0x88>
 18059e8:	100f883a 	mov	r7,r2
 18059ec:	90c00917 	ldw	r3,36(r18)
 18059f0:	183ee83a 	callr	r3
 18059f4:	1007883a 	mov	r3,r2
 18059f8:	80a1c83a 	sub	r16,r16,r2
 18059fc:	88a3883a 	add	r17,r17,r2
 1805a00:	00806d0e 	bge	zero,r2,1805bb8 <__sfvwrite_r+0x254>
 1805a04:	b0800217 	ldw	r2,8(r22)
 1805a08:	10c5c83a 	sub	r2,r2,r3
 1805a0c:	b0800215 	stw	r2,8(r22)
 1805a10:	103fee1e 	bne	r2,zero,18059cc <__sfvwrite_r+0x68>
 1805a14:	0009883a 	mov	r4,zero
 1805a18:	2005883a 	mov	r2,r4
 1805a1c:	dfc00a17 	ldw	ra,40(sp)
 1805a20:	df000917 	ldw	fp,36(sp)
 1805a24:	ddc00817 	ldw	r23,32(sp)
 1805a28:	dd800717 	ldw	r22,28(sp)
 1805a2c:	dd400617 	ldw	r21,24(sp)
 1805a30:	dd000517 	ldw	r20,20(sp)
 1805a34:	dcc00417 	ldw	r19,16(sp)
 1805a38:	dc800317 	ldw	r18,12(sp)
 1805a3c:	dc400217 	ldw	r17,8(sp)
 1805a40:	dc000117 	ldw	r16,4(sp)
 1805a44:	dec00b04 	addi	sp,sp,44
 1805a48:	f800283a 	ret
 1805a4c:	180372c0 	call	180372c <__swsetup_r>
 1805a50:	1000e41e 	bne	r2,zero,1805de4 <__sfvwrite_r+0x480>
 1805a54:	91c0030b 	ldhu	r7,12(r18)
 1805a58:	b5400017 	ldw	r21,0(r22)
 1805a5c:	3880008c 	andi	r2,r7,2
 1805a60:	103fd81e 	bne	r2,zero,18059c4 <__sfvwrite_r+0x60>
 1805a64:	3880004c 	andi	r2,r7,1
 1805a68:	1005003a 	cmpeq	r2,r2,zero
 1805a6c:	10005726 	beq	r2,zero,1805bcc <__sfvwrite_r+0x268>
 1805a70:	0029883a 	mov	r20,zero
 1805a74:	002f883a 	mov	r23,zero
 1805a78:	a0004226 	beq	r20,zero,1805b84 <__sfvwrite_r+0x220>
 1805a7c:	3880800c 	andi	r2,r7,512
 1805a80:	94000217 	ldw	r16,8(r18)
 1805a84:	10008b26 	beq	r2,zero,1805cb4 <__sfvwrite_r+0x350>
 1805a88:	800d883a 	mov	r6,r16
 1805a8c:	a400a536 	bltu	r20,r16,1805d24 <__sfvwrite_r+0x3c0>
 1805a90:	3881200c 	andi	r2,r7,1152
 1805a94:	10002726 	beq	r2,zero,1805b34 <__sfvwrite_r+0x1d0>
 1805a98:	90800517 	ldw	r2,20(r18)
 1805a9c:	92000417 	ldw	r8,16(r18)
 1805aa0:	91400017 	ldw	r5,0(r18)
 1805aa4:	1087883a 	add	r3,r2,r2
 1805aa8:	1887883a 	add	r3,r3,r2
 1805aac:	1808d7fa 	srli	r4,r3,31
 1805ab0:	2a21c83a 	sub	r16,r5,r8
 1805ab4:	80800044 	addi	r2,r16,1
 1805ab8:	20c9883a 	add	r4,r4,r3
 1805abc:	2027d07a 	srai	r19,r4,1
 1805ac0:	a085883a 	add	r2,r20,r2
 1805ac4:	980d883a 	mov	r6,r19
 1805ac8:	9880022e 	bgeu	r19,r2,1805ad4 <__sfvwrite_r+0x170>
 1805acc:	1027883a 	mov	r19,r2
 1805ad0:	100d883a 	mov	r6,r2
 1805ad4:	3881000c 	andi	r2,r7,1024
 1805ad8:	1000b826 	beq	r2,zero,1805dbc <__sfvwrite_r+0x458>
 1805adc:	300b883a 	mov	r5,r6
 1805ae0:	e009883a 	mov	r4,fp
 1805ae4:	18061d80 	call	18061d8 <_malloc_r>
 1805ae8:	10003126 	beq	r2,zero,1805bb0 <__sfvwrite_r+0x24c>
 1805aec:	91400417 	ldw	r5,16(r18)
 1805af0:	1009883a 	mov	r4,r2
 1805af4:	800d883a 	mov	r6,r16
 1805af8:	1023883a 	mov	r17,r2
 1805afc:	18069fc0 	call	18069fc <memcpy>
 1805b00:	90c0030b 	ldhu	r3,12(r18)
 1805b04:	00beffc4 	movi	r2,-1025
 1805b08:	1886703a 	and	r3,r3,r2
 1805b0c:	18c02014 	ori	r3,r3,128
 1805b10:	90c0030d 	sth	r3,12(r18)
 1805b14:	9c07c83a 	sub	r3,r19,r16
 1805b18:	8c05883a 	add	r2,r17,r16
 1805b1c:	a00d883a 	mov	r6,r20
 1805b20:	a021883a 	mov	r16,r20
 1805b24:	90800015 	stw	r2,0(r18)
 1805b28:	90c00215 	stw	r3,8(r18)
 1805b2c:	94400415 	stw	r17,16(r18)
 1805b30:	94c00515 	stw	r19,20(r18)
 1805b34:	91000017 	ldw	r4,0(r18)
 1805b38:	b80b883a 	mov	r5,r23
 1805b3c:	a023883a 	mov	r17,r20
 1805b40:	1806a9c0 	call	1806a9c <memmove>
 1805b44:	90c00217 	ldw	r3,8(r18)
 1805b48:	90800017 	ldw	r2,0(r18)
 1805b4c:	a027883a 	mov	r19,r20
 1805b50:	1c07c83a 	sub	r3,r3,r16
 1805b54:	1405883a 	add	r2,r2,r16
 1805b58:	90c00215 	stw	r3,8(r18)
 1805b5c:	a021883a 	mov	r16,r20
 1805b60:	90800015 	stw	r2,0(r18)
 1805b64:	b0800217 	ldw	r2,8(r22)
 1805b68:	1405c83a 	sub	r2,r2,r16
 1805b6c:	b0800215 	stw	r2,8(r22)
 1805b70:	103fa826 	beq	r2,zero,1805a14 <__sfvwrite_r+0xb0>
 1805b74:	a469c83a 	sub	r20,r20,r17
 1805b78:	91c0030b 	ldhu	r7,12(r18)
 1805b7c:	bcef883a 	add	r23,r23,r19
 1805b80:	a03fbe1e 	bne	r20,zero,1805a7c <__sfvwrite_r+0x118>
 1805b84:	adc00017 	ldw	r23,0(r21)
 1805b88:	ad000117 	ldw	r20,4(r21)
 1805b8c:	ad400204 	addi	r21,r21,8
 1805b90:	003fb906 	br	1805a78 <__sfvwrite_r+0x114>
 1805b94:	ac400017 	ldw	r17,0(r21)
 1805b98:	ac000117 	ldw	r16,4(r21)
 1805b9c:	ad400204 	addi	r21,r21,8
 1805ba0:	003f8a06 	br	18059cc <__sfvwrite_r+0x68>
 1805ba4:	91400417 	ldw	r5,16(r18)
 1805ba8:	e009883a 	mov	r4,fp
 1805bac:	18056500 	call	1805650 <_free_r>
 1805bb0:	00800304 	movi	r2,12
 1805bb4:	e0800015 	stw	r2,0(fp)
 1805bb8:	9080030b 	ldhu	r2,12(r18)
 1805bbc:	013fffc4 	movi	r4,-1
 1805bc0:	10801014 	ori	r2,r2,64
 1805bc4:	9080030d 	sth	r2,12(r18)
 1805bc8:	003f9306 	br	1805a18 <__sfvwrite_r+0xb4>
 1805bcc:	0027883a 	mov	r19,zero
 1805bd0:	002f883a 	mov	r23,zero
 1805bd4:	d8000015 	stw	zero,0(sp)
 1805bd8:	0029883a 	mov	r20,zero
 1805bdc:	98001e26 	beq	r19,zero,1805c58 <__sfvwrite_r+0x2f4>
 1805be0:	d8c00017 	ldw	r3,0(sp)
 1805be4:	1804c03a 	cmpne	r2,r3,zero
 1805be8:	10005e26 	beq	r2,zero,1805d64 <__sfvwrite_r+0x400>
 1805bec:	9821883a 	mov	r16,r19
 1805bf0:	a4c0012e 	bgeu	r20,r19,1805bf8 <__sfvwrite_r+0x294>
 1805bf4:	a021883a 	mov	r16,r20
 1805bf8:	91000017 	ldw	r4,0(r18)
 1805bfc:	90800417 	ldw	r2,16(r18)
 1805c00:	91800217 	ldw	r6,8(r18)
 1805c04:	91c00517 	ldw	r7,20(r18)
 1805c08:	1100022e 	bgeu	r2,r4,1805c14 <__sfvwrite_r+0x2b0>
 1805c0c:	31e3883a 	add	r17,r6,r7
 1805c10:	8c001616 	blt	r17,r16,1805c6c <__sfvwrite_r+0x308>
 1805c14:	81c03816 	blt	r16,r7,1805cf8 <__sfvwrite_r+0x394>
 1805c18:	90c00917 	ldw	r3,36(r18)
 1805c1c:	91400717 	ldw	r5,28(r18)
 1805c20:	e009883a 	mov	r4,fp
 1805c24:	b80d883a 	mov	r6,r23
 1805c28:	183ee83a 	callr	r3
 1805c2c:	1023883a 	mov	r17,r2
 1805c30:	00bfe10e 	bge	zero,r2,1805bb8 <__sfvwrite_r+0x254>
 1805c34:	a469c83a 	sub	r20,r20,r17
 1805c38:	a0001826 	beq	r20,zero,1805c9c <__sfvwrite_r+0x338>
 1805c3c:	b0800217 	ldw	r2,8(r22)
 1805c40:	1445c83a 	sub	r2,r2,r17
 1805c44:	b0800215 	stw	r2,8(r22)
 1805c48:	103f7226 	beq	r2,zero,1805a14 <__sfvwrite_r+0xb0>
 1805c4c:	9c67c83a 	sub	r19,r19,r17
 1805c50:	bc6f883a 	add	r23,r23,r17
 1805c54:	983fe21e 	bne	r19,zero,1805be0 <__sfvwrite_r+0x27c>
 1805c58:	adc00017 	ldw	r23,0(r21)
 1805c5c:	acc00117 	ldw	r19,4(r21)
 1805c60:	ad400204 	addi	r21,r21,8
 1805c64:	d8000015 	stw	zero,0(sp)
 1805c68:	003fdc06 	br	1805bdc <__sfvwrite_r+0x278>
 1805c6c:	b80b883a 	mov	r5,r23
 1805c70:	880d883a 	mov	r6,r17
 1805c74:	1806a9c0 	call	1806a9c <memmove>
 1805c78:	90c00017 	ldw	r3,0(r18)
 1805c7c:	e009883a 	mov	r4,fp
 1805c80:	900b883a 	mov	r5,r18
 1805c84:	1c47883a 	add	r3,r3,r17
 1805c88:	90c00015 	stw	r3,0(r18)
 1805c8c:	18050340 	call	1805034 <_fflush_r>
 1805c90:	103fc91e 	bne	r2,zero,1805bb8 <__sfvwrite_r+0x254>
 1805c94:	a469c83a 	sub	r20,r20,r17
 1805c98:	a03fe81e 	bne	r20,zero,1805c3c <__sfvwrite_r+0x2d8>
 1805c9c:	e009883a 	mov	r4,fp
 1805ca0:	900b883a 	mov	r5,r18
 1805ca4:	18050340 	call	1805034 <_fflush_r>
 1805ca8:	103fc31e 	bne	r2,zero,1805bb8 <__sfvwrite_r+0x254>
 1805cac:	d8000015 	stw	zero,0(sp)
 1805cb0:	003fe206 	br	1805c3c <__sfvwrite_r+0x2d8>
 1805cb4:	91000017 	ldw	r4,0(r18)
 1805cb8:	90800417 	ldw	r2,16(r18)
 1805cbc:	1100022e 	bgeu	r2,r4,1805cc8 <__sfvwrite_r+0x364>
 1805cc0:	8023883a 	mov	r17,r16
 1805cc4:	85003136 	bltu	r16,r20,1805d8c <__sfvwrite_r+0x428>
 1805cc8:	91c00517 	ldw	r7,20(r18)
 1805ccc:	a1c01836 	bltu	r20,r7,1805d30 <__sfvwrite_r+0x3cc>
 1805cd0:	90c00917 	ldw	r3,36(r18)
 1805cd4:	91400717 	ldw	r5,28(r18)
 1805cd8:	e009883a 	mov	r4,fp
 1805cdc:	b80d883a 	mov	r6,r23
 1805ce0:	183ee83a 	callr	r3
 1805ce4:	1021883a 	mov	r16,r2
 1805ce8:	00bfb30e 	bge	zero,r2,1805bb8 <__sfvwrite_r+0x254>
 1805cec:	1023883a 	mov	r17,r2
 1805cf0:	1027883a 	mov	r19,r2
 1805cf4:	003f9b06 	br	1805b64 <__sfvwrite_r+0x200>
 1805cf8:	b80b883a 	mov	r5,r23
 1805cfc:	800d883a 	mov	r6,r16
 1805d00:	1806a9c0 	call	1806a9c <memmove>
 1805d04:	90c00217 	ldw	r3,8(r18)
 1805d08:	90800017 	ldw	r2,0(r18)
 1805d0c:	8023883a 	mov	r17,r16
 1805d10:	1c07c83a 	sub	r3,r3,r16
 1805d14:	1405883a 	add	r2,r2,r16
 1805d18:	90c00215 	stw	r3,8(r18)
 1805d1c:	90800015 	stw	r2,0(r18)
 1805d20:	003fc406 	br	1805c34 <__sfvwrite_r+0x2d0>
 1805d24:	a00d883a 	mov	r6,r20
 1805d28:	a021883a 	mov	r16,r20
 1805d2c:	003f8106 	br	1805b34 <__sfvwrite_r+0x1d0>
 1805d30:	b80b883a 	mov	r5,r23
 1805d34:	a00d883a 	mov	r6,r20
 1805d38:	1806a9c0 	call	1806a9c <memmove>
 1805d3c:	90c00217 	ldw	r3,8(r18)
 1805d40:	90800017 	ldw	r2,0(r18)
 1805d44:	a021883a 	mov	r16,r20
 1805d48:	1d07c83a 	sub	r3,r3,r20
 1805d4c:	1505883a 	add	r2,r2,r20
 1805d50:	a023883a 	mov	r17,r20
 1805d54:	a027883a 	mov	r19,r20
 1805d58:	90c00215 	stw	r3,8(r18)
 1805d5c:	90800015 	stw	r2,0(r18)
 1805d60:	003f8006 	br	1805b64 <__sfvwrite_r+0x200>
 1805d64:	b809883a 	mov	r4,r23
 1805d68:	01400284 	movi	r5,10
 1805d6c:	980d883a 	mov	r6,r19
 1805d70:	18069180 	call	1806918 <memchr>
 1805d74:	10001726 	beq	r2,zero,1805dd4 <__sfvwrite_r+0x470>
 1805d78:	15c5c83a 	sub	r2,r2,r23
 1805d7c:	15000044 	addi	r20,r2,1
 1805d80:	00800044 	movi	r2,1
 1805d84:	d8800015 	stw	r2,0(sp)
 1805d88:	003f9806 	br	1805bec <__sfvwrite_r+0x288>
 1805d8c:	b80b883a 	mov	r5,r23
 1805d90:	800d883a 	mov	r6,r16
 1805d94:	1806a9c0 	call	1806a9c <memmove>
 1805d98:	90c00017 	ldw	r3,0(r18)
 1805d9c:	e009883a 	mov	r4,fp
 1805da0:	900b883a 	mov	r5,r18
 1805da4:	1c07883a 	add	r3,r3,r16
 1805da8:	90c00015 	stw	r3,0(r18)
 1805dac:	8027883a 	mov	r19,r16
 1805db0:	18050340 	call	1805034 <_fflush_r>
 1805db4:	103f6b26 	beq	r2,zero,1805b64 <__sfvwrite_r+0x200>
 1805db8:	003f7f06 	br	1805bb8 <__sfvwrite_r+0x254>
 1805dbc:	400b883a 	mov	r5,r8
 1805dc0:	e009883a 	mov	r4,fp
 1805dc4:	1807c080 	call	1807c08 <_realloc_r>
 1805dc8:	103f7626 	beq	r2,zero,1805ba4 <__sfvwrite_r+0x240>
 1805dcc:	1023883a 	mov	r17,r2
 1805dd0:	003f5006 	br	1805b14 <__sfvwrite_r+0x1b0>
 1805dd4:	00c00044 	movi	r3,1
 1805dd8:	9d000044 	addi	r20,r19,1
 1805ddc:	d8c00015 	stw	r3,0(sp)
 1805de0:	003f8206 	br	1805bec <__sfvwrite_r+0x288>
 1805de4:	9080030b 	ldhu	r2,12(r18)
 1805de8:	00c00244 	movi	r3,9
 1805dec:	013fffc4 	movi	r4,-1
 1805df0:	10801014 	ori	r2,r2,64
 1805df4:	9080030d 	sth	r2,12(r18)
 1805df8:	e0c00015 	stw	r3,0(fp)
 1805dfc:	003f0606 	br	1805a18 <__sfvwrite_r+0xb4>

01805e00 <_fwalk_reent>:
 1805e00:	defff704 	addi	sp,sp,-36
 1805e04:	dcc00315 	stw	r19,12(sp)
 1805e08:	24c0b804 	addi	r19,r4,736
 1805e0c:	dd800615 	stw	r22,24(sp)
 1805e10:	dd400515 	stw	r21,20(sp)
 1805e14:	dfc00815 	stw	ra,32(sp)
 1805e18:	ddc00715 	stw	r23,28(sp)
 1805e1c:	dd000415 	stw	r20,16(sp)
 1805e20:	dc800215 	stw	r18,8(sp)
 1805e24:	dc400115 	stw	r17,4(sp)
 1805e28:	dc000015 	stw	r16,0(sp)
 1805e2c:	202b883a 	mov	r21,r4
 1805e30:	282d883a 	mov	r22,r5
 1805e34:	18052bc0 	call	18052bc <__sfp_lock_acquire>
 1805e38:	98002126 	beq	r19,zero,1805ec0 <_fwalk_reent+0xc0>
 1805e3c:	002f883a 	mov	r23,zero
 1805e40:	9c800117 	ldw	r18,4(r19)
 1805e44:	9c000217 	ldw	r16,8(r19)
 1805e48:	90bfffc4 	addi	r2,r18,-1
 1805e4c:	10000d16 	blt	r2,zero,1805e84 <_fwalk_reent+0x84>
 1805e50:	0023883a 	mov	r17,zero
 1805e54:	053fffc4 	movi	r20,-1
 1805e58:	8080030f 	ldh	r2,12(r16)
 1805e5c:	8c400044 	addi	r17,r17,1
 1805e60:	10000626 	beq	r2,zero,1805e7c <_fwalk_reent+0x7c>
 1805e64:	8080038f 	ldh	r2,14(r16)
 1805e68:	800b883a 	mov	r5,r16
 1805e6c:	a809883a 	mov	r4,r21
 1805e70:	15000226 	beq	r2,r20,1805e7c <_fwalk_reent+0x7c>
 1805e74:	b03ee83a 	callr	r22
 1805e78:	b8aeb03a 	or	r23,r23,r2
 1805e7c:	84001704 	addi	r16,r16,92
 1805e80:	947ff51e 	bne	r18,r17,1805e58 <_fwalk_reent+0x58>
 1805e84:	9cc00017 	ldw	r19,0(r19)
 1805e88:	983fed1e 	bne	r19,zero,1805e40 <_fwalk_reent+0x40>
 1805e8c:	18052c00 	call	18052c0 <__sfp_lock_release>
 1805e90:	b805883a 	mov	r2,r23
 1805e94:	dfc00817 	ldw	ra,32(sp)
 1805e98:	ddc00717 	ldw	r23,28(sp)
 1805e9c:	dd800617 	ldw	r22,24(sp)
 1805ea0:	dd400517 	ldw	r21,20(sp)
 1805ea4:	dd000417 	ldw	r20,16(sp)
 1805ea8:	dcc00317 	ldw	r19,12(sp)
 1805eac:	dc800217 	ldw	r18,8(sp)
 1805eb0:	dc400117 	ldw	r17,4(sp)
 1805eb4:	dc000017 	ldw	r16,0(sp)
 1805eb8:	dec00904 	addi	sp,sp,36
 1805ebc:	f800283a 	ret
 1805ec0:	002f883a 	mov	r23,zero
 1805ec4:	003ff106 	br	1805e8c <_fwalk_reent+0x8c>

01805ec8 <_fwalk>:
 1805ec8:	defff804 	addi	sp,sp,-32
 1805ecc:	dcc00315 	stw	r19,12(sp)
 1805ed0:	24c0b804 	addi	r19,r4,736
 1805ed4:	dd400515 	stw	r21,20(sp)
 1805ed8:	dfc00715 	stw	ra,28(sp)
 1805edc:	dd800615 	stw	r22,24(sp)
 1805ee0:	dd000415 	stw	r20,16(sp)
 1805ee4:	dc800215 	stw	r18,8(sp)
 1805ee8:	dc400115 	stw	r17,4(sp)
 1805eec:	dc000015 	stw	r16,0(sp)
 1805ef0:	282b883a 	mov	r21,r5
 1805ef4:	18052bc0 	call	18052bc <__sfp_lock_acquire>
 1805ef8:	98001f26 	beq	r19,zero,1805f78 <_fwalk+0xb0>
 1805efc:	002d883a 	mov	r22,zero
 1805f00:	9c800117 	ldw	r18,4(r19)
 1805f04:	9c000217 	ldw	r16,8(r19)
 1805f08:	90bfffc4 	addi	r2,r18,-1
 1805f0c:	10000c16 	blt	r2,zero,1805f40 <_fwalk+0x78>
 1805f10:	0023883a 	mov	r17,zero
 1805f14:	053fffc4 	movi	r20,-1
 1805f18:	8080030f 	ldh	r2,12(r16)
 1805f1c:	8c400044 	addi	r17,r17,1
 1805f20:	10000526 	beq	r2,zero,1805f38 <_fwalk+0x70>
 1805f24:	8080038f 	ldh	r2,14(r16)
 1805f28:	8009883a 	mov	r4,r16
 1805f2c:	15000226 	beq	r2,r20,1805f38 <_fwalk+0x70>
 1805f30:	a83ee83a 	callr	r21
 1805f34:	b0acb03a 	or	r22,r22,r2
 1805f38:	84001704 	addi	r16,r16,92
 1805f3c:	947ff61e 	bne	r18,r17,1805f18 <_fwalk+0x50>
 1805f40:	9cc00017 	ldw	r19,0(r19)
 1805f44:	983fee1e 	bne	r19,zero,1805f00 <_fwalk+0x38>
 1805f48:	18052c00 	call	18052c0 <__sfp_lock_release>
 1805f4c:	b005883a 	mov	r2,r22
 1805f50:	dfc00717 	ldw	ra,28(sp)
 1805f54:	dd800617 	ldw	r22,24(sp)
 1805f58:	dd400517 	ldw	r21,20(sp)
 1805f5c:	dd000417 	ldw	r20,16(sp)
 1805f60:	dcc00317 	ldw	r19,12(sp)
 1805f64:	dc800217 	ldw	r18,8(sp)
 1805f68:	dc400117 	ldw	r17,4(sp)
 1805f6c:	dc000017 	ldw	r16,0(sp)
 1805f70:	dec00804 	addi	sp,sp,32
 1805f74:	f800283a 	ret
 1805f78:	002d883a 	mov	r22,zero
 1805f7c:	003ff206 	br	1805f48 <_fwalk+0x80>

01805f80 <__locale_charset>:
 1805f80:	d0a00317 	ldw	r2,-32756(gp)
 1805f84:	f800283a 	ret

01805f88 <_localeconv_r>:
 1805f88:	00806074 	movhi	r2,385
 1805f8c:	10843604 	addi	r2,r2,4312
 1805f90:	f800283a 	ret

01805f94 <localeconv>:
 1805f94:	00806074 	movhi	r2,385
 1805f98:	108c7704 	addi	r2,r2,12764
 1805f9c:	11000017 	ldw	r4,0(r2)
 1805fa0:	1805f881 	jmpi	1805f88 <_localeconv_r>

01805fa4 <_setlocale_r>:
 1805fa4:	defffc04 	addi	sp,sp,-16
 1805fa8:	00c06074 	movhi	r3,385
 1805fac:	18c43104 	addi	r3,r3,4292
 1805fb0:	dc800215 	stw	r18,8(sp)
 1805fb4:	dc400115 	stw	r17,4(sp)
 1805fb8:	dc000015 	stw	r16,0(sp)
 1805fbc:	2023883a 	mov	r17,r4
 1805fc0:	2825883a 	mov	r18,r5
 1805fc4:	dfc00315 	stw	ra,12(sp)
 1805fc8:	3021883a 	mov	r16,r6
 1805fcc:	3009883a 	mov	r4,r6
 1805fd0:	180b883a 	mov	r5,r3
 1805fd4:	30000926 	beq	r6,zero,1805ffc <_setlocale_r+0x58>
 1805fd8:	18084280 	call	1808428 <strcmp>
 1805fdc:	8009883a 	mov	r4,r16
 1805fe0:	01406074 	movhi	r5,385
 1805fe4:	29441c04 	addi	r5,r5,4208
 1805fe8:	10000b1e 	bne	r2,zero,1806018 <_setlocale_r+0x74>
 1805fec:	8c000d15 	stw	r16,52(r17)
 1805ff0:	8c800c15 	stw	r18,48(r17)
 1805ff4:	00c06074 	movhi	r3,385
 1805ff8:	18c43104 	addi	r3,r3,4292
 1805ffc:	1805883a 	mov	r2,r3
 1806000:	dfc00317 	ldw	ra,12(sp)
 1806004:	dc800217 	ldw	r18,8(sp)
 1806008:	dc400117 	ldw	r17,4(sp)
 180600c:	dc000017 	ldw	r16,0(sp)
 1806010:	dec00404 	addi	sp,sp,16
 1806014:	f800283a 	ret
 1806018:	18084280 	call	1808428 <strcmp>
 180601c:	0007883a 	mov	r3,zero
 1806020:	103ff226 	beq	r2,zero,1805fec <_setlocale_r+0x48>
 1806024:	003ff506 	br	1805ffc <_setlocale_r+0x58>

01806028 <setlocale>:
 1806028:	01806074 	movhi	r6,385
 180602c:	318c7704 	addi	r6,r6,12764
 1806030:	2007883a 	mov	r3,r4
 1806034:	31000017 	ldw	r4,0(r6)
 1806038:	280d883a 	mov	r6,r5
 180603c:	180b883a 	mov	r5,r3
 1806040:	1805fa41 	jmpi	1805fa4 <_setlocale_r>

01806044 <__smakebuf_r>:
 1806044:	2880030b 	ldhu	r2,12(r5)
 1806048:	deffed04 	addi	sp,sp,-76
 180604c:	dc401015 	stw	r17,64(sp)
 1806050:	1080008c 	andi	r2,r2,2
 1806054:	dc000f15 	stw	r16,60(sp)
 1806058:	dfc01215 	stw	ra,72(sp)
 180605c:	dc801115 	stw	r18,68(sp)
 1806060:	2821883a 	mov	r16,r5
 1806064:	2023883a 	mov	r17,r4
 1806068:	10000b26 	beq	r2,zero,1806098 <__smakebuf_r+0x54>
 180606c:	28c010c4 	addi	r3,r5,67
 1806070:	00800044 	movi	r2,1
 1806074:	28800515 	stw	r2,20(r5)
 1806078:	28c00415 	stw	r3,16(r5)
 180607c:	28c00015 	stw	r3,0(r5)
 1806080:	dfc01217 	ldw	ra,72(sp)
 1806084:	dc801117 	ldw	r18,68(sp)
 1806088:	dc401017 	ldw	r17,64(sp)
 180608c:	dc000f17 	ldw	r16,60(sp)
 1806090:	dec01304 	addi	sp,sp,76
 1806094:	f800283a 	ret
 1806098:	2940038f 	ldh	r5,14(r5)
 180609c:	28002116 	blt	r5,zero,1806124 <__smakebuf_r+0xe0>
 18060a0:	d80d883a 	mov	r6,sp
 18060a4:	18088180 	call	1808818 <_fstat_r>
 18060a8:	10001e16 	blt	r2,zero,1806124 <__smakebuf_r+0xe0>
 18060ac:	d8800117 	ldw	r2,4(sp)
 18060b0:	00e00014 	movui	r3,32768
 18060b4:	113c000c 	andi	r4,r2,61440
 18060b8:	20c03126 	beq	r4,r3,1806180 <__smakebuf_r+0x13c>
 18060bc:	8080030b 	ldhu	r2,12(r16)
 18060c0:	00c80004 	movi	r3,8192
 18060c4:	10820014 	ori	r2,r2,2048
 18060c8:	8080030d 	sth	r2,12(r16)
 18060cc:	20c01e26 	beq	r4,r3,1806148 <__smakebuf_r+0x104>
 18060d0:	04810004 	movi	r18,1024
 18060d4:	8809883a 	mov	r4,r17
 18060d8:	900b883a 	mov	r5,r18
 18060dc:	18061d80 	call	18061d8 <_malloc_r>
 18060e0:	1009883a 	mov	r4,r2
 18060e4:	10003126 	beq	r2,zero,18061ac <__smakebuf_r+0x168>
 18060e8:	80c0030b 	ldhu	r3,12(r16)
 18060ec:	00806034 	movhi	r2,384
 18060f0:	1094ec04 	addi	r2,r2,21424
 18060f4:	88800f15 	stw	r2,60(r17)
 18060f8:	18c02014 	ori	r3,r3,128
 18060fc:	84800515 	stw	r18,20(r16)
 1806100:	80c0030d 	sth	r3,12(r16)
 1806104:	81000415 	stw	r4,16(r16)
 1806108:	81000015 	stw	r4,0(r16)
 180610c:	dfc01217 	ldw	ra,72(sp)
 1806110:	dc801117 	ldw	r18,68(sp)
 1806114:	dc401017 	ldw	r17,64(sp)
 1806118:	dc000f17 	ldw	r16,60(sp)
 180611c:	dec01304 	addi	sp,sp,76
 1806120:	f800283a 	ret
 1806124:	80c0030b 	ldhu	r3,12(r16)
 1806128:	1880200c 	andi	r2,r3,128
 180612c:	10000426 	beq	r2,zero,1806140 <__smakebuf_r+0xfc>
 1806130:	04801004 	movi	r18,64
 1806134:	18820014 	ori	r2,r3,2048
 1806138:	8080030d 	sth	r2,12(r16)
 180613c:	003fe506 	br	18060d4 <__smakebuf_r+0x90>
 1806140:	04810004 	movi	r18,1024
 1806144:	003ffb06 	br	1806134 <__smakebuf_r+0xf0>
 1806148:	8140038f 	ldh	r5,14(r16)
 180614c:	8809883a 	mov	r4,r17
 1806150:	180888c0 	call	180888c <_isatty_r>
 1806154:	103fde26 	beq	r2,zero,18060d0 <__smakebuf_r+0x8c>
 1806158:	8080030b 	ldhu	r2,12(r16)
 180615c:	80c010c4 	addi	r3,r16,67
 1806160:	04810004 	movi	r18,1024
 1806164:	10800054 	ori	r2,r2,1
 1806168:	8080030d 	sth	r2,12(r16)
 180616c:	00800044 	movi	r2,1
 1806170:	80c00415 	stw	r3,16(r16)
 1806174:	80800515 	stw	r2,20(r16)
 1806178:	80c00015 	stw	r3,0(r16)
 180617c:	003fd506 	br	18060d4 <__smakebuf_r+0x90>
 1806180:	80c00a17 	ldw	r3,40(r16)
 1806184:	00806074 	movhi	r2,385
 1806188:	10a0b904 	addi	r2,r2,-32028
 180618c:	18bfcb1e 	bne	r3,r2,18060bc <__smakebuf_r+0x78>
 1806190:	8080030b 	ldhu	r2,12(r16)
 1806194:	00c10004 	movi	r3,1024
 1806198:	1825883a 	mov	r18,r3
 180619c:	10c4b03a 	or	r2,r2,r3
 18061a0:	8080030d 	sth	r2,12(r16)
 18061a4:	80c01315 	stw	r3,76(r16)
 18061a8:	003fca06 	br	18060d4 <__smakebuf_r+0x90>
 18061ac:	8100030b 	ldhu	r4,12(r16)
 18061b0:	2080800c 	andi	r2,r4,512
 18061b4:	103fb21e 	bne	r2,zero,1806080 <__smakebuf_r+0x3c>
 18061b8:	80c010c4 	addi	r3,r16,67
 18061bc:	21000094 	ori	r4,r4,2
 18061c0:	00800044 	movi	r2,1
 18061c4:	80800515 	stw	r2,20(r16)
 18061c8:	8100030d 	sth	r4,12(r16)
 18061cc:	80c00415 	stw	r3,16(r16)
 18061d0:	80c00015 	stw	r3,0(r16)
 18061d4:	003faa06 	br	1806080 <__smakebuf_r+0x3c>

018061d8 <_malloc_r>:
 18061d8:	defff604 	addi	sp,sp,-40
 18061dc:	28c002c4 	addi	r3,r5,11
 18061e0:	00800584 	movi	r2,22
 18061e4:	dc800215 	stw	r18,8(sp)
 18061e8:	dfc00915 	stw	ra,36(sp)
 18061ec:	df000815 	stw	fp,32(sp)
 18061f0:	ddc00715 	stw	r23,28(sp)
 18061f4:	dd800615 	stw	r22,24(sp)
 18061f8:	dd400515 	stw	r21,20(sp)
 18061fc:	dd000415 	stw	r20,16(sp)
 1806200:	dcc00315 	stw	r19,12(sp)
 1806204:	dc400115 	stw	r17,4(sp)
 1806208:	dc000015 	stw	r16,0(sp)
 180620c:	2025883a 	mov	r18,r4
 1806210:	10c01236 	bltu	r2,r3,180625c <_malloc_r+0x84>
 1806214:	04400404 	movi	r17,16
 1806218:	8940142e 	bgeu	r17,r5,180626c <_malloc_r+0x94>
 180621c:	00800304 	movi	r2,12
 1806220:	0007883a 	mov	r3,zero
 1806224:	90800015 	stw	r2,0(r18)
 1806228:	1805883a 	mov	r2,r3
 180622c:	dfc00917 	ldw	ra,36(sp)
 1806230:	df000817 	ldw	fp,32(sp)
 1806234:	ddc00717 	ldw	r23,28(sp)
 1806238:	dd800617 	ldw	r22,24(sp)
 180623c:	dd400517 	ldw	r21,20(sp)
 1806240:	dd000417 	ldw	r20,16(sp)
 1806244:	dcc00317 	ldw	r19,12(sp)
 1806248:	dc800217 	ldw	r18,8(sp)
 180624c:	dc400117 	ldw	r17,4(sp)
 1806250:	dc000017 	ldw	r16,0(sp)
 1806254:	dec00a04 	addi	sp,sp,40
 1806258:	f800283a 	ret
 180625c:	00bffe04 	movi	r2,-8
 1806260:	18a2703a 	and	r17,r3,r2
 1806264:	883fed16 	blt	r17,zero,180621c <_malloc_r+0x44>
 1806268:	897fec36 	bltu	r17,r5,180621c <_malloc_r+0x44>
 180626c:	9009883a 	mov	r4,r18
 1806270:	180a90c0 	call	180a90c <__malloc_lock>
 1806274:	00807dc4 	movi	r2,503
 1806278:	14402b2e 	bgeu	r2,r17,1806328 <_malloc_r+0x150>
 180627c:	8806d27a 	srli	r3,r17,9
 1806280:	18003f1e 	bne	r3,zero,1806380 <_malloc_r+0x1a8>
 1806284:	880cd0fa 	srli	r6,r17,3
 1806288:	300490fa 	slli	r2,r6,3
 180628c:	02c06074 	movhi	r11,385
 1806290:	5ac64404 	addi	r11,r11,6416
 1806294:	12cb883a 	add	r5,r2,r11
 1806298:	2c000317 	ldw	r16,12(r5)
 180629c:	580f883a 	mov	r7,r11
 18062a0:	2c00041e 	bne	r5,r16,18062b4 <_malloc_r+0xdc>
 18062a4:	00000a06 	br	18062d0 <_malloc_r+0xf8>
 18062a8:	1800860e 	bge	r3,zero,18064c4 <_malloc_r+0x2ec>
 18062ac:	84000317 	ldw	r16,12(r16)
 18062b0:	2c000726 	beq	r5,r16,18062d0 <_malloc_r+0xf8>
 18062b4:	80800117 	ldw	r2,4(r16)
 18062b8:	00ffff04 	movi	r3,-4
 18062bc:	10c8703a 	and	r4,r2,r3
 18062c0:	2447c83a 	sub	r3,r4,r17
 18062c4:	008003c4 	movi	r2,15
 18062c8:	10fff70e 	bge	r2,r3,18062a8 <_malloc_r+0xd0>
 18062cc:	31bfffc4 	addi	r6,r6,-1
 18062d0:	32400044 	addi	r9,r6,1
 18062d4:	02806074 	movhi	r10,385
 18062d8:	52864604 	addi	r10,r10,6424
 18062dc:	54000217 	ldw	r16,8(r10)
 18062e0:	8280a026 	beq	r16,r10,1806564 <_malloc_r+0x38c>
 18062e4:	80800117 	ldw	r2,4(r16)
 18062e8:	00ffff04 	movi	r3,-4
 18062ec:	10ca703a 	and	r5,r2,r3
 18062f0:	2c4dc83a 	sub	r6,r5,r17
 18062f4:	008003c4 	movi	r2,15
 18062f8:	11808316 	blt	r2,r6,1806508 <_malloc_r+0x330>
 18062fc:	52800315 	stw	r10,12(r10)
 1806300:	52800215 	stw	r10,8(r10)
 1806304:	30002916 	blt	r6,zero,18063ac <_malloc_r+0x1d4>
 1806308:	8147883a 	add	r3,r16,r5
 180630c:	18800117 	ldw	r2,4(r3)
 1806310:	9009883a 	mov	r4,r18
 1806314:	10800054 	ori	r2,r2,1
 1806318:	18800115 	stw	r2,4(r3)
 180631c:	180a92c0 	call	180a92c <__malloc_unlock>
 1806320:	80c00204 	addi	r3,r16,8
 1806324:	003fc006 	br	1806228 <_malloc_r+0x50>
 1806328:	02c06074 	movhi	r11,385
 180632c:	5ac64404 	addi	r11,r11,6416
 1806330:	8ac5883a 	add	r2,r17,r11
 1806334:	14000317 	ldw	r16,12(r2)
 1806338:	580f883a 	mov	r7,r11
 180633c:	8806d0fa 	srli	r3,r17,3
 1806340:	14006c26 	beq	r2,r16,18064f4 <_malloc_r+0x31c>
 1806344:	80c00117 	ldw	r3,4(r16)
 1806348:	00bfff04 	movi	r2,-4
 180634c:	81800317 	ldw	r6,12(r16)
 1806350:	1886703a 	and	r3,r3,r2
 1806354:	80c7883a 	add	r3,r16,r3
 1806358:	18800117 	ldw	r2,4(r3)
 180635c:	81400217 	ldw	r5,8(r16)
 1806360:	9009883a 	mov	r4,r18
 1806364:	10800054 	ori	r2,r2,1
 1806368:	18800115 	stw	r2,4(r3)
 180636c:	31400215 	stw	r5,8(r6)
 1806370:	29800315 	stw	r6,12(r5)
 1806374:	180a92c0 	call	180a92c <__malloc_unlock>
 1806378:	80c00204 	addi	r3,r16,8
 180637c:	003faa06 	br	1806228 <_malloc_r+0x50>
 1806380:	00800104 	movi	r2,4
 1806384:	10c0052e 	bgeu	r2,r3,180639c <_malloc_r+0x1c4>
 1806388:	00800504 	movi	r2,20
 180638c:	10c07836 	bltu	r2,r3,1806570 <_malloc_r+0x398>
 1806390:	198016c4 	addi	r6,r3,91
 1806394:	300490fa 	slli	r2,r6,3
 1806398:	003fbc06 	br	180628c <_malloc_r+0xb4>
 180639c:	8804d1ba 	srli	r2,r17,6
 18063a0:	11800e04 	addi	r6,r2,56
 18063a4:	300490fa 	slli	r2,r6,3
 18063a8:	003fb806 	br	180628c <_malloc_r+0xb4>
 18063ac:	00807fc4 	movi	r2,511
 18063b0:	1140bb36 	bltu	r2,r5,18066a0 <_malloc_r+0x4c8>
 18063b4:	2806d0fa 	srli	r3,r5,3
 18063b8:	573ffe04 	addi	fp,r10,-8
 18063bc:	00800044 	movi	r2,1
 18063c0:	180890fa 	slli	r4,r3,3
 18063c4:	1807d0ba 	srai	r3,r3,2
 18063c8:	e1c00117 	ldw	r7,4(fp)
 18063cc:	5909883a 	add	r4,r11,r4
 18063d0:	21400217 	ldw	r5,8(r4)
 18063d4:	10c4983a 	sll	r2,r2,r3
 18063d8:	81000315 	stw	r4,12(r16)
 18063dc:	81400215 	stw	r5,8(r16)
 18063e0:	388eb03a 	or	r7,r7,r2
 18063e4:	2c000315 	stw	r16,12(r5)
 18063e8:	24000215 	stw	r16,8(r4)
 18063ec:	e1c00115 	stw	r7,4(fp)
 18063f0:	4807883a 	mov	r3,r9
 18063f4:	4800cd16 	blt	r9,zero,180672c <_malloc_r+0x554>
 18063f8:	1807d0ba 	srai	r3,r3,2
 18063fc:	00800044 	movi	r2,1
 1806400:	10c8983a 	sll	r4,r2,r3
 1806404:	39004436 	bltu	r7,r4,1806518 <_malloc_r+0x340>
 1806408:	21c4703a 	and	r2,r4,r7
 180640c:	10000a1e 	bne	r2,zero,1806438 <_malloc_r+0x260>
 1806410:	2109883a 	add	r4,r4,r4
 1806414:	00bfff04 	movi	r2,-4
 1806418:	4884703a 	and	r2,r9,r2
 180641c:	3906703a 	and	r3,r7,r4
 1806420:	12400104 	addi	r9,r2,4
 1806424:	1800041e 	bne	r3,zero,1806438 <_malloc_r+0x260>
 1806428:	2109883a 	add	r4,r4,r4
 180642c:	3904703a 	and	r2,r7,r4
 1806430:	4a400104 	addi	r9,r9,4
 1806434:	103ffc26 	beq	r2,zero,1806428 <_malloc_r+0x250>
 1806438:	480490fa 	slli	r2,r9,3
 180643c:	4819883a 	mov	r12,r9
 1806440:	023fff04 	movi	r8,-4
 1806444:	589b883a 	add	r13,r11,r2
 1806448:	6807883a 	mov	r3,r13
 180644c:	014003c4 	movi	r5,15
 1806450:	1c000317 	ldw	r16,12(r3)
 1806454:	1c00041e 	bne	r3,r16,1806468 <_malloc_r+0x290>
 1806458:	0000a706 	br	18066f8 <_malloc_r+0x520>
 180645c:	3000ab0e 	bge	r6,zero,180670c <_malloc_r+0x534>
 1806460:	84000317 	ldw	r16,12(r16)
 1806464:	1c00a426 	beq	r3,r16,18066f8 <_malloc_r+0x520>
 1806468:	80800117 	ldw	r2,4(r16)
 180646c:	1204703a 	and	r2,r2,r8
 1806470:	144dc83a 	sub	r6,r2,r17
 1806474:	29bff90e 	bge	r5,r6,180645c <_malloc_r+0x284>
 1806478:	81000317 	ldw	r4,12(r16)
 180647c:	80c00217 	ldw	r3,8(r16)
 1806480:	89400054 	ori	r5,r17,1
 1806484:	8445883a 	add	r2,r16,r17
 1806488:	20c00215 	stw	r3,8(r4)
 180648c:	19000315 	stw	r4,12(r3)
 1806490:	81400115 	stw	r5,4(r16)
 1806494:	1187883a 	add	r3,r2,r6
 1806498:	31000054 	ori	r4,r6,1
 180649c:	50800315 	stw	r2,12(r10)
 18064a0:	50800215 	stw	r2,8(r10)
 18064a4:	19800015 	stw	r6,0(r3)
 18064a8:	11000115 	stw	r4,4(r2)
 18064ac:	12800215 	stw	r10,8(r2)
 18064b0:	12800315 	stw	r10,12(r2)
 18064b4:	9009883a 	mov	r4,r18
 18064b8:	180a92c0 	call	180a92c <__malloc_unlock>
 18064bc:	80c00204 	addi	r3,r16,8
 18064c0:	003f5906 	br	1806228 <_malloc_r+0x50>
 18064c4:	8109883a 	add	r4,r16,r4
 18064c8:	20800117 	ldw	r2,4(r4)
 18064cc:	80c00217 	ldw	r3,8(r16)
 18064d0:	81400317 	ldw	r5,12(r16)
 18064d4:	10800054 	ori	r2,r2,1
 18064d8:	20800115 	stw	r2,4(r4)
 18064dc:	28c00215 	stw	r3,8(r5)
 18064e0:	19400315 	stw	r5,12(r3)
 18064e4:	9009883a 	mov	r4,r18
 18064e8:	180a92c0 	call	180a92c <__malloc_unlock>
 18064ec:	80c00204 	addi	r3,r16,8
 18064f0:	003f4d06 	br	1806228 <_malloc_r+0x50>
 18064f4:	80800204 	addi	r2,r16,8
 18064f8:	14000317 	ldw	r16,12(r2)
 18064fc:	143f911e 	bne	r2,r16,1806344 <_malloc_r+0x16c>
 1806500:	1a400084 	addi	r9,r3,2
 1806504:	003f7306 	br	18062d4 <_malloc_r+0xfc>
 1806508:	88c00054 	ori	r3,r17,1
 180650c:	8445883a 	add	r2,r16,r17
 1806510:	80c00115 	stw	r3,4(r16)
 1806514:	003fdf06 	br	1806494 <_malloc_r+0x2bc>
 1806518:	e4000217 	ldw	r16,8(fp)
 180651c:	00bfff04 	movi	r2,-4
 1806520:	80c00117 	ldw	r3,4(r16)
 1806524:	802d883a 	mov	r22,r16
 1806528:	18aa703a 	and	r21,r3,r2
 180652c:	ac401636 	bltu	r21,r17,1806588 <_malloc_r+0x3b0>
 1806530:	ac49c83a 	sub	r4,r21,r17
 1806534:	008003c4 	movi	r2,15
 1806538:	1100130e 	bge	r2,r4,1806588 <_malloc_r+0x3b0>
 180653c:	88800054 	ori	r2,r17,1
 1806540:	8447883a 	add	r3,r16,r17
 1806544:	80800115 	stw	r2,4(r16)
 1806548:	20800054 	ori	r2,r4,1
 180654c:	18800115 	stw	r2,4(r3)
 1806550:	e0c00215 	stw	r3,8(fp)
 1806554:	9009883a 	mov	r4,r18
 1806558:	180a92c0 	call	180a92c <__malloc_unlock>
 180655c:	80c00204 	addi	r3,r16,8
 1806560:	003f3106 	br	1806228 <_malloc_r+0x50>
 1806564:	39c00117 	ldw	r7,4(r7)
 1806568:	573ffe04 	addi	fp,r10,-8
 180656c:	003fa006 	br	18063f0 <_malloc_r+0x218>
 1806570:	00801504 	movi	r2,84
 1806574:	10c06736 	bltu	r2,r3,1806714 <_malloc_r+0x53c>
 1806578:	8804d33a 	srli	r2,r17,12
 180657c:	11801b84 	addi	r6,r2,110
 1806580:	300490fa 	slli	r2,r6,3
 1806584:	003f4106 	br	180628c <_malloc_r+0xb4>
 1806588:	d0a01717 	ldw	r2,-32676(gp)
 180658c:	d0e00517 	ldw	r3,-32748(gp)
 1806590:	053fffc4 	movi	r20,-1
 1806594:	10800404 	addi	r2,r2,16
 1806598:	88a7883a 	add	r19,r17,r2
 180659c:	1d000326 	beq	r3,r20,18065ac <_malloc_r+0x3d4>
 18065a0:	98c3ffc4 	addi	r3,r19,4095
 18065a4:	00bc0004 	movi	r2,-4096
 18065a8:	18a6703a 	and	r19,r3,r2
 18065ac:	9009883a 	mov	r4,r18
 18065b0:	980b883a 	mov	r5,r19
 18065b4:	180826c0 	call	180826c <_sbrk_r>
 18065b8:	1009883a 	mov	r4,r2
 18065bc:	15000426 	beq	r2,r20,18065d0 <_malloc_r+0x3f8>
 18065c0:	854b883a 	add	r5,r16,r21
 18065c4:	1029883a 	mov	r20,r2
 18065c8:	11405a2e 	bgeu	r2,r5,1806734 <_malloc_r+0x55c>
 18065cc:	87000c26 	beq	r16,fp,1806600 <_malloc_r+0x428>
 18065d0:	e4000217 	ldw	r16,8(fp)
 18065d4:	80c00117 	ldw	r3,4(r16)
 18065d8:	00bfff04 	movi	r2,-4
 18065dc:	1884703a 	and	r2,r3,r2
 18065e0:	14400336 	bltu	r2,r17,18065f0 <_malloc_r+0x418>
 18065e4:	1449c83a 	sub	r4,r2,r17
 18065e8:	008003c4 	movi	r2,15
 18065ec:	113fd316 	blt	r2,r4,180653c <_malloc_r+0x364>
 18065f0:	9009883a 	mov	r4,r18
 18065f4:	180a92c0 	call	180a92c <__malloc_unlock>
 18065f8:	0007883a 	mov	r3,zero
 18065fc:	003f0a06 	br	1806228 <_malloc_r+0x50>
 1806600:	05c06074 	movhi	r23,385
 1806604:	bdcc9904 	addi	r23,r23,12900
 1806608:	b8800017 	ldw	r2,0(r23)
 180660c:	988d883a 	add	r6,r19,r2
 1806610:	b9800015 	stw	r6,0(r23)
 1806614:	d0e00517 	ldw	r3,-32748(gp)
 1806618:	00bfffc4 	movi	r2,-1
 180661c:	18808e26 	beq	r3,r2,1806858 <_malloc_r+0x680>
 1806620:	2145c83a 	sub	r2,r4,r5
 1806624:	3085883a 	add	r2,r6,r2
 1806628:	b8800015 	stw	r2,0(r23)
 180662c:	20c001cc 	andi	r3,r4,7
 1806630:	18005f1e 	bne	r3,zero,18067b0 <_malloc_r+0x5d8>
 1806634:	000b883a 	mov	r5,zero
 1806638:	a4c5883a 	add	r2,r20,r19
 180663c:	1083ffcc 	andi	r2,r2,4095
 1806640:	00c40004 	movi	r3,4096
 1806644:	1887c83a 	sub	r3,r3,r2
 1806648:	28e7883a 	add	r19,r5,r3
 180664c:	9009883a 	mov	r4,r18
 1806650:	980b883a 	mov	r5,r19
 1806654:	180826c0 	call	180826c <_sbrk_r>
 1806658:	1007883a 	mov	r3,r2
 180665c:	00bfffc4 	movi	r2,-1
 1806660:	18807a26 	beq	r3,r2,180684c <_malloc_r+0x674>
 1806664:	1d05c83a 	sub	r2,r3,r20
 1806668:	9885883a 	add	r2,r19,r2
 180666c:	10c00054 	ori	r3,r2,1
 1806670:	b8800017 	ldw	r2,0(r23)
 1806674:	a021883a 	mov	r16,r20
 1806678:	a0c00115 	stw	r3,4(r20)
 180667c:	9885883a 	add	r2,r19,r2
 1806680:	b8800015 	stw	r2,0(r23)
 1806684:	e5000215 	stw	r20,8(fp)
 1806688:	b7003626 	beq	r22,fp,1806764 <_malloc_r+0x58c>
 180668c:	018003c4 	movi	r6,15
 1806690:	35404b36 	bltu	r6,r21,18067c0 <_malloc_r+0x5e8>
 1806694:	00800044 	movi	r2,1
 1806698:	a0800115 	stw	r2,4(r20)
 180669c:	003fcd06 	br	18065d4 <_malloc_r+0x3fc>
 18066a0:	2808d27a 	srli	r4,r5,9
 18066a4:	2000371e 	bne	r4,zero,1806784 <_malloc_r+0x5ac>
 18066a8:	2808d0fa 	srli	r4,r5,3
 18066ac:	200690fa 	slli	r3,r4,3
 18066b0:	1ad1883a 	add	r8,r3,r11
 18066b4:	41800217 	ldw	r6,8(r8)
 18066b8:	41805b26 	beq	r8,r6,1806828 <_malloc_r+0x650>
 18066bc:	30800117 	ldw	r2,4(r6)
 18066c0:	00ffff04 	movi	r3,-4
 18066c4:	10c4703a 	and	r2,r2,r3
 18066c8:	2880022e 	bgeu	r5,r2,18066d4 <_malloc_r+0x4fc>
 18066cc:	31800217 	ldw	r6,8(r6)
 18066d0:	41bffa1e 	bne	r8,r6,18066bc <_malloc_r+0x4e4>
 18066d4:	32000317 	ldw	r8,12(r6)
 18066d8:	39c00117 	ldw	r7,4(r7)
 18066dc:	82000315 	stw	r8,12(r16)
 18066e0:	81800215 	stw	r6,8(r16)
 18066e4:	07006074 	movhi	fp,385
 18066e8:	e7064404 	addi	fp,fp,6416
 18066ec:	34000315 	stw	r16,12(r6)
 18066f0:	44000215 	stw	r16,8(r8)
 18066f4:	003f3e06 	br	18063f0 <_malloc_r+0x218>
 18066f8:	63000044 	addi	r12,r12,1
 18066fc:	608000cc 	andi	r2,r12,3
 1806700:	10005d26 	beq	r2,zero,1806878 <_malloc_r+0x6a0>
 1806704:	18c00204 	addi	r3,r3,8
 1806708:	003f5106 	br	1806450 <_malloc_r+0x278>
 180670c:	8089883a 	add	r4,r16,r2
 1806710:	003f6d06 	br	18064c8 <_malloc_r+0x2f0>
 1806714:	00805504 	movi	r2,340
 1806718:	10c02036 	bltu	r2,r3,180679c <_malloc_r+0x5c4>
 180671c:	8804d3fa 	srli	r2,r17,15
 1806720:	11801dc4 	addi	r6,r2,119
 1806724:	300490fa 	slli	r2,r6,3
 1806728:	003ed806 	br	180628c <_malloc_r+0xb4>
 180672c:	48c000c4 	addi	r3,r9,3
 1806730:	003f3106 	br	18063f8 <_malloc_r+0x220>
 1806734:	05c06074 	movhi	r23,385
 1806738:	bdcc9904 	addi	r23,r23,12900
 180673c:	b8800017 	ldw	r2,0(r23)
 1806740:	988d883a 	add	r6,r19,r2
 1806744:	b9800015 	stw	r6,0(r23)
 1806748:	293fb21e 	bne	r5,r4,1806614 <_malloc_r+0x43c>
 180674c:	2083ffcc 	andi	r2,r4,4095
 1806750:	103fb01e 	bne	r2,zero,1806614 <_malloc_r+0x43c>
 1806754:	e4000217 	ldw	r16,8(fp)
 1806758:	9d45883a 	add	r2,r19,r21
 180675c:	10800054 	ori	r2,r2,1
 1806760:	80800115 	stw	r2,4(r16)
 1806764:	b8c00017 	ldw	r3,0(r23)
 1806768:	d0a01817 	ldw	r2,-32672(gp)
 180676c:	10c0012e 	bgeu	r2,r3,1806774 <_malloc_r+0x59c>
 1806770:	d0e01815 	stw	r3,-32672(gp)
 1806774:	d0a01917 	ldw	r2,-32668(gp)
 1806778:	10ff962e 	bgeu	r2,r3,18065d4 <_malloc_r+0x3fc>
 180677c:	d0e01915 	stw	r3,-32668(gp)
 1806780:	003f9406 	br	18065d4 <_malloc_r+0x3fc>
 1806784:	00800104 	movi	r2,4
 1806788:	11001e36 	bltu	r2,r4,1806804 <_malloc_r+0x62c>
 180678c:	2804d1ba 	srli	r2,r5,6
 1806790:	11000e04 	addi	r4,r2,56
 1806794:	200690fa 	slli	r3,r4,3
 1806798:	003fc506 	br	18066b0 <_malloc_r+0x4d8>
 180679c:	00815504 	movi	r2,1364
 18067a0:	10c01d2e 	bgeu	r2,r3,1806818 <_malloc_r+0x640>
 18067a4:	01801f84 	movi	r6,126
 18067a8:	0080fc04 	movi	r2,1008
 18067ac:	003eb706 	br	180628c <_malloc_r+0xb4>
 18067b0:	00800204 	movi	r2,8
 18067b4:	10cbc83a 	sub	r5,r2,r3
 18067b8:	2169883a 	add	r20,r4,r5
 18067bc:	003f9e06 	br	1806638 <_malloc_r+0x460>
 18067c0:	00bffe04 	movi	r2,-8
 18067c4:	a93ffd04 	addi	r4,r21,-12
 18067c8:	2088703a 	and	r4,r4,r2
 18067cc:	b10b883a 	add	r5,r22,r4
 18067d0:	00c00144 	movi	r3,5
 18067d4:	28c00215 	stw	r3,8(r5)
 18067d8:	28c00115 	stw	r3,4(r5)
 18067dc:	b0800117 	ldw	r2,4(r22)
 18067e0:	1080004c 	andi	r2,r2,1
 18067e4:	2084b03a 	or	r2,r4,r2
 18067e8:	b0800115 	stw	r2,4(r22)
 18067ec:	313fdd2e 	bgeu	r6,r4,1806764 <_malloc_r+0x58c>
 18067f0:	b1400204 	addi	r5,r22,8
 18067f4:	9009883a 	mov	r4,r18
 18067f8:	18056500 	call	1805650 <_free_r>
 18067fc:	e4000217 	ldw	r16,8(fp)
 1806800:	003fd806 	br	1806764 <_malloc_r+0x58c>
 1806804:	00800504 	movi	r2,20
 1806808:	11001536 	bltu	r2,r4,1806860 <_malloc_r+0x688>
 180680c:	210016c4 	addi	r4,r4,91
 1806810:	200690fa 	slli	r3,r4,3
 1806814:	003fa606 	br	18066b0 <_malloc_r+0x4d8>
 1806818:	8804d4ba 	srli	r2,r17,18
 180681c:	11801f04 	addi	r6,r2,124
 1806820:	300490fa 	slli	r2,r6,3
 1806824:	003e9906 	br	180628c <_malloc_r+0xb4>
 1806828:	2009d0ba 	srai	r4,r4,2
 180682c:	01406074 	movhi	r5,385
 1806830:	29464404 	addi	r5,r5,6416
 1806834:	00c00044 	movi	r3,1
 1806838:	28800117 	ldw	r2,4(r5)
 180683c:	1906983a 	sll	r3,r3,r4
 1806840:	10c4b03a 	or	r2,r2,r3
 1806844:	28800115 	stw	r2,4(r5)
 1806848:	003fa306 	br	18066d8 <_malloc_r+0x500>
 180684c:	0027883a 	mov	r19,zero
 1806850:	00c00044 	movi	r3,1
 1806854:	003f8606 	br	1806670 <_malloc_r+0x498>
 1806858:	d1200515 	stw	r4,-32748(gp)
 180685c:	003f7306 	br	180662c <_malloc_r+0x454>
 1806860:	00801504 	movi	r2,84
 1806864:	11001936 	bltu	r2,r4,18068cc <_malloc_r+0x6f4>
 1806868:	2804d33a 	srli	r2,r5,12
 180686c:	11001b84 	addi	r4,r2,110
 1806870:	200690fa 	slli	r3,r4,3
 1806874:	003f8e06 	br	18066b0 <_malloc_r+0x4d8>
 1806878:	480b883a 	mov	r5,r9
 180687c:	6807883a 	mov	r3,r13
 1806880:	288000cc 	andi	r2,r5,3
 1806884:	18fffe04 	addi	r3,r3,-8
 1806888:	297fffc4 	addi	r5,r5,-1
 180688c:	10001526 	beq	r2,zero,18068e4 <_malloc_r+0x70c>
 1806890:	18800217 	ldw	r2,8(r3)
 1806894:	10fffa26 	beq	r2,r3,1806880 <_malloc_r+0x6a8>
 1806898:	2109883a 	add	r4,r4,r4
 180689c:	393f1e36 	bltu	r7,r4,1806518 <_malloc_r+0x340>
 18068a0:	203f1d26 	beq	r4,zero,1806518 <_malloc_r+0x340>
 18068a4:	21c4703a 	and	r2,r4,r7
 18068a8:	10000226 	beq	r2,zero,18068b4 <_malloc_r+0x6dc>
 18068ac:	6013883a 	mov	r9,r12
 18068b0:	003ee106 	br	1806438 <_malloc_r+0x260>
 18068b4:	2109883a 	add	r4,r4,r4
 18068b8:	3904703a 	and	r2,r7,r4
 18068bc:	63000104 	addi	r12,r12,4
 18068c0:	103ffc26 	beq	r2,zero,18068b4 <_malloc_r+0x6dc>
 18068c4:	6013883a 	mov	r9,r12
 18068c8:	003edb06 	br	1806438 <_malloc_r+0x260>
 18068cc:	00805504 	movi	r2,340
 18068d0:	11000836 	bltu	r2,r4,18068f4 <_malloc_r+0x71c>
 18068d4:	2804d3fa 	srli	r2,r5,15
 18068d8:	11001dc4 	addi	r4,r2,119
 18068dc:	200690fa 	slli	r3,r4,3
 18068e0:	003f7306 	br	18066b0 <_malloc_r+0x4d8>
 18068e4:	0104303a 	nor	r2,zero,r4
 18068e8:	388e703a 	and	r7,r7,r2
 18068ec:	e1c00115 	stw	r7,4(fp)
 18068f0:	003fe906 	br	1806898 <_malloc_r+0x6c0>
 18068f4:	00815504 	movi	r2,1364
 18068f8:	1100032e 	bgeu	r2,r4,1806908 <_malloc_r+0x730>
 18068fc:	01001f84 	movi	r4,126
 1806900:	00c0fc04 	movi	r3,1008
 1806904:	003f6a06 	br	18066b0 <_malloc_r+0x4d8>
 1806908:	2804d4ba 	srli	r2,r5,18
 180690c:	11001f04 	addi	r4,r2,124
 1806910:	200690fa 	slli	r3,r4,3
 1806914:	003f6606 	br	18066b0 <_malloc_r+0x4d8>

01806918 <memchr>:
 1806918:	008000c4 	movi	r2,3
 180691c:	29403fcc 	andi	r5,r5,255
 1806920:	2007883a 	mov	r3,r4
 1806924:	1180022e 	bgeu	r2,r6,1806930 <memchr+0x18>
 1806928:	2084703a 	and	r2,r4,r2
 180692c:	10000b26 	beq	r2,zero,180695c <memchr+0x44>
 1806930:	313fffc4 	addi	r4,r6,-1
 1806934:	3000051e 	bne	r6,zero,180694c <memchr+0x34>
 1806938:	00002c06 	br	18069ec <memchr+0xd4>
 180693c:	213fffc4 	addi	r4,r4,-1
 1806940:	00bfffc4 	movi	r2,-1
 1806944:	18c00044 	addi	r3,r3,1
 1806948:	20802826 	beq	r4,r2,18069ec <memchr+0xd4>
 180694c:	18800003 	ldbu	r2,0(r3)
 1806950:	28bffa1e 	bne	r5,r2,180693c <memchr+0x24>
 1806954:	1805883a 	mov	r2,r3
 1806958:	f800283a 	ret
 180695c:	0011883a 	mov	r8,zero
 1806960:	0007883a 	mov	r3,zero
 1806964:	01c00104 	movi	r7,4
 1806968:	4004923a 	slli	r2,r8,8
 180696c:	18c00044 	addi	r3,r3,1
 1806970:	1151883a 	add	r8,r2,r5
 1806974:	19fffc1e 	bne	r3,r7,1806968 <memchr+0x50>
 1806978:	02bfbff4 	movhi	r10,65279
 180697c:	52bfbfc4 	addi	r10,r10,-257
 1806980:	02602074 	movhi	r9,32897
 1806984:	4a602004 	addi	r9,r9,-32640
 1806988:	02c000c4 	movi	r11,3
 180698c:	20800017 	ldw	r2,0(r4)
 1806990:	31bfff04 	addi	r6,r6,-4
 1806994:	200f883a 	mov	r7,r4
 1806998:	1204f03a 	xor	r2,r2,r8
 180699c:	1287883a 	add	r3,r2,r10
 18069a0:	1a46703a 	and	r3,r3,r9
 18069a4:	0084303a 	nor	r2,zero,r2
 18069a8:	10c4703a 	and	r2,r2,r3
 18069ac:	10000b26 	beq	r2,zero,18069dc <memchr+0xc4>
 18069b0:	20800003 	ldbu	r2,0(r4)
 18069b4:	28800f26 	beq	r5,r2,18069f4 <memchr+0xdc>
 18069b8:	20800043 	ldbu	r2,1(r4)
 18069bc:	21c00044 	addi	r7,r4,1
 18069c0:	28800c26 	beq	r5,r2,18069f4 <memchr+0xdc>
 18069c4:	20800083 	ldbu	r2,2(r4)
 18069c8:	21c00084 	addi	r7,r4,2
 18069cc:	28800926 	beq	r5,r2,18069f4 <memchr+0xdc>
 18069d0:	208000c3 	ldbu	r2,3(r4)
 18069d4:	21c000c4 	addi	r7,r4,3
 18069d8:	28800626 	beq	r5,r2,18069f4 <memchr+0xdc>
 18069dc:	21000104 	addi	r4,r4,4
 18069e0:	59bfea36 	bltu	r11,r6,180698c <memchr+0x74>
 18069e4:	2007883a 	mov	r3,r4
 18069e8:	003fd106 	br	1806930 <memchr+0x18>
 18069ec:	0005883a 	mov	r2,zero
 18069f0:	f800283a 	ret
 18069f4:	3805883a 	mov	r2,r7
 18069f8:	f800283a 	ret

018069fc <memcpy>:
 18069fc:	01c003c4 	movi	r7,15
 1806a00:	2007883a 	mov	r3,r4
 1806a04:	3980032e 	bgeu	r7,r6,1806a14 <memcpy+0x18>
 1806a08:	2904b03a 	or	r2,r5,r4
 1806a0c:	108000cc 	andi	r2,r2,3
 1806a10:	10000926 	beq	r2,zero,1806a38 <memcpy+0x3c>
 1806a14:	30000626 	beq	r6,zero,1806a30 <memcpy+0x34>
 1806a18:	30cd883a 	add	r6,r6,r3
 1806a1c:	28800003 	ldbu	r2,0(r5)
 1806a20:	29400044 	addi	r5,r5,1
 1806a24:	18800005 	stb	r2,0(r3)
 1806a28:	18c00044 	addi	r3,r3,1
 1806a2c:	30fffb1e 	bne	r6,r3,1806a1c <memcpy+0x20>
 1806a30:	2005883a 	mov	r2,r4
 1806a34:	f800283a 	ret
 1806a38:	3811883a 	mov	r8,r7
 1806a3c:	200f883a 	mov	r7,r4
 1806a40:	28c00017 	ldw	r3,0(r5)
 1806a44:	31bffc04 	addi	r6,r6,-16
 1806a48:	38c00015 	stw	r3,0(r7)
 1806a4c:	28800117 	ldw	r2,4(r5)
 1806a50:	38800115 	stw	r2,4(r7)
 1806a54:	28c00217 	ldw	r3,8(r5)
 1806a58:	38c00215 	stw	r3,8(r7)
 1806a5c:	28800317 	ldw	r2,12(r5)
 1806a60:	29400404 	addi	r5,r5,16
 1806a64:	38800315 	stw	r2,12(r7)
 1806a68:	39c00404 	addi	r7,r7,16
 1806a6c:	41bff436 	bltu	r8,r6,1806a40 <memcpy+0x44>
 1806a70:	008000c4 	movi	r2,3
 1806a74:	1180072e 	bgeu	r2,r6,1806a94 <memcpy+0x98>
 1806a78:	1007883a 	mov	r3,r2
 1806a7c:	28800017 	ldw	r2,0(r5)
 1806a80:	31bfff04 	addi	r6,r6,-4
 1806a84:	29400104 	addi	r5,r5,4
 1806a88:	38800015 	stw	r2,0(r7)
 1806a8c:	39c00104 	addi	r7,r7,4
 1806a90:	19bffa36 	bltu	r3,r6,1806a7c <memcpy+0x80>
 1806a94:	3807883a 	mov	r3,r7
 1806a98:	003fde06 	br	1806a14 <memcpy+0x18>

01806a9c <memmove>:
 1806a9c:	2807883a 	mov	r3,r5
 1806aa0:	2011883a 	mov	r8,r4
 1806aa4:	29000c2e 	bgeu	r5,r4,1806ad8 <memmove+0x3c>
 1806aa8:	298f883a 	add	r7,r5,r6
 1806aac:	21c00a2e 	bgeu	r4,r7,1806ad8 <memmove+0x3c>
 1806ab0:	30000726 	beq	r6,zero,1806ad0 <memmove+0x34>
 1806ab4:	2187883a 	add	r3,r4,r6
 1806ab8:	198dc83a 	sub	r6,r3,r6
 1806abc:	39ffffc4 	addi	r7,r7,-1
 1806ac0:	38800003 	ldbu	r2,0(r7)
 1806ac4:	18ffffc4 	addi	r3,r3,-1
 1806ac8:	18800005 	stb	r2,0(r3)
 1806acc:	19bffb1e 	bne	r3,r6,1806abc <memmove+0x20>
 1806ad0:	2005883a 	mov	r2,r4
 1806ad4:	f800283a 	ret
 1806ad8:	01c003c4 	movi	r7,15
 1806adc:	39800a36 	bltu	r7,r6,1806b08 <memmove+0x6c>
 1806ae0:	303ffb26 	beq	r6,zero,1806ad0 <memmove+0x34>
 1806ae4:	400f883a 	mov	r7,r8
 1806ae8:	320d883a 	add	r6,r6,r8
 1806aec:	28800003 	ldbu	r2,0(r5)
 1806af0:	29400044 	addi	r5,r5,1
 1806af4:	38800005 	stb	r2,0(r7)
 1806af8:	39c00044 	addi	r7,r7,1
 1806afc:	39bffb1e 	bne	r7,r6,1806aec <memmove+0x50>
 1806b00:	2005883a 	mov	r2,r4
 1806b04:	f800283a 	ret
 1806b08:	1904b03a 	or	r2,r3,r4
 1806b0c:	108000cc 	andi	r2,r2,3
 1806b10:	103ff31e 	bne	r2,zero,1806ae0 <memmove+0x44>
 1806b14:	3811883a 	mov	r8,r7
 1806b18:	180b883a 	mov	r5,r3
 1806b1c:	200f883a 	mov	r7,r4
 1806b20:	28c00017 	ldw	r3,0(r5)
 1806b24:	31bffc04 	addi	r6,r6,-16
 1806b28:	38c00015 	stw	r3,0(r7)
 1806b2c:	28800117 	ldw	r2,4(r5)
 1806b30:	38800115 	stw	r2,4(r7)
 1806b34:	28c00217 	ldw	r3,8(r5)
 1806b38:	38c00215 	stw	r3,8(r7)
 1806b3c:	28800317 	ldw	r2,12(r5)
 1806b40:	29400404 	addi	r5,r5,16
 1806b44:	38800315 	stw	r2,12(r7)
 1806b48:	39c00404 	addi	r7,r7,16
 1806b4c:	41bff436 	bltu	r8,r6,1806b20 <memmove+0x84>
 1806b50:	008000c4 	movi	r2,3
 1806b54:	1180072e 	bgeu	r2,r6,1806b74 <memmove+0xd8>
 1806b58:	1007883a 	mov	r3,r2
 1806b5c:	28800017 	ldw	r2,0(r5)
 1806b60:	31bfff04 	addi	r6,r6,-4
 1806b64:	29400104 	addi	r5,r5,4
 1806b68:	38800015 	stw	r2,0(r7)
 1806b6c:	39c00104 	addi	r7,r7,4
 1806b70:	19bffa36 	bltu	r3,r6,1806b5c <memmove+0xc0>
 1806b74:	3811883a 	mov	r8,r7
 1806b78:	003fd906 	br	1806ae0 <memmove+0x44>

01806b7c <memset>:
 1806b7c:	008000c4 	movi	r2,3
 1806b80:	29403fcc 	andi	r5,r5,255
 1806b84:	2007883a 	mov	r3,r4
 1806b88:	1180022e 	bgeu	r2,r6,1806b94 <memset+0x18>
 1806b8c:	2084703a 	and	r2,r4,r2
 1806b90:	10000826 	beq	r2,zero,1806bb4 <memset+0x38>
 1806b94:	30000526 	beq	r6,zero,1806bac <memset+0x30>
 1806b98:	2805883a 	mov	r2,r5
 1806b9c:	30cd883a 	add	r6,r6,r3
 1806ba0:	18800005 	stb	r2,0(r3)
 1806ba4:	18c00044 	addi	r3,r3,1
 1806ba8:	19bffd1e 	bne	r3,r6,1806ba0 <memset+0x24>
 1806bac:	2005883a 	mov	r2,r4
 1806bb0:	f800283a 	ret
 1806bb4:	2804923a 	slli	r2,r5,8
 1806bb8:	020003c4 	movi	r8,15
 1806bbc:	200f883a 	mov	r7,r4
 1806bc0:	2884b03a 	or	r2,r5,r2
 1806bc4:	1006943a 	slli	r3,r2,16
 1806bc8:	10c6b03a 	or	r3,r2,r3
 1806bcc:	41800a2e 	bgeu	r8,r6,1806bf8 <memset+0x7c>
 1806bd0:	4005883a 	mov	r2,r8
 1806bd4:	31bffc04 	addi	r6,r6,-16
 1806bd8:	38c00015 	stw	r3,0(r7)
 1806bdc:	38c00115 	stw	r3,4(r7)
 1806be0:	38c00215 	stw	r3,8(r7)
 1806be4:	38c00315 	stw	r3,12(r7)
 1806be8:	39c00404 	addi	r7,r7,16
 1806bec:	11bff936 	bltu	r2,r6,1806bd4 <memset+0x58>
 1806bf0:	008000c4 	movi	r2,3
 1806bf4:	1180052e 	bgeu	r2,r6,1806c0c <memset+0x90>
 1806bf8:	31bfff04 	addi	r6,r6,-4
 1806bfc:	008000c4 	movi	r2,3
 1806c00:	38c00015 	stw	r3,0(r7)
 1806c04:	39c00104 	addi	r7,r7,4
 1806c08:	11bffb36 	bltu	r2,r6,1806bf8 <memset+0x7c>
 1806c0c:	3807883a 	mov	r3,r7
 1806c10:	003fe006 	br	1806b94 <memset+0x18>

01806c14 <_Bfree>:
 1806c14:	28000826 	beq	r5,zero,1806c38 <_Bfree+0x24>
 1806c18:	28800117 	ldw	r2,4(r5)
 1806c1c:	21001317 	ldw	r4,76(r4)
 1806c20:	1085883a 	add	r2,r2,r2
 1806c24:	1085883a 	add	r2,r2,r2
 1806c28:	1105883a 	add	r2,r2,r4
 1806c2c:	10c00017 	ldw	r3,0(r2)
 1806c30:	28c00015 	stw	r3,0(r5)
 1806c34:	11400015 	stw	r5,0(r2)
 1806c38:	f800283a 	ret

01806c3c <__hi0bits>:
 1806c3c:	20bfffec 	andhi	r2,r4,65535
 1806c40:	10001426 	beq	r2,zero,1806c94 <__hi0bits+0x58>
 1806c44:	0007883a 	mov	r3,zero
 1806c48:	20bfc02c 	andhi	r2,r4,65280
 1806c4c:	1000021e 	bne	r2,zero,1806c58 <__hi0bits+0x1c>
 1806c50:	2008923a 	slli	r4,r4,8
 1806c54:	18c00204 	addi	r3,r3,8
 1806c58:	20bc002c 	andhi	r2,r4,61440
 1806c5c:	1000021e 	bne	r2,zero,1806c68 <__hi0bits+0x2c>
 1806c60:	2008913a 	slli	r4,r4,4
 1806c64:	18c00104 	addi	r3,r3,4
 1806c68:	20b0002c 	andhi	r2,r4,49152
 1806c6c:	1000031e 	bne	r2,zero,1806c7c <__hi0bits+0x40>
 1806c70:	2105883a 	add	r2,r4,r4
 1806c74:	18c00084 	addi	r3,r3,2
 1806c78:	1089883a 	add	r4,r2,r2
 1806c7c:	20000316 	blt	r4,zero,1806c8c <__hi0bits+0x50>
 1806c80:	2090002c 	andhi	r2,r4,16384
 1806c84:	10000626 	beq	r2,zero,1806ca0 <__hi0bits+0x64>
 1806c88:	18c00044 	addi	r3,r3,1
 1806c8c:	1805883a 	mov	r2,r3
 1806c90:	f800283a 	ret
 1806c94:	2008943a 	slli	r4,r4,16
 1806c98:	00c00404 	movi	r3,16
 1806c9c:	003fea06 	br	1806c48 <__hi0bits+0xc>
 1806ca0:	00c00804 	movi	r3,32
 1806ca4:	1805883a 	mov	r2,r3
 1806ca8:	f800283a 	ret

01806cac <__lo0bits>:
 1806cac:	20c00017 	ldw	r3,0(r4)
 1806cb0:	188001cc 	andi	r2,r3,7
 1806cb4:	10000a26 	beq	r2,zero,1806ce0 <__lo0bits+0x34>
 1806cb8:	1880004c 	andi	r2,r3,1
 1806cbc:	1005003a 	cmpeq	r2,r2,zero
 1806cc0:	10002126 	beq	r2,zero,1806d48 <__lo0bits+0x9c>
 1806cc4:	1880008c 	andi	r2,r3,2
 1806cc8:	1000251e 	bne	r2,zero,1806d60 <__lo0bits+0xb4>
 1806ccc:	1804d0ba 	srli	r2,r3,2
 1806cd0:	01400084 	movi	r5,2
 1806cd4:	20800015 	stw	r2,0(r4)
 1806cd8:	2805883a 	mov	r2,r5
 1806cdc:	f800283a 	ret
 1806ce0:	18bfffcc 	andi	r2,r3,65535
 1806ce4:	10001526 	beq	r2,zero,1806d3c <__lo0bits+0x90>
 1806ce8:	000b883a 	mov	r5,zero
 1806cec:	18803fcc 	andi	r2,r3,255
 1806cf0:	1000021e 	bne	r2,zero,1806cfc <__lo0bits+0x50>
 1806cf4:	1806d23a 	srli	r3,r3,8
 1806cf8:	29400204 	addi	r5,r5,8
 1806cfc:	188003cc 	andi	r2,r3,15
 1806d00:	1000021e 	bne	r2,zero,1806d0c <__lo0bits+0x60>
 1806d04:	1806d13a 	srli	r3,r3,4
 1806d08:	29400104 	addi	r5,r5,4
 1806d0c:	188000cc 	andi	r2,r3,3
 1806d10:	1000021e 	bne	r2,zero,1806d1c <__lo0bits+0x70>
 1806d14:	1806d0ba 	srli	r3,r3,2
 1806d18:	29400084 	addi	r5,r5,2
 1806d1c:	1880004c 	andi	r2,r3,1
 1806d20:	1000031e 	bne	r2,zero,1806d30 <__lo0bits+0x84>
 1806d24:	1806d07a 	srli	r3,r3,1
 1806d28:	18000a26 	beq	r3,zero,1806d54 <__lo0bits+0xa8>
 1806d2c:	29400044 	addi	r5,r5,1
 1806d30:	2805883a 	mov	r2,r5
 1806d34:	20c00015 	stw	r3,0(r4)
 1806d38:	f800283a 	ret
 1806d3c:	1806d43a 	srli	r3,r3,16
 1806d40:	01400404 	movi	r5,16
 1806d44:	003fe906 	br	1806cec <__lo0bits+0x40>
 1806d48:	000b883a 	mov	r5,zero
 1806d4c:	2805883a 	mov	r2,r5
 1806d50:	f800283a 	ret
 1806d54:	01400804 	movi	r5,32
 1806d58:	2805883a 	mov	r2,r5
 1806d5c:	f800283a 	ret
 1806d60:	1804d07a 	srli	r2,r3,1
 1806d64:	01400044 	movi	r5,1
 1806d68:	20800015 	stw	r2,0(r4)
 1806d6c:	003fda06 	br	1806cd8 <__lo0bits+0x2c>

01806d70 <__mcmp>:
 1806d70:	20800417 	ldw	r2,16(r4)
 1806d74:	28c00417 	ldw	r3,16(r5)
 1806d78:	10cfc83a 	sub	r7,r2,r3
 1806d7c:	38000c1e 	bne	r7,zero,1806db0 <__mcmp+0x40>
 1806d80:	18c5883a 	add	r2,r3,r3
 1806d84:	1085883a 	add	r2,r2,r2
 1806d88:	10c00504 	addi	r3,r2,20
 1806d8c:	21000504 	addi	r4,r4,20
 1806d90:	28cb883a 	add	r5,r5,r3
 1806d94:	2085883a 	add	r2,r4,r2
 1806d98:	10bfff04 	addi	r2,r2,-4
 1806d9c:	297fff04 	addi	r5,r5,-4
 1806da0:	11800017 	ldw	r6,0(r2)
 1806da4:	28c00017 	ldw	r3,0(r5)
 1806da8:	30c0031e 	bne	r6,r3,1806db8 <__mcmp+0x48>
 1806dac:	20bffa36 	bltu	r4,r2,1806d98 <__mcmp+0x28>
 1806db0:	3805883a 	mov	r2,r7
 1806db4:	f800283a 	ret
 1806db8:	30c00336 	bltu	r6,r3,1806dc8 <__mcmp+0x58>
 1806dbc:	01c00044 	movi	r7,1
 1806dc0:	3805883a 	mov	r2,r7
 1806dc4:	f800283a 	ret
 1806dc8:	01ffffc4 	movi	r7,-1
 1806dcc:	003ff806 	br	1806db0 <__mcmp+0x40>

01806dd0 <__ulp>:
 1806dd0:	295ffc2c 	andhi	r5,r5,32752
 1806dd4:	013f3034 	movhi	r4,64704
 1806dd8:	290b883a 	add	r5,r5,r4
 1806ddc:	0145c83a 	sub	r2,zero,r5
 1806de0:	1007d53a 	srai	r3,r2,20
 1806de4:	000d883a 	mov	r6,zero
 1806de8:	0140040e 	bge	zero,r5,1806dfc <__ulp+0x2c>
 1806dec:	280f883a 	mov	r7,r5
 1806df0:	3807883a 	mov	r3,r7
 1806df4:	3005883a 	mov	r2,r6
 1806df8:	f800283a 	ret
 1806dfc:	008004c4 	movi	r2,19
 1806e00:	193ffb04 	addi	r4,r3,-20
 1806e04:	10c00c0e 	bge	r2,r3,1806e38 <__ulp+0x68>
 1806e08:	008007c4 	movi	r2,31
 1806e0c:	1107c83a 	sub	r3,r2,r4
 1806e10:	00800784 	movi	r2,30
 1806e14:	01400044 	movi	r5,1
 1806e18:	11000216 	blt	r2,r4,1806e24 <__ulp+0x54>
 1806e1c:	00800044 	movi	r2,1
 1806e20:	10ca983a 	sll	r5,r2,r3
 1806e24:	000f883a 	mov	r7,zero
 1806e28:	280d883a 	mov	r6,r5
 1806e2c:	3807883a 	mov	r3,r7
 1806e30:	3005883a 	mov	r2,r6
 1806e34:	f800283a 	ret
 1806e38:	00800234 	movhi	r2,8
 1806e3c:	10cfd83a 	sra	r7,r2,r3
 1806e40:	000d883a 	mov	r6,zero
 1806e44:	3005883a 	mov	r2,r6
 1806e48:	3807883a 	mov	r3,r7
 1806e4c:	f800283a 	ret

01806e50 <__b2d>:
 1806e50:	20800417 	ldw	r2,16(r4)
 1806e54:	defff904 	addi	sp,sp,-28
 1806e58:	dd000415 	stw	r20,16(sp)
 1806e5c:	1085883a 	add	r2,r2,r2
 1806e60:	25000504 	addi	r20,r4,20
 1806e64:	1085883a 	add	r2,r2,r2
 1806e68:	dc000015 	stw	r16,0(sp)
 1806e6c:	a0a1883a 	add	r16,r20,r2
 1806e70:	dd400515 	stw	r21,20(sp)
 1806e74:	857fff17 	ldw	r21,-4(r16)
 1806e78:	dc400115 	stw	r17,4(sp)
 1806e7c:	dfc00615 	stw	ra,24(sp)
 1806e80:	a809883a 	mov	r4,r21
 1806e84:	2823883a 	mov	r17,r5
 1806e88:	dcc00315 	stw	r19,12(sp)
 1806e8c:	dc800215 	stw	r18,8(sp)
 1806e90:	1806c3c0 	call	1806c3c <__hi0bits>
 1806e94:	100b883a 	mov	r5,r2
 1806e98:	00800804 	movi	r2,32
 1806e9c:	1145c83a 	sub	r2,r2,r5
 1806ea0:	88800015 	stw	r2,0(r17)
 1806ea4:	00800284 	movi	r2,10
 1806ea8:	80ffff04 	addi	r3,r16,-4
 1806eac:	11401416 	blt	r2,r5,1806f00 <__b2d+0xb0>
 1806eb0:	008002c4 	movi	r2,11
 1806eb4:	1149c83a 	sub	r4,r2,r5
 1806eb8:	a0c02736 	bltu	r20,r3,1806f58 <__b2d+0x108>
 1806ebc:	000d883a 	mov	r6,zero
 1806ec0:	28800544 	addi	r2,r5,21
 1806ec4:	a906d83a 	srl	r3,r21,r4
 1806ec8:	a884983a 	sll	r2,r21,r2
 1806ecc:	1ccffc34 	orhi	r19,r3,16368
 1806ed0:	11a4b03a 	or	r18,r2,r6
 1806ed4:	9005883a 	mov	r2,r18
 1806ed8:	9807883a 	mov	r3,r19
 1806edc:	dfc00617 	ldw	ra,24(sp)
 1806ee0:	dd400517 	ldw	r21,20(sp)
 1806ee4:	dd000417 	ldw	r20,16(sp)
 1806ee8:	dcc00317 	ldw	r19,12(sp)
 1806eec:	dc800217 	ldw	r18,8(sp)
 1806ef0:	dc400117 	ldw	r17,4(sp)
 1806ef4:	dc000017 	ldw	r16,0(sp)
 1806ef8:	dec00704 	addi	sp,sp,28
 1806efc:	f800283a 	ret
 1806f00:	a0c00e36 	bltu	r20,r3,1806f3c <__b2d+0xec>
 1806f04:	293ffd44 	addi	r4,r5,-11
 1806f08:	000d883a 	mov	r6,zero
 1806f0c:	20000f26 	beq	r4,zero,1806f4c <__b2d+0xfc>
 1806f10:	00800804 	movi	r2,32
 1806f14:	110bc83a 	sub	r5,r2,r4
 1806f18:	a0c01236 	bltu	r20,r3,1806f64 <__b2d+0x114>
 1806f1c:	000f883a 	mov	r7,zero
 1806f20:	a904983a 	sll	r2,r21,r4
 1806f24:	3146d83a 	srl	r3,r6,r5
 1806f28:	3108983a 	sll	r4,r6,r4
 1806f2c:	108ffc34 	orhi	r2,r2,16368
 1806f30:	18a6b03a 	or	r19,r3,r2
 1806f34:	3924b03a 	or	r18,r7,r4
 1806f38:	003fe606 	br	1806ed4 <__b2d+0x84>
 1806f3c:	293ffd44 	addi	r4,r5,-11
 1806f40:	81bffe17 	ldw	r6,-8(r16)
 1806f44:	80fffe04 	addi	r3,r16,-8
 1806f48:	203ff11e 	bne	r4,zero,1806f10 <__b2d+0xc0>
 1806f4c:	accffc34 	orhi	r19,r21,16368
 1806f50:	3025883a 	mov	r18,r6
 1806f54:	003fdf06 	br	1806ed4 <__b2d+0x84>
 1806f58:	18bfff17 	ldw	r2,-4(r3)
 1806f5c:	110cd83a 	srl	r6,r2,r4
 1806f60:	003fd706 	br	1806ec0 <__b2d+0x70>
 1806f64:	18bfff17 	ldw	r2,-4(r3)
 1806f68:	114ed83a 	srl	r7,r2,r5
 1806f6c:	003fec06 	br	1806f20 <__b2d+0xd0>

01806f70 <__ratio>:
 1806f70:	defff904 	addi	sp,sp,-28
 1806f74:	dc400215 	stw	r17,8(sp)
 1806f78:	2823883a 	mov	r17,r5
 1806f7c:	d80b883a 	mov	r5,sp
 1806f80:	dfc00615 	stw	ra,24(sp)
 1806f84:	dd000515 	stw	r20,20(sp)
 1806f88:	dcc00415 	stw	r19,16(sp)
 1806f8c:	dc800315 	stw	r18,12(sp)
 1806f90:	2025883a 	mov	r18,r4
 1806f94:	1806e500 	call	1806e50 <__b2d>
 1806f98:	8809883a 	mov	r4,r17
 1806f9c:	d9400104 	addi	r5,sp,4
 1806fa0:	1027883a 	mov	r19,r2
 1806fa4:	1829883a 	mov	r20,r3
 1806fa8:	1806e500 	call	1806e50 <__b2d>
 1806fac:	89000417 	ldw	r4,16(r17)
 1806fb0:	91c00417 	ldw	r7,16(r18)
 1806fb4:	d9800117 	ldw	r6,4(sp)
 1806fb8:	180b883a 	mov	r5,r3
 1806fbc:	390fc83a 	sub	r7,r7,r4
 1806fc0:	1009883a 	mov	r4,r2
 1806fc4:	d8800017 	ldw	r2,0(sp)
 1806fc8:	380e917a 	slli	r7,r7,5
 1806fcc:	2011883a 	mov	r8,r4
 1806fd0:	1185c83a 	sub	r2,r2,r6
 1806fd4:	11c5883a 	add	r2,r2,r7
 1806fd8:	1006953a 	slli	r3,r2,20
 1806fdc:	2813883a 	mov	r9,r5
 1806fe0:	00800d0e 	bge	zero,r2,1807018 <__ratio+0xa8>
 1806fe4:	1d29883a 	add	r20,r3,r20
 1806fe8:	a00b883a 	mov	r5,r20
 1806fec:	480f883a 	mov	r7,r9
 1806ff0:	9809883a 	mov	r4,r19
 1806ff4:	400d883a 	mov	r6,r8
 1806ff8:	180993c0 	call	180993c <__divdf3>
 1806ffc:	dfc00617 	ldw	ra,24(sp)
 1807000:	dd000517 	ldw	r20,20(sp)
 1807004:	dcc00417 	ldw	r19,16(sp)
 1807008:	dc800317 	ldw	r18,12(sp)
 180700c:	dc400217 	ldw	r17,8(sp)
 1807010:	dec00704 	addi	sp,sp,28
 1807014:	f800283a 	ret
 1807018:	28d3c83a 	sub	r9,r5,r3
 180701c:	003ff206 	br	1806fe8 <__ratio+0x78>

01807020 <_mprec_log10>:
 1807020:	defffe04 	addi	sp,sp,-8
 1807024:	008005c4 	movi	r2,23
 1807028:	dc000015 	stw	r16,0(sp)
 180702c:	dfc00115 	stw	ra,4(sp)
 1807030:	2021883a 	mov	r16,r4
 1807034:	11000c16 	blt	r2,r4,1807068 <_mprec_log10+0x48>
 1807038:	200490fa 	slli	r2,r4,3
 180703c:	00c06074 	movhi	r3,385
 1807040:	18c44204 	addi	r3,r3,4360
 1807044:	10c5883a 	add	r2,r2,r3
 1807048:	12400117 	ldw	r9,4(r2)
 180704c:	12000017 	ldw	r8,0(r2)
 1807050:	4807883a 	mov	r3,r9
 1807054:	4005883a 	mov	r2,r8
 1807058:	dfc00117 	ldw	ra,4(sp)
 180705c:	dc000017 	ldw	r16,0(sp)
 1807060:	dec00204 	addi	sp,sp,8
 1807064:	f800283a 	ret
 1807068:	0011883a 	mov	r8,zero
 180706c:	024ffc34 	movhi	r9,16368
 1807070:	0005883a 	mov	r2,zero
 1807074:	00d00934 	movhi	r3,16420
 1807078:	480b883a 	mov	r5,r9
 180707c:	4009883a 	mov	r4,r8
 1807080:	180f883a 	mov	r7,r3
 1807084:	100d883a 	mov	r6,r2
 1807088:	18095780 	call	1809578 <__muldf3>
 180708c:	843fffc4 	addi	r16,r16,-1
 1807090:	1011883a 	mov	r8,r2
 1807094:	1813883a 	mov	r9,r3
 1807098:	803ff51e 	bne	r16,zero,1807070 <_mprec_log10+0x50>
 180709c:	4005883a 	mov	r2,r8
 18070a0:	4807883a 	mov	r3,r9
 18070a4:	dfc00117 	ldw	ra,4(sp)
 18070a8:	dc000017 	ldw	r16,0(sp)
 18070ac:	dec00204 	addi	sp,sp,8
 18070b0:	f800283a 	ret

018070b4 <__copybits>:
 18070b4:	297fffc4 	addi	r5,r5,-1
 18070b8:	30800417 	ldw	r2,16(r6)
 18070bc:	280bd17a 	srai	r5,r5,5
 18070c0:	31800504 	addi	r6,r6,20
 18070c4:	1085883a 	add	r2,r2,r2
 18070c8:	294b883a 	add	r5,r5,r5
 18070cc:	294b883a 	add	r5,r5,r5
 18070d0:	1085883a 	add	r2,r2,r2
 18070d4:	290b883a 	add	r5,r5,r4
 18070d8:	3087883a 	add	r3,r6,r2
 18070dc:	29400104 	addi	r5,r5,4
 18070e0:	30c0052e 	bgeu	r6,r3,18070f8 <__copybits+0x44>
 18070e4:	30800017 	ldw	r2,0(r6)
 18070e8:	31800104 	addi	r6,r6,4
 18070ec:	20800015 	stw	r2,0(r4)
 18070f0:	21000104 	addi	r4,r4,4
 18070f4:	30fffb36 	bltu	r6,r3,18070e4 <__copybits+0x30>
 18070f8:	2140032e 	bgeu	r4,r5,1807108 <__copybits+0x54>
 18070fc:	20000015 	stw	zero,0(r4)
 1807100:	21000104 	addi	r4,r4,4
 1807104:	217ffd36 	bltu	r4,r5,18070fc <__copybits+0x48>
 1807108:	f800283a 	ret

0180710c <__any_on>:
 180710c:	20800417 	ldw	r2,16(r4)
 1807110:	2807d17a 	srai	r3,r5,5
 1807114:	21000504 	addi	r4,r4,20
 1807118:	10c00d0e 	bge	r2,r3,1807150 <__any_on+0x44>
 180711c:	1085883a 	add	r2,r2,r2
 1807120:	1085883a 	add	r2,r2,r2
 1807124:	208d883a 	add	r6,r4,r2
 1807128:	2180182e 	bgeu	r4,r6,180718c <__any_on+0x80>
 180712c:	30bfff17 	ldw	r2,-4(r6)
 1807130:	30ffff04 	addi	r3,r6,-4
 1807134:	1000041e 	bne	r2,zero,1807148 <__any_on+0x3c>
 1807138:	20c0142e 	bgeu	r4,r3,180718c <__any_on+0x80>
 180713c:	18ffff04 	addi	r3,r3,-4
 1807140:	18800017 	ldw	r2,0(r3)
 1807144:	103ffc26 	beq	r2,zero,1807138 <__any_on+0x2c>
 1807148:	00800044 	movi	r2,1
 180714c:	f800283a 	ret
 1807150:	18800a0e 	bge	r3,r2,180717c <__any_on+0x70>
 1807154:	294007cc 	andi	r5,r5,31
 1807158:	28000826 	beq	r5,zero,180717c <__any_on+0x70>
 180715c:	18c5883a 	add	r2,r3,r3
 1807160:	1085883a 	add	r2,r2,r2
 1807164:	208d883a 	add	r6,r4,r2
 1807168:	30c00017 	ldw	r3,0(r6)
 180716c:	1944d83a 	srl	r2,r3,r5
 1807170:	1144983a 	sll	r2,r2,r5
 1807174:	18bff41e 	bne	r3,r2,1807148 <__any_on+0x3c>
 1807178:	003feb06 	br	1807128 <__any_on+0x1c>
 180717c:	18c5883a 	add	r2,r3,r3
 1807180:	1085883a 	add	r2,r2,r2
 1807184:	208d883a 	add	r6,r4,r2
 1807188:	003fe706 	br	1807128 <__any_on+0x1c>
 180718c:	0005883a 	mov	r2,zero
 1807190:	f800283a 	ret

01807194 <_Balloc>:
 1807194:	20c01317 	ldw	r3,76(r4)
 1807198:	defffb04 	addi	sp,sp,-20
 180719c:	dcc00315 	stw	r19,12(sp)
 18071a0:	dc800215 	stw	r18,8(sp)
 18071a4:	dfc00415 	stw	ra,16(sp)
 18071a8:	2825883a 	mov	r18,r5
 18071ac:	dc400115 	stw	r17,4(sp)
 18071b0:	dc000015 	stw	r16,0(sp)
 18071b4:	2027883a 	mov	r19,r4
 18071b8:	01800404 	movi	r6,16
 18071bc:	01400104 	movi	r5,4
 18071c0:	18001726 	beq	r3,zero,1807220 <_Balloc+0x8c>
 18071c4:	01400044 	movi	r5,1
 18071c8:	9485883a 	add	r2,r18,r18
 18071cc:	2ca2983a 	sll	r17,r5,r18
 18071d0:	1085883a 	add	r2,r2,r2
 18071d4:	10c7883a 	add	r3,r2,r3
 18071d8:	1c000017 	ldw	r16,0(r3)
 18071dc:	8c4d883a 	add	r6,r17,r17
 18071e0:	318d883a 	add	r6,r6,r6
 18071e4:	9809883a 	mov	r4,r19
 18071e8:	31800504 	addi	r6,r6,20
 18071ec:	80001226 	beq	r16,zero,1807238 <_Balloc+0xa4>
 18071f0:	80800017 	ldw	r2,0(r16)
 18071f4:	18800015 	stw	r2,0(r3)
 18071f8:	80000415 	stw	zero,16(r16)
 18071fc:	80000315 	stw	zero,12(r16)
 1807200:	8005883a 	mov	r2,r16
 1807204:	dfc00417 	ldw	ra,16(sp)
 1807208:	dcc00317 	ldw	r19,12(sp)
 180720c:	dc800217 	ldw	r18,8(sp)
 1807210:	dc400117 	ldw	r17,4(sp)
 1807214:	dc000017 	ldw	r16,0(sp)
 1807218:	dec00504 	addi	sp,sp,20
 180721c:	f800283a 	ret
 1807220:	18085d00 	call	18085d0 <_calloc_r>
 1807224:	1007883a 	mov	r3,r2
 1807228:	0021883a 	mov	r16,zero
 180722c:	98801315 	stw	r2,76(r19)
 1807230:	103fe41e 	bne	r2,zero,18071c4 <_Balloc+0x30>
 1807234:	003ff206 	br	1807200 <_Balloc+0x6c>
 1807238:	18085d00 	call	18085d0 <_calloc_r>
 180723c:	103ff026 	beq	r2,zero,1807200 <_Balloc+0x6c>
 1807240:	1021883a 	mov	r16,r2
 1807244:	14800115 	stw	r18,4(r2)
 1807248:	14400215 	stw	r17,8(r2)
 180724c:	003fea06 	br	18071f8 <_Balloc+0x64>

01807250 <__d2b>:
 1807250:	defff504 	addi	sp,sp,-44
 1807254:	dcc00515 	stw	r19,20(sp)
 1807258:	04c00044 	movi	r19,1
 180725c:	dc000215 	stw	r16,8(sp)
 1807260:	2821883a 	mov	r16,r5
 1807264:	980b883a 	mov	r5,r19
 1807268:	ddc00915 	stw	r23,36(sp)
 180726c:	dd800815 	stw	r22,32(sp)
 1807270:	dd400715 	stw	r21,28(sp)
 1807274:	dd000615 	stw	r20,24(sp)
 1807278:	dc800415 	stw	r18,16(sp)
 180727c:	dc400315 	stw	r17,12(sp)
 1807280:	dfc00a15 	stw	ra,40(sp)
 1807284:	3023883a 	mov	r17,r6
 1807288:	382d883a 	mov	r22,r7
 180728c:	ddc00b17 	ldw	r23,44(sp)
 1807290:	18071940 	call	1807194 <_Balloc>
 1807294:	1025883a 	mov	r18,r2
 1807298:	00a00034 	movhi	r2,32768
 180729c:	10bfffc4 	addi	r2,r2,-1
 18072a0:	8888703a 	and	r4,r17,r2
 18072a4:	202ad53a 	srli	r21,r4,20
 18072a8:	00800434 	movhi	r2,16
 18072ac:	10bfffc4 	addi	r2,r2,-1
 18072b0:	8886703a 	and	r3,r17,r2
 18072b4:	a829003a 	cmpeq	r20,r21,zero
 18072b8:	800b883a 	mov	r5,r16
 18072bc:	d8c00115 	stw	r3,4(sp)
 18072c0:	94000504 	addi	r16,r18,20
 18072c4:	a000021e 	bne	r20,zero,18072d0 <__d2b+0x80>
 18072c8:	18c00434 	orhi	r3,r3,16
 18072cc:	d8c00115 	stw	r3,4(sp)
 18072d0:	28002726 	beq	r5,zero,1807370 <__d2b+0x120>
 18072d4:	d809883a 	mov	r4,sp
 18072d8:	d9400015 	stw	r5,0(sp)
 18072dc:	1806cac0 	call	1806cac <__lo0bits>
 18072e0:	100d883a 	mov	r6,r2
 18072e4:	10003526 	beq	r2,zero,18073bc <__d2b+0x16c>
 18072e8:	d8c00117 	ldw	r3,4(sp)
 18072ec:	00800804 	movi	r2,32
 18072f0:	1185c83a 	sub	r2,r2,r6
 18072f4:	d9000017 	ldw	r4,0(sp)
 18072f8:	1886983a 	sll	r3,r3,r2
 18072fc:	1906b03a 	or	r3,r3,r4
 1807300:	90c00515 	stw	r3,20(r18)
 1807304:	d8c00117 	ldw	r3,4(sp)
 1807308:	1986d83a 	srl	r3,r3,r6
 180730c:	d8c00115 	stw	r3,4(sp)
 1807310:	180b003a 	cmpeq	r5,r3,zero
 1807314:	00800084 	movi	r2,2
 1807318:	114bc83a 	sub	r5,r2,r5
 180731c:	80c00115 	stw	r3,4(r16)
 1807320:	91400415 	stw	r5,16(r18)
 1807324:	a0001a1e 	bne	r20,zero,1807390 <__d2b+0x140>
 1807328:	3545883a 	add	r2,r6,r21
 180732c:	10bef344 	addi	r2,r2,-1075
 1807330:	00c00d44 	movi	r3,53
 1807334:	b0800015 	stw	r2,0(r22)
 1807338:	1987c83a 	sub	r3,r3,r6
 180733c:	b8c00015 	stw	r3,0(r23)
 1807340:	9005883a 	mov	r2,r18
 1807344:	dfc00a17 	ldw	ra,40(sp)
 1807348:	ddc00917 	ldw	r23,36(sp)
 180734c:	dd800817 	ldw	r22,32(sp)
 1807350:	dd400717 	ldw	r21,28(sp)
 1807354:	dd000617 	ldw	r20,24(sp)
 1807358:	dcc00517 	ldw	r19,20(sp)
 180735c:	dc800417 	ldw	r18,16(sp)
 1807360:	dc400317 	ldw	r17,12(sp)
 1807364:	dc000217 	ldw	r16,8(sp)
 1807368:	dec00b04 	addi	sp,sp,44
 180736c:	f800283a 	ret
 1807370:	d9000104 	addi	r4,sp,4
 1807374:	1806cac0 	call	1806cac <__lo0bits>
 1807378:	11800804 	addi	r6,r2,32
 180737c:	d8800117 	ldw	r2,4(sp)
 1807380:	94c00415 	stw	r19,16(r18)
 1807384:	980b883a 	mov	r5,r19
 1807388:	90800515 	stw	r2,20(r18)
 180738c:	a03fe626 	beq	r20,zero,1807328 <__d2b+0xd8>
 1807390:	2945883a 	add	r2,r5,r5
 1807394:	1085883a 	add	r2,r2,r2
 1807398:	1405883a 	add	r2,r2,r16
 180739c:	113fff17 	ldw	r4,-4(r2)
 18073a0:	30fef384 	addi	r3,r6,-1074
 18073a4:	2820917a 	slli	r16,r5,5
 18073a8:	b0c00015 	stw	r3,0(r22)
 18073ac:	1806c3c0 	call	1806c3c <__hi0bits>
 18073b0:	80a1c83a 	sub	r16,r16,r2
 18073b4:	bc000015 	stw	r16,0(r23)
 18073b8:	003fe106 	br	1807340 <__d2b+0xf0>
 18073bc:	d8800017 	ldw	r2,0(sp)
 18073c0:	90800515 	stw	r2,20(r18)
 18073c4:	d8c00117 	ldw	r3,4(sp)
 18073c8:	003fd106 	br	1807310 <__d2b+0xc0>

018073cc <__mdiff>:
 18073cc:	defffb04 	addi	sp,sp,-20
 18073d0:	dc000015 	stw	r16,0(sp)
 18073d4:	2821883a 	mov	r16,r5
 18073d8:	dc800215 	stw	r18,8(sp)
 18073dc:	300b883a 	mov	r5,r6
 18073e0:	2025883a 	mov	r18,r4
 18073e4:	8009883a 	mov	r4,r16
 18073e8:	dc400115 	stw	r17,4(sp)
 18073ec:	dfc00415 	stw	ra,16(sp)
 18073f0:	dcc00315 	stw	r19,12(sp)
 18073f4:	3023883a 	mov	r17,r6
 18073f8:	1806d700 	call	1806d70 <__mcmp>
 18073fc:	10004226 	beq	r2,zero,1807508 <__mdiff+0x13c>
 1807400:	10005016 	blt	r2,zero,1807544 <__mdiff+0x178>
 1807404:	0027883a 	mov	r19,zero
 1807408:	81400117 	ldw	r5,4(r16)
 180740c:	9009883a 	mov	r4,r18
 1807410:	18071940 	call	1807194 <_Balloc>
 1807414:	1019883a 	mov	r12,r2
 1807418:	82800417 	ldw	r10,16(r16)
 180741c:	88800417 	ldw	r2,16(r17)
 1807420:	81800504 	addi	r6,r16,20
 1807424:	5287883a 	add	r3,r10,r10
 1807428:	1085883a 	add	r2,r2,r2
 180742c:	18c7883a 	add	r3,r3,r3
 1807430:	1085883a 	add	r2,r2,r2
 1807434:	8a000504 	addi	r8,r17,20
 1807438:	64c00315 	stw	r19,12(r12)
 180743c:	30db883a 	add	r13,r6,r3
 1807440:	4097883a 	add	r11,r8,r2
 1807444:	61c00504 	addi	r7,r12,20
 1807448:	0013883a 	mov	r9,zero
 180744c:	31000017 	ldw	r4,0(r6)
 1807450:	41400017 	ldw	r5,0(r8)
 1807454:	42000104 	addi	r8,r8,4
 1807458:	20bfffcc 	andi	r2,r4,65535
 180745c:	28ffffcc 	andi	r3,r5,65535
 1807460:	10c5c83a 	sub	r2,r2,r3
 1807464:	1245883a 	add	r2,r2,r9
 1807468:	2008d43a 	srli	r4,r4,16
 180746c:	280ad43a 	srli	r5,r5,16
 1807470:	1007d43a 	srai	r3,r2,16
 1807474:	3880000d 	sth	r2,0(r7)
 1807478:	2149c83a 	sub	r4,r4,r5
 180747c:	20c9883a 	add	r4,r4,r3
 1807480:	3900008d 	sth	r4,2(r7)
 1807484:	31800104 	addi	r6,r6,4
 1807488:	39c00104 	addi	r7,r7,4
 180748c:	2013d43a 	srai	r9,r4,16
 1807490:	42ffee36 	bltu	r8,r11,180744c <__mdiff+0x80>
 1807494:	33400c2e 	bgeu	r6,r13,18074c8 <__mdiff+0xfc>
 1807498:	30800017 	ldw	r2,0(r6)
 180749c:	31800104 	addi	r6,r6,4
 18074a0:	10ffffcc 	andi	r3,r2,65535
 18074a4:	1a47883a 	add	r3,r3,r9
 18074a8:	1004d43a 	srli	r2,r2,16
 18074ac:	1809d43a 	srai	r4,r3,16
 18074b0:	38c0000d 	sth	r3,0(r7)
 18074b4:	1105883a 	add	r2,r2,r4
 18074b8:	3880008d 	sth	r2,2(r7)
 18074bc:	1013d43a 	srai	r9,r2,16
 18074c0:	39c00104 	addi	r7,r7,4
 18074c4:	337ff436 	bltu	r6,r13,1807498 <__mdiff+0xcc>
 18074c8:	38bfff17 	ldw	r2,-4(r7)
 18074cc:	38ffff04 	addi	r3,r7,-4
 18074d0:	1000041e 	bne	r2,zero,18074e4 <__mdiff+0x118>
 18074d4:	18ffff04 	addi	r3,r3,-4
 18074d8:	18800017 	ldw	r2,0(r3)
 18074dc:	52bfffc4 	addi	r10,r10,-1
 18074e0:	103ffc26 	beq	r2,zero,18074d4 <__mdiff+0x108>
 18074e4:	6005883a 	mov	r2,r12
 18074e8:	62800415 	stw	r10,16(r12)
 18074ec:	dfc00417 	ldw	ra,16(sp)
 18074f0:	dcc00317 	ldw	r19,12(sp)
 18074f4:	dc800217 	ldw	r18,8(sp)
 18074f8:	dc400117 	ldw	r17,4(sp)
 18074fc:	dc000017 	ldw	r16,0(sp)
 1807500:	dec00504 	addi	sp,sp,20
 1807504:	f800283a 	ret
 1807508:	9009883a 	mov	r4,r18
 180750c:	000b883a 	mov	r5,zero
 1807510:	18071940 	call	1807194 <_Balloc>
 1807514:	1019883a 	mov	r12,r2
 1807518:	00800044 	movi	r2,1
 180751c:	60800415 	stw	r2,16(r12)
 1807520:	6005883a 	mov	r2,r12
 1807524:	60000515 	stw	zero,20(r12)
 1807528:	dfc00417 	ldw	ra,16(sp)
 180752c:	dcc00317 	ldw	r19,12(sp)
 1807530:	dc800217 	ldw	r18,8(sp)
 1807534:	dc400117 	ldw	r17,4(sp)
 1807538:	dc000017 	ldw	r16,0(sp)
 180753c:	dec00504 	addi	sp,sp,20
 1807540:	f800283a 	ret
 1807544:	880d883a 	mov	r6,r17
 1807548:	04c00044 	movi	r19,1
 180754c:	8023883a 	mov	r17,r16
 1807550:	3021883a 	mov	r16,r6
 1807554:	003fac06 	br	1807408 <__mdiff+0x3c>

01807558 <__lshift>:
 1807558:	defff904 	addi	sp,sp,-28
 180755c:	28800417 	ldw	r2,16(r5)
 1807560:	dc000015 	stw	r16,0(sp)
 1807564:	3021d17a 	srai	r16,r6,5
 1807568:	28c00217 	ldw	r3,8(r5)
 180756c:	10800044 	addi	r2,r2,1
 1807570:	dc400115 	stw	r17,4(sp)
 1807574:	80a3883a 	add	r17,r16,r2
 1807578:	dd400515 	stw	r21,20(sp)
 180757c:	dd000415 	stw	r20,16(sp)
 1807580:	dc800215 	stw	r18,8(sp)
 1807584:	dfc00615 	stw	ra,24(sp)
 1807588:	2825883a 	mov	r18,r5
 180758c:	dcc00315 	stw	r19,12(sp)
 1807590:	3029883a 	mov	r20,r6
 1807594:	202b883a 	mov	r21,r4
 1807598:	29400117 	ldw	r5,4(r5)
 180759c:	1c40030e 	bge	r3,r17,18075ac <__lshift+0x54>
 18075a0:	18c7883a 	add	r3,r3,r3
 18075a4:	29400044 	addi	r5,r5,1
 18075a8:	1c7ffd16 	blt	r3,r17,18075a0 <__lshift+0x48>
 18075ac:	a809883a 	mov	r4,r21
 18075b0:	18071940 	call	1807194 <_Balloc>
 18075b4:	1027883a 	mov	r19,r2
 18075b8:	11400504 	addi	r5,r2,20
 18075bc:	0400090e 	bge	zero,r16,18075e4 <__lshift+0x8c>
 18075c0:	2805883a 	mov	r2,r5
 18075c4:	0007883a 	mov	r3,zero
 18075c8:	18c00044 	addi	r3,r3,1
 18075cc:	10000015 	stw	zero,0(r2)
 18075d0:	10800104 	addi	r2,r2,4
 18075d4:	80fffc1e 	bne	r16,r3,18075c8 <__lshift+0x70>
 18075d8:	8405883a 	add	r2,r16,r16
 18075dc:	1085883a 	add	r2,r2,r2
 18075e0:	288b883a 	add	r5,r5,r2
 18075e4:	90800417 	ldw	r2,16(r18)
 18075e8:	91000504 	addi	r4,r18,20
 18075ec:	a18007cc 	andi	r6,r20,31
 18075f0:	1085883a 	add	r2,r2,r2
 18075f4:	1085883a 	add	r2,r2,r2
 18075f8:	208f883a 	add	r7,r4,r2
 18075fc:	30001e26 	beq	r6,zero,1807678 <__lshift+0x120>
 1807600:	00800804 	movi	r2,32
 1807604:	1191c83a 	sub	r8,r2,r6
 1807608:	0007883a 	mov	r3,zero
 180760c:	20800017 	ldw	r2,0(r4)
 1807610:	1184983a 	sll	r2,r2,r6
 1807614:	1884b03a 	or	r2,r3,r2
 1807618:	28800015 	stw	r2,0(r5)
 180761c:	20c00017 	ldw	r3,0(r4)
 1807620:	21000104 	addi	r4,r4,4
 1807624:	29400104 	addi	r5,r5,4
 1807628:	1a06d83a 	srl	r3,r3,r8
 180762c:	21fff736 	bltu	r4,r7,180760c <__lshift+0xb4>
 1807630:	28c00015 	stw	r3,0(r5)
 1807634:	18000126 	beq	r3,zero,180763c <__lshift+0xe4>
 1807638:	8c400044 	addi	r17,r17,1
 180763c:	88bfffc4 	addi	r2,r17,-1
 1807640:	98800415 	stw	r2,16(r19)
 1807644:	a809883a 	mov	r4,r21
 1807648:	900b883a 	mov	r5,r18
 180764c:	1806c140 	call	1806c14 <_Bfree>
 1807650:	9805883a 	mov	r2,r19
 1807654:	dfc00617 	ldw	ra,24(sp)
 1807658:	dd400517 	ldw	r21,20(sp)
 180765c:	dd000417 	ldw	r20,16(sp)
 1807660:	dcc00317 	ldw	r19,12(sp)
 1807664:	dc800217 	ldw	r18,8(sp)
 1807668:	dc400117 	ldw	r17,4(sp)
 180766c:	dc000017 	ldw	r16,0(sp)
 1807670:	dec00704 	addi	sp,sp,28
 1807674:	f800283a 	ret
 1807678:	20800017 	ldw	r2,0(r4)
 180767c:	21000104 	addi	r4,r4,4
 1807680:	28800015 	stw	r2,0(r5)
 1807684:	29400104 	addi	r5,r5,4
 1807688:	21ffec2e 	bgeu	r4,r7,180763c <__lshift+0xe4>
 180768c:	20800017 	ldw	r2,0(r4)
 1807690:	21000104 	addi	r4,r4,4
 1807694:	28800015 	stw	r2,0(r5)
 1807698:	29400104 	addi	r5,r5,4
 180769c:	21fff636 	bltu	r4,r7,1807678 <__lshift+0x120>
 18076a0:	003fe606 	br	180763c <__lshift+0xe4>

018076a4 <__multiply>:
 18076a4:	defff904 	addi	sp,sp,-28
 18076a8:	dcc00315 	stw	r19,12(sp)
 18076ac:	dc800215 	stw	r18,8(sp)
 18076b0:	2cc00417 	ldw	r19,16(r5)
 18076b4:	34800417 	ldw	r18,16(r6)
 18076b8:	dd000415 	stw	r20,16(sp)
 18076bc:	dc400115 	stw	r17,4(sp)
 18076c0:	dfc00615 	stw	ra,24(sp)
 18076c4:	dd400515 	stw	r21,20(sp)
 18076c8:	dc000015 	stw	r16,0(sp)
 18076cc:	2823883a 	mov	r17,r5
 18076d0:	3029883a 	mov	r20,r6
 18076d4:	9c80040e 	bge	r19,r18,18076e8 <__multiply+0x44>
 18076d8:	9027883a 	mov	r19,r18
 18076dc:	2c800417 	ldw	r18,16(r5)
 18076e0:	2829883a 	mov	r20,r5
 18076e4:	3023883a 	mov	r17,r6
 18076e8:	88800217 	ldw	r2,8(r17)
 18076ec:	9ca1883a 	add	r16,r19,r18
 18076f0:	89400117 	ldw	r5,4(r17)
 18076f4:	1400010e 	bge	r2,r16,18076fc <__multiply+0x58>
 18076f8:	29400044 	addi	r5,r5,1
 18076fc:	18071940 	call	1807194 <_Balloc>
 1807700:	102b883a 	mov	r21,r2
 1807704:	8405883a 	add	r2,r16,r16
 1807708:	1085883a 	add	r2,r2,r2
 180770c:	a9000504 	addi	r4,r21,20
 1807710:	209d883a 	add	r14,r4,r2
 1807714:	2380042e 	bgeu	r4,r14,1807728 <__multiply+0x84>
 1807718:	2005883a 	mov	r2,r4
 180771c:	10000015 	stw	zero,0(r2)
 1807720:	10800104 	addi	r2,r2,4
 1807724:	13bffd36 	bltu	r2,r14,180771c <__multiply+0x78>
 1807728:	9485883a 	add	r2,r18,r18
 180772c:	9cc7883a 	add	r3,r19,r19
 1807730:	a1800504 	addi	r6,r20,20
 1807734:	1085883a 	add	r2,r2,r2
 1807738:	8b400504 	addi	r13,r17,20
 180773c:	18c7883a 	add	r3,r3,r3
 1807740:	309f883a 	add	r15,r6,r2
 1807744:	68d7883a 	add	r11,r13,r3
 1807748:	33c03b2e 	bgeu	r6,r15,1807838 <__multiply+0x194>
 180774c:	2019883a 	mov	r12,r4
 1807750:	30800017 	ldw	r2,0(r6)
 1807754:	127fffcc 	andi	r9,r2,65535
 1807758:	48001826 	beq	r9,zero,18077bc <__multiply+0x118>
 180775c:	6811883a 	mov	r8,r13
 1807760:	600f883a 	mov	r7,r12
 1807764:	0015883a 	mov	r10,zero
 1807768:	40c00017 	ldw	r3,0(r8)
 180776c:	39400017 	ldw	r5,0(r7)
 1807770:	42000104 	addi	r8,r8,4
 1807774:	193fffcc 	andi	r4,r3,65535
 1807778:	4909383a 	mul	r4,r9,r4
 180777c:	1806d43a 	srli	r3,r3,16
 1807780:	28bfffcc 	andi	r2,r5,65535
 1807784:	5085883a 	add	r2,r10,r2
 1807788:	2089883a 	add	r4,r4,r2
 180778c:	48c7383a 	mul	r3,r9,r3
 1807790:	280ad43a 	srli	r5,r5,16
 1807794:	2004d43a 	srli	r2,r4,16
 1807798:	3900000d 	sth	r4,0(r7)
 180779c:	1947883a 	add	r3,r3,r5
 18077a0:	10c5883a 	add	r2,r2,r3
 18077a4:	3880008d 	sth	r2,2(r7)
 18077a8:	1014d43a 	srli	r10,r2,16
 18077ac:	39c00104 	addi	r7,r7,4
 18077b0:	42ffed36 	bltu	r8,r11,1807768 <__multiply+0xc4>
 18077b4:	3a800015 	stw	r10,0(r7)
 18077b8:	30800017 	ldw	r2,0(r6)
 18077bc:	1012d43a 	srli	r9,r2,16
 18077c0:	48001926 	beq	r9,zero,1807828 <__multiply+0x184>
 18077c4:	60800017 	ldw	r2,0(r12)
 18077c8:	6811883a 	mov	r8,r13
 18077cc:	600f883a 	mov	r7,r12
 18077d0:	0015883a 	mov	r10,zero
 18077d4:	100b883a 	mov	r5,r2
 18077d8:	41000017 	ldw	r4,0(r8)
 18077dc:	2806d43a 	srli	r3,r5,16
 18077e0:	3880000d 	sth	r2,0(r7)
 18077e4:	20bfffcc 	andi	r2,r4,65535
 18077e8:	4885383a 	mul	r2,r9,r2
 18077ec:	50c7883a 	add	r3,r10,r3
 18077f0:	2008d43a 	srli	r4,r4,16
 18077f4:	10c5883a 	add	r2,r2,r3
 18077f8:	3880008d 	sth	r2,2(r7)
 18077fc:	39c00104 	addi	r7,r7,4
 1807800:	39400017 	ldw	r5,0(r7)
 1807804:	4909383a 	mul	r4,r9,r4
 1807808:	1004d43a 	srli	r2,r2,16
 180780c:	28ffffcc 	andi	r3,r5,65535
 1807810:	20c9883a 	add	r4,r4,r3
 1807814:	1105883a 	add	r2,r2,r4
 1807818:	42000104 	addi	r8,r8,4
 180781c:	1014d43a 	srli	r10,r2,16
 1807820:	42ffed36 	bltu	r8,r11,18077d8 <__multiply+0x134>
 1807824:	38800015 	stw	r2,0(r7)
 1807828:	31800104 	addi	r6,r6,4
 180782c:	33c0022e 	bgeu	r6,r15,1807838 <__multiply+0x194>
 1807830:	63000104 	addi	r12,r12,4
 1807834:	003fc606 	br	1807750 <__multiply+0xac>
 1807838:	0400090e 	bge	zero,r16,1807860 <__multiply+0x1bc>
 180783c:	70bfff17 	ldw	r2,-4(r14)
 1807840:	70ffff04 	addi	r3,r14,-4
 1807844:	10000326 	beq	r2,zero,1807854 <__multiply+0x1b0>
 1807848:	00000506 	br	1807860 <__multiply+0x1bc>
 180784c:	18800017 	ldw	r2,0(r3)
 1807850:	1000031e 	bne	r2,zero,1807860 <__multiply+0x1bc>
 1807854:	843fffc4 	addi	r16,r16,-1
 1807858:	18ffff04 	addi	r3,r3,-4
 180785c:	803ffb1e 	bne	r16,zero,180784c <__multiply+0x1a8>
 1807860:	a805883a 	mov	r2,r21
 1807864:	ac000415 	stw	r16,16(r21)
 1807868:	dfc00617 	ldw	ra,24(sp)
 180786c:	dd400517 	ldw	r21,20(sp)
 1807870:	dd000417 	ldw	r20,16(sp)
 1807874:	dcc00317 	ldw	r19,12(sp)
 1807878:	dc800217 	ldw	r18,8(sp)
 180787c:	dc400117 	ldw	r17,4(sp)
 1807880:	dc000017 	ldw	r16,0(sp)
 1807884:	dec00704 	addi	sp,sp,28
 1807888:	f800283a 	ret

0180788c <__i2b>:
 180788c:	defffd04 	addi	sp,sp,-12
 1807890:	dc000015 	stw	r16,0(sp)
 1807894:	04000044 	movi	r16,1
 1807898:	dc800115 	stw	r18,4(sp)
 180789c:	2825883a 	mov	r18,r5
 18078a0:	800b883a 	mov	r5,r16
 18078a4:	dfc00215 	stw	ra,8(sp)
 18078a8:	18071940 	call	1807194 <_Balloc>
 18078ac:	14000415 	stw	r16,16(r2)
 18078b0:	14800515 	stw	r18,20(r2)
 18078b4:	dfc00217 	ldw	ra,8(sp)
 18078b8:	dc800117 	ldw	r18,4(sp)
 18078bc:	dc000017 	ldw	r16,0(sp)
 18078c0:	dec00304 	addi	sp,sp,12
 18078c4:	f800283a 	ret

018078c8 <__multadd>:
 18078c8:	defffa04 	addi	sp,sp,-24
 18078cc:	dc800215 	stw	r18,8(sp)
 18078d0:	2c800417 	ldw	r18,16(r5)
 18078d4:	dd000415 	stw	r20,16(sp)
 18078d8:	dcc00315 	stw	r19,12(sp)
 18078dc:	dc000015 	stw	r16,0(sp)
 18078e0:	dfc00515 	stw	ra,20(sp)
 18078e4:	3821883a 	mov	r16,r7
 18078e8:	dc400115 	stw	r17,4(sp)
 18078ec:	2827883a 	mov	r19,r5
 18078f0:	2029883a 	mov	r20,r4
 18078f4:	2a000504 	addi	r8,r5,20
 18078f8:	000f883a 	mov	r7,zero
 18078fc:	40800017 	ldw	r2,0(r8)
 1807900:	39c00044 	addi	r7,r7,1
 1807904:	10ffffcc 	andi	r3,r2,65535
 1807908:	1987383a 	mul	r3,r3,r6
 180790c:	1004d43a 	srli	r2,r2,16
 1807910:	1c07883a 	add	r3,r3,r16
 1807914:	180ad43a 	srli	r5,r3,16
 1807918:	1185383a 	mul	r2,r2,r6
 180791c:	18ffffcc 	andi	r3,r3,65535
 1807920:	1145883a 	add	r2,r2,r5
 1807924:	1008943a 	slli	r4,r2,16
 1807928:	1020d43a 	srli	r16,r2,16
 180792c:	20c9883a 	add	r4,r4,r3
 1807930:	41000015 	stw	r4,0(r8)
 1807934:	42000104 	addi	r8,r8,4
 1807938:	3cbff016 	blt	r7,r18,18078fc <__multadd+0x34>
 180793c:	80000826 	beq	r16,zero,1807960 <__multadd+0x98>
 1807940:	98800217 	ldw	r2,8(r19)
 1807944:	90800f0e 	bge	r18,r2,1807984 <__multadd+0xbc>
 1807948:	9485883a 	add	r2,r18,r18
 180794c:	1085883a 	add	r2,r2,r2
 1807950:	14c5883a 	add	r2,r2,r19
 1807954:	90c00044 	addi	r3,r18,1
 1807958:	14000515 	stw	r16,20(r2)
 180795c:	98c00415 	stw	r3,16(r19)
 1807960:	9805883a 	mov	r2,r19
 1807964:	dfc00517 	ldw	ra,20(sp)
 1807968:	dd000417 	ldw	r20,16(sp)
 180796c:	dcc00317 	ldw	r19,12(sp)
 1807970:	dc800217 	ldw	r18,8(sp)
 1807974:	dc400117 	ldw	r17,4(sp)
 1807978:	dc000017 	ldw	r16,0(sp)
 180797c:	dec00604 	addi	sp,sp,24
 1807980:	f800283a 	ret
 1807984:	99400117 	ldw	r5,4(r19)
 1807988:	a009883a 	mov	r4,r20
 180798c:	29400044 	addi	r5,r5,1
 1807990:	18071940 	call	1807194 <_Balloc>
 1807994:	99800417 	ldw	r6,16(r19)
 1807998:	99400304 	addi	r5,r19,12
 180799c:	11000304 	addi	r4,r2,12
 18079a0:	318d883a 	add	r6,r6,r6
 18079a4:	318d883a 	add	r6,r6,r6
 18079a8:	31800204 	addi	r6,r6,8
 18079ac:	1023883a 	mov	r17,r2
 18079b0:	18069fc0 	call	18069fc <memcpy>
 18079b4:	980b883a 	mov	r5,r19
 18079b8:	a009883a 	mov	r4,r20
 18079bc:	1806c140 	call	1806c14 <_Bfree>
 18079c0:	8827883a 	mov	r19,r17
 18079c4:	003fe006 	br	1807948 <__multadd+0x80>

018079c8 <__pow5mult>:
 18079c8:	defffa04 	addi	sp,sp,-24
 18079cc:	308000cc 	andi	r2,r6,3
 18079d0:	dd000415 	stw	r20,16(sp)
 18079d4:	dcc00315 	stw	r19,12(sp)
 18079d8:	dc000015 	stw	r16,0(sp)
 18079dc:	dfc00515 	stw	ra,20(sp)
 18079e0:	dc800215 	stw	r18,8(sp)
 18079e4:	dc400115 	stw	r17,4(sp)
 18079e8:	3021883a 	mov	r16,r6
 18079ec:	2027883a 	mov	r19,r4
 18079f0:	2829883a 	mov	r20,r5
 18079f4:	10002b1e 	bne	r2,zero,1807aa4 <__pow5mult+0xdc>
 18079f8:	8025d0ba 	srai	r18,r16,2
 18079fc:	90001b26 	beq	r18,zero,1807a6c <__pow5mult+0xa4>
 1807a00:	9c001217 	ldw	r16,72(r19)
 1807a04:	8000081e 	bne	r16,zero,1807a28 <__pow5mult+0x60>
 1807a08:	00003006 	br	1807acc <__pow5mult+0x104>
 1807a0c:	800b883a 	mov	r5,r16
 1807a10:	800d883a 	mov	r6,r16
 1807a14:	9809883a 	mov	r4,r19
 1807a18:	90001426 	beq	r18,zero,1807a6c <__pow5mult+0xa4>
 1807a1c:	80800017 	ldw	r2,0(r16)
 1807a20:	10001b26 	beq	r2,zero,1807a90 <__pow5mult+0xc8>
 1807a24:	1021883a 	mov	r16,r2
 1807a28:	9080004c 	andi	r2,r18,1
 1807a2c:	1005003a 	cmpeq	r2,r2,zero
 1807a30:	9025d07a 	srai	r18,r18,1
 1807a34:	800d883a 	mov	r6,r16
 1807a38:	9809883a 	mov	r4,r19
 1807a3c:	a00b883a 	mov	r5,r20
 1807a40:	103ff21e 	bne	r2,zero,1807a0c <__pow5mult+0x44>
 1807a44:	18076a40 	call	18076a4 <__multiply>
 1807a48:	a00b883a 	mov	r5,r20
 1807a4c:	9809883a 	mov	r4,r19
 1807a50:	1023883a 	mov	r17,r2
 1807a54:	1806c140 	call	1806c14 <_Bfree>
 1807a58:	8829883a 	mov	r20,r17
 1807a5c:	800b883a 	mov	r5,r16
 1807a60:	800d883a 	mov	r6,r16
 1807a64:	9809883a 	mov	r4,r19
 1807a68:	903fec1e 	bne	r18,zero,1807a1c <__pow5mult+0x54>
 1807a6c:	a005883a 	mov	r2,r20
 1807a70:	dfc00517 	ldw	ra,20(sp)
 1807a74:	dd000417 	ldw	r20,16(sp)
 1807a78:	dcc00317 	ldw	r19,12(sp)
 1807a7c:	dc800217 	ldw	r18,8(sp)
 1807a80:	dc400117 	ldw	r17,4(sp)
 1807a84:	dc000017 	ldw	r16,0(sp)
 1807a88:	dec00604 	addi	sp,sp,24
 1807a8c:	f800283a 	ret
 1807a90:	18076a40 	call	18076a4 <__multiply>
 1807a94:	80800015 	stw	r2,0(r16)
 1807a98:	1021883a 	mov	r16,r2
 1807a9c:	10000015 	stw	zero,0(r2)
 1807aa0:	003fe106 	br	1807a28 <__pow5mult+0x60>
 1807aa4:	1085883a 	add	r2,r2,r2
 1807aa8:	00c06074 	movhi	r3,385
 1807aac:	18c48804 	addi	r3,r3,4640
 1807ab0:	1085883a 	add	r2,r2,r2
 1807ab4:	10c5883a 	add	r2,r2,r3
 1807ab8:	11bfff17 	ldw	r6,-4(r2)
 1807abc:	000f883a 	mov	r7,zero
 1807ac0:	18078c80 	call	18078c8 <__multadd>
 1807ac4:	1029883a 	mov	r20,r2
 1807ac8:	003fcb06 	br	18079f8 <__pow5mult+0x30>
 1807acc:	9809883a 	mov	r4,r19
 1807ad0:	01409c44 	movi	r5,625
 1807ad4:	180788c0 	call	180788c <__i2b>
 1807ad8:	98801215 	stw	r2,72(r19)
 1807adc:	1021883a 	mov	r16,r2
 1807ae0:	10000015 	stw	zero,0(r2)
 1807ae4:	003fd006 	br	1807a28 <__pow5mult+0x60>

01807ae8 <__s2b>:
 1807ae8:	defff904 	addi	sp,sp,-28
 1807aec:	dcc00315 	stw	r19,12(sp)
 1807af0:	dc800215 	stw	r18,8(sp)
 1807af4:	2827883a 	mov	r19,r5
 1807af8:	2025883a 	mov	r18,r4
 1807afc:	01400244 	movi	r5,9
 1807b00:	39000204 	addi	r4,r7,8
 1807b04:	dd000415 	stw	r20,16(sp)
 1807b08:	dc400115 	stw	r17,4(sp)
 1807b0c:	dfc00615 	stw	ra,24(sp)
 1807b10:	dd400515 	stw	r21,20(sp)
 1807b14:	dc000015 	stw	r16,0(sp)
 1807b18:	3829883a 	mov	r20,r7
 1807b1c:	3023883a 	mov	r17,r6
 1807b20:	180a1440 	call	180a144 <__divsi3>
 1807b24:	00c00044 	movi	r3,1
 1807b28:	1880350e 	bge	r3,r2,1807c00 <__s2b+0x118>
 1807b2c:	000b883a 	mov	r5,zero
 1807b30:	18c7883a 	add	r3,r3,r3
 1807b34:	29400044 	addi	r5,r5,1
 1807b38:	18bffd16 	blt	r3,r2,1807b30 <__s2b+0x48>
 1807b3c:	9009883a 	mov	r4,r18
 1807b40:	18071940 	call	1807194 <_Balloc>
 1807b44:	1011883a 	mov	r8,r2
 1807b48:	d8800717 	ldw	r2,28(sp)
 1807b4c:	00c00044 	movi	r3,1
 1807b50:	01800244 	movi	r6,9
 1807b54:	40800515 	stw	r2,20(r8)
 1807b58:	40c00415 	stw	r3,16(r8)
 1807b5c:	3440260e 	bge	r6,r17,1807bf8 <__s2b+0x110>
 1807b60:	3021883a 	mov	r16,r6
 1807b64:	99ab883a 	add	r21,r19,r6
 1807b68:	9c05883a 	add	r2,r19,r16
 1807b6c:	11c00007 	ldb	r7,0(r2)
 1807b70:	400b883a 	mov	r5,r8
 1807b74:	9009883a 	mov	r4,r18
 1807b78:	39fff404 	addi	r7,r7,-48
 1807b7c:	01800284 	movi	r6,10
 1807b80:	18078c80 	call	18078c8 <__multadd>
 1807b84:	84000044 	addi	r16,r16,1
 1807b88:	1011883a 	mov	r8,r2
 1807b8c:	8c3ff61e 	bne	r17,r16,1807b68 <__s2b+0x80>
 1807b90:	ac45883a 	add	r2,r21,r17
 1807b94:	117ffe04 	addi	r5,r2,-8
 1807b98:	880d883a 	mov	r6,r17
 1807b9c:	35000c0e 	bge	r6,r20,1807bd0 <__s2b+0xe8>
 1807ba0:	a185c83a 	sub	r2,r20,r6
 1807ba4:	2821883a 	mov	r16,r5
 1807ba8:	28a3883a 	add	r17,r5,r2
 1807bac:	81c00007 	ldb	r7,0(r16)
 1807bb0:	400b883a 	mov	r5,r8
 1807bb4:	9009883a 	mov	r4,r18
 1807bb8:	39fff404 	addi	r7,r7,-48
 1807bbc:	01800284 	movi	r6,10
 1807bc0:	18078c80 	call	18078c8 <__multadd>
 1807bc4:	84000044 	addi	r16,r16,1
 1807bc8:	1011883a 	mov	r8,r2
 1807bcc:	847ff71e 	bne	r16,r17,1807bac <__s2b+0xc4>
 1807bd0:	4005883a 	mov	r2,r8
 1807bd4:	dfc00617 	ldw	ra,24(sp)
 1807bd8:	dd400517 	ldw	r21,20(sp)
 1807bdc:	dd000417 	ldw	r20,16(sp)
 1807be0:	dcc00317 	ldw	r19,12(sp)
 1807be4:	dc800217 	ldw	r18,8(sp)
 1807be8:	dc400117 	ldw	r17,4(sp)
 1807bec:	dc000017 	ldw	r16,0(sp)
 1807bf0:	dec00704 	addi	sp,sp,28
 1807bf4:	f800283a 	ret
 1807bf8:	99400284 	addi	r5,r19,10
 1807bfc:	003fe706 	br	1807b9c <__s2b+0xb4>
 1807c00:	000b883a 	mov	r5,zero
 1807c04:	003fcd06 	br	1807b3c <__s2b+0x54>

01807c08 <_realloc_r>:
 1807c08:	defff404 	addi	sp,sp,-48
 1807c0c:	dd800815 	stw	r22,32(sp)
 1807c10:	dc800415 	stw	r18,16(sp)
 1807c14:	dc400315 	stw	r17,12(sp)
 1807c18:	dfc00b15 	stw	ra,44(sp)
 1807c1c:	df000a15 	stw	fp,40(sp)
 1807c20:	ddc00915 	stw	r23,36(sp)
 1807c24:	dd400715 	stw	r21,28(sp)
 1807c28:	dd000615 	stw	r20,24(sp)
 1807c2c:	dcc00515 	stw	r19,20(sp)
 1807c30:	dc000215 	stw	r16,8(sp)
 1807c34:	2825883a 	mov	r18,r5
 1807c38:	3023883a 	mov	r17,r6
 1807c3c:	202d883a 	mov	r22,r4
 1807c40:	2800c926 	beq	r5,zero,1807f68 <_realloc_r+0x360>
 1807c44:	180a90c0 	call	180a90c <__malloc_lock>
 1807c48:	943ffe04 	addi	r16,r18,-8
 1807c4c:	88c002c4 	addi	r3,r17,11
 1807c50:	00800584 	movi	r2,22
 1807c54:	82000117 	ldw	r8,4(r16)
 1807c58:	10c01b2e 	bgeu	r2,r3,1807cc8 <_realloc_r+0xc0>
 1807c5c:	00bffe04 	movi	r2,-8
 1807c60:	188e703a 	and	r7,r3,r2
 1807c64:	3839883a 	mov	fp,r7
 1807c68:	38001a16 	blt	r7,zero,1807cd4 <_realloc_r+0xcc>
 1807c6c:	e4401936 	bltu	fp,r17,1807cd4 <_realloc_r+0xcc>
 1807c70:	013fff04 	movi	r4,-4
 1807c74:	4126703a 	and	r19,r8,r4
 1807c78:	99c02616 	blt	r19,r7,1807d14 <_realloc_r+0x10c>
 1807c7c:	802b883a 	mov	r21,r16
 1807c80:	9829883a 	mov	r20,r19
 1807c84:	84000204 	addi	r16,r16,8
 1807c88:	a80f883a 	mov	r7,r21
 1807c8c:	a70dc83a 	sub	r6,r20,fp
 1807c90:	008003c4 	movi	r2,15
 1807c94:	1180c136 	bltu	r2,r6,1807f9c <_realloc_r+0x394>
 1807c98:	38800117 	ldw	r2,4(r7)
 1807c9c:	a549883a 	add	r4,r20,r21
 1807ca0:	1080004c 	andi	r2,r2,1
 1807ca4:	a084b03a 	or	r2,r20,r2
 1807ca8:	38800115 	stw	r2,4(r7)
 1807cac:	20c00117 	ldw	r3,4(r4)
 1807cb0:	18c00054 	ori	r3,r3,1
 1807cb4:	20c00115 	stw	r3,4(r4)
 1807cb8:	b009883a 	mov	r4,r22
 1807cbc:	180a92c0 	call	180a92c <__malloc_unlock>
 1807cc0:	8023883a 	mov	r17,r16
 1807cc4:	00000606 	br	1807ce0 <_realloc_r+0xd8>
 1807cc8:	01c00404 	movi	r7,16
 1807ccc:	3839883a 	mov	fp,r7
 1807cd0:	e47fe72e 	bgeu	fp,r17,1807c70 <_realloc_r+0x68>
 1807cd4:	00800304 	movi	r2,12
 1807cd8:	0023883a 	mov	r17,zero
 1807cdc:	b0800015 	stw	r2,0(r22)
 1807ce0:	8805883a 	mov	r2,r17
 1807ce4:	dfc00b17 	ldw	ra,44(sp)
 1807ce8:	df000a17 	ldw	fp,40(sp)
 1807cec:	ddc00917 	ldw	r23,36(sp)
 1807cf0:	dd800817 	ldw	r22,32(sp)
 1807cf4:	dd400717 	ldw	r21,28(sp)
 1807cf8:	dd000617 	ldw	r20,24(sp)
 1807cfc:	dcc00517 	ldw	r19,20(sp)
 1807d00:	dc800417 	ldw	r18,16(sp)
 1807d04:	dc400317 	ldw	r17,12(sp)
 1807d08:	dc000217 	ldw	r16,8(sp)
 1807d0c:	dec00c04 	addi	sp,sp,48
 1807d10:	f800283a 	ret
 1807d14:	00806074 	movhi	r2,385
 1807d18:	10864404 	addi	r2,r2,6416
 1807d1c:	12400217 	ldw	r9,8(r2)
 1807d20:	84cd883a 	add	r6,r16,r19
 1807d24:	802b883a 	mov	r21,r16
 1807d28:	3240b926 	beq	r6,r9,1808010 <_realloc_r+0x408>
 1807d2c:	31400117 	ldw	r5,4(r6)
 1807d30:	00bfff84 	movi	r2,-2
 1807d34:	2884703a 	and	r2,r5,r2
 1807d38:	1185883a 	add	r2,r2,r6
 1807d3c:	10c00117 	ldw	r3,4(r2)
 1807d40:	18c0004c 	andi	r3,r3,1
 1807d44:	1807003a 	cmpeq	r3,r3,zero
 1807d48:	1800a326 	beq	r3,zero,1807fd8 <_realloc_r+0x3d0>
 1807d4c:	2908703a 	and	r4,r5,r4
 1807d50:	9929883a 	add	r20,r19,r4
 1807d54:	a1c0a30e 	bge	r20,r7,1807fe4 <_realloc_r+0x3dc>
 1807d58:	4080004c 	andi	r2,r8,1
 1807d5c:	1000551e 	bne	r2,zero,1807eb4 <_realloc_r+0x2ac>
 1807d60:	80800017 	ldw	r2,0(r16)
 1807d64:	80afc83a 	sub	r23,r16,r2
 1807d68:	b8c00117 	ldw	r3,4(r23)
 1807d6c:	00bfff04 	movi	r2,-4
 1807d70:	1884703a 	and	r2,r3,r2
 1807d74:	30002e26 	beq	r6,zero,1807e30 <_realloc_r+0x228>
 1807d78:	3240b926 	beq	r6,r9,1808060 <_realloc_r+0x458>
 1807d7c:	98a9883a 	add	r20,r19,r2
 1807d80:	2509883a 	add	r4,r4,r20
 1807d84:	d9000015 	stw	r4,0(sp)
 1807d88:	21c02a16 	blt	r4,r7,1807e34 <_realloc_r+0x22c>
 1807d8c:	30800317 	ldw	r2,12(r6)
 1807d90:	30c00217 	ldw	r3,8(r6)
 1807d94:	01400904 	movi	r5,36
 1807d98:	99bfff04 	addi	r6,r19,-4
 1807d9c:	18800315 	stw	r2,12(r3)
 1807da0:	10c00215 	stw	r3,8(r2)
 1807da4:	b9000317 	ldw	r4,12(r23)
 1807da8:	b8800217 	ldw	r2,8(r23)
 1807dac:	b82b883a 	mov	r21,r23
 1807db0:	bc000204 	addi	r16,r23,8
 1807db4:	20800215 	stw	r2,8(r4)
 1807db8:	11000315 	stw	r4,12(r2)
 1807dbc:	2980e436 	bltu	r5,r6,1808150 <_realloc_r+0x548>
 1807dc0:	008004c4 	movi	r2,19
 1807dc4:	9009883a 	mov	r4,r18
 1807dc8:	8011883a 	mov	r8,r16
 1807dcc:	11800f2e 	bgeu	r2,r6,1807e0c <_realloc_r+0x204>
 1807dd0:	90800017 	ldw	r2,0(r18)
 1807dd4:	ba000404 	addi	r8,r23,16
 1807dd8:	91000204 	addi	r4,r18,8
 1807ddc:	b8800215 	stw	r2,8(r23)
 1807de0:	90c00117 	ldw	r3,4(r18)
 1807de4:	008006c4 	movi	r2,27
 1807de8:	b8c00315 	stw	r3,12(r23)
 1807dec:	1180072e 	bgeu	r2,r6,1807e0c <_realloc_r+0x204>
 1807df0:	90c00217 	ldw	r3,8(r18)
 1807df4:	ba000604 	addi	r8,r23,24
 1807df8:	91000404 	addi	r4,r18,16
 1807dfc:	b8c00415 	stw	r3,16(r23)
 1807e00:	90800317 	ldw	r2,12(r18)
 1807e04:	b8800515 	stw	r2,20(r23)
 1807e08:	3140e726 	beq	r6,r5,18081a8 <_realloc_r+0x5a0>
 1807e0c:	20800017 	ldw	r2,0(r4)
 1807e10:	dd000017 	ldw	r20,0(sp)
 1807e14:	b80f883a 	mov	r7,r23
 1807e18:	40800015 	stw	r2,0(r8)
 1807e1c:	20c00117 	ldw	r3,4(r4)
 1807e20:	40c00115 	stw	r3,4(r8)
 1807e24:	20800217 	ldw	r2,8(r4)
 1807e28:	40800215 	stw	r2,8(r8)
 1807e2c:	003f9706 	br	1807c8c <_realloc_r+0x84>
 1807e30:	98a9883a 	add	r20,r19,r2
 1807e34:	a1c01f16 	blt	r20,r7,1807eb4 <_realloc_r+0x2ac>
 1807e38:	b8c00317 	ldw	r3,12(r23)
 1807e3c:	b8800217 	ldw	r2,8(r23)
 1807e40:	99bfff04 	addi	r6,r19,-4
 1807e44:	01400904 	movi	r5,36
 1807e48:	b82b883a 	mov	r21,r23
 1807e4c:	18800215 	stw	r2,8(r3)
 1807e50:	10c00315 	stw	r3,12(r2)
 1807e54:	bc000204 	addi	r16,r23,8
 1807e58:	2980c336 	bltu	r5,r6,1808168 <_realloc_r+0x560>
 1807e5c:	008004c4 	movi	r2,19
 1807e60:	9009883a 	mov	r4,r18
 1807e64:	8011883a 	mov	r8,r16
 1807e68:	11800f2e 	bgeu	r2,r6,1807ea8 <_realloc_r+0x2a0>
 1807e6c:	90800017 	ldw	r2,0(r18)
 1807e70:	ba000404 	addi	r8,r23,16
 1807e74:	91000204 	addi	r4,r18,8
 1807e78:	b8800215 	stw	r2,8(r23)
 1807e7c:	90c00117 	ldw	r3,4(r18)
 1807e80:	008006c4 	movi	r2,27
 1807e84:	b8c00315 	stw	r3,12(r23)
 1807e88:	1180072e 	bgeu	r2,r6,1807ea8 <_realloc_r+0x2a0>
 1807e8c:	90c00217 	ldw	r3,8(r18)
 1807e90:	ba000604 	addi	r8,r23,24
 1807e94:	91000404 	addi	r4,r18,16
 1807e98:	b8c00415 	stw	r3,16(r23)
 1807e9c:	90800317 	ldw	r2,12(r18)
 1807ea0:	b8800515 	stw	r2,20(r23)
 1807ea4:	3140c726 	beq	r6,r5,18081c4 <_realloc_r+0x5bc>
 1807ea8:	20800017 	ldw	r2,0(r4)
 1807eac:	b80f883a 	mov	r7,r23
 1807eb0:	003fd906 	br	1807e18 <_realloc_r+0x210>
 1807eb4:	880b883a 	mov	r5,r17
 1807eb8:	b009883a 	mov	r4,r22
 1807ebc:	18061d80 	call	18061d8 <_malloc_r>
 1807ec0:	1023883a 	mov	r17,r2
 1807ec4:	10002526 	beq	r2,zero,1807f5c <_realloc_r+0x354>
 1807ec8:	80800117 	ldw	r2,4(r16)
 1807ecc:	00ffff84 	movi	r3,-2
 1807ed0:	893ffe04 	addi	r4,r17,-8
 1807ed4:	10c4703a 	and	r2,r2,r3
 1807ed8:	8085883a 	add	r2,r16,r2
 1807edc:	20809526 	beq	r4,r2,1808134 <_realloc_r+0x52c>
 1807ee0:	99bfff04 	addi	r6,r19,-4
 1807ee4:	01c00904 	movi	r7,36
 1807ee8:	39804536 	bltu	r7,r6,1808000 <_realloc_r+0x3f8>
 1807eec:	008004c4 	movi	r2,19
 1807ef0:	9009883a 	mov	r4,r18
 1807ef4:	880b883a 	mov	r5,r17
 1807ef8:	11800f2e 	bgeu	r2,r6,1807f38 <_realloc_r+0x330>
 1807efc:	90800017 	ldw	r2,0(r18)
 1807f00:	89400204 	addi	r5,r17,8
 1807f04:	91000204 	addi	r4,r18,8
 1807f08:	88800015 	stw	r2,0(r17)
 1807f0c:	90c00117 	ldw	r3,4(r18)
 1807f10:	008006c4 	movi	r2,27
 1807f14:	88c00115 	stw	r3,4(r17)
 1807f18:	1180072e 	bgeu	r2,r6,1807f38 <_realloc_r+0x330>
 1807f1c:	90c00217 	ldw	r3,8(r18)
 1807f20:	89400404 	addi	r5,r17,16
 1807f24:	91000404 	addi	r4,r18,16
 1807f28:	88c00215 	stw	r3,8(r17)
 1807f2c:	90800317 	ldw	r2,12(r18)
 1807f30:	88800315 	stw	r2,12(r17)
 1807f34:	31c09126 	beq	r6,r7,180817c <_realloc_r+0x574>
 1807f38:	20800017 	ldw	r2,0(r4)
 1807f3c:	28800015 	stw	r2,0(r5)
 1807f40:	20c00117 	ldw	r3,4(r4)
 1807f44:	28c00115 	stw	r3,4(r5)
 1807f48:	20800217 	ldw	r2,8(r4)
 1807f4c:	28800215 	stw	r2,8(r5)
 1807f50:	900b883a 	mov	r5,r18
 1807f54:	b009883a 	mov	r4,r22
 1807f58:	18056500 	call	1805650 <_free_r>
 1807f5c:	b009883a 	mov	r4,r22
 1807f60:	180a92c0 	call	180a92c <__malloc_unlock>
 1807f64:	003f5e06 	br	1807ce0 <_realloc_r+0xd8>
 1807f68:	300b883a 	mov	r5,r6
 1807f6c:	dfc00b17 	ldw	ra,44(sp)
 1807f70:	df000a17 	ldw	fp,40(sp)
 1807f74:	ddc00917 	ldw	r23,36(sp)
 1807f78:	dd800817 	ldw	r22,32(sp)
 1807f7c:	dd400717 	ldw	r21,28(sp)
 1807f80:	dd000617 	ldw	r20,24(sp)
 1807f84:	dcc00517 	ldw	r19,20(sp)
 1807f88:	dc800417 	ldw	r18,16(sp)
 1807f8c:	dc400317 	ldw	r17,12(sp)
 1807f90:	dc000217 	ldw	r16,8(sp)
 1807f94:	dec00c04 	addi	sp,sp,48
 1807f98:	18061d81 	jmpi	18061d8 <_malloc_r>
 1807f9c:	38800117 	ldw	r2,4(r7)
 1807fa0:	e54b883a 	add	r5,fp,r21
 1807fa4:	31000054 	ori	r4,r6,1
 1807fa8:	1080004c 	andi	r2,r2,1
 1807fac:	1704b03a 	or	r2,r2,fp
 1807fb0:	38800115 	stw	r2,4(r7)
 1807fb4:	29000115 	stw	r4,4(r5)
 1807fb8:	2987883a 	add	r3,r5,r6
 1807fbc:	18800117 	ldw	r2,4(r3)
 1807fc0:	29400204 	addi	r5,r5,8
 1807fc4:	b009883a 	mov	r4,r22
 1807fc8:	10800054 	ori	r2,r2,1
 1807fcc:	18800115 	stw	r2,4(r3)
 1807fd0:	18056500 	call	1805650 <_free_r>
 1807fd4:	003f3806 	br	1807cb8 <_realloc_r+0xb0>
 1807fd8:	000d883a 	mov	r6,zero
 1807fdc:	0009883a 	mov	r4,zero
 1807fe0:	003f5d06 	br	1807d58 <_realloc_r+0x150>
 1807fe4:	30c00217 	ldw	r3,8(r6)
 1807fe8:	30800317 	ldw	r2,12(r6)
 1807fec:	800f883a 	mov	r7,r16
 1807ff0:	84000204 	addi	r16,r16,8
 1807ff4:	10c00215 	stw	r3,8(r2)
 1807ff8:	18800315 	stw	r2,12(r3)
 1807ffc:	003f2306 	br	1807c8c <_realloc_r+0x84>
 1808000:	8809883a 	mov	r4,r17
 1808004:	900b883a 	mov	r5,r18
 1808008:	1806a9c0 	call	1806a9c <memmove>
 180800c:	003fd006 	br	1807f50 <_realloc_r+0x348>
 1808010:	30800117 	ldw	r2,4(r6)
 1808014:	e0c00404 	addi	r3,fp,16
 1808018:	1108703a 	and	r4,r2,r4
 180801c:	9905883a 	add	r2,r19,r4
 1808020:	10ff4d16 	blt	r2,r3,1807d58 <_realloc_r+0x150>
 1808024:	1705c83a 	sub	r2,r2,fp
 1808028:	870b883a 	add	r5,r16,fp
 180802c:	10800054 	ori	r2,r2,1
 1808030:	28800115 	stw	r2,4(r5)
 1808034:	80c00117 	ldw	r3,4(r16)
 1808038:	00806074 	movhi	r2,385
 180803c:	10864404 	addi	r2,r2,6416
 1808040:	b009883a 	mov	r4,r22
 1808044:	18c0004c 	andi	r3,r3,1
 1808048:	e0c6b03a 	or	r3,fp,r3
 180804c:	11400215 	stw	r5,8(r2)
 1808050:	80c00115 	stw	r3,4(r16)
 1808054:	180a92c0 	call	180a92c <__malloc_unlock>
 1808058:	84400204 	addi	r17,r16,8
 180805c:	003f2006 	br	1807ce0 <_realloc_r+0xd8>
 1808060:	98a9883a 	add	r20,r19,r2
 1808064:	2509883a 	add	r4,r4,r20
 1808068:	e0800404 	addi	r2,fp,16
 180806c:	d9000115 	stw	r4,4(sp)
 1808070:	20bf7016 	blt	r4,r2,1807e34 <_realloc_r+0x22c>
 1808074:	b8c00317 	ldw	r3,12(r23)
 1808078:	b8800217 	ldw	r2,8(r23)
 180807c:	99bfff04 	addi	r6,r19,-4
 1808080:	01400904 	movi	r5,36
 1808084:	18800215 	stw	r2,8(r3)
 1808088:	10c00315 	stw	r3,12(r2)
 180808c:	bc400204 	addi	r17,r23,8
 1808090:	29804136 	bltu	r5,r6,1808198 <_realloc_r+0x590>
 1808094:	008004c4 	movi	r2,19
 1808098:	9009883a 	mov	r4,r18
 180809c:	880f883a 	mov	r7,r17
 18080a0:	11800f2e 	bgeu	r2,r6,18080e0 <_realloc_r+0x4d8>
 18080a4:	90800017 	ldw	r2,0(r18)
 18080a8:	b9c00404 	addi	r7,r23,16
 18080ac:	91000204 	addi	r4,r18,8
 18080b0:	b8800215 	stw	r2,8(r23)
 18080b4:	90c00117 	ldw	r3,4(r18)
 18080b8:	008006c4 	movi	r2,27
 18080bc:	b8c00315 	stw	r3,12(r23)
 18080c0:	1180072e 	bgeu	r2,r6,18080e0 <_realloc_r+0x4d8>
 18080c4:	90c00217 	ldw	r3,8(r18)
 18080c8:	b9c00604 	addi	r7,r23,24
 18080cc:	91000404 	addi	r4,r18,16
 18080d0:	b8c00415 	stw	r3,16(r23)
 18080d4:	90800317 	ldw	r2,12(r18)
 18080d8:	b8800515 	stw	r2,20(r23)
 18080dc:	31404026 	beq	r6,r5,18081e0 <_realloc_r+0x5d8>
 18080e0:	20800017 	ldw	r2,0(r4)
 18080e4:	38800015 	stw	r2,0(r7)
 18080e8:	20c00117 	ldw	r3,4(r4)
 18080ec:	38c00115 	stw	r3,4(r7)
 18080f0:	20800217 	ldw	r2,8(r4)
 18080f4:	38800215 	stw	r2,8(r7)
 18080f8:	d8c00117 	ldw	r3,4(sp)
 18080fc:	bf0b883a 	add	r5,r23,fp
 1808100:	b009883a 	mov	r4,r22
 1808104:	1f05c83a 	sub	r2,r3,fp
 1808108:	10800054 	ori	r2,r2,1
 180810c:	28800115 	stw	r2,4(r5)
 1808110:	b8c00117 	ldw	r3,4(r23)
 1808114:	00806074 	movhi	r2,385
 1808118:	10864404 	addi	r2,r2,6416
 180811c:	11400215 	stw	r5,8(r2)
 1808120:	18c0004c 	andi	r3,r3,1
 1808124:	e0c6b03a 	or	r3,fp,r3
 1808128:	b8c00115 	stw	r3,4(r23)
 180812c:	180a92c0 	call	180a92c <__malloc_unlock>
 1808130:	003eeb06 	br	1807ce0 <_realloc_r+0xd8>
 1808134:	20800117 	ldw	r2,4(r4)
 1808138:	00ffff04 	movi	r3,-4
 180813c:	800f883a 	mov	r7,r16
 1808140:	10c4703a 	and	r2,r2,r3
 1808144:	98a9883a 	add	r20,r19,r2
 1808148:	84000204 	addi	r16,r16,8
 180814c:	003ecf06 	br	1807c8c <_realloc_r+0x84>
 1808150:	900b883a 	mov	r5,r18
 1808154:	8009883a 	mov	r4,r16
 1808158:	1806a9c0 	call	1806a9c <memmove>
 180815c:	dd000017 	ldw	r20,0(sp)
 1808160:	b80f883a 	mov	r7,r23
 1808164:	003ec906 	br	1807c8c <_realloc_r+0x84>
 1808168:	900b883a 	mov	r5,r18
 180816c:	8009883a 	mov	r4,r16
 1808170:	1806a9c0 	call	1806a9c <memmove>
 1808174:	b80f883a 	mov	r7,r23
 1808178:	003ec406 	br	1807c8c <_realloc_r+0x84>
 180817c:	90c00417 	ldw	r3,16(r18)
 1808180:	89400604 	addi	r5,r17,24
 1808184:	91000604 	addi	r4,r18,24
 1808188:	88c00415 	stw	r3,16(r17)
 180818c:	90800517 	ldw	r2,20(r18)
 1808190:	88800515 	stw	r2,20(r17)
 1808194:	003f6806 	br	1807f38 <_realloc_r+0x330>
 1808198:	900b883a 	mov	r5,r18
 180819c:	8809883a 	mov	r4,r17
 18081a0:	1806a9c0 	call	1806a9c <memmove>
 18081a4:	003fd406 	br	18080f8 <_realloc_r+0x4f0>
 18081a8:	90c00417 	ldw	r3,16(r18)
 18081ac:	91000604 	addi	r4,r18,24
 18081b0:	ba000804 	addi	r8,r23,32
 18081b4:	b8c00615 	stw	r3,24(r23)
 18081b8:	90800517 	ldw	r2,20(r18)
 18081bc:	b8800715 	stw	r2,28(r23)
 18081c0:	003f1206 	br	1807e0c <_realloc_r+0x204>
 18081c4:	90c00417 	ldw	r3,16(r18)
 18081c8:	91000604 	addi	r4,r18,24
 18081cc:	ba000804 	addi	r8,r23,32
 18081d0:	b8c00615 	stw	r3,24(r23)
 18081d4:	90800517 	ldw	r2,20(r18)
 18081d8:	b8800715 	stw	r2,28(r23)
 18081dc:	003f3206 	br	1807ea8 <_realloc_r+0x2a0>
 18081e0:	90c00417 	ldw	r3,16(r18)
 18081e4:	91000604 	addi	r4,r18,24
 18081e8:	b9c00804 	addi	r7,r23,32
 18081ec:	b8c00615 	stw	r3,24(r23)
 18081f0:	90800517 	ldw	r2,20(r18)
 18081f4:	b8800715 	stw	r2,28(r23)
 18081f8:	003fb906 	br	18080e0 <_realloc_r+0x4d8>

018081fc <__isinfd>:
 18081fc:	200d883a 	mov	r6,r4
 1808200:	0109c83a 	sub	r4,zero,r4
 1808204:	2188b03a 	or	r4,r4,r6
 1808208:	2008d7fa 	srli	r4,r4,31
 180820c:	00a00034 	movhi	r2,32768
 1808210:	10bfffc4 	addi	r2,r2,-1
 1808214:	1144703a 	and	r2,r2,r5
 1808218:	2088b03a 	or	r4,r4,r2
 180821c:	009ffc34 	movhi	r2,32752
 1808220:	1105c83a 	sub	r2,r2,r4
 1808224:	0087c83a 	sub	r3,zero,r2
 1808228:	10c4b03a 	or	r2,r2,r3
 180822c:	1004d7fa 	srli	r2,r2,31
 1808230:	00c00044 	movi	r3,1
 1808234:	1885c83a 	sub	r2,r3,r2
 1808238:	f800283a 	ret

0180823c <__isnand>:
 180823c:	200d883a 	mov	r6,r4
 1808240:	0109c83a 	sub	r4,zero,r4
 1808244:	2188b03a 	or	r4,r4,r6
 1808248:	2008d7fa 	srli	r4,r4,31
 180824c:	00a00034 	movhi	r2,32768
 1808250:	10bfffc4 	addi	r2,r2,-1
 1808254:	1144703a 	and	r2,r2,r5
 1808258:	2088b03a 	or	r4,r4,r2
 180825c:	009ffc34 	movhi	r2,32752
 1808260:	1105c83a 	sub	r2,r2,r4
 1808264:	1004d7fa 	srli	r2,r2,31
 1808268:	f800283a 	ret

0180826c <_sbrk_r>:
 180826c:	defffd04 	addi	sp,sp,-12
 1808270:	dc000015 	stw	r16,0(sp)
 1808274:	04006074 	movhi	r16,385
 1808278:	840c9104 	addi	r16,r16,12868
 180827c:	dc400115 	stw	r17,4(sp)
 1808280:	80000015 	stw	zero,0(r16)
 1808284:	2023883a 	mov	r17,r4
 1808288:	2809883a 	mov	r4,r5
 180828c:	dfc00215 	stw	ra,8(sp)
 1808290:	180ab2c0 	call	180ab2c <sbrk>
 1808294:	1007883a 	mov	r3,r2
 1808298:	00bfffc4 	movi	r2,-1
 180829c:	18800626 	beq	r3,r2,18082b8 <_sbrk_r+0x4c>
 18082a0:	1805883a 	mov	r2,r3
 18082a4:	dfc00217 	ldw	ra,8(sp)
 18082a8:	dc400117 	ldw	r17,4(sp)
 18082ac:	dc000017 	ldw	r16,0(sp)
 18082b0:	dec00304 	addi	sp,sp,12
 18082b4:	f800283a 	ret
 18082b8:	80800017 	ldw	r2,0(r16)
 18082bc:	103ff826 	beq	r2,zero,18082a0 <_sbrk_r+0x34>
 18082c0:	88800015 	stw	r2,0(r17)
 18082c4:	1805883a 	mov	r2,r3
 18082c8:	dfc00217 	ldw	ra,8(sp)
 18082cc:	dc400117 	ldw	r17,4(sp)
 18082d0:	dc000017 	ldw	r16,0(sp)
 18082d4:	dec00304 	addi	sp,sp,12
 18082d8:	f800283a 	ret

018082dc <__sclose>:
 18082dc:	2940038f 	ldh	r5,14(r5)
 18082e0:	18086841 	jmpi	1808684 <_close_r>

018082e4 <__sseek>:
 18082e4:	defffe04 	addi	sp,sp,-8
 18082e8:	dc000015 	stw	r16,0(sp)
 18082ec:	2821883a 	mov	r16,r5
 18082f0:	2940038f 	ldh	r5,14(r5)
 18082f4:	dfc00115 	stw	ra,4(sp)
 18082f8:	18088fc0 	call	18088fc <_lseek_r>
 18082fc:	1007883a 	mov	r3,r2
 1808300:	00bfffc4 	movi	r2,-1
 1808304:	18800926 	beq	r3,r2,180832c <__sseek+0x48>
 1808308:	8080030b 	ldhu	r2,12(r16)
 180830c:	80c01415 	stw	r3,80(r16)
 1808310:	10840014 	ori	r2,r2,4096
 1808314:	8080030d 	sth	r2,12(r16)
 1808318:	1805883a 	mov	r2,r3
 180831c:	dfc00117 	ldw	ra,4(sp)
 1808320:	dc000017 	ldw	r16,0(sp)
 1808324:	dec00204 	addi	sp,sp,8
 1808328:	f800283a 	ret
 180832c:	8080030b 	ldhu	r2,12(r16)
 1808330:	10bbffcc 	andi	r2,r2,61439
 1808334:	8080030d 	sth	r2,12(r16)
 1808338:	1805883a 	mov	r2,r3
 180833c:	dfc00117 	ldw	ra,4(sp)
 1808340:	dc000017 	ldw	r16,0(sp)
 1808344:	dec00204 	addi	sp,sp,8
 1808348:	f800283a 	ret

0180834c <__swrite>:
 180834c:	2880030b 	ldhu	r2,12(r5)
 1808350:	defffb04 	addi	sp,sp,-20
 1808354:	dcc00315 	stw	r19,12(sp)
 1808358:	1080400c 	andi	r2,r2,256
 180835c:	dc800215 	stw	r18,8(sp)
 1808360:	dc400115 	stw	r17,4(sp)
 1808364:	dc000015 	stw	r16,0(sp)
 1808368:	3027883a 	mov	r19,r6
 180836c:	3825883a 	mov	r18,r7
 1808370:	dfc00415 	stw	ra,16(sp)
 1808374:	2821883a 	mov	r16,r5
 1808378:	000d883a 	mov	r6,zero
 180837c:	01c00084 	movi	r7,2
 1808380:	2023883a 	mov	r17,r4
 1808384:	10000226 	beq	r2,zero,1808390 <__swrite+0x44>
 1808388:	2940038f 	ldh	r5,14(r5)
 180838c:	18088fc0 	call	18088fc <_lseek_r>
 1808390:	8080030b 	ldhu	r2,12(r16)
 1808394:	8140038f 	ldh	r5,14(r16)
 1808398:	8809883a 	mov	r4,r17
 180839c:	10bbffcc 	andi	r2,r2,61439
 18083a0:	980d883a 	mov	r6,r19
 18083a4:	900f883a 	mov	r7,r18
 18083a8:	8080030d 	sth	r2,12(r16)
 18083ac:	dfc00417 	ldw	ra,16(sp)
 18083b0:	dcc00317 	ldw	r19,12(sp)
 18083b4:	dc800217 	ldw	r18,8(sp)
 18083b8:	dc400117 	ldw	r17,4(sp)
 18083bc:	dc000017 	ldw	r16,0(sp)
 18083c0:	dec00504 	addi	sp,sp,20
 18083c4:	18085581 	jmpi	1808558 <_write_r>

018083c8 <__sread>:
 18083c8:	defffe04 	addi	sp,sp,-8
 18083cc:	dc000015 	stw	r16,0(sp)
 18083d0:	2821883a 	mov	r16,r5
 18083d4:	2940038f 	ldh	r5,14(r5)
 18083d8:	dfc00115 	stw	ra,4(sp)
 18083dc:	18089740 	call	1808974 <_read_r>
 18083e0:	1007883a 	mov	r3,r2
 18083e4:	10000816 	blt	r2,zero,1808408 <__sread+0x40>
 18083e8:	80801417 	ldw	r2,80(r16)
 18083ec:	10c5883a 	add	r2,r2,r3
 18083f0:	80801415 	stw	r2,80(r16)
 18083f4:	1805883a 	mov	r2,r3
 18083f8:	dfc00117 	ldw	ra,4(sp)
 18083fc:	dc000017 	ldw	r16,0(sp)
 1808400:	dec00204 	addi	sp,sp,8
 1808404:	f800283a 	ret
 1808408:	8080030b 	ldhu	r2,12(r16)
 180840c:	10bbffcc 	andi	r2,r2,61439
 1808410:	8080030d 	sth	r2,12(r16)
 1808414:	1805883a 	mov	r2,r3
 1808418:	dfc00117 	ldw	ra,4(sp)
 180841c:	dc000017 	ldw	r16,0(sp)
 1808420:	dec00204 	addi	sp,sp,8
 1808424:	f800283a 	ret

01808428 <strcmp>:
 1808428:	2144b03a 	or	r2,r4,r5
 180842c:	108000cc 	andi	r2,r2,3
 1808430:	10001d1e 	bne	r2,zero,18084a8 <strcmp+0x80>
 1808434:	200f883a 	mov	r7,r4
 1808438:	28800017 	ldw	r2,0(r5)
 180843c:	21000017 	ldw	r4,0(r4)
 1808440:	280d883a 	mov	r6,r5
 1808444:	2080161e 	bne	r4,r2,18084a0 <strcmp+0x78>
 1808448:	023fbff4 	movhi	r8,65279
 180844c:	423fbfc4 	addi	r8,r8,-257
 1808450:	2207883a 	add	r3,r4,r8
 1808454:	01602074 	movhi	r5,32897
 1808458:	29602004 	addi	r5,r5,-32640
 180845c:	1946703a 	and	r3,r3,r5
 1808460:	0104303a 	nor	r2,zero,r4
 1808464:	10c4703a 	and	r2,r2,r3
 1808468:	10001c1e 	bne	r2,zero,18084dc <strcmp+0xb4>
 180846c:	4013883a 	mov	r9,r8
 1808470:	2811883a 	mov	r8,r5
 1808474:	00000106 	br	180847c <strcmp+0x54>
 1808478:	1800181e 	bne	r3,zero,18084dc <strcmp+0xb4>
 180847c:	39c00104 	addi	r7,r7,4
 1808480:	39000017 	ldw	r4,0(r7)
 1808484:	31800104 	addi	r6,r6,4
 1808488:	31400017 	ldw	r5,0(r6)
 180848c:	2245883a 	add	r2,r4,r9
 1808490:	1204703a 	and	r2,r2,r8
 1808494:	0106303a 	nor	r3,zero,r4
 1808498:	1886703a 	and	r3,r3,r2
 180849c:	217ff626 	beq	r4,r5,1808478 <strcmp+0x50>
 18084a0:	3809883a 	mov	r4,r7
 18084a4:	300b883a 	mov	r5,r6
 18084a8:	20c00007 	ldb	r3,0(r4)
 18084ac:	1800051e 	bne	r3,zero,18084c4 <strcmp+0x9c>
 18084b0:	00000606 	br	18084cc <strcmp+0xa4>
 18084b4:	21000044 	addi	r4,r4,1
 18084b8:	20c00007 	ldb	r3,0(r4)
 18084bc:	29400044 	addi	r5,r5,1
 18084c0:	18000226 	beq	r3,zero,18084cc <strcmp+0xa4>
 18084c4:	28800007 	ldb	r2,0(r5)
 18084c8:	18bffa26 	beq	r3,r2,18084b4 <strcmp+0x8c>
 18084cc:	20c00003 	ldbu	r3,0(r4)
 18084d0:	28800003 	ldbu	r2,0(r5)
 18084d4:	1885c83a 	sub	r2,r3,r2
 18084d8:	f800283a 	ret
 18084dc:	0005883a 	mov	r2,zero
 18084e0:	f800283a 	ret

018084e4 <strlen>:
 18084e4:	208000cc 	andi	r2,r4,3
 18084e8:	2011883a 	mov	r8,r4
 18084ec:	1000161e 	bne	r2,zero,1808548 <strlen+0x64>
 18084f0:	20c00017 	ldw	r3,0(r4)
 18084f4:	017fbff4 	movhi	r5,65279
 18084f8:	297fbfc4 	addi	r5,r5,-257
 18084fc:	01e02074 	movhi	r7,32897
 1808500:	39e02004 	addi	r7,r7,-32640
 1808504:	1945883a 	add	r2,r3,r5
 1808508:	11c4703a 	and	r2,r2,r7
 180850c:	00c6303a 	nor	r3,zero,r3
 1808510:	1886703a 	and	r3,r3,r2
 1808514:	18000c1e 	bne	r3,zero,1808548 <strlen+0x64>
 1808518:	280d883a 	mov	r6,r5
 180851c:	380b883a 	mov	r5,r7
 1808520:	21000104 	addi	r4,r4,4
 1808524:	20800017 	ldw	r2,0(r4)
 1808528:	1187883a 	add	r3,r2,r6
 180852c:	1946703a 	and	r3,r3,r5
 1808530:	0084303a 	nor	r2,zero,r2
 1808534:	10c4703a 	and	r2,r2,r3
 1808538:	103ff926 	beq	r2,zero,1808520 <strlen+0x3c>
 180853c:	20800007 	ldb	r2,0(r4)
 1808540:	10000326 	beq	r2,zero,1808550 <strlen+0x6c>
 1808544:	21000044 	addi	r4,r4,1
 1808548:	20800007 	ldb	r2,0(r4)
 180854c:	103ffd1e 	bne	r2,zero,1808544 <strlen+0x60>
 1808550:	2205c83a 	sub	r2,r4,r8
 1808554:	f800283a 	ret

01808558 <_write_r>:
 1808558:	defffd04 	addi	sp,sp,-12
 180855c:	dc000015 	stw	r16,0(sp)
 1808560:	04006074 	movhi	r16,385
 1808564:	840c9104 	addi	r16,r16,12868
 1808568:	dc400115 	stw	r17,4(sp)
 180856c:	80000015 	stw	zero,0(r16)
 1808570:	2023883a 	mov	r17,r4
 1808574:	2809883a 	mov	r4,r5
 1808578:	300b883a 	mov	r5,r6
 180857c:	380d883a 	mov	r6,r7
 1808580:	dfc00215 	stw	ra,8(sp)
 1808584:	180ac180 	call	180ac18 <write>
 1808588:	1007883a 	mov	r3,r2
 180858c:	00bfffc4 	movi	r2,-1
 1808590:	18800626 	beq	r3,r2,18085ac <_write_r+0x54>
 1808594:	1805883a 	mov	r2,r3
 1808598:	dfc00217 	ldw	ra,8(sp)
 180859c:	dc400117 	ldw	r17,4(sp)
 18085a0:	dc000017 	ldw	r16,0(sp)
 18085a4:	dec00304 	addi	sp,sp,12
 18085a8:	f800283a 	ret
 18085ac:	80800017 	ldw	r2,0(r16)
 18085b0:	103ff826 	beq	r2,zero,1808594 <_write_r+0x3c>
 18085b4:	88800015 	stw	r2,0(r17)
 18085b8:	1805883a 	mov	r2,r3
 18085bc:	dfc00217 	ldw	ra,8(sp)
 18085c0:	dc400117 	ldw	r17,4(sp)
 18085c4:	dc000017 	ldw	r16,0(sp)
 18085c8:	dec00304 	addi	sp,sp,12
 18085cc:	f800283a 	ret

018085d0 <_calloc_r>:
 18085d0:	298b383a 	mul	r5,r5,r6
 18085d4:	defffe04 	addi	sp,sp,-8
 18085d8:	dc000015 	stw	r16,0(sp)
 18085dc:	dfc00115 	stw	ra,4(sp)
 18085e0:	18061d80 	call	18061d8 <_malloc_r>
 18085e4:	1021883a 	mov	r16,r2
 18085e8:	01c00904 	movi	r7,36
 18085ec:	10000d26 	beq	r2,zero,1808624 <_calloc_r+0x54>
 18085f0:	10ffff17 	ldw	r3,-4(r2)
 18085f4:	1009883a 	mov	r4,r2
 18085f8:	00bfff04 	movi	r2,-4
 18085fc:	1886703a 	and	r3,r3,r2
 1808600:	1887883a 	add	r3,r3,r2
 1808604:	180d883a 	mov	r6,r3
 1808608:	000b883a 	mov	r5,zero
 180860c:	38c01736 	bltu	r7,r3,180866c <_calloc_r+0x9c>
 1808610:	008004c4 	movi	r2,19
 1808614:	10c00836 	bltu	r2,r3,1808638 <_calloc_r+0x68>
 1808618:	20000215 	stw	zero,8(r4)
 180861c:	20000015 	stw	zero,0(r4)
 1808620:	20000115 	stw	zero,4(r4)
 1808624:	8005883a 	mov	r2,r16
 1808628:	dfc00117 	ldw	ra,4(sp)
 180862c:	dc000017 	ldw	r16,0(sp)
 1808630:	dec00204 	addi	sp,sp,8
 1808634:	f800283a 	ret
 1808638:	008006c4 	movi	r2,27
 180863c:	80000015 	stw	zero,0(r16)
 1808640:	80000115 	stw	zero,4(r16)
 1808644:	81000204 	addi	r4,r16,8
 1808648:	10fff32e 	bgeu	r2,r3,1808618 <_calloc_r+0x48>
 180864c:	80000215 	stw	zero,8(r16)
 1808650:	80000315 	stw	zero,12(r16)
 1808654:	81000404 	addi	r4,r16,16
 1808658:	19ffef1e 	bne	r3,r7,1808618 <_calloc_r+0x48>
 180865c:	81000604 	addi	r4,r16,24
 1808660:	80000415 	stw	zero,16(r16)
 1808664:	80000515 	stw	zero,20(r16)
 1808668:	003feb06 	br	1808618 <_calloc_r+0x48>
 180866c:	1806b7c0 	call	1806b7c <memset>
 1808670:	8005883a 	mov	r2,r16
 1808674:	dfc00117 	ldw	ra,4(sp)
 1808678:	dc000017 	ldw	r16,0(sp)
 180867c:	dec00204 	addi	sp,sp,8
 1808680:	f800283a 	ret

01808684 <_close_r>:
 1808684:	defffd04 	addi	sp,sp,-12
 1808688:	dc000015 	stw	r16,0(sp)
 180868c:	04006074 	movhi	r16,385
 1808690:	840c9104 	addi	r16,r16,12868
 1808694:	dc400115 	stw	r17,4(sp)
 1808698:	80000015 	stw	zero,0(r16)
 180869c:	2023883a 	mov	r17,r4
 18086a0:	2809883a 	mov	r4,r5
 18086a4:	dfc00215 	stw	ra,8(sp)
 18086a8:	180a3740 	call	180a374 <close>
 18086ac:	1007883a 	mov	r3,r2
 18086b0:	00bfffc4 	movi	r2,-1
 18086b4:	18800626 	beq	r3,r2,18086d0 <_close_r+0x4c>
 18086b8:	1805883a 	mov	r2,r3
 18086bc:	dfc00217 	ldw	ra,8(sp)
 18086c0:	dc400117 	ldw	r17,4(sp)
 18086c4:	dc000017 	ldw	r16,0(sp)
 18086c8:	dec00304 	addi	sp,sp,12
 18086cc:	f800283a 	ret
 18086d0:	80800017 	ldw	r2,0(r16)
 18086d4:	103ff826 	beq	r2,zero,18086b8 <_close_r+0x34>
 18086d8:	88800015 	stw	r2,0(r17)
 18086dc:	1805883a 	mov	r2,r3
 18086e0:	dfc00217 	ldw	ra,8(sp)
 18086e4:	dc400117 	ldw	r17,4(sp)
 18086e8:	dc000017 	ldw	r16,0(sp)
 18086ec:	dec00304 	addi	sp,sp,12
 18086f0:	f800283a 	ret

018086f4 <_fclose_r>:
 18086f4:	defffc04 	addi	sp,sp,-16
 18086f8:	dc400115 	stw	r17,4(sp)
 18086fc:	dc000015 	stw	r16,0(sp)
 1808700:	dfc00315 	stw	ra,12(sp)
 1808704:	dc800215 	stw	r18,8(sp)
 1808708:	2821883a 	mov	r16,r5
 180870c:	2023883a 	mov	r17,r4
 1808710:	28002926 	beq	r5,zero,18087b8 <_fclose_r+0xc4>
 1808714:	18052bc0 	call	18052bc <__sfp_lock_acquire>
 1808718:	88000226 	beq	r17,zero,1808724 <_fclose_r+0x30>
 180871c:	88800e17 	ldw	r2,56(r17)
 1808720:	10002d26 	beq	r2,zero,18087d8 <_fclose_r+0xe4>
 1808724:	8080030f 	ldh	r2,12(r16)
 1808728:	10002226 	beq	r2,zero,18087b4 <_fclose_r+0xc0>
 180872c:	8809883a 	mov	r4,r17
 1808730:	800b883a 	mov	r5,r16
 1808734:	18050340 	call	1805034 <_fflush_r>
 1808738:	1025883a 	mov	r18,r2
 180873c:	80800b17 	ldw	r2,44(r16)
 1808740:	10000426 	beq	r2,zero,1808754 <_fclose_r+0x60>
 1808744:	81400717 	ldw	r5,28(r16)
 1808748:	8809883a 	mov	r4,r17
 180874c:	103ee83a 	callr	r2
 1808750:	10002a16 	blt	r2,zero,18087fc <_fclose_r+0x108>
 1808754:	8080030b 	ldhu	r2,12(r16)
 1808758:	1080200c 	andi	r2,r2,128
 180875c:	1000231e 	bne	r2,zero,18087ec <_fclose_r+0xf8>
 1808760:	81400c17 	ldw	r5,48(r16)
 1808764:	28000526 	beq	r5,zero,180877c <_fclose_r+0x88>
 1808768:	80801004 	addi	r2,r16,64
 180876c:	28800226 	beq	r5,r2,1808778 <_fclose_r+0x84>
 1808770:	8809883a 	mov	r4,r17
 1808774:	18056500 	call	1805650 <_free_r>
 1808778:	80000c15 	stw	zero,48(r16)
 180877c:	81401117 	ldw	r5,68(r16)
 1808780:	28000326 	beq	r5,zero,1808790 <_fclose_r+0x9c>
 1808784:	8809883a 	mov	r4,r17
 1808788:	18056500 	call	1805650 <_free_r>
 180878c:	80001115 	stw	zero,68(r16)
 1808790:	8000030d 	sth	zero,12(r16)
 1808794:	18052c00 	call	18052c0 <__sfp_lock_release>
 1808798:	9005883a 	mov	r2,r18
 180879c:	dfc00317 	ldw	ra,12(sp)
 18087a0:	dc800217 	ldw	r18,8(sp)
 18087a4:	dc400117 	ldw	r17,4(sp)
 18087a8:	dc000017 	ldw	r16,0(sp)
 18087ac:	dec00404 	addi	sp,sp,16
 18087b0:	f800283a 	ret
 18087b4:	18052c00 	call	18052c0 <__sfp_lock_release>
 18087b8:	0025883a 	mov	r18,zero
 18087bc:	9005883a 	mov	r2,r18
 18087c0:	dfc00317 	ldw	ra,12(sp)
 18087c4:	dc800217 	ldw	r18,8(sp)
 18087c8:	dc400117 	ldw	r17,4(sp)
 18087cc:	dc000017 	ldw	r16,0(sp)
 18087d0:	dec00404 	addi	sp,sp,16
 18087d4:	f800283a 	ret
 18087d8:	8809883a 	mov	r4,r17
 18087dc:	18052cc0 	call	18052cc <__sinit>
 18087e0:	8080030f 	ldh	r2,12(r16)
 18087e4:	103fd11e 	bne	r2,zero,180872c <_fclose_r+0x38>
 18087e8:	003ff206 	br	18087b4 <_fclose_r+0xc0>
 18087ec:	81400417 	ldw	r5,16(r16)
 18087f0:	8809883a 	mov	r4,r17
 18087f4:	18056500 	call	1805650 <_free_r>
 18087f8:	003fd906 	br	1808760 <_fclose_r+0x6c>
 18087fc:	04bfffc4 	movi	r18,-1
 1808800:	003fd406 	br	1808754 <_fclose_r+0x60>

01808804 <fclose>:
 1808804:	00806074 	movhi	r2,385
 1808808:	108c7704 	addi	r2,r2,12764
 180880c:	200b883a 	mov	r5,r4
 1808810:	11000017 	ldw	r4,0(r2)
 1808814:	18086f41 	jmpi	18086f4 <_fclose_r>

01808818 <_fstat_r>:
 1808818:	defffd04 	addi	sp,sp,-12
 180881c:	dc000015 	stw	r16,0(sp)
 1808820:	04006074 	movhi	r16,385
 1808824:	840c9104 	addi	r16,r16,12868
 1808828:	dc400115 	stw	r17,4(sp)
 180882c:	80000015 	stw	zero,0(r16)
 1808830:	2023883a 	mov	r17,r4
 1808834:	2809883a 	mov	r4,r5
 1808838:	300b883a 	mov	r5,r6
 180883c:	dfc00215 	stw	ra,8(sp)
 1808840:	180a4fc0 	call	180a4fc <fstat>
 1808844:	1007883a 	mov	r3,r2
 1808848:	00bfffc4 	movi	r2,-1
 180884c:	18800626 	beq	r3,r2,1808868 <_fstat_r+0x50>
 1808850:	1805883a 	mov	r2,r3
 1808854:	dfc00217 	ldw	ra,8(sp)
 1808858:	dc400117 	ldw	r17,4(sp)
 180885c:	dc000017 	ldw	r16,0(sp)
 1808860:	dec00304 	addi	sp,sp,12
 1808864:	f800283a 	ret
 1808868:	80800017 	ldw	r2,0(r16)
 180886c:	103ff826 	beq	r2,zero,1808850 <_fstat_r+0x38>
 1808870:	88800015 	stw	r2,0(r17)
 1808874:	1805883a 	mov	r2,r3
 1808878:	dfc00217 	ldw	ra,8(sp)
 180887c:	dc400117 	ldw	r17,4(sp)
 1808880:	dc000017 	ldw	r16,0(sp)
 1808884:	dec00304 	addi	sp,sp,12
 1808888:	f800283a 	ret

0180888c <_isatty_r>:
 180888c:	defffd04 	addi	sp,sp,-12
 1808890:	dc000015 	stw	r16,0(sp)
 1808894:	04006074 	movhi	r16,385
 1808898:	840c9104 	addi	r16,r16,12868
 180889c:	dc400115 	stw	r17,4(sp)
 18088a0:	80000015 	stw	zero,0(r16)
 18088a4:	2023883a 	mov	r17,r4
 18088a8:	2809883a 	mov	r4,r5
 18088ac:	dfc00215 	stw	ra,8(sp)
 18088b0:	180a6300 	call	180a630 <isatty>
 18088b4:	1007883a 	mov	r3,r2
 18088b8:	00bfffc4 	movi	r2,-1
 18088bc:	18800626 	beq	r3,r2,18088d8 <_isatty_r+0x4c>
 18088c0:	1805883a 	mov	r2,r3
 18088c4:	dfc00217 	ldw	ra,8(sp)
 18088c8:	dc400117 	ldw	r17,4(sp)
 18088cc:	dc000017 	ldw	r16,0(sp)
 18088d0:	dec00304 	addi	sp,sp,12
 18088d4:	f800283a 	ret
 18088d8:	80800017 	ldw	r2,0(r16)
 18088dc:	103ff826 	beq	r2,zero,18088c0 <_isatty_r+0x34>
 18088e0:	88800015 	stw	r2,0(r17)
 18088e4:	1805883a 	mov	r2,r3
 18088e8:	dfc00217 	ldw	ra,8(sp)
 18088ec:	dc400117 	ldw	r17,4(sp)
 18088f0:	dc000017 	ldw	r16,0(sp)
 18088f4:	dec00304 	addi	sp,sp,12
 18088f8:	f800283a 	ret

018088fc <_lseek_r>:
 18088fc:	defffd04 	addi	sp,sp,-12
 1808900:	dc000015 	stw	r16,0(sp)
 1808904:	04006074 	movhi	r16,385
 1808908:	840c9104 	addi	r16,r16,12868
 180890c:	dc400115 	stw	r17,4(sp)
 1808910:	80000015 	stw	zero,0(r16)
 1808914:	2023883a 	mov	r17,r4
 1808918:	2809883a 	mov	r4,r5
 180891c:	300b883a 	mov	r5,r6
 1808920:	380d883a 	mov	r6,r7
 1808924:	dfc00215 	stw	ra,8(sp)
 1808928:	180a7500 	call	180a750 <lseek>
 180892c:	1007883a 	mov	r3,r2
 1808930:	00bfffc4 	movi	r2,-1
 1808934:	18800626 	beq	r3,r2,1808950 <_lseek_r+0x54>
 1808938:	1805883a 	mov	r2,r3
 180893c:	dfc00217 	ldw	ra,8(sp)
 1808940:	dc400117 	ldw	r17,4(sp)
 1808944:	dc000017 	ldw	r16,0(sp)
 1808948:	dec00304 	addi	sp,sp,12
 180894c:	f800283a 	ret
 1808950:	80800017 	ldw	r2,0(r16)
 1808954:	103ff826 	beq	r2,zero,1808938 <_lseek_r+0x3c>
 1808958:	88800015 	stw	r2,0(r17)
 180895c:	1805883a 	mov	r2,r3
 1808960:	dfc00217 	ldw	ra,8(sp)
 1808964:	dc400117 	ldw	r17,4(sp)
 1808968:	dc000017 	ldw	r16,0(sp)
 180896c:	dec00304 	addi	sp,sp,12
 1808970:	f800283a 	ret

01808974 <_read_r>:
 1808974:	defffd04 	addi	sp,sp,-12
 1808978:	dc000015 	stw	r16,0(sp)
 180897c:	04006074 	movhi	r16,385
 1808980:	840c9104 	addi	r16,r16,12868
 1808984:	dc400115 	stw	r17,4(sp)
 1808988:	80000015 	stw	zero,0(r16)
 180898c:	2023883a 	mov	r17,r4
 1808990:	2809883a 	mov	r4,r5
 1808994:	300b883a 	mov	r5,r6
 1808998:	380d883a 	mov	r6,r7
 180899c:	dfc00215 	stw	ra,8(sp)
 18089a0:	180a94c0 	call	180a94c <read>
 18089a4:	1007883a 	mov	r3,r2
 18089a8:	00bfffc4 	movi	r2,-1
 18089ac:	18800626 	beq	r3,r2,18089c8 <_read_r+0x54>
 18089b0:	1805883a 	mov	r2,r3
 18089b4:	dfc00217 	ldw	ra,8(sp)
 18089b8:	dc400117 	ldw	r17,4(sp)
 18089bc:	dc000017 	ldw	r16,0(sp)
 18089c0:	dec00304 	addi	sp,sp,12
 18089c4:	f800283a 	ret
 18089c8:	80800017 	ldw	r2,0(r16)
 18089cc:	103ff826 	beq	r2,zero,18089b0 <_read_r+0x3c>
 18089d0:	88800015 	stw	r2,0(r17)
 18089d4:	1805883a 	mov	r2,r3
 18089d8:	dfc00217 	ldw	ra,8(sp)
 18089dc:	dc400117 	ldw	r17,4(sp)
 18089e0:	dc000017 	ldw	r16,0(sp)
 18089e4:	dec00304 	addi	sp,sp,12
 18089e8:	f800283a 	ret

018089ec <__udivdi3>:
 18089ec:	defff004 	addi	sp,sp,-64
 18089f0:	2005883a 	mov	r2,r4
 18089f4:	3011883a 	mov	r8,r6
 18089f8:	df000e15 	stw	fp,56(sp)
 18089fc:	dd000a15 	stw	r20,40(sp)
 1808a00:	dc000615 	stw	r16,24(sp)
 1808a04:	dfc00f15 	stw	ra,60(sp)
 1808a08:	ddc00d15 	stw	r23,52(sp)
 1808a0c:	dd800c15 	stw	r22,48(sp)
 1808a10:	dd400b15 	stw	r21,44(sp)
 1808a14:	dcc00915 	stw	r19,36(sp)
 1808a18:	dc800815 	stw	r18,32(sp)
 1808a1c:	dc400715 	stw	r17,28(sp)
 1808a20:	4021883a 	mov	r16,r8
 1808a24:	1039883a 	mov	fp,r2
 1808a28:	2829883a 	mov	r20,r5
 1808a2c:	38003b1e 	bne	r7,zero,1808b1c <__udivdi3+0x130>
 1808a30:	2a005c36 	bltu	r5,r8,1808ba4 <__udivdi3+0x1b8>
 1808a34:	4000a626 	beq	r8,zero,1808cd0 <__udivdi3+0x2e4>
 1808a38:	00bfffd4 	movui	r2,65535
 1808a3c:	14009e36 	bltu	r2,r16,1808cb8 <__udivdi3+0x2cc>
 1808a40:	00803fc4 	movi	r2,255
 1808a44:	14013d36 	bltu	r2,r16,1808f3c <__udivdi3+0x550>
 1808a48:	000b883a 	mov	r5,zero
 1808a4c:	0005883a 	mov	r2,zero
 1808a50:	8084d83a 	srl	r2,r16,r2
 1808a54:	01006074 	movhi	r4,385
 1808a58:	2103cd04 	addi	r4,r4,3892
 1808a5c:	01800804 	movi	r6,32
 1808a60:	1105883a 	add	r2,r2,r4
 1808a64:	10c00003 	ldbu	r3,0(r2)
 1808a68:	28c7883a 	add	r3,r5,r3
 1808a6c:	30edc83a 	sub	r22,r6,r3
 1808a70:	b000ee1e 	bne	r22,zero,1808e2c <__udivdi3+0x440>
 1808a74:	802ad43a 	srli	r21,r16,16
 1808a78:	00800044 	movi	r2,1
 1808a7c:	a423c83a 	sub	r17,r20,r16
 1808a80:	85ffffcc 	andi	r23,r16,65535
 1808a84:	d8800315 	stw	r2,12(sp)
 1808a88:	8809883a 	mov	r4,r17
 1808a8c:	a80b883a 	mov	r5,r21
 1808a90:	180a2040 	call	180a204 <__udivsi3>
 1808a94:	8809883a 	mov	r4,r17
 1808a98:	a80b883a 	mov	r5,r21
 1808a9c:	102d883a 	mov	r22,r2
 1808aa0:	180a20c0 	call	180a20c <__umodsi3>
 1808aa4:	1004943a 	slli	r2,r2,16
 1808aa8:	e006d43a 	srli	r3,fp,16
 1808aac:	bda3383a 	mul	r17,r23,r22
 1808ab0:	10c4b03a 	or	r2,r2,r3
 1808ab4:	1440042e 	bgeu	r2,r17,1808ac8 <__udivdi3+0xdc>
 1808ab8:	1405883a 	add	r2,r2,r16
 1808abc:	b5bfffc4 	addi	r22,r22,-1
 1808ac0:	14000136 	bltu	r2,r16,1808ac8 <__udivdi3+0xdc>
 1808ac4:	14413d36 	bltu	r2,r17,1808fbc <__udivdi3+0x5d0>
 1808ac8:	1463c83a 	sub	r17,r2,r17
 1808acc:	8809883a 	mov	r4,r17
 1808ad0:	a80b883a 	mov	r5,r21
 1808ad4:	180a2040 	call	180a204 <__udivsi3>
 1808ad8:	8809883a 	mov	r4,r17
 1808adc:	a80b883a 	mov	r5,r21
 1808ae0:	1029883a 	mov	r20,r2
 1808ae4:	180a20c0 	call	180a20c <__umodsi3>
 1808ae8:	1004943a 	slli	r2,r2,16
 1808aec:	bd09383a 	mul	r4,r23,r20
 1808af0:	e0ffffcc 	andi	r3,fp,65535
 1808af4:	10c4b03a 	or	r2,r2,r3
 1808af8:	1100042e 	bgeu	r2,r4,1808b0c <__udivdi3+0x120>
 1808afc:	8085883a 	add	r2,r16,r2
 1808b00:	a53fffc4 	addi	r20,r20,-1
 1808b04:	14000136 	bltu	r2,r16,1808b0c <__udivdi3+0x120>
 1808b08:	11012036 	bltu	r2,r4,1808f8c <__udivdi3+0x5a0>
 1808b0c:	b004943a 	slli	r2,r22,16
 1808b10:	d9000317 	ldw	r4,12(sp)
 1808b14:	a084b03a 	or	r2,r20,r2
 1808b18:	00001506 	br	1808b70 <__udivdi3+0x184>
 1808b1c:	380d883a 	mov	r6,r7
 1808b20:	29c06236 	bltu	r5,r7,1808cac <__udivdi3+0x2c0>
 1808b24:	00bfffd4 	movui	r2,65535
 1808b28:	11c05a36 	bltu	r2,r7,1808c94 <__udivdi3+0x2a8>
 1808b2c:	00803fc4 	movi	r2,255
 1808b30:	11c0fc36 	bltu	r2,r7,1808f24 <__udivdi3+0x538>
 1808b34:	000b883a 	mov	r5,zero
 1808b38:	0005883a 	mov	r2,zero
 1808b3c:	3084d83a 	srl	r2,r6,r2
 1808b40:	01006074 	movhi	r4,385
 1808b44:	2103cd04 	addi	r4,r4,3892
 1808b48:	01c00804 	movi	r7,32
 1808b4c:	1105883a 	add	r2,r2,r4
 1808b50:	10c00003 	ldbu	r3,0(r2)
 1808b54:	28c7883a 	add	r3,r5,r3
 1808b58:	38efc83a 	sub	r23,r7,r3
 1808b5c:	b800691e 	bne	r23,zero,1808d04 <__udivdi3+0x318>
 1808b60:	35000136 	bltu	r6,r20,1808b68 <__udivdi3+0x17c>
 1808b64:	e4005136 	bltu	fp,r16,1808cac <__udivdi3+0x2c0>
 1808b68:	00800044 	movi	r2,1
 1808b6c:	0009883a 	mov	r4,zero
 1808b70:	2007883a 	mov	r3,r4
 1808b74:	dfc00f17 	ldw	ra,60(sp)
 1808b78:	df000e17 	ldw	fp,56(sp)
 1808b7c:	ddc00d17 	ldw	r23,52(sp)
 1808b80:	dd800c17 	ldw	r22,48(sp)
 1808b84:	dd400b17 	ldw	r21,44(sp)
 1808b88:	dd000a17 	ldw	r20,40(sp)
 1808b8c:	dcc00917 	ldw	r19,36(sp)
 1808b90:	dc800817 	ldw	r18,32(sp)
 1808b94:	dc400717 	ldw	r17,28(sp)
 1808b98:	dc000617 	ldw	r16,24(sp)
 1808b9c:	dec01004 	addi	sp,sp,64
 1808ba0:	f800283a 	ret
 1808ba4:	00bfffd4 	movui	r2,65535
 1808ba8:	12005036 	bltu	r2,r8,1808cec <__udivdi3+0x300>
 1808bac:	00803fc4 	movi	r2,255
 1808bb0:	1200e836 	bltu	r2,r8,1808f54 <__udivdi3+0x568>
 1808bb4:	000b883a 	mov	r5,zero
 1808bb8:	0005883a 	mov	r2,zero
 1808bbc:	8084d83a 	srl	r2,r16,r2
 1808bc0:	01006074 	movhi	r4,385
 1808bc4:	2103cd04 	addi	r4,r4,3892
 1808bc8:	01800804 	movi	r6,32
 1808bcc:	1105883a 	add	r2,r2,r4
 1808bd0:	10c00003 	ldbu	r3,0(r2)
 1808bd4:	28c7883a 	add	r3,r5,r3
 1808bd8:	30cbc83a 	sub	r5,r6,r3
 1808bdc:	28000626 	beq	r5,zero,1808bf8 <__udivdi3+0x20c>
 1808be0:	3145c83a 	sub	r2,r6,r5
 1808be4:	e084d83a 	srl	r2,fp,r2
 1808be8:	a146983a 	sll	r3,r20,r5
 1808bec:	e178983a 	sll	fp,fp,r5
 1808bf0:	8160983a 	sll	r16,r16,r5
 1808bf4:	18a8b03a 	or	r20,r3,r2
 1808bf8:	802ad43a 	srli	r21,r16,16
 1808bfc:	a009883a 	mov	r4,r20
 1808c00:	85ffffcc 	andi	r23,r16,65535
 1808c04:	a80b883a 	mov	r5,r21
 1808c08:	180a2040 	call	180a204 <__udivsi3>
 1808c0c:	a009883a 	mov	r4,r20
 1808c10:	a80b883a 	mov	r5,r21
 1808c14:	102d883a 	mov	r22,r2
 1808c18:	180a20c0 	call	180a20c <__umodsi3>
 1808c1c:	1004943a 	slli	r2,r2,16
 1808c20:	e006d43a 	srli	r3,fp,16
 1808c24:	bda3383a 	mul	r17,r23,r22
 1808c28:	10c4b03a 	or	r2,r2,r3
 1808c2c:	1440042e 	bgeu	r2,r17,1808c40 <__udivdi3+0x254>
 1808c30:	1405883a 	add	r2,r2,r16
 1808c34:	b5bfffc4 	addi	r22,r22,-1
 1808c38:	14000136 	bltu	r2,r16,1808c40 <__udivdi3+0x254>
 1808c3c:	1440d536 	bltu	r2,r17,1808f94 <__udivdi3+0x5a8>
 1808c40:	1463c83a 	sub	r17,r2,r17
 1808c44:	8809883a 	mov	r4,r17
 1808c48:	a80b883a 	mov	r5,r21
 1808c4c:	180a2040 	call	180a204 <__udivsi3>
 1808c50:	8809883a 	mov	r4,r17
 1808c54:	a80b883a 	mov	r5,r21
 1808c58:	1029883a 	mov	r20,r2
 1808c5c:	180a20c0 	call	180a20c <__umodsi3>
 1808c60:	1004943a 	slli	r2,r2,16
 1808c64:	bd09383a 	mul	r4,r23,r20
 1808c68:	e0ffffcc 	andi	r3,fp,65535
 1808c6c:	10c4b03a 	or	r2,r2,r3
 1808c70:	1100042e 	bgeu	r2,r4,1808c84 <__udivdi3+0x298>
 1808c74:	8085883a 	add	r2,r16,r2
 1808c78:	a53fffc4 	addi	r20,r20,-1
 1808c7c:	14000136 	bltu	r2,r16,1808c84 <__udivdi3+0x298>
 1808c80:	1100c736 	bltu	r2,r4,1808fa0 <__udivdi3+0x5b4>
 1808c84:	b004943a 	slli	r2,r22,16
 1808c88:	0009883a 	mov	r4,zero
 1808c8c:	a084b03a 	or	r2,r20,r2
 1808c90:	003fb706 	br	1808b70 <__udivdi3+0x184>
 1808c94:	00804034 	movhi	r2,256
 1808c98:	10bfffc4 	addi	r2,r2,-1
 1808c9c:	11c0a436 	bltu	r2,r7,1808f30 <__udivdi3+0x544>
 1808ca0:	01400404 	movi	r5,16
 1808ca4:	2805883a 	mov	r2,r5
 1808ca8:	003fa406 	br	1808b3c <__udivdi3+0x150>
 1808cac:	0005883a 	mov	r2,zero
 1808cb0:	0009883a 	mov	r4,zero
 1808cb4:	003fae06 	br	1808b70 <__udivdi3+0x184>
 1808cb8:	00804034 	movhi	r2,256
 1808cbc:	10bfffc4 	addi	r2,r2,-1
 1808cc0:	1400a136 	bltu	r2,r16,1808f48 <__udivdi3+0x55c>
 1808cc4:	01400404 	movi	r5,16
 1808cc8:	2805883a 	mov	r2,r5
 1808ccc:	003f6006 	br	1808a50 <__udivdi3+0x64>
 1808cd0:	01000044 	movi	r4,1
 1808cd4:	000b883a 	mov	r5,zero
 1808cd8:	180a2040 	call	180a204 <__udivsi3>
 1808cdc:	1021883a 	mov	r16,r2
 1808ce0:	00bfffd4 	movui	r2,65535
 1808ce4:	143ff436 	bltu	r2,r16,1808cb8 <__udivdi3+0x2cc>
 1808ce8:	003f5506 	br	1808a40 <__udivdi3+0x54>
 1808cec:	00804034 	movhi	r2,256
 1808cf0:	10bfffc4 	addi	r2,r2,-1
 1808cf4:	12009a36 	bltu	r2,r8,1808f60 <__udivdi3+0x574>
 1808cf8:	01400404 	movi	r5,16
 1808cfc:	2805883a 	mov	r2,r5
 1808d00:	003fae06 	br	1808bbc <__udivdi3+0x1d0>
 1808d04:	3dc5c83a 	sub	r2,r7,r23
 1808d08:	35c8983a 	sll	r4,r6,r23
 1808d0c:	8086d83a 	srl	r3,r16,r2
 1808d10:	a0a2d83a 	srl	r17,r20,r2
 1808d14:	e084d83a 	srl	r2,fp,r2
 1808d18:	20eab03a 	or	r21,r4,r3
 1808d1c:	a82cd43a 	srli	r22,r21,16
 1808d20:	a5c6983a 	sll	r3,r20,r23
 1808d24:	8809883a 	mov	r4,r17
 1808d28:	b00b883a 	mov	r5,r22
 1808d2c:	1886b03a 	or	r3,r3,r2
 1808d30:	d8c00215 	stw	r3,8(sp)
 1808d34:	180a2040 	call	180a204 <__udivsi3>
 1808d38:	8809883a 	mov	r4,r17
 1808d3c:	b00b883a 	mov	r5,r22
 1808d40:	1029883a 	mov	r20,r2
 1808d44:	180a20c0 	call	180a20c <__umodsi3>
 1808d48:	a8ffffcc 	andi	r3,r21,65535
 1808d4c:	d8c00515 	stw	r3,20(sp)
 1808d50:	d9000217 	ldw	r4,8(sp)
 1808d54:	d9400517 	ldw	r5,20(sp)
 1808d58:	1004943a 	slli	r2,r2,16
 1808d5c:	2006d43a 	srli	r3,r4,16
 1808d60:	85e0983a 	sll	r16,r16,r23
 1808d64:	2d23383a 	mul	r17,r5,r20
 1808d68:	10c4b03a 	or	r2,r2,r3
 1808d6c:	dc000015 	stw	r16,0(sp)
 1808d70:	1440032e 	bgeu	r2,r17,1808d80 <__udivdi3+0x394>
 1808d74:	1545883a 	add	r2,r2,r21
 1808d78:	a53fffc4 	addi	r20,r20,-1
 1808d7c:	15407f2e 	bgeu	r2,r21,1808f7c <__udivdi3+0x590>
 1808d80:	1463c83a 	sub	r17,r2,r17
 1808d84:	8809883a 	mov	r4,r17
 1808d88:	b00b883a 	mov	r5,r22
 1808d8c:	180a2040 	call	180a204 <__udivsi3>
 1808d90:	8809883a 	mov	r4,r17
 1808d94:	b00b883a 	mov	r5,r22
 1808d98:	1021883a 	mov	r16,r2
 1808d9c:	180a20c0 	call	180a20c <__umodsi3>
 1808da0:	d8c00517 	ldw	r3,20(sp)
 1808da4:	d9000217 	ldw	r4,8(sp)
 1808da8:	1004943a 	slli	r2,r2,16
 1808dac:	1c0f383a 	mul	r7,r3,r16
 1808db0:	20ffffcc 	andi	r3,r4,65535
 1808db4:	10e2b03a 	or	r17,r2,r3
 1808db8:	89c0032e 	bgeu	r17,r7,1808dc8 <__udivdi3+0x3dc>
 1808dbc:	8d63883a 	add	r17,r17,r21
 1808dc0:	843fffc4 	addi	r16,r16,-1
 1808dc4:	8d40692e 	bgeu	r17,r21,1808f6c <__udivdi3+0x580>
 1808dc8:	a008943a 	slli	r4,r20,16
 1808dcc:	d9400017 	ldw	r5,0(sp)
 1808dd0:	89e3c83a 	sub	r17,r17,r7
 1808dd4:	8110b03a 	or	r8,r16,r4
 1808dd8:	280cd43a 	srli	r6,r5,16
 1808ddc:	28ffffcc 	andi	r3,r5,65535
 1808de0:	40bfffcc 	andi	r2,r8,65535
 1808de4:	400ad43a 	srli	r5,r8,16
 1808de8:	10d3383a 	mul	r9,r2,r3
 1808dec:	1185383a 	mul	r2,r2,r6
 1808df0:	28c7383a 	mul	r3,r5,r3
 1808df4:	4808d43a 	srli	r4,r9,16
 1808df8:	298b383a 	mul	r5,r5,r6
 1808dfc:	10c5883a 	add	r2,r2,r3
 1808e00:	2089883a 	add	r4,r4,r2
 1808e04:	20c0022e 	bgeu	r4,r3,1808e10 <__udivdi3+0x424>
 1808e08:	00800074 	movhi	r2,1
 1808e0c:	288b883a 	add	r5,r5,r2
 1808e10:	2004d43a 	srli	r2,r4,16
 1808e14:	288b883a 	add	r5,r5,r2
 1808e18:	89403f36 	bltu	r17,r5,1808f18 <__udivdi3+0x52c>
 1808e1c:	89403926 	beq	r17,r5,1808f04 <__udivdi3+0x518>
 1808e20:	4005883a 	mov	r2,r8
 1808e24:	0009883a 	mov	r4,zero
 1808e28:	003f5106 	br	1808b70 <__udivdi3+0x184>
 1808e2c:	85a0983a 	sll	r16,r16,r22
 1808e30:	3585c83a 	sub	r2,r6,r22
 1808e34:	a0a2d83a 	srl	r17,r20,r2
 1808e38:	802ad43a 	srli	r21,r16,16
 1808e3c:	e084d83a 	srl	r2,fp,r2
 1808e40:	a586983a 	sll	r3,r20,r22
 1808e44:	8809883a 	mov	r4,r17
 1808e48:	a80b883a 	mov	r5,r21
 1808e4c:	1886b03a 	or	r3,r3,r2
 1808e50:	d8c00115 	stw	r3,4(sp)
 1808e54:	180a2040 	call	180a204 <__udivsi3>
 1808e58:	8809883a 	mov	r4,r17
 1808e5c:	a80b883a 	mov	r5,r21
 1808e60:	d8800415 	stw	r2,16(sp)
 1808e64:	180a20c0 	call	180a20c <__umodsi3>
 1808e68:	d9000117 	ldw	r4,4(sp)
 1808e6c:	d9400417 	ldw	r5,16(sp)
 1808e70:	1004943a 	slli	r2,r2,16
 1808e74:	85ffffcc 	andi	r23,r16,65535
 1808e78:	2006d43a 	srli	r3,r4,16
 1808e7c:	b963383a 	mul	r17,r23,r5
 1808e80:	10c4b03a 	or	r2,r2,r3
 1808e84:	1440042e 	bgeu	r2,r17,1808e98 <__udivdi3+0x4ac>
 1808e88:	297fffc4 	addi	r5,r5,-1
 1808e8c:	1405883a 	add	r2,r2,r16
 1808e90:	d9400415 	stw	r5,16(sp)
 1808e94:	1400442e 	bgeu	r2,r16,1808fa8 <__udivdi3+0x5bc>
 1808e98:	1463c83a 	sub	r17,r2,r17
 1808e9c:	8809883a 	mov	r4,r17
 1808ea0:	a80b883a 	mov	r5,r21
 1808ea4:	180a2040 	call	180a204 <__udivsi3>
 1808ea8:	8809883a 	mov	r4,r17
 1808eac:	a80b883a 	mov	r5,r21
 1808eb0:	1029883a 	mov	r20,r2
 1808eb4:	180a20c0 	call	180a20c <__umodsi3>
 1808eb8:	d9400117 	ldw	r5,4(sp)
 1808ebc:	1004943a 	slli	r2,r2,16
 1808ec0:	bd09383a 	mul	r4,r23,r20
 1808ec4:	28ffffcc 	andi	r3,r5,65535
 1808ec8:	10c6b03a 	or	r3,r2,r3
 1808ecc:	1900062e 	bgeu	r3,r4,1808ee8 <__udivdi3+0x4fc>
 1808ed0:	1c07883a 	add	r3,r3,r16
 1808ed4:	a53fffc4 	addi	r20,r20,-1
 1808ed8:	1c000336 	bltu	r3,r16,1808ee8 <__udivdi3+0x4fc>
 1808edc:	1900022e 	bgeu	r3,r4,1808ee8 <__udivdi3+0x4fc>
 1808ee0:	a53fffc4 	addi	r20,r20,-1
 1808ee4:	1c07883a 	add	r3,r3,r16
 1808ee8:	d9400417 	ldw	r5,16(sp)
 1808eec:	e5b8983a 	sll	fp,fp,r22
 1808ef0:	1923c83a 	sub	r17,r3,r4
 1808ef4:	2804943a 	slli	r2,r5,16
 1808ef8:	a0a8b03a 	or	r20,r20,r2
 1808efc:	dd000315 	stw	r20,12(sp)
 1808f00:	003ee106 	br	1808a88 <__udivdi3+0x9c>
 1808f04:	2004943a 	slli	r2,r4,16
 1808f08:	e5c8983a 	sll	r4,fp,r23
 1808f0c:	48ffffcc 	andi	r3,r9,65535
 1808f10:	10c5883a 	add	r2,r2,r3
 1808f14:	20bfc22e 	bgeu	r4,r2,1808e20 <__udivdi3+0x434>
 1808f18:	40bfffc4 	addi	r2,r8,-1
 1808f1c:	0009883a 	mov	r4,zero
 1808f20:	003f1306 	br	1808b70 <__udivdi3+0x184>
 1808f24:	01400204 	movi	r5,8
 1808f28:	2805883a 	mov	r2,r5
 1808f2c:	003f0306 	br	1808b3c <__udivdi3+0x150>
 1808f30:	01400604 	movi	r5,24
 1808f34:	2805883a 	mov	r2,r5
 1808f38:	003f0006 	br	1808b3c <__udivdi3+0x150>
 1808f3c:	01400204 	movi	r5,8
 1808f40:	2805883a 	mov	r2,r5
 1808f44:	003ec206 	br	1808a50 <__udivdi3+0x64>
 1808f48:	01400604 	movi	r5,24
 1808f4c:	2805883a 	mov	r2,r5
 1808f50:	003ebf06 	br	1808a50 <__udivdi3+0x64>
 1808f54:	01400204 	movi	r5,8
 1808f58:	2805883a 	mov	r2,r5
 1808f5c:	003f1706 	br	1808bbc <__udivdi3+0x1d0>
 1808f60:	01400604 	movi	r5,24
 1808f64:	2805883a 	mov	r2,r5
 1808f68:	003f1406 	br	1808bbc <__udivdi3+0x1d0>
 1808f6c:	89ff962e 	bgeu	r17,r7,1808dc8 <__udivdi3+0x3dc>
 1808f70:	8d63883a 	add	r17,r17,r21
 1808f74:	843fffc4 	addi	r16,r16,-1
 1808f78:	003f9306 	br	1808dc8 <__udivdi3+0x3dc>
 1808f7c:	147f802e 	bgeu	r2,r17,1808d80 <__udivdi3+0x394>
 1808f80:	a53fffc4 	addi	r20,r20,-1
 1808f84:	1545883a 	add	r2,r2,r21
 1808f88:	003f7d06 	br	1808d80 <__udivdi3+0x394>
 1808f8c:	a53fffc4 	addi	r20,r20,-1
 1808f90:	003ede06 	br	1808b0c <__udivdi3+0x120>
 1808f94:	b5bfffc4 	addi	r22,r22,-1
 1808f98:	1405883a 	add	r2,r2,r16
 1808f9c:	003f2806 	br	1808c40 <__udivdi3+0x254>
 1808fa0:	a53fffc4 	addi	r20,r20,-1
 1808fa4:	003f3706 	br	1808c84 <__udivdi3+0x298>
 1808fa8:	147fbb2e 	bgeu	r2,r17,1808e98 <__udivdi3+0x4ac>
 1808fac:	297fffc4 	addi	r5,r5,-1
 1808fb0:	1405883a 	add	r2,r2,r16
 1808fb4:	d9400415 	stw	r5,16(sp)
 1808fb8:	003fb706 	br	1808e98 <__udivdi3+0x4ac>
 1808fbc:	b5bfffc4 	addi	r22,r22,-1
 1808fc0:	1405883a 	add	r2,r2,r16
 1808fc4:	003ec006 	br	1808ac8 <__udivdi3+0xdc>

01808fc8 <__umoddi3>:
 1808fc8:	defff104 	addi	sp,sp,-60
 1808fcc:	dd800b15 	stw	r22,44(sp)
 1808fd0:	dd000915 	stw	r20,36(sp)
 1808fd4:	dc000515 	stw	r16,20(sp)
 1808fd8:	dfc00e15 	stw	ra,56(sp)
 1808fdc:	df000d15 	stw	fp,52(sp)
 1808fe0:	ddc00c15 	stw	r23,48(sp)
 1808fe4:	dd400a15 	stw	r21,40(sp)
 1808fe8:	dcc00815 	stw	r19,32(sp)
 1808fec:	dc800715 	stw	r18,28(sp)
 1808ff0:	dc400615 	stw	r17,24(sp)
 1808ff4:	3021883a 	mov	r16,r6
 1808ff8:	202d883a 	mov	r22,r4
 1808ffc:	2829883a 	mov	r20,r5
 1809000:	38002b1e 	bne	r7,zero,18090b0 <__umoddi3+0xe8>
 1809004:	29805036 	bltu	r5,r6,1809148 <__umoddi3+0x180>
 1809008:	30008a26 	beq	r6,zero,1809234 <__umoddi3+0x26c>
 180900c:	00bfffd4 	movui	r2,65535
 1809010:	14008236 	bltu	r2,r16,180921c <__umoddi3+0x254>
 1809014:	00803fc4 	movi	r2,255
 1809018:	14013636 	bltu	r2,r16,18094f4 <__umoddi3+0x52c>
 180901c:	000b883a 	mov	r5,zero
 1809020:	0005883a 	mov	r2,zero
 1809024:	8084d83a 	srl	r2,r16,r2
 1809028:	01006074 	movhi	r4,385
 180902c:	2103cd04 	addi	r4,r4,3892
 1809030:	01800804 	movi	r6,32
 1809034:	1105883a 	add	r2,r2,r4
 1809038:	10c00003 	ldbu	r3,0(r2)
 180903c:	28c7883a 	add	r3,r5,r3
 1809040:	30efc83a 	sub	r23,r6,r3
 1809044:	b800941e 	bne	r23,zero,1809298 <__umoddi3+0x2d0>
 1809048:	802ad43a 	srli	r21,r16,16
 180904c:	a423c83a 	sub	r17,r20,r16
 1809050:	0039883a 	mov	fp,zero
 1809054:	853fffcc 	andi	r20,r16,65535
 1809058:	8809883a 	mov	r4,r17
 180905c:	a80b883a 	mov	r5,r21
 1809060:	180a2040 	call	180a204 <__udivsi3>
 1809064:	8809883a 	mov	r4,r17
 1809068:	a80b883a 	mov	r5,r21
 180906c:	a0a3383a 	mul	r17,r20,r2
 1809070:	180a20c0 	call	180a20c <__umodsi3>
 1809074:	1004943a 	slli	r2,r2,16
 1809078:	b006d43a 	srli	r3,r22,16
 180907c:	10c4b03a 	or	r2,r2,r3
 1809080:	1440032e 	bgeu	r2,r17,1809090 <__umoddi3+0xc8>
 1809084:	1405883a 	add	r2,r2,r16
 1809088:	14000136 	bltu	r2,r16,1809090 <__umoddi3+0xc8>
 180908c:	14413536 	bltu	r2,r17,1809564 <__umoddi3+0x59c>
 1809090:	1463c83a 	sub	r17,r2,r17
 1809094:	8809883a 	mov	r4,r17
 1809098:	a80b883a 	mov	r5,r21
 180909c:	180a2040 	call	180a204 <__udivsi3>
 18090a0:	8809883a 	mov	r4,r17
 18090a4:	a0a3383a 	mul	r17,r20,r2
 18090a8:	a80b883a 	mov	r5,r21
 18090ac:	00004d06 	br	18091e4 <__umoddi3+0x21c>
 18090b0:	380d883a 	mov	r6,r7
 18090b4:	29c0102e 	bgeu	r5,r7,18090f8 <__umoddi3+0x130>
 18090b8:	2011883a 	mov	r8,r4
 18090bc:	2813883a 	mov	r9,r5
 18090c0:	4005883a 	mov	r2,r8
 18090c4:	4807883a 	mov	r3,r9
 18090c8:	dfc00e17 	ldw	ra,56(sp)
 18090cc:	df000d17 	ldw	fp,52(sp)
 18090d0:	ddc00c17 	ldw	r23,48(sp)
 18090d4:	dd800b17 	ldw	r22,44(sp)
 18090d8:	dd400a17 	ldw	r21,40(sp)
 18090dc:	dd000917 	ldw	r20,36(sp)
 18090e0:	dcc00817 	ldw	r19,32(sp)
 18090e4:	dc800717 	ldw	r18,28(sp)
 18090e8:	dc400617 	ldw	r17,24(sp)
 18090ec:	dc000517 	ldw	r16,20(sp)
 18090f0:	dec00f04 	addi	sp,sp,60
 18090f4:	f800283a 	ret
 18090f8:	00bfffd4 	movui	r2,65535
 18090fc:	11c05a36 	bltu	r2,r7,1809268 <__umoddi3+0x2a0>
 1809100:	00803fc4 	movi	r2,255
 1809104:	11c0fe36 	bltu	r2,r7,1809500 <__umoddi3+0x538>
 1809108:	000b883a 	mov	r5,zero
 180910c:	0005883a 	mov	r2,zero
 1809110:	3084d83a 	srl	r2,r6,r2
 1809114:	01006074 	movhi	r4,385
 1809118:	2103cd04 	addi	r4,r4,3892
 180911c:	01c00804 	movi	r7,32
 1809120:	1105883a 	add	r2,r2,r4
 1809124:	10c00003 	ldbu	r3,0(r2)
 1809128:	28c7883a 	add	r3,r5,r3
 180912c:	38ebc83a 	sub	r21,r7,r3
 1809130:	a800851e 	bne	r21,zero,1809348 <__umoddi3+0x380>
 1809134:	35005236 	bltu	r6,r20,1809280 <__umoddi3+0x2b8>
 1809138:	b400512e 	bgeu	r22,r16,1809280 <__umoddi3+0x2b8>
 180913c:	b011883a 	mov	r8,r22
 1809140:	a013883a 	mov	r9,r20
 1809144:	003fde06 	br	18090c0 <__umoddi3+0xf8>
 1809148:	00bfffd4 	movui	r2,65535
 180914c:	11804036 	bltu	r2,r6,1809250 <__umoddi3+0x288>
 1809150:	00803fc4 	movi	r2,255
 1809154:	1180ed36 	bltu	r2,r6,180950c <__umoddi3+0x544>
 1809158:	000b883a 	mov	r5,zero
 180915c:	0005883a 	mov	r2,zero
 1809160:	8084d83a 	srl	r2,r16,r2
 1809164:	01006074 	movhi	r4,385
 1809168:	2103cd04 	addi	r4,r4,3892
 180916c:	01800804 	movi	r6,32
 1809170:	1105883a 	add	r2,r2,r4
 1809174:	10c00003 	ldbu	r3,0(r2)
 1809178:	28c7883a 	add	r3,r5,r3
 180917c:	30c7c83a 	sub	r3,r6,r3
 1809180:	1800bf1e 	bne	r3,zero,1809480 <__umoddi3+0x4b8>
 1809184:	0039883a 	mov	fp,zero
 1809188:	802ad43a 	srli	r21,r16,16
 180918c:	a009883a 	mov	r4,r20
 1809190:	85ffffcc 	andi	r23,r16,65535
 1809194:	a80b883a 	mov	r5,r21
 1809198:	180a2040 	call	180a204 <__udivsi3>
 180919c:	a009883a 	mov	r4,r20
 18091a0:	a80b883a 	mov	r5,r21
 18091a4:	b8a3383a 	mul	r17,r23,r2
 18091a8:	180a20c0 	call	180a20c <__umodsi3>
 18091ac:	1004943a 	slli	r2,r2,16
 18091b0:	b006d43a 	srli	r3,r22,16
 18091b4:	10c4b03a 	or	r2,r2,r3
 18091b8:	1440032e 	bgeu	r2,r17,18091c8 <__umoddi3+0x200>
 18091bc:	1405883a 	add	r2,r2,r16
 18091c0:	14000136 	bltu	r2,r16,18091c8 <__umoddi3+0x200>
 18091c4:	1440e536 	bltu	r2,r17,180955c <__umoddi3+0x594>
 18091c8:	1463c83a 	sub	r17,r2,r17
 18091cc:	8809883a 	mov	r4,r17
 18091d0:	a80b883a 	mov	r5,r21
 18091d4:	180a2040 	call	180a204 <__udivsi3>
 18091d8:	8809883a 	mov	r4,r17
 18091dc:	b8a3383a 	mul	r17,r23,r2
 18091e0:	a80b883a 	mov	r5,r21
 18091e4:	180a20c0 	call	180a20c <__umodsi3>
 18091e8:	1004943a 	slli	r2,r2,16
 18091ec:	b0ffffcc 	andi	r3,r22,65535
 18091f0:	10c4b03a 	or	r2,r2,r3
 18091f4:	1440042e 	bgeu	r2,r17,1809208 <__umoddi3+0x240>
 18091f8:	1405883a 	add	r2,r2,r16
 18091fc:	14000236 	bltu	r2,r16,1809208 <__umoddi3+0x240>
 1809200:	1440012e 	bgeu	r2,r17,1809208 <__umoddi3+0x240>
 1809204:	1405883a 	add	r2,r2,r16
 1809208:	1445c83a 	sub	r2,r2,r17
 180920c:	1724d83a 	srl	r18,r2,fp
 1809210:	0013883a 	mov	r9,zero
 1809214:	9011883a 	mov	r8,r18
 1809218:	003fa906 	br	18090c0 <__umoddi3+0xf8>
 180921c:	00804034 	movhi	r2,256
 1809220:	10bfffc4 	addi	r2,r2,-1
 1809224:	1400b036 	bltu	r2,r16,18094e8 <__umoddi3+0x520>
 1809228:	01400404 	movi	r5,16
 180922c:	2805883a 	mov	r2,r5
 1809230:	003f7c06 	br	1809024 <__umoddi3+0x5c>
 1809234:	01000044 	movi	r4,1
 1809238:	000b883a 	mov	r5,zero
 180923c:	180a2040 	call	180a204 <__udivsi3>
 1809240:	1021883a 	mov	r16,r2
 1809244:	00bfffd4 	movui	r2,65535
 1809248:	143ff436 	bltu	r2,r16,180921c <__umoddi3+0x254>
 180924c:	003f7106 	br	1809014 <__umoddi3+0x4c>
 1809250:	00804034 	movhi	r2,256
 1809254:	10bfffc4 	addi	r2,r2,-1
 1809258:	1180af36 	bltu	r2,r6,1809518 <__umoddi3+0x550>
 180925c:	01400404 	movi	r5,16
 1809260:	2805883a 	mov	r2,r5
 1809264:	003fbe06 	br	1809160 <__umoddi3+0x198>
 1809268:	00804034 	movhi	r2,256
 180926c:	10bfffc4 	addi	r2,r2,-1
 1809270:	11c0ac36 	bltu	r2,r7,1809524 <__umoddi3+0x55c>
 1809274:	01400404 	movi	r5,16
 1809278:	2805883a 	mov	r2,r5
 180927c:	003fa406 	br	1809110 <__umoddi3+0x148>
 1809280:	b409c83a 	sub	r4,r22,r16
 1809284:	b105803a 	cmpltu	r2,r22,r4
 1809288:	a187c83a 	sub	r3,r20,r6
 180928c:	18a9c83a 	sub	r20,r3,r2
 1809290:	202d883a 	mov	r22,r4
 1809294:	003fa906 	br	180913c <__umoddi3+0x174>
 1809298:	85e0983a 	sll	r16,r16,r23
 180929c:	35c5c83a 	sub	r2,r6,r23
 18092a0:	a0a2d83a 	srl	r17,r20,r2
 18092a4:	802ad43a 	srli	r21,r16,16
 18092a8:	b084d83a 	srl	r2,r22,r2
 18092ac:	a5c6983a 	sll	r3,r20,r23
 18092b0:	8809883a 	mov	r4,r17
 18092b4:	a80b883a 	mov	r5,r21
 18092b8:	1886b03a 	or	r3,r3,r2
 18092bc:	d8c00115 	stw	r3,4(sp)
 18092c0:	853fffcc 	andi	r20,r16,65535
 18092c4:	180a2040 	call	180a204 <__udivsi3>
 18092c8:	8809883a 	mov	r4,r17
 18092cc:	a80b883a 	mov	r5,r21
 18092d0:	a0a3383a 	mul	r17,r20,r2
 18092d4:	180a20c0 	call	180a20c <__umodsi3>
 18092d8:	d9000117 	ldw	r4,4(sp)
 18092dc:	1004943a 	slli	r2,r2,16
 18092e0:	b839883a 	mov	fp,r23
 18092e4:	2006d43a 	srli	r3,r4,16
 18092e8:	10c4b03a 	or	r2,r2,r3
 18092ec:	1440022e 	bgeu	r2,r17,18092f8 <__umoddi3+0x330>
 18092f0:	1405883a 	add	r2,r2,r16
 18092f4:	1400962e 	bgeu	r2,r16,1809550 <__umoddi3+0x588>
 18092f8:	1463c83a 	sub	r17,r2,r17
 18092fc:	8809883a 	mov	r4,r17
 1809300:	a80b883a 	mov	r5,r21
 1809304:	180a2040 	call	180a204 <__udivsi3>
 1809308:	8809883a 	mov	r4,r17
 180930c:	a80b883a 	mov	r5,r21
 1809310:	a0a3383a 	mul	r17,r20,r2
 1809314:	180a20c0 	call	180a20c <__umodsi3>
 1809318:	d9400117 	ldw	r5,4(sp)
 180931c:	1004943a 	slli	r2,r2,16
 1809320:	28ffffcc 	andi	r3,r5,65535
 1809324:	10c4b03a 	or	r2,r2,r3
 1809328:	1440042e 	bgeu	r2,r17,180933c <__umoddi3+0x374>
 180932c:	1405883a 	add	r2,r2,r16
 1809330:	14000236 	bltu	r2,r16,180933c <__umoddi3+0x374>
 1809334:	1440012e 	bgeu	r2,r17,180933c <__umoddi3+0x374>
 1809338:	1405883a 	add	r2,r2,r16
 180933c:	b5ec983a 	sll	r22,r22,r23
 1809340:	1463c83a 	sub	r17,r2,r17
 1809344:	003f4406 	br	1809058 <__umoddi3+0x90>
 1809348:	3d4fc83a 	sub	r7,r7,r21
 180934c:	3546983a 	sll	r3,r6,r21
 1809350:	81c4d83a 	srl	r2,r16,r7
 1809354:	a1e2d83a 	srl	r17,r20,r7
 1809358:	a54c983a 	sll	r6,r20,r21
 180935c:	18aeb03a 	or	r23,r3,r2
 1809360:	b828d43a 	srli	r20,r23,16
 1809364:	b1c4d83a 	srl	r2,r22,r7
 1809368:	8809883a 	mov	r4,r17
 180936c:	a00b883a 	mov	r5,r20
 1809370:	308cb03a 	or	r6,r6,r2
 1809374:	d9c00315 	stw	r7,12(sp)
 1809378:	d9800215 	stw	r6,8(sp)
 180937c:	180a2040 	call	180a204 <__udivsi3>
 1809380:	8809883a 	mov	r4,r17
 1809384:	a00b883a 	mov	r5,r20
 1809388:	1039883a 	mov	fp,r2
 180938c:	180a20c0 	call	180a20c <__umodsi3>
 1809390:	b8ffffcc 	andi	r3,r23,65535
 1809394:	d8c00415 	stw	r3,16(sp)
 1809398:	d9000217 	ldw	r4,8(sp)
 180939c:	d9400417 	ldw	r5,16(sp)
 18093a0:	1004943a 	slli	r2,r2,16
 18093a4:	2006d43a 	srli	r3,r4,16
 18093a8:	8560983a 	sll	r16,r16,r21
 18093ac:	2f23383a 	mul	r17,r5,fp
 18093b0:	10c4b03a 	or	r2,r2,r3
 18093b4:	dc000015 	stw	r16,0(sp)
 18093b8:	b56c983a 	sll	r22,r22,r21
 18093bc:	1440032e 	bgeu	r2,r17,18093cc <__umoddi3+0x404>
 18093c0:	15c5883a 	add	r2,r2,r23
 18093c4:	e73fffc4 	addi	fp,fp,-1
 18093c8:	15c05d2e 	bgeu	r2,r23,1809540 <__umoddi3+0x578>
 18093cc:	1463c83a 	sub	r17,r2,r17
 18093d0:	8809883a 	mov	r4,r17
 18093d4:	a00b883a 	mov	r5,r20
 18093d8:	180a2040 	call	180a204 <__udivsi3>
 18093dc:	8809883a 	mov	r4,r17
 18093e0:	a00b883a 	mov	r5,r20
 18093e4:	1021883a 	mov	r16,r2
 18093e8:	180a20c0 	call	180a20c <__umodsi3>
 18093ec:	d8c00417 	ldw	r3,16(sp)
 18093f0:	d9000217 	ldw	r4,8(sp)
 18093f4:	1004943a 	slli	r2,r2,16
 18093f8:	1c23383a 	mul	r17,r3,r16
 18093fc:	20ffffcc 	andi	r3,r4,65535
 1809400:	10ceb03a 	or	r7,r2,r3
 1809404:	3c40032e 	bgeu	r7,r17,1809414 <__umoddi3+0x44c>
 1809408:	3dcf883a 	add	r7,r7,r23
 180940c:	843fffc4 	addi	r16,r16,-1
 1809410:	3dc0472e 	bgeu	r7,r23,1809530 <__umoddi3+0x568>
 1809414:	e004943a 	slli	r2,fp,16
 1809418:	d9400017 	ldw	r5,0(sp)
 180941c:	3c4fc83a 	sub	r7,r7,r17
 1809420:	8084b03a 	or	r2,r16,r2
 1809424:	28ffffcc 	andi	r3,r5,65535
 1809428:	280cd43a 	srli	r6,r5,16
 180942c:	100ad43a 	srli	r5,r2,16
 1809430:	10bfffcc 	andi	r2,r2,65535
 1809434:	10d1383a 	mul	r8,r2,r3
 1809438:	28c7383a 	mul	r3,r5,r3
 180943c:	1185383a 	mul	r2,r2,r6
 1809440:	4008d43a 	srli	r4,r8,16
 1809444:	298b383a 	mul	r5,r5,r6
 1809448:	10c5883a 	add	r2,r2,r3
 180944c:	2089883a 	add	r4,r4,r2
 1809450:	20c0022e 	bgeu	r4,r3,180945c <__umoddi3+0x494>
 1809454:	00800074 	movhi	r2,1
 1809458:	288b883a 	add	r5,r5,r2
 180945c:	2004d43a 	srli	r2,r4,16
 1809460:	2008943a 	slli	r4,r4,16
 1809464:	40ffffcc 	andi	r3,r8,65535
 1809468:	288b883a 	add	r5,r5,r2
 180946c:	20c9883a 	add	r4,r4,r3
 1809470:	39400b36 	bltu	r7,r5,18094a0 <__umoddi3+0x4d8>
 1809474:	39403d26 	beq	r7,r5,180956c <__umoddi3+0x5a4>
 1809478:	394bc83a 	sub	r5,r7,r5
 180947c:	00000f06 	br	18094bc <__umoddi3+0x4f4>
 1809480:	30c5c83a 	sub	r2,r6,r3
 1809484:	1839883a 	mov	fp,r3
 1809488:	b084d83a 	srl	r2,r22,r2
 180948c:	a0c6983a 	sll	r3,r20,r3
 1809490:	8720983a 	sll	r16,r16,fp
 1809494:	b72c983a 	sll	r22,r22,fp
 1809498:	18a8b03a 	or	r20,r3,r2
 180949c:	003f3a06 	br	1809188 <__umoddi3+0x1c0>
 18094a0:	d8c00017 	ldw	r3,0(sp)
 18094a4:	20c5c83a 	sub	r2,r4,r3
 18094a8:	2089803a 	cmpltu	r4,r4,r2
 18094ac:	2dc7c83a 	sub	r3,r5,r23
 18094b0:	1907c83a 	sub	r3,r3,r4
 18094b4:	38cbc83a 	sub	r5,r7,r3
 18094b8:	1009883a 	mov	r4,r2
 18094bc:	b105c83a 	sub	r2,r22,r4
 18094c0:	b087803a 	cmpltu	r3,r22,r2
 18094c4:	28c7c83a 	sub	r3,r5,r3
 18094c8:	d9400317 	ldw	r5,12(sp)
 18094cc:	1544d83a 	srl	r2,r2,r21
 18094d0:	1948983a 	sll	r4,r3,r5
 18094d4:	1d46d83a 	srl	r3,r3,r21
 18094d8:	20a4b03a 	or	r18,r4,r2
 18094dc:	9011883a 	mov	r8,r18
 18094e0:	1813883a 	mov	r9,r3
 18094e4:	003ef606 	br	18090c0 <__umoddi3+0xf8>
 18094e8:	01400604 	movi	r5,24
 18094ec:	2805883a 	mov	r2,r5
 18094f0:	003ecc06 	br	1809024 <__umoddi3+0x5c>
 18094f4:	01400204 	movi	r5,8
 18094f8:	2805883a 	mov	r2,r5
 18094fc:	003ec906 	br	1809024 <__umoddi3+0x5c>
 1809500:	01400204 	movi	r5,8
 1809504:	2805883a 	mov	r2,r5
 1809508:	003f0106 	br	1809110 <__umoddi3+0x148>
 180950c:	01400204 	movi	r5,8
 1809510:	2805883a 	mov	r2,r5
 1809514:	003f1206 	br	1809160 <__umoddi3+0x198>
 1809518:	01400604 	movi	r5,24
 180951c:	2805883a 	mov	r2,r5
 1809520:	003f0f06 	br	1809160 <__umoddi3+0x198>
 1809524:	01400604 	movi	r5,24
 1809528:	2805883a 	mov	r2,r5
 180952c:	003ef806 	br	1809110 <__umoddi3+0x148>
 1809530:	3c7fb82e 	bgeu	r7,r17,1809414 <__umoddi3+0x44c>
 1809534:	843fffc4 	addi	r16,r16,-1
 1809538:	3dcf883a 	add	r7,r7,r23
 180953c:	003fb506 	br	1809414 <__umoddi3+0x44c>
 1809540:	147fa22e 	bgeu	r2,r17,18093cc <__umoddi3+0x404>
 1809544:	e73fffc4 	addi	fp,fp,-1
 1809548:	15c5883a 	add	r2,r2,r23
 180954c:	003f9f06 	br	18093cc <__umoddi3+0x404>
 1809550:	147f692e 	bgeu	r2,r17,18092f8 <__umoddi3+0x330>
 1809554:	1405883a 	add	r2,r2,r16
 1809558:	003f6706 	br	18092f8 <__umoddi3+0x330>
 180955c:	1405883a 	add	r2,r2,r16
 1809560:	003f1906 	br	18091c8 <__umoddi3+0x200>
 1809564:	1405883a 	add	r2,r2,r16
 1809568:	003ec906 	br	1809090 <__umoddi3+0xc8>
 180956c:	b13fcc36 	bltu	r22,r4,18094a0 <__umoddi3+0x4d8>
 1809570:	000b883a 	mov	r5,zero
 1809574:	003fd106 	br	18094bc <__umoddi3+0x4f4>

01809578 <__muldf3>:
 1809578:	deffe004 	addi	sp,sp,-128
 180957c:	dc401815 	stw	r17,96(sp)
 1809580:	dc400404 	addi	r17,sp,16
 1809584:	2011883a 	mov	r8,r4
 1809588:	2813883a 	mov	r9,r5
 180958c:	dc001715 	stw	r16,92(sp)
 1809590:	d809883a 	mov	r4,sp
 1809594:	880b883a 	mov	r5,r17
 1809598:	dc000904 	addi	r16,sp,36
 180959c:	dfc01f15 	stw	ra,124(sp)
 18095a0:	da400115 	stw	r9,4(sp)
 18095a4:	d9c00315 	stw	r7,12(sp)
 18095a8:	da000015 	stw	r8,0(sp)
 18095ac:	d9800215 	stw	r6,8(sp)
 18095b0:	ddc01e15 	stw	r23,120(sp)
 18095b4:	dd801d15 	stw	r22,116(sp)
 18095b8:	dd401c15 	stw	r21,112(sp)
 18095bc:	dd001b15 	stw	r20,108(sp)
 18095c0:	dcc01a15 	stw	r19,104(sp)
 18095c4:	dc801915 	stw	r18,100(sp)
 18095c8:	18016540 	call	1801654 <__unpack_d>
 18095cc:	d9000204 	addi	r4,sp,8
 18095d0:	800b883a 	mov	r5,r16
 18095d4:	18016540 	call	1801654 <__unpack_d>
 18095d8:	d9000417 	ldw	r4,16(sp)
 18095dc:	00800044 	movi	r2,1
 18095e0:	1100102e 	bgeu	r2,r4,1809624 <__muldf3+0xac>
 18095e4:	d8c00917 	ldw	r3,36(sp)
 18095e8:	10c0062e 	bgeu	r2,r3,1809604 <__muldf3+0x8c>
 18095ec:	00800104 	movi	r2,4
 18095f0:	20800a26 	beq	r4,r2,180961c <__muldf3+0xa4>
 18095f4:	1880cc26 	beq	r3,r2,1809928 <__muldf3+0x3b0>
 18095f8:	00800084 	movi	r2,2
 18095fc:	20800926 	beq	r4,r2,1809624 <__muldf3+0xac>
 1809600:	1880191e 	bne	r3,r2,1809668 <__muldf3+0xf0>
 1809604:	d8c00a17 	ldw	r3,40(sp)
 1809608:	d8800517 	ldw	r2,20(sp)
 180960c:	8009883a 	mov	r4,r16
 1809610:	10c4c03a 	cmpne	r2,r2,r3
 1809614:	d8800a15 	stw	r2,40(sp)
 1809618:	00000706 	br	1809638 <__muldf3+0xc0>
 180961c:	00800084 	movi	r2,2
 1809620:	1880c326 	beq	r3,r2,1809930 <__muldf3+0x3b8>
 1809624:	d8800517 	ldw	r2,20(sp)
 1809628:	d8c00a17 	ldw	r3,40(sp)
 180962c:	8809883a 	mov	r4,r17
 1809630:	10c4c03a 	cmpne	r2,r2,r3
 1809634:	d8800515 	stw	r2,20(sp)
 1809638:	18013400 	call	1801340 <__pack_d>
 180963c:	dfc01f17 	ldw	ra,124(sp)
 1809640:	ddc01e17 	ldw	r23,120(sp)
 1809644:	dd801d17 	ldw	r22,116(sp)
 1809648:	dd401c17 	ldw	r21,112(sp)
 180964c:	dd001b17 	ldw	r20,108(sp)
 1809650:	dcc01a17 	ldw	r19,104(sp)
 1809654:	dc801917 	ldw	r18,100(sp)
 1809658:	dc401817 	ldw	r17,96(sp)
 180965c:	dc001717 	ldw	r16,92(sp)
 1809660:	dec02004 	addi	sp,sp,128
 1809664:	f800283a 	ret
 1809668:	dd800717 	ldw	r22,28(sp)
 180966c:	dc800c17 	ldw	r18,48(sp)
 1809670:	002b883a 	mov	r21,zero
 1809674:	0023883a 	mov	r17,zero
 1809678:	a80b883a 	mov	r5,r21
 180967c:	b00d883a 	mov	r6,r22
 1809680:	880f883a 	mov	r7,r17
 1809684:	ddc00817 	ldw	r23,32(sp)
 1809688:	dcc00d17 	ldw	r19,52(sp)
 180968c:	9009883a 	mov	r4,r18
 1809690:	180a2140 	call	180a214 <__muldi3>
 1809694:	001b883a 	mov	r13,zero
 1809698:	680f883a 	mov	r7,r13
 180969c:	b009883a 	mov	r4,r22
 18096a0:	000b883a 	mov	r5,zero
 18096a4:	980d883a 	mov	r6,r19
 18096a8:	b82d883a 	mov	r22,r23
 18096ac:	002f883a 	mov	r23,zero
 18096b0:	db401615 	stw	r13,88(sp)
 18096b4:	d8801315 	stw	r2,76(sp)
 18096b8:	d8c01415 	stw	r3,80(sp)
 18096bc:	dcc01515 	stw	r19,84(sp)
 18096c0:	180a2140 	call	180a214 <__muldi3>
 18096c4:	b00d883a 	mov	r6,r22
 18096c8:	000b883a 	mov	r5,zero
 18096cc:	9009883a 	mov	r4,r18
 18096d0:	b80f883a 	mov	r7,r23
 18096d4:	1021883a 	mov	r16,r2
 18096d8:	1823883a 	mov	r17,r3
 18096dc:	180a2140 	call	180a214 <__muldi3>
 18096e0:	8085883a 	add	r2,r16,r2
 18096e4:	140d803a 	cmpltu	r6,r2,r16
 18096e8:	88c7883a 	add	r3,r17,r3
 18096ec:	30cd883a 	add	r6,r6,r3
 18096f0:	1029883a 	mov	r20,r2
 18096f4:	302b883a 	mov	r21,r6
 18096f8:	da801317 	ldw	r10,76(sp)
 18096fc:	dac01417 	ldw	r11,80(sp)
 1809700:	db001517 	ldw	r12,84(sp)
 1809704:	db401617 	ldw	r13,88(sp)
 1809708:	3440612e 	bgeu	r6,r17,1809890 <__muldf3+0x318>
 180970c:	0009883a 	mov	r4,zero
 1809710:	5105883a 	add	r2,r10,r4
 1809714:	128d803a 	cmpltu	r6,r2,r10
 1809718:	5d07883a 	add	r3,r11,r20
 180971c:	30cd883a 	add	r6,r6,r3
 1809720:	0021883a 	mov	r16,zero
 1809724:	04400044 	movi	r17,1
 1809728:	1025883a 	mov	r18,r2
 180972c:	3027883a 	mov	r19,r6
 1809730:	32c06236 	bltu	r6,r11,18098bc <__muldf3+0x344>
 1809734:	59807a26 	beq	r11,r6,1809920 <__muldf3+0x3a8>
 1809738:	680b883a 	mov	r5,r13
 180973c:	b80f883a 	mov	r7,r23
 1809740:	6009883a 	mov	r4,r12
 1809744:	b00d883a 	mov	r6,r22
 1809748:	180a2140 	call	180a214 <__muldi3>
 180974c:	1009883a 	mov	r4,r2
 1809750:	000f883a 	mov	r7,zero
 1809754:	1545883a 	add	r2,r2,r21
 1809758:	1111803a 	cmpltu	r8,r2,r4
 180975c:	19c7883a 	add	r3,r3,r7
 1809760:	40c7883a 	add	r3,r8,r3
 1809764:	88cb883a 	add	r5,r17,r3
 1809768:	d8c00617 	ldw	r3,24(sp)
 180976c:	8089883a 	add	r4,r16,r2
 1809770:	d8800b17 	ldw	r2,44(sp)
 1809774:	18c00104 	addi	r3,r3,4
 1809778:	240d803a 	cmpltu	r6,r4,r16
 180977c:	10c7883a 	add	r3,r2,r3
 1809780:	2013883a 	mov	r9,r4
 1809784:	d8800a17 	ldw	r2,40(sp)
 1809788:	d9000517 	ldw	r4,20(sp)
 180978c:	314d883a 	add	r6,r6,r5
 1809790:	3015883a 	mov	r10,r6
 1809794:	2088c03a 	cmpne	r4,r4,r2
 1809798:	00880034 	movhi	r2,8192
 180979c:	10bfffc4 	addi	r2,r2,-1
 18097a0:	d9000f15 	stw	r4,60(sp)
 18097a4:	d8c01015 	stw	r3,64(sp)
 18097a8:	1180162e 	bgeu	r2,r6,1809804 <__muldf3+0x28c>
 18097ac:	1811883a 	mov	r8,r3
 18097b0:	101f883a 	mov	r15,r2
 18097b4:	980497fa 	slli	r2,r19,31
 18097b8:	9016d07a 	srli	r11,r18,1
 18097bc:	500697fa 	slli	r3,r10,31
 18097c0:	480cd07a 	srli	r6,r9,1
 18097c4:	500ed07a 	srli	r7,r10,1
 18097c8:	12d6b03a 	or	r11,r2,r11
 18097cc:	00800044 	movi	r2,1
 18097d0:	198cb03a 	or	r6,r3,r6
 18097d4:	4888703a 	and	r4,r9,r2
 18097d8:	9818d07a 	srli	r12,r19,1
 18097dc:	001b883a 	mov	r13,zero
 18097e0:	03a00034 	movhi	r14,32768
 18097e4:	3013883a 	mov	r9,r6
 18097e8:	3815883a 	mov	r10,r7
 18097ec:	4091883a 	add	r8,r8,r2
 18097f0:	20000226 	beq	r4,zero,18097fc <__muldf3+0x284>
 18097f4:	5b64b03a 	or	r18,r11,r13
 18097f8:	63a6b03a 	or	r19,r12,r14
 18097fc:	7abfed36 	bltu	r15,r10,18097b4 <__muldf3+0x23c>
 1809800:	da001015 	stw	r8,64(sp)
 1809804:	00840034 	movhi	r2,4096
 1809808:	10bfffc4 	addi	r2,r2,-1
 180980c:	12801436 	bltu	r2,r10,1809860 <__muldf3+0x2e8>
 1809810:	da001017 	ldw	r8,64(sp)
 1809814:	101f883a 	mov	r15,r2
 1809818:	4a45883a 	add	r2,r9,r9
 180981c:	124d803a 	cmpltu	r6,r2,r9
 1809820:	5287883a 	add	r3,r10,r10
 1809824:	9497883a 	add	r11,r18,r18
 1809828:	5c8f803a 	cmpltu	r7,r11,r18
 180982c:	9cd9883a 	add	r12,r19,r19
 1809830:	01000044 	movi	r4,1
 1809834:	30cd883a 	add	r6,r6,r3
 1809838:	3b0f883a 	add	r7,r7,r12
 180983c:	423fffc4 	addi	r8,r8,-1
 1809840:	1013883a 	mov	r9,r2
 1809844:	3015883a 	mov	r10,r6
 1809848:	111ab03a 	or	r13,r2,r4
 180984c:	98003016 	blt	r19,zero,1809910 <__muldf3+0x398>
 1809850:	5825883a 	mov	r18,r11
 1809854:	3827883a 	mov	r19,r7
 1809858:	7abfef2e 	bgeu	r15,r10,1809818 <__muldf3+0x2a0>
 180985c:	da001015 	stw	r8,64(sp)
 1809860:	00803fc4 	movi	r2,255
 1809864:	488e703a 	and	r7,r9,r2
 1809868:	00802004 	movi	r2,128
 180986c:	0007883a 	mov	r3,zero
 1809870:	0011883a 	mov	r8,zero
 1809874:	38801826 	beq	r7,r2,18098d8 <__muldf3+0x360>
 1809878:	008000c4 	movi	r2,3
 180987c:	d9000e04 	addi	r4,sp,56
 1809880:	da801215 	stw	r10,72(sp)
 1809884:	d8800e15 	stw	r2,56(sp)
 1809888:	da401115 	stw	r9,68(sp)
 180988c:	003f6a06 	br	1809638 <__muldf3+0xc0>
 1809890:	89802126 	beq	r17,r6,1809918 <__muldf3+0x3a0>
 1809894:	0009883a 	mov	r4,zero
 1809898:	5105883a 	add	r2,r10,r4
 180989c:	128d803a 	cmpltu	r6,r2,r10
 18098a0:	5d07883a 	add	r3,r11,r20
 18098a4:	30cd883a 	add	r6,r6,r3
 18098a8:	0021883a 	mov	r16,zero
 18098ac:	0023883a 	mov	r17,zero
 18098b0:	1025883a 	mov	r18,r2
 18098b4:	3027883a 	mov	r19,r6
 18098b8:	32ff9e2e 	bgeu	r6,r11,1809734 <__muldf3+0x1bc>
 18098bc:	00800044 	movi	r2,1
 18098c0:	8089883a 	add	r4,r16,r2
 18098c4:	240d803a 	cmpltu	r6,r4,r16
 18098c8:	344d883a 	add	r6,r6,r17
 18098cc:	2021883a 	mov	r16,r4
 18098d0:	3023883a 	mov	r17,r6
 18098d4:	003f9806 	br	1809738 <__muldf3+0x1c0>
 18098d8:	403fe71e 	bne	r8,zero,1809878 <__muldf3+0x300>
 18098dc:	01004004 	movi	r4,256
 18098e0:	4904703a 	and	r2,r9,r4
 18098e4:	10c4b03a 	or	r2,r2,r3
 18098e8:	103fe31e 	bne	r2,zero,1809878 <__muldf3+0x300>
 18098ec:	94c4b03a 	or	r2,r18,r19
 18098f0:	103fe126 	beq	r2,zero,1809878 <__muldf3+0x300>
 18098f4:	49c5883a 	add	r2,r9,r7
 18098f8:	1251803a 	cmpltu	r8,r2,r9
 18098fc:	4291883a 	add	r8,r8,r10
 1809900:	013fc004 	movi	r4,-256
 1809904:	1112703a 	and	r9,r2,r4
 1809908:	4015883a 	mov	r10,r8
 180990c:	003fda06 	br	1809878 <__muldf3+0x300>
 1809910:	6813883a 	mov	r9,r13
 1809914:	003fce06 	br	1809850 <__muldf3+0x2d8>
 1809918:	143f7c36 	bltu	r2,r16,180970c <__muldf3+0x194>
 180991c:	003fdd06 	br	1809894 <__muldf3+0x31c>
 1809920:	12bf852e 	bgeu	r2,r10,1809738 <__muldf3+0x1c0>
 1809924:	003fe506 	br	18098bc <__muldf3+0x344>
 1809928:	00800084 	movi	r2,2
 180992c:	20bf351e 	bne	r4,r2,1809604 <__muldf3+0x8c>
 1809930:	01006074 	movhi	r4,385
 1809934:	2103c804 	addi	r4,r4,3872
 1809938:	003f3f06 	br	1809638 <__muldf3+0xc0>

0180993c <__divdf3>:
 180993c:	deffed04 	addi	sp,sp,-76
 1809940:	dcc01115 	stw	r19,68(sp)
 1809944:	dcc00404 	addi	r19,sp,16
 1809948:	2011883a 	mov	r8,r4
 180994c:	2813883a 	mov	r9,r5
 1809950:	dc000e15 	stw	r16,56(sp)
 1809954:	d809883a 	mov	r4,sp
 1809958:	980b883a 	mov	r5,r19
 180995c:	dc000904 	addi	r16,sp,36
 1809960:	dfc01215 	stw	ra,72(sp)
 1809964:	da400115 	stw	r9,4(sp)
 1809968:	d9c00315 	stw	r7,12(sp)
 180996c:	da000015 	stw	r8,0(sp)
 1809970:	d9800215 	stw	r6,8(sp)
 1809974:	dc801015 	stw	r18,64(sp)
 1809978:	dc400f15 	stw	r17,60(sp)
 180997c:	18016540 	call	1801654 <__unpack_d>
 1809980:	d9000204 	addi	r4,sp,8
 1809984:	800b883a 	mov	r5,r16
 1809988:	18016540 	call	1801654 <__unpack_d>
 180998c:	d9000417 	ldw	r4,16(sp)
 1809990:	00800044 	movi	r2,1
 1809994:	11000b2e 	bgeu	r2,r4,18099c4 <__divdf3+0x88>
 1809998:	d9400917 	ldw	r5,36(sp)
 180999c:	1140762e 	bgeu	r2,r5,1809b78 <__divdf3+0x23c>
 18099a0:	d8800517 	ldw	r2,20(sp)
 18099a4:	d8c00a17 	ldw	r3,40(sp)
 18099a8:	01800104 	movi	r6,4
 18099ac:	10c4f03a 	xor	r2,r2,r3
 18099b0:	d8800515 	stw	r2,20(sp)
 18099b4:	21800226 	beq	r4,r6,18099c0 <__divdf3+0x84>
 18099b8:	00800084 	movi	r2,2
 18099bc:	2080141e 	bne	r4,r2,1809a10 <__divdf3+0xd4>
 18099c0:	29000926 	beq	r5,r4,18099e8 <__divdf3+0xac>
 18099c4:	9809883a 	mov	r4,r19
 18099c8:	18013400 	call	1801340 <__pack_d>
 18099cc:	dfc01217 	ldw	ra,72(sp)
 18099d0:	dcc01117 	ldw	r19,68(sp)
 18099d4:	dc801017 	ldw	r18,64(sp)
 18099d8:	dc400f17 	ldw	r17,60(sp)
 18099dc:	dc000e17 	ldw	r16,56(sp)
 18099e0:	dec01304 	addi	sp,sp,76
 18099e4:	f800283a 	ret
 18099e8:	01006074 	movhi	r4,385
 18099ec:	2103c804 	addi	r4,r4,3872
 18099f0:	18013400 	call	1801340 <__pack_d>
 18099f4:	dfc01217 	ldw	ra,72(sp)
 18099f8:	dcc01117 	ldw	r19,68(sp)
 18099fc:	dc801017 	ldw	r18,64(sp)
 1809a00:	dc400f17 	ldw	r17,60(sp)
 1809a04:	dc000e17 	ldw	r16,56(sp)
 1809a08:	dec01304 	addi	sp,sp,76
 1809a0c:	f800283a 	ret
 1809a10:	29805b26 	beq	r5,r6,1809b80 <__divdf3+0x244>
 1809a14:	28802d26 	beq	r5,r2,1809acc <__divdf3+0x190>
 1809a18:	d8c00617 	ldw	r3,24(sp)
 1809a1c:	d8800b17 	ldw	r2,44(sp)
 1809a20:	d9c00817 	ldw	r7,32(sp)
 1809a24:	dc400d17 	ldw	r17,52(sp)
 1809a28:	188bc83a 	sub	r5,r3,r2
 1809a2c:	d9800717 	ldw	r6,28(sp)
 1809a30:	dc000c17 	ldw	r16,48(sp)
 1809a34:	d9400615 	stw	r5,24(sp)
 1809a38:	3c403836 	bltu	r7,r17,1809b1c <__divdf3+0x1e0>
 1809a3c:	89c03626 	beq	r17,r7,1809b18 <__divdf3+0x1dc>
 1809a40:	0015883a 	mov	r10,zero
 1809a44:	001d883a 	mov	r14,zero
 1809a48:	02c40034 	movhi	r11,4096
 1809a4c:	001f883a 	mov	r15,zero
 1809a50:	003f883a 	mov	ra,zero
 1809a54:	04800f44 	movi	r18,61
 1809a58:	00000f06 	br	1809a98 <__divdf3+0x15c>
 1809a5c:	601d883a 	mov	r14,r12
 1809a60:	681f883a 	mov	r15,r13
 1809a64:	400d883a 	mov	r6,r8
 1809a68:	100f883a 	mov	r7,r2
 1809a6c:	3191883a 	add	r8,r6,r6
 1809a70:	5808d07a 	srli	r4,r11,1
 1809a74:	4185803a 	cmpltu	r2,r8,r6
 1809a78:	39d3883a 	add	r9,r7,r7
 1809a7c:	28c6b03a 	or	r3,r5,r3
 1809a80:	1245883a 	add	r2,r2,r9
 1809a84:	1815883a 	mov	r10,r3
 1809a88:	2017883a 	mov	r11,r4
 1809a8c:	400d883a 	mov	r6,r8
 1809a90:	100f883a 	mov	r7,r2
 1809a94:	fc801726 	beq	ra,r18,1809af4 <__divdf3+0x1b8>
 1809a98:	580a97fa 	slli	r5,r11,31
 1809a9c:	5006d07a 	srli	r3,r10,1
 1809aa0:	ffc00044 	addi	ra,ra,1
 1809aa4:	3c7ff136 	bltu	r7,r17,1809a6c <__divdf3+0x130>
 1809aa8:	3411c83a 	sub	r8,r6,r16
 1809aac:	3205803a 	cmpltu	r2,r6,r8
 1809ab0:	3c53c83a 	sub	r9,r7,r17
 1809ab4:	7298b03a 	or	r12,r14,r10
 1809ab8:	7adab03a 	or	r13,r15,r11
 1809abc:	4885c83a 	sub	r2,r9,r2
 1809ac0:	89ffe61e 	bne	r17,r7,1809a5c <__divdf3+0x120>
 1809ac4:	343fe936 	bltu	r6,r16,1809a6c <__divdf3+0x130>
 1809ac8:	003fe406 	br	1809a5c <__divdf3+0x120>
 1809acc:	9809883a 	mov	r4,r19
 1809ad0:	d9800415 	stw	r6,16(sp)
 1809ad4:	18013400 	call	1801340 <__pack_d>
 1809ad8:	dfc01217 	ldw	ra,72(sp)
 1809adc:	dcc01117 	ldw	r19,68(sp)
 1809ae0:	dc801017 	ldw	r18,64(sp)
 1809ae4:	dc400f17 	ldw	r17,60(sp)
 1809ae8:	dc000e17 	ldw	r16,56(sp)
 1809aec:	dec01304 	addi	sp,sp,76
 1809af0:	f800283a 	ret
 1809af4:	00803fc4 	movi	r2,255
 1809af8:	7090703a 	and	r8,r14,r2
 1809afc:	00802004 	movi	r2,128
 1809b00:	0007883a 	mov	r3,zero
 1809b04:	0013883a 	mov	r9,zero
 1809b08:	40800d26 	beq	r8,r2,1809b40 <__divdf3+0x204>
 1809b0c:	dbc00815 	stw	r15,32(sp)
 1809b10:	db800715 	stw	r14,28(sp)
 1809b14:	003fab06 	br	18099c4 <__divdf3+0x88>
 1809b18:	343fc92e 	bgeu	r6,r16,1809a40 <__divdf3+0x104>
 1809b1c:	3185883a 	add	r2,r6,r6
 1809b20:	1189803a 	cmpltu	r4,r2,r6
 1809b24:	39c7883a 	add	r3,r7,r7
 1809b28:	20c9883a 	add	r4,r4,r3
 1809b2c:	297fffc4 	addi	r5,r5,-1
 1809b30:	100d883a 	mov	r6,r2
 1809b34:	200f883a 	mov	r7,r4
 1809b38:	d9400615 	stw	r5,24(sp)
 1809b3c:	003fc006 	br	1809a40 <__divdf3+0x104>
 1809b40:	483ff21e 	bne	r9,zero,1809b0c <__divdf3+0x1d0>
 1809b44:	01004004 	movi	r4,256
 1809b48:	7104703a 	and	r2,r14,r4
 1809b4c:	10c4b03a 	or	r2,r2,r3
 1809b50:	103fee1e 	bne	r2,zero,1809b0c <__divdf3+0x1d0>
 1809b54:	31c4b03a 	or	r2,r6,r7
 1809b58:	103fec26 	beq	r2,zero,1809b0c <__divdf3+0x1d0>
 1809b5c:	7205883a 	add	r2,r14,r8
 1809b60:	1391803a 	cmpltu	r8,r2,r14
 1809b64:	43d1883a 	add	r8,r8,r15
 1809b68:	013fc004 	movi	r4,-256
 1809b6c:	111c703a 	and	r14,r2,r4
 1809b70:	401f883a 	mov	r15,r8
 1809b74:	003fe506 	br	1809b0c <__divdf3+0x1d0>
 1809b78:	8009883a 	mov	r4,r16
 1809b7c:	003f9206 	br	18099c8 <__divdf3+0x8c>
 1809b80:	9809883a 	mov	r4,r19
 1809b84:	d8000715 	stw	zero,28(sp)
 1809b88:	d8000815 	stw	zero,32(sp)
 1809b8c:	d8000615 	stw	zero,24(sp)
 1809b90:	003f8d06 	br	18099c8 <__divdf3+0x8c>

01809b94 <__eqdf2>:
 1809b94:	deffef04 	addi	sp,sp,-68
 1809b98:	dc400f15 	stw	r17,60(sp)
 1809b9c:	dc400404 	addi	r17,sp,16
 1809ba0:	2005883a 	mov	r2,r4
 1809ba4:	2807883a 	mov	r3,r5
 1809ba8:	dc000e15 	stw	r16,56(sp)
 1809bac:	d809883a 	mov	r4,sp
 1809bb0:	880b883a 	mov	r5,r17
 1809bb4:	dc000904 	addi	r16,sp,36
 1809bb8:	d8c00115 	stw	r3,4(sp)
 1809bbc:	d8800015 	stw	r2,0(sp)
 1809bc0:	d9800215 	stw	r6,8(sp)
 1809bc4:	dfc01015 	stw	ra,64(sp)
 1809bc8:	d9c00315 	stw	r7,12(sp)
 1809bcc:	18016540 	call	1801654 <__unpack_d>
 1809bd0:	d9000204 	addi	r4,sp,8
 1809bd4:	800b883a 	mov	r5,r16
 1809bd8:	18016540 	call	1801654 <__unpack_d>
 1809bdc:	d8800417 	ldw	r2,16(sp)
 1809be0:	00c00044 	movi	r3,1
 1809be4:	180d883a 	mov	r6,r3
 1809be8:	1880062e 	bgeu	r3,r2,1809c04 <__eqdf2+0x70>
 1809bec:	d8800917 	ldw	r2,36(sp)
 1809bf0:	8809883a 	mov	r4,r17
 1809bf4:	800b883a 	mov	r5,r16
 1809bf8:	1880022e 	bgeu	r3,r2,1809c04 <__eqdf2+0x70>
 1809bfc:	180a2ac0 	call	180a2ac <__fpcmp_parts_d>
 1809c00:	100d883a 	mov	r6,r2
 1809c04:	3005883a 	mov	r2,r6
 1809c08:	dfc01017 	ldw	ra,64(sp)
 1809c0c:	dc400f17 	ldw	r17,60(sp)
 1809c10:	dc000e17 	ldw	r16,56(sp)
 1809c14:	dec01104 	addi	sp,sp,68
 1809c18:	f800283a 	ret

01809c1c <__nedf2>:
 1809c1c:	deffef04 	addi	sp,sp,-68
 1809c20:	dc400f15 	stw	r17,60(sp)
 1809c24:	dc400404 	addi	r17,sp,16
 1809c28:	2005883a 	mov	r2,r4
 1809c2c:	2807883a 	mov	r3,r5
 1809c30:	dc000e15 	stw	r16,56(sp)
 1809c34:	d809883a 	mov	r4,sp
 1809c38:	880b883a 	mov	r5,r17
 1809c3c:	dc000904 	addi	r16,sp,36
 1809c40:	d8c00115 	stw	r3,4(sp)
 1809c44:	d8800015 	stw	r2,0(sp)
 1809c48:	d9800215 	stw	r6,8(sp)
 1809c4c:	dfc01015 	stw	ra,64(sp)
 1809c50:	d9c00315 	stw	r7,12(sp)
 1809c54:	18016540 	call	1801654 <__unpack_d>
 1809c58:	d9000204 	addi	r4,sp,8
 1809c5c:	800b883a 	mov	r5,r16
 1809c60:	18016540 	call	1801654 <__unpack_d>
 1809c64:	d8800417 	ldw	r2,16(sp)
 1809c68:	00c00044 	movi	r3,1
 1809c6c:	180d883a 	mov	r6,r3
 1809c70:	1880062e 	bgeu	r3,r2,1809c8c <__nedf2+0x70>
 1809c74:	d8800917 	ldw	r2,36(sp)
 1809c78:	8809883a 	mov	r4,r17
 1809c7c:	800b883a 	mov	r5,r16
 1809c80:	1880022e 	bgeu	r3,r2,1809c8c <__nedf2+0x70>
 1809c84:	180a2ac0 	call	180a2ac <__fpcmp_parts_d>
 1809c88:	100d883a 	mov	r6,r2
 1809c8c:	3005883a 	mov	r2,r6
 1809c90:	dfc01017 	ldw	ra,64(sp)
 1809c94:	dc400f17 	ldw	r17,60(sp)
 1809c98:	dc000e17 	ldw	r16,56(sp)
 1809c9c:	dec01104 	addi	sp,sp,68
 1809ca0:	f800283a 	ret

01809ca4 <__gtdf2>:
 1809ca4:	deffef04 	addi	sp,sp,-68
 1809ca8:	dc400f15 	stw	r17,60(sp)
 1809cac:	dc400404 	addi	r17,sp,16
 1809cb0:	2005883a 	mov	r2,r4
 1809cb4:	2807883a 	mov	r3,r5
 1809cb8:	dc000e15 	stw	r16,56(sp)
 1809cbc:	d809883a 	mov	r4,sp
 1809cc0:	880b883a 	mov	r5,r17
 1809cc4:	dc000904 	addi	r16,sp,36
 1809cc8:	d8c00115 	stw	r3,4(sp)
 1809ccc:	d8800015 	stw	r2,0(sp)
 1809cd0:	d9800215 	stw	r6,8(sp)
 1809cd4:	dfc01015 	stw	ra,64(sp)
 1809cd8:	d9c00315 	stw	r7,12(sp)
 1809cdc:	18016540 	call	1801654 <__unpack_d>
 1809ce0:	d9000204 	addi	r4,sp,8
 1809ce4:	800b883a 	mov	r5,r16
 1809ce8:	18016540 	call	1801654 <__unpack_d>
 1809cec:	d8800417 	ldw	r2,16(sp)
 1809cf0:	00c00044 	movi	r3,1
 1809cf4:	01bfffc4 	movi	r6,-1
 1809cf8:	1880062e 	bgeu	r3,r2,1809d14 <__gtdf2+0x70>
 1809cfc:	d8800917 	ldw	r2,36(sp)
 1809d00:	8809883a 	mov	r4,r17
 1809d04:	800b883a 	mov	r5,r16
 1809d08:	1880022e 	bgeu	r3,r2,1809d14 <__gtdf2+0x70>
 1809d0c:	180a2ac0 	call	180a2ac <__fpcmp_parts_d>
 1809d10:	100d883a 	mov	r6,r2
 1809d14:	3005883a 	mov	r2,r6
 1809d18:	dfc01017 	ldw	ra,64(sp)
 1809d1c:	dc400f17 	ldw	r17,60(sp)
 1809d20:	dc000e17 	ldw	r16,56(sp)
 1809d24:	dec01104 	addi	sp,sp,68
 1809d28:	f800283a 	ret

01809d2c <__gedf2>:
 1809d2c:	deffef04 	addi	sp,sp,-68
 1809d30:	dc400f15 	stw	r17,60(sp)
 1809d34:	dc400404 	addi	r17,sp,16
 1809d38:	2005883a 	mov	r2,r4
 1809d3c:	2807883a 	mov	r3,r5
 1809d40:	dc000e15 	stw	r16,56(sp)
 1809d44:	d809883a 	mov	r4,sp
 1809d48:	880b883a 	mov	r5,r17
 1809d4c:	dc000904 	addi	r16,sp,36
 1809d50:	d8c00115 	stw	r3,4(sp)
 1809d54:	d8800015 	stw	r2,0(sp)
 1809d58:	d9800215 	stw	r6,8(sp)
 1809d5c:	dfc01015 	stw	ra,64(sp)
 1809d60:	d9c00315 	stw	r7,12(sp)
 1809d64:	18016540 	call	1801654 <__unpack_d>
 1809d68:	d9000204 	addi	r4,sp,8
 1809d6c:	800b883a 	mov	r5,r16
 1809d70:	18016540 	call	1801654 <__unpack_d>
 1809d74:	d8800417 	ldw	r2,16(sp)
 1809d78:	00c00044 	movi	r3,1
 1809d7c:	01bfffc4 	movi	r6,-1
 1809d80:	1880062e 	bgeu	r3,r2,1809d9c <__gedf2+0x70>
 1809d84:	d8800917 	ldw	r2,36(sp)
 1809d88:	8809883a 	mov	r4,r17
 1809d8c:	800b883a 	mov	r5,r16
 1809d90:	1880022e 	bgeu	r3,r2,1809d9c <__gedf2+0x70>
 1809d94:	180a2ac0 	call	180a2ac <__fpcmp_parts_d>
 1809d98:	100d883a 	mov	r6,r2
 1809d9c:	3005883a 	mov	r2,r6
 1809da0:	dfc01017 	ldw	ra,64(sp)
 1809da4:	dc400f17 	ldw	r17,60(sp)
 1809da8:	dc000e17 	ldw	r16,56(sp)
 1809dac:	dec01104 	addi	sp,sp,68
 1809db0:	f800283a 	ret

01809db4 <__ltdf2>:
 1809db4:	deffef04 	addi	sp,sp,-68
 1809db8:	dc400f15 	stw	r17,60(sp)
 1809dbc:	dc400404 	addi	r17,sp,16
 1809dc0:	2005883a 	mov	r2,r4
 1809dc4:	2807883a 	mov	r3,r5
 1809dc8:	dc000e15 	stw	r16,56(sp)
 1809dcc:	d809883a 	mov	r4,sp
 1809dd0:	880b883a 	mov	r5,r17
 1809dd4:	dc000904 	addi	r16,sp,36
 1809dd8:	d8c00115 	stw	r3,4(sp)
 1809ddc:	d8800015 	stw	r2,0(sp)
 1809de0:	d9800215 	stw	r6,8(sp)
 1809de4:	dfc01015 	stw	ra,64(sp)
 1809de8:	d9c00315 	stw	r7,12(sp)
 1809dec:	18016540 	call	1801654 <__unpack_d>
 1809df0:	d9000204 	addi	r4,sp,8
 1809df4:	800b883a 	mov	r5,r16
 1809df8:	18016540 	call	1801654 <__unpack_d>
 1809dfc:	d8800417 	ldw	r2,16(sp)
 1809e00:	00c00044 	movi	r3,1
 1809e04:	180d883a 	mov	r6,r3
 1809e08:	1880062e 	bgeu	r3,r2,1809e24 <__ltdf2+0x70>
 1809e0c:	d8800917 	ldw	r2,36(sp)
 1809e10:	8809883a 	mov	r4,r17
 1809e14:	800b883a 	mov	r5,r16
 1809e18:	1880022e 	bgeu	r3,r2,1809e24 <__ltdf2+0x70>
 1809e1c:	180a2ac0 	call	180a2ac <__fpcmp_parts_d>
 1809e20:	100d883a 	mov	r6,r2
 1809e24:	3005883a 	mov	r2,r6
 1809e28:	dfc01017 	ldw	ra,64(sp)
 1809e2c:	dc400f17 	ldw	r17,60(sp)
 1809e30:	dc000e17 	ldw	r16,56(sp)
 1809e34:	dec01104 	addi	sp,sp,68
 1809e38:	f800283a 	ret

01809e3c <__floatsidf>:
 1809e3c:	2006d7fa 	srli	r3,r4,31
 1809e40:	defff604 	addi	sp,sp,-40
 1809e44:	008000c4 	movi	r2,3
 1809e48:	dfc00915 	stw	ra,36(sp)
 1809e4c:	dcc00815 	stw	r19,32(sp)
 1809e50:	dc800715 	stw	r18,28(sp)
 1809e54:	dc400615 	stw	r17,24(sp)
 1809e58:	dc000515 	stw	r16,20(sp)
 1809e5c:	d8800015 	stw	r2,0(sp)
 1809e60:	d8c00115 	stw	r3,4(sp)
 1809e64:	20000f1e 	bne	r4,zero,1809ea4 <__floatsidf+0x68>
 1809e68:	00800084 	movi	r2,2
 1809e6c:	d8800015 	stw	r2,0(sp)
 1809e70:	d809883a 	mov	r4,sp
 1809e74:	18013400 	call	1801340 <__pack_d>
 1809e78:	1009883a 	mov	r4,r2
 1809e7c:	180b883a 	mov	r5,r3
 1809e80:	2005883a 	mov	r2,r4
 1809e84:	2807883a 	mov	r3,r5
 1809e88:	dfc00917 	ldw	ra,36(sp)
 1809e8c:	dcc00817 	ldw	r19,32(sp)
 1809e90:	dc800717 	ldw	r18,28(sp)
 1809e94:	dc400617 	ldw	r17,24(sp)
 1809e98:	dc000517 	ldw	r16,20(sp)
 1809e9c:	dec00a04 	addi	sp,sp,40
 1809ea0:	f800283a 	ret
 1809ea4:	00800f04 	movi	r2,60
 1809ea8:	1807003a 	cmpeq	r3,r3,zero
 1809eac:	d8800215 	stw	r2,8(sp)
 1809eb0:	18001126 	beq	r3,zero,1809ef8 <__floatsidf+0xbc>
 1809eb4:	0027883a 	mov	r19,zero
 1809eb8:	2025883a 	mov	r18,r4
 1809ebc:	d9000315 	stw	r4,12(sp)
 1809ec0:	dcc00415 	stw	r19,16(sp)
 1809ec4:	18010980 	call	1801098 <__clzsi2>
 1809ec8:	11000744 	addi	r4,r2,29
 1809ecc:	013fe80e 	bge	zero,r4,1809e70 <__floatsidf+0x34>
 1809ed0:	10bfff44 	addi	r2,r2,-3
 1809ed4:	10000c16 	blt	r2,zero,1809f08 <__floatsidf+0xcc>
 1809ed8:	90a2983a 	sll	r17,r18,r2
 1809edc:	0021883a 	mov	r16,zero
 1809ee0:	d8800217 	ldw	r2,8(sp)
 1809ee4:	dc400415 	stw	r17,16(sp)
 1809ee8:	dc000315 	stw	r16,12(sp)
 1809eec:	1105c83a 	sub	r2,r2,r4
 1809ef0:	d8800215 	stw	r2,8(sp)
 1809ef4:	003fde06 	br	1809e70 <__floatsidf+0x34>
 1809ef8:	00a00034 	movhi	r2,32768
 1809efc:	20800a26 	beq	r4,r2,1809f28 <__floatsidf+0xec>
 1809f00:	0109c83a 	sub	r4,zero,r4
 1809f04:	003feb06 	br	1809eb4 <__floatsidf+0x78>
 1809f08:	9006d07a 	srli	r3,r18,1
 1809f0c:	008007c4 	movi	r2,31
 1809f10:	1105c83a 	sub	r2,r2,r4
 1809f14:	1886d83a 	srl	r3,r3,r2
 1809f18:	9922983a 	sll	r17,r19,r4
 1809f1c:	9120983a 	sll	r16,r18,r4
 1809f20:	1c62b03a 	or	r17,r3,r17
 1809f24:	003fee06 	br	1809ee0 <__floatsidf+0xa4>
 1809f28:	0009883a 	mov	r4,zero
 1809f2c:	01707834 	movhi	r5,49632
 1809f30:	003fd306 	br	1809e80 <__floatsidf+0x44>

01809f34 <__floatunsidf>:
 1809f34:	defff204 	addi	sp,sp,-56
 1809f38:	dfc00d15 	stw	ra,52(sp)
 1809f3c:	ddc00c15 	stw	r23,48(sp)
 1809f40:	dd800b15 	stw	r22,44(sp)
 1809f44:	dd400a15 	stw	r21,40(sp)
 1809f48:	dd000915 	stw	r20,36(sp)
 1809f4c:	dcc00815 	stw	r19,32(sp)
 1809f50:	dc800715 	stw	r18,28(sp)
 1809f54:	dc400615 	stw	r17,24(sp)
 1809f58:	dc000515 	stw	r16,20(sp)
 1809f5c:	d8000115 	stw	zero,4(sp)
 1809f60:	20000f1e 	bne	r4,zero,1809fa0 <__floatunsidf+0x6c>
 1809f64:	00800084 	movi	r2,2
 1809f68:	d8800015 	stw	r2,0(sp)
 1809f6c:	d809883a 	mov	r4,sp
 1809f70:	18013400 	call	1801340 <__pack_d>
 1809f74:	dfc00d17 	ldw	ra,52(sp)
 1809f78:	ddc00c17 	ldw	r23,48(sp)
 1809f7c:	dd800b17 	ldw	r22,44(sp)
 1809f80:	dd400a17 	ldw	r21,40(sp)
 1809f84:	dd000917 	ldw	r20,36(sp)
 1809f88:	dcc00817 	ldw	r19,32(sp)
 1809f8c:	dc800717 	ldw	r18,28(sp)
 1809f90:	dc400617 	ldw	r17,24(sp)
 1809f94:	dc000517 	ldw	r16,20(sp)
 1809f98:	dec00e04 	addi	sp,sp,56
 1809f9c:	f800283a 	ret
 1809fa0:	008000c4 	movi	r2,3
 1809fa4:	00c00f04 	movi	r3,60
 1809fa8:	002f883a 	mov	r23,zero
 1809fac:	202d883a 	mov	r22,r4
 1809fb0:	d8800015 	stw	r2,0(sp)
 1809fb4:	d8c00215 	stw	r3,8(sp)
 1809fb8:	d9000315 	stw	r4,12(sp)
 1809fbc:	ddc00415 	stw	r23,16(sp)
 1809fc0:	18010980 	call	1801098 <__clzsi2>
 1809fc4:	12400744 	addi	r9,r2,29
 1809fc8:	48000b16 	blt	r9,zero,1809ff8 <__floatunsidf+0xc4>
 1809fcc:	483fe726 	beq	r9,zero,1809f6c <__floatunsidf+0x38>
 1809fd0:	10bfff44 	addi	r2,r2,-3
 1809fd4:	10002e16 	blt	r2,zero,180a090 <__floatunsidf+0x15c>
 1809fd8:	b0a2983a 	sll	r17,r22,r2
 1809fdc:	0021883a 	mov	r16,zero
 1809fe0:	d8800217 	ldw	r2,8(sp)
 1809fe4:	dc400415 	stw	r17,16(sp)
 1809fe8:	dc000315 	stw	r16,12(sp)
 1809fec:	1245c83a 	sub	r2,r2,r9
 1809ff0:	d8800215 	stw	r2,8(sp)
 1809ff4:	003fdd06 	br	1809f6c <__floatunsidf+0x38>
 1809ff8:	0255c83a 	sub	r10,zero,r9
 1809ffc:	51bff804 	addi	r6,r10,-32
 180a000:	30001b16 	blt	r6,zero,180a070 <__floatunsidf+0x13c>
 180a004:	b9a8d83a 	srl	r20,r23,r6
 180a008:	002b883a 	mov	r21,zero
 180a00c:	000f883a 	mov	r7,zero
 180a010:	01000044 	movi	r4,1
 180a014:	0011883a 	mov	r8,zero
 180a018:	30002516 	blt	r6,zero,180a0b0 <__floatunsidf+0x17c>
 180a01c:	21a6983a 	sll	r19,r4,r6
 180a020:	0025883a 	mov	r18,zero
 180a024:	00bfffc4 	movi	r2,-1
 180a028:	9089883a 	add	r4,r18,r2
 180a02c:	988b883a 	add	r5,r19,r2
 180a030:	248d803a 	cmpltu	r6,r4,r18
 180a034:	314b883a 	add	r5,r6,r5
 180a038:	b104703a 	and	r2,r22,r4
 180a03c:	b946703a 	and	r3,r23,r5
 180a040:	10c4b03a 	or	r2,r2,r3
 180a044:	10000226 	beq	r2,zero,180a050 <__floatunsidf+0x11c>
 180a048:	01c00044 	movi	r7,1
 180a04c:	0011883a 	mov	r8,zero
 180a050:	d9000217 	ldw	r4,8(sp)
 180a054:	a1c4b03a 	or	r2,r20,r7
 180a058:	aa06b03a 	or	r3,r21,r8
 180a05c:	2249c83a 	sub	r4,r4,r9
 180a060:	d8c00415 	stw	r3,16(sp)
 180a064:	d9000215 	stw	r4,8(sp)
 180a068:	d8800315 	stw	r2,12(sp)
 180a06c:	003fbf06 	br	1809f6c <__floatunsidf+0x38>
 180a070:	bdc7883a 	add	r3,r23,r23
 180a074:	008007c4 	movi	r2,31
 180a078:	1285c83a 	sub	r2,r2,r10
 180a07c:	1886983a 	sll	r3,r3,r2
 180a080:	b2a8d83a 	srl	r20,r22,r10
 180a084:	baaad83a 	srl	r21,r23,r10
 180a088:	1d28b03a 	or	r20,r3,r20
 180a08c:	003fdf06 	br	180a00c <__floatunsidf+0xd8>
 180a090:	b006d07a 	srli	r3,r22,1
 180a094:	008007c4 	movi	r2,31
 180a098:	1245c83a 	sub	r2,r2,r9
 180a09c:	1886d83a 	srl	r3,r3,r2
 180a0a0:	ba62983a 	sll	r17,r23,r9
 180a0a4:	b260983a 	sll	r16,r22,r9
 180a0a8:	1c62b03a 	or	r17,r3,r17
 180a0ac:	003fcc06 	br	1809fe0 <__floatunsidf+0xac>
 180a0b0:	2006d07a 	srli	r3,r4,1
 180a0b4:	008007c4 	movi	r2,31
 180a0b8:	1285c83a 	sub	r2,r2,r10
 180a0bc:	18a6d83a 	srl	r19,r3,r2
 180a0c0:	22a4983a 	sll	r18,r4,r10
 180a0c4:	003fd706 	br	180a024 <__floatunsidf+0xf0>

0180a0c8 <udivmodsi4>:
 180a0c8:	29001b2e 	bgeu	r5,r4,180a138 <udivmodsi4+0x70>
 180a0cc:	28001a16 	blt	r5,zero,180a138 <udivmodsi4+0x70>
 180a0d0:	00800044 	movi	r2,1
 180a0d4:	0007883a 	mov	r3,zero
 180a0d8:	01c007c4 	movi	r7,31
 180a0dc:	00000306 	br	180a0ec <udivmodsi4+0x24>
 180a0e0:	19c01326 	beq	r3,r7,180a130 <udivmodsi4+0x68>
 180a0e4:	18c00044 	addi	r3,r3,1
 180a0e8:	28000416 	blt	r5,zero,180a0fc <udivmodsi4+0x34>
 180a0ec:	294b883a 	add	r5,r5,r5
 180a0f0:	1085883a 	add	r2,r2,r2
 180a0f4:	293ffa36 	bltu	r5,r4,180a0e0 <udivmodsi4+0x18>
 180a0f8:	10000d26 	beq	r2,zero,180a130 <udivmodsi4+0x68>
 180a0fc:	0007883a 	mov	r3,zero
 180a100:	21400236 	bltu	r4,r5,180a10c <udivmodsi4+0x44>
 180a104:	2149c83a 	sub	r4,r4,r5
 180a108:	1886b03a 	or	r3,r3,r2
 180a10c:	1004d07a 	srli	r2,r2,1
 180a110:	280ad07a 	srli	r5,r5,1
 180a114:	103ffa1e 	bne	r2,zero,180a100 <udivmodsi4+0x38>
 180a118:	30000226 	beq	r6,zero,180a124 <udivmodsi4+0x5c>
 180a11c:	2005883a 	mov	r2,r4
 180a120:	f800283a 	ret
 180a124:	1809883a 	mov	r4,r3
 180a128:	2005883a 	mov	r2,r4
 180a12c:	f800283a 	ret
 180a130:	0007883a 	mov	r3,zero
 180a134:	003ff806 	br	180a118 <udivmodsi4+0x50>
 180a138:	00800044 	movi	r2,1
 180a13c:	0007883a 	mov	r3,zero
 180a140:	003fef06 	br	180a100 <udivmodsi4+0x38>

0180a144 <__divsi3>:
 180a144:	defffe04 	addi	sp,sp,-8
 180a148:	dc000015 	stw	r16,0(sp)
 180a14c:	dfc00115 	stw	ra,4(sp)
 180a150:	0021883a 	mov	r16,zero
 180a154:	20000c16 	blt	r4,zero,180a188 <__divsi3+0x44>
 180a158:	000d883a 	mov	r6,zero
 180a15c:	28000e16 	blt	r5,zero,180a198 <__divsi3+0x54>
 180a160:	180a0c80 	call	180a0c8 <udivmodsi4>
 180a164:	1007883a 	mov	r3,r2
 180a168:	8005003a 	cmpeq	r2,r16,zero
 180a16c:	1000011e 	bne	r2,zero,180a174 <__divsi3+0x30>
 180a170:	00c7c83a 	sub	r3,zero,r3
 180a174:	1805883a 	mov	r2,r3
 180a178:	dfc00117 	ldw	ra,4(sp)
 180a17c:	dc000017 	ldw	r16,0(sp)
 180a180:	dec00204 	addi	sp,sp,8
 180a184:	f800283a 	ret
 180a188:	0109c83a 	sub	r4,zero,r4
 180a18c:	04000044 	movi	r16,1
 180a190:	000d883a 	mov	r6,zero
 180a194:	283ff20e 	bge	r5,zero,180a160 <__divsi3+0x1c>
 180a198:	014bc83a 	sub	r5,zero,r5
 180a19c:	8021003a 	cmpeq	r16,r16,zero
 180a1a0:	003fef06 	br	180a160 <__divsi3+0x1c>

0180a1a4 <__modsi3>:
 180a1a4:	deffff04 	addi	sp,sp,-4
 180a1a8:	dfc00015 	stw	ra,0(sp)
 180a1ac:	01800044 	movi	r6,1
 180a1b0:	2807883a 	mov	r3,r5
 180a1b4:	20000416 	blt	r4,zero,180a1c8 <__modsi3+0x24>
 180a1b8:	28000c16 	blt	r5,zero,180a1ec <__modsi3+0x48>
 180a1bc:	dfc00017 	ldw	ra,0(sp)
 180a1c0:	dec00104 	addi	sp,sp,4
 180a1c4:	180a0c81 	jmpi	180a0c8 <udivmodsi4>
 180a1c8:	0109c83a 	sub	r4,zero,r4
 180a1cc:	28000b16 	blt	r5,zero,180a1fc <__modsi3+0x58>
 180a1d0:	180b883a 	mov	r5,r3
 180a1d4:	01800044 	movi	r6,1
 180a1d8:	180a0c80 	call	180a0c8 <udivmodsi4>
 180a1dc:	0085c83a 	sub	r2,zero,r2
 180a1e0:	dfc00017 	ldw	ra,0(sp)
 180a1e4:	dec00104 	addi	sp,sp,4
 180a1e8:	f800283a 	ret
 180a1ec:	014bc83a 	sub	r5,zero,r5
 180a1f0:	dfc00017 	ldw	ra,0(sp)
 180a1f4:	dec00104 	addi	sp,sp,4
 180a1f8:	180a0c81 	jmpi	180a0c8 <udivmodsi4>
 180a1fc:	0147c83a 	sub	r3,zero,r5
 180a200:	003ff306 	br	180a1d0 <__modsi3+0x2c>

0180a204 <__udivsi3>:
 180a204:	000d883a 	mov	r6,zero
 180a208:	180a0c81 	jmpi	180a0c8 <udivmodsi4>

0180a20c <__umodsi3>:
 180a20c:	01800044 	movi	r6,1
 180a210:	180a0c81 	jmpi	180a0c8 <udivmodsi4>

0180a214 <__muldi3>:
 180a214:	2011883a 	mov	r8,r4
 180a218:	427fffcc 	andi	r9,r8,65535
 180a21c:	4018d43a 	srli	r12,r8,16
 180a220:	32bfffcc 	andi	r10,r6,65535
 180a224:	3016d43a 	srli	r11,r6,16
 180a228:	4a85383a 	mul	r2,r9,r10
 180a22c:	6295383a 	mul	r10,r12,r10
 180a230:	4ad3383a 	mul	r9,r9,r11
 180a234:	113fffcc 	andi	r4,r2,65535
 180a238:	1004d43a 	srli	r2,r2,16
 180a23c:	4a93883a 	add	r9,r9,r10
 180a240:	3807883a 	mov	r3,r7
 180a244:	1245883a 	add	r2,r2,r9
 180a248:	280f883a 	mov	r7,r5
 180a24c:	180b883a 	mov	r5,r3
 180a250:	1006943a 	slli	r3,r2,16
 180a254:	defffd04 	addi	sp,sp,-12
 180a258:	dc800215 	stw	r18,8(sp)
 180a25c:	1907883a 	add	r3,r3,r4
 180a260:	dc400115 	stw	r17,4(sp)
 180a264:	dc000015 	stw	r16,0(sp)
 180a268:	4165383a 	mul	r18,r8,r5
 180a26c:	31e3383a 	mul	r17,r6,r7
 180a270:	1012d43a 	srli	r9,r2,16
 180a274:	62d9383a 	mul	r12,r12,r11
 180a278:	181f883a 	mov	r15,r3
 180a27c:	1280022e 	bgeu	r2,r10,180a288 <__muldi3+0x74>
 180a280:	00800074 	movhi	r2,1
 180a284:	6099883a 	add	r12,r12,r2
 180a288:	624d883a 	add	r6,r12,r9
 180a28c:	9187883a 	add	r3,r18,r6
 180a290:	88c7883a 	add	r3,r17,r3
 180a294:	7805883a 	mov	r2,r15
 180a298:	dc800217 	ldw	r18,8(sp)
 180a29c:	dc400117 	ldw	r17,4(sp)
 180a2a0:	dc000017 	ldw	r16,0(sp)
 180a2a4:	dec00304 	addi	sp,sp,12
 180a2a8:	f800283a 	ret

0180a2ac <__fpcmp_parts_d>:
 180a2ac:	21800017 	ldw	r6,0(r4)
 180a2b0:	00c00044 	movi	r3,1
 180a2b4:	19800a2e 	bgeu	r3,r6,180a2e0 <__fpcmp_parts_d+0x34>
 180a2b8:	28800017 	ldw	r2,0(r5)
 180a2bc:	1880082e 	bgeu	r3,r2,180a2e0 <__fpcmp_parts_d+0x34>
 180a2c0:	00c00104 	movi	r3,4
 180a2c4:	30c02626 	beq	r6,r3,180a360 <__fpcmp_parts_d+0xb4>
 180a2c8:	10c02226 	beq	r2,r3,180a354 <__fpcmp_parts_d+0xa8>
 180a2cc:	00c00084 	movi	r3,2
 180a2d0:	30c00526 	beq	r6,r3,180a2e8 <__fpcmp_parts_d+0x3c>
 180a2d4:	10c0071e 	bne	r2,r3,180a2f4 <__fpcmp_parts_d+0x48>
 180a2d8:	20800117 	ldw	r2,4(r4)
 180a2dc:	1000091e 	bne	r2,zero,180a304 <__fpcmp_parts_d+0x58>
 180a2e0:	00800044 	movi	r2,1
 180a2e4:	f800283a 	ret
 180a2e8:	10c01a1e 	bne	r2,r3,180a354 <__fpcmp_parts_d+0xa8>
 180a2ec:	0005883a 	mov	r2,zero
 180a2f0:	f800283a 	ret
 180a2f4:	22000117 	ldw	r8,4(r4)
 180a2f8:	28800117 	ldw	r2,4(r5)
 180a2fc:	40800326 	beq	r8,r2,180a30c <__fpcmp_parts_d+0x60>
 180a300:	403ff726 	beq	r8,zero,180a2e0 <__fpcmp_parts_d+0x34>
 180a304:	00bfffc4 	movi	r2,-1
 180a308:	f800283a 	ret
 180a30c:	20c00217 	ldw	r3,8(r4)
 180a310:	28800217 	ldw	r2,8(r5)
 180a314:	10fffa16 	blt	r2,r3,180a300 <__fpcmp_parts_d+0x54>
 180a318:	18800916 	blt	r3,r2,180a340 <__fpcmp_parts_d+0x94>
 180a31c:	21c00417 	ldw	r7,16(r4)
 180a320:	28c00417 	ldw	r3,16(r5)
 180a324:	21800317 	ldw	r6,12(r4)
 180a328:	28800317 	ldw	r2,12(r5)
 180a32c:	19fff436 	bltu	r3,r7,180a300 <__fpcmp_parts_d+0x54>
 180a330:	38c00526 	beq	r7,r3,180a348 <__fpcmp_parts_d+0x9c>
 180a334:	38c00236 	bltu	r7,r3,180a340 <__fpcmp_parts_d+0x94>
 180a338:	19ffec1e 	bne	r3,r7,180a2ec <__fpcmp_parts_d+0x40>
 180a33c:	30bfeb2e 	bgeu	r6,r2,180a2ec <__fpcmp_parts_d+0x40>
 180a340:	403fe71e 	bne	r8,zero,180a2e0 <__fpcmp_parts_d+0x34>
 180a344:	003fef06 	br	180a304 <__fpcmp_parts_d+0x58>
 180a348:	11bffa2e 	bgeu	r2,r6,180a334 <__fpcmp_parts_d+0x88>
 180a34c:	403fe426 	beq	r8,zero,180a2e0 <__fpcmp_parts_d+0x34>
 180a350:	003fec06 	br	180a304 <__fpcmp_parts_d+0x58>
 180a354:	28800117 	ldw	r2,4(r5)
 180a358:	103fe11e 	bne	r2,zero,180a2e0 <__fpcmp_parts_d+0x34>
 180a35c:	003fe906 	br	180a304 <__fpcmp_parts_d+0x58>
 180a360:	11bfdd1e 	bne	r2,r6,180a2d8 <__fpcmp_parts_d+0x2c>
 180a364:	28c00117 	ldw	r3,4(r5)
 180a368:	20800117 	ldw	r2,4(r4)
 180a36c:	1885c83a 	sub	r2,r3,r2
 180a370:	f800283a 	ret

0180a374 <close>:
 *
 * ALT_CLOSE is mapped onto the close() system call in alt_syscall.h
 */
 
int ALT_CLOSE (int fildes)
{
 180a374:	defff804 	addi	sp,sp,-32
 180a378:	dfc00715 	stw	ra,28(sp)
 180a37c:	df000615 	stw	fp,24(sp)
 180a380:	df000604 	addi	fp,sp,24
 180a384:	e13ffc15 	stw	r4,-16(fp)
   * A common error case is that when the file descriptor was created, the call
   * to open() failed resulting in a negative file descriptor. This is trapped
   * below so that we don't try and process an invalid file descriptor.
   */

  fd = (fildes < 0) ? NULL : &alt_fd_list[fildes];
 180a388:	e0bffc17 	ldw	r2,-16(fp)
 180a38c:	1004803a 	cmplt	r2,r2,zero
 180a390:	1000081e 	bne	r2,zero,180a3b4 <close+0x40>
 180a394:	e0bffc17 	ldw	r2,-16(fp)
 180a398:	10800324 	muli	r2,r2,12
 180a39c:	1007883a 	mov	r3,r2
 180a3a0:	00806074 	movhi	r2,385
 180a3a4:	10875004 	addi	r2,r2,7488
 180a3a8:	1887883a 	add	r3,r3,r2
 180a3ac:	e0ffff15 	stw	r3,-4(fp)
 180a3b0:	00000106 	br	180a3b8 <close+0x44>
 180a3b4:	e03fff15 	stw	zero,-4(fp)
 180a3b8:	e0bfff17 	ldw	r2,-4(fp)
 180a3bc:	e0bffb15 	stw	r2,-20(fp)

  if (fd)
 180a3c0:	e0bffb17 	ldw	r2,-20(fp)
 180a3c4:	1005003a 	cmpeq	r2,r2,zero
 180a3c8:	10001d1e 	bne	r2,zero,180a440 <close+0xcc>
    /*
     * If the associated file system/device has a close function, call it so 
     * that any necessary cleanup code can run.
     */

    rval = (fd->dev->close) ? fd->dev->close(fd) : 0;
 180a3cc:	e0bffb17 	ldw	r2,-20(fp)
 180a3d0:	10800017 	ldw	r2,0(r2)
 180a3d4:	10800417 	ldw	r2,16(r2)
 180a3d8:	1005003a 	cmpeq	r2,r2,zero
 180a3dc:	1000071e 	bne	r2,zero,180a3fc <close+0x88>
 180a3e0:	e0bffb17 	ldw	r2,-20(fp)
 180a3e4:	10800017 	ldw	r2,0(r2)
 180a3e8:	10800417 	ldw	r2,16(r2)
 180a3ec:	e13ffb17 	ldw	r4,-20(fp)
 180a3f0:	103ee83a 	callr	r2
 180a3f4:	e0bffe15 	stw	r2,-8(fp)
 180a3f8:	00000106 	br	180a400 <close+0x8c>
 180a3fc:	e03ffe15 	stw	zero,-8(fp)
 180a400:	e0bffe17 	ldw	r2,-8(fp)
 180a404:	e0bffa15 	stw	r2,-24(fp)

    /* Free the file descriptor structure and return. */

    alt_release_fd (fildes);
 180a408:	e13ffc17 	ldw	r4,-16(fp)
 180a40c:	180aacc0 	call	180aacc <alt_release_fd>
    if (rval < 0)
 180a410:	e0bffa17 	ldw	r2,-24(fp)
 180a414:	1004403a 	cmpge	r2,r2,zero
 180a418:	1000071e 	bne	r2,zero,180a438 <close+0xc4>
    {
      ALT_ERRNO = -rval;
 180a41c:	180a4700 	call	180a470 <alt_get_errno>
 180a420:	e0fffa17 	ldw	r3,-24(fp)
 180a424:	00c7c83a 	sub	r3,zero,r3
 180a428:	10c00015 	stw	r3,0(r2)
      return -1;
 180a42c:	00bfffc4 	movi	r2,-1
 180a430:	e0bffd15 	stw	r2,-12(fp)
 180a434:	00000806 	br	180a458 <close+0xe4>
    }
    return 0;
 180a438:	e03ffd15 	stw	zero,-12(fp)
 180a43c:	00000606 	br	180a458 <close+0xe4>
  }
  else
  {
    ALT_ERRNO = EBADFD;
 180a440:	180a4700 	call	180a470 <alt_get_errno>
 180a444:	1007883a 	mov	r3,r2
 180a448:	00801444 	movi	r2,81
 180a44c:	18800015 	stw	r2,0(r3)
    return -1;
 180a450:	00bfffc4 	movi	r2,-1
 180a454:	e0bffd15 	stw	r2,-12(fp)
 180a458:	e0bffd17 	ldw	r2,-12(fp)
  }
}
 180a45c:	e037883a 	mov	sp,fp
 180a460:	dfc00117 	ldw	ra,4(sp)
 180a464:	df000017 	ldw	fp,0(sp)
 180a468:	dec00204 	addi	sp,sp,8
 180a46c:	f800283a 	ret

0180a470 <alt_get_errno>:
#undef errno

extern int errno;

static ALT_INLINE int* alt_get_errno(void)
{
 180a470:	defffd04 	addi	sp,sp,-12
 180a474:	dfc00215 	stw	ra,8(sp)
 180a478:	df000115 	stw	fp,4(sp)
 180a47c:	df000104 	addi	fp,sp,4
  return ((alt_errno) ? alt_errno() : &errno);
 180a480:	00806074 	movhi	r2,385
 180a484:	108c8204 	addi	r2,r2,12808
 180a488:	10800017 	ldw	r2,0(r2)
 180a48c:	1005003a 	cmpeq	r2,r2,zero
 180a490:	1000061e 	bne	r2,zero,180a4ac <alt_get_errno+0x3c>
 180a494:	00806074 	movhi	r2,385
 180a498:	108c8204 	addi	r2,r2,12808
 180a49c:	10800017 	ldw	r2,0(r2)
 180a4a0:	103ee83a 	callr	r2
 180a4a4:	e0bfff15 	stw	r2,-4(fp)
 180a4a8:	00000306 	br	180a4b8 <alt_get_errno+0x48>
 180a4ac:	00806074 	movhi	r2,385
 180a4b0:	108c9104 	addi	r2,r2,12868
 180a4b4:	e0bfff15 	stw	r2,-4(fp)
 180a4b8:	e0bfff17 	ldw	r2,-4(fp)
}
 180a4bc:	e037883a 	mov	sp,fp
 180a4c0:	dfc00117 	ldw	ra,4(sp)
 180a4c4:	df000017 	ldw	fp,0(sp)
 180a4c8:	dec00204 	addi	sp,sp,8
 180a4cc:	f800283a 	ret

0180a4d0 <alt_dev_null_write>:
 * by the alt_dev_null device. It simple discards all data passed to it, and
 * indicates that the data has been successfully transmitted.
 */

static int alt_dev_null_write (alt_fd* fd, const char* ptr, int len)
{
 180a4d0:	defffc04 	addi	sp,sp,-16
 180a4d4:	df000315 	stw	fp,12(sp)
 180a4d8:	df000304 	addi	fp,sp,12
 180a4dc:	e13ffd15 	stw	r4,-12(fp)
 180a4e0:	e17ffe15 	stw	r5,-8(fp)
 180a4e4:	e1bfff15 	stw	r6,-4(fp)
  return len;
 180a4e8:	e0bfff17 	ldw	r2,-4(fp)
}
 180a4ec:	e037883a 	mov	sp,fp
 180a4f0:	df000017 	ldw	fp,0(sp)
 180a4f4:	dec00104 	addi	sp,sp,4
 180a4f8:	f800283a 	ret

0180a4fc <fstat>:
}

#else /* !ALT_USE_DIRECT_DRIVERS */

int ALT_FSTAT (int file, struct stat *st)
{
 180a4fc:	defff904 	addi	sp,sp,-28
 180a500:	dfc00615 	stw	ra,24(sp)
 180a504:	df000515 	stw	fp,20(sp)
 180a508:	df000504 	addi	fp,sp,20
 180a50c:	e13ffc15 	stw	r4,-16(fp)
 180a510:	e17ffd15 	stw	r5,-12(fp)
   * A common error case is that when the file descriptor was created, the call
   * to open() failed resulting in a negative file descriptor. This is trapped
   * below so that we don't try and process an invalid file descriptor.
   */

  fd = (file < 0) ? NULL : &alt_fd_list[file];
 180a514:	e0bffc17 	ldw	r2,-16(fp)
 180a518:	1004803a 	cmplt	r2,r2,zero
 180a51c:	1000081e 	bne	r2,zero,180a540 <fstat+0x44>
 180a520:	e0bffc17 	ldw	r2,-16(fp)
 180a524:	10800324 	muli	r2,r2,12
 180a528:	1007883a 	mov	r3,r2
 180a52c:	00806074 	movhi	r2,385
 180a530:	10875004 	addi	r2,r2,7488
 180a534:	1887883a 	add	r3,r3,r2
 180a538:	e0ffff15 	stw	r3,-4(fp)
 180a53c:	00000106 	br	180a544 <fstat+0x48>
 180a540:	e03fff15 	stw	zero,-4(fp)
 180a544:	e0bfff17 	ldw	r2,-4(fp)
 180a548:	e0bffb15 	stw	r2,-20(fp)
  
  if (fd)
 180a54c:	e0bffb17 	ldw	r2,-20(fp)
 180a550:	1005003a 	cmpeq	r2,r2,zero
 180a554:	1000121e 	bne	r2,zero,180a5a0 <fstat+0xa4>
  {
    /* Call the drivers fstat() function to fill out the "st" structure. */

    if (fd->dev->fstat)
 180a558:	e0bffb17 	ldw	r2,-20(fp)
 180a55c:	10800017 	ldw	r2,0(r2)
 180a560:	10800817 	ldw	r2,32(r2)
 180a564:	1005003a 	cmpeq	r2,r2,zero
 180a568:	1000081e 	bne	r2,zero,180a58c <fstat+0x90>
    {
      return fd->dev->fstat(fd, st);
 180a56c:	e0bffb17 	ldw	r2,-20(fp)
 180a570:	10800017 	ldw	r2,0(r2)
 180a574:	10800817 	ldw	r2,32(r2)
 180a578:	e13ffb17 	ldw	r4,-20(fp)
 180a57c:	e17ffd17 	ldw	r5,-12(fp)
 180a580:	103ee83a 	callr	r2
 180a584:	e0bffe15 	stw	r2,-8(fp)
 180a588:	00000b06 	br	180a5b8 <fstat+0xbc>
     * device.
     */
 
    else
    {
      st->st_mode = _IFCHR;
 180a58c:	e0fffd17 	ldw	r3,-12(fp)
 180a590:	00880004 	movi	r2,8192
 180a594:	18800115 	stw	r2,4(r3)
      return 0;
 180a598:	e03ffe15 	stw	zero,-8(fp)
 180a59c:	00000606 	br	180a5b8 <fstat+0xbc>
    }
  }
  else
  {
    ALT_ERRNO = EBADFD;
 180a5a0:	180a5d00 	call	180a5d0 <alt_get_errno>
 180a5a4:	1007883a 	mov	r3,r2
 180a5a8:	00801444 	movi	r2,81
 180a5ac:	18800015 	stw	r2,0(r3)
    return -1;
 180a5b0:	00bfffc4 	movi	r2,-1
 180a5b4:	e0bffe15 	stw	r2,-8(fp)
 180a5b8:	e0bffe17 	ldw	r2,-8(fp)
  }
}
 180a5bc:	e037883a 	mov	sp,fp
 180a5c0:	dfc00117 	ldw	ra,4(sp)
 180a5c4:	df000017 	ldw	fp,0(sp)
 180a5c8:	dec00204 	addi	sp,sp,8
 180a5cc:	f800283a 	ret

0180a5d0 <alt_get_errno>:
#undef errno

extern int errno;

static ALT_INLINE int* alt_get_errno(void)
{
 180a5d0:	defffd04 	addi	sp,sp,-12
 180a5d4:	dfc00215 	stw	ra,8(sp)
 180a5d8:	df000115 	stw	fp,4(sp)
 180a5dc:	df000104 	addi	fp,sp,4
  return ((alt_errno) ? alt_errno() : &errno);
 180a5e0:	00806074 	movhi	r2,385
 180a5e4:	108c8204 	addi	r2,r2,12808
 180a5e8:	10800017 	ldw	r2,0(r2)
 180a5ec:	1005003a 	cmpeq	r2,r2,zero
 180a5f0:	1000061e 	bne	r2,zero,180a60c <alt_get_errno+0x3c>
 180a5f4:	00806074 	movhi	r2,385
 180a5f8:	108c8204 	addi	r2,r2,12808
 180a5fc:	10800017 	ldw	r2,0(r2)
 180a600:	103ee83a 	callr	r2
 180a604:	e0bfff15 	stw	r2,-4(fp)
 180a608:	00000306 	br	180a618 <alt_get_errno+0x48>
 180a60c:	00806074 	movhi	r2,385
 180a610:	108c9104 	addi	r2,r2,12868
 180a614:	e0bfff15 	stw	r2,-4(fp)
 180a618:	e0bfff17 	ldw	r2,-4(fp)
}
 180a61c:	e037883a 	mov	sp,fp
 180a620:	dfc00117 	ldw	ra,4(sp)
 180a624:	df000017 	ldw	fp,0(sp)
 180a628:	dec00204 	addi	sp,sp,8
 180a62c:	f800283a 	ret

0180a630 <isatty>:
 *
 * ALT_ISATTY is mapped onto the isatty() system call in alt_syscall.h
 */
 
int ALT_ISATTY (int file)
{
 180a630:	deffeb04 	addi	sp,sp,-84
 180a634:	dfc01415 	stw	ra,80(sp)
 180a638:	df001315 	stw	fp,76(sp)
 180a63c:	df001304 	addi	fp,sp,76
 180a640:	e13ffd15 	stw	r4,-12(fp)
   * A common error case is that when the file descriptor was created, the call
   * to open() failed resulting in a negative file descriptor. This is trapped
   * below so that we don't try and process an invalid file descriptor.
   */

  fd = (file < 0) ? NULL : &alt_fd_list[file];
 180a644:	e0bffd17 	ldw	r2,-12(fp)
 180a648:	1004803a 	cmplt	r2,r2,zero
 180a64c:	1000081e 	bne	r2,zero,180a670 <isatty+0x40>
 180a650:	e0bffd17 	ldw	r2,-12(fp)
 180a654:	10800324 	muli	r2,r2,12
 180a658:	1007883a 	mov	r3,r2
 180a65c:	00806074 	movhi	r2,385
 180a660:	10875004 	addi	r2,r2,7488
 180a664:	1887883a 	add	r3,r3,r2
 180a668:	e0ffff15 	stw	r3,-4(fp)
 180a66c:	00000106 	br	180a674 <isatty+0x44>
 180a670:	e03fff15 	stw	zero,-4(fp)
 180a674:	e0bfff17 	ldw	r2,-4(fp)
 180a678:	e0bfed15 	stw	r2,-76(fp)
  
  if (fd)
 180a67c:	e0bfed17 	ldw	r2,-76(fp)
 180a680:	1005003a 	cmpeq	r2,r2,zero
 180a684:	10000f1e 	bne	r2,zero,180a6c4 <isatty+0x94>
    /*
     * If a device driver does not provide an fstat() function, then it is 
     * treated as a terminal device by default.
     */

    if (!fd->dev->fstat)
 180a688:	e0bfed17 	ldw	r2,-76(fp)
 180a68c:	10800017 	ldw	r2,0(r2)
 180a690:	10800817 	ldw	r2,32(r2)
 180a694:	1004c03a 	cmpne	r2,r2,zero
 180a698:	1000031e 	bne	r2,zero,180a6a8 <isatty+0x78>
    {
      return 1;
 180a69c:	00800044 	movi	r2,1
 180a6a0:	e0bffe15 	stw	r2,-8(fp)
 180a6a4:	00000c06 	br	180a6d8 <isatty+0xa8>
     * this is called so that the device can identify itself.
     */ 

    else
    {
      fstat (file, &stat);
 180a6a8:	e17fee04 	addi	r5,fp,-72
 180a6ac:	e13ffd17 	ldw	r4,-12(fp)
 180a6b0:	180a4fc0 	call	180a4fc <fstat>
      return (stat.st_mode == _IFCHR) ? 1 : 0;
 180a6b4:	e0bfef17 	ldw	r2,-68(fp)
 180a6b8:	10880020 	cmpeqi	r2,r2,8192
 180a6bc:	e0bffe15 	stw	r2,-8(fp)
 180a6c0:	00000506 	br	180a6d8 <isatty+0xa8>
    }
  }
  else
  {
    ALT_ERRNO = EBADFD;
 180a6c4:	180a6f00 	call	180a6f0 <alt_get_errno>
 180a6c8:	1007883a 	mov	r3,r2
 180a6cc:	00801444 	movi	r2,81
 180a6d0:	18800015 	stw	r2,0(r3)
    return 0;
 180a6d4:	e03ffe15 	stw	zero,-8(fp)
 180a6d8:	e0bffe17 	ldw	r2,-8(fp)
  }
}
 180a6dc:	e037883a 	mov	sp,fp
 180a6e0:	dfc00117 	ldw	ra,4(sp)
 180a6e4:	df000017 	ldw	fp,0(sp)
 180a6e8:	dec00204 	addi	sp,sp,8
 180a6ec:	f800283a 	ret

0180a6f0 <alt_get_errno>:
#undef errno

extern int errno;

static ALT_INLINE int* alt_get_errno(void)
{
 180a6f0:	defffd04 	addi	sp,sp,-12
 180a6f4:	dfc00215 	stw	ra,8(sp)
 180a6f8:	df000115 	stw	fp,4(sp)
 180a6fc:	df000104 	addi	fp,sp,4
  return ((alt_errno) ? alt_errno() : &errno);
 180a700:	00806074 	movhi	r2,385
 180a704:	108c8204 	addi	r2,r2,12808
 180a708:	10800017 	ldw	r2,0(r2)
 180a70c:	1005003a 	cmpeq	r2,r2,zero
 180a710:	1000061e 	bne	r2,zero,180a72c <alt_get_errno+0x3c>
 180a714:	00806074 	movhi	r2,385
 180a718:	108c8204 	addi	r2,r2,12808
 180a71c:	10800017 	ldw	r2,0(r2)
 180a720:	103ee83a 	callr	r2
 180a724:	e0bfff15 	stw	r2,-4(fp)
 180a728:	00000306 	br	180a738 <alt_get_errno+0x48>
 180a72c:	00806074 	movhi	r2,385
 180a730:	108c9104 	addi	r2,r2,12868
 180a734:	e0bfff15 	stw	r2,-4(fp)
 180a738:	e0bfff17 	ldw	r2,-4(fp)
}
 180a73c:	e037883a 	mov	sp,fp
 180a740:	dfc00117 	ldw	ra,4(sp)
 180a744:	df000017 	ldw	fp,0(sp)
 180a748:	dec00204 	addi	sp,sp,8
 180a74c:	f800283a 	ret

0180a750 <lseek>:
 * ALT_LSEEK is mapped onto the lseek() system call in alt_syscall.h
 *
 */

off_t ALT_LSEEK (int file, off_t ptr, int dir)
{
 180a750:	defff804 	addi	sp,sp,-32
 180a754:	dfc00715 	stw	ra,28(sp)
 180a758:	df000615 	stw	fp,24(sp)
 180a75c:	df000604 	addi	fp,sp,24
 180a760:	e13ffc15 	stw	r4,-16(fp)
 180a764:	e17ffd15 	stw	r5,-12(fp)
 180a768:	e1bffe15 	stw	r6,-8(fp)
  alt_fd* fd;
  off_t   rc = 0; 
 180a76c:	e03ffa15 	stw	zero,-24(fp)
   * A common error case is that when the file descriptor was created, the call
   * to open() failed resulting in a negative file descriptor. This is trapped
   * below so that we don't try and process an invalid file descriptor.
   */

  fd = (file < 0) ? NULL : &alt_fd_list[file];
 180a770:	e0bffc17 	ldw	r2,-16(fp)
 180a774:	1004803a 	cmplt	r2,r2,zero
 180a778:	1000081e 	bne	r2,zero,180a79c <lseek+0x4c>
 180a77c:	e0bffc17 	ldw	r2,-16(fp)
 180a780:	10800324 	muli	r2,r2,12
 180a784:	1007883a 	mov	r3,r2
 180a788:	00806074 	movhi	r2,385
 180a78c:	10875004 	addi	r2,r2,7488
 180a790:	1887883a 	add	r3,r3,r2
 180a794:	e0ffff15 	stw	r3,-4(fp)
 180a798:	00000106 	br	180a7a0 <lseek+0x50>
 180a79c:	e03fff15 	stw	zero,-4(fp)
 180a7a0:	e0bfff17 	ldw	r2,-4(fp)
 180a7a4:	e0bffb15 	stw	r2,-20(fp)
  
  if (fd) 
 180a7a8:	e0bffb17 	ldw	r2,-20(fp)
 180a7ac:	1005003a 	cmpeq	r2,r2,zero
 180a7b0:	1000111e 	bne	r2,zero,180a7f8 <lseek+0xa8>
    /*
     * If the device driver provides an implementation of the lseek() function,
     * then call that to process the request.
     */
 
    if (fd->dev->lseek)
 180a7b4:	e0bffb17 	ldw	r2,-20(fp)
 180a7b8:	10800017 	ldw	r2,0(r2)
 180a7bc:	10800717 	ldw	r2,28(r2)
 180a7c0:	1005003a 	cmpeq	r2,r2,zero
 180a7c4:	1000091e 	bne	r2,zero,180a7ec <lseek+0x9c>
    {
      rc = fd->dev->lseek(fd, ptr, dir);
 180a7c8:	e0bffb17 	ldw	r2,-20(fp)
 180a7cc:	10800017 	ldw	r2,0(r2)
 180a7d0:	10800717 	ldw	r2,28(r2)
 180a7d4:	e13ffb17 	ldw	r4,-20(fp)
 180a7d8:	e17ffd17 	ldw	r5,-12(fp)
 180a7dc:	e1bffe17 	ldw	r6,-8(fp)
 180a7e0:	103ee83a 	callr	r2
 180a7e4:	e0bffa15 	stw	r2,-24(fp)
 180a7e8:	00000506 	br	180a800 <lseek+0xb0>
     * Otherwise return an error.
     */

    else
    {
      rc = -ENOTSUP;
 180a7ec:	00bfde84 	movi	r2,-134
 180a7f0:	e0bffa15 	stw	r2,-24(fp)
 180a7f4:	00000206 	br	180a800 <lseek+0xb0>
    }
  }
  else  
  {
    rc = -EBADFD;
 180a7f8:	00bfebc4 	movi	r2,-81
 180a7fc:	e0bffa15 	stw	r2,-24(fp)
  }

  if (rc < 0)
 180a800:	e0bffa17 	ldw	r2,-24(fp)
 180a804:	1004403a 	cmpge	r2,r2,zero
 180a808:	1000071e 	bne	r2,zero,180a828 <lseek+0xd8>
  {
    ALT_ERRNO = -rc;
 180a80c:	180a8400 	call	180a840 <alt_get_errno>
 180a810:	1007883a 	mov	r3,r2
 180a814:	e0bffa17 	ldw	r2,-24(fp)
 180a818:	0085c83a 	sub	r2,zero,r2
 180a81c:	18800015 	stw	r2,0(r3)
    rc = -1;
 180a820:	00bfffc4 	movi	r2,-1
 180a824:	e0bffa15 	stw	r2,-24(fp)
  }

  return rc;
 180a828:	e0bffa17 	ldw	r2,-24(fp)
}
 180a82c:	e037883a 	mov	sp,fp
 180a830:	dfc00117 	ldw	ra,4(sp)
 180a834:	df000017 	ldw	fp,0(sp)
 180a838:	dec00204 	addi	sp,sp,8
 180a83c:	f800283a 	ret

0180a840 <alt_get_errno>:
#undef errno

extern int errno;

static ALT_INLINE int* alt_get_errno(void)
{
 180a840:	defffd04 	addi	sp,sp,-12
 180a844:	dfc00215 	stw	ra,8(sp)
 180a848:	df000115 	stw	fp,4(sp)
 180a84c:	df000104 	addi	fp,sp,4
  return ((alt_errno) ? alt_errno() : &errno);
 180a850:	00806074 	movhi	r2,385
 180a854:	108c8204 	addi	r2,r2,12808
 180a858:	10800017 	ldw	r2,0(r2)
 180a85c:	1005003a 	cmpeq	r2,r2,zero
 180a860:	1000061e 	bne	r2,zero,180a87c <alt_get_errno+0x3c>
 180a864:	00806074 	movhi	r2,385
 180a868:	108c8204 	addi	r2,r2,12808
 180a86c:	10800017 	ldw	r2,0(r2)
 180a870:	103ee83a 	callr	r2
 180a874:	e0bfff15 	stw	r2,-4(fp)
 180a878:	00000306 	br	180a888 <alt_get_errno+0x48>
 180a87c:	00806074 	movhi	r2,385
 180a880:	108c9104 	addi	r2,r2,12868
 180a884:	e0bfff15 	stw	r2,-4(fp)
 180a888:	e0bfff17 	ldw	r2,-4(fp)
}
 180a88c:	e037883a 	mov	sp,fp
 180a890:	dfc00117 	ldw	ra,4(sp)
 180a894:	df000017 	ldw	fp,0(sp)
 180a898:	dec00204 	addi	sp,sp,8
 180a89c:	f800283a 	ret

0180a8a0 <alt_main>:
 * devices/filesystems/components in the system; and call the entry point for
 * the users application, i.e. main().
 */

void alt_main (void)
{
 180a8a0:	defffd04 	addi	sp,sp,-12
 180a8a4:	dfc00215 	stw	ra,8(sp)
 180a8a8:	df000115 	stw	fp,4(sp)
 180a8ac:	df000104 	addi	fp,sp,4
#endif

  /* ALT LOG - please see HAL/sys/alt_log_printf.h for details */
  ALT_LOG_PRINT_BOOT("[alt_main.c] Entering alt_main, calling alt_irq_init.\r\n");
  /* Initialize the interrupt controller. */
  alt_irq_init (NULL);
 180a8b0:	0009883a 	mov	r4,zero
 180a8b4:	180ad980 	call	180ad98 <alt_irq_init>
  ALT_LOG_PRINT_BOOT("[alt_main.c] Done OS Init, calling alt_sem_create.\r\n");
  ALT_SEM_CREATE (&alt_fd_list_lock, 1);

  /* Initialize the device drivers/software components. */
  ALT_LOG_PRINT_BOOT("[alt_main.c] Calling alt_sys_init.\r\n");
  alt_sys_init();
 180a8b8:	180adcc0 	call	180adcc <alt_sys_init>
   * devices be present (not equal to /dev/null) and if direct drivers
   * aren't being used.
   */

    ALT_LOG_PRINT_BOOT("[alt_main.c] Redirecting IO.\r\n");
    alt_io_redirect(ALT_STDOUT, ALT_STDIN, ALT_STDERR);
 180a8bc:	01006074 	movhi	r4,385
 180a8c0:	21048e04 	addi	r4,r4,4664
 180a8c4:	01406074 	movhi	r5,385
 180a8c8:	29448e04 	addi	r5,r5,4664
 180a8cc:	01806074 	movhi	r6,385
 180a8d0:	31848e04 	addi	r6,r6,4664
 180a8d4:	180f9880 	call	180f988 <alt_io_redirect>
  /* 
   * Call the C++ constructors 
   */

  ALT_LOG_PRINT_BOOT("[alt_main.c] Calling C++ constructors.\r\n");
  _do_ctors ();
 180a8d8:	180f4600 	call	180f460 <_do_ctors>
   * redefined as _exit()). This is in the interest of reducing code footprint,
   * in that the atexit() overhead is removed when it's not needed.
   */

  ALT_LOG_PRINT_BOOT("[alt_main.c] Calling atexit.\r\n");
  atexit (_do_dtors);
 180a8dc:	01006074 	movhi	r4,385
 180a8e0:	213d3104 	addi	r4,r4,-2876
 180a8e4:	1810a900 	call	1810a90 <atexit>
  ALT_LOG_PRINT_BOOT("[alt_main.c] Calling main.\r\n");

#ifdef ALT_NO_EXIT
  main (alt_argc, alt_argv, alt_envp);
#else
  result = main (alt_argc, alt_argv, alt_envp);
 180a8e8:	d1201b17 	ldw	r4,-32660(gp)
 180a8ec:	d1601c17 	ldw	r5,-32656(gp)
 180a8f0:	d1a01d17 	ldw	r6,-32652(gp)
 180a8f4:	18000480 	call	1800048 <main>
 180a8f8:	e0bfff15 	stw	r2,-4(fp)
  close(STDOUT_FILENO);
 180a8fc:	01000044 	movi	r4,1
 180a900:	180a3740 	call	180a374 <close>
  exit (result);
 180a904:	e13fff17 	ldw	r4,-4(fp)
 180a908:	1810aa40 	call	1810aa4 <exit>

0180a90c <__malloc_lock>:
 * configuration is single threaded, so there is nothing to do here. Note that 
 * this requires that malloc is never called by an interrupt service routine.
 */

void __malloc_lock ( struct _reent *_r )
{
 180a90c:	defffe04 	addi	sp,sp,-8
 180a910:	df000115 	stw	fp,4(sp)
 180a914:	df000104 	addi	fp,sp,4
 180a918:	e13fff15 	stw	r4,-4(fp)
}
 180a91c:	e037883a 	mov	sp,fp
 180a920:	df000017 	ldw	fp,0(sp)
 180a924:	dec00104 	addi	sp,sp,4
 180a928:	f800283a 	ret

0180a92c <__malloc_unlock>:
/*
 *
 */

void __malloc_unlock ( struct _reent *_r )
{
 180a92c:	defffe04 	addi	sp,sp,-8
 180a930:	df000115 	stw	fp,4(sp)
 180a934:	df000104 	addi	fp,sp,4
 180a938:	e13fff15 	stw	r4,-4(fp)
}
 180a93c:	e037883a 	mov	sp,fp
 180a940:	df000017 	ldw	fp,0(sp)
 180a944:	dec00104 	addi	sp,sp,4
 180a948:	f800283a 	ret

0180a94c <read>:
}

#else /* !ALT_USE_DIRECT_DRIVERS */

int ALT_READ (int file, void *ptr, size_t len)
{
 180a94c:	defff704 	addi	sp,sp,-36
 180a950:	dfc00815 	stw	ra,32(sp)
 180a954:	df000715 	stw	fp,28(sp)
 180a958:	df000704 	addi	fp,sp,28
 180a95c:	e13ffb15 	stw	r4,-20(fp)
 180a960:	e17ffc15 	stw	r5,-16(fp)
 180a964:	e1bffd15 	stw	r6,-12(fp)
   * A common error case is that when the file descriptor was created, the call
   * to open() failed resulting in a negative file descriptor. This is trapped
   * below so that we don't try and process an invalid file descriptor.
   */

  fd = (file < 0) ? NULL : &alt_fd_list[file];
 180a968:	e0bffb17 	ldw	r2,-20(fp)
 180a96c:	1004803a 	cmplt	r2,r2,zero
 180a970:	1000081e 	bne	r2,zero,180a994 <read+0x48>
 180a974:	e0bffb17 	ldw	r2,-20(fp)
 180a978:	10800324 	muli	r2,r2,12
 180a97c:	1007883a 	mov	r3,r2
 180a980:	00806074 	movhi	r2,385
 180a984:	10875004 	addi	r2,r2,7488
 180a988:	1887883a 	add	r3,r3,r2
 180a98c:	e0ffff15 	stw	r3,-4(fp)
 180a990:	00000106 	br	180a998 <read+0x4c>
 180a994:	e03fff15 	stw	zero,-4(fp)
 180a998:	e0bfff17 	ldw	r2,-4(fp)
 180a99c:	e0bffa15 	stw	r2,-24(fp)
  
  if (fd)
 180a9a0:	e0bffa17 	ldw	r2,-24(fp)
 180a9a4:	1005003a 	cmpeq	r2,r2,zero
 180a9a8:	1000241e 	bne	r2,zero,180aa3c <read+0xf0>
     * If the file has not been opened with read access, or if the driver does
     * not provide an implementation of read(), generate an error. Otherwise
     * call the drivers read() function to process the request.
     */

    if (((fd->fd_flags & O_ACCMODE) != O_WRONLY) && 
 180a9ac:	e0bffa17 	ldw	r2,-24(fp)
 180a9b0:	10800217 	ldw	r2,8(r2)
 180a9b4:	108000cc 	andi	r2,r2,3
 180a9b8:	10800060 	cmpeqi	r2,r2,1
 180a9bc:	10001a1e 	bne	r2,zero,180aa28 <read+0xdc>
 180a9c0:	e0bffa17 	ldw	r2,-24(fp)
 180a9c4:	10800017 	ldw	r2,0(r2)
 180a9c8:	10800517 	ldw	r2,20(r2)
 180a9cc:	1005003a 	cmpeq	r2,r2,zero
 180a9d0:	1000151e 	bne	r2,zero,180aa28 <read+0xdc>
        (fd->dev->read))
      {
        if ((rval = fd->dev->read(fd, ptr, len)) < 0)
 180a9d4:	e0bffa17 	ldw	r2,-24(fp)
 180a9d8:	10800017 	ldw	r2,0(r2)
 180a9dc:	10800517 	ldw	r2,20(r2)
 180a9e0:	e17ffc17 	ldw	r5,-16(fp)
 180a9e4:	e1bffd17 	ldw	r6,-12(fp)
 180a9e8:	e13ffa17 	ldw	r4,-24(fp)
 180a9ec:	103ee83a 	callr	r2
 180a9f0:	e0bff915 	stw	r2,-28(fp)
 180a9f4:	e0bff917 	ldw	r2,-28(fp)
 180a9f8:	1004403a 	cmpge	r2,r2,zero
 180a9fc:	1000071e 	bne	r2,zero,180aa1c <read+0xd0>
        {
          ALT_ERRNO = -rval;
 180aa00:	180aa6c0 	call	180aa6c <alt_get_errno>
 180aa04:	e0fff917 	ldw	r3,-28(fp)
 180aa08:	00c7c83a 	sub	r3,zero,r3
 180aa0c:	10c00015 	stw	r3,0(r2)
          return -1;
 180aa10:	00bfffc4 	movi	r2,-1
 180aa14:	e0bffe15 	stw	r2,-8(fp)
 180aa18:	00000e06 	br	180aa54 <read+0x108>
        }
        return rval;
 180aa1c:	e0bff917 	ldw	r2,-28(fp)
 180aa20:	e0bffe15 	stw	r2,-8(fp)
 180aa24:	00000b06 	br	180aa54 <read+0x108>
      }
      else
      {
        ALT_ERRNO = EACCES;
 180aa28:	180aa6c0 	call	180aa6c <alt_get_errno>
 180aa2c:	1007883a 	mov	r3,r2
 180aa30:	00800344 	movi	r2,13
 180aa34:	18800015 	stw	r2,0(r3)
 180aa38:	00000406 	br	180aa4c <read+0x100>
      }
    }
  else
  {
    ALT_ERRNO = EBADFD;
 180aa3c:	180aa6c0 	call	180aa6c <alt_get_errno>
 180aa40:	1007883a 	mov	r3,r2
 180aa44:	00801444 	movi	r2,81
 180aa48:	18800015 	stw	r2,0(r3)
  }
  return -1;
 180aa4c:	00bfffc4 	movi	r2,-1
 180aa50:	e0bffe15 	stw	r2,-8(fp)
 180aa54:	e0bffe17 	ldw	r2,-8(fp)
}
 180aa58:	e037883a 	mov	sp,fp
 180aa5c:	dfc00117 	ldw	ra,4(sp)
 180aa60:	df000017 	ldw	fp,0(sp)
 180aa64:	dec00204 	addi	sp,sp,8
 180aa68:	f800283a 	ret

0180aa6c <alt_get_errno>:
#undef errno

extern int errno;

static ALT_INLINE int* alt_get_errno(void)
{
 180aa6c:	defffd04 	addi	sp,sp,-12
 180aa70:	dfc00215 	stw	ra,8(sp)
 180aa74:	df000115 	stw	fp,4(sp)
 180aa78:	df000104 	addi	fp,sp,4
  return ((alt_errno) ? alt_errno() : &errno);
 180aa7c:	00806074 	movhi	r2,385
 180aa80:	108c8204 	addi	r2,r2,12808
 180aa84:	10800017 	ldw	r2,0(r2)
 180aa88:	1005003a 	cmpeq	r2,r2,zero
 180aa8c:	1000061e 	bne	r2,zero,180aaa8 <alt_get_errno+0x3c>
 180aa90:	00806074 	movhi	r2,385
 180aa94:	108c8204 	addi	r2,r2,12808
 180aa98:	10800017 	ldw	r2,0(r2)
 180aa9c:	103ee83a 	callr	r2
 180aaa0:	e0bfff15 	stw	r2,-4(fp)
 180aaa4:	00000306 	br	180aab4 <alt_get_errno+0x48>
 180aaa8:	00806074 	movhi	r2,385
 180aaac:	108c9104 	addi	r2,r2,12868
 180aab0:	e0bfff15 	stw	r2,-4(fp)
 180aab4:	e0bfff17 	ldw	r2,-4(fp)
}
 180aab8:	e037883a 	mov	sp,fp
 180aabc:	dfc00117 	ldw	ra,4(sp)
 180aac0:	df000017 	ldw	fp,0(sp)
 180aac4:	dec00204 	addi	sp,sp,8
 180aac8:	f800283a 	ret

0180aacc <alt_release_fd>:
 * File descriptors correcponding to standard in, standard out and standard 
 * error cannont be released backed to the pool. They are always reserved.
 */

void alt_release_fd (int fd)
{
 180aacc:	defffe04 	addi	sp,sp,-8
 180aad0:	df000115 	stw	fp,4(sp)
 180aad4:	df000104 	addi	fp,sp,4
 180aad8:	e13fff15 	stw	r4,-4(fp)
  if (fd > 2)
 180aadc:	e0bfff17 	ldw	r2,-4(fp)
 180aae0:	108000d0 	cmplti	r2,r2,3
 180aae4:	10000d1e 	bne	r2,zero,180ab1c <alt_release_fd+0x50>
  {
    alt_fd_list[fd].fd_flags = 0;
 180aae8:	e0bfff17 	ldw	r2,-4(fp)
 180aaec:	00c06074 	movhi	r3,385
 180aaf0:	18c75004 	addi	r3,r3,7488
 180aaf4:	10800324 	muli	r2,r2,12
 180aaf8:	10c5883a 	add	r2,r2,r3
 180aafc:	10800204 	addi	r2,r2,8
 180ab00:	10000015 	stw	zero,0(r2)
    alt_fd_list[fd].dev      = 0;
 180ab04:	e0bfff17 	ldw	r2,-4(fp)
 180ab08:	00c06074 	movhi	r3,385
 180ab0c:	18c75004 	addi	r3,r3,7488
 180ab10:	10800324 	muli	r2,r2,12
 180ab14:	10c5883a 	add	r2,r2,r3
 180ab18:	10000015 	stw	zero,0(r2)
  }
}
 180ab1c:	e037883a 	mov	sp,fp
 180ab20:	df000017 	ldw	fp,0(sp)
 180ab24:	dec00104 	addi	sp,sp,4
 180ab28:	f800283a 	ret

0180ab2c <sbrk>:
#endif
 
caddr_t ALT_SBRK (int incr) __attribute__ ((no_instrument_function ));

caddr_t ALT_SBRK (int incr)
{ 
 180ab2c:	defff804 	addi	sp,sp,-32
 180ab30:	df000715 	stw	fp,28(sp)
 180ab34:	df000704 	addi	fp,sp,28
 180ab38:	e13ffe15 	stw	r4,-8(fp)
static ALT_INLINE alt_irq_context ALT_ALWAYS_INLINE 
       alt_irq_disable_all (void)
{
  alt_irq_context context;

  NIOS2_READ_STATUS (context);
 180ab3c:	0005303a 	rdctl	r2,status
 180ab40:	e0bffb15 	stw	r2,-20(fp)

  NIOS2_WRITE_STATUS (context & ~NIOS2_STATUS_PIE_MSK);
 180ab44:	e0fffb17 	ldw	r3,-20(fp)
 180ab48:	00bfff84 	movi	r2,-2
 180ab4c:	1884703a 	and	r2,r3,r2
 180ab50:	1001703a 	wrctl	status,r2
  
  return context;
 180ab54:	e0bffb17 	ldw	r2,-20(fp)
  alt_irq_context context;
  char *prev_heap_end; 

  context = alt_irq_disable_all();
 180ab58:	e0bffd15 	stw	r2,-12(fp)

  /* Always return data aligned on a word boundary */
  heap_end = (char *)(((unsigned int)heap_end + 3) & ~3);
 180ab5c:	d0a00c17 	ldw	r2,-32720(gp)
 180ab60:	10c000c4 	addi	r3,r2,3
 180ab64:	00bfff04 	movi	r2,-4
 180ab68:	1884703a 	and	r2,r3,r2
 180ab6c:	d0a00c15 	stw	r2,-32720(gp)
  if (((heap_end + incr) - __alt_heap_start) > ALT_MAX_HEAP_BYTES) {
    alt_irq_enable_all(context);
    return (caddr_t)-1;
  }
#else
  if ((heap_end + incr) > __alt_heap_limit) {
 180ab70:	d0e00c17 	ldw	r3,-32720(gp)
 180ab74:	e0bffe17 	ldw	r2,-8(fp)
 180ab78:	1887883a 	add	r3,r3,r2
 180ab7c:	00808034 	movhi	r2,512
 180ab80:	10800004 	addi	r2,r2,0
 180ab84:	10c0072e 	bgeu	r2,r3,180aba4 <sbrk+0x78>
 180ab88:	e0bffd17 	ldw	r2,-12(fp)
 180ab8c:	e0bffa15 	stw	r2,-24(fp)
  status &= ~NIOS2_STATUS_PIE_MSK;
  status |= (context & NIOS2_STATUS_PIE_MSK);
  
  NIOS2_WRITE_STATUS (status);
#else
  NIOS2_WRITE_STATUS (context);
 180ab90:	e0bffa17 	ldw	r2,-24(fp)
 180ab94:	1001703a 	wrctl	status,r2
    alt_irq_enable_all(context);
    return (caddr_t)-1;
 180ab98:	00bfffc4 	movi	r2,-1
 180ab9c:	e0bfff15 	stw	r2,-4(fp)
 180aba0:	00000c06 	br	180abd4 <sbrk+0xa8>
  }
#endif

  prev_heap_end = heap_end; 
 180aba4:	d0a00c17 	ldw	r2,-32720(gp)
 180aba8:	e0bffc15 	stw	r2,-16(fp)
  heap_end += incr; 
 180abac:	d0e00c17 	ldw	r3,-32720(gp)
 180abb0:	e0bffe17 	ldw	r2,-8(fp)
 180abb4:	1885883a 	add	r2,r3,r2
 180abb8:	d0a00c15 	stw	r2,-32720(gp)
 180abbc:	e0bffd17 	ldw	r2,-12(fp)
 180abc0:	e0bff915 	stw	r2,-28(fp)
 180abc4:	e0bff917 	ldw	r2,-28(fp)
 180abc8:	1001703a 	wrctl	status,r2

#endif

  alt_irq_enable_all(context);

  return (caddr_t) prev_heap_end; 
 180abcc:	e0bffc17 	ldw	r2,-16(fp)
 180abd0:	e0bfff15 	stw	r2,-4(fp)
 180abd4:	e0bfff17 	ldw	r2,-4(fp)
} 
 180abd8:	e037883a 	mov	sp,fp
 180abdc:	df000017 	ldw	fp,0(sp)
 180abe0:	dec00104 	addi	sp,sp,4
 180abe4:	f800283a 	ret

0180abe8 <usleep>:
#if defined (__GNUC__) && __GNUC__ >= 4
int ALT_USLEEP (useconds_t us)
#else
unsigned int ALT_USLEEP (unsigned int us)
#endif
{
 180abe8:	defffd04 	addi	sp,sp,-12
 180abec:	dfc00215 	stw	ra,8(sp)
 180abf0:	df000115 	stw	fp,4(sp)
 180abf4:	df000104 	addi	fp,sp,4
 180abf8:	e13fff15 	stw	r4,-4(fp)
  return alt_busy_sleep(us);
 180abfc:	e13fff17 	ldw	r4,-4(fp)
 180ac00:	180f1a80 	call	180f1a8 <alt_busy_sleep>
}
 180ac04:	e037883a 	mov	sp,fp
 180ac08:	dfc00117 	ldw	ra,4(sp)
 180ac0c:	df000017 	ldw	fp,0(sp)
 180ac10:	dec00204 	addi	sp,sp,8
 180ac14:	f800283a 	ret

0180ac18 <write>:
}

#else /* !ALT_USE_DIRECT_DRIVERS */

int ALT_WRITE (int file, const void *ptr, size_t len)
{
 180ac18:	defff704 	addi	sp,sp,-36
 180ac1c:	dfc00815 	stw	ra,32(sp)
 180ac20:	df000715 	stw	fp,28(sp)
 180ac24:	df000704 	addi	fp,sp,28
 180ac28:	e13ffb15 	stw	r4,-20(fp)
 180ac2c:	e17ffc15 	stw	r5,-16(fp)
 180ac30:	e1bffd15 	stw	r6,-12(fp)
   * A common error case is that when the file descriptor was created, the call
   * to open() failed resulting in a negative file descriptor. This is trapped
   * below so that we don't try and process an invalid file descriptor.
   */

  fd = (file < 0) ? NULL : &alt_fd_list[file];
 180ac34:	e0bffb17 	ldw	r2,-20(fp)
 180ac38:	1004803a 	cmplt	r2,r2,zero
 180ac3c:	1000081e 	bne	r2,zero,180ac60 <write+0x48>
 180ac40:	e0bffb17 	ldw	r2,-20(fp)
 180ac44:	10800324 	muli	r2,r2,12
 180ac48:	1007883a 	mov	r3,r2
 180ac4c:	00806074 	movhi	r2,385
 180ac50:	10875004 	addi	r2,r2,7488
 180ac54:	1887883a 	add	r3,r3,r2
 180ac58:	e0ffff15 	stw	r3,-4(fp)
 180ac5c:	00000106 	br	180ac64 <write+0x4c>
 180ac60:	e03fff15 	stw	zero,-4(fp)
 180ac64:	e0bfff17 	ldw	r2,-4(fp)
 180ac68:	e0bffa15 	stw	r2,-24(fp)
  
  if (fd)
 180ac6c:	e0bffa17 	ldw	r2,-24(fp)
 180ac70:	1005003a 	cmpeq	r2,r2,zero
 180ac74:	1000241e 	bne	r2,zero,180ad08 <write+0xf0>
     * If the file has not been opened with write access, or if the driver does
     * not provide an implementation of write(), generate an error. Otherwise
     * call the drivers write() function to process the request.
     */

    if (((fd->fd_flags & O_ACCMODE) != O_RDONLY) && fd->dev->write)
 180ac78:	e0bffa17 	ldw	r2,-24(fp)
 180ac7c:	10800217 	ldw	r2,8(r2)
 180ac80:	108000cc 	andi	r2,r2,3
 180ac84:	1005003a 	cmpeq	r2,r2,zero
 180ac88:	10001a1e 	bne	r2,zero,180acf4 <write+0xdc>
 180ac8c:	e0bffa17 	ldw	r2,-24(fp)
 180ac90:	10800017 	ldw	r2,0(r2)
 180ac94:	10800617 	ldw	r2,24(r2)
 180ac98:	1005003a 	cmpeq	r2,r2,zero
 180ac9c:	1000151e 	bne	r2,zero,180acf4 <write+0xdc>
    {
      
      /* ALT_LOG - see altera_hal/HAL/inc/sys/alt_log_printf.h */
      ALT_LOG_WRITE_FUNCTION(ptr,len);

      if ((rval = fd->dev->write(fd, ptr, len)) < 0)
 180aca0:	e0bffa17 	ldw	r2,-24(fp)
 180aca4:	10800017 	ldw	r2,0(r2)
 180aca8:	10800617 	ldw	r2,24(r2)
 180acac:	e17ffc17 	ldw	r5,-16(fp)
 180acb0:	e1bffd17 	ldw	r6,-12(fp)
 180acb4:	e13ffa17 	ldw	r4,-24(fp)
 180acb8:	103ee83a 	callr	r2
 180acbc:	e0bff915 	stw	r2,-28(fp)
 180acc0:	e0bff917 	ldw	r2,-28(fp)
 180acc4:	1004403a 	cmpge	r2,r2,zero
 180acc8:	1000071e 	bne	r2,zero,180ace8 <write+0xd0>
      {
        ALT_ERRNO = -rval;
 180accc:	180ad380 	call	180ad38 <alt_get_errno>
 180acd0:	e0fff917 	ldw	r3,-28(fp)
 180acd4:	00c7c83a 	sub	r3,zero,r3
 180acd8:	10c00015 	stw	r3,0(r2)
        return -1;
 180acdc:	00bfffc4 	movi	r2,-1
 180ace0:	e0bffe15 	stw	r2,-8(fp)
 180ace4:	00000e06 	br	180ad20 <write+0x108>
      }
      return rval;
 180ace8:	e0bff917 	ldw	r2,-28(fp)
 180acec:	e0bffe15 	stw	r2,-8(fp)
 180acf0:	00000b06 	br	180ad20 <write+0x108>
    }
    else
    {
      ALT_ERRNO = EACCES;
 180acf4:	180ad380 	call	180ad38 <alt_get_errno>
 180acf8:	1007883a 	mov	r3,r2
 180acfc:	00800344 	movi	r2,13
 180ad00:	18800015 	stw	r2,0(r3)
 180ad04:	00000406 	br	180ad18 <write+0x100>
    }
  }
  else  
  {
    ALT_ERRNO = EBADFD;
 180ad08:	180ad380 	call	180ad38 <alt_get_errno>
 180ad0c:	1007883a 	mov	r3,r2
 180ad10:	00801444 	movi	r2,81
 180ad14:	18800015 	stw	r2,0(r3)
  }
  return -1;
 180ad18:	00bfffc4 	movi	r2,-1
 180ad1c:	e0bffe15 	stw	r2,-8(fp)
 180ad20:	e0bffe17 	ldw	r2,-8(fp)
}
 180ad24:	e037883a 	mov	sp,fp
 180ad28:	dfc00117 	ldw	ra,4(sp)
 180ad2c:	df000017 	ldw	fp,0(sp)
 180ad30:	dec00204 	addi	sp,sp,8
 180ad34:	f800283a 	ret

0180ad38 <alt_get_errno>:
#undef errno

extern int errno;

static ALT_INLINE int* alt_get_errno(void)
{
 180ad38:	defffd04 	addi	sp,sp,-12
 180ad3c:	dfc00215 	stw	ra,8(sp)
 180ad40:	df000115 	stw	fp,4(sp)
 180ad44:	df000104 	addi	fp,sp,4
  return ((alt_errno) ? alt_errno() : &errno);
 180ad48:	00806074 	movhi	r2,385
 180ad4c:	108c8204 	addi	r2,r2,12808
 180ad50:	10800017 	ldw	r2,0(r2)
 180ad54:	1005003a 	cmpeq	r2,r2,zero
 180ad58:	1000061e 	bne	r2,zero,180ad74 <alt_get_errno+0x3c>
 180ad5c:	00806074 	movhi	r2,385
 180ad60:	108c8204 	addi	r2,r2,12808
 180ad64:	10800017 	ldw	r2,0(r2)
 180ad68:	103ee83a 	callr	r2
 180ad6c:	e0bfff15 	stw	r2,-4(fp)
 180ad70:	00000306 	br	180ad80 <alt_get_errno+0x48>
 180ad74:	00806074 	movhi	r2,385
 180ad78:	108c9104 	addi	r2,r2,12868
 180ad7c:	e0bfff15 	stw	r2,-4(fp)
 180ad80:	e0bfff17 	ldw	r2,-4(fp)
}
 180ad84:	e037883a 	mov	sp,fp
 180ad88:	dfc00117 	ldw	ra,4(sp)
 180ad8c:	df000017 	ldw	fp,0(sp)
 180ad90:	dec00204 	addi	sp,sp,8
 180ad94:	f800283a 	ret

0180ad98 <alt_irq_init>:
 * The "base" parameter is ignored and only
 * present for backwards-compatibility.
 */

void alt_irq_init ( const void* base )
{
 180ad98:	defffd04 	addi	sp,sp,-12
 180ad9c:	dfc00215 	stw	ra,8(sp)
 180ada0:	df000115 	stw	fp,4(sp)
 180ada4:	df000104 	addi	fp,sp,4
 180ada8:	e13fff15 	stw	r4,-4(fp)
    ALTERA_NIOS2_IRQ_INIT ( CPU, cpu);
 180adac:	180fe680 	call	180fe68 <altera_nios2_irq_init>
 * alt_irq_cpu_enable_interrupts() enables the CPU to start taking interrupts.
 */
static ALT_INLINE void ALT_ALWAYS_INLINE 
       alt_irq_cpu_enable_interrupts ()
{
    NIOS2_WRITE_STATUS(NIOS2_STATUS_PIE_MSK
 180adb0:	00800044 	movi	r2,1
 180adb4:	1001703a 	wrctl	status,r2
    alt_irq_cpu_enable_interrupts();
}
 180adb8:	e037883a 	mov	sp,fp
 180adbc:	dfc00117 	ldw	ra,4(sp)
 180adc0:	df000017 	ldw	fp,0(sp)
 180adc4:	dec00204 	addi	sp,sp,8
 180adc8:	f800283a 	ret

0180adcc <alt_sys_init>:
 * Initialize the non-interrupt controller devices.
 * Called after alt_irq_init().
 */

void alt_sys_init( void )
{
 180adcc:	defffe04 	addi	sp,sp,-8
 180add0:	dfc00115 	stw	ra,4(sp)
 180add4:	df000015 	stw	fp,0(sp)
 180add8:	d839883a 	mov	fp,sp
    ALTERA_AVALON_TIMER_INIT ( PROFILE_TIMER, profile_timer);
 180addc:	0009883a 	mov	r4,zero
 180ade0:	000b883a 	mov	r5,zero
 180ade4:	01800144 	movi	r6,5
 180ade8:	01d38804 	movi	r7,20000
 180adec:	180e6140 	call	180e614 <alt_avalon_timer_sc_init>
    ALTERA_AVALON_TIMER_INIT ( TIMER, timer);
    ALTERA_AVALON_TIMER_INIT ( USER_TIMER, user_timer);
    ALTERA_AVALON_CFI_FLASH_INIT ( CFI_FLASH, cfi_flash);
 180adf0:	01006074 	movhi	r4,385
 180adf4:	2107b004 	addi	r4,r4,7872
 180adf8:	180aea00 	call	180aea0 <alt_flash_cfi_init>
    ALTERA_AVALON_JTAG_UART_INIT ( JTAG_UART, jtag_uart);
 180adfc:	01006074 	movhi	r4,385
 180ae00:	2107f004 	addi	r4,r4,8128
 180ae04:	000b883a 	mov	r5,zero
 180ae08:	000d883a 	mov	r6,zero
 180ae0c:	180cd080 	call	180cd08 <altera_avalon_jtag_uart_init>
 180ae10:	01006074 	movhi	r4,385
 180ae14:	2107e604 	addi	r4,r4,8088
 180ae18:	180ae680 	call	180ae68 <alt_dev_reg>
    ALTERA_AVALON_LCD_16207_INIT ( LCD, lcd);
 180ae1c:	01006074 	movhi	r4,385
 180ae20:	210c0804 	addi	r4,r4,12320
 180ae24:	180e4100 	call	180e410 <altera_avalon_lcd_16207_init>
 180ae28:	01006074 	movhi	r4,385
 180ae2c:	210bfe04 	addi	r4,r4,12280
 180ae30:	180ae680 	call	180ae68 <alt_dev_reg>
    ALTERA_AVALON_SYSID_INIT ( SYSID, sysid);
    ALTERA_AVALON_UART_INIT ( UART, uart);
 180ae34:	01006074 	movhi	r4,385
 180ae38:	210c5004 	addi	r4,r4,12608
 180ae3c:	000b883a 	mov	r5,zero
 180ae40:	01800044 	movi	r6,1
 180ae44:	180e79c0 	call	180e79c <altera_avalon_uart_init>
 180ae48:	01006074 	movhi	r4,385
 180ae4c:	210c4604 	addi	r4,r4,12568
 180ae50:	180ae680 	call	180ae68 <alt_dev_reg>
}
 180ae54:	e037883a 	mov	sp,fp
 180ae58:	dfc00117 	ldw	ra,4(sp)
 180ae5c:	df000017 	ldw	fp,0(sp)
 180ae60:	dec00204 	addi	sp,sp,8
 180ae64:	f800283a 	ret

0180ae68 <alt_dev_reg>:
 */

extern int alt_fs_reg  (alt_dev* dev); 

static ALT_INLINE int alt_dev_reg (alt_dev* dev)
{
 180ae68:	defffd04 	addi	sp,sp,-12
 180ae6c:	dfc00215 	stw	ra,8(sp)
 180ae70:	df000115 	stw	fp,4(sp)
 180ae74:	df000104 	addi	fp,sp,4
 180ae78:	e13fff15 	stw	r4,-4(fp)
  extern alt_llist alt_dev_list;

  return alt_dev_llist_insert ((alt_dev_llist*) dev, &alt_dev_list);
 180ae7c:	e13fff17 	ldw	r4,-4(fp)
 180ae80:	01406074 	movhi	r5,385
 180ae84:	294c7f04 	addi	r5,r5,12796
 180ae88:	180f34c0 	call	180f34c <alt_dev_llist_insert>
}
 180ae8c:	e037883a 	mov	sp,fp
 180ae90:	dfc00117 	ldw	ra,4(sp)
 180ae94:	df000017 	ldw	fp,0(sp)
 180ae98:	dec00204 	addi	sp,sp,8
 180ae9c:	f800283a 	ret

0180aea0 <alt_flash_cfi_init>:
 * Read the CFI table and fill out the alt_flash_cfi_dev structure with all the 
 * information we need to program the flash.
 * 
 */
int alt_flash_cfi_init( alt_flash_cfi_dev* flash  )
{
 180aea0:	defffc04 	addi	sp,sp,-16
 180aea4:	dfc00315 	stw	ra,12(sp)
 180aea8:	df000215 	stw	fp,8(sp)
 180aeac:	df000204 	addi	fp,sp,8
 180aeb0:	e13fff15 	stw	r4,-4(fp)
  int ret_code = 0;
 180aeb4:	e03ffe15 	stw	zero,-8(fp)
 
  ret_code = alt_read_cfi_width( flash );
 180aeb8:	e13fff17 	ldw	r4,-4(fp)
 180aebc:	180c3380 	call	180c338 <alt_read_cfi_width>
 180aec0:	e0bffe15 	stw	r2,-8(fp)
  
  if (!ret_code)
 180aec4:	e0bffe17 	ldw	r2,-8(fp)
 180aec8:	1004c03a 	cmpne	r2,r2,zero
 180aecc:	1000031e 	bne	r2,zero,180aedc <alt_flash_cfi_init+0x3c>
    ret_code = alt_set_flash_width_func( flash );
 180aed0:	e13fff17 	ldw	r4,-4(fp)
 180aed4:	180bab00 	call	180bab0 <alt_set_flash_width_func>
 180aed8:	e0bffe15 	stw	r2,-8(fp)
  
  if (!ret_code)
 180aedc:	e0bffe17 	ldw	r2,-8(fp)
 180aee0:	1004c03a 	cmpne	r2,r2,zero
 180aee4:	1000031e 	bne	r2,zero,180aef4 <alt_flash_cfi_init+0x54>
    ret_code = alt_read_cfi_table( flash );
 180aee8:	e13fff17 	ldw	r4,-4(fp)
 180aeec:	180bdb80 	call	180bdb8 <alt_read_cfi_table>
 180aef0:	e0bffe15 	stw	r2,-8(fp)

  if (!ret_code) 
 180aef4:	e0bffe17 	ldw	r2,-8(fp)
 180aef8:	1004c03a 	cmpne	r2,r2,zero
 180aefc:	1000031e 	bne	r2,zero,180af0c <alt_flash_cfi_init+0x6c>
    ret_code = alt_set_flash_algorithm_func( flash);
 180af00:	e13fff17 	ldw	r4,-4(fp)
 180af04:	180bc900 	call	180bc90 <alt_set_flash_algorithm_func>
 180af08:	e0bffe15 	stw	r2,-8(fp)

  /*
  *  Register this device as a valid flash device type
  */ 
  if (!ret_code)
 180af0c:	e0bffe17 	ldw	r2,-8(fp)
 180af10:	1004c03a 	cmpne	r2,r2,zero
 180af14:	1000031e 	bne	r2,zero,180af24 <alt_flash_cfi_init+0x84>
    ret_code = alt_flash_device_register(&(flash->dev));
 180af18:	e13fff17 	ldw	r4,-4(fp)
 180af1c:	180af3c0 	call	180af3c <alt_flash_device_register>
 180af20:	e0bffe15 	stw	r2,-8(fp)
 
  return ret_code;
 180af24:	e0bffe17 	ldw	r2,-8(fp)
}
 180af28:	e037883a 	mov	sp,fp
 180af2c:	dfc00117 	ldw	ra,4(sp)
 180af30:	df000017 	ldw	fp,0(sp)
 180af34:	dec00204 	addi	sp,sp,8
 180af38:	f800283a 	ret

0180af3c <alt_flash_device_register>:

typedef struct alt_flash_dev alt_flash_dev; 
typedef alt_flash_dev alt_flash_fd;

static ALT_INLINE int alt_flash_device_register( alt_flash_fd* fd)
{
 180af3c:	defffd04 	addi	sp,sp,-12
 180af40:	dfc00215 	stw	ra,8(sp)
 180af44:	df000115 	stw	fp,4(sp)
 180af48:	df000104 	addi	fp,sp,4
 180af4c:	e13fff15 	stw	r4,-4(fp)
  extern alt_llist alt_flash_dev_list;

  return alt_dev_llist_insert ((alt_dev_llist*) fd, &alt_flash_dev_list);
 180af50:	e13fff17 	ldw	r4,-4(fp)
 180af54:	01406074 	movhi	r5,385
 180af58:	294c8504 	addi	r5,r5,12820
 180af5c:	180f34c0 	call	180f34c <alt_dev_llist_insert>
}
 180af60:	e037883a 	mov	sp,fp
 180af64:	dfc00117 	ldw	ra,4(sp)
 180af68:	df000017 	ldw	fp,0(sp)
 180af6c:	dec00204 	addi	sp,sp,8
 180af70:	f800283a 	ret

0180af74 <alt_flash_cfi_write>:
 * large buffer to tie up in our programming library, when not all users will 
 * want that functionality.
 */
 int alt_flash_cfi_write( alt_flash_dev* flash_info, int offset, 
                          const void* src_addr, int length )
 {
 180af74:	deffef04 	addi	sp,sp,-68
 180af78:	dfc01015 	stw	ra,64(sp)
 180af7c:	df000f15 	stw	fp,60(sp)
 180af80:	df000f04 	addi	fp,sp,60
 180af84:	e13ffa15 	stw	r4,-24(fp)
 180af88:	e17ffb15 	stw	r5,-20(fp)
 180af8c:	e1bffc15 	stw	r6,-16(fp)
 180af90:	e1fffd15 	stw	r7,-12(fp)
  int         ret_code = 0;
 180af94:	e03ff915 	stw	zero,-28(fp)
  int         i,j;
  int         data_to_write;
  int         full_length = length;
 180af98:	e0bffd17 	ldw	r2,-12(fp)
 180af9c:	e0bff515 	stw	r2,-44(fp)
  int         current_offset;
  int         start_offset = offset;
 180afa0:	e0bffb17 	ldw	r2,-20(fp)
 180afa4:	e0bff315 	stw	r2,-52(fp)
  alt_flash_cfi_dev* flash = (alt_flash_cfi_dev*)flash_info;
 180afa8:	e0bffa17 	ldw	r2,-24(fp)
 180afac:	e0bff215 	stw	r2,-56(fp)

  /*
   * First and foremost which sectors are affected?
   */   
  for(i=0;i<flash->dev.number_of_regions;i++)
 180afb0:	e03ff815 	stw	zero,-32(fp)
 180afb4:	00008e06 	br	180b1f0 <alt_flash_cfi_write+0x27c>
  {
    /* Is it in this erase block region?*/
    if((offset >= flash->dev.region_info[i].offset) &&
 180afb8:	e0bff817 	ldw	r2,-32(fp)
 180afbc:	e0fff217 	ldw	r3,-56(fp)
 180afc0:	1004913a 	slli	r2,r2,4
 180afc4:	10c5883a 	add	r2,r2,r3
 180afc8:	10800d04 	addi	r2,r2,52
 180afcc:	10c00017 	ldw	r3,0(r2)
 180afd0:	e0bffb17 	ldw	r2,-20(fp)
 180afd4:	10c08316 	blt	r2,r3,180b1e4 <alt_flash_cfi_write+0x270>
 180afd8:	e0bff817 	ldw	r2,-32(fp)
 180afdc:	e0fff217 	ldw	r3,-56(fp)
 180afe0:	1004913a 	slli	r2,r2,4
 180afe4:	10c5883a 	add	r2,r2,r3
 180afe8:	10800d04 	addi	r2,r2,52
 180afec:	11000017 	ldw	r4,0(r2)
 180aff0:	e0bff817 	ldw	r2,-32(fp)
 180aff4:	e0fff217 	ldw	r3,-56(fp)
 180aff8:	1004913a 	slli	r2,r2,4
 180affc:	10c5883a 	add	r2,r2,r3
 180b000:	10800e04 	addi	r2,r2,56
 180b004:	10800017 	ldw	r2,0(r2)
 180b008:	2087883a 	add	r3,r4,r2
 180b00c:	e0bffb17 	ldw	r2,-20(fp)
 180b010:	10c0740e 	bge	r2,r3,180b1e4 <alt_flash_cfi_write+0x270>
      (offset < (flash->dev.region_info[i].offset + 
      flash->dev.region_info[i].region_size)))
    {
      current_offset = flash->dev.region_info[i].offset;
 180b014:	e0bff817 	ldw	r2,-32(fp)
 180b018:	e0fff217 	ldw	r3,-56(fp)
 180b01c:	1004913a 	slli	r2,r2,4
 180b020:	10c5883a 	add	r2,r2,r3
 180b024:	10800d04 	addi	r2,r2,52
 180b028:	10800017 	ldw	r2,0(r2)
 180b02c:	e0bff415 	stw	r2,-48(fp)

      for(j=0;j<flash->dev.region_info[i].number_of_blocks;j++)
 180b030:	e03ff715 	stw	zero,-36(fp)
 180b034:	00006306 	br	180b1c4 <alt_flash_cfi_write+0x250>
      {
        if ((offset >= current_offset ) && 
 180b038:	e0fffb17 	ldw	r3,-20(fp)
 180b03c:	e0bff417 	ldw	r2,-48(fp)
 180b040:	18805416 	blt	r3,r2,180b194 <alt_flash_cfi_write+0x220>
 180b044:	e0bff817 	ldw	r2,-32(fp)
 180b048:	e0fff217 	ldw	r3,-56(fp)
 180b04c:	1004913a 	slli	r2,r2,4
 180b050:	10c5883a 	add	r2,r2,r3
 180b054:	10801004 	addi	r2,r2,64
 180b058:	10c00017 	ldw	r3,0(r2)
 180b05c:	e0bff417 	ldw	r2,-48(fp)
 180b060:	1887883a 	add	r3,r3,r2
 180b064:	e0bffb17 	ldw	r2,-20(fp)
 180b068:	10c04a0e 	bge	r2,r3,180b194 <alt_flash_cfi_write+0x220>
        {
          /*
           * Check if the contents of the block are different
           * from the data we wish to put there
           */
          data_to_write = ( current_offset + flash->dev.region_info[i].block_size 
 180b06c:	e0bff817 	ldw	r2,-32(fp)
 180b070:	e0fff217 	ldw	r3,-56(fp)
 180b074:	1004913a 	slli	r2,r2,4
 180b078:	10c5883a 	add	r2,r2,r3
 180b07c:	10801004 	addi	r2,r2,64
 180b080:	10c00017 	ldw	r3,0(r2)
 180b084:	e0bff417 	ldw	r2,-48(fp)
 180b088:	1887883a 	add	r3,r3,r2
 180b08c:	e0bffb17 	ldw	r2,-20(fp)
 180b090:	1885c83a 	sub	r2,r3,r2
 180b094:	e0bff615 	stw	r2,-40(fp)
                            - offset); 
          data_to_write = MIN(data_to_write, length);
 180b098:	e0bff617 	ldw	r2,-40(fp)
 180b09c:	e0bfff15 	stw	r2,-4(fp)
 180b0a0:	e0fffd17 	ldw	r3,-12(fp)
 180b0a4:	e0fffe15 	stw	r3,-8(fp)
 180b0a8:	e0bfff17 	ldw	r2,-4(fp)
 180b0ac:	e0fffe17 	ldw	r3,-8(fp)
 180b0b0:	10c0020e 	bge	r2,r3,180b0bc <alt_flash_cfi_write+0x148>
 180b0b4:	e0bfff17 	ldw	r2,-4(fp)
 180b0b8:	e0bffe15 	stw	r2,-8(fp)
 180b0bc:	e0fffe17 	ldw	r3,-8(fp)
 180b0c0:	e0fff615 	stw	r3,-40(fp)
          if(memcmp(src_addr, 
 180b0c4:	e0bff217 	ldw	r2,-56(fp)
 180b0c8:	10800a17 	ldw	r2,40(r2)
 180b0cc:	1007883a 	mov	r3,r2
 180b0d0:	e0bffb17 	ldw	r2,-20(fp)
 180b0d4:	188b883a 	add	r5,r3,r2
 180b0d8:	e1bff617 	ldw	r6,-40(fp)
 180b0dc:	e13ffc17 	ldw	r4,-16(fp)
 180b0e0:	1810adc0 	call	1810adc <memcmp>
 180b0e4:	1005003a 	cmpeq	r2,r2,zero
 180b0e8:	1000131e 	bne	r2,zero,180b138 <alt_flash_cfi_write+0x1c4>
                    (alt_u8*)flash->dev.base_addr+offset,
                    data_to_write))
          {
            ret_code = (*flash->dev.erase_block)( &flash->dev, current_offset);
 180b0ec:	e0bff217 	ldw	r2,-56(fp)
 180b0f0:	10800817 	ldw	r2,32(r2)
 180b0f4:	e13ff217 	ldw	r4,-56(fp)
 180b0f8:	e17ff417 	ldw	r5,-48(fp)
 180b0fc:	103ee83a 	callr	r2
 180b100:	e0bff915 	stw	r2,-28(fp)

            if (!ret_code)
 180b104:	e0bff917 	ldw	r2,-28(fp)
 180b108:	1004c03a 	cmpne	r2,r2,zero
 180b10c:	10000a1e 	bne	r2,zero,180b138 <alt_flash_cfi_write+0x1c4>
            {
              ret_code = (*flash->dev.write_block)( 
 180b110:	e0bff217 	ldw	r2,-56(fp)
 180b114:	10c00917 	ldw	r3,36(r2)
 180b118:	e13ff217 	ldw	r4,-56(fp)
 180b11c:	e0bff617 	ldw	r2,-40(fp)
 180b120:	d8800015 	stw	r2,0(sp)
 180b124:	e17ff417 	ldw	r5,-48(fp)
 180b128:	e1bffb17 	ldw	r6,-20(fp)
 180b12c:	e1fffc17 	ldw	r7,-16(fp)
 180b130:	183ee83a 	callr	r3
 180b134:	e0bff915 	stw	r2,-28(fp)
                                                  data_to_write);
            }
          }    
    
          /* Was this the last block? */    
          if ((length == data_to_write) || ret_code)
 180b138:	e0fffd17 	ldw	r3,-12(fp)
 180b13c:	e0bff617 	ldw	r2,-40(fp)
 180b140:	18802f26 	beq	r3,r2,180b200 <alt_flash_cfi_write+0x28c>
 180b144:	e0bff917 	ldw	r2,-28(fp)
 180b148:	1004c03a 	cmpne	r2,r2,zero
 180b14c:	10002c1e 	bne	r2,zero,180b200 <alt_flash_cfi_write+0x28c>
          {
            goto finished;
          }
          
          length -= data_to_write;
 180b150:	e0fffd17 	ldw	r3,-12(fp)
 180b154:	e0bff617 	ldw	r2,-40(fp)
 180b158:	1885c83a 	sub	r2,r3,r2
 180b15c:	e0bffd15 	stw	r2,-12(fp)
          offset = current_offset + flash->dev.region_info[i].block_size;
 180b160:	e0bff817 	ldw	r2,-32(fp)
 180b164:	e0fff217 	ldw	r3,-56(fp)
 180b168:	1004913a 	slli	r2,r2,4
 180b16c:	10c5883a 	add	r2,r2,r3
 180b170:	10801004 	addi	r2,r2,64
 180b174:	10c00017 	ldw	r3,0(r2)
 180b178:	e0bff417 	ldw	r2,-48(fp)
 180b17c:	1885883a 	add	r2,r3,r2
 180b180:	e0bffb15 	stw	r2,-20(fp)
          src_addr = (alt_u8*)src_addr + data_to_write;
 180b184:	e0fffc17 	ldw	r3,-16(fp)
 180b188:	e0bff617 	ldw	r2,-40(fp)
 180b18c:	1885883a 	add	r2,r3,r2
 180b190:	e0bffc15 	stw	r2,-16(fp)
        }
        current_offset += flash->dev.region_info[i].block_size;
 180b194:	e0bff817 	ldw	r2,-32(fp)
 180b198:	e0fff217 	ldw	r3,-56(fp)
 180b19c:	1004913a 	slli	r2,r2,4
 180b1a0:	10c5883a 	add	r2,r2,r3
 180b1a4:	10801004 	addi	r2,r2,64
 180b1a8:	10c00017 	ldw	r3,0(r2)
 180b1ac:	e0bff417 	ldw	r2,-48(fp)
 180b1b0:	10c5883a 	add	r2,r2,r3
 180b1b4:	e0bff415 	stw	r2,-48(fp)
      (offset < (flash->dev.region_info[i].offset + 
      flash->dev.region_info[i].region_size)))
    {
      current_offset = flash->dev.region_info[i].offset;

      for(j=0;j<flash->dev.region_info[i].number_of_blocks;j++)
 180b1b8:	e0bff717 	ldw	r2,-36(fp)
 180b1bc:	10800044 	addi	r2,r2,1
 180b1c0:	e0bff715 	stw	r2,-36(fp)
 180b1c4:	e0bff817 	ldw	r2,-32(fp)
 180b1c8:	e0fff217 	ldw	r3,-56(fp)
 180b1cc:	1004913a 	slli	r2,r2,4
 180b1d0:	10c5883a 	add	r2,r2,r3
 180b1d4:	10800f04 	addi	r2,r2,60
 180b1d8:	10c00017 	ldw	r3,0(r2)
 180b1dc:	e0bff717 	ldw	r2,-36(fp)
 180b1e0:	10ff9516 	blt	r2,r3,180b038 <alt_flash_cfi_write+0xc4>
  alt_flash_cfi_dev* flash = (alt_flash_cfi_dev*)flash_info;

  /*
   * First and foremost which sectors are affected?
   */   
  for(i=0;i<flash->dev.number_of_regions;i++)
 180b1e4:	e0bff817 	ldw	r2,-32(fp)
 180b1e8:	10800044 	addi	r2,r2,1
 180b1ec:	e0bff815 	stw	r2,-32(fp)
 180b1f0:	e0bff217 	ldw	r2,-56(fp)
 180b1f4:	10c00c17 	ldw	r3,48(r2)
 180b1f8:	e0bff817 	ldw	r2,-32(fp)
 180b1fc:	10ff6e16 	blt	r2,r3,180afb8 <alt_flash_cfi_write+0x44>
      }     
    } 
  }
finished:    

  alt_dcache_flush((alt_u8*)flash->dev.base_addr+start_offset, full_length);
 180b200:	e0bff217 	ldw	r2,-56(fp)
 180b204:	10800a17 	ldw	r2,40(r2)
 180b208:	1007883a 	mov	r3,r2
 180b20c:	e0bff317 	ldw	r2,-52(fp)
 180b210:	1889883a 	add	r4,r3,r2
 180b214:	e17ff517 	ldw	r5,-44(fp)
 180b218:	180f2d40 	call	180f2d4 <alt_dcache_flush>
  return ret_code;
 180b21c:	e0bff917 	ldw	r2,-28(fp)
}
 180b220:	e037883a 	mov	sp,fp
 180b224:	dfc00117 	ldw	ra,4(sp)
 180b228:	df000017 	ldw	fp,0(sp)
 180b22c:	dec00204 	addi	sp,sp,8
 180b230:	f800283a 	ret

0180b234 <alt_flash_cfi_get_info>:
 * 
 *  Pass the table of erase blocks to the user
 */
int alt_flash_cfi_get_info( alt_flash_fd* fd, flash_region** info, 
                            int* number_of_regions)
{
 180b234:	defffa04 	addi	sp,sp,-24
 180b238:	df000515 	stw	fp,20(sp)
 180b23c:	df000504 	addi	fp,sp,20
 180b240:	e13ffd15 	stw	r4,-12(fp)
 180b244:	e17ffe15 	stw	r5,-8(fp)
 180b248:	e1bfff15 	stw	r6,-4(fp)
  int ret_code = 0;
 180b24c:	e03ffc15 	stw	zero,-16(fp)
  alt_flash_dev* flash = (alt_flash_dev*)fd;
 180b250:	e0bffd17 	ldw	r2,-12(fp)
 180b254:	e0bffb15 	stw	r2,-20(fp)

  *number_of_regions = flash->number_of_regions;
 180b258:	e0bffb17 	ldw	r2,-20(fp)
 180b25c:	10c00c17 	ldw	r3,48(r2)
 180b260:	e0bfff17 	ldw	r2,-4(fp)
 180b264:	10c00015 	stw	r3,0(r2)

  if (!flash->number_of_regions)
 180b268:	e0bffb17 	ldw	r2,-20(fp)
 180b26c:	10800c17 	ldw	r2,48(r2)
 180b270:	1004c03a 	cmpne	r2,r2,zero
 180b274:	1000031e 	bne	r2,zero,180b284 <alt_flash_cfi_get_info+0x50>
  {
    ret_code = -EIO;
 180b278:	00bffec4 	movi	r2,-5
 180b27c:	e0bffc15 	stw	r2,-16(fp)
 180b280:	00000b06 	br	180b2b0 <alt_flash_cfi_get_info+0x7c>
  }
  else if (flash->number_of_regions > ALT_MAX_NUMBER_OF_FLASH_REGIONS)
 180b284:	e0bffb17 	ldw	r2,-20(fp)
 180b288:	10800c17 	ldw	r2,48(r2)
 180b28c:	10800250 	cmplti	r2,r2,9
 180b290:	1000031e 	bne	r2,zero,180b2a0 <alt_flash_cfi_get_info+0x6c>
  {
    ret_code = -ENOMEM;
 180b294:	00bffd04 	movi	r2,-12
 180b298:	e0bffc15 	stw	r2,-16(fp)
 180b29c:	00000406 	br	180b2b0 <alt_flash_cfi_get_info+0x7c>
  }
  else
  {
    *info = &flash->region_info[0];
 180b2a0:	e0bffb17 	ldw	r2,-20(fp)
 180b2a4:	10c00d04 	addi	r3,r2,52
 180b2a8:	e0bffe17 	ldw	r2,-8(fp)
 180b2ac:	10c00015 	stw	r3,0(r2)
  }

  return ret_code;
 180b2b0:	e0bffc17 	ldw	r2,-16(fp)
}
 180b2b4:	e037883a 	mov	sp,fp
 180b2b8:	df000017 	ldw	fp,0(sp)
 180b2bc:	dec00104 	addi	sp,sp,4
 180b2c0:	f800283a 	ret

0180b2c4 <alt_flash_cfi_read>:
 *  Read from an area in flash, you could use memcopy yourself
 *  for these flash types, but we're trying to be generic and future proof
 */
int alt_flash_cfi_read( alt_flash_dev* flash_info, int offset, 
                        void* dest_addr, int length )
{
 180b2c4:	defff904 	addi	sp,sp,-28
 180b2c8:	dfc00615 	stw	ra,24(sp)
 180b2cc:	df000515 	stw	fp,20(sp)
 180b2d0:	df000504 	addi	fp,sp,20
 180b2d4:	e13ffc15 	stw	r4,-16(fp)
 180b2d8:	e17ffd15 	stw	r5,-12(fp)
 180b2dc:	e1bffe15 	stw	r6,-8(fp)
 180b2e0:	e1ffff15 	stw	r7,-4(fp)
  alt_flash_cfi_dev* flash = (alt_flash_cfi_dev*)flash_info;
 180b2e4:	e0bffc17 	ldw	r2,-16(fp)
 180b2e8:	e0bffb15 	stw	r2,-20(fp)
  memcpy(dest_addr, (alt_u8*)flash->dev.base_addr+offset, length);
 180b2ec:	e0bffb17 	ldw	r2,-20(fp)
 180b2f0:	10800a17 	ldw	r2,40(r2)
 180b2f4:	1007883a 	mov	r3,r2
 180b2f8:	e0bffd17 	ldw	r2,-12(fp)
 180b2fc:	1887883a 	add	r3,r3,r2
 180b300:	e1bfff17 	ldw	r6,-4(fp)
 180b304:	e0bffe17 	ldw	r2,-8(fp)
 180b308:	1009883a 	mov	r4,r2
 180b30c:	180b883a 	mov	r5,r3
 180b310:	18069fc0 	call	18069fc <memcpy>
  return 0;
 180b314:	0005883a 	mov	r2,zero
}
 180b318:	e037883a 	mov	sp,fp
 180b31c:	dfc00117 	ldw	ra,4(sp)
 180b320:	df000017 	ldw	fp,0(sp)
 180b324:	dec00204 	addi	sp,sp,8
 180b328:	f800283a 	ret

0180b32c <alt_write_value_to_flash>:
* It writes the largest word size that the flash can support
* so if it's an 8 bit flash it writes bytes
* 16 bit half word etc.
*/
void alt_write_value_to_flash(alt_flash_cfi_dev* flash, int offset, const alt_u8* src_addr)
{
 180b32c:	defffa04 	addi	sp,sp,-24
 180b330:	df000515 	stw	fp,20(sp)
 180b334:	df000504 	addi	fp,sp,20
 180b338:	e13ffd15 	stw	r4,-12(fp)
 180b33c:	e17ffe15 	stw	r5,-8(fp)
 180b340:	e1bfff15 	stw	r6,-4(fp)
  alt_u16 half_word_value;
  alt_u32 word_value;

  if (flash->mode_width == 1)
 180b344:	e0bffd17 	ldw	r2,-12(fp)
 180b348:	10802e17 	ldw	r2,184(r2)
 180b34c:	10800058 	cmpnei	r2,r2,1
 180b350:	10000b1e 	bne	r2,zero,180b380 <alt_write_value_to_flash+0x54>
  {
    IOWR_8DIRECT(flash->dev.base_addr, offset, *src_addr);
 180b354:	e0bffd17 	ldw	r2,-12(fp)
 180b358:	10800a17 	ldw	r2,40(r2)
 180b35c:	1007883a 	mov	r3,r2
 180b360:	e0bffe17 	ldw	r2,-8(fp)
 180b364:	1889883a 	add	r4,r3,r2
 180b368:	e0bfff17 	ldw	r2,-4(fp)
 180b36c:	10800003 	ldbu	r2,0(r2)
 180b370:	10c03fcc 	andi	r3,r2,255
 180b374:	2005883a 	mov	r2,r4
 180b378:	10c00025 	stbio	r3,0(r2)
 180b37c:	00004006 	br	180b480 <alt_write_value_to_flash+0x154>
  }
  else if (flash->mode_width == 2)
 180b380:	e0bffd17 	ldw	r2,-12(fp)
 180b384:	10802e17 	ldw	r2,184(r2)
 180b388:	10800098 	cmpnei	r2,r2,2
 180b38c:	1000151e 	bne	r2,zero,180b3e4 <alt_write_value_to_flash+0xb8>
  {
    half_word_value = (alt_u16)(*src_addr);
 180b390:	e0bfff17 	ldw	r2,-4(fp)
 180b394:	10800003 	ldbu	r2,0(r2)
 180b398:	10803fcc 	andi	r2,r2,255
 180b39c:	e0bffc0d 	sth	r2,-16(fp)
    half_word_value |= (alt_u16)(*(src_addr + 1)) << 8;
 180b3a0:	e0bfff17 	ldw	r2,-4(fp)
 180b3a4:	10800044 	addi	r2,r2,1
 180b3a8:	10800003 	ldbu	r2,0(r2)
 180b3ac:	10803fcc 	andi	r2,r2,255
 180b3b0:	1004923a 	slli	r2,r2,8
 180b3b4:	1007883a 	mov	r3,r2
 180b3b8:	e0bffc0b 	ldhu	r2,-16(fp)
 180b3bc:	1884b03a 	or	r2,r3,r2
 180b3c0:	e0bffc0d 	sth	r2,-16(fp)
    IOWR_16DIRECT(flash->dev.base_addr, offset, half_word_value);
 180b3c4:	e0bffd17 	ldw	r2,-12(fp)
 180b3c8:	10800a17 	ldw	r2,40(r2)
 180b3cc:	1007883a 	mov	r3,r2
 180b3d0:	e0bffe17 	ldw	r2,-8(fp)
 180b3d4:	1885883a 	add	r2,r3,r2
 180b3d8:	e0fffc0b 	ldhu	r3,-16(fp)
 180b3dc:	10c0002d 	sthio	r3,0(r2)
 180b3e0:	00002706 	br	180b480 <alt_write_value_to_flash+0x154>
  }
  else if (flash->mode_width == 4)
 180b3e4:	e0bffd17 	ldw	r2,-12(fp)
 180b3e8:	10802e17 	ldw	r2,184(r2)
 180b3ec:	10800118 	cmpnei	r2,r2,4
 180b3f0:	1000231e 	bne	r2,zero,180b480 <alt_write_value_to_flash+0x154>
  {
    word_value = (alt_u32)(*src_addr);
 180b3f4:	e0bfff17 	ldw	r2,-4(fp)
 180b3f8:	10800003 	ldbu	r2,0(r2)
 180b3fc:	10803fcc 	andi	r2,r2,255
 180b400:	e0bffb15 	stw	r2,-20(fp)
    word_value |= ((alt_u32)(*(src_addr + 1)) << 8);
 180b404:	e0bfff17 	ldw	r2,-4(fp)
 180b408:	10800044 	addi	r2,r2,1
 180b40c:	10800003 	ldbu	r2,0(r2)
 180b410:	10803fcc 	andi	r2,r2,255
 180b414:	1006923a 	slli	r3,r2,8
 180b418:	e0bffb17 	ldw	r2,-20(fp)
 180b41c:	10c4b03a 	or	r2,r2,r3
 180b420:	e0bffb15 	stw	r2,-20(fp)
    word_value |= ((alt_u32)(*(src_addr + 2)) << 16);
 180b424:	e0bfff17 	ldw	r2,-4(fp)
 180b428:	10800084 	addi	r2,r2,2
 180b42c:	10800003 	ldbu	r2,0(r2)
 180b430:	10803fcc 	andi	r2,r2,255
 180b434:	1006943a 	slli	r3,r2,16
 180b438:	e0bffb17 	ldw	r2,-20(fp)
 180b43c:	10c4b03a 	or	r2,r2,r3
 180b440:	e0bffb15 	stw	r2,-20(fp)
    word_value |= ((alt_u32)(*(src_addr + 3)) << 24);
 180b444:	e0bfff17 	ldw	r2,-4(fp)
 180b448:	108000c4 	addi	r2,r2,3
 180b44c:	10800003 	ldbu	r2,0(r2)
 180b450:	10803fcc 	andi	r2,r2,255
 180b454:	1006963a 	slli	r3,r2,24
 180b458:	e0bffb17 	ldw	r2,-20(fp)
 180b45c:	10c4b03a 	or	r2,r2,r3
 180b460:	e0bffb15 	stw	r2,-20(fp)
    IOWR_32DIRECT(flash->dev.base_addr, offset, word_value);
 180b464:	e0bffd17 	ldw	r2,-12(fp)
 180b468:	10800a17 	ldw	r2,40(r2)
 180b46c:	1007883a 	mov	r3,r2
 180b470:	e0bffe17 	ldw	r2,-8(fp)
 180b474:	1885883a 	add	r2,r3,r2
 180b478:	e0fffb17 	ldw	r3,-20(fp)
 180b47c:	10c00035 	stwio	r3,0(r2)
  }

  return;
}
 180b480:	e037883a 	mov	sp,fp
 180b484:	df000017 	ldw	fp,0(sp)
 180b488:	dec00104 	addi	sp,sp,4
 180b48c:	f800283a 	ret

0180b490 <alt_flash_program_block>:
*/
int alt_flash_program_block(  alt_flash_cfi_dev* flash, const int offset, 
                        const alt_u8* src_addr, 
                        const int length,
                        alt_program_word_fn program_word_func)
{
 180b490:	defff304 	addi	sp,sp,-52
 180b494:	dfc00c15 	stw	ra,48(sp)
 180b498:	df000b15 	stw	fp,44(sp)
 180b49c:	df000b04 	addi	fp,sp,44
 180b4a0:	e13ffc15 	stw	r4,-16(fp)
 180b4a4:	e17ffd15 	stw	r5,-12(fp)
 180b4a8:	e1bffe15 	stw	r6,-8(fp)
 180b4ac:	e1ffff15 	stw	r7,-4(fp)
  int     ret_code = 0;
 180b4b0:	e03ffa15 	stw	zero,-24(fp)

  /*
   * First take care of any writes which are on none native boundaries
   * as far as the flash is concerned.
   */
  bytes_to_preserve = ((int)((alt_u8*)flash->dev.base_addr + offset) % 
 180b4b4:	e0bffc17 	ldw	r2,-16(fp)
 180b4b8:	10800a17 	ldw	r2,40(r2)
 180b4bc:	1007883a 	mov	r3,r2
 180b4c0:	e0bffd17 	ldw	r2,-12(fp)
 180b4c4:	1885883a 	add	r2,r3,r2
 180b4c8:	1009883a 	mov	r4,r2
 180b4cc:	e0bffc17 	ldw	r2,-16(fp)
 180b4d0:	10c02e17 	ldw	r3,184(r2)
 180b4d4:	20c5283a 	div	r2,r4,r3
 180b4d8:	10c5383a 	mul	r2,r2,r3
 180b4dc:	2085c83a 	sub	r2,r4,r2
 180b4e0:	e0bff915 	stw	r2,-28(fp)
                      flash->mode_width);
  if ( bytes_to_preserve != 0)
 180b4e4:	e0bff917 	ldw	r2,-28(fp)
 180b4e8:	1005003a 	cmpeq	r2,r2,zero
 180b4ec:	10003a1e 	bne	r2,zero,180b5d8 <alt_flash_program_block+0x148>
  {
    unaligned_bytes = flash->mode_width - bytes_to_preserve;
 180b4f0:	e0bffc17 	ldw	r2,-16(fp)
 180b4f4:	10c02e17 	ldw	r3,184(r2)
 180b4f8:	e0bff917 	ldw	r2,-28(fp)
 180b4fc:	1885c83a 	sub	r2,r3,r2
 180b500:	e0bff815 	stw	r2,-32(fp)
    /*
     * Read the bytes we wish to preserve out of flash
     */
    for (i=0;i<bytes_to_preserve;i++)
 180b504:	e03ff615 	stw	zero,-40(fp)
 180b508:	00001206 	br	180b554 <alt_flash_program_block+0xc4>
    {
      unaligned[i] = IORD_8DIRECT(flash->dev.base_addr, 
 180b50c:	e17ff617 	ldw	r5,-40(fp)
 180b510:	e0bffc17 	ldw	r2,-16(fp)
 180b514:	10800a17 	ldw	r2,40(r2)
 180b518:	1009883a 	mov	r4,r2
 180b51c:	e0fffd17 	ldw	r3,-12(fp)
 180b520:	e0bff917 	ldw	r2,-28(fp)
 180b524:	1887c83a 	sub	r3,r3,r2
 180b528:	e0bff617 	ldw	r2,-40(fp)
 180b52c:	1885883a 	add	r2,r3,r2
 180b530:	2085883a 	add	r2,r4,r2
 180b534:	10800023 	ldbuio	r2,0(r2)
 180b538:	1007883a 	mov	r3,r2
 180b53c:	e0bffb04 	addi	r2,fp,-20
 180b540:	1145883a 	add	r2,r2,r5
 180b544:	10c00005 	stb	r3,0(r2)
  {
    unaligned_bytes = flash->mode_width - bytes_to_preserve;
    /*
     * Read the bytes we wish to preserve out of flash
     */
    for (i=0;i<bytes_to_preserve;i++)
 180b548:	e0bff617 	ldw	r2,-40(fp)
 180b54c:	10800044 	addi	r2,r2,1
 180b550:	e0bff615 	stw	r2,-40(fp)
 180b554:	e0fff617 	ldw	r3,-40(fp)
 180b558:	e0bff917 	ldw	r2,-28(fp)
 180b55c:	18bfeb16 	blt	r3,r2,180b50c <alt_flash_program_block+0x7c>
    {
      unaligned[i] = IORD_8DIRECT(flash->dev.base_addr, 
                                offset-bytes_to_preserve+i);
    }

    for (i=0;i<unaligned_bytes;i++)
 180b560:	e03ff615 	stw	zero,-40(fp)
 180b564:	00000e06 	br	180b5a0 <alt_flash_program_block+0x110>
    {
      unaligned[bytes_to_preserve + i] = *(alt_u8*)(src_addr + i);
 180b568:	e0fff917 	ldw	r3,-28(fp)
 180b56c:	e0bff617 	ldw	r2,-40(fp)
 180b570:	1889883a 	add	r4,r3,r2
 180b574:	e0bff617 	ldw	r2,-40(fp)
 180b578:	1007883a 	mov	r3,r2
 180b57c:	e0bffe17 	ldw	r2,-8(fp)
 180b580:	1885883a 	add	r2,r3,r2
 180b584:	10c00003 	ldbu	r3,0(r2)
 180b588:	e0bffb04 	addi	r2,fp,-20
 180b58c:	1105883a 	add	r2,r2,r4
 180b590:	10c00005 	stb	r3,0(r2)
    {
      unaligned[i] = IORD_8DIRECT(flash->dev.base_addr, 
                                offset-bytes_to_preserve+i);
    }

    for (i=0;i<unaligned_bytes;i++)
 180b594:	e0bff617 	ldw	r2,-40(fp)
 180b598:	10800044 	addi	r2,r2,1
 180b59c:	e0bff615 	stw	r2,-40(fp)
 180b5a0:	e0fff617 	ldw	r3,-40(fp)
 180b5a4:	e0bff817 	ldw	r2,-32(fp)
 180b5a8:	18bfef16 	blt	r3,r2,180b568 <alt_flash_program_block+0xd8>
    {
      unaligned[bytes_to_preserve + i] = *(alt_u8*)(src_addr + i);
    }
    
    ret_code = (*program_word_func)(flash, offset-bytes_to_preserve, unaligned);
 180b5ac:	e0fffd17 	ldw	r3,-12(fp)
 180b5b0:	e0bff917 	ldw	r2,-28(fp)
 180b5b4:	188bc83a 	sub	r5,r3,r2
 180b5b8:	e1bffb04 	addi	r6,fp,-20
 180b5bc:	e0800217 	ldw	r2,8(fp)
 180b5c0:	e13ffc17 	ldw	r4,-16(fp)
 180b5c4:	103ee83a 	callr	r2
 180b5c8:	e0bffa15 	stw	r2,-24(fp)
    i = unaligned_bytes;
 180b5cc:	e0bff817 	ldw	r2,-32(fp)
 180b5d0:	e0bff615 	stw	r2,-40(fp)
 180b5d4:	00000106 	br	180b5dc <alt_flash_program_block+0x14c>
  }
  else
  {
    i = 0;
 180b5d8:	e03ff615 	stw	zero,-40(fp)
  }

  unaligned_end_bytes = (offset+length) % flash->mode_width;
 180b5dc:	e0fffd17 	ldw	r3,-12(fp)
 180b5e0:	e0bfff17 	ldw	r2,-4(fp)
 180b5e4:	1889883a 	add	r4,r3,r2
 180b5e8:	e0bffc17 	ldw	r2,-16(fp)
 180b5ec:	10c02e17 	ldw	r3,184(r2)
 180b5f0:	20c5283a 	div	r2,r4,r3
 180b5f4:	10c5383a 	mul	r2,r2,r3
 180b5f8:	2085c83a 	sub	r2,r4,r2
 180b5fc:	e0bff715 	stw	r2,-36(fp)
  while ((ret_code == 0) && (i < (length-unaligned_end_bytes)))
 180b600:	00001006 	br	180b644 <alt_flash_program_block+0x1b4>
  {
    ret_code = (*program_word_func)(flash, offset+i, src_addr+i);
 180b604:	e0fffd17 	ldw	r3,-12(fp)
 180b608:	e0bff617 	ldw	r2,-40(fp)
 180b60c:	188b883a 	add	r5,r3,r2
 180b610:	e0bff617 	ldw	r2,-40(fp)
 180b614:	1007883a 	mov	r3,r2
 180b618:	e0bffe17 	ldw	r2,-8(fp)
 180b61c:	188d883a 	add	r6,r3,r2
 180b620:	e0800217 	ldw	r2,8(fp)
 180b624:	e13ffc17 	ldw	r4,-16(fp)
 180b628:	103ee83a 	callr	r2
 180b62c:	e0bffa15 	stw	r2,-24(fp)
    i += flash->mode_width;     
 180b630:	e0bffc17 	ldw	r2,-16(fp)
 180b634:	10c02e17 	ldw	r3,184(r2)
 180b638:	e0bff617 	ldw	r2,-40(fp)
 180b63c:	10c5883a 	add	r2,r2,r3
 180b640:	e0bff615 	stw	r2,-40(fp)
  {
    i = 0;
  }

  unaligned_end_bytes = (offset+length) % flash->mode_width;
  while ((ret_code == 0) && (i < (length-unaligned_end_bytes)))
 180b644:	e0bffa17 	ldw	r2,-24(fp)
 180b648:	1004c03a 	cmpne	r2,r2,zero
 180b64c:	1000051e 	bne	r2,zero,180b664 <alt_flash_program_block+0x1d4>
 180b650:	e0ffff17 	ldw	r3,-4(fp)
 180b654:	e0bff717 	ldw	r2,-36(fp)
 180b658:	1887c83a 	sub	r3,r3,r2
 180b65c:	e0bff617 	ldw	r2,-40(fp)
 180b660:	10ffe816 	blt	r2,r3,180b604 <alt_flash_program_block+0x174>

  /*
   * Now take care of any writes at the end of the buffer which are on none 
   * native boundaries as far as the flash is concerned.
   */
  if (unaligned_end_bytes && !ret_code)
 180b664:	e0bff717 	ldw	r2,-36(fp)
 180b668:	1005003a 	cmpeq	r2,r2,zero
 180b66c:	10003c1e 	bne	r2,zero,180b760 <alt_flash_program_block+0x2d0>
 180b670:	e0bffa17 	ldw	r2,-24(fp)
 180b674:	1004c03a 	cmpne	r2,r2,zero
 180b678:	1000391e 	bne	r2,zero,180b760 <alt_flash_program_block+0x2d0>
  {
    bytes_to_preserve = flash->mode_width - unaligned_end_bytes;
 180b67c:	e0bffc17 	ldw	r2,-16(fp)
 180b680:	10c02e17 	ldw	r3,184(r2)
 180b684:	e0bff717 	ldw	r2,-36(fp)
 180b688:	1885c83a 	sub	r2,r3,r2
 180b68c:	e0bff915 	stw	r2,-28(fp)
    
    for (j=0;j<unaligned_end_bytes;j++)
 180b690:	e03ff515 	stw	zero,-44(fp)
 180b694:	00000e06 	br	180b6d0 <alt_flash_program_block+0x240>
    {
      unaligned[j] = *(alt_u8*)(src_addr+i+j);
 180b698:	e13ff517 	ldw	r4,-44(fp)
 180b69c:	e0bff617 	ldw	r2,-40(fp)
 180b6a0:	1007883a 	mov	r3,r2
 180b6a4:	e0bffe17 	ldw	r2,-8(fp)
 180b6a8:	1887883a 	add	r3,r3,r2
 180b6ac:	e0bff517 	ldw	r2,-44(fp)
 180b6b0:	1885883a 	add	r2,r3,r2
 180b6b4:	10c00003 	ldbu	r3,0(r2)
 180b6b8:	e0bffb04 	addi	r2,fp,-20
 180b6bc:	1105883a 	add	r2,r2,r4
 180b6c0:	10c00005 	stb	r3,0(r2)
   */
  if (unaligned_end_bytes && !ret_code)
  {
    bytes_to_preserve = flash->mode_width - unaligned_end_bytes;
    
    for (j=0;j<unaligned_end_bytes;j++)
 180b6c4:	e0bff517 	ldw	r2,-44(fp)
 180b6c8:	10800044 	addi	r2,r2,1
 180b6cc:	e0bff515 	stw	r2,-44(fp)
 180b6d0:	e0fff517 	ldw	r3,-44(fp)
 180b6d4:	e0bff717 	ldw	r2,-36(fp)
 180b6d8:	18bfef16 	blt	r3,r2,180b698 <alt_flash_program_block+0x208>
    {
      unaligned[j] = *(alt_u8*)(src_addr+i+j);
    }
    
    for (j=0;j<bytes_to_preserve;j++)
 180b6dc:	e03ff515 	stw	zero,-44(fp)
 180b6e0:	00001406 	br	180b734 <alt_flash_program_block+0x2a4>
    {
      unaligned[unaligned_end_bytes+j] = IORD_8DIRECT(flash->dev.base_addr, 
 180b6e4:	e0fff717 	ldw	r3,-36(fp)
 180b6e8:	e0bff517 	ldw	r2,-44(fp)
 180b6ec:	188b883a 	add	r5,r3,r2
 180b6f0:	e0bffc17 	ldw	r2,-16(fp)
 180b6f4:	10800a17 	ldw	r2,40(r2)
 180b6f8:	1009883a 	mov	r4,r2
 180b6fc:	e0fffd17 	ldw	r3,-12(fp)
 180b700:	e0bfff17 	ldw	r2,-4(fp)
 180b704:	1887883a 	add	r3,r3,r2
 180b708:	e0bff517 	ldw	r2,-44(fp)
 180b70c:	1885883a 	add	r2,r3,r2
 180b710:	2085883a 	add	r2,r4,r2
 180b714:	10800023 	ldbuio	r2,0(r2)
 180b718:	1007883a 	mov	r3,r2
 180b71c:	e0bffb04 	addi	r2,fp,-20
 180b720:	1145883a 	add	r2,r2,r5
 180b724:	10c00005 	stb	r3,0(r2)
    for (j=0;j<unaligned_end_bytes;j++)
    {
      unaligned[j] = *(alt_u8*)(src_addr+i+j);
    }
    
    for (j=0;j<bytes_to_preserve;j++)
 180b728:	e0bff517 	ldw	r2,-44(fp)
 180b72c:	10800044 	addi	r2,r2,1
 180b730:	e0bff515 	stw	r2,-44(fp)
 180b734:	e0fff517 	ldw	r3,-44(fp)
 180b738:	e0bff917 	ldw	r2,-28(fp)
 180b73c:	18bfe916 	blt	r3,r2,180b6e4 <alt_flash_program_block+0x254>
    {
      unaligned[unaligned_end_bytes+j] = IORD_8DIRECT(flash->dev.base_addr, 
                                                      offset+length+j);
    }

    ret_code = (*program_word_func)(flash, offset+i, unaligned);      
 180b740:	e0fffd17 	ldw	r3,-12(fp)
 180b744:	e0bff617 	ldw	r2,-40(fp)
 180b748:	188b883a 	add	r5,r3,r2
 180b74c:	e1bffb04 	addi	r6,fp,-20
 180b750:	e0800217 	ldw	r2,8(fp)
 180b754:	e13ffc17 	ldw	r4,-16(fp)
 180b758:	103ee83a 	callr	r2
 180b75c:	e0bffa15 	stw	r2,-24(fp)
  }

  return ret_code;
 180b760:	e0bffa17 	ldw	r2,-24(fp)
}
 180b764:	e037883a 	mov	sp,fp
 180b768:	dfc00117 	ldw	ra,4(sp)
 180b76c:	df000017 	ldw	fp,0(sp)
 180b770:	dec00204 	addi	sp,sp,8
 180b774:	f800283a 	ret

0180b778 <alt_read_query_entry_8bit>:

/*
 *  Read an 8 bit value from the CFI query table in flash
 */
alt_u8 alt_read_query_entry_8bit( alt_flash_cfi_dev* flash, int address)
{
 180b778:	defffd04 	addi	sp,sp,-12
 180b77c:	df000215 	stw	fp,8(sp)
 180b780:	df000204 	addi	fp,sp,8
 180b784:	e13ffe15 	stw	r4,-8(fp)
 180b788:	e17fff15 	stw	r5,-4(fp)
  return IORD_8DIRECT((alt_u8*)flash->dev.base_addr, address);
 180b78c:	e0bffe17 	ldw	r2,-8(fp)
 180b790:	10800a17 	ldw	r2,40(r2)
 180b794:	1007883a 	mov	r3,r2
 180b798:	e0bfff17 	ldw	r2,-4(fp)
 180b79c:	1885883a 	add	r2,r3,r2
 180b7a0:	10800023 	ldbuio	r2,0(r2)
 180b7a4:	10803fcc 	andi	r2,r2,255
}
 180b7a8:	e037883a 	mov	sp,fp
 180b7ac:	df000017 	ldw	fp,0(sp)
 180b7b0:	dec00104 	addi	sp,sp,4
 180b7b4:	f800283a 	ret

0180b7b8 <alt_read_query_entry_16bit>:

alt_u8 alt_read_query_entry_16bit( alt_flash_cfi_dev* flash, int address)
{
 180b7b8:	defffd04 	addi	sp,sp,-12
 180b7bc:	df000215 	stw	fp,8(sp)
 180b7c0:	df000204 	addi	fp,sp,8
 180b7c4:	e13ffe15 	stw	r4,-8(fp)
 180b7c8:	e17fff15 	stw	r5,-4(fp)
  return (IORD_16DIRECT((alt_u8*)flash->dev.base_addr, address*2) & 0xff);
 180b7cc:	e0bffe17 	ldw	r2,-8(fp)
 180b7d0:	10800a17 	ldw	r2,40(r2)
 180b7d4:	1007883a 	mov	r3,r2
 180b7d8:	e0bfff17 	ldw	r2,-4(fp)
 180b7dc:	1085883a 	add	r2,r2,r2
 180b7e0:	1885883a 	add	r2,r3,r2
 180b7e4:	1080002b 	ldhuio	r2,0(r2)
 180b7e8:	10803fcc 	andi	r2,r2,255
}
 180b7ec:	e037883a 	mov	sp,fp
 180b7f0:	df000017 	ldw	fp,0(sp)
 180b7f4:	dec00104 	addi	sp,sp,4
 180b7f8:	f800283a 	ret

0180b7fc <alt_read_query_entry_32bit>:

alt_u8 alt_read_query_entry_32bit( alt_flash_cfi_dev* flash, int address)
{
 180b7fc:	defffd04 	addi	sp,sp,-12
 180b800:	df000215 	stw	fp,8(sp)
 180b804:	df000204 	addi	fp,sp,8
 180b808:	e13ffe15 	stw	r4,-8(fp)
 180b80c:	e17fff15 	stw	r5,-4(fp)
  return (IORD_32DIRECT((alt_u8*)flash->dev.base_addr, address*4) & 0xff);
 180b810:	e0bffe17 	ldw	r2,-8(fp)
 180b814:	10800a17 	ldw	r2,40(r2)
 180b818:	1007883a 	mov	r3,r2
 180b81c:	e0bfff17 	ldw	r2,-4(fp)
 180b820:	1085883a 	add	r2,r2,r2
 180b824:	1085883a 	add	r2,r2,r2
 180b828:	1885883a 	add	r2,r3,r2
 180b82c:	10800037 	ldwio	r2,0(r2)
 180b830:	10803fcc 	andi	r2,r2,255
}
 180b834:	e037883a 	mov	sp,fp
 180b838:	df000017 	ldw	fp,0(sp)
 180b83c:	dec00104 	addi	sp,sp,4
 180b840:	f800283a 	ret

0180b844 <alt_write_flash_command_8bit_device_8bit_mode>:

/*
 * Write an 8 bit command to a flash
 */
void alt_write_flash_command_8bit_device_8bit_mode( void* base_addr, int offset, alt_u8 value)
{
 180b844:	defffc04 	addi	sp,sp,-16
 180b848:	df000315 	stw	fp,12(sp)
 180b84c:	df000304 	addi	fp,sp,12
 180b850:	e13ffd15 	stw	r4,-12(fp)
 180b854:	e17ffe15 	stw	r5,-8(fp)
 180b858:	e1bfff05 	stb	r6,-4(fp)
  IOWR_8DIRECT(base_addr, offset, value);
 180b85c:	e0fffd17 	ldw	r3,-12(fp)
 180b860:	e0bffe17 	ldw	r2,-8(fp)
 180b864:	1885883a 	add	r2,r3,r2
 180b868:	e0ffff03 	ldbu	r3,-4(fp)
 180b86c:	10c00025 	stbio	r3,0(r2)
  return;
}
 180b870:	e037883a 	mov	sp,fp
 180b874:	df000017 	ldw	fp,0(sp)
 180b878:	dec00104 	addi	sp,sp,4
 180b87c:	f800283a 	ret

0180b880 <alt_write_flash_command_16bit_device_8bit_mode>:

void alt_write_flash_command_16bit_device_8bit_mode( void* base_addr, int offset, alt_u8 value)
{
 180b880:	defffc04 	addi	sp,sp,-16
 180b884:	df000315 	stw	fp,12(sp)
 180b888:	df000304 	addi	fp,sp,12
 180b88c:	e13ffd15 	stw	r4,-12(fp)
 180b890:	e17ffe15 	stw	r5,-8(fp)
 180b894:	e1bfff05 	stb	r6,-4(fp)
  if (offset % 2)
 180b898:	e0bffe17 	ldw	r2,-8(fp)
 180b89c:	1080004c 	andi	r2,r2,1
 180b8a0:	10803fcc 	andi	r2,r2,255
 180b8a4:	1005003a 	cmpeq	r2,r2,zero
 180b8a8:	1000081e 	bne	r2,zero,180b8cc <alt_write_flash_command_16bit_device_8bit_mode+0x4c>
  {
    IOWR_8DIRECT(base_addr, offset*2, value);
 180b8ac:	e0bffe17 	ldw	r2,-8(fp)
 180b8b0:	1085883a 	add	r2,r2,r2
 180b8b4:	1007883a 	mov	r3,r2
 180b8b8:	e0bffd17 	ldw	r2,-12(fp)
 180b8bc:	1885883a 	add	r2,r3,r2
 180b8c0:	e0ffff03 	ldbu	r3,-4(fp)
 180b8c4:	10c00025 	stbio	r3,0(r2)
 180b8c8:	00000806 	br	180b8ec <alt_write_flash_command_16bit_device_8bit_mode+0x6c>
  }
  else
  {
    IOWR_8DIRECT(base_addr, (offset*2)+1, value);
 180b8cc:	e0bffe17 	ldw	r2,-8(fp)
 180b8d0:	1085883a 	add	r2,r2,r2
 180b8d4:	1007883a 	mov	r3,r2
 180b8d8:	e0bffd17 	ldw	r2,-12(fp)
 180b8dc:	1885883a 	add	r2,r3,r2
 180b8e0:	10800044 	addi	r2,r2,1
 180b8e4:	e0ffff03 	ldbu	r3,-4(fp)
 180b8e8:	10c00025 	stbio	r3,0(r2)
  }
  return;
}
 180b8ec:	e037883a 	mov	sp,fp
 180b8f0:	df000017 	ldw	fp,0(sp)
 180b8f4:	dec00104 	addi	sp,sp,4
 180b8f8:	f800283a 	ret

0180b8fc <alt_write_flash_command_32bit_device_8bit_mode>:

void alt_write_flash_command_32bit_device_8bit_mode( void* base_addr, int offset, alt_u8 value)
{
 180b8fc:	defffc04 	addi	sp,sp,-16
 180b900:	df000315 	stw	fp,12(sp)
 180b904:	df000304 	addi	fp,sp,12
 180b908:	e13ffd15 	stw	r4,-12(fp)
 180b90c:	e17ffe15 	stw	r5,-8(fp)
 180b910:	e1bfff05 	stb	r6,-4(fp)
  IOWR_8DIRECT(base_addr, offset*4, value);
 180b914:	e0bffe17 	ldw	r2,-8(fp)
 180b918:	1085883a 	add	r2,r2,r2
 180b91c:	1085883a 	add	r2,r2,r2
 180b920:	1007883a 	mov	r3,r2
 180b924:	e0bffd17 	ldw	r2,-12(fp)
 180b928:	1885883a 	add	r2,r3,r2
 180b92c:	e0ffff03 	ldbu	r3,-4(fp)
 180b930:	10c00025 	stbio	r3,0(r2)
  return;
}
 180b934:	e037883a 	mov	sp,fp
 180b938:	df000017 	ldw	fp,0(sp)
 180b93c:	dec00104 	addi	sp,sp,4
 180b940:	f800283a 	ret

0180b944 <alt_write_flash_command_16bit_device_16bit_mode>:

void alt_write_flash_command_16bit_device_16bit_mode( void* base_addr, int offset, alt_u8 value)
{
 180b944:	defffc04 	addi	sp,sp,-16
 180b948:	df000315 	stw	fp,12(sp)
 180b94c:	df000304 	addi	fp,sp,12
 180b950:	e13ffd15 	stw	r4,-12(fp)
 180b954:	e17ffe15 	stw	r5,-8(fp)
 180b958:	e1bfff05 	stb	r6,-4(fp)
  IOWR_16DIRECT(base_addr, offset*2, ((alt_u16)value)& 0x00ff);
 180b95c:	e0bffe17 	ldw	r2,-8(fp)
 180b960:	1085883a 	add	r2,r2,r2
 180b964:	1007883a 	mov	r3,r2
 180b968:	e0bffd17 	ldw	r2,-12(fp)
 180b96c:	1885883a 	add	r2,r3,r2
 180b970:	e0ffff03 	ldbu	r3,-4(fp)
 180b974:	10c0002d 	sthio	r3,0(r2)
  return;
}
 180b978:	e037883a 	mov	sp,fp
 180b97c:	df000017 	ldw	fp,0(sp)
 180b980:	dec00104 	addi	sp,sp,4
 180b984:	f800283a 	ret

0180b988 <alt_write_flash_command_32bit_device_16bit_mode>:

void alt_write_flash_command_32bit_device_16bit_mode( void* base_addr, int offset, alt_u8 value)
{
 180b988:	defffc04 	addi	sp,sp,-16
 180b98c:	df000315 	stw	fp,12(sp)
 180b990:	df000304 	addi	fp,sp,12
 180b994:	e13ffd15 	stw	r4,-12(fp)
 180b998:	e17ffe15 	stw	r5,-8(fp)
 180b99c:	e1bfff05 	stb	r6,-4(fp)
  IOWR_16DIRECT(base_addr, offset*4, ((alt_u16)value)& 0x00ff);
 180b9a0:	e0bffe17 	ldw	r2,-8(fp)
 180b9a4:	1085883a 	add	r2,r2,r2
 180b9a8:	1085883a 	add	r2,r2,r2
 180b9ac:	1007883a 	mov	r3,r2
 180b9b0:	e0bffd17 	ldw	r2,-12(fp)
 180b9b4:	1885883a 	add	r2,r3,r2
 180b9b8:	e0ffff03 	ldbu	r3,-4(fp)
 180b9bc:	10c0002d 	sthio	r3,0(r2)
  return;
}
 180b9c0:	e037883a 	mov	sp,fp
 180b9c4:	df000017 	ldw	fp,0(sp)
 180b9c8:	dec00104 	addi	sp,sp,4
 180b9cc:	f800283a 	ret

0180b9d0 <alt_write_flash_command_32bit_device_32bit_mode>:

void alt_write_flash_command_32bit_device_32bit_mode( void* base_addr, int offset, alt_u8 value)
{
 180b9d0:	defffc04 	addi	sp,sp,-16
 180b9d4:	df000315 	stw	fp,12(sp)
 180b9d8:	df000304 	addi	fp,sp,12
 180b9dc:	e13ffd15 	stw	r4,-12(fp)
 180b9e0:	e17ffe15 	stw	r5,-8(fp)
 180b9e4:	e1bfff05 	stb	r6,-4(fp)
  IOWR_32DIRECT(base_addr, offset*4, ((alt_u32)value)& 0x000000ff);
 180b9e8:	e0bffe17 	ldw	r2,-8(fp)
 180b9ec:	1085883a 	add	r2,r2,r2
 180b9f0:	1085883a 	add	r2,r2,r2
 180b9f4:	1007883a 	mov	r3,r2
 180b9f8:	e0bffd17 	ldw	r2,-12(fp)
 180b9fc:	1885883a 	add	r2,r3,r2
 180ba00:	e0ffff03 	ldbu	r3,-4(fp)
 180ba04:	10c00035 	stwio	r3,0(r2)
  return;
}
 180ba08:	e037883a 	mov	sp,fp
 180ba0c:	df000017 	ldw	fp,0(sp)
 180ba10:	dec00104 	addi	sp,sp,4
 180ba14:	f800283a 	ret

0180ba18 <alt_write_native_8bit>:

/*
 * Write the value passed to the flash
 */
void alt_write_native_8bit( void* address, alt_u32 value)
{
 180ba18:	defffd04 	addi	sp,sp,-12
 180ba1c:	df000215 	stw	fp,8(sp)
 180ba20:	df000204 	addi	fp,sp,8
 180ba24:	e13ffe15 	stw	r4,-8(fp)
 180ba28:	e17fff15 	stw	r5,-4(fp)
  IOWR_8DIRECT(address, 0, (alt_u8)(value&0xff));
 180ba2c:	e0bfff17 	ldw	r2,-4(fp)
 180ba30:	10c03fcc 	andi	r3,r2,255
 180ba34:	e0bffe17 	ldw	r2,-8(fp)
 180ba38:	10c00025 	stbio	r3,0(r2)
  return;
}
 180ba3c:	e037883a 	mov	sp,fp
 180ba40:	df000017 	ldw	fp,0(sp)
 180ba44:	dec00104 	addi	sp,sp,4
 180ba48:	f800283a 	ret

0180ba4c <alt_write_native_16bit>:

void alt_write_native_16bit( void* address, alt_u32 value)
{
 180ba4c:	defffd04 	addi	sp,sp,-12
 180ba50:	df000215 	stw	fp,8(sp)
 180ba54:	df000204 	addi	fp,sp,8
 180ba58:	e13ffe15 	stw	r4,-8(fp)
 180ba5c:	e17fff15 	stw	r5,-4(fp)
  IOWR_16DIRECT(address, 0, ((alt_u16)value)& 0xffff);
 180ba60:	e0bfff17 	ldw	r2,-4(fp)
 180ba64:	10ffffcc 	andi	r3,r2,65535
 180ba68:	e0bffe17 	ldw	r2,-8(fp)
 180ba6c:	10c0002d 	sthio	r3,0(r2)
  return;
}
 180ba70:	e037883a 	mov	sp,fp
 180ba74:	df000017 	ldw	fp,0(sp)
 180ba78:	dec00104 	addi	sp,sp,4
 180ba7c:	f800283a 	ret

0180ba80 <alt_write_native_32bit>:

void alt_write_native_32bit( void* address, alt_u32 value)
{
 180ba80:	defffd04 	addi	sp,sp,-12
 180ba84:	df000215 	stw	fp,8(sp)
 180ba88:	df000204 	addi	fp,sp,8
 180ba8c:	e13ffe15 	stw	r4,-8(fp)
 180ba90:	e17fff15 	stw	r5,-4(fp)
  IOWR_32DIRECT(address, 0, value);
 180ba94:	e0ffff17 	ldw	r3,-4(fp)
 180ba98:	e0bffe17 	ldw	r2,-8(fp)
 180ba9c:	10c00035 	stwio	r3,0(r2)
  return;
}
 180baa0:	e037883a 	mov	sp,fp
 180baa4:	df000017 	ldw	fp,0(sp)
 180baa8:	dec00104 	addi	sp,sp,4
 180baac:	f800283a 	ret

0180bab0 <alt_set_flash_width_func>:
 * 
 * Setup the function pointers for writing a byte to the flash for the width
 * of the device
 */
int alt_set_flash_width_func( alt_flash_cfi_dev* flash)
{ 
 180bab0:	defffb04 	addi	sp,sp,-20
 180bab4:	df000415 	stw	fp,16(sp)
 180bab8:	df000404 	addi	fp,sp,16
 180babc:	e13ffd15 	stw	r4,-12(fp)
  int ret_code = 0;
 180bac0:	e03ffc15 	stw	zero,-16(fp)
  
  switch(flash->mode_width)
 180bac4:	e0bffd17 	ldw	r2,-12(fp)
 180bac8:	10802e17 	ldw	r2,184(r2)
 180bacc:	e0bfff15 	stw	r2,-4(fp)
 180bad0:	e0ffff17 	ldw	r3,-4(fp)
 180bad4:	188000a0 	cmpeqi	r2,r3,2
 180bad8:	1000261e 	bne	r2,zero,180bb74 <alt_set_flash_width_func+0xc4>
 180badc:	e0ffff17 	ldw	r3,-4(fp)
 180bae0:	18800120 	cmpeqi	r2,r3,4
 180bae4:	1000391e 	bne	r2,zero,180bbcc <alt_set_flash_width_func+0x11c>
 180bae8:	e0ffff17 	ldw	r3,-4(fp)
 180baec:	18800060 	cmpeqi	r2,r3,1
 180baf0:	1000011e 	bne	r2,zero,180baf8 <alt_set_flash_width_func+0x48>
 180baf4:	00003e06 	br	180bbf0 <alt_set_flash_width_func+0x140>
  {
    case 1:
    {
      flash->write_native = alt_write_native_8bit;
 180baf8:	e0fffd17 	ldw	r3,-12(fp)
 180bafc:	00806074 	movhi	r2,385
 180bb00:	10ae8604 	addi	r2,r2,-17896
 180bb04:	18803515 	stw	r2,212(r3)

      if (flash->device_width == 1)
 180bb08:	e0bffd17 	ldw	r2,-12(fp)
 180bb0c:	10802f17 	ldw	r2,188(r2)
 180bb10:	10800058 	cmpnei	r2,r2,1
 180bb14:	1000051e 	bne	r2,zero,180bb2c <alt_set_flash_width_func+0x7c>
      {
        flash->write_command = alt_write_flash_command_8bit_device_8bit_mode;
 180bb18:	e0fffd17 	ldw	r3,-12(fp)
 180bb1c:	00806074 	movhi	r2,385
 180bb20:	10ae1104 	addi	r2,r2,-18364
 180bb24:	18803315 	stw	r2,204(r3)
 180bb28:	00003306 	br	180bbf8 <alt_set_flash_width_func+0x148>
      }
      else if (flash->device_width == 2)
 180bb2c:	e0bffd17 	ldw	r2,-12(fp)
 180bb30:	10802f17 	ldw	r2,188(r2)
 180bb34:	10800098 	cmpnei	r2,r2,2
 180bb38:	1000051e 	bne	r2,zero,180bb50 <alt_set_flash_width_func+0xa0>
      {
        flash->write_command = alt_write_flash_command_16bit_device_8bit_mode;
 180bb3c:	e0fffd17 	ldw	r3,-12(fp)
 180bb40:	00806074 	movhi	r2,385
 180bb44:	10ae2004 	addi	r2,r2,-18304
 180bb48:	18803315 	stw	r2,204(r3)
 180bb4c:	00002a06 	br	180bbf8 <alt_set_flash_width_func+0x148>
      }
      else if (flash->device_width == 4)
 180bb50:	e0bffd17 	ldw	r2,-12(fp)
 180bb54:	10802f17 	ldw	r2,188(r2)
 180bb58:	10800118 	cmpnei	r2,r2,4
 180bb5c:	1000261e 	bne	r2,zero,180bbf8 <alt_set_flash_width_func+0x148>
      {
        flash->write_command = alt_write_flash_command_32bit_device_8bit_mode;
 180bb60:	e0fffd17 	ldw	r3,-12(fp)
 180bb64:	00806074 	movhi	r2,385
 180bb68:	10ae3f04 	addi	r2,r2,-18180
 180bb6c:	18803315 	stw	r2,204(r3)
      }
      break;
 180bb70:	00002106 	br	180bbf8 <alt_set_flash_width_func+0x148>
    }
    case 2:
    {
      flash->write_native = alt_write_native_16bit;
 180bb74:	e0fffd17 	ldw	r3,-12(fp)
 180bb78:	00806074 	movhi	r2,385
 180bb7c:	10ae9304 	addi	r2,r2,-17844
 180bb80:	18803515 	stw	r2,212(r3)

      if (flash->device_width == 2)
 180bb84:	e0bffd17 	ldw	r2,-12(fp)
 180bb88:	10802f17 	ldw	r2,188(r2)
 180bb8c:	10800098 	cmpnei	r2,r2,2
 180bb90:	1000051e 	bne	r2,zero,180bba8 <alt_set_flash_width_func+0xf8>
      {
        flash->write_command = alt_write_flash_command_16bit_device_16bit_mode;
 180bb94:	e0fffd17 	ldw	r3,-12(fp)
 180bb98:	00806074 	movhi	r2,385
 180bb9c:	10ae5104 	addi	r2,r2,-18108
 180bba0:	18803315 	stw	r2,204(r3)
 180bba4:	00001406 	br	180bbf8 <alt_set_flash_width_func+0x148>
      }
      else if (flash->device_width == 4)
 180bba8:	e0bffd17 	ldw	r2,-12(fp)
 180bbac:	10802f17 	ldw	r2,188(r2)
 180bbb0:	10800118 	cmpnei	r2,r2,4
 180bbb4:	1000101e 	bne	r2,zero,180bbf8 <alt_set_flash_width_func+0x148>
      {
        flash->write_command = alt_write_flash_command_32bit_device_16bit_mode;
 180bbb8:	e0fffd17 	ldw	r3,-12(fp)
 180bbbc:	00806074 	movhi	r2,385
 180bbc0:	10ae6204 	addi	r2,r2,-18040
 180bbc4:	18803315 	stw	r2,204(r3)
      }

      break;
 180bbc8:	00000b06 	br	180bbf8 <alt_set_flash_width_func+0x148>
    }
    case 4:
    {
      flash->write_native = alt_write_native_32bit;
 180bbcc:	e0fffd17 	ldw	r3,-12(fp)
 180bbd0:	00806074 	movhi	r2,385
 180bbd4:	10aea004 	addi	r2,r2,-17792
 180bbd8:	18803515 	stw	r2,212(r3)
      flash->write_command = alt_write_flash_command_32bit_device_32bit_mode;
 180bbdc:	e0fffd17 	ldw	r3,-12(fp)
 180bbe0:	00806074 	movhi	r2,385
 180bbe4:	10ae7404 	addi	r2,r2,-17968
 180bbe8:	18803315 	stw	r2,204(r3)
      break;
 180bbec:	00000206 	br	180bbf8 <alt_set_flash_width_func+0x148>
    }
    default:
    {
      ret_code = -EACCES;
 180bbf0:	00bffcc4 	movi	r2,-13
 180bbf4:	e0bffc15 	stw	r2,-16(fp)
    }
  }

  if (!ret_code)
 180bbf8:	e0bffc17 	ldw	r2,-16(fp)
 180bbfc:	1004c03a 	cmpne	r2,r2,zero
 180bc00:	10001e1e 	bne	r2,zero,180bc7c <alt_set_flash_width_func+0x1cc>
  {
    switch(flash->device_width)
 180bc04:	e0bffd17 	ldw	r2,-12(fp)
 180bc08:	10802f17 	ldw	r2,188(r2)
 180bc0c:	e0bffe15 	stw	r2,-8(fp)
 180bc10:	e0fffe17 	ldw	r3,-8(fp)
 180bc14:	188000a0 	cmpeqi	r2,r3,2
 180bc18:	10000c1e 	bne	r2,zero,180bc4c <alt_set_flash_width_func+0x19c>
 180bc1c:	e0fffe17 	ldw	r3,-8(fp)
 180bc20:	18800120 	cmpeqi	r2,r3,4
 180bc24:	10000e1e 	bne	r2,zero,180bc60 <alt_set_flash_width_func+0x1b0>
 180bc28:	e0fffe17 	ldw	r3,-8(fp)
 180bc2c:	18800060 	cmpeqi	r2,r3,1
 180bc30:	1000011e 	bne	r2,zero,180bc38 <alt_set_flash_width_func+0x188>
 180bc34:	00000f06 	br	180bc74 <alt_set_flash_width_func+0x1c4>
    {
      case 1:
      {
        flash->read_query = alt_read_query_entry_8bit;
 180bc38:	e0fffd17 	ldw	r3,-12(fp)
 180bc3c:	00806074 	movhi	r2,385
 180bc40:	10adde04 	addi	r2,r2,-18568
 180bc44:	18803415 	stw	r2,208(r3)
        break;
 180bc48:	00000c06 	br	180bc7c <alt_set_flash_width_func+0x1cc>
      }
      case 2:
      {
        flash->read_query = alt_read_query_entry_16bit;
 180bc4c:	e0fffd17 	ldw	r3,-12(fp)
 180bc50:	00806074 	movhi	r2,385
 180bc54:	10adee04 	addi	r2,r2,-18504
 180bc58:	18803415 	stw	r2,208(r3)
        break;
 180bc5c:	00000706 	br	180bc7c <alt_set_flash_width_func+0x1cc>
      }
      case 4:
      {
        flash->read_query = alt_read_query_entry_32bit;
 180bc60:	e0fffd17 	ldw	r3,-12(fp)
 180bc64:	00806074 	movhi	r2,385
 180bc68:	10adff04 	addi	r2,r2,-18436
 180bc6c:	18803415 	stw	r2,208(r3)
        break;
 180bc70:	00000206 	br	180bc7c <alt_set_flash_width_func+0x1cc>
      }
      default:
      {
        ret_code = -EACCES;
 180bc74:	00bffcc4 	movi	r2,-13
 180bc78:	e0bffc15 	stw	r2,-16(fp)
      }
    }
  }

  return ret_code;
 180bc7c:	e0bffc17 	ldw	r2,-16(fp)
}
 180bc80:	e037883a 	mov	sp,fp
 180bc84:	df000017 	ldw	fp,0(sp)
 180bc88:	dec00104 	addi	sp,sp,4
 180bc8c:	f800283a 	ret

0180bc90 <alt_set_flash_algorithm_func>:
 * 
 * Setup the function pointers to the functions for this algorithm
 * 
 */
int alt_set_flash_algorithm_func( alt_flash_cfi_dev* flash)
{
 180bc90:	defffc04 	addi	sp,sp,-16
 180bc94:	df000315 	stw	fp,12(sp)
 180bc98:	df000304 	addi	fp,sp,12
 180bc9c:	e13ffe15 	stw	r4,-8(fp)
  int ret_code = 0;
 180bca0:	e03ffd15 	stw	zero,-12(fp)
 
  switch(flash->algorithm)
 180bca4:	e0bffe17 	ldw	r2,-8(fp)
 180bca8:	10802d17 	ldw	r2,180(r2)
 180bcac:	e0bfff15 	stw	r2,-4(fp)
 180bcb0:	e0ffff17 	ldw	r3,-4(fp)
 180bcb4:	188000a0 	cmpeqi	r2,r3,2
 180bcb8:	1000071e 	bne	r2,zero,180bcd8 <alt_set_flash_algorithm_func+0x48>
 180bcbc:	e0ffff17 	ldw	r3,-4(fp)
 180bcc0:	188000e0 	cmpeqi	r2,r3,3
 180bcc4:	10000d1e 	bne	r2,zero,180bcfc <alt_set_flash_algorithm_func+0x6c>
 180bcc8:	e0ffff17 	ldw	r3,-4(fp)
 180bccc:	18800060 	cmpeqi	r2,r3,1
 180bcd0:	10000a1e 	bne	r2,zero,180bcfc <alt_set_flash_algorithm_func+0x6c>
 180bcd4:	00001206 	br	180bd20 <alt_set_flash_algorithm_func+0x90>
  {
    case CFI_ALG_AMD:
    {
      flash->dev.erase_block = alt_erase_block_amd;
 180bcd8:	e0fffe17 	ldw	r3,-8(fp)
 180bcdc:	00806074 	movhi	r2,385
 180bce0:	10bfbc04 	addi	r2,r2,-272
 180bce4:	18800815 	stw	r2,32(r3)
      flash->dev.write_block = alt_program_amd;
 180bce8:	e0fffe17 	ldw	r3,-8(fp)
 180bcec:	00806074 	movhi	r2,385
 180bcf0:	10bfa204 	addi	r2,r2,-376
 180bcf4:	18800915 	stw	r2,36(r3)
      break;
 180bcf8:	00000b06 	br	180bd28 <alt_set_flash_algorithm_func+0x98>
    }
    case CFI_ALG_INTEL:
    case CFI_ALG_INTEL_STRATA:
    {
      flash->dev.erase_block = alt_erase_block_intel;
 180bcfc:	e0fffe17 	ldw	r3,-8(fp)
 180bd00:	00806074 	movhi	r2,385
 180bd04:	1080db04 	addi	r2,r2,876
 180bd08:	18800815 	stw	r2,32(r3)
      flash->dev.write_block = alt_program_intel;
 180bd0c:	e0fffe17 	ldw	r3,-8(fp)
 180bd10:	00806074 	movhi	r2,385
 180bd14:	1080ba04 	addi	r2,r2,744
 180bd18:	18800915 	stw	r2,36(r3)
      break;
 180bd1c:	00000206 	br	180bd28 <alt_set_flash_algorithm_func+0x98>
    }
    default:
    {
      ret_code = -EIO;
 180bd20:	00bffec4 	movi	r2,-5
 180bd24:	e0bffd15 	stw	r2,-12(fp)
    }
  } 
  return ret_code;  
 180bd28:	e0bffd17 	ldw	r2,-12(fp)
}
 180bd2c:	e037883a 	mov	sp,fp
 180bd30:	df000017 	ldw	fp,0(sp)
 180bd34:	dec00104 	addi	sp,sp,4
 180bd38:	f800283a 	ret

0180bd3c <alt_read_16bit_query_entry>:
 * read_16bit_query_entry
 * 
 * Read a 16 bit entry from the CFI Query table
 */
static alt_u16 alt_read_16bit_query_entry(alt_flash_cfi_dev* flash, int address)
{
 180bd3c:	defffb04 	addi	sp,sp,-20
 180bd40:	dfc00415 	stw	ra,16(sp)
 180bd44:	df000315 	stw	fp,12(sp)
 180bd48:	df000304 	addi	fp,sp,12
 180bd4c:	e13ffe15 	stw	r4,-8(fp)
 180bd50:	e17fff15 	stw	r5,-4(fp)
  alt_u16 ret_code;

  ret_code = (*flash->read_query)( flash, address);
 180bd54:	e0bffe17 	ldw	r2,-8(fp)
 180bd58:	10803417 	ldw	r2,208(r2)
 180bd5c:	e13ffe17 	ldw	r4,-8(fp)
 180bd60:	e17fff17 	ldw	r5,-4(fp)
 180bd64:	103ee83a 	callr	r2
 180bd68:	10803fcc 	andi	r2,r2,255
 180bd6c:	e0bffd0d 	sth	r2,-12(fp)
  ret_code |= (((int)(*flash->read_query)(flash, address+1)) << 8);                   
 180bd70:	e0bffe17 	ldw	r2,-8(fp)
 180bd74:	10c03417 	ldw	r3,208(r2)
 180bd78:	e0bfff17 	ldw	r2,-4(fp)
 180bd7c:	11400044 	addi	r5,r2,1
 180bd80:	e13ffe17 	ldw	r4,-8(fp)
 180bd84:	183ee83a 	callr	r3
 180bd88:	10803fcc 	andi	r2,r2,255
 180bd8c:	1004923a 	slli	r2,r2,8
 180bd90:	1007883a 	mov	r3,r2
 180bd94:	e0bffd0b 	ldhu	r2,-12(fp)
 180bd98:	1884b03a 	or	r2,r3,r2
 180bd9c:	e0bffd0d 	sth	r2,-12(fp)

  return ret_code;
 180bda0:	e0bffd0b 	ldhu	r2,-12(fp)
}
 180bda4:	e037883a 	mov	sp,fp
 180bda8:	dfc00117 	ldw	ra,4(sp)
 180bdac:	df000017 	ldw	fp,0(sp)
 180bdb0:	dec00204 	addi	sp,sp,8
 180bdb4:	f800283a 	ret

0180bdb8 <alt_read_cfi_table>:
 * read_cfi_table
 * 
 * Read the CFI Table
 */
int alt_read_cfi_table(alt_flash_cfi_dev* flash)
{
 180bdb8:	defff204 	addi	sp,sp,-56
 180bdbc:	dfc00d15 	stw	ra,52(sp)
 180bdc0:	df000c15 	stw	fp,48(sp)
 180bdc4:	dc000b15 	stw	r16,44(sp)
 180bdc8:	df000b04 	addi	fp,sp,44
 180bdcc:	e13fff15 	stw	r4,-4(fp)
  int   i,j;
  int   device_size;
  int   ret_code = 0;
 180bdd0:	e03ffb15 	stw	zero,-20(fp)
  int   size = 0;
 180bdd4:	e03ffa15 	stw	zero,-24(fp)
  int   swap;
  int   typical_timeout;
  int   max_timeout;
  int   offset = 0;
 180bdd8:	e03ff615 	stw	zero,-40(fp)
   
  /*
  * Check that the Primary Vendor Specific table
  * starts with the letters PRI                                                         
  */
  ret_code = alt_check_primary_table(flash);
 180bddc:	e13fff17 	ldw	r4,-4(fp)
 180bde0:	180cae40 	call	180cae4 <alt_check_primary_table>
 180bde4:	e0bffb15 	stw	r2,-20(fp)

  if (!ret_code)
 180bde8:	e0bffb17 	ldw	r2,-20(fp)
 180bdec:	1004c03a 	cmpne	r2,r2,zero
 180bdf0:	10014a1e 	bne	r2,zero,180c31c <alt_read_cfi_table+0x564>
  {
    flash->algorithm = (*flash->read_query)(flash, 0x13);
 180bdf4:	e0bfff17 	ldw	r2,-4(fp)
 180bdf8:	10803417 	ldw	r2,208(r2)
 180bdfc:	e13fff17 	ldw	r4,-4(fp)
 180be00:	014004c4 	movi	r5,19
 180be04:	103ee83a 	callr	r2
 180be08:	10c03fcc 	andi	r3,r2,255
 180be0c:	e0bfff17 	ldw	r2,-4(fp)
 180be10:	10c02d15 	stw	r3,180(r2)
  
    /* 
     * Let's read the write timeout values from the flash 
     * 
     */
    typical_timeout = (*flash->read_query)( flash, 0x1f);
 180be14:	e0bfff17 	ldw	r2,-4(fp)
 180be18:	10803417 	ldw	r2,208(r2)
 180be1c:	e13fff17 	ldw	r4,-4(fp)
 180be20:	014007c4 	movi	r5,31
 180be24:	103ee83a 	callr	r2
 180be28:	10803fcc 	andi	r2,r2,255
 180be2c:	e0bff815 	stw	r2,-32(fp)
    max_timeout = (*flash->read_query)( flash, 0x23);
 180be30:	e0bfff17 	ldw	r2,-4(fp)
 180be34:	10803417 	ldw	r2,208(r2)
 180be38:	e13fff17 	ldw	r4,-4(fp)
 180be3c:	014008c4 	movi	r5,35
 180be40:	103ee83a 	callr	r2
 180be44:	10803fcc 	andi	r2,r2,255
 180be48:	e0bff715 	stw	r2,-36(fp)
    
    if ((typical_timeout == 0 ) || (max_timeout == 0))
 180be4c:	e0bff817 	ldw	r2,-32(fp)
 180be50:	1005003a 	cmpeq	r2,r2,zero
 180be54:	1000031e 	bne	r2,zero,180be64 <alt_read_cfi_table+0xac>
 180be58:	e0bff717 	ldw	r2,-36(fp)
 180be5c:	1004c03a 	cmpne	r2,r2,zero
 180be60:	1000041e 	bne	r2,zero,180be74 <alt_read_cfi_table+0xbc>
    {
      flash->write_timeout = 1000; /* 1ms should be more than enough */
 180be64:	e0ffff17 	ldw	r3,-4(fp)
 180be68:	0080fa04 	movi	r2,1000
 180be6c:	18803015 	stw	r2,192(r3)
     * 
     */
    typical_timeout = (*flash->read_query)( flash, 0x1f);
    max_timeout = (*flash->read_query)( flash, 0x23);
    
    if ((typical_timeout == 0 ) || (max_timeout == 0))
 180be70:	00000706 	br	180be90 <alt_read_cfi_table+0xd8>
    {
      flash->write_timeout = 1000; /* 1ms should be more than enough */
    }
    else
    {
      flash->write_timeout = (1 << typical_timeout) * (1 << max_timeout);
 180be74:	00c00044 	movi	r3,1
 180be78:	e0bff817 	ldw	r2,-32(fp)
 180be7c:	1886983a 	sll	r3,r3,r2
 180be80:	e0bff717 	ldw	r2,-36(fp)
 180be84:	1886983a 	sll	r3,r3,r2
 180be88:	e0bfff17 	ldw	r2,-4(fp)
 180be8c:	10c03015 	stw	r3,192(r2)
    }
   
    /* Let's read the block erase timeout values from the flash */
    typical_timeout = (*flash->read_query)( flash, 0x21);
 180be90:	e0bfff17 	ldw	r2,-4(fp)
 180be94:	10803417 	ldw	r2,208(r2)
 180be98:	e13fff17 	ldw	r4,-4(fp)
 180be9c:	01400844 	movi	r5,33
 180bea0:	103ee83a 	callr	r2
 180bea4:	10803fcc 	andi	r2,r2,255
 180bea8:	e0bff815 	stw	r2,-32(fp)
    max_timeout = (*flash->read_query)( flash, 0x25);
 180beac:	e0bfff17 	ldw	r2,-4(fp)
 180beb0:	10803417 	ldw	r2,208(r2)
 180beb4:	e13fff17 	ldw	r4,-4(fp)
 180beb8:	01400944 	movi	r5,37
 180bebc:	103ee83a 	callr	r2
 180bec0:	10803fcc 	andi	r2,r2,255
 180bec4:	e0bff715 	stw	r2,-36(fp)
    
    if ((typical_timeout == 0 ) || (max_timeout == 0))
 180bec8:	e0bff817 	ldw	r2,-32(fp)
 180becc:	1005003a 	cmpeq	r2,r2,zero
 180bed0:	1000031e 	bne	r2,zero,180bee0 <alt_read_cfi_table+0x128>
 180bed4:	e0bff717 	ldw	r2,-36(fp)
 180bed8:	1004c03a 	cmpne	r2,r2,zero
 180bedc:	1000051e 	bne	r2,zero,180bef4 <alt_read_cfi_table+0x13c>
    {
      flash->erase_timeout = 20000000; /* 20s should be more than enough */
 180bee0:	e0ffff17 	ldw	r3,-4(fp)
 180bee4:	00804c74 	movhi	r2,305
 180bee8:	108b4004 	addi	r2,r2,11520
 180beec:	18803115 	stw	r2,196(r3)
   
    /* Let's read the block erase timeout values from the flash */
    typical_timeout = (*flash->read_query)( flash, 0x21);
    max_timeout = (*flash->read_query)( flash, 0x25);
    
    if ((typical_timeout == 0 ) || (max_timeout == 0))
 180bef0:	00000806 	br	180bf14 <alt_read_cfi_table+0x15c>
    {
      flash->erase_timeout = 20000000; /* 20s should be more than enough */
    }
    else
    {
      flash->erase_timeout = (1 << typical_timeout) * (1 << max_timeout) * 1000;
 180bef4:	00c00044 	movi	r3,1
 180bef8:	e0bff817 	ldw	r2,-32(fp)
 180befc:	1886983a 	sll	r3,r3,r2
 180bf00:	e0bff717 	ldw	r2,-36(fp)
 180bf04:	1884983a 	sll	r2,r3,r2
 180bf08:	10c0fa24 	muli	r3,r2,1000
 180bf0c:	e0bfff17 	ldw	r2,-4(fp)
 180bf10:	10c03115 	stw	r3,196(r2)
    }
   
    device_size = 0x1 << (*flash->read_query)( flash, 0x27);
 180bf14:	e0bfff17 	ldw	r2,-4(fp)
 180bf18:	10803417 	ldw	r2,208(r2)
 180bf1c:	e13fff17 	ldw	r4,-4(fp)
 180bf20:	014009c4 	movi	r5,39
 180bf24:	103ee83a 	callr	r2
 180bf28:	10c03fcc 	andi	r3,r2,255
 180bf2c:	00800044 	movi	r2,1
 180bf30:	10c4983a 	sll	r2,r2,r3
 180bf34:	e0bffc15 	stw	r2,-16(fp)
  
    flash->dev.number_of_regions = (*flash->read_query)(flash, 0x2c);
 180bf38:	e0bfff17 	ldw	r2,-4(fp)
 180bf3c:	10803417 	ldw	r2,208(r2)
 180bf40:	e13fff17 	ldw	r4,-4(fp)
 180bf44:	01400b04 	movi	r5,44
 180bf48:	103ee83a 	callr	r2
 180bf4c:	10c03fcc 	andi	r3,r2,255
 180bf50:	e0bfff17 	ldw	r2,-4(fp)
 180bf54:	10c00c15 	stw	r3,48(r2)
    
    if (flash->dev.number_of_regions > ALT_MAX_NUMBER_OF_FLASH_REGIONS)
 180bf58:	e0bfff17 	ldw	r2,-4(fp)
 180bf5c:	10800c17 	ldw	r2,48(r2)
 180bf60:	10800250 	cmplti	r2,r2,9
 180bf64:	1000031e 	bne	r2,zero,180bf74 <alt_read_cfi_table+0x1bc>
    {
      ret_code = -ENOMEM;
 180bf68:	00bffd04 	movi	r2,-12
 180bf6c:	e0bffb15 	stw	r2,-20(fp)
 180bf70:	00005e06 	br	180c0ec <alt_read_cfi_table+0x334>
    }
    else
    {
      for(i=0;i<flash->dev.number_of_regions;i++)
 180bf74:	e03ffe15 	stw	zero,-8(fp)
 180bf78:	00005306 	br	180c0c8 <alt_read_cfi_table+0x310>
      {
        flash->dev.region_info[i].number_of_blocks =  alt_read_16bit_query_entry( 
 180bf7c:	e43ffe17 	ldw	r16,-8(fp)
 180bf80:	e0bffe17 	ldw	r2,-8(fp)
 180bf84:	1085883a 	add	r2,r2,r2
 180bf88:	1085883a 	add	r2,r2,r2
 180bf8c:	11400b44 	addi	r5,r2,45
 180bf90:	e13fff17 	ldw	r4,-4(fp)
 180bf94:	180bd3c0 	call	180bd3c <alt_read_16bit_query_entry>
 180bf98:	113fffcc 	andi	r4,r2,65535
 180bf9c:	e0ffff17 	ldw	r3,-4(fp)
 180bfa0:	8004913a 	slli	r2,r16,4
 180bfa4:	10c5883a 	add	r2,r2,r3
 180bfa8:	10800f04 	addi	r2,r2,60
 180bfac:	11000015 	stw	r4,0(r2)
                                                            flash,
                                                            (0x2D+i*4));
        flash->dev.region_info[i].number_of_blocks += 1; 
 180bfb0:	e17ffe17 	ldw	r5,-8(fp)
 180bfb4:	e0bffe17 	ldw	r2,-8(fp)
 180bfb8:	e0ffff17 	ldw	r3,-4(fp)
 180bfbc:	1004913a 	slli	r2,r2,4
 180bfc0:	10c5883a 	add	r2,r2,r3
 180bfc4:	10800f04 	addi	r2,r2,60
 180bfc8:	10800017 	ldw	r2,0(r2)
 180bfcc:	11000044 	addi	r4,r2,1
 180bfd0:	e0ffff17 	ldw	r3,-4(fp)
 180bfd4:	2804913a 	slli	r2,r5,4
 180bfd8:	10c5883a 	add	r2,r2,r3
 180bfdc:	10800f04 	addi	r2,r2,60
 180bfe0:	11000015 	stw	r4,0(r2)
        flash->dev.region_info[i].block_size =  alt_read_16bit_query_entry( flash, 
 180bfe4:	e43ffe17 	ldw	r16,-8(fp)
 180bfe8:	e0bffe17 	ldw	r2,-8(fp)
 180bfec:	1085883a 	add	r2,r2,r2
 180bff0:	1085883a 	add	r2,r2,r2
 180bff4:	11400bc4 	addi	r5,r2,47
 180bff8:	e13fff17 	ldw	r4,-4(fp)
 180bffc:	180bd3c0 	call	180bd3c <alt_read_16bit_query_entry>
 180c000:	113fffcc 	andi	r4,r2,65535
 180c004:	e0ffff17 	ldw	r3,-4(fp)
 180c008:	8004913a 	slli	r2,r16,4
 180c00c:	10c5883a 	add	r2,r2,r3
 180c010:	10801004 	addi	r2,r2,64
 180c014:	11000015 	stw	r4,0(r2)
                                                              (0x2F+i*4));
        flash->dev.region_info[i].block_size *= 256;
 180c018:	e17ffe17 	ldw	r5,-8(fp)
 180c01c:	e0bffe17 	ldw	r2,-8(fp)
 180c020:	e0ffff17 	ldw	r3,-4(fp)
 180c024:	1004913a 	slli	r2,r2,4
 180c028:	10c5883a 	add	r2,r2,r3
 180c02c:	10801004 	addi	r2,r2,64
 180c030:	10800017 	ldw	r2,0(r2)
 180c034:	1008923a 	slli	r4,r2,8
 180c038:	e0ffff17 	ldw	r3,-4(fp)
 180c03c:	2804913a 	slli	r2,r5,4
 180c040:	10c5883a 	add	r2,r2,r3
 180c044:	10801004 	addi	r2,r2,64
 180c048:	11000015 	stw	r4,0(r2)
        flash->dev.region_info[i].region_size = 
 180c04c:	e17ffe17 	ldw	r5,-8(fp)
 180c050:	e0bffe17 	ldw	r2,-8(fp)
 180c054:	e0ffff17 	ldw	r3,-4(fp)
 180c058:	1004913a 	slli	r2,r2,4
 180c05c:	10c5883a 	add	r2,r2,r3
 180c060:	10800f04 	addi	r2,r2,60
 180c064:	11000017 	ldw	r4,0(r2)
 180c068:	e0bffe17 	ldw	r2,-8(fp)
 180c06c:	e0ffff17 	ldw	r3,-4(fp)
 180c070:	1004913a 	slli	r2,r2,4
 180c074:	10c5883a 	add	r2,r2,r3
 180c078:	10801004 	addi	r2,r2,64
 180c07c:	10800017 	ldw	r2,0(r2)
 180c080:	2089383a 	mul	r4,r4,r2
 180c084:	e0ffff17 	ldw	r3,-4(fp)
 180c088:	2804913a 	slli	r2,r5,4
 180c08c:	10c5883a 	add	r2,r2,r3
 180c090:	10800e04 	addi	r2,r2,56
 180c094:	11000015 	stw	r4,0(r2)
                                    flash->dev.region_info[i].number_of_blocks 
                                    * flash->dev.region_info[i].block_size;
        size += flash->dev.region_info[i].region_size;
 180c098:	e0bffe17 	ldw	r2,-8(fp)
 180c09c:	e0ffff17 	ldw	r3,-4(fp)
 180c0a0:	1004913a 	slli	r2,r2,4
 180c0a4:	10c5883a 	add	r2,r2,r3
 180c0a8:	10800e04 	addi	r2,r2,56
 180c0ac:	10c00017 	ldw	r3,0(r2)
 180c0b0:	e0bffa17 	ldw	r2,-24(fp)
 180c0b4:	10c5883a 	add	r2,r2,r3
 180c0b8:	e0bffa15 	stw	r2,-24(fp)
    {
      ret_code = -ENOMEM;
    }
    else
    {
      for(i=0;i<flash->dev.number_of_regions;i++)
 180c0bc:	e0bffe17 	ldw	r2,-8(fp)
 180c0c0:	10800044 	addi	r2,r2,1
 180c0c4:	e0bffe15 	stw	r2,-8(fp)
 180c0c8:	e0bfff17 	ldw	r2,-4(fp)
 180c0cc:	10c00c17 	ldw	r3,48(r2)
 180c0d0:	e0bffe17 	ldw	r2,-8(fp)
 180c0d4:	10ffa916 	blt	r2,r3,180bf7c <alt_read_cfi_table+0x1c4>
                                    flash->dev.region_info[i].number_of_blocks 
                                    * flash->dev.region_info[i].block_size;
        size += flash->dev.region_info[i].region_size;
      }
       
      if (size != device_size)
 180c0d8:	e0fffa17 	ldw	r3,-24(fp)
 180c0dc:	e0bffc17 	ldw	r2,-16(fp)
 180c0e0:	18800226 	beq	r3,r2,180c0ec <alt_read_cfi_table+0x334>
      {
        ret_code = -ENODEV;
 180c0e4:	00bffb44 	movi	r2,-19
 180c0e8:	e0bffb15 	stw	r2,-20(fp)
      }
    }
    
    boot_mode = (*flash->read_query)( flash, flash->primary_address + 0xf);
 180c0ec:	e0bfff17 	ldw	r2,-4(fp)
 180c0f0:	10c03417 	ldw	r3,208(r2)
 180c0f4:	e0bfff17 	ldw	r2,-4(fp)
 180c0f8:	10803217 	ldw	r2,200(r2)
 180c0fc:	114003c4 	addi	r5,r2,15
 180c100:	e13fff17 	ldw	r4,-4(fp)
 180c104:	183ee83a 	callr	r3
 180c108:	e0bff505 	stb	r2,-44(fp)
     * Intel Flash parts describe the sections in the order they appear
     * for AMD they just put all the small ones first then the bigger ones
     * So if it's a top boot part we have to reverse the order of the sectors
     * so they're in the correct order
     */
    if ((flash->algorithm == CFI_ALG_AMD) && (boot_mode == TOP_BOOT_DEVICE))
 180c10c:	e0bfff17 	ldw	r2,-4(fp)
 180c110:	10802d17 	ldw	r2,180(r2)
 180c114:	10800098 	cmpnei	r2,r2,2
 180c118:	1000601e 	bne	r2,zero,180c29c <alt_read_cfi_table+0x4e4>
 180c11c:	e0bff503 	ldbu	r2,-44(fp)
 180c120:	108000d8 	cmpnei	r2,r2,3
 180c124:	10005d1e 	bne	r2,zero,180c29c <alt_read_cfi_table+0x4e4>
    {
      for(i=flash->dev.number_of_regions-1, j=0;
 180c128:	e0bfff17 	ldw	r2,-4(fp)
 180c12c:	10800c17 	ldw	r2,48(r2)
 180c130:	10bfffc4 	addi	r2,r2,-1
 180c134:	e0bffe15 	stw	r2,-8(fp)
 180c138:	e03ffd15 	stw	zero,-12(fp)
          j<=i;i--,j++)
 180c13c:	00005406 	br	180c290 <alt_read_cfi_table+0x4d8>
      {
        swap = flash->dev.region_info[i].region_size;
 180c140:	e0bffe17 	ldw	r2,-8(fp)
 180c144:	e0ffff17 	ldw	r3,-4(fp)
 180c148:	1004913a 	slli	r2,r2,4
 180c14c:	10c5883a 	add	r2,r2,r3
 180c150:	10800e04 	addi	r2,r2,56
 180c154:	10800017 	ldw	r2,0(r2)
 180c158:	e0bff915 	stw	r2,-28(fp)
        flash->dev.region_info[i].region_size =  
 180c15c:	e17ffe17 	ldw	r5,-8(fp)
 180c160:	e0bffd17 	ldw	r2,-12(fp)
 180c164:	e0ffff17 	ldw	r3,-4(fp)
 180c168:	1004913a 	slli	r2,r2,4
 180c16c:	10c5883a 	add	r2,r2,r3
 180c170:	10800e04 	addi	r2,r2,56
 180c174:	11000017 	ldw	r4,0(r2)
 180c178:	e0ffff17 	ldw	r3,-4(fp)
 180c17c:	2804913a 	slli	r2,r5,4
 180c180:	10c5883a 	add	r2,r2,r3
 180c184:	10800e04 	addi	r2,r2,56
 180c188:	11000015 	stw	r4,0(r2)
                                flash->dev.region_info[j].region_size;
        flash->dev.region_info[j].region_size = swap;
 180c18c:	e0bffd17 	ldw	r2,-12(fp)
 180c190:	e0ffff17 	ldw	r3,-4(fp)
 180c194:	1004913a 	slli	r2,r2,4
 180c198:	10c5883a 	add	r2,r2,r3
 180c19c:	10c00e04 	addi	r3,r2,56
 180c1a0:	e0bff917 	ldw	r2,-28(fp)
 180c1a4:	18800015 	stw	r2,0(r3)

        swap = flash->dev.region_info[i].block_size;
 180c1a8:	e0bffe17 	ldw	r2,-8(fp)
 180c1ac:	e0ffff17 	ldw	r3,-4(fp)
 180c1b0:	1004913a 	slli	r2,r2,4
 180c1b4:	10c5883a 	add	r2,r2,r3
 180c1b8:	10801004 	addi	r2,r2,64
 180c1bc:	10800017 	ldw	r2,0(r2)
 180c1c0:	e0bff915 	stw	r2,-28(fp)
        flash->dev.region_info[i].block_size =  
 180c1c4:	e17ffe17 	ldw	r5,-8(fp)
 180c1c8:	e0bffd17 	ldw	r2,-12(fp)
 180c1cc:	e0ffff17 	ldw	r3,-4(fp)
 180c1d0:	1004913a 	slli	r2,r2,4
 180c1d4:	10c5883a 	add	r2,r2,r3
 180c1d8:	10801004 	addi	r2,r2,64
 180c1dc:	11000017 	ldw	r4,0(r2)
 180c1e0:	e0ffff17 	ldw	r3,-4(fp)
 180c1e4:	2804913a 	slli	r2,r5,4
 180c1e8:	10c5883a 	add	r2,r2,r3
 180c1ec:	10801004 	addi	r2,r2,64
 180c1f0:	11000015 	stw	r4,0(r2)
                                flash->dev.region_info[j].block_size;
        flash->dev.region_info[j].block_size = swap;
 180c1f4:	e0bffd17 	ldw	r2,-12(fp)
 180c1f8:	e0ffff17 	ldw	r3,-4(fp)
 180c1fc:	1004913a 	slli	r2,r2,4
 180c200:	10c5883a 	add	r2,r2,r3
 180c204:	10c01004 	addi	r3,r2,64
 180c208:	e0bff917 	ldw	r2,-28(fp)
 180c20c:	18800015 	stw	r2,0(r3)
 
        swap = flash->dev.region_info[i].number_of_blocks;
 180c210:	e0bffe17 	ldw	r2,-8(fp)
 180c214:	e0ffff17 	ldw	r3,-4(fp)
 180c218:	1004913a 	slli	r2,r2,4
 180c21c:	10c5883a 	add	r2,r2,r3
 180c220:	10800f04 	addi	r2,r2,60
 180c224:	10800017 	ldw	r2,0(r2)
 180c228:	e0bff915 	stw	r2,-28(fp)
        flash->dev.region_info[i].number_of_blocks =  
 180c22c:	e17ffe17 	ldw	r5,-8(fp)
 180c230:	e0bffd17 	ldw	r2,-12(fp)
 180c234:	e0ffff17 	ldw	r3,-4(fp)
 180c238:	1004913a 	slli	r2,r2,4
 180c23c:	10c5883a 	add	r2,r2,r3
 180c240:	10800f04 	addi	r2,r2,60
 180c244:	11000017 	ldw	r4,0(r2)
 180c248:	e0ffff17 	ldw	r3,-4(fp)
 180c24c:	2804913a 	slli	r2,r5,4
 180c250:	10c5883a 	add	r2,r2,r3
 180c254:	10800f04 	addi	r2,r2,60
 180c258:	11000015 	stw	r4,0(r2)
                                flash->dev.region_info[j].number_of_blocks;
        flash->dev.region_info[j].number_of_blocks = swap;
 180c25c:	e0bffd17 	ldw	r2,-12(fp)
 180c260:	e0ffff17 	ldw	r3,-4(fp)
 180c264:	1004913a 	slli	r2,r2,4
 180c268:	10c5883a 	add	r2,r2,r3
 180c26c:	10c00f04 	addi	r3,r2,60
 180c270:	e0bff917 	ldw	r2,-28(fp)
 180c274:	18800015 	stw	r2,0(r3)
     * so they're in the correct order
     */
    if ((flash->algorithm == CFI_ALG_AMD) && (boot_mode == TOP_BOOT_DEVICE))
    {
      for(i=flash->dev.number_of_regions-1, j=0;
          j<=i;i--,j++)
 180c278:	e0bffe17 	ldw	r2,-8(fp)
 180c27c:	10bfffc4 	addi	r2,r2,-1
 180c280:	e0bffe15 	stw	r2,-8(fp)
 180c284:	e0bffd17 	ldw	r2,-12(fp)
 180c288:	10800044 	addi	r2,r2,1
 180c28c:	e0bffd15 	stw	r2,-12(fp)
 180c290:	e0fffd17 	ldw	r3,-12(fp)
 180c294:	e0bffe17 	ldw	r2,-8(fp)
 180c298:	10ffa90e 	bge	r2,r3,180c140 <alt_read_cfi_table+0x388>
        flash->dev.region_info[j].number_of_blocks = swap;

      } 
    }
    
    for(i=0;i<flash->dev.number_of_regions;i++)
 180c29c:	e03ffe15 	stw	zero,-8(fp)
 180c2a0:	00001306 	br	180c2f0 <alt_read_cfi_table+0x538>
    {
      flash->dev.region_info[i].offset = offset;
 180c2a4:	e0bffe17 	ldw	r2,-8(fp)
 180c2a8:	e0ffff17 	ldw	r3,-4(fp)
 180c2ac:	1004913a 	slli	r2,r2,4
 180c2b0:	10c5883a 	add	r2,r2,r3
 180c2b4:	10c00d04 	addi	r3,r2,52
 180c2b8:	e0bff617 	ldw	r2,-40(fp)
 180c2bc:	18800015 	stw	r2,0(r3)
      offset += flash->dev.region_info[i].region_size;
 180c2c0:	e0bffe17 	ldw	r2,-8(fp)
 180c2c4:	e0ffff17 	ldw	r3,-4(fp)
 180c2c8:	1004913a 	slli	r2,r2,4
 180c2cc:	10c5883a 	add	r2,r2,r3
 180c2d0:	10800e04 	addi	r2,r2,56
 180c2d4:	10c00017 	ldw	r3,0(r2)
 180c2d8:	e0bff617 	ldw	r2,-40(fp)
 180c2dc:	10c5883a 	add	r2,r2,r3
 180c2e0:	e0bff615 	stw	r2,-40(fp)
        flash->dev.region_info[j].number_of_blocks = swap;

      } 
    }
    
    for(i=0;i<flash->dev.number_of_regions;i++)
 180c2e4:	e0bffe17 	ldw	r2,-8(fp)
 180c2e8:	10800044 	addi	r2,r2,1
 180c2ec:	e0bffe15 	stw	r2,-8(fp)
 180c2f0:	e0bfff17 	ldw	r2,-4(fp)
 180c2f4:	10c00c17 	ldw	r3,48(r2)
 180c2f8:	e0bffe17 	ldw	r2,-8(fp)
 180c2fc:	10ffe916 	blt	r2,r3,180c2a4 <alt_read_cfi_table+0x4ec>
    {
      flash->dev.region_info[i].offset = offset;
      offset += flash->dev.region_info[i].region_size;
    }
    
    (*flash->write_command)(flash->dev.base_addr, 
 180c300:	e0bfff17 	ldw	r2,-4(fp)
 180c304:	10c03317 	ldw	r3,204(r2)
 180c308:	e0bfff17 	ldw	r2,-4(fp)
 180c30c:	11000a17 	ldw	r4,40(r2)
 180c310:	01401544 	movi	r5,85
 180c314:	01803fc4 	movi	r6,255
 180c318:	183ee83a 	callr	r3
                            0x55, 
                            READ_ARRAY_MODE);
  }  

  return ret_code;
 180c31c:	e0bffb17 	ldw	r2,-20(fp)
}
 180c320:	e037883a 	mov	sp,fp
 180c324:	dfc00217 	ldw	ra,8(sp)
 180c328:	df000117 	ldw	fp,4(sp)
 180c32c:	dc000017 	ldw	r16,0(sp)
 180c330:	dec00304 	addi	sp,sp,12
 180c334:	f800283a 	ret

0180c338 <alt_read_cfi_width>:
 * 
 * Work out the width of the device we're talking to and sanity check that we  
 * can read the CFI and the Primary Vendor specific Table
 */
int alt_read_cfi_width(alt_flash_cfi_dev* flash)
{
 180c338:	defff704 	addi	sp,sp,-36
 180c33c:	dfc00815 	stw	ra,32(sp)
 180c340:	df000715 	stw	fp,28(sp)
 180c344:	df000704 	addi	fp,sp,28
 180c348:	e13fff15 	stw	r4,-4(fp)
  int i;
  alt_u8 byte_id[12];
  alt_u16 iface;
  int ret_code = 0;
 180c34c:	e03ff915 	stw	zero,-28(fp)

  /*
  * Check for 8 bit wide flash
  */
  alt_write_flash_command_8bit_device_8bit_mode(flash->dev.base_addr, 0x55, QUERY_MODE);
 180c350:	e0bfff17 	ldw	r2,-4(fp)
 180c354:	11000a17 	ldw	r4,40(r2)
 180c358:	01401544 	movi	r5,85
 180c35c:	01802604 	movi	r6,152
 180c360:	180b8440 	call	180b844 <alt_write_flash_command_8bit_device_8bit_mode>

  for(i=0;i<3;i++)
 180c364:	e03ffb15 	stw	zero,-20(fp)
 180c368:	00000f06 	br	180c3a8 <alt_read_cfi_width+0x70>
  {
    byte_id[i] = IORD_8DIRECT(flash->dev.base_addr, QUERY_ADDR+i);
 180c36c:	e13ffb17 	ldw	r4,-20(fp)
 180c370:	e0bfff17 	ldw	r2,-4(fp)
 180c374:	10800a17 	ldw	r2,40(r2)
 180c378:	1007883a 	mov	r3,r2
 180c37c:	e0bffb17 	ldw	r2,-20(fp)
 180c380:	1885883a 	add	r2,r3,r2
 180c384:	10800404 	addi	r2,r2,16
 180c388:	10800023 	ldbuio	r2,0(r2)
 180c38c:	1007883a 	mov	r3,r2
 180c390:	e0bffc04 	addi	r2,fp,-16
 180c394:	1105883a 	add	r2,r2,r4
 180c398:	10c00005 	stb	r3,0(r2)
  /*
  * Check for 8 bit wide flash
  */
  alt_write_flash_command_8bit_device_8bit_mode(flash->dev.base_addr, 0x55, QUERY_MODE);

  for(i=0;i<3;i++)
 180c39c:	e0bffb17 	ldw	r2,-20(fp)
 180c3a0:	10800044 	addi	r2,r2,1
 180c3a4:	e0bffb15 	stw	r2,-20(fp)
 180c3a8:	e0bffb17 	ldw	r2,-20(fp)
 180c3ac:	108000d0 	cmplti	r2,r2,3
 180c3b0:	103fee1e 	bne	r2,zero,180c36c <alt_read_cfi_width+0x34>
  {
    byte_id[i] = IORD_8DIRECT(flash->dev.base_addr, QUERY_ADDR+i);
  }

  if ((byte_id[0] == 'Q') &&
 180c3b4:	e0bffc03 	ldbu	r2,-16(fp)
 180c3b8:	10803fcc 	andi	r2,r2,255
 180c3bc:	10801458 	cmpnei	r2,r2,81
 180c3c0:	10001d1e 	bne	r2,zero,180c438 <alt_read_cfi_width+0x100>
 180c3c4:	e0bffc43 	ldbu	r2,-15(fp)
 180c3c8:	10803fcc 	andi	r2,r2,255
 180c3cc:	10801498 	cmpnei	r2,r2,82
 180c3d0:	1000191e 	bne	r2,zero,180c438 <alt_read_cfi_width+0x100>
 180c3d4:	e0bffc83 	ldbu	r2,-14(fp)
 180c3d8:	10803fcc 	andi	r2,r2,255
 180c3dc:	10801658 	cmpnei	r2,r2,89
 180c3e0:	1000151e 	bne	r2,zero,180c438 <alt_read_cfi_width+0x100>
      (byte_id[1] == 'R') &&
      (byte_id[2] == 'Y'))
  {
    flash->mode_width = 1;
 180c3e4:	e0ffff17 	ldw	r3,-4(fp)
 180c3e8:	00800044 	movi	r2,1
 180c3ec:	18802e15 	stw	r2,184(r3)
    flash->device_width = 1; 
 180c3f0:	e0ffff17 	ldw	r3,-4(fp)
 180c3f4:	00800044 	movi	r2,1
 180c3f8:	18802f15 	stw	r2,188(r3)
    iface = IORD_16DIRECT(flash->dev.base_addr, INTERFACE_ADDR);
 180c3fc:	e0bfff17 	ldw	r2,-4(fp)
 180c400:	10800a17 	ldw	r2,40(r2)
 180c404:	10800a04 	addi	r2,r2,40
 180c408:	1080002b 	ldhuio	r2,0(r2)
 180c40c:	e0bffa0d 	sth	r2,-24(fp)
    iface += 1;
 180c410:	e0bffa0b 	ldhu	r2,-24(fp)
 180c414:	10800044 	addi	r2,r2,1
 180c418:	e0bffa0d 	sth	r2,-24(fp)
    if (!(iface & 0x1))
 180c41c:	e0bffa0b 	ldhu	r2,-24(fp)
 180c420:	1080004c 	andi	r2,r2,1
 180c424:	1004c03a 	cmpne	r2,r2,zero
 180c428:	1001a81e 	bne	r2,zero,180cacc <alt_read_cfi_width+0x794>
    {
      ret_code = -ENODEV;
 180c42c:	00bffb44 	movi	r2,-19
 180c430:	e0bff915 	stw	r2,-28(fp)
  for(i=0;i<3;i++)
  {
    byte_id[i] = IORD_8DIRECT(flash->dev.base_addr, QUERY_ADDR+i);
  }

  if ((byte_id[0] == 'Q') &&
 180c434:	0001a506 	br	180cacc <alt_read_cfi_width+0x794>
  else
  {
    /*
    * Check for 8/16 bit in byte wide mode
    */
    alt_write_flash_command_16bit_device_8bit_mode(flash->dev.base_addr, 0x55, QUERY_MODE);
 180c438:	e0bfff17 	ldw	r2,-4(fp)
 180c43c:	11000a17 	ldw	r4,40(r2)
 180c440:	01401544 	movi	r5,85
 180c444:	01802604 	movi	r6,152
 180c448:	180b8800 	call	180b880 <alt_write_flash_command_16bit_device_8bit_mode>
    for(i=0;i<6;i++)
 180c44c:	e03ffb15 	stw	zero,-20(fp)
 180c450:	00000f06 	br	180c490 <alt_read_cfi_width+0x158>
    {
      byte_id[i] = IORD_8DIRECT(flash->dev.base_addr, (QUERY_ADDR*2)+i);
 180c454:	e13ffb17 	ldw	r4,-20(fp)
 180c458:	e0bfff17 	ldw	r2,-4(fp)
 180c45c:	10800a17 	ldw	r2,40(r2)
 180c460:	1007883a 	mov	r3,r2
 180c464:	e0bffb17 	ldw	r2,-20(fp)
 180c468:	1885883a 	add	r2,r3,r2
 180c46c:	10800804 	addi	r2,r2,32
 180c470:	10800023 	ldbuio	r2,0(r2)
 180c474:	1007883a 	mov	r3,r2
 180c478:	e0bffc04 	addi	r2,fp,-16
 180c47c:	1105883a 	add	r2,r2,r4
 180c480:	10c00005 	stb	r3,0(r2)
  {
    /*
    * Check for 8/16 bit in byte wide mode
    */
    alt_write_flash_command_16bit_device_8bit_mode(flash->dev.base_addr, 0x55, QUERY_MODE);
    for(i=0;i<6;i++)
 180c484:	e0bffb17 	ldw	r2,-20(fp)
 180c488:	10800044 	addi	r2,r2,1
 180c48c:	e0bffb15 	stw	r2,-20(fp)
 180c490:	e0bffb17 	ldw	r2,-20(fp)
 180c494:	10800190 	cmplti	r2,r2,6
 180c498:	103fee1e 	bne	r2,zero,180c454 <alt_read_cfi_width+0x11c>
    {
      byte_id[i] = IORD_8DIRECT(flash->dev.base_addr, (QUERY_ADDR*2)+i);
    }

    if ((byte_id[0] == 'Q') && 
 180c49c:	e0bffc03 	ldbu	r2,-16(fp)
 180c4a0:	10803fcc 	andi	r2,r2,255
 180c4a4:	10801458 	cmpnei	r2,r2,81
 180c4a8:	1000291e 	bne	r2,zero,180c550 <alt_read_cfi_width+0x218>
 180c4ac:	e0bffc43 	ldbu	r2,-15(fp)
 180c4b0:	10803fcc 	andi	r2,r2,255
 180c4b4:	10801458 	cmpnei	r2,r2,81
 180c4b8:	1000251e 	bne	r2,zero,180c550 <alt_read_cfi_width+0x218>
 180c4bc:	e0bffc83 	ldbu	r2,-14(fp)
 180c4c0:	10803fcc 	andi	r2,r2,255
 180c4c4:	10801498 	cmpnei	r2,r2,82
 180c4c8:	1000211e 	bne	r2,zero,180c550 <alt_read_cfi_width+0x218>
 180c4cc:	e0bffcc3 	ldbu	r2,-13(fp)
 180c4d0:	10803fcc 	andi	r2,r2,255
 180c4d4:	10801498 	cmpnei	r2,r2,82
 180c4d8:	10001d1e 	bne	r2,zero,180c550 <alt_read_cfi_width+0x218>
 180c4dc:	e0bffd03 	ldbu	r2,-12(fp)
 180c4e0:	10803fcc 	andi	r2,r2,255
 180c4e4:	10801658 	cmpnei	r2,r2,89
 180c4e8:	1000191e 	bne	r2,zero,180c550 <alt_read_cfi_width+0x218>
 180c4ec:	e0bffd43 	ldbu	r2,-11(fp)
 180c4f0:	10803fcc 	andi	r2,r2,255
 180c4f4:	10801658 	cmpnei	r2,r2,89
 180c4f8:	1000151e 	bne	r2,zero,180c550 <alt_read_cfi_width+0x218>
        (byte_id[2] == 'R') &&
        (byte_id[3] == 'R') && 
        (byte_id[4] == 'Y') && 
        (byte_id[5] == 'Y'))
    {
      flash->mode_width = 1;
 180c4fc:	e0ffff17 	ldw	r3,-4(fp)
 180c500:	00800044 	movi	r2,1
 180c504:	18802e15 	stw	r2,184(r3)
      flash->device_width = 2; 
 180c508:	e0ffff17 	ldw	r3,-4(fp)
 180c50c:	00800084 	movi	r2,2
 180c510:	18802f15 	stw	r2,188(r3)
      iface = IORD_16DIRECT(flash->dev.base_addr, INTERFACE_ADDR*2);
 180c514:	e0bfff17 	ldw	r2,-4(fp)
 180c518:	10800a17 	ldw	r2,40(r2)
 180c51c:	10801404 	addi	r2,r2,80
 180c520:	1080002b 	ldhuio	r2,0(r2)
 180c524:	e0bffa0d 	sth	r2,-24(fp)
      iface += 1;
 180c528:	e0bffa0b 	ldhu	r2,-24(fp)
 180c52c:	10800044 	addi	r2,r2,1
 180c530:	e0bffa0d 	sth	r2,-24(fp)
      if (!(iface & 0x1))
 180c534:	e0bffa0b 	ldhu	r2,-24(fp)
 180c538:	1080004c 	andi	r2,r2,1
 180c53c:	1004c03a 	cmpne	r2,r2,zero
 180c540:	1001621e 	bne	r2,zero,180cacc <alt_read_cfi_width+0x794>
      {
        ret_code = -ENODEV;
 180c544:	00bffb44 	movi	r2,-19
 180c548:	e0bff915 	stw	r2,-28(fp)
    for(i=0;i<6;i++)
    {
      byte_id[i] = IORD_8DIRECT(flash->dev.base_addr, (QUERY_ADDR*2)+i);
    }

    if ((byte_id[0] == 'Q') && 
 180c54c:	00015f06 	br	180cacc <alt_read_cfi_width+0x794>
    else
    {
      /*
      * Check for 16 bit flash in word mode
      */
      alt_write_flash_command_16bit_device_16bit_mode(flash->dev.base_addr, 0x55, QUERY_MODE);
 180c550:	e0bfff17 	ldw	r2,-4(fp)
 180c554:	11000a17 	ldw	r4,40(r2)
 180c558:	01401544 	movi	r5,85
 180c55c:	01802604 	movi	r6,152
 180c560:	180b9440 	call	180b944 <alt_write_flash_command_16bit_device_16bit_mode>
      for(i=0;i<6;i++)
 180c564:	e03ffb15 	stw	zero,-20(fp)
 180c568:	00000f06 	br	180c5a8 <alt_read_cfi_width+0x270>
      {
        byte_id[i] = IORD_8DIRECT(flash->dev.base_addr, (QUERY_ADDR*2)+i);
 180c56c:	e13ffb17 	ldw	r4,-20(fp)
 180c570:	e0bfff17 	ldw	r2,-4(fp)
 180c574:	10800a17 	ldw	r2,40(r2)
 180c578:	1007883a 	mov	r3,r2
 180c57c:	e0bffb17 	ldw	r2,-20(fp)
 180c580:	1885883a 	add	r2,r3,r2
 180c584:	10800804 	addi	r2,r2,32
 180c588:	10800023 	ldbuio	r2,0(r2)
 180c58c:	1007883a 	mov	r3,r2
 180c590:	e0bffc04 	addi	r2,fp,-16
 180c594:	1105883a 	add	r2,r2,r4
 180c598:	10c00005 	stb	r3,0(r2)
    {
      /*
      * Check for 16 bit flash in word mode
      */
      alt_write_flash_command_16bit_device_16bit_mode(flash->dev.base_addr, 0x55, QUERY_MODE);
      for(i=0;i<6;i++)
 180c59c:	e0bffb17 	ldw	r2,-20(fp)
 180c5a0:	10800044 	addi	r2,r2,1
 180c5a4:	e0bffb15 	stw	r2,-20(fp)
 180c5a8:	e0bffb17 	ldw	r2,-20(fp)
 180c5ac:	10800190 	cmplti	r2,r2,6
 180c5b0:	103fee1e 	bne	r2,zero,180c56c <alt_read_cfi_width+0x234>
      {
        byte_id[i] = IORD_8DIRECT(flash->dev.base_addr, (QUERY_ADDR*2)+i);
      }

      if ((byte_id[0] == 'Q') && 
 180c5b4:	e0bffc03 	ldbu	r2,-16(fp)
 180c5b8:	10803fcc 	andi	r2,r2,255
 180c5bc:	10801458 	cmpnei	r2,r2,81
 180c5c0:	1000291e 	bne	r2,zero,180c668 <alt_read_cfi_width+0x330>
 180c5c4:	e0bffc43 	ldbu	r2,-15(fp)
 180c5c8:	10803fcc 	andi	r2,r2,255
 180c5cc:	1004c03a 	cmpne	r2,r2,zero
 180c5d0:	1000251e 	bne	r2,zero,180c668 <alt_read_cfi_width+0x330>
 180c5d4:	e0bffc83 	ldbu	r2,-14(fp)
 180c5d8:	10803fcc 	andi	r2,r2,255
 180c5dc:	10801498 	cmpnei	r2,r2,82
 180c5e0:	1000211e 	bne	r2,zero,180c668 <alt_read_cfi_width+0x330>
 180c5e4:	e0bffcc3 	ldbu	r2,-13(fp)
 180c5e8:	10803fcc 	andi	r2,r2,255
 180c5ec:	1004c03a 	cmpne	r2,r2,zero
 180c5f0:	10001d1e 	bne	r2,zero,180c668 <alt_read_cfi_width+0x330>
 180c5f4:	e0bffd03 	ldbu	r2,-12(fp)
 180c5f8:	10803fcc 	andi	r2,r2,255
 180c5fc:	10801658 	cmpnei	r2,r2,89
 180c600:	1000191e 	bne	r2,zero,180c668 <alt_read_cfi_width+0x330>
 180c604:	e0bffd43 	ldbu	r2,-11(fp)
 180c608:	10803fcc 	andi	r2,r2,255
 180c60c:	1004c03a 	cmpne	r2,r2,zero
 180c610:	1000151e 	bne	r2,zero,180c668 <alt_read_cfi_width+0x330>
          (byte_id[2] == 'R') && 
          (byte_id[3] == '\0') && 
          (byte_id[4] == 'Y') && 
          (byte_id[5] == '\0'))
      {
        flash->mode_width = 2;
 180c614:	e0ffff17 	ldw	r3,-4(fp)
 180c618:	00800084 	movi	r2,2
 180c61c:	18802e15 	stw	r2,184(r3)
        flash->device_width = 2; 
 180c620:	e0ffff17 	ldw	r3,-4(fp)
 180c624:	00800084 	movi	r2,2
 180c628:	18802f15 	stw	r2,188(r3)
        iface = IORD_16DIRECT(flash->dev.base_addr, INTERFACE_ADDR*2);
 180c62c:	e0bfff17 	ldw	r2,-4(fp)
 180c630:	10800a17 	ldw	r2,40(r2)
 180c634:	10801404 	addi	r2,r2,80
 180c638:	1080002b 	ldhuio	r2,0(r2)
 180c63c:	e0bffa0d 	sth	r2,-24(fp)
        iface += 1;
 180c640:	e0bffa0b 	ldhu	r2,-24(fp)
 180c644:	10800044 	addi	r2,r2,1
 180c648:	e0bffa0d 	sth	r2,-24(fp)
        if (!(iface & 0x2))
 180c64c:	e0bffa0b 	ldhu	r2,-24(fp)
 180c650:	1080008c 	andi	r2,r2,2
 180c654:	1004c03a 	cmpne	r2,r2,zero
 180c658:	10011c1e 	bne	r2,zero,180cacc <alt_read_cfi_width+0x794>
        {
          ret_code = -ENODEV;
 180c65c:	00bffb44 	movi	r2,-19
 180c660:	e0bff915 	stw	r2,-28(fp)
      for(i=0;i<6;i++)
      {
        byte_id[i] = IORD_8DIRECT(flash->dev.base_addr, (QUERY_ADDR*2)+i);
      }

      if ((byte_id[0] == 'Q') && 
 180c664:	00011906 	br	180cacc <alt_read_cfi_width+0x794>
      else
      {
        /*
        * Check for 32bit wide flash in 32 bit mode
        */
        alt_write_flash_command_32bit_device_32bit_mode(flash->dev.base_addr, 0x55, QUERY_MODE);
 180c668:	e0bfff17 	ldw	r2,-4(fp)
 180c66c:	11000a17 	ldw	r4,40(r2)
 180c670:	01401544 	movi	r5,85
 180c674:	01802604 	movi	r6,152
 180c678:	180b9d00 	call	180b9d0 <alt_write_flash_command_32bit_device_32bit_mode>
        for(i=0;i<12;i++)
 180c67c:	e03ffb15 	stw	zero,-20(fp)
 180c680:	00000f06 	br	180c6c0 <alt_read_cfi_width+0x388>
        {
          byte_id[i] = IORD_8DIRECT(flash->dev.base_addr, (QUERY_ADDR*4)+i);
 180c684:	e13ffb17 	ldw	r4,-20(fp)
 180c688:	e0bfff17 	ldw	r2,-4(fp)
 180c68c:	10800a17 	ldw	r2,40(r2)
 180c690:	1007883a 	mov	r3,r2
 180c694:	e0bffb17 	ldw	r2,-20(fp)
 180c698:	1885883a 	add	r2,r3,r2
 180c69c:	10801004 	addi	r2,r2,64
 180c6a0:	10800023 	ldbuio	r2,0(r2)
 180c6a4:	1007883a 	mov	r3,r2
 180c6a8:	e0bffc04 	addi	r2,fp,-16
 180c6ac:	1105883a 	add	r2,r2,r4
 180c6b0:	10c00005 	stb	r3,0(r2)
      {
        /*
        * Check for 32bit wide flash in 32 bit mode
        */
        alt_write_flash_command_32bit_device_32bit_mode(flash->dev.base_addr, 0x55, QUERY_MODE);
        for(i=0;i<12;i++)
 180c6b4:	e0bffb17 	ldw	r2,-20(fp)
 180c6b8:	10800044 	addi	r2,r2,1
 180c6bc:	e0bffb15 	stw	r2,-20(fp)
 180c6c0:	e0bffb17 	ldw	r2,-20(fp)
 180c6c4:	10800310 	cmplti	r2,r2,12
 180c6c8:	103fee1e 	bne	r2,zero,180c684 <alt_read_cfi_width+0x34c>
        {
          byte_id[i] = IORD_8DIRECT(flash->dev.base_addr, (QUERY_ADDR*4)+i);
        }

        if ((byte_id[0] == 'Q') &&
 180c6cc:	e0bffc03 	ldbu	r2,-16(fp)
 180c6d0:	10803fcc 	andi	r2,r2,255
 180c6d4:	10801458 	cmpnei	r2,r2,81
 180c6d8:	1000411e 	bne	r2,zero,180c7e0 <alt_read_cfi_width+0x4a8>
 180c6dc:	e0bffc43 	ldbu	r2,-15(fp)
 180c6e0:	10803fcc 	andi	r2,r2,255
 180c6e4:	1004c03a 	cmpne	r2,r2,zero
 180c6e8:	10003d1e 	bne	r2,zero,180c7e0 <alt_read_cfi_width+0x4a8>
 180c6ec:	e0bffc83 	ldbu	r2,-14(fp)
 180c6f0:	10803fcc 	andi	r2,r2,255
 180c6f4:	1004c03a 	cmpne	r2,r2,zero
 180c6f8:	1000391e 	bne	r2,zero,180c7e0 <alt_read_cfi_width+0x4a8>
 180c6fc:	e0bffcc3 	ldbu	r2,-13(fp)
 180c700:	10803fcc 	andi	r2,r2,255
 180c704:	1004c03a 	cmpne	r2,r2,zero
 180c708:	1000351e 	bne	r2,zero,180c7e0 <alt_read_cfi_width+0x4a8>
 180c70c:	e0bffd03 	ldbu	r2,-12(fp)
 180c710:	10803fcc 	andi	r2,r2,255
 180c714:	10801498 	cmpnei	r2,r2,82
 180c718:	1000311e 	bne	r2,zero,180c7e0 <alt_read_cfi_width+0x4a8>
 180c71c:	e0bffd43 	ldbu	r2,-11(fp)
 180c720:	10803fcc 	andi	r2,r2,255
 180c724:	1004c03a 	cmpne	r2,r2,zero
 180c728:	10002d1e 	bne	r2,zero,180c7e0 <alt_read_cfi_width+0x4a8>
 180c72c:	e0bffd83 	ldbu	r2,-10(fp)
 180c730:	10803fcc 	andi	r2,r2,255
 180c734:	1004c03a 	cmpne	r2,r2,zero
 180c738:	1000291e 	bne	r2,zero,180c7e0 <alt_read_cfi_width+0x4a8>
 180c73c:	e0bffdc3 	ldbu	r2,-9(fp)
 180c740:	10803fcc 	andi	r2,r2,255
 180c744:	1004c03a 	cmpne	r2,r2,zero
 180c748:	1000251e 	bne	r2,zero,180c7e0 <alt_read_cfi_width+0x4a8>
 180c74c:	e0bffe03 	ldbu	r2,-8(fp)
 180c750:	10803fcc 	andi	r2,r2,255
 180c754:	10801658 	cmpnei	r2,r2,89
 180c758:	1000211e 	bne	r2,zero,180c7e0 <alt_read_cfi_width+0x4a8>
 180c75c:	e0bffe43 	ldbu	r2,-7(fp)
 180c760:	10803fcc 	andi	r2,r2,255
 180c764:	1004c03a 	cmpne	r2,r2,zero
 180c768:	10001d1e 	bne	r2,zero,180c7e0 <alt_read_cfi_width+0x4a8>
 180c76c:	e0bffe83 	ldbu	r2,-6(fp)
 180c770:	10803fcc 	andi	r2,r2,255
 180c774:	1004c03a 	cmpne	r2,r2,zero
 180c778:	1000191e 	bne	r2,zero,180c7e0 <alt_read_cfi_width+0x4a8>
 180c77c:	e0bffec3 	ldbu	r2,-5(fp)
 180c780:	10803fcc 	andi	r2,r2,255
 180c784:	1004c03a 	cmpne	r2,r2,zero
 180c788:	1000151e 	bne	r2,zero,180c7e0 <alt_read_cfi_width+0x4a8>
          (byte_id[8] == 'Y') && 
          (byte_id[9] == '\0') && 
          (byte_id[10] == '\0') && 
          (byte_id[11] == '\0'))
        {
          flash->mode_width = 4;
 180c78c:	e0ffff17 	ldw	r3,-4(fp)
 180c790:	00800104 	movi	r2,4
 180c794:	18802e15 	stw	r2,184(r3)
          flash->device_width = 4; 
 180c798:	e0ffff17 	ldw	r3,-4(fp)
 180c79c:	00800104 	movi	r2,4
 180c7a0:	18802f15 	stw	r2,188(r3)
          iface = IORD_32DIRECT(flash->dev.base_addr, INTERFACE_ADDR*4);
 180c7a4:	e0bfff17 	ldw	r2,-4(fp)
 180c7a8:	10800a17 	ldw	r2,40(r2)
 180c7ac:	10802804 	addi	r2,r2,160
 180c7b0:	10800037 	ldwio	r2,0(r2)
 180c7b4:	e0bffa0d 	sth	r2,-24(fp)
          iface += 1;
 180c7b8:	e0bffa0b 	ldhu	r2,-24(fp)
 180c7bc:	10800044 	addi	r2,r2,1
 180c7c0:	e0bffa0d 	sth	r2,-24(fp)
          if (!(iface & 0x4))
 180c7c4:	e0bffa0b 	ldhu	r2,-24(fp)
 180c7c8:	1080010c 	andi	r2,r2,4
 180c7cc:	1004c03a 	cmpne	r2,r2,zero
 180c7d0:	1000be1e 	bne	r2,zero,180cacc <alt_read_cfi_width+0x794>
          {
            ret_code = -ENODEV;
 180c7d4:	00bffb44 	movi	r2,-19
 180c7d8:	e0bff915 	stw	r2,-28(fp)
        for(i=0;i<12;i++)
        {
          byte_id[i] = IORD_8DIRECT(flash->dev.base_addr, (QUERY_ADDR*4)+i);
        }

        if ((byte_id[0] == 'Q') &&
 180c7dc:	0000bb06 	br	180cacc <alt_read_cfi_width+0x794>
        else
        {
          /*
          * Check for 32 bit wide in 16 bit mode
          */
          alt_write_flash_command_32bit_device_16bit_mode(flash->dev.base_addr, 0x55, QUERY_MODE);
 180c7e0:	e0bfff17 	ldw	r2,-4(fp)
 180c7e4:	11000a17 	ldw	r4,40(r2)
 180c7e8:	01401544 	movi	r5,85
 180c7ec:	01802604 	movi	r6,152
 180c7f0:	180b9880 	call	180b988 <alt_write_flash_command_32bit_device_16bit_mode>
          for(i=0;i<12;i++)
 180c7f4:	e03ffb15 	stw	zero,-20(fp)
 180c7f8:	00000f06 	br	180c838 <alt_read_cfi_width+0x500>
          {
            byte_id[i] = IORD_8DIRECT(flash->dev.base_addr, (QUERY_ADDR*4)+i);
 180c7fc:	e13ffb17 	ldw	r4,-20(fp)
 180c800:	e0bfff17 	ldw	r2,-4(fp)
 180c804:	10800a17 	ldw	r2,40(r2)
 180c808:	1007883a 	mov	r3,r2
 180c80c:	e0bffb17 	ldw	r2,-20(fp)
 180c810:	1885883a 	add	r2,r3,r2
 180c814:	10801004 	addi	r2,r2,64
 180c818:	10800023 	ldbuio	r2,0(r2)
 180c81c:	1007883a 	mov	r3,r2
 180c820:	e0bffc04 	addi	r2,fp,-16
 180c824:	1105883a 	add	r2,r2,r4
 180c828:	10c00005 	stb	r3,0(r2)
        {
          /*
          * Check for 32 bit wide in 16 bit mode
          */
          alt_write_flash_command_32bit_device_16bit_mode(flash->dev.base_addr, 0x55, QUERY_MODE);
          for(i=0;i<12;i++)
 180c82c:	e0bffb17 	ldw	r2,-20(fp)
 180c830:	10800044 	addi	r2,r2,1
 180c834:	e0bffb15 	stw	r2,-20(fp)
 180c838:	e0bffb17 	ldw	r2,-20(fp)
 180c83c:	10800310 	cmplti	r2,r2,12
 180c840:	103fee1e 	bne	r2,zero,180c7fc <alt_read_cfi_width+0x4c4>
          {
            byte_id[i] = IORD_8DIRECT(flash->dev.base_addr, (QUERY_ADDR*4)+i);
          }

          if ((byte_id[0] == 'Q') &&
 180c844:	e0bffc03 	ldbu	r2,-16(fp)
 180c848:	10803fcc 	andi	r2,r2,255
 180c84c:	10801458 	cmpnei	r2,r2,81
 180c850:	1000411e 	bne	r2,zero,180c958 <alt_read_cfi_width+0x620>
 180c854:	e0bffc43 	ldbu	r2,-15(fp)
 180c858:	10803fcc 	andi	r2,r2,255
 180c85c:	1004c03a 	cmpne	r2,r2,zero
 180c860:	10003d1e 	bne	r2,zero,180c958 <alt_read_cfi_width+0x620>
 180c864:	e0bffc83 	ldbu	r2,-14(fp)
 180c868:	10803fcc 	andi	r2,r2,255
 180c86c:	10801458 	cmpnei	r2,r2,81
 180c870:	1000391e 	bne	r2,zero,180c958 <alt_read_cfi_width+0x620>
 180c874:	e0bffcc3 	ldbu	r2,-13(fp)
 180c878:	10803fcc 	andi	r2,r2,255
 180c87c:	1004c03a 	cmpne	r2,r2,zero
 180c880:	1000351e 	bne	r2,zero,180c958 <alt_read_cfi_width+0x620>
 180c884:	e0bffd03 	ldbu	r2,-12(fp)
 180c888:	10803fcc 	andi	r2,r2,255
 180c88c:	10801498 	cmpnei	r2,r2,82
 180c890:	1000311e 	bne	r2,zero,180c958 <alt_read_cfi_width+0x620>
 180c894:	e0bffd43 	ldbu	r2,-11(fp)
 180c898:	10803fcc 	andi	r2,r2,255
 180c89c:	1004c03a 	cmpne	r2,r2,zero
 180c8a0:	10002d1e 	bne	r2,zero,180c958 <alt_read_cfi_width+0x620>
 180c8a4:	e0bffd83 	ldbu	r2,-10(fp)
 180c8a8:	10803fcc 	andi	r2,r2,255
 180c8ac:	10801498 	cmpnei	r2,r2,82
 180c8b0:	1000291e 	bne	r2,zero,180c958 <alt_read_cfi_width+0x620>
 180c8b4:	e0bffdc3 	ldbu	r2,-9(fp)
 180c8b8:	10803fcc 	andi	r2,r2,255
 180c8bc:	1004c03a 	cmpne	r2,r2,zero
 180c8c0:	1000251e 	bne	r2,zero,180c958 <alt_read_cfi_width+0x620>
 180c8c4:	e0bffe03 	ldbu	r2,-8(fp)
 180c8c8:	10803fcc 	andi	r2,r2,255
 180c8cc:	10801658 	cmpnei	r2,r2,89
 180c8d0:	1000211e 	bne	r2,zero,180c958 <alt_read_cfi_width+0x620>
 180c8d4:	e0bffe43 	ldbu	r2,-7(fp)
 180c8d8:	10803fcc 	andi	r2,r2,255
 180c8dc:	1004c03a 	cmpne	r2,r2,zero
 180c8e0:	10001d1e 	bne	r2,zero,180c958 <alt_read_cfi_width+0x620>
 180c8e4:	e0bffe83 	ldbu	r2,-6(fp)
 180c8e8:	10803fcc 	andi	r2,r2,255
 180c8ec:	10801658 	cmpnei	r2,r2,89
 180c8f0:	1000191e 	bne	r2,zero,180c958 <alt_read_cfi_width+0x620>
 180c8f4:	e0bffec3 	ldbu	r2,-5(fp)
 180c8f8:	10803fcc 	andi	r2,r2,255
 180c8fc:	1004c03a 	cmpne	r2,r2,zero
 180c900:	1000151e 	bne	r2,zero,180c958 <alt_read_cfi_width+0x620>
              (byte_id[8] == 'Y') &&
              (byte_id[9] == '\0') &&
              (byte_id[10] == 'Y') &&
              (byte_id[11] == '\0'))
          {
            flash->mode_width = 2;
 180c904:	e0ffff17 	ldw	r3,-4(fp)
 180c908:	00800084 	movi	r2,2
 180c90c:	18802e15 	stw	r2,184(r3)
            flash->device_width = 4; 
 180c910:	e0ffff17 	ldw	r3,-4(fp)
 180c914:	00800104 	movi	r2,4
 180c918:	18802f15 	stw	r2,188(r3)
            iface = IORD_32DIRECT(flash->dev.base_addr, INTERFACE_ADDR*4);
 180c91c:	e0bfff17 	ldw	r2,-4(fp)
 180c920:	10800a17 	ldw	r2,40(r2)
 180c924:	10802804 	addi	r2,r2,160
 180c928:	10800037 	ldwio	r2,0(r2)
 180c92c:	e0bffa0d 	sth	r2,-24(fp)
            iface += 1;
 180c930:	e0bffa0b 	ldhu	r2,-24(fp)
 180c934:	10800044 	addi	r2,r2,1
 180c938:	e0bffa0d 	sth	r2,-24(fp)
            if (!(iface & 0x4))
 180c93c:	e0bffa0b 	ldhu	r2,-24(fp)
 180c940:	1080010c 	andi	r2,r2,4
 180c944:	1004c03a 	cmpne	r2,r2,zero
 180c948:	1000601e 	bne	r2,zero,180cacc <alt_read_cfi_width+0x794>
            {
              ret_code = -ENODEV;
 180c94c:	00bffb44 	movi	r2,-19
 180c950:	e0bff915 	stw	r2,-28(fp)
          for(i=0;i<12;i++)
          {
            byte_id[i] = IORD_8DIRECT(flash->dev.base_addr, (QUERY_ADDR*4)+i);
          }

          if ((byte_id[0] == 'Q') &&
 180c954:	00005d06 	br	180cacc <alt_read_cfi_width+0x794>
          else
          {
            /*
            * 32 Bit wide flash in byte mode
            */
            alt_write_flash_command_32bit_device_8bit_mode(flash->dev.base_addr, 0x55, QUERY_MODE);
 180c958:	e0bfff17 	ldw	r2,-4(fp)
 180c95c:	11000a17 	ldw	r4,40(r2)
 180c960:	01401544 	movi	r5,85
 180c964:	01802604 	movi	r6,152
 180c968:	180b8fc0 	call	180b8fc <alt_write_flash_command_32bit_device_8bit_mode>
            for(i=0;i<12;i++)
 180c96c:	e03ffb15 	stw	zero,-20(fp)
 180c970:	00000f06 	br	180c9b0 <alt_read_cfi_width+0x678>
            {
              byte_id[i] = IORD_8DIRECT(flash->dev.base_addr, (QUERY_ADDR*4)+i);
 180c974:	e13ffb17 	ldw	r4,-20(fp)
 180c978:	e0bfff17 	ldw	r2,-4(fp)
 180c97c:	10800a17 	ldw	r2,40(r2)
 180c980:	1007883a 	mov	r3,r2
 180c984:	e0bffb17 	ldw	r2,-20(fp)
 180c988:	1885883a 	add	r2,r3,r2
 180c98c:	10801004 	addi	r2,r2,64
 180c990:	10800023 	ldbuio	r2,0(r2)
 180c994:	1007883a 	mov	r3,r2
 180c998:	e0bffc04 	addi	r2,fp,-16
 180c99c:	1105883a 	add	r2,r2,r4
 180c9a0:	10c00005 	stb	r3,0(r2)
          {
            /*
            * 32 Bit wide flash in byte mode
            */
            alt_write_flash_command_32bit_device_8bit_mode(flash->dev.base_addr, 0x55, QUERY_MODE);
            for(i=0;i<12;i++)
 180c9a4:	e0bffb17 	ldw	r2,-20(fp)
 180c9a8:	10800044 	addi	r2,r2,1
 180c9ac:	e0bffb15 	stw	r2,-20(fp)
 180c9b0:	e0bffb17 	ldw	r2,-20(fp)
 180c9b4:	10800310 	cmplti	r2,r2,12
 180c9b8:	103fee1e 	bne	r2,zero,180c974 <alt_read_cfi_width+0x63c>
            {
              byte_id[i] = IORD_8DIRECT(flash->dev.base_addr, (QUERY_ADDR*4)+i);
            }

            if ((byte_id[0] == 'Q') &&
 180c9bc:	e0bffc03 	ldbu	r2,-16(fp)
 180c9c0:	10803fcc 	andi	r2,r2,255
 180c9c4:	10801458 	cmpnei	r2,r2,81
 180c9c8:	1000401e 	bne	r2,zero,180cacc <alt_read_cfi_width+0x794>
 180c9cc:	e0bffc43 	ldbu	r2,-15(fp)
 180c9d0:	10803fcc 	andi	r2,r2,255
 180c9d4:	10801458 	cmpnei	r2,r2,81
 180c9d8:	10003c1e 	bne	r2,zero,180cacc <alt_read_cfi_width+0x794>
 180c9dc:	e0bffc83 	ldbu	r2,-14(fp)
 180c9e0:	10803fcc 	andi	r2,r2,255
 180c9e4:	10801458 	cmpnei	r2,r2,81
 180c9e8:	1000381e 	bne	r2,zero,180cacc <alt_read_cfi_width+0x794>
 180c9ec:	e0bffcc3 	ldbu	r2,-13(fp)
 180c9f0:	10803fcc 	andi	r2,r2,255
 180c9f4:	10801458 	cmpnei	r2,r2,81
 180c9f8:	1000341e 	bne	r2,zero,180cacc <alt_read_cfi_width+0x794>
 180c9fc:	e0bffd03 	ldbu	r2,-12(fp)
 180ca00:	10803fcc 	andi	r2,r2,255
 180ca04:	10801498 	cmpnei	r2,r2,82
 180ca08:	1000301e 	bne	r2,zero,180cacc <alt_read_cfi_width+0x794>
 180ca0c:	e0bffd43 	ldbu	r2,-11(fp)
 180ca10:	10803fcc 	andi	r2,r2,255
 180ca14:	10801498 	cmpnei	r2,r2,82
 180ca18:	10002c1e 	bne	r2,zero,180cacc <alt_read_cfi_width+0x794>
 180ca1c:	e0bffd83 	ldbu	r2,-10(fp)
 180ca20:	10803fcc 	andi	r2,r2,255
 180ca24:	10801498 	cmpnei	r2,r2,82
 180ca28:	1000281e 	bne	r2,zero,180cacc <alt_read_cfi_width+0x794>
 180ca2c:	e0bffdc3 	ldbu	r2,-9(fp)
 180ca30:	10803fcc 	andi	r2,r2,255
 180ca34:	10801498 	cmpnei	r2,r2,82
 180ca38:	1000241e 	bne	r2,zero,180cacc <alt_read_cfi_width+0x794>
 180ca3c:	e0bffe03 	ldbu	r2,-8(fp)
 180ca40:	10803fcc 	andi	r2,r2,255
 180ca44:	10801658 	cmpnei	r2,r2,89
 180ca48:	1000201e 	bne	r2,zero,180cacc <alt_read_cfi_width+0x794>
 180ca4c:	e0bffe43 	ldbu	r2,-7(fp)
 180ca50:	10803fcc 	andi	r2,r2,255
 180ca54:	10801658 	cmpnei	r2,r2,89
 180ca58:	10001c1e 	bne	r2,zero,180cacc <alt_read_cfi_width+0x794>
 180ca5c:	e0bffe83 	ldbu	r2,-6(fp)
 180ca60:	10803fcc 	andi	r2,r2,255
 180ca64:	10801658 	cmpnei	r2,r2,89
 180ca68:	1000181e 	bne	r2,zero,180cacc <alt_read_cfi_width+0x794>
 180ca6c:	e0bffec3 	ldbu	r2,-5(fp)
 180ca70:	10803fcc 	andi	r2,r2,255
 180ca74:	10801658 	cmpnei	r2,r2,89
 180ca78:	1000141e 	bne	r2,zero,180cacc <alt_read_cfi_width+0x794>
                (byte_id[8] == 'Y') && 
                (byte_id[9] == 'Y') && 
                (byte_id[10] == 'Y') && 
                (byte_id[11] == 'Y'))
            {
              flash->mode_width = 1;
 180ca7c:	e0ffff17 	ldw	r3,-4(fp)
 180ca80:	00800044 	movi	r2,1
 180ca84:	18802e15 	stw	r2,184(r3)
              flash->device_width = 4; 
 180ca88:	e0ffff17 	ldw	r3,-4(fp)
 180ca8c:	00800104 	movi	r2,4
 180ca90:	18802f15 	stw	r2,188(r3)
              iface = IORD_32DIRECT(flash->dev.base_addr, INTERFACE_ADDR*4);
 180ca94:	e0bfff17 	ldw	r2,-4(fp)
 180ca98:	10800a17 	ldw	r2,40(r2)
 180ca9c:	10802804 	addi	r2,r2,160
 180caa0:	10800037 	ldwio	r2,0(r2)
 180caa4:	e0bffa0d 	sth	r2,-24(fp)
              iface += 1;
 180caa8:	e0bffa0b 	ldhu	r2,-24(fp)
 180caac:	10800044 	addi	r2,r2,1
 180cab0:	e0bffa0d 	sth	r2,-24(fp)
              if (!(iface & 0x4))
 180cab4:	e0bffa0b 	ldhu	r2,-24(fp)
 180cab8:	1080010c 	andi	r2,r2,4
 180cabc:	1004c03a 	cmpne	r2,r2,zero
 180cac0:	1000021e 	bne	r2,zero,180cacc <alt_read_cfi_width+0x794>
              {
                ret_code = -ENODEV;
 180cac4:	00bffb44 	movi	r2,-19
 180cac8:	e0bff915 	stw	r2,-28(fp)
        }
      }
    }
  }
  
  return ret_code;
 180cacc:	e0bff917 	ldw	r2,-28(fp)
}
 180cad0:	e037883a 	mov	sp,fp
 180cad4:	dfc00117 	ldw	ra,4(sp)
 180cad8:	df000017 	ldw	fp,0(sp)
 180cadc:	dec00204 	addi	sp,sp,8
 180cae0:	f800283a 	ret

0180cae4 <alt_check_primary_table>:
 * 
 * Check that the primary Vendor table starts with the 
 * correct pattern
 */
int alt_check_primary_table(alt_flash_cfi_dev* flash)
{
 180cae4:	defff904 	addi	sp,sp,-28
 180cae8:	dfc00615 	stw	ra,24(sp)
 180caec:	df000515 	stw	fp,20(sp)
 180caf0:	dc000415 	stw	r16,16(sp)
 180caf4:	df000404 	addi	fp,sp,16
 180caf8:	e13fff15 	stw	r4,-4(fp)
  int i;
  int ret_code = 0;
 180cafc:	e03ffc15 	stw	zero,-16(fp)
  alt_u8 primary_query_string[3];
  
  flash->primary_address = alt_read_16bit_query_entry( flash, 
 180cb00:	e13fff17 	ldw	r4,-4(fp)
 180cb04:	01400544 	movi	r5,21
 180cb08:	180bd3c0 	call	180bd3c <alt_read_16bit_query_entry>
 180cb0c:	10ffffcc 	andi	r3,r2,65535
 180cb10:	e0bfff17 	ldw	r2,-4(fp)
 180cb14:	10c03215 	stw	r3,200(r2)
                            PRIMARY_ADDR);
  
  for(i=0;i<3;i++)
 180cb18:	e03ffd15 	stw	zero,-12(fp)
 180cb1c:	00001006 	br	180cb60 <alt_check_primary_table+0x7c>
  {
    primary_query_string[i] = 
 180cb20:	e43ffd17 	ldw	r16,-12(fp)
 180cb24:	e0bfff17 	ldw	r2,-4(fp)
 180cb28:	11803417 	ldw	r6,208(r2)
 180cb2c:	e0bfff17 	ldw	r2,-4(fp)
 180cb30:	10c03217 	ldw	r3,200(r2)
 180cb34:	e0bffd17 	ldw	r2,-12(fp)
 180cb38:	188b883a 	add	r5,r3,r2
 180cb3c:	e13fff17 	ldw	r4,-4(fp)
 180cb40:	303ee83a 	callr	r6
 180cb44:	1007883a 	mov	r3,r2
 180cb48:	e0bffe04 	addi	r2,fp,-8
 180cb4c:	1405883a 	add	r2,r2,r16
 180cb50:	10c00005 	stb	r3,0(r2)
  alt_u8 primary_query_string[3];
  
  flash->primary_address = alt_read_16bit_query_entry( flash, 
                            PRIMARY_ADDR);
  
  for(i=0;i<3;i++)
 180cb54:	e0bffd17 	ldw	r2,-12(fp)
 180cb58:	10800044 	addi	r2,r2,1
 180cb5c:	e0bffd15 	stw	r2,-12(fp)
 180cb60:	e0bffd17 	ldw	r2,-12(fp)
 180cb64:	108000d0 	cmplti	r2,r2,3
 180cb68:	103fed1e 	bne	r2,zero,180cb20 <alt_check_primary_table+0x3c>
  {
    primary_query_string[i] = 
          (*flash->read_query)( flash,(flash->primary_address + i));
  }
    
  if ((primary_query_string[0] != 'P') ||
 180cb6c:	e0bffe03 	ldbu	r2,-8(fp)
 180cb70:	10803fcc 	andi	r2,r2,255
 180cb74:	10801418 	cmpnei	r2,r2,80
 180cb78:	1000081e 	bne	r2,zero,180cb9c <alt_check_primary_table+0xb8>
 180cb7c:	e0bffe43 	ldbu	r2,-7(fp)
 180cb80:	10803fcc 	andi	r2,r2,255
 180cb84:	10801498 	cmpnei	r2,r2,82
 180cb88:	1000041e 	bne	r2,zero,180cb9c <alt_check_primary_table+0xb8>
 180cb8c:	e0bffe83 	ldbu	r2,-6(fp)
 180cb90:	10803fcc 	andi	r2,r2,255
 180cb94:	10801260 	cmpeqi	r2,r2,73
 180cb98:	1000021e 	bne	r2,zero,180cba4 <alt_check_primary_table+0xc0>
      (primary_query_string[1] != 'R') ||
      (primary_query_string[2] != 'I'))
  {
    ret_code = -ENODEV;
 180cb9c:	00bffb44 	movi	r2,-19
 180cba0:	e0bffc15 	stw	r2,-16(fp)
  }
  
  return ret_code;
 180cba4:	e0bffc17 	ldw	r2,-16(fp)
}
 180cba8:	e037883a 	mov	sp,fp
 180cbac:	dfc00217 	ldw	ra,8(sp)
 180cbb0:	df000117 	ldw	fp,4(sp)
 180cbb4:	dc000017 	ldw	r16,0(sp)
 180cbb8:	dec00304 	addi	sp,sp,12
 180cbbc:	f800283a 	ret

0180cbc0 <altera_avalon_jtag_uart_read_fd>:
 *
 */

int 
altera_avalon_jtag_uart_read_fd(alt_fd* fd, char* buffer, int space)
{
 180cbc0:	defffa04 	addi	sp,sp,-24
 180cbc4:	dfc00515 	stw	ra,20(sp)
 180cbc8:	df000415 	stw	fp,16(sp)
 180cbcc:	df000404 	addi	fp,sp,16
 180cbd0:	e13ffd15 	stw	r4,-12(fp)
 180cbd4:	e17ffe15 	stw	r5,-8(fp)
 180cbd8:	e1bfff15 	stw	r6,-4(fp)
    altera_avalon_jtag_uart_dev* dev = (altera_avalon_jtag_uart_dev*) fd->dev; 
 180cbdc:	e0bffd17 	ldw	r2,-12(fp)
 180cbe0:	10800017 	ldw	r2,0(r2)
 180cbe4:	e0bffc15 	stw	r2,-16(fp)

    return altera_avalon_jtag_uart_read(&dev->state, buffer, space,
 180cbe8:	e0bffc17 	ldw	r2,-16(fp)
 180cbec:	11000a04 	addi	r4,r2,40
 180cbf0:	e0bffd17 	ldw	r2,-12(fp)
 180cbf4:	11c00217 	ldw	r7,8(r2)
 180cbf8:	e17ffe17 	ldw	r5,-8(fp)
 180cbfc:	e1bfff17 	ldw	r6,-4(fp)
 180cc00:	180d2080 	call	180d208 <altera_avalon_jtag_uart_read>
      fd->fd_flags);
}
 180cc04:	e037883a 	mov	sp,fp
 180cc08:	dfc00117 	ldw	ra,4(sp)
 180cc0c:	df000017 	ldw	fp,0(sp)
 180cc10:	dec00204 	addi	sp,sp,8
 180cc14:	f800283a 	ret

0180cc18 <altera_avalon_jtag_uart_write_fd>:

int 
altera_avalon_jtag_uart_write_fd(alt_fd* fd, const char* buffer, int space)
{
 180cc18:	defffa04 	addi	sp,sp,-24
 180cc1c:	dfc00515 	stw	ra,20(sp)
 180cc20:	df000415 	stw	fp,16(sp)
 180cc24:	df000404 	addi	fp,sp,16
 180cc28:	e13ffd15 	stw	r4,-12(fp)
 180cc2c:	e17ffe15 	stw	r5,-8(fp)
 180cc30:	e1bfff15 	stw	r6,-4(fp)
    altera_avalon_jtag_uart_dev* dev = (altera_avalon_jtag_uart_dev*) fd->dev; 
 180cc34:	e0bffd17 	ldw	r2,-12(fp)
 180cc38:	10800017 	ldw	r2,0(r2)
 180cc3c:	e0bffc15 	stw	r2,-16(fp)

    return altera_avalon_jtag_uart_write(&dev->state, buffer, space,
 180cc40:	e0bffc17 	ldw	r2,-16(fp)
 180cc44:	11000a04 	addi	r4,r2,40
 180cc48:	e0bffd17 	ldw	r2,-12(fp)
 180cc4c:	11c00217 	ldw	r7,8(r2)
 180cc50:	e17ffe17 	ldw	r5,-8(fp)
 180cc54:	e1bfff17 	ldw	r6,-4(fp)
 180cc58:	180d42c0 	call	180d42c <altera_avalon_jtag_uart_write>
      fd->fd_flags);
}
 180cc5c:	e037883a 	mov	sp,fp
 180cc60:	dfc00117 	ldw	ra,4(sp)
 180cc64:	df000017 	ldw	fp,0(sp)
 180cc68:	dec00204 	addi	sp,sp,8
 180cc6c:	f800283a 	ret

0180cc70 <altera_avalon_jtag_uart_close_fd>:

#ifndef ALTERA_AVALON_JTAG_UART_SMALL

int 
altera_avalon_jtag_uart_close_fd(alt_fd* fd)
{
 180cc70:	defffc04 	addi	sp,sp,-16
 180cc74:	dfc00315 	stw	ra,12(sp)
 180cc78:	df000215 	stw	fp,8(sp)
 180cc7c:	df000204 	addi	fp,sp,8
 180cc80:	e13fff15 	stw	r4,-4(fp)
    altera_avalon_jtag_uart_dev* dev = (altera_avalon_jtag_uart_dev*) fd->dev; 
 180cc84:	e0bfff17 	ldw	r2,-4(fp)
 180cc88:	10800017 	ldw	r2,0(r2)
 180cc8c:	e0bffe15 	stw	r2,-8(fp)

    return altera_avalon_jtag_uart_close(&dev->state, fd->fd_flags);
 180cc90:	e0bffe17 	ldw	r2,-8(fp)
 180cc94:	11000a04 	addi	r4,r2,40
 180cc98:	e0bfff17 	ldw	r2,-4(fp)
 180cc9c:	11400217 	ldw	r5,8(r2)
 180cca0:	180d0a00 	call	180d0a0 <altera_avalon_jtag_uart_close>
}
 180cca4:	e037883a 	mov	sp,fp
 180cca8:	dfc00117 	ldw	ra,4(sp)
 180ccac:	df000017 	ldw	fp,0(sp)
 180ccb0:	dec00204 	addi	sp,sp,8
 180ccb4:	f800283a 	ret

0180ccb8 <altera_avalon_jtag_uart_ioctl_fd>:

int 
altera_avalon_jtag_uart_ioctl_fd(alt_fd* fd, int req, void* arg)
{
 180ccb8:	defffa04 	addi	sp,sp,-24
 180ccbc:	dfc00515 	stw	ra,20(sp)
 180ccc0:	df000415 	stw	fp,16(sp)
 180ccc4:	df000404 	addi	fp,sp,16
 180ccc8:	e13ffd15 	stw	r4,-12(fp)
 180cccc:	e17ffe15 	stw	r5,-8(fp)
 180ccd0:	e1bfff15 	stw	r6,-4(fp)
    altera_avalon_jtag_uart_dev* dev = (altera_avalon_jtag_uart_dev*) fd->dev;
 180ccd4:	e0bffd17 	ldw	r2,-12(fp)
 180ccd8:	10800017 	ldw	r2,0(r2)
 180ccdc:	e0bffc15 	stw	r2,-16(fp)

    return altera_avalon_jtag_uart_ioctl(&dev->state, req, arg);
 180cce0:	e0bffc17 	ldw	r2,-16(fp)
 180cce4:	11000a04 	addi	r4,r2,40
 180cce8:	e17ffe17 	ldw	r5,-8(fp)
 180ccec:	e1bfff17 	ldw	r6,-4(fp)
 180ccf0:	180d1140 	call	180d114 <altera_avalon_jtag_uart_ioctl>
}
 180ccf4:	e037883a 	mov	sp,fp
 180ccf8:	dfc00117 	ldw	ra,4(sp)
 180ccfc:	df000017 	ldw	fp,0(sp)
 180cd00:	dec00204 	addi	sp,sp,8
 180cd04:	f800283a 	ret

0180cd08 <altera_avalon_jtag_uart_init>:
 * Return 1 on sucessful IRQ register and 0 on failure.
 */

void altera_avalon_jtag_uart_init(altera_avalon_jtag_uart_state* sp, 
                                  int irq_controller_id, int irq)
{
 180cd08:	defffa04 	addi	sp,sp,-24
 180cd0c:	dfc00515 	stw	ra,20(sp)
 180cd10:	df000415 	stw	fp,16(sp)
 180cd14:	df000404 	addi	fp,sp,16
 180cd18:	e13ffd15 	stw	r4,-12(fp)
 180cd1c:	e17ffe15 	stw	r5,-8(fp)
 180cd20:	e1bfff15 	stw	r6,-4(fp)
  ALT_FLAG_CREATE(&sp->events, 0);
  ALT_SEM_CREATE(&sp->read_lock, 1);
  ALT_SEM_CREATE(&sp->write_lock, 1);

  /* enable read interrupts at the device */
  sp->irq_enable = ALTERA_AVALON_JTAG_UART_CONTROL_RE_MSK;
 180cd24:	e0fffd17 	ldw	r3,-12(fp)
 180cd28:	00800044 	movi	r2,1
 180cd2c:	18800815 	stw	r2,32(r3)

  IOWR_ALTERA_AVALON_JTAG_UART_CONTROL(sp->base, sp->irq_enable); 
 180cd30:	e0bffd17 	ldw	r2,-12(fp)
 180cd34:	10800017 	ldw	r2,0(r2)
 180cd38:	11000104 	addi	r4,r2,4
 180cd3c:	e0bffd17 	ldw	r2,-12(fp)
 180cd40:	10800817 	ldw	r2,32(r2)
 180cd44:	1007883a 	mov	r3,r2
 180cd48:	2005883a 	mov	r2,r4
 180cd4c:	10c00035 	stwio	r3,0(r2)
  
  /* register the interrupt handler */
#ifdef ALT_ENHANCED_INTERRUPT_API_PRESENT
  alt_ic_isr_register(irq_controller_id, irq, altera_avalon_jtag_uart_irq, 
 180cd50:	e13ffe17 	ldw	r4,-8(fp)
 180cd54:	e17fff17 	ldw	r5,-4(fp)
 180cd58:	d8000015 	stw	zero,0(sp)
 180cd5c:	01806074 	movhi	r6,385
 180cd60:	31b37204 	addi	r6,r6,-12856
 180cd64:	e1fffd17 	ldw	r7,-12(fp)
 180cd68:	180f5f80 	call	180f5f8 <alt_ic_isr_register>
#else
  alt_irq_register(irq, sp, altera_avalon_jtag_uart_irq);
#endif  

  /* Register an alarm to go off every second to check for presence of host */
  sp->host_inactive = 0;
 180cd6c:	e0bffd17 	ldw	r2,-12(fp)
 180cd70:	10000915 	stw	zero,36(r2)

  if (alt_alarm_start(&sp->alarm, alt_ticks_per_second(), 
 180cd74:	e0bffd17 	ldw	r2,-12(fp)
 180cd78:	11000204 	addi	r4,r2,8
 * Obtain the system clock rate in ticks/s. 
 */

static ALT_INLINE alt_u32 ALT_ALWAYS_INLINE alt_ticks_per_second (void)
{
  return _alt_tick_rate;
 180cd7c:	00806074 	movhi	r2,385
 180cd80:	108c9604 	addi	r2,r2,12888
 180cd84:	10800017 	ldw	r2,0(r2)
 180cd88:	100b883a 	mov	r5,r2
 180cd8c:	01806074 	movhi	r6,385
 180cd90:	31b3fc04 	addi	r6,r6,-12304
 180cd94:	e1fffd17 	ldw	r7,-12(fp)
 180cd98:	180f0540 	call	180f054 <alt_alarm_start>
 180cd9c:	1004403a 	cmpge	r2,r2,zero
 180cda0:	1000041e 	bne	r2,zero,180cdb4 <altera_avalon_jtag_uart_init+0xac>
    &altera_avalon_jtag_uart_timeout, sp) < 0)
  {
    /* If we can't set the alarm then record "don't know if host present" 
     * and behave as though the host is present.
     */
    sp->timeout = INT_MAX;
 180cda4:	e0fffd17 	ldw	r3,-12(fp)
 180cda8:	00a00034 	movhi	r2,32768
 180cdac:	10bfffc4 	addi	r2,r2,-1
 180cdb0:	18800115 	stw	r2,4(r3)
  }

  /* ALT_LOG - see altera_hal/HAL/inc/sys/alt_log_printf.h */ 
  ALT_LOG_JTAG_UART_ALARM_REGISTER(sp, sp->base);
}
 180cdb4:	e037883a 	mov	sp,fp
 180cdb8:	dfc00117 	ldw	ra,4(sp)
 180cdbc:	df000017 	ldw	fp,0(sp)
 180cdc0:	dec00204 	addi	sp,sp,8
 180cdc4:	f800283a 	ret

0180cdc8 <altera_avalon_jtag_uart_irq>:
#ifdef ALT_ENHANCED_INTERRUPT_API_PRESENT
static void altera_avalon_jtag_uart_irq(void* context)
#else
static void altera_avalon_jtag_uart_irq(void* context, alt_u32 id)
#endif
{
 180cdc8:	defff804 	addi	sp,sp,-32
 180cdcc:	df000715 	stw	fp,28(sp)
 180cdd0:	df000704 	addi	fp,sp,28
 180cdd4:	e13fff15 	stw	r4,-4(fp)
  altera_avalon_jtag_uart_state* sp = (altera_avalon_jtag_uart_state*) context;
 180cdd8:	e0bfff17 	ldw	r2,-4(fp)
 180cddc:	e0bffe15 	stw	r2,-8(fp)
  unsigned int base = sp->base;
 180cde0:	e0bffe17 	ldw	r2,-8(fp)
 180cde4:	10800017 	ldw	r2,0(r2)
 180cde8:	e0bffd15 	stw	r2,-12(fp)
 180cdec:	00000006 	br	180cdf0 <altera_avalon_jtag_uart_irq+0x28>
  /* ALT_LOG - see altera_hal/HAL/inc/sys/alt_log_printf.h */ 
  ALT_LOG_JTAG_UART_ISR_FUNCTION(base, sp);

  for ( ; ; )
  {
    unsigned int control = IORD_ALTERA_AVALON_JTAG_UART_CONTROL(base);
 180cdf0:	e0bffd17 	ldw	r2,-12(fp)
 180cdf4:	10800104 	addi	r2,r2,4
 180cdf8:	10800037 	ldwio	r2,0(r2)
 180cdfc:	e0bffc15 	stw	r2,-16(fp)

    /* Return once nothing more to do */
    if ((control & (ALTERA_AVALON_JTAG_UART_CONTROL_RI_MSK | ALTERA_AVALON_JTAG_UART_CONTROL_WI_MSK)) == 0)
 180ce00:	e0bffc17 	ldw	r2,-16(fp)
 180ce04:	1080c00c 	andi	r2,r2,768
 180ce08:	1005003a 	cmpeq	r2,r2,zero
 180ce0c:	1000741e 	bne	r2,zero,180cfe0 <altera_avalon_jtag_uart_irq+0x218>
      break;

    if (control & ALTERA_AVALON_JTAG_UART_CONTROL_RI_MSK)
 180ce10:	e0bffc17 	ldw	r2,-16(fp)
 180ce14:	1080400c 	andi	r2,r2,256
 180ce18:	1005003a 	cmpeq	r2,r2,zero
 180ce1c:	1000351e 	bne	r2,zero,180cef4 <altera_avalon_jtag_uart_irq+0x12c>
    {
      /* process a read irq.  Start by assuming that there is data in the
       * receive FIFO (otherwise why would we have been interrupted?)
       */
      unsigned int data = 1 << ALTERA_AVALON_JTAG_UART_DATA_RAVAIL_OFST;
 180ce20:	00800074 	movhi	r2,1
 180ce24:	e0bffb15 	stw	r2,-20(fp)
      for ( ; ; )
      {
        /* Check whether there is space in the buffer.  If not then we must not
         * read any characters from the buffer as they will be lost.
         */
        unsigned int next = (sp->rx_in + 1) % ALTERA_AVALON_JTAG_UART_BUF_LEN;
 180ce28:	e0bffe17 	ldw	r2,-8(fp)
 180ce2c:	10800a17 	ldw	r2,40(r2)
 180ce30:	10800044 	addi	r2,r2,1
 180ce34:	1081ffcc 	andi	r2,r2,2047
 180ce38:	e0bffa15 	stw	r2,-24(fp)
        if (next == sp->rx_out)
 180ce3c:	e0bffe17 	ldw	r2,-8(fp)
 180ce40:	10c00b17 	ldw	r3,44(r2)
 180ce44:	e0bffa17 	ldw	r2,-24(fp)
 180ce48:	18801626 	beq	r3,r2,180cea4 <altera_avalon_jtag_uart_irq+0xdc>
          break;

        /* Try to remove a character from the FIFO and find out whether there
         * are any more characters remaining.
         */
        data = IORD_ALTERA_AVALON_JTAG_UART_DATA(base);
 180ce4c:	e0bffd17 	ldw	r2,-12(fp)
 180ce50:	10800037 	ldwio	r2,0(r2)
 180ce54:	e0bffb15 	stw	r2,-20(fp)
        
        if ((data & ALTERA_AVALON_JTAG_UART_DATA_RVALID_MSK) == 0)
 180ce58:	e0bffb17 	ldw	r2,-20(fp)
 180ce5c:	10a0000c 	andi	r2,r2,32768
 180ce60:	1005003a 	cmpeq	r2,r2,zero
 180ce64:	10000f1e 	bne	r2,zero,180cea4 <altera_avalon_jtag_uart_irq+0xdc>
          break;

        sp->rx_buf[sp->rx_in] = (data & ALTERA_AVALON_JTAG_UART_DATA_DATA_MSK) >> ALTERA_AVALON_JTAG_UART_DATA_DATA_OFST;
 180ce68:	e0bffe17 	ldw	r2,-8(fp)
 180ce6c:	10c00a17 	ldw	r3,40(r2)
 180ce70:	e0bffb17 	ldw	r2,-20(fp)
 180ce74:	1009883a 	mov	r4,r2
 180ce78:	e0bffe17 	ldw	r2,-8(fp)
 180ce7c:	1885883a 	add	r2,r3,r2
 180ce80:	10800e04 	addi	r2,r2,56
 180ce84:	11000005 	stb	r4,0(r2)
        sp->rx_in = (sp->rx_in + 1) % ALTERA_AVALON_JTAG_UART_BUF_LEN;
 180ce88:	e0bffe17 	ldw	r2,-8(fp)
 180ce8c:	10800a17 	ldw	r2,40(r2)
 180ce90:	10800044 	addi	r2,r2,1
 180ce94:	10c1ffcc 	andi	r3,r2,2047
 180ce98:	e0bffe17 	ldw	r2,-8(fp)
 180ce9c:	10c00a15 	stw	r3,40(r2)

        /* Post an event to notify jtag_uart_read that a character has been read */
        ALT_FLAG_POST (sp->events, ALT_JTAG_UART_READ_RDY, OS_FLAG_SET);
      }
 180cea0:	003fe106 	br	180ce28 <altera_avalon_jtag_uart_irq+0x60>

      if (data & ALTERA_AVALON_JTAG_UART_DATA_RAVAIL_MSK)
 180cea4:	e0bffb17 	ldw	r2,-20(fp)
 180cea8:	10bfffec 	andhi	r2,r2,65535
 180ceac:	1005003a 	cmpeq	r2,r2,zero
 180ceb0:	1000101e 	bne	r2,zero,180cef4 <altera_avalon_jtag_uart_irq+0x12c>
      {
        /* If there is still data available here then the buffer is full 
         * so turn off receive interrupts until some space becomes available.
         */
        sp->irq_enable &= ~ALTERA_AVALON_JTAG_UART_CONTROL_RE_MSK;
 180ceb4:	e0bffe17 	ldw	r2,-8(fp)
 180ceb8:	10c00817 	ldw	r3,32(r2)
 180cebc:	00bfff84 	movi	r2,-2
 180cec0:	1886703a 	and	r3,r3,r2
 180cec4:	e0bffe17 	ldw	r2,-8(fp)
 180cec8:	10c00815 	stw	r3,32(r2)
        IOWR_ALTERA_AVALON_JTAG_UART_CONTROL(base, sp->irq_enable);
 180cecc:	e0bffd17 	ldw	r2,-12(fp)
 180ced0:	11000104 	addi	r4,r2,4
 180ced4:	e0bffe17 	ldw	r2,-8(fp)
 180ced8:	10800817 	ldw	r2,32(r2)
 180cedc:	1007883a 	mov	r3,r2
 180cee0:	2005883a 	mov	r2,r4
 180cee4:	10c00035 	stwio	r3,0(r2)
        
        /* Dummy read to ensure IRQ is cleared prior to ISR completion */
        IORD_ALTERA_AVALON_JTAG_UART_CONTROL(base);
 180cee8:	e0bffd17 	ldw	r2,-12(fp)
 180ceec:	10800104 	addi	r2,r2,4
 180cef0:	10800037 	ldwio	r2,0(r2)
      }
    }

    if (control & ALTERA_AVALON_JTAG_UART_CONTROL_WI_MSK)
 180cef4:	e0bffc17 	ldw	r2,-16(fp)
 180cef8:	1080800c 	andi	r2,r2,512
 180cefc:	1005003a 	cmpeq	r2,r2,zero
 180cf00:	103fbb1e 	bne	r2,zero,180cdf0 <altera_avalon_jtag_uart_irq+0x28>
    {
      /* process a write irq */
      unsigned int space = (control & ALTERA_AVALON_JTAG_UART_CONTROL_WSPACE_MSK) >> ALTERA_AVALON_JTAG_UART_CONTROL_WSPACE_OFST;
 180cf04:	e0bffc17 	ldw	r2,-16(fp)
 180cf08:	10bfffec 	andhi	r2,r2,65535
 180cf0c:	1004d43a 	srli	r2,r2,16
 180cf10:	e0bff915 	stw	r2,-28(fp)

      while (space > 0 && sp->tx_out != sp->tx_in)
 180cf14:	00001506 	br	180cf6c <altera_avalon_jtag_uart_irq+0x1a4>
      {
        IOWR_ALTERA_AVALON_JTAG_UART_DATA(base, sp->tx_buf[sp->tx_out]);
 180cf18:	e13ffd17 	ldw	r4,-12(fp)
 180cf1c:	e0bffe17 	ldw	r2,-8(fp)
 180cf20:	10c00d17 	ldw	r3,52(r2)
 180cf24:	e0bffe17 	ldw	r2,-8(fp)
 180cf28:	1885883a 	add	r2,r3,r2
 180cf2c:	10820e04 	addi	r2,r2,2104
 180cf30:	10800003 	ldbu	r2,0(r2)
 180cf34:	10c03fcc 	andi	r3,r2,255
 180cf38:	18c0201c 	xori	r3,r3,128
 180cf3c:	18ffe004 	addi	r3,r3,-128
 180cf40:	2005883a 	mov	r2,r4
 180cf44:	10c00035 	stwio	r3,0(r2)

        sp->tx_out = (sp->tx_out + 1) % ALTERA_AVALON_JTAG_UART_BUF_LEN;
 180cf48:	e0bffe17 	ldw	r2,-8(fp)
 180cf4c:	10800d17 	ldw	r2,52(r2)
 180cf50:	10800044 	addi	r2,r2,1
 180cf54:	10c1ffcc 	andi	r3,r2,2047
 180cf58:	e0bffe17 	ldw	r2,-8(fp)
 180cf5c:	10c00d15 	stw	r3,52(r2)

        /* Post an event to notify jtag_uart_write that a character has been written */
        ALT_FLAG_POST (sp->events, ALT_JTAG_UART_WRITE_RDY, OS_FLAG_SET);

        space--;
 180cf60:	e0bff917 	ldw	r2,-28(fp)
 180cf64:	10bfffc4 	addi	r2,r2,-1
 180cf68:	e0bff915 	stw	r2,-28(fp)
    if (control & ALTERA_AVALON_JTAG_UART_CONTROL_WI_MSK)
    {
      /* process a write irq */
      unsigned int space = (control & ALTERA_AVALON_JTAG_UART_CONTROL_WSPACE_MSK) >> ALTERA_AVALON_JTAG_UART_CONTROL_WSPACE_OFST;

      while (space > 0 && sp->tx_out != sp->tx_in)
 180cf6c:	e0bff917 	ldw	r2,-28(fp)
 180cf70:	1005003a 	cmpeq	r2,r2,zero
 180cf74:	1000051e 	bne	r2,zero,180cf8c <altera_avalon_jtag_uart_irq+0x1c4>
 180cf78:	e0bffe17 	ldw	r2,-8(fp)
 180cf7c:	10c00d17 	ldw	r3,52(r2)
 180cf80:	e0bffe17 	ldw	r2,-8(fp)
 180cf84:	10800c17 	ldw	r2,48(r2)
 180cf88:	18bfe31e 	bne	r3,r2,180cf18 <altera_avalon_jtag_uart_irq+0x150>
        ALT_FLAG_POST (sp->events, ALT_JTAG_UART_WRITE_RDY, OS_FLAG_SET);

        space--;
      }

      if (space > 0)
 180cf8c:	e0bff917 	ldw	r2,-28(fp)
 180cf90:	1005003a 	cmpeq	r2,r2,zero
 180cf94:	103f961e 	bne	r2,zero,180cdf0 <altera_avalon_jtag_uart_irq+0x28>
      {
        /* If we don't have any more data available then turn off the TX interrupt */
        sp->irq_enable &= ~ALTERA_AVALON_JTAG_UART_CONTROL_WE_MSK;
 180cf98:	e0bffe17 	ldw	r2,-8(fp)
 180cf9c:	10c00817 	ldw	r3,32(r2)
 180cfa0:	00bfff44 	movi	r2,-3
 180cfa4:	1886703a 	and	r3,r3,r2
 180cfa8:	e0bffe17 	ldw	r2,-8(fp)
 180cfac:	10c00815 	stw	r3,32(r2)
        IOWR_ALTERA_AVALON_JTAG_UART_CONTROL(sp->base, sp->irq_enable);
 180cfb0:	e0bffe17 	ldw	r2,-8(fp)
 180cfb4:	10800017 	ldw	r2,0(r2)
 180cfb8:	11000104 	addi	r4,r2,4
 180cfbc:	e0bffe17 	ldw	r2,-8(fp)
 180cfc0:	10800817 	ldw	r2,32(r2)
 180cfc4:	1007883a 	mov	r3,r2
 180cfc8:	2005883a 	mov	r2,r4
 180cfcc:	10c00035 	stwio	r3,0(r2)
        
        /* Dummy read to ensure IRQ is cleared prior to ISR completion */
        IORD_ALTERA_AVALON_JTAG_UART_CONTROL(base);
 180cfd0:	e0bffd17 	ldw	r2,-12(fp)
 180cfd4:	10800104 	addi	r2,r2,4
 180cfd8:	10800037 	ldwio	r2,0(r2)
      }
    }
  }
 180cfdc:	003f8406 	br	180cdf0 <altera_avalon_jtag_uart_irq+0x28>
}
 180cfe0:	e037883a 	mov	sp,fp
 180cfe4:	df000017 	ldw	fp,0(sp)
 180cfe8:	dec00104 	addi	sp,sp,4
 180cfec:	f800283a 	ret

0180cff0 <altera_avalon_jtag_uart_timeout>:
 * Timeout routine is called every second
 */

static alt_u32 
altera_avalon_jtag_uart_timeout(void* context) 
{
 180cff0:	defffc04 	addi	sp,sp,-16
 180cff4:	df000315 	stw	fp,12(sp)
 180cff8:	df000304 	addi	fp,sp,12
 180cffc:	e13fff15 	stw	r4,-4(fp)
  altera_avalon_jtag_uart_state* sp = (altera_avalon_jtag_uart_state *) context;
 180d000:	e0bfff17 	ldw	r2,-4(fp)
 180d004:	e0bffe15 	stw	r2,-8(fp)

  unsigned int control = IORD_ALTERA_AVALON_JTAG_UART_CONTROL(sp->base);
 180d008:	e0bffe17 	ldw	r2,-8(fp)
 180d00c:	10800017 	ldw	r2,0(r2)
 180d010:	10800104 	addi	r2,r2,4
 180d014:	10800037 	ldwio	r2,0(r2)
 180d018:	e0bffd15 	stw	r2,-12(fp)

  if (control & ALTERA_AVALON_JTAG_UART_CONTROL_AC_MSK)
 180d01c:	e0bffd17 	ldw	r2,-12(fp)
 180d020:	1081000c 	andi	r2,r2,1024
 180d024:	1005003a 	cmpeq	r2,r2,zero
 180d028:	10000c1e 	bne	r2,zero,180d05c <altera_avalon_jtag_uart_timeout+0x6c>
  {
    IOWR_ALTERA_AVALON_JTAG_UART_CONTROL(sp->base, sp->irq_enable | ALTERA_AVALON_JTAG_UART_CONTROL_AC_MSK);
 180d02c:	e0bffe17 	ldw	r2,-8(fp)
 180d030:	10800017 	ldw	r2,0(r2)
 180d034:	11000104 	addi	r4,r2,4
 180d038:	e0bffe17 	ldw	r2,-8(fp)
 180d03c:	10800817 	ldw	r2,32(r2)
 180d040:	10810014 	ori	r2,r2,1024
 180d044:	1007883a 	mov	r3,r2
 180d048:	2005883a 	mov	r2,r4
 180d04c:	10c00035 	stwio	r3,0(r2)
    sp->host_inactive = 0;
 180d050:	e0bffe17 	ldw	r2,-8(fp)
 180d054:	10000915 	stw	zero,36(r2)
 180d058:	00000a06 	br	180d084 <altera_avalon_jtag_uart_timeout+0x94>
  }
  else if (sp->host_inactive < INT_MAX - 2) {
 180d05c:	e0bffe17 	ldw	r2,-8(fp)
 180d060:	10c00917 	ldw	r3,36(r2)
 180d064:	00a00034 	movhi	r2,32768
 180d068:	10bfff04 	addi	r2,r2,-4
 180d06c:	10c00536 	bltu	r2,r3,180d084 <altera_avalon_jtag_uart_timeout+0x94>
    sp->host_inactive++;
 180d070:	e0bffe17 	ldw	r2,-8(fp)
 180d074:	10800917 	ldw	r2,36(r2)
 180d078:	10c00044 	addi	r3,r2,1
 180d07c:	e0bffe17 	ldw	r2,-8(fp)
 180d080:	10c00915 	stw	r3,36(r2)
 180d084:	00806074 	movhi	r2,385
 180d088:	108c9604 	addi	r2,r2,12888
 180d08c:	10800017 	ldw	r2,0(r2)
      ALT_FLAG_POST (sp->events, ALT_JTAG_UART_TIMEOUT, OS_FLAG_SET);
    }
  }

  return alt_ticks_per_second();
}
 180d090:	e037883a 	mov	sp,fp
 180d094:	df000017 	ldw	fp,0(sp)
 180d098:	dec00104 	addi	sp,sp,4
 180d09c:	f800283a 	ret

0180d0a0 <altera_avalon_jtag_uart_close>:
 * The close routine is not implemented for the small driver; instead it will
 * map to null. This is because the small driver simply waits while characters
 * are transmitted; there is no interrupt-serviced buffer to empty 
 */
int altera_avalon_jtag_uart_close(altera_avalon_jtag_uart_state* sp, int flags)
{
 180d0a0:	defffc04 	addi	sp,sp,-16
 180d0a4:	df000315 	stw	fp,12(sp)
 180d0a8:	df000304 	addi	fp,sp,12
 180d0ac:	e13ffd15 	stw	r4,-12(fp)
 180d0b0:	e17ffe15 	stw	r5,-8(fp)
  /* 
   * Wait for all transmit data to be emptied by the JTAG UART ISR, or
   * for a host-inactivity timeout, in which case transmit data will be lost
   */
  while ( (sp->tx_out != sp->tx_in) && (sp->host_inactive < sp->timeout) ) {
 180d0b4:	00000706 	br	180d0d4 <altera_avalon_jtag_uart_close+0x34>
    if (flags & O_NONBLOCK) {
 180d0b8:	e0bffe17 	ldw	r2,-8(fp)
 180d0bc:	1090000c 	andi	r2,r2,16384
 180d0c0:	1005003a 	cmpeq	r2,r2,zero
 180d0c4:	1000031e 	bne	r2,zero,180d0d4 <altera_avalon_jtag_uart_close+0x34>
      return -EWOULDBLOCK; 
 180d0c8:	00bffd44 	movi	r2,-11
 180d0cc:	e0bfff15 	stw	r2,-4(fp)
 180d0d0:	00000b06 	br	180d100 <altera_avalon_jtag_uart_close+0x60>
{
  /* 
   * Wait for all transmit data to be emptied by the JTAG UART ISR, or
   * for a host-inactivity timeout, in which case transmit data will be lost
   */
  while ( (sp->tx_out != sp->tx_in) && (sp->host_inactive < sp->timeout) ) {
 180d0d4:	e0bffd17 	ldw	r2,-12(fp)
 180d0d8:	10c00d17 	ldw	r3,52(r2)
 180d0dc:	e0bffd17 	ldw	r2,-12(fp)
 180d0e0:	10800c17 	ldw	r2,48(r2)
 180d0e4:	18800526 	beq	r3,r2,180d0fc <altera_avalon_jtag_uart_close+0x5c>
 180d0e8:	e0bffd17 	ldw	r2,-12(fp)
 180d0ec:	10c00917 	ldw	r3,36(r2)
 180d0f0:	e0bffd17 	ldw	r2,-12(fp)
 180d0f4:	10800117 	ldw	r2,4(r2)
 180d0f8:	18bfef36 	bltu	r3,r2,180d0b8 <altera_avalon_jtag_uart_close+0x18>
    if (flags & O_NONBLOCK) {
      return -EWOULDBLOCK; 
    }
  }

  return 0;
 180d0fc:	e03fff15 	stw	zero,-4(fp)
 180d100:	e0bfff17 	ldw	r2,-4(fp)
}
 180d104:	e037883a 	mov	sp,fp
 180d108:	df000017 	ldw	fp,0(sp)
 180d10c:	dec00104 	addi	sp,sp,4
 180d110:	f800283a 	ret

0180d114 <altera_avalon_jtag_uart_ioctl>:
/* ----------------------------------------------------------- */

int 
altera_avalon_jtag_uart_ioctl(altera_avalon_jtag_uart_state* sp, int req,
  void* arg)
{
 180d114:	defff804 	addi	sp,sp,-32
 180d118:	df000715 	stw	fp,28(sp)
 180d11c:	df000704 	addi	fp,sp,28
 180d120:	e13ffb15 	stw	r4,-20(fp)
 180d124:	e17ffc15 	stw	r5,-16(fp)
 180d128:	e1bffd15 	stw	r6,-12(fp)
  int rc = -ENOTTY;
 180d12c:	00bff9c4 	movi	r2,-25
 180d130:	e0bffa15 	stw	r2,-24(fp)

  switch (req)
 180d134:	e0bffc17 	ldw	r2,-16(fp)
 180d138:	e0bfff15 	stw	r2,-4(fp)
 180d13c:	e0ffff17 	ldw	r3,-4(fp)
 180d140:	189a8060 	cmpeqi	r2,r3,27137
 180d144:	1000041e 	bne	r2,zero,180d158 <altera_avalon_jtag_uart_ioctl+0x44>
 180d148:	e0ffff17 	ldw	r3,-4(fp)
 180d14c:	189a80a0 	cmpeqi	r2,r3,27138
 180d150:	10001b1e 	bne	r2,zero,180d1c0 <altera_avalon_jtag_uart_ioctl+0xac>
 180d154:	00002706 	br	180d1f4 <altera_avalon_jtag_uart_ioctl+0xe0>
  {
  case TIOCSTIMEOUT:
    /* Set the time to wait until assuming host is not connected */
    if (sp->timeout != INT_MAX)
 180d158:	e0bffb17 	ldw	r2,-20(fp)
 180d15c:	10c00117 	ldw	r3,4(r2)
 180d160:	00a00034 	movhi	r2,32768
 180d164:	10bfffc4 	addi	r2,r2,-1
 180d168:	18802226 	beq	r3,r2,180d1f4 <altera_avalon_jtag_uart_ioctl+0xe0>
    {
      int timeout = *((int *)arg);
 180d16c:	e0bffd17 	ldw	r2,-12(fp)
 180d170:	10800017 	ldw	r2,0(r2)
 180d174:	e0bff915 	stw	r2,-28(fp)
      sp->timeout = (timeout >= 2 && timeout < INT_MAX) ? timeout : INT_MAX - 1;
 180d178:	e0bff917 	ldw	r2,-28(fp)
 180d17c:	10800090 	cmplti	r2,r2,2
 180d180:	1000071e 	bne	r2,zero,180d1a0 <altera_avalon_jtag_uart_ioctl+0x8c>
 180d184:	e0fff917 	ldw	r3,-28(fp)
 180d188:	00a00034 	movhi	r2,32768
 180d18c:	10bfffc4 	addi	r2,r2,-1
 180d190:	18800326 	beq	r3,r2,180d1a0 <altera_avalon_jtag_uart_ioctl+0x8c>
 180d194:	e0bff917 	ldw	r2,-28(fp)
 180d198:	e0bffe15 	stw	r2,-8(fp)
 180d19c:	00000306 	br	180d1ac <altera_avalon_jtag_uart_ioctl+0x98>
 180d1a0:	00e00034 	movhi	r3,32768
 180d1a4:	18ffff84 	addi	r3,r3,-2
 180d1a8:	e0fffe15 	stw	r3,-8(fp)
 180d1ac:	e0bffb17 	ldw	r2,-20(fp)
 180d1b0:	e0fffe17 	ldw	r3,-8(fp)
 180d1b4:	10c00115 	stw	r3,4(r2)
      rc = 0;
 180d1b8:	e03ffa15 	stw	zero,-24(fp)
    }
    break;
 180d1bc:	00000d06 	br	180d1f4 <altera_avalon_jtag_uart_ioctl+0xe0>

  case TIOCGCONNECTED:
    /* Find out whether host is connected */
    if (sp->timeout != INT_MAX)
 180d1c0:	e0bffb17 	ldw	r2,-20(fp)
 180d1c4:	10c00117 	ldw	r3,4(r2)
 180d1c8:	00a00034 	movhi	r2,32768
 180d1cc:	10bfffc4 	addi	r2,r2,-1
 180d1d0:	18800826 	beq	r3,r2,180d1f4 <altera_avalon_jtag_uart_ioctl+0xe0>
    {
      *((int *)arg) = (sp->host_inactive < sp->timeout) ? 1 : 0;
 180d1d4:	e13ffd17 	ldw	r4,-12(fp)
 180d1d8:	e0bffb17 	ldw	r2,-20(fp)
 180d1dc:	10c00917 	ldw	r3,36(r2)
 180d1e0:	e0bffb17 	ldw	r2,-20(fp)
 180d1e4:	10800117 	ldw	r2,4(r2)
 180d1e8:	1885803a 	cmpltu	r2,r3,r2
 180d1ec:	20800015 	stw	r2,0(r4)
      rc = 0;
 180d1f0:	e03ffa15 	stw	zero,-24(fp)

  default:
    break;
  }

  return rc;
 180d1f4:	e0bffa17 	ldw	r2,-24(fp)
}
 180d1f8:	e037883a 	mov	sp,fp
 180d1fc:	df000017 	ldw	fp,0(sp)
 180d200:	dec00104 	addi	sp,sp,4
 180d204:	f800283a 	ret

0180d208 <altera_avalon_jtag_uart_read>:
/* ----------------------------------------------------------- */

int 
altera_avalon_jtag_uart_read(altera_avalon_jtag_uart_state* sp, 
  char * buffer, int space, int flags)
{
 180d208:	defff204 	addi	sp,sp,-56
 180d20c:	dfc00d15 	stw	ra,52(sp)
 180d210:	df000c15 	stw	fp,48(sp)
 180d214:	df000c04 	addi	fp,sp,48
 180d218:	e13ffb15 	stw	r4,-20(fp)
 180d21c:	e17ffc15 	stw	r5,-16(fp)
 180d220:	e1bffd15 	stw	r6,-12(fp)
 180d224:	e1fffe15 	stw	r7,-8(fp)
  char * ptr = buffer;
 180d228:	e0bffc17 	ldw	r2,-16(fp)
 180d22c:	e0bffa15 	stw	r2,-24(fp)
   * When running in a multi threaded environment, obtain the "read_lock"
   * semaphore. This ensures that reading from the device is thread-safe.
   */
  ALT_SEM_PEND (sp->read_lock, 0);

  while (space > 0)
 180d230:	00004806 	br	180d354 <altera_avalon_jtag_uart_read+0x14c>
    unsigned int in, out;

    /* Read as much data as possible */
    do
    {
      in  = sp->rx_in;
 180d234:	e0bffb17 	ldw	r2,-20(fp)
 180d238:	10800a17 	ldw	r2,40(r2)
 180d23c:	e0bff715 	stw	r2,-36(fp)
      out = sp->rx_out;
 180d240:	e0bffb17 	ldw	r2,-20(fp)
 180d244:	10800b17 	ldw	r2,44(r2)
 180d248:	e0bff615 	stw	r2,-40(fp)

      if (in >= out)
 180d24c:	e0fff717 	ldw	r3,-36(fp)
 180d250:	e0bff617 	ldw	r2,-40(fp)
 180d254:	18800536 	bltu	r3,r2,180d26c <altera_avalon_jtag_uart_read+0x64>
        n = in - out;
 180d258:	e0bff717 	ldw	r2,-36(fp)
 180d25c:	e0fff617 	ldw	r3,-40(fp)
 180d260:	10c5c83a 	sub	r2,r2,r3
 180d264:	e0bff815 	stw	r2,-32(fp)
 180d268:	00000406 	br	180d27c <altera_avalon_jtag_uart_read+0x74>
      else
        n = ALTERA_AVALON_JTAG_UART_BUF_LEN - out;
 180d26c:	00820004 	movi	r2,2048
 180d270:	e0fff617 	ldw	r3,-40(fp)
 180d274:	10c5c83a 	sub	r2,r2,r3
 180d278:	e0bff815 	stw	r2,-32(fp)

      if (n == 0)
 180d27c:	e0bff817 	ldw	r2,-32(fp)
 180d280:	1005003a 	cmpeq	r2,r2,zero
 180d284:	10001f1e 	bne	r2,zero,180d304 <altera_avalon_jtag_uart_read+0xfc>
        break; /* No more data available */

      if (n > space)
 180d288:	e0fffd17 	ldw	r3,-12(fp)
 180d28c:	e0bff817 	ldw	r2,-32(fp)
 180d290:	1880022e 	bgeu	r3,r2,180d29c <altera_avalon_jtag_uart_read+0x94>
        n = space;
 180d294:	e0bffd17 	ldw	r2,-12(fp)
 180d298:	e0bff815 	stw	r2,-32(fp)

      memcpy(ptr, sp->rx_buf + out, n);
 180d29c:	e0bffb17 	ldw	r2,-20(fp)
 180d2a0:	10c00e04 	addi	r3,r2,56
 180d2a4:	e0bff617 	ldw	r2,-40(fp)
 180d2a8:	1887883a 	add	r3,r3,r2
 180d2ac:	e0bffa17 	ldw	r2,-24(fp)
 180d2b0:	1009883a 	mov	r4,r2
 180d2b4:	180b883a 	mov	r5,r3
 180d2b8:	e1bff817 	ldw	r6,-32(fp)
 180d2bc:	18069fc0 	call	18069fc <memcpy>
      ptr   += n;
 180d2c0:	e0fff817 	ldw	r3,-32(fp)
 180d2c4:	e0bffa17 	ldw	r2,-24(fp)
 180d2c8:	10c5883a 	add	r2,r2,r3
 180d2cc:	e0bffa15 	stw	r2,-24(fp)
      space -= n;
 180d2d0:	e0fffd17 	ldw	r3,-12(fp)
 180d2d4:	e0bff817 	ldw	r2,-32(fp)
 180d2d8:	1885c83a 	sub	r2,r3,r2
 180d2dc:	e0bffd15 	stw	r2,-12(fp)

      sp->rx_out = (out + n) % ALTERA_AVALON_JTAG_UART_BUF_LEN;
 180d2e0:	e0fff617 	ldw	r3,-40(fp)
 180d2e4:	e0bff817 	ldw	r2,-32(fp)
 180d2e8:	1885883a 	add	r2,r3,r2
 180d2ec:	10c1ffcc 	andi	r3,r2,2047
 180d2f0:	e0bffb17 	ldw	r2,-20(fp)
 180d2f4:	10c00b15 	stw	r3,44(r2)
    }
    while (space > 0);
 180d2f8:	e0bffd17 	ldw	r2,-12(fp)
 180d2fc:	10800048 	cmpgei	r2,r2,1
 180d300:	103fcc1e 	bne	r2,zero,180d234 <altera_avalon_jtag_uart_read+0x2c>

    /* If we read any data then return it */
    if (ptr != buffer)
 180d304:	e0fffa17 	ldw	r3,-24(fp)
 180d308:	e0bffc17 	ldw	r2,-16(fp)
 180d30c:	1880141e 	bne	r3,r2,180d360 <altera_avalon_jtag_uart_read+0x158>
      break;

    /* If in non-blocking mode then return error */
    if (flags & O_NONBLOCK)
 180d310:	e0bffe17 	ldw	r2,-8(fp)
 180d314:	1090000c 	andi	r2,r2,16384
 180d318:	1004c03a 	cmpne	r2,r2,zero
 180d31c:	1000101e 	bne	r2,zero,180d360 <altera_avalon_jtag_uart_read+0x158>
      while (in == sp->rx_in && sp->host_inactive < sp->timeout)
        ;
    }
#else
    /* No OS: Always spin */
    while (in == sp->rx_in && sp->host_inactive < sp->timeout)
 180d320:	e0bffb17 	ldw	r2,-20(fp)
 180d324:	10c00a17 	ldw	r3,40(r2)
 180d328:	e0bff717 	ldw	r2,-36(fp)
 180d32c:	1880051e 	bne	r3,r2,180d344 <altera_avalon_jtag_uart_read+0x13c>
 180d330:	e0bffb17 	ldw	r2,-20(fp)
 180d334:	10c00917 	ldw	r3,36(r2)
 180d338:	e0bffb17 	ldw	r2,-20(fp)
 180d33c:	10800117 	ldw	r2,4(r2)
 180d340:	18bff736 	bltu	r3,r2,180d320 <altera_avalon_jtag_uart_read+0x118>
      ;
#endif /* __ucosii__ */

    if (in == sp->rx_in)
 180d344:	e0bffb17 	ldw	r2,-20(fp)
 180d348:	10c00a17 	ldw	r3,40(r2)
 180d34c:	e0bff717 	ldw	r2,-36(fp)
 180d350:	18800326 	beq	r3,r2,180d360 <altera_avalon_jtag_uart_read+0x158>
   * When running in a multi threaded environment, obtain the "read_lock"
   * semaphore. This ensures that reading from the device is thread-safe.
   */
  ALT_SEM_PEND (sp->read_lock, 0);

  while (space > 0)
 180d354:	e0bffd17 	ldw	r2,-12(fp)
 180d358:	10800048 	cmpgei	r2,r2,1
 180d35c:	103fb51e 	bne	r2,zero,180d234 <altera_avalon_jtag_uart_read+0x2c>
   * semaphore so that other threads can access the buffer.
   */

  ALT_SEM_POST (sp->read_lock);

  if (ptr != buffer)
 180d360:	e0fffa17 	ldw	r3,-24(fp)
 180d364:	e0bffc17 	ldw	r2,-16(fp)
 180d368:	18801926 	beq	r3,r2,180d3d0 <altera_avalon_jtag_uart_read+0x1c8>
static ALT_INLINE alt_irq_context ALT_ALWAYS_INLINE 
       alt_irq_disable_all (void)
{
  alt_irq_context context;

  NIOS2_READ_STATUS (context);
 180d36c:	0005303a 	rdctl	r2,status
 180d370:	e0bff515 	stw	r2,-44(fp)

  NIOS2_WRITE_STATUS (context & ~NIOS2_STATUS_PIE_MSK);
 180d374:	e0fff517 	ldw	r3,-44(fp)
 180d378:	00bfff84 	movi	r2,-2
 180d37c:	1884703a 	and	r2,r3,r2
 180d380:	1001703a 	wrctl	status,r2
  
  return context;
 180d384:	e0bff517 	ldw	r2,-44(fp)
  {
    /* If we read any data then there is space in the buffer so enable interrupts */
    context = alt_irq_disable_all();
 180d388:	e0bff915 	stw	r2,-28(fp)
    sp->irq_enable |= ALTERA_AVALON_JTAG_UART_CONTROL_RE_MSK;
 180d38c:	e0bffb17 	ldw	r2,-20(fp)
 180d390:	10800817 	ldw	r2,32(r2)
 180d394:	10c00054 	ori	r3,r2,1
 180d398:	e0bffb17 	ldw	r2,-20(fp)
 180d39c:	10c00815 	stw	r3,32(r2)
    IOWR_ALTERA_AVALON_JTAG_UART_CONTROL(sp->base, sp->irq_enable);
 180d3a0:	e0bffb17 	ldw	r2,-20(fp)
 180d3a4:	10800017 	ldw	r2,0(r2)
 180d3a8:	11000104 	addi	r4,r2,4
 180d3ac:	e0bffb17 	ldw	r2,-20(fp)
 180d3b0:	10800817 	ldw	r2,32(r2)
 180d3b4:	1007883a 	mov	r3,r2
 180d3b8:	2005883a 	mov	r2,r4
 180d3bc:	10c00035 	stwio	r3,0(r2)
 180d3c0:	e0bff917 	ldw	r2,-28(fp)
 180d3c4:	e0bff415 	stw	r2,-48(fp)
  status &= ~NIOS2_STATUS_PIE_MSK;
  status |= (context & NIOS2_STATUS_PIE_MSK);
  
  NIOS2_WRITE_STATUS (status);
#else
  NIOS2_WRITE_STATUS (context);
 180d3c8:	e0bff417 	ldw	r2,-48(fp)
 180d3cc:	1001703a 	wrctl	status,r2
    alt_irq_enable_all(context);
  }

  if (ptr != buffer)
 180d3d0:	e0fffa17 	ldw	r3,-24(fp)
 180d3d4:	e0bffc17 	ldw	r2,-16(fp)
 180d3d8:	18800526 	beq	r3,r2,180d3f0 <altera_avalon_jtag_uart_read+0x1e8>
    return ptr - buffer;
 180d3dc:	e0fffa17 	ldw	r3,-24(fp)
 180d3e0:	e0bffc17 	ldw	r2,-16(fp)
 180d3e4:	1887c83a 	sub	r3,r3,r2
 180d3e8:	e0ffff15 	stw	r3,-4(fp)
 180d3ec:	00000906 	br	180d414 <altera_avalon_jtag_uart_read+0x20c>
  else if (flags & O_NONBLOCK)
 180d3f0:	e0bffe17 	ldw	r2,-8(fp)
 180d3f4:	1090000c 	andi	r2,r2,16384
 180d3f8:	1005003a 	cmpeq	r2,r2,zero
 180d3fc:	1000031e 	bne	r2,zero,180d40c <altera_avalon_jtag_uart_read+0x204>
    return -EWOULDBLOCK;
 180d400:	00bffd44 	movi	r2,-11
 180d404:	e0bfff15 	stw	r2,-4(fp)
 180d408:	00000206 	br	180d414 <altera_avalon_jtag_uart_read+0x20c>
  else
    return -EIO;
 180d40c:	00bffec4 	movi	r2,-5
 180d410:	e0bfff15 	stw	r2,-4(fp)
 180d414:	e0bfff17 	ldw	r2,-4(fp)
}
 180d418:	e037883a 	mov	sp,fp
 180d41c:	dfc00117 	ldw	ra,4(sp)
 180d420:	df000017 	ldw	fp,0(sp)
 180d424:	dec00204 	addi	sp,sp,8
 180d428:	f800283a 	ret

0180d42c <altera_avalon_jtag_uart_write>:
/* ----------------------------------------------------------- */

int 
altera_avalon_jtag_uart_write(altera_avalon_jtag_uart_state* sp, 
  const char * ptr, int count, int flags)
{
 180d42c:	defff204 	addi	sp,sp,-56
 180d430:	dfc00d15 	stw	ra,52(sp)
 180d434:	df000c15 	stw	fp,48(sp)
 180d438:	df000c04 	addi	fp,sp,48
 180d43c:	e13ffb15 	stw	r4,-20(fp)
 180d440:	e17ffc15 	stw	r5,-16(fp)
 180d444:	e1bffd15 	stw	r6,-12(fp)
 180d448:	e1fffe15 	stw	r7,-8(fp)
  /* Remove warning at optimisation level 03 by seting out to 0 */
  unsigned int in, out=0;
 180d44c:	e03ff915 	stw	zero,-28(fp)
  unsigned int n;
  alt_irq_context context;

  const char * start = ptr;
 180d450:	e0bffc17 	ldw	r2,-16(fp)
 180d454:	e0bff615 	stw	r2,-40(fp)
  ALT_SEM_PEND (sp->write_lock, 0);

  do
  {
    /* Copy as much as we can into the transmit buffer */
    while (count > 0)
 180d458:	00003a06 	br	180d544 <altera_avalon_jtag_uart_write+0x118>
    {
      /* We need a stable value of the out pointer to calculate the space available */
      in  = sp->tx_in;
 180d45c:	e0bffb17 	ldw	r2,-20(fp)
 180d460:	10800c17 	ldw	r2,48(r2)
 180d464:	e0bffa15 	stw	r2,-24(fp)
      out = sp->tx_out;
 180d468:	e0bffb17 	ldw	r2,-20(fp)
 180d46c:	10800d17 	ldw	r2,52(r2)
 180d470:	e0bff915 	stw	r2,-28(fp)

      if (in < out)
 180d474:	e0fffa17 	ldw	r3,-24(fp)
 180d478:	e0bff917 	ldw	r2,-28(fp)
 180d47c:	1880062e 	bgeu	r3,r2,180d498 <altera_avalon_jtag_uart_write+0x6c>
        n = out - 1 - in;
 180d480:	e0fff917 	ldw	r3,-28(fp)
 180d484:	e0bffa17 	ldw	r2,-24(fp)
 180d488:	1885c83a 	sub	r2,r3,r2
 180d48c:	10bfffc4 	addi	r2,r2,-1
 180d490:	e0bff815 	stw	r2,-32(fp)
 180d494:	00000c06 	br	180d4c8 <altera_avalon_jtag_uart_write+0x9c>
      else if (out > 0)
 180d498:	e0bff917 	ldw	r2,-28(fp)
 180d49c:	1005003a 	cmpeq	r2,r2,zero
 180d4a0:	1000051e 	bne	r2,zero,180d4b8 <altera_avalon_jtag_uart_write+0x8c>
        n = ALTERA_AVALON_JTAG_UART_BUF_LEN - in;
 180d4a4:	00820004 	movi	r2,2048
 180d4a8:	e0fffa17 	ldw	r3,-24(fp)
 180d4ac:	10c5c83a 	sub	r2,r2,r3
 180d4b0:	e0bff815 	stw	r2,-32(fp)
 180d4b4:	00000406 	br	180d4c8 <altera_avalon_jtag_uart_write+0x9c>
      else
        n = ALTERA_AVALON_JTAG_UART_BUF_LEN - 1 - in;
 180d4b8:	0081ffc4 	movi	r2,2047
 180d4bc:	e0fffa17 	ldw	r3,-24(fp)
 180d4c0:	10c5c83a 	sub	r2,r2,r3
 180d4c4:	e0bff815 	stw	r2,-32(fp)

      if (n == 0)
 180d4c8:	e0bff817 	ldw	r2,-32(fp)
 180d4cc:	1005003a 	cmpeq	r2,r2,zero
 180d4d0:	10001f1e 	bne	r2,zero,180d550 <altera_avalon_jtag_uart_write+0x124>
        break;

      if (n > count)
 180d4d4:	e0fffd17 	ldw	r3,-12(fp)
 180d4d8:	e0bff817 	ldw	r2,-32(fp)
 180d4dc:	1880022e 	bgeu	r3,r2,180d4e8 <altera_avalon_jtag_uart_write+0xbc>
        n = count;
 180d4e0:	e0bffd17 	ldw	r2,-12(fp)
 180d4e4:	e0bff815 	stw	r2,-32(fp)

      memcpy(sp->tx_buf + in, ptr, n);
 180d4e8:	e0bffb17 	ldw	r2,-20(fp)
 180d4ec:	10c20e04 	addi	r3,r2,2104
 180d4f0:	e0bffa17 	ldw	r2,-24(fp)
 180d4f4:	1885883a 	add	r2,r3,r2
 180d4f8:	e0fffc17 	ldw	r3,-16(fp)
 180d4fc:	1009883a 	mov	r4,r2
 180d500:	180b883a 	mov	r5,r3
 180d504:	e1bff817 	ldw	r6,-32(fp)
 180d508:	18069fc0 	call	18069fc <memcpy>
      ptr   += n;
 180d50c:	e0fff817 	ldw	r3,-32(fp)
 180d510:	e0bffc17 	ldw	r2,-16(fp)
 180d514:	10c5883a 	add	r2,r2,r3
 180d518:	e0bffc15 	stw	r2,-16(fp)
      count -= n;
 180d51c:	e0fffd17 	ldw	r3,-12(fp)
 180d520:	e0bff817 	ldw	r2,-32(fp)
 180d524:	1885c83a 	sub	r2,r3,r2
 180d528:	e0bffd15 	stw	r2,-12(fp)

      sp->tx_in = (in + n) % ALTERA_AVALON_JTAG_UART_BUF_LEN;
 180d52c:	e0fffa17 	ldw	r3,-24(fp)
 180d530:	e0bff817 	ldw	r2,-32(fp)
 180d534:	1885883a 	add	r2,r3,r2
 180d538:	10c1ffcc 	andi	r3,r2,2047
 180d53c:	e0bffb17 	ldw	r2,-20(fp)
 180d540:	10c00c15 	stw	r3,48(r2)
  ALT_SEM_PEND (sp->write_lock, 0);

  do
  {
    /* Copy as much as we can into the transmit buffer */
    while (count > 0)
 180d544:	e0bffd17 	ldw	r2,-12(fp)
 180d548:	10800048 	cmpgei	r2,r2,1
 180d54c:	103fc31e 	bne	r2,zero,180d45c <altera_avalon_jtag_uart_write+0x30>
static ALT_INLINE alt_irq_context ALT_ALWAYS_INLINE 
       alt_irq_disable_all (void)
{
  alt_irq_context context;

  NIOS2_READ_STATUS (context);
 180d550:	0005303a 	rdctl	r2,status
 180d554:	e0bff515 	stw	r2,-44(fp)

  NIOS2_WRITE_STATUS (context & ~NIOS2_STATUS_PIE_MSK);
 180d558:	e0fff517 	ldw	r3,-44(fp)
 180d55c:	00bfff84 	movi	r2,-2
 180d560:	1884703a 	and	r2,r3,r2
 180d564:	1001703a 	wrctl	status,r2
  
  return context;
 180d568:	e0bff517 	ldw	r2,-44(fp)
     * to enable interrupts if there is no space left in the FIFO
     *
     * For now kick the interrupt routine every time to make it transmit 
     * the data 
     */
    context = alt_irq_disable_all();
 180d56c:	e0bff715 	stw	r2,-36(fp)
    sp->irq_enable |= ALTERA_AVALON_JTAG_UART_CONTROL_WE_MSK;
 180d570:	e0bffb17 	ldw	r2,-20(fp)
 180d574:	10800817 	ldw	r2,32(r2)
 180d578:	10c00094 	ori	r3,r2,2
 180d57c:	e0bffb17 	ldw	r2,-20(fp)
 180d580:	10c00815 	stw	r3,32(r2)
    IOWR_ALTERA_AVALON_JTAG_UART_CONTROL(sp->base, sp->irq_enable);
 180d584:	e0bffb17 	ldw	r2,-20(fp)
 180d588:	10800017 	ldw	r2,0(r2)
 180d58c:	11000104 	addi	r4,r2,4
 180d590:	e0bffb17 	ldw	r2,-20(fp)
 180d594:	10800817 	ldw	r2,32(r2)
 180d598:	1007883a 	mov	r3,r2
 180d59c:	2005883a 	mov	r2,r4
 180d5a0:	10c00035 	stwio	r3,0(r2)
 180d5a4:	e0bff717 	ldw	r2,-36(fp)
 180d5a8:	e0bff415 	stw	r2,-48(fp)
  status &= ~NIOS2_STATUS_PIE_MSK;
  status |= (context & NIOS2_STATUS_PIE_MSK);
  
  NIOS2_WRITE_STATUS (status);
#else
  NIOS2_WRITE_STATUS (context);
 180d5ac:	e0bff417 	ldw	r2,-48(fp)
 180d5b0:	1001703a 	wrctl	status,r2
    /* 
     * If there is any data left then either return now or block until 
     * some has been sent 
     */
    /* consider: test whether there is anything there while doing this and delay for at most 2s. */
    if (count > 0)
 180d5b4:	e0bffd17 	ldw	r2,-12(fp)
 180d5b8:	10800050 	cmplti	r2,r2,1
 180d5bc:	1000111e 	bne	r2,zero,180d604 <altera_avalon_jtag_uart_write+0x1d8>
    {
      if (flags & O_NONBLOCK)
 180d5c0:	e0bffe17 	ldw	r2,-8(fp)
 180d5c4:	1090000c 	andi	r2,r2,16384
 180d5c8:	1004c03a 	cmpne	r2,r2,zero
 180d5cc:	1000101e 	bne	r2,zero,180d610 <altera_avalon_jtag_uart_write+0x1e4>
      /*
       * No OS present: Always wait for data to be removed from buffer.  Once
       * the interrupt routine has removed some data then we will be able to
       * insert some more.
       */
      while (out == sp->tx_out && sp->host_inactive < sp->timeout)
 180d5d0:	e0bffb17 	ldw	r2,-20(fp)
 180d5d4:	10c00d17 	ldw	r3,52(r2)
 180d5d8:	e0bff917 	ldw	r2,-28(fp)
 180d5dc:	1880051e 	bne	r3,r2,180d5f4 <altera_avalon_jtag_uart_write+0x1c8>
 180d5e0:	e0bffb17 	ldw	r2,-20(fp)
 180d5e4:	10c00917 	ldw	r3,36(r2)
 180d5e8:	e0bffb17 	ldw	r2,-20(fp)
 180d5ec:	10800117 	ldw	r2,4(r2)
 180d5f0:	18bff736 	bltu	r3,r2,180d5d0 <altera_avalon_jtag_uart_write+0x1a4>
        ;
#endif /* __ucosii__ */

      if (out == sp->tx_out)
 180d5f4:	e0bffb17 	ldw	r2,-20(fp)
 180d5f8:	10c00d17 	ldw	r3,52(r2)
 180d5fc:	e0bff917 	ldw	r2,-28(fp)
 180d600:	18800326 	beq	r3,r2,180d610 <altera_avalon_jtag_uart_write+0x1e4>
        break;
    }
  }
  while (count > 0);
 180d604:	e0bffd17 	ldw	r2,-12(fp)
 180d608:	10800048 	cmpgei	r2,r2,1
 180d60c:	103fcd1e 	bne	r2,zero,180d544 <altera_avalon_jtag_uart_write+0x118>
   * Now that access to the circular buffer is complete, release the write
   * semaphore so that other threads can access the buffer.
   */
  ALT_SEM_POST (sp->write_lock);

  if (ptr != start)
 180d610:	e0fffc17 	ldw	r3,-16(fp)
 180d614:	e0bff617 	ldw	r2,-40(fp)
 180d618:	18800526 	beq	r3,r2,180d630 <altera_avalon_jtag_uart_write+0x204>
    return ptr - start;
 180d61c:	e0fffc17 	ldw	r3,-16(fp)
 180d620:	e0bff617 	ldw	r2,-40(fp)
 180d624:	1887c83a 	sub	r3,r3,r2
 180d628:	e0ffff15 	stw	r3,-4(fp)
 180d62c:	00000906 	br	180d654 <altera_avalon_jtag_uart_write+0x228>
  else if (flags & O_NONBLOCK)
 180d630:	e0bffe17 	ldw	r2,-8(fp)
 180d634:	1090000c 	andi	r2,r2,16384
 180d638:	1005003a 	cmpeq	r2,r2,zero
 180d63c:	1000031e 	bne	r2,zero,180d64c <altera_avalon_jtag_uart_write+0x220>
    return -EWOULDBLOCK;
 180d640:	00bffd44 	movi	r2,-11
 180d644:	e0bfff15 	stw	r2,-4(fp)
 180d648:	00000206 	br	180d654 <altera_avalon_jtag_uart_write+0x228>
  else
    return -EIO; /* Host not connected */
 180d64c:	00bffec4 	movi	r2,-5
 180d650:	e0bfff15 	stw	r2,-4(fp)
 180d654:	e0bfff17 	ldw	r2,-4(fp)
}
 180d658:	e037883a 	mov	sp,fp
 180d65c:	dfc00117 	ldw	ra,4(sp)
 180d660:	df000017 	ldw	fp,0(sp)
 180d664:	dec00204 	addi	sp,sp,8
 180d668:	f800283a 	ret

0180d66c <lcd_write_command>:

/* --------------------------------------------------------------------- */

static void lcd_write_command(altera_avalon_lcd_16207_state* sp, 
  unsigned char command)
{
 180d66c:	defffa04 	addi	sp,sp,-24
 180d670:	dfc00515 	stw	ra,20(sp)
 180d674:	df000415 	stw	fp,16(sp)
 180d678:	df000404 	addi	fp,sp,16
 180d67c:	e13ffe15 	stw	r4,-8(fp)
 180d680:	e17fff05 	stb	r5,-4(fp)
  unsigned int base = sp->base;
 180d684:	e0bffe17 	ldw	r2,-8(fp)
 180d688:	10800017 	ldw	r2,0(r2)
 180d68c:	e0bffd15 	stw	r2,-12(fp)
  /* We impose a timeout on the driver in case the LCD panel isn't connected.
   * The first time we call this function the timeout is approx 25ms 
   * (assuming 5 cycles per loop and a 200MHz clock).  Obviously systems
   * with slower clocks, or debug builds, or slower memory will take longer.
   */
  int i = 1000000;
 180d690:	008003f4 	movhi	r2,15
 180d694:	10909004 	addi	r2,r2,16960
 180d698:	e0bffc15 	stw	r2,-16(fp)

  /* Don't bother if the LCD panel didn't work before */
  if (sp->broken)
 180d69c:	e0bffe17 	ldw	r2,-8(fp)
 180d6a0:	10800803 	ldbu	r2,32(r2)
 180d6a4:	10803fcc 	andi	r2,r2,255
 180d6a8:	1080201c 	xori	r2,r2,128
 180d6ac:	10bfe004 	addi	r2,r2,-128
 180d6b0:	1004c03a 	cmpne	r2,r2,zero
 180d6b4:	1000161e 	bne	r2,zero,180d710 <lcd_write_command+0xa4>
    return;

  /* Wait until LCD isn't busy. */
  while (IORD_ALTERA_AVALON_LCD_16207_STATUS(base) & ALTERA_AVALON_LCD_16207_STATUS_BUSY_MSK)
 180d6b8:	00000a06 	br	180d6e4 <lcd_write_command+0x78>
    if (--i == 0)
 180d6bc:	e0bffc17 	ldw	r2,-16(fp)
 180d6c0:	10bfffc4 	addi	r2,r2,-1
 180d6c4:	e0bffc15 	stw	r2,-16(fp)
 180d6c8:	e0bffc17 	ldw	r2,-16(fp)
 180d6cc:	1004c03a 	cmpne	r2,r2,zero
 180d6d0:	1000041e 	bne	r2,zero,180d6e4 <lcd_write_command+0x78>
    {
      sp->broken = 1;
 180d6d4:	e0fffe17 	ldw	r3,-8(fp)
 180d6d8:	00800044 	movi	r2,1
 180d6dc:	18800805 	stb	r2,32(r3)
      return;
 180d6e0:	00000b06 	br	180d710 <lcd_write_command+0xa4>
  /* Don't bother if the LCD panel didn't work before */
  if (sp->broken)
    return;

  /* Wait until LCD isn't busy. */
  while (IORD_ALTERA_AVALON_LCD_16207_STATUS(base) & ALTERA_AVALON_LCD_16207_STATUS_BUSY_MSK)
 180d6e4:	e0bffd17 	ldw	r2,-12(fp)
 180d6e8:	10800104 	addi	r2,r2,4
 180d6ec:	10800037 	ldwio	r2,0(r2)
 180d6f0:	1080200c 	andi	r2,r2,128
 180d6f4:	1004c03a 	cmpne	r2,r2,zero
 180d6f8:	103ff01e 	bne	r2,zero,180d6bc <lcd_write_command+0x50>
    }

  /* Despite what it says in the datasheet, the LCD isn't ready to accept
   * a write immediately after it returns BUSY=0.  Wait for 100us more.
   */
  usleep(100);
 180d6fc:	01001904 	movi	r4,100
 180d700:	180abe80 	call	180abe8 <usleep>

  IOWR_ALTERA_AVALON_LCD_16207_COMMAND(base, command);
 180d704:	e0bffd17 	ldw	r2,-12(fp)
 180d708:	e0ffff03 	ldbu	r3,-4(fp)
 180d70c:	10c00035 	stwio	r3,0(r2)
}
 180d710:	e037883a 	mov	sp,fp
 180d714:	dfc00117 	ldw	ra,4(sp)
 180d718:	df000017 	ldw	fp,0(sp)
 180d71c:	dec00204 	addi	sp,sp,8
 180d720:	f800283a 	ret

0180d724 <lcd_write_data>:

/* --------------------------------------------------------------------- */

static void lcd_write_data(altera_avalon_lcd_16207_state* sp, 
  unsigned char data)
{
 180d724:	defffa04 	addi	sp,sp,-24
 180d728:	dfc00515 	stw	ra,20(sp)
 180d72c:	df000415 	stw	fp,16(sp)
 180d730:	df000404 	addi	fp,sp,16
 180d734:	e13ffe15 	stw	r4,-8(fp)
 180d738:	e17fff05 	stb	r5,-4(fp)
  unsigned int base = sp->base;
 180d73c:	e0bffe17 	ldw	r2,-8(fp)
 180d740:	10800017 	ldw	r2,0(r2)
 180d744:	e0bffd15 	stw	r2,-12(fp)
  /* We impose a timeout on the driver in case the LCD panel isn't connected.
   * The first time we call this function the timeout is approx 25ms 
   * (assuming 5 cycles per loop and a 200MHz clock).  Obviously systems
   * with slower clocks, or debug builds, or slower memory will take longer.
   */
  int i = 1000000;
 180d748:	008003f4 	movhi	r2,15
 180d74c:	10909004 	addi	r2,r2,16960
 180d750:	e0bffc15 	stw	r2,-16(fp)

  /* Don't bother if the LCD panel didn't work before */
  if (sp->broken)
 180d754:	e0bffe17 	ldw	r2,-8(fp)
 180d758:	10800803 	ldbu	r2,32(r2)
 180d75c:	10803fcc 	andi	r2,r2,255
 180d760:	1080201c 	xori	r2,r2,128
 180d764:	10bfe004 	addi	r2,r2,-128
 180d768:	1004c03a 	cmpne	r2,r2,zero
 180d76c:	10001d1e 	bne	r2,zero,180d7e4 <lcd_write_data+0xc0>
    return;

  /* Wait until LCD isn't busy. */
  while (IORD_ALTERA_AVALON_LCD_16207_STATUS(base) & ALTERA_AVALON_LCD_16207_STATUS_BUSY_MSK)
 180d770:	00000a06 	br	180d79c <lcd_write_data+0x78>
    if (--i == 0)
 180d774:	e0bffc17 	ldw	r2,-16(fp)
 180d778:	10bfffc4 	addi	r2,r2,-1
 180d77c:	e0bffc15 	stw	r2,-16(fp)
 180d780:	e0bffc17 	ldw	r2,-16(fp)
 180d784:	1004c03a 	cmpne	r2,r2,zero
 180d788:	1000041e 	bne	r2,zero,180d79c <lcd_write_data+0x78>
    {
      sp->broken = 1;
 180d78c:	e0fffe17 	ldw	r3,-8(fp)
 180d790:	00800044 	movi	r2,1
 180d794:	18800805 	stb	r2,32(r3)
      return;
 180d798:	00001206 	br	180d7e4 <lcd_write_data+0xc0>
  /* Don't bother if the LCD panel didn't work before */
  if (sp->broken)
    return;

  /* Wait until LCD isn't busy. */
  while (IORD_ALTERA_AVALON_LCD_16207_STATUS(base) & ALTERA_AVALON_LCD_16207_STATUS_BUSY_MSK)
 180d79c:	e0bffd17 	ldw	r2,-12(fp)
 180d7a0:	10800104 	addi	r2,r2,4
 180d7a4:	10800037 	ldwio	r2,0(r2)
 180d7a8:	1080200c 	andi	r2,r2,128
 180d7ac:	1004c03a 	cmpne	r2,r2,zero
 180d7b0:	103ff01e 	bne	r2,zero,180d774 <lcd_write_data+0x50>
    }

  /* Despite what it says in the datasheet, the LCD isn't ready to accept
   * a write immediately after it returns BUSY=0.  Wait for 100us more.
   */
  usleep(100);
 180d7b4:	01001904 	movi	r4,100
 180d7b8:	180abe80 	call	180abe8 <usleep>

  IOWR_ALTERA_AVALON_LCD_16207_DATA(base, data);
 180d7bc:	e0bffd17 	ldw	r2,-12(fp)
 180d7c0:	10800204 	addi	r2,r2,8
 180d7c4:	e0ffff03 	ldbu	r3,-4(fp)
 180d7c8:	10c00035 	stwio	r3,0(r2)

  sp->address++;
 180d7cc:	e0bffe17 	ldw	r2,-8(fp)
 180d7d0:	108008c3 	ldbu	r2,35(r2)
 180d7d4:	10800044 	addi	r2,r2,1
 180d7d8:	1007883a 	mov	r3,r2
 180d7dc:	e0bffe17 	ldw	r2,-8(fp)
 180d7e0:	10c008c5 	stb	r3,35(r2)
}
 180d7e4:	e037883a 	mov	sp,fp
 180d7e8:	dfc00117 	ldw	ra,4(sp)
 180d7ec:	df000017 	ldw	fp,0(sp)
 180d7f0:	dec00204 	addi	sp,sp,8
 180d7f4:	f800283a 	ret

0180d7f8 <lcd_clear_screen>:

/* --------------------------------------------------------------------- */

static void lcd_clear_screen(altera_avalon_lcd_16207_state* sp)
{
 180d7f8:	defffc04 	addi	sp,sp,-16
 180d7fc:	dfc00315 	stw	ra,12(sp)
 180d800:	df000215 	stw	fp,8(sp)
 180d804:	df000204 	addi	fp,sp,8
 180d808:	e13fff15 	stw	r4,-4(fp)
  int y;

  lcd_write_command(sp, LCD_CMD_CLEAR);
 180d80c:	e13fff17 	ldw	r4,-4(fp)
 180d810:	01400044 	movi	r5,1
 180d814:	180d66c0 	call	180d66c <lcd_write_command>

  sp->x = 0;
 180d818:	e0bfff17 	ldw	r2,-4(fp)
 180d81c:	10000845 	stb	zero,33(r2)
  sp->y = 0;
 180d820:	e0bfff17 	ldw	r2,-4(fp)
 180d824:	10000885 	stb	zero,34(r2)
  sp->address = 0;
 180d828:	e0bfff17 	ldw	r2,-4(fp)
 180d82c:	100008c5 	stb	zero,35(r2)

  for (y = 0 ; y < ALT_LCD_HEIGHT ; y++)
 180d830:	e03ffe15 	stw	zero,-8(fp)
 180d834:	00001906 	br	180d89c <lcd_clear_screen+0xa4>
  {
    memset(sp->line[y].data, ' ', sizeof(sp->line[0].data));
 180d838:	e0bffe17 	ldw	r2,-8(fp)
 180d83c:	108018e4 	muli	r2,r2,99
 180d840:	10c01004 	addi	r3,r2,64
 180d844:	e0bfff17 	ldw	r2,-4(fp)
 180d848:	1889883a 	add	r4,r3,r2
 180d84c:	01400804 	movi	r5,32
 180d850:	01801444 	movi	r6,81
 180d854:	1806b7c0 	call	1806b7c <memset>
    memset(sp->line[y].visible, ' ', sizeof(sp->line[0].visible));
 180d858:	e0bffe17 	ldw	r2,-8(fp)
 180d85c:	108018e4 	muli	r2,r2,99
 180d860:	10c00c04 	addi	r3,r2,48
 180d864:	e0bfff17 	ldw	r2,-4(fp)
 180d868:	1889883a 	add	r4,r3,r2
 180d86c:	01400804 	movi	r5,32
 180d870:	01800404 	movi	r6,16
 180d874:	1806b7c0 	call	1806b7c <memset>
    sp->line[y].width = 0;
 180d878:	e0bffe17 	ldw	r2,-8(fp)
 180d87c:	e0ffff17 	ldw	r3,-4(fp)
 180d880:	108018e4 	muli	r2,r2,99
 180d884:	10c5883a 	add	r2,r2,r3
 180d888:	10802404 	addi	r2,r2,144
 180d88c:	10000045 	stb	zero,1(r2)

  sp->x = 0;
  sp->y = 0;
  sp->address = 0;

  for (y = 0 ; y < ALT_LCD_HEIGHT ; y++)
 180d890:	e0bffe17 	ldw	r2,-8(fp)
 180d894:	10800044 	addi	r2,r2,1
 180d898:	e0bffe15 	stw	r2,-8(fp)
 180d89c:	e0bffe17 	ldw	r2,-8(fp)
 180d8a0:	10800090 	cmplti	r2,r2,2
 180d8a4:	103fe41e 	bne	r2,zero,180d838 <lcd_clear_screen+0x40>
  {
    memset(sp->line[y].data, ' ', sizeof(sp->line[0].data));
    memset(sp->line[y].visible, ' ', sizeof(sp->line[0].visible));
    sp->line[y].width = 0;
  }
}
 180d8a8:	e037883a 	mov	sp,fp
 180d8ac:	dfc00117 	ldw	ra,4(sp)
 180d8b0:	df000017 	ldw	fp,0(sp)
 180d8b4:	dec00204 	addi	sp,sp,8
 180d8b8:	f800283a 	ret

0180d8bc <lcd_repaint_screen>:

/* --------------------------------------------------------------------- */

static void lcd_repaint_screen(altera_avalon_lcd_16207_state* sp)
{
 180d8bc:	defff704 	addi	sp,sp,-36
 180d8c0:	dfc00815 	stw	ra,32(sp)
 180d8c4:	df000715 	stw	fp,28(sp)
 180d8c8:	df000704 	addi	fp,sp,28
 180d8cc:	e13fff15 	stw	r4,-4(fp)
  /* scrollpos controls how much the lines have scrolled round.  The speed
   * each line scrolls at is controlled by its speed variable - while
   * scrolline lines will wrap at the position set by width
   */

  int scrollpos = sp->scrollpos;
 180d8d0:	e0bfff17 	ldw	r2,-4(fp)
 180d8d4:	10800943 	ldbu	r2,37(r2)
 180d8d8:	10803fcc 	andi	r2,r2,255
 180d8dc:	1080201c 	xori	r2,r2,128
 180d8e0:	10bfe004 	addi	r2,r2,-128
 180d8e4:	e0bffc15 	stw	r2,-16(fp)

  for (y = 0 ; y < ALT_LCD_HEIGHT ; y++)
 180d8e8:	e03ffe15 	stw	zero,-8(fp)
 180d8ec:	00006606 	br	180da88 <lcd_repaint_screen+0x1cc>
  {
    int width  = sp->line[y].width;
 180d8f0:	e0bffe17 	ldw	r2,-8(fp)
 180d8f4:	e0ffff17 	ldw	r3,-4(fp)
 180d8f8:	108018e4 	muli	r2,r2,99
 180d8fc:	10c5883a 	add	r2,r2,r3
 180d900:	10802404 	addi	r2,r2,144
 180d904:	10800043 	ldbu	r2,1(r2)
 180d908:	10803fcc 	andi	r2,r2,255
 180d90c:	1080201c 	xori	r2,r2,128
 180d910:	10bfe004 	addi	r2,r2,-128
 180d914:	e0bffb15 	stw	r2,-20(fp)
    int offset = (scrollpos * sp->line[y].speed) >> 8;
 180d918:	e0bffe17 	ldw	r2,-8(fp)
 180d91c:	e0ffff17 	ldw	r3,-4(fp)
 180d920:	108018e4 	muli	r2,r2,99
 180d924:	10c5883a 	add	r2,r2,r3
 180d928:	10802404 	addi	r2,r2,144
 180d92c:	10800083 	ldbu	r2,2(r2)
 180d930:	10c03fcc 	andi	r3,r2,255
 180d934:	e0bffc17 	ldw	r2,-16(fp)
 180d938:	1885383a 	mul	r2,r3,r2
 180d93c:	1005d23a 	srai	r2,r2,8
 180d940:	e0bffa15 	stw	r2,-24(fp)
    if (offset >= width)
 180d944:	e0fffa17 	ldw	r3,-24(fp)
 180d948:	e0bffb17 	ldw	r2,-20(fp)
 180d94c:	18800116 	blt	r3,r2,180d954 <lcd_repaint_screen+0x98>
      offset = 0;
 180d950:	e03ffa15 	stw	zero,-24(fp)

    for (x = 0 ; x < ALT_LCD_WIDTH ; x++)
 180d954:	e03ffd15 	stw	zero,-12(fp)
 180d958:	00004506 	br	180da70 <lcd_repaint_screen+0x1b4>
    {
      char c = sp->line[y].data[(x + offset) % width];
 180d95c:	e17ffe17 	ldw	r5,-8(fp)
 180d960:	e0fffd17 	ldw	r3,-12(fp)
 180d964:	e0bffa17 	ldw	r2,-24(fp)
 180d968:	1889883a 	add	r4,r3,r2
 180d96c:	e0bffb17 	ldw	r2,-20(fp)
 180d970:	2087283a 	div	r3,r4,r2
 180d974:	e0bffb17 	ldw	r2,-20(fp)
 180d978:	1885383a 	mul	r2,r3,r2
 180d97c:	2089c83a 	sub	r4,r4,r2
 180d980:	e0ffff17 	ldw	r3,-4(fp)
 180d984:	288018e4 	muli	r2,r5,99
 180d988:	10c5883a 	add	r2,r2,r3
 180d98c:	1105883a 	add	r2,r2,r4
 180d990:	10801004 	addi	r2,r2,64
 180d994:	10800003 	ldbu	r2,0(r2)
 180d998:	e0bff945 	stb	r2,-27(fp)

      /* Writing data takes 40us, so don't do it unless required */
      if (sp->line[y].visible[x] != c)
 180d99c:	e0bffe17 	ldw	r2,-8(fp)
 180d9a0:	e13ffd17 	ldw	r4,-12(fp)
 180d9a4:	e0ffff17 	ldw	r3,-4(fp)
 180d9a8:	108018e4 	muli	r2,r2,99
 180d9ac:	10c5883a 	add	r2,r2,r3
 180d9b0:	1105883a 	add	r2,r2,r4
 180d9b4:	10800c04 	addi	r2,r2,48
 180d9b8:	10800003 	ldbu	r2,0(r2)
 180d9bc:	10c03fcc 	andi	r3,r2,255
 180d9c0:	18c0201c 	xori	r3,r3,128
 180d9c4:	18ffe004 	addi	r3,r3,-128
 180d9c8:	e0bff947 	ldb	r2,-27(fp)
 180d9cc:	18802526 	beq	r3,r2,180da64 <lcd_repaint_screen+0x1a8>
      {
        unsigned char address = x + colstart[y];
 180d9d0:	e0fffe17 	ldw	r3,-8(fp)
 180d9d4:	d0a00d04 	addi	r2,gp,-32716
 180d9d8:	1885883a 	add	r2,r3,r2
 180d9dc:	10800003 	ldbu	r2,0(r2)
 180d9e0:	1007883a 	mov	r3,r2
 180d9e4:	e0bffd17 	ldw	r2,-12(fp)
 180d9e8:	1885883a 	add	r2,r3,r2
 180d9ec:	e0bff905 	stb	r2,-28(fp)

        if (address != sp->address)
 180d9f0:	e0fff903 	ldbu	r3,-28(fp)
 180d9f4:	e0bfff17 	ldw	r2,-4(fp)
 180d9f8:	108008c3 	ldbu	r2,35(r2)
 180d9fc:	10803fcc 	andi	r2,r2,255
 180da00:	1080201c 	xori	r2,r2,128
 180da04:	10bfe004 	addi	r2,r2,-128
 180da08:	18800926 	beq	r3,r2,180da30 <lcd_repaint_screen+0x174>
        {
          lcd_write_command(sp, LCD_CMD_WRITE_DATA | address);
 180da0c:	e0fff903 	ldbu	r3,-28(fp)
 180da10:	00bfe004 	movi	r2,-128
 180da14:	1884b03a 	or	r2,r3,r2
 180da18:	11403fcc 	andi	r5,r2,255
 180da1c:	e13fff17 	ldw	r4,-4(fp)
 180da20:	180d66c0 	call	180d66c <lcd_write_command>
          sp->address = address;
 180da24:	e0fff903 	ldbu	r3,-28(fp)
 180da28:	e0bfff17 	ldw	r2,-4(fp)
 180da2c:	10c008c5 	stb	r3,35(r2)
        }

        lcd_write_data(sp, c);
 180da30:	e0bff943 	ldbu	r2,-27(fp)
 180da34:	11403fcc 	andi	r5,r2,255
 180da38:	e13fff17 	ldw	r4,-4(fp)
 180da3c:	180d7240 	call	180d724 <lcd_write_data>
        sp->line[y].visible[x] = c;
 180da40:	e0bffe17 	ldw	r2,-8(fp)
 180da44:	e13ffd17 	ldw	r4,-12(fp)
 180da48:	e0ffff17 	ldw	r3,-4(fp)
 180da4c:	108018e4 	muli	r2,r2,99
 180da50:	10c5883a 	add	r2,r2,r3
 180da54:	1105883a 	add	r2,r2,r4
 180da58:	10c00c04 	addi	r3,r2,48
 180da5c:	e0bff943 	ldbu	r2,-27(fp)
 180da60:	18800005 	stb	r2,0(r3)
    int width  = sp->line[y].width;
    int offset = (scrollpos * sp->line[y].speed) >> 8;
    if (offset >= width)
      offset = 0;

    for (x = 0 ; x < ALT_LCD_WIDTH ; x++)
 180da64:	e0bffd17 	ldw	r2,-12(fp)
 180da68:	10800044 	addi	r2,r2,1
 180da6c:	e0bffd15 	stw	r2,-12(fp)
 180da70:	e0bffd17 	ldw	r2,-12(fp)
 180da74:	10800410 	cmplti	r2,r2,16
 180da78:	103fb81e 	bne	r2,zero,180d95c <lcd_repaint_screen+0xa0>
   * scrolline lines will wrap at the position set by width
   */

  int scrollpos = sp->scrollpos;

  for (y = 0 ; y < ALT_LCD_HEIGHT ; y++)
 180da7c:	e0bffe17 	ldw	r2,-8(fp)
 180da80:	10800044 	addi	r2,r2,1
 180da84:	e0bffe15 	stw	r2,-8(fp)
 180da88:	e0bffe17 	ldw	r2,-8(fp)
 180da8c:	10800090 	cmplti	r2,r2,2
 180da90:	103f971e 	bne	r2,zero,180d8f0 <lcd_repaint_screen+0x34>
        lcd_write_data(sp, c);
        sp->line[y].visible[x] = c;
      }
    }
  }
}
 180da94:	e037883a 	mov	sp,fp
 180da98:	dfc00117 	ldw	ra,4(sp)
 180da9c:	df000017 	ldw	fp,0(sp)
 180daa0:	dec00204 	addi	sp,sp,8
 180daa4:	f800283a 	ret

0180daa8 <lcd_scroll_up>:

/* --------------------------------------------------------------------- */

static void lcd_scroll_up(altera_avalon_lcd_16207_state* sp)
{
 180daa8:	defffc04 	addi	sp,sp,-16
 180daac:	dfc00315 	stw	ra,12(sp)
 180dab0:	df000215 	stw	fp,8(sp)
 180dab4:	df000204 	addi	fp,sp,8
 180dab8:	e13fff15 	stw	r4,-4(fp)
  int y;

  for (y = 0 ; y < ALT_LCD_HEIGHT ; y++)
 180dabc:	e03ffe15 	stw	zero,-8(fp)
 180dac0:	00001d06 	br	180db38 <lcd_scroll_up+0x90>
  {
    if (y < ALT_LCD_HEIGHT-1)
 180dac4:	e0bffe17 	ldw	r2,-8(fp)
 180dac8:	10800048 	cmpgei	r2,r2,1
 180dacc:	10000f1e 	bne	r2,zero,180db0c <lcd_scroll_up+0x64>
      memcpy(sp->line[y].data, sp->line[y+1].data, ALT_LCD_VIRTUAL_WIDTH);
 180dad0:	e0bffe17 	ldw	r2,-8(fp)
 180dad4:	108018e4 	muli	r2,r2,99
 180dad8:	10c01004 	addi	r3,r2,64
 180dadc:	e0bfff17 	ldw	r2,-4(fp)
 180dae0:	1889883a 	add	r4,r3,r2
 180dae4:	e0bffe17 	ldw	r2,-8(fp)
 180dae8:	10800044 	addi	r2,r2,1
 180daec:	108018e4 	muli	r2,r2,99
 180daf0:	10c01004 	addi	r3,r2,64
 180daf4:	e0bfff17 	ldw	r2,-4(fp)
 180daf8:	1885883a 	add	r2,r3,r2
 180dafc:	100b883a 	mov	r5,r2
 180db00:	01801404 	movi	r6,80
 180db04:	18069fc0 	call	18069fc <memcpy>
 180db08:	00000806 	br	180db2c <lcd_scroll_up+0x84>
    else
      memset(sp->line[y].data, ' ', ALT_LCD_VIRTUAL_WIDTH);
 180db0c:	e0bffe17 	ldw	r2,-8(fp)
 180db10:	108018e4 	muli	r2,r2,99
 180db14:	10c01004 	addi	r3,r2,64
 180db18:	e0bfff17 	ldw	r2,-4(fp)
 180db1c:	1889883a 	add	r4,r3,r2
 180db20:	01400804 	movi	r5,32
 180db24:	01801404 	movi	r6,80
 180db28:	1806b7c0 	call	1806b7c <memset>

static void lcd_scroll_up(altera_avalon_lcd_16207_state* sp)
{
  int y;

  for (y = 0 ; y < ALT_LCD_HEIGHT ; y++)
 180db2c:	e0bffe17 	ldw	r2,-8(fp)
 180db30:	10800044 	addi	r2,r2,1
 180db34:	e0bffe15 	stw	r2,-8(fp)
 180db38:	e0bffe17 	ldw	r2,-8(fp)
 180db3c:	10800090 	cmplti	r2,r2,2
 180db40:	103fe01e 	bne	r2,zero,180dac4 <lcd_scroll_up+0x1c>
      memcpy(sp->line[y].data, sp->line[y+1].data, ALT_LCD_VIRTUAL_WIDTH);
    else
      memset(sp->line[y].data, ' ', ALT_LCD_VIRTUAL_WIDTH);
  }

  sp->y--;
 180db44:	e0bfff17 	ldw	r2,-4(fp)
 180db48:	10800883 	ldbu	r2,34(r2)
 180db4c:	10bfffc4 	addi	r2,r2,-1
 180db50:	1007883a 	mov	r3,r2
 180db54:	e0bfff17 	ldw	r2,-4(fp)
 180db58:	10c00885 	stb	r3,34(r2)
}
 180db5c:	e037883a 	mov	sp,fp
 180db60:	dfc00117 	ldw	ra,4(sp)
 180db64:	df000017 	ldw	fp,0(sp)
 180db68:	dec00204 	addi	sp,sp,8
 180db6c:	f800283a 	ret

0180db70 <lcd_handle_escape>:

/* --------------------------------------------------------------------- */

static void lcd_handle_escape(altera_avalon_lcd_16207_state* sp, char c)
{
 180db70:	defff804 	addi	sp,sp,-32
 180db74:	dfc00715 	stw	ra,28(sp)
 180db78:	df000615 	stw	fp,24(sp)
 180db7c:	df000604 	addi	fp,sp,24
 180db80:	e13ffd15 	stw	r4,-12(fp)
 180db84:	e17ffe05 	stb	r5,-8(fp)
  int parm1 = 0, parm2 = 0;
 180db88:	e03ffc15 	stw	zero,-16(fp)
 180db8c:	e03ffb15 	stw	zero,-20(fp)

  if (sp->escape[0] == '[')
 180db90:	e0bffd17 	ldw	r2,-12(fp)
 180db94:	10800a03 	ldbu	r2,40(r2)
 180db98:	10803fcc 	andi	r2,r2,255
 180db9c:	1080201c 	xori	r2,r2,128
 180dba0:	10bfe004 	addi	r2,r2,-128
 180dba4:	108016d8 	cmpnei	r2,r2,91
 180dba8:	1000491e 	bne	r2,zero,180dcd0 <lcd_handle_escape+0x160>
  {
    char * ptr = sp->escape+1;
 180dbac:	e0bffd17 	ldw	r2,-12(fp)
 180dbb0:	10800a04 	addi	r2,r2,40
 180dbb4:	10800044 	addi	r2,r2,1
 180dbb8:	e0bffa15 	stw	r2,-24(fp)
    while (isdigit(*ptr))
 180dbbc:	00000d06 	br	180dbf4 <lcd_handle_escape+0x84>
      parm1 = (parm1 * 10) + (*ptr++ - '0');
 180dbc0:	e0bffc17 	ldw	r2,-16(fp)
 180dbc4:	10c002a4 	muli	r3,r2,10
 180dbc8:	e0bffa17 	ldw	r2,-24(fp)
 180dbcc:	10800003 	ldbu	r2,0(r2)
 180dbd0:	10803fcc 	andi	r2,r2,255
 180dbd4:	1080201c 	xori	r2,r2,128
 180dbd8:	10bfe004 	addi	r2,r2,-128
 180dbdc:	1885883a 	add	r2,r3,r2
 180dbe0:	10bff404 	addi	r2,r2,-48
 180dbe4:	e0bffc15 	stw	r2,-16(fp)
 180dbe8:	e0bffa17 	ldw	r2,-24(fp)
 180dbec:	10800044 	addi	r2,r2,1
 180dbf0:	e0bffa15 	stw	r2,-24(fp)
  int parm1 = 0, parm2 = 0;

  if (sp->escape[0] == '[')
  {
    char * ptr = sp->escape+1;
    while (isdigit(*ptr))
 180dbf4:	e0bffa17 	ldw	r2,-24(fp)
 180dbf8:	10800003 	ldbu	r2,0(r2)
 180dbfc:	10803fcc 	andi	r2,r2,255
 180dc00:	1080201c 	xori	r2,r2,128
 180dc04:	10bfe004 	addi	r2,r2,-128
 180dc08:	1007883a 	mov	r3,r2
 180dc0c:	00806074 	movhi	r2,385
 180dc10:	108c8a04 	addi	r2,r2,12840
 180dc14:	10800017 	ldw	r2,0(r2)
 180dc18:	1885883a 	add	r2,r3,r2
 180dc1c:	10800003 	ldbu	r2,0(r2)
 180dc20:	10803fcc 	andi	r2,r2,255
 180dc24:	1080010c 	andi	r2,r2,4
 180dc28:	1004c03a 	cmpne	r2,r2,zero
 180dc2c:	103fe41e 	bne	r2,zero,180dbc0 <lcd_handle_escape+0x50>
      parm1 = (parm1 * 10) + (*ptr++ - '0');

    if (*ptr == ';')
 180dc30:	e0bffa17 	ldw	r2,-24(fp)
 180dc34:	10800003 	ldbu	r2,0(r2)
 180dc38:	10803fcc 	andi	r2,r2,255
 180dc3c:	1080201c 	xori	r2,r2,128
 180dc40:	10bfe004 	addi	r2,r2,-128
 180dc44:	10800ed8 	cmpnei	r2,r2,59
 180dc48:	1000231e 	bne	r2,zero,180dcd8 <lcd_handle_escape+0x168>
    {
      ptr++;
 180dc4c:	e0bffa17 	ldw	r2,-24(fp)
 180dc50:	10800044 	addi	r2,r2,1
 180dc54:	e0bffa15 	stw	r2,-24(fp)
      while (isdigit(*ptr))
 180dc58:	00000d06 	br	180dc90 <lcd_handle_escape+0x120>
        parm2 = (parm2 * 10) + (*ptr++ - '0');
 180dc5c:	e0bffb17 	ldw	r2,-20(fp)
 180dc60:	10c002a4 	muli	r3,r2,10
 180dc64:	e0bffa17 	ldw	r2,-24(fp)
 180dc68:	10800003 	ldbu	r2,0(r2)
 180dc6c:	10803fcc 	andi	r2,r2,255
 180dc70:	1080201c 	xori	r2,r2,128
 180dc74:	10bfe004 	addi	r2,r2,-128
 180dc78:	1885883a 	add	r2,r3,r2
 180dc7c:	10bff404 	addi	r2,r2,-48
 180dc80:	e0bffb15 	stw	r2,-20(fp)
 180dc84:	e0bffa17 	ldw	r2,-24(fp)
 180dc88:	10800044 	addi	r2,r2,1
 180dc8c:	e0bffa15 	stw	r2,-24(fp)
      parm1 = (parm1 * 10) + (*ptr++ - '0');

    if (*ptr == ';')
    {
      ptr++;
      while (isdigit(*ptr))
 180dc90:	e0bffa17 	ldw	r2,-24(fp)
 180dc94:	10800003 	ldbu	r2,0(r2)
 180dc98:	10803fcc 	andi	r2,r2,255
 180dc9c:	1080201c 	xori	r2,r2,128
 180dca0:	10bfe004 	addi	r2,r2,-128
 180dca4:	1007883a 	mov	r3,r2
 180dca8:	00806074 	movhi	r2,385
 180dcac:	108c8a04 	addi	r2,r2,12840
 180dcb0:	10800017 	ldw	r2,0(r2)
 180dcb4:	1885883a 	add	r2,r3,r2
 180dcb8:	10800003 	ldbu	r2,0(r2)
 180dcbc:	10803fcc 	andi	r2,r2,255
 180dcc0:	1080010c 	andi	r2,r2,4
 180dcc4:	1004c03a 	cmpne	r2,r2,zero
 180dcc8:	103fe41e 	bne	r2,zero,180dc5c <lcd_handle_escape+0xec>
 180dccc:	00000206 	br	180dcd8 <lcd_handle_escape+0x168>
        parm2 = (parm2 * 10) + (*ptr++ - '0');
    }
  }
  else
    parm1 = -1;
 180dcd0:	00bfffc4 	movi	r2,-1
 180dcd4:	e0bffc15 	stw	r2,-16(fp)

  switch (c)
 180dcd8:	e0bffe07 	ldb	r2,-8(fp)
 180dcdc:	e0bfff15 	stw	r2,-4(fp)
 180dce0:	e0ffff17 	ldw	r3,-4(fp)
 180dce4:	188012a0 	cmpeqi	r2,r3,74
 180dce8:	10002f1e 	bne	r2,zero,180dda8 <lcd_handle_escape+0x238>
 180dcec:	e0ffff17 	ldw	r3,-4(fp)
 180dcf0:	188012c8 	cmpgei	r2,r3,75
 180dcf4:	1000041e 	bne	r2,zero,180dd08 <lcd_handle_escape+0x198>
 180dcf8:	e0ffff17 	ldw	r3,-4(fp)
 180dcfc:	18801220 	cmpeqi	r2,r3,72
 180dd00:	1000081e 	bne	r2,zero,180dd24 <lcd_handle_escape+0x1b4>
 180dd04:	00004906 	br	180de2c <lcd_handle_escape+0x2bc>
 180dd08:	e0ffff17 	ldw	r3,-4(fp)
 180dd0c:	188012e0 	cmpeqi	r2,r3,75
 180dd10:	10002b1e 	bne	r2,zero,180ddc0 <lcd_handle_escape+0x250>
 180dd14:	e0ffff17 	ldw	r3,-4(fp)
 180dd18:	188019a0 	cmpeqi	r2,r3,102
 180dd1c:	1000011e 	bne	r2,zero,180dd24 <lcd_handle_escape+0x1b4>
 180dd20:	00004206 	br	180de2c <lcd_handle_escape+0x2bc>
  {
  case 'H': /* ESC '[' <y> ';' <x> 'H'  : Move cursor to location */
  case 'f': /* Same as above */
    if (parm2 > 0)
 180dd24:	e0bffb17 	ldw	r2,-20(fp)
 180dd28:	10800050 	cmplti	r2,r2,1
 180dd2c:	1000051e 	bne	r2,zero,180dd44 <lcd_handle_escape+0x1d4>
      sp->x = parm2 - 1;
 180dd30:	e0bffb17 	ldw	r2,-20(fp)
 180dd34:	10bfffc4 	addi	r2,r2,-1
 180dd38:	1007883a 	mov	r3,r2
 180dd3c:	e0bffd17 	ldw	r2,-12(fp)
 180dd40:	10c00845 	stb	r3,33(r2)
    if (parm1 > 0)
 180dd44:	e0bffc17 	ldw	r2,-16(fp)
 180dd48:	10800050 	cmplti	r2,r2,1
 180dd4c:	1000371e 	bne	r2,zero,180de2c <lcd_handle_escape+0x2bc>
    {
      sp->y = parm1 - 1;
 180dd50:	e0bffc17 	ldw	r2,-16(fp)
 180dd54:	10bfffc4 	addi	r2,r2,-1
 180dd58:	1007883a 	mov	r3,r2
 180dd5c:	e0bffd17 	ldw	r2,-12(fp)
 180dd60:	10c00885 	stb	r3,34(r2)
      if (sp->y > ALT_LCD_HEIGHT * 2)
 180dd64:	e0bffd17 	ldw	r2,-12(fp)
 180dd68:	10800883 	ldbu	r2,34(r2)
 180dd6c:	10803fcc 	andi	r2,r2,255
 180dd70:	10800170 	cmpltui	r2,r2,5
 180dd74:	1000061e 	bne	r2,zero,180dd90 <lcd_handle_escape+0x220>
        sp->y = ALT_LCD_HEIGHT * 2;
 180dd78:	e0fffd17 	ldw	r3,-12(fp)
 180dd7c:	00800104 	movi	r2,4
 180dd80:	18800885 	stb	r2,34(r3)
      while (sp->y > ALT_LCD_HEIGHT)
 180dd84:	00000206 	br	180dd90 <lcd_handle_escape+0x220>
        lcd_scroll_up(sp);
 180dd88:	e13ffd17 	ldw	r4,-12(fp)
 180dd8c:	180daa80 	call	180daa8 <lcd_scroll_up>
    if (parm1 > 0)
    {
      sp->y = parm1 - 1;
      if (sp->y > ALT_LCD_HEIGHT * 2)
        sp->y = ALT_LCD_HEIGHT * 2;
      while (sp->y > ALT_LCD_HEIGHT)
 180dd90:	e0bffd17 	ldw	r2,-12(fp)
 180dd94:	10800883 	ldbu	r2,34(r2)
 180dd98:	10803fcc 	andi	r2,r2,255
 180dd9c:	108000e8 	cmpgeui	r2,r2,3
 180dda0:	103ff91e 	bne	r2,zero,180dd88 <lcd_handle_escape+0x218>
        lcd_scroll_up(sp);
    }
    break;
 180dda4:	00002106 	br	180de2c <lcd_handle_escape+0x2bc>
    /*   ESC J      is clear to beginning of line    [unimplemented]
     *   ESC [ 0 J  is clear to bottom of screen     [unimplemented]
     *   ESC [ 1 J  is clear to beginning of screen  [unimplemented]
     *   ESC [ 2 J  is clear screen
     */
    if (parm1 == 2)
 180dda8:	e0bffc17 	ldw	r2,-16(fp)
 180ddac:	10800098 	cmpnei	r2,r2,2
 180ddb0:	10001e1e 	bne	r2,zero,180de2c <lcd_handle_escape+0x2bc>
      lcd_clear_screen(sp);
 180ddb4:	e13ffd17 	ldw	r4,-12(fp)
 180ddb8:	180d7f80 	call	180d7f8 <lcd_clear_screen>
    break;
 180ddbc:	00001b06 	br	180de2c <lcd_handle_escape+0x2bc>
    /*   ESC K      is clear to end of line
     *   ESC [ 0 K  is clear to end of line
     *   ESC [ 1 K  is clear to beginning of line    [unimplemented]
     *   ESC [ 2 K  is clear line                    [unimplemented]
     */
    if (parm1 < 1)
 180ddc0:	e0bffc17 	ldw	r2,-16(fp)
 180ddc4:	10800048 	cmpgei	r2,r2,1
 180ddc8:	1000181e 	bne	r2,zero,180de2c <lcd_handle_escape+0x2bc>
    {
      if (sp->x < ALT_LCD_VIRTUAL_WIDTH)
 180ddcc:	e0bffd17 	ldw	r2,-12(fp)
 180ddd0:	10800843 	ldbu	r2,33(r2)
 180ddd4:	10803fcc 	andi	r2,r2,255
 180ddd8:	10801428 	cmpgeui	r2,r2,80
 180dddc:	1000131e 	bne	r2,zero,180de2c <lcd_handle_escape+0x2bc>
        memset(sp->line[sp->y].data + sp->x, ' ', ALT_LCD_VIRTUAL_WIDTH - sp->x);
 180dde0:	e0bffd17 	ldw	r2,-12(fp)
 180dde4:	10800883 	ldbu	r2,34(r2)
 180dde8:	10803fcc 	andi	r2,r2,255
 180ddec:	108018e4 	muli	r2,r2,99
 180ddf0:	10c01004 	addi	r3,r2,64
 180ddf4:	e0bffd17 	ldw	r2,-12(fp)
 180ddf8:	1887883a 	add	r3,r3,r2
 180ddfc:	e0bffd17 	ldw	r2,-12(fp)
 180de00:	10800843 	ldbu	r2,33(r2)
 180de04:	10803fcc 	andi	r2,r2,255
 180de08:	1889883a 	add	r4,r3,r2
 180de0c:	e0bffd17 	ldw	r2,-12(fp)
 180de10:	10800843 	ldbu	r2,33(r2)
 180de14:	10c03fcc 	andi	r3,r2,255
 180de18:	00801404 	movi	r2,80
 180de1c:	10c5c83a 	sub	r2,r2,r3
 180de20:	100d883a 	mov	r6,r2
 180de24:	01400804 	movi	r5,32
 180de28:	1806b7c0 	call	1806b7c <memset>
    }
    break;
  }
}
 180de2c:	e037883a 	mov	sp,fp
 180de30:	dfc00117 	ldw	ra,4(sp)
 180de34:	df000017 	ldw	fp,0(sp)
 180de38:	dec00204 	addi	sp,sp,8
 180de3c:	f800283a 	ret

0180de40 <altera_avalon_lcd_16207_write>:

/* --------------------------------------------------------------------- */

int altera_avalon_lcd_16207_write(altera_avalon_lcd_16207_state* sp, 
  const char* ptr, int len, int flags)
{
 180de40:	defff304 	addi	sp,sp,-52
 180de44:	dfc00c15 	stw	ra,48(sp)
 180de48:	df000b15 	stw	fp,44(sp)
 180de4c:	df000b04 	addi	fp,sp,44
 180de50:	e13ffc15 	stw	r4,-16(fp)
 180de54:	e17ffd15 	stw	r5,-12(fp)
 180de58:	e1bffe15 	stw	r6,-8(fp)
 180de5c:	e1ffff15 	stw	r7,-4(fp)
  const char* end = ptr + len;
 180de60:	e0bffe17 	ldw	r2,-8(fp)
 180de64:	1007883a 	mov	r3,r2
 180de68:	e0bffd17 	ldw	r2,-12(fp)
 180de6c:	10c5883a 	add	r2,r2,r3
 180de70:	e0bffb15 	stw	r2,-20(fp)

  ALT_SEM_PEND (sp->write_lock, 0);

  /* Tell the routine which is called off the timer interrupt that the
   * foreground routines are active so it must not repaint the display. */
  sp->active = 1;
 180de74:	e0fffc17 	ldw	r3,-16(fp)
 180de78:	00800044 	movi	r2,1
 180de7c:	188009c5 	stb	r2,39(r3)

  for ( ; ptr < end ; ptr++)
 180de80:	0000a206 	br	180e10c <altera_avalon_lcd_16207_write+0x2cc>
  {
    char c = *ptr;
 180de84:	e0bffd17 	ldw	r2,-12(fp)
 180de88:	10800003 	ldbu	r2,0(r2)
 180de8c:	e0bff805 	stb	r2,-32(fp)

    if (sp->esccount >= 0)
 180de90:	e0bffc17 	ldw	r2,-16(fp)
 180de94:	10800903 	ldbu	r2,36(r2)
 180de98:	10803fcc 	andi	r2,r2,255
 180de9c:	1080201c 	xori	r2,r2,128
 180dea0:	10bfe004 	addi	r2,r2,-128
 180dea4:	1004803a 	cmplt	r2,r2,zero
 180dea8:	10003b1e 	bne	r2,zero,180df98 <altera_avalon_lcd_16207_write+0x158>
    {
      unsigned int esccount = sp->esccount;
 180deac:	e0bffc17 	ldw	r2,-16(fp)
 180deb0:	10800903 	ldbu	r2,36(r2)
 180deb4:	10803fcc 	andi	r2,r2,255
 180deb8:	1080201c 	xori	r2,r2,128
 180debc:	10bfe004 	addi	r2,r2,-128
 180dec0:	e0bff715 	stw	r2,-36(fp)

      /* Single character escape sequences can end with any character
       * Multi character escape sequences start with '[' and contain
       * digits and semicolons before terminating
       */
      if ((esccount == 0 && c != '[') ||
 180dec4:	e0bff717 	ldw	r2,-36(fp)
 180dec8:	1004c03a 	cmpne	r2,r2,zero
 180decc:	1000031e 	bne	r2,zero,180dedc <altera_avalon_lcd_16207_write+0x9c>
 180ded0:	e0bff807 	ldb	r2,-32(fp)
 180ded4:	108016d8 	cmpnei	r2,r2,91
 180ded8:	1000111e 	bne	r2,zero,180df20 <altera_avalon_lcd_16207_write+0xe0>
 180dedc:	e0bff717 	ldw	r2,-36(fp)
 180dee0:	1005003a 	cmpeq	r2,r2,zero
 180dee4:	10001a1e 	bne	r2,zero,180df50 <altera_avalon_lcd_16207_write+0x110>
 180dee8:	e0bff807 	ldb	r2,-32(fp)
 180deec:	1007883a 	mov	r3,r2
 180def0:	00806074 	movhi	r2,385
 180def4:	108c8a04 	addi	r2,r2,12840
 180def8:	10800017 	ldw	r2,0(r2)
 180defc:	1885883a 	add	r2,r3,r2
 180df00:	10800003 	ldbu	r2,0(r2)
 180df04:	10803fcc 	andi	r2,r2,255
 180df08:	1080010c 	andi	r2,r2,4
 180df0c:	1004c03a 	cmpne	r2,r2,zero
 180df10:	10000f1e 	bne	r2,zero,180df50 <altera_avalon_lcd_16207_write+0x110>
 180df14:	e0bff807 	ldb	r2,-32(fp)
 180df18:	10800ee0 	cmpeqi	r2,r2,59
 180df1c:	10000c1e 	bne	r2,zero,180df50 <altera_avalon_lcd_16207_write+0x110>
          (esccount > 0 && !isdigit(c) && c != ';'))
      {
        sp->escape[esccount] = 0;
 180df20:	e0fff717 	ldw	r3,-36(fp)
 180df24:	e0bffc17 	ldw	r2,-16(fp)
 180df28:	1885883a 	add	r2,r3,r2
 180df2c:	10800a04 	addi	r2,r2,40
 180df30:	10000005 	stb	zero,0(r2)

        lcd_handle_escape(sp, c);
 180df34:	e17ff807 	ldb	r5,-32(fp)
 180df38:	e13ffc17 	ldw	r4,-16(fp)
 180df3c:	180db700 	call	180db70 <lcd_handle_escape>

        sp->esccount = -1;
 180df40:	e0fffc17 	ldw	r3,-16(fp)
 180df44:	00bfffc4 	movi	r2,-1
 180df48:	18800905 	stb	r2,36(r3)

      /* Single character escape sequences can end with any character
       * Multi character escape sequences start with '[' and contain
       * digits and semicolons before terminating
       */
      if ((esccount == 0 && c != '[') ||
 180df4c:	00006c06 	br	180e100 <altera_avalon_lcd_16207_write+0x2c0>

        lcd_handle_escape(sp, c);

        sp->esccount = -1;
      }
      else if (sp->esccount < sizeof(sp->escape)-1)
 180df50:	e0bffc17 	ldw	r2,-16(fp)
 180df54:	10800903 	ldbu	r2,36(r2)
 180df58:	10803fcc 	andi	r2,r2,255
 180df5c:	108001e8 	cmpgeui	r2,r2,7
 180df60:	1000671e 	bne	r2,zero,180e100 <altera_avalon_lcd_16207_write+0x2c0>
      {
        sp->escape[esccount] = c;
 180df64:	e0fff717 	ldw	r3,-36(fp)
 180df68:	e0bffc17 	ldw	r2,-16(fp)
 180df6c:	1885883a 	add	r2,r3,r2
 180df70:	10c00a04 	addi	r3,r2,40
 180df74:	e0bff803 	ldbu	r2,-32(fp)
 180df78:	18800005 	stb	r2,0(r3)
        sp->esccount++;
 180df7c:	e0bffc17 	ldw	r2,-16(fp)
 180df80:	10800903 	ldbu	r2,36(r2)
 180df84:	10800044 	addi	r2,r2,1
 180df88:	1007883a 	mov	r3,r2
 180df8c:	e0bffc17 	ldw	r2,-16(fp)
 180df90:	10c00905 	stb	r3,36(r2)
 180df94:	00005a06 	br	180e100 <altera_avalon_lcd_16207_write+0x2c0>
      }
    }
    else if (c == 27) /* ESC */
 180df98:	e0bff807 	ldb	r2,-32(fp)
 180df9c:	108006d8 	cmpnei	r2,r2,27
 180dfa0:	1000031e 	bne	r2,zero,180dfb0 <altera_avalon_lcd_16207_write+0x170>
    {
      sp->esccount = 0;
 180dfa4:	e0bffc17 	ldw	r2,-16(fp)
 180dfa8:	10000905 	stb	zero,36(r2)
 180dfac:	00005406 	br	180e100 <altera_avalon_lcd_16207_write+0x2c0>
    }
    else if (c == '\r')
 180dfb0:	e0bff807 	ldb	r2,-32(fp)
 180dfb4:	10800358 	cmpnei	r2,r2,13
 180dfb8:	1000031e 	bne	r2,zero,180dfc8 <altera_avalon_lcd_16207_write+0x188>
    {
      sp->x = 0;
 180dfbc:	e0bffc17 	ldw	r2,-16(fp)
 180dfc0:	10000845 	stb	zero,33(r2)
 180dfc4:	00004e06 	br	180e100 <altera_avalon_lcd_16207_write+0x2c0>
    }
    else if (c == '\n')
 180dfc8:	e0bff807 	ldb	r2,-32(fp)
 180dfcc:	10800298 	cmpnei	r2,r2,10
 180dfd0:	1000101e 	bne	r2,zero,180e014 <altera_avalon_lcd_16207_write+0x1d4>
    {
      sp->x = 0;
 180dfd4:	e0bffc17 	ldw	r2,-16(fp)
 180dfd8:	10000845 	stb	zero,33(r2)
      sp->y++;
 180dfdc:	e0bffc17 	ldw	r2,-16(fp)
 180dfe0:	10800883 	ldbu	r2,34(r2)
 180dfe4:	10800044 	addi	r2,r2,1
 180dfe8:	1007883a 	mov	r3,r2
 180dfec:	e0bffc17 	ldw	r2,-16(fp)
 180dff0:	10c00885 	stb	r3,34(r2)

      /* Let the cursor sit at X=0, Y=HEIGHT without scrolling so the user
       * can print two lines of data without losing one.
       */
      if (sp->y > ALT_LCD_HEIGHT)
 180dff4:	e0bffc17 	ldw	r2,-16(fp)
 180dff8:	10800883 	ldbu	r2,34(r2)
 180dffc:	10803fcc 	andi	r2,r2,255
 180e000:	108000f0 	cmpltui	r2,r2,3
 180e004:	10003e1e 	bne	r2,zero,180e100 <altera_avalon_lcd_16207_write+0x2c0>
        lcd_scroll_up(sp);
 180e008:	e13ffc17 	ldw	r4,-16(fp)
 180e00c:	180daa80 	call	180daa8 <lcd_scroll_up>
 180e010:	00003b06 	br	180e100 <altera_avalon_lcd_16207_write+0x2c0>
    }
    else if (c == '\b')
 180e014:	e0bff807 	ldb	r2,-32(fp)
 180e018:	10800218 	cmpnei	r2,r2,8
 180e01c:	10000c1e 	bne	r2,zero,180e050 <altera_avalon_lcd_16207_write+0x210>
    {
      if (sp->x > 0)
 180e020:	e0bffc17 	ldw	r2,-16(fp)
 180e024:	10800843 	ldbu	r2,33(r2)
 180e028:	10803fcc 	andi	r2,r2,255
 180e02c:	1005003a 	cmpeq	r2,r2,zero
 180e030:	1000331e 	bne	r2,zero,180e100 <altera_avalon_lcd_16207_write+0x2c0>
        sp->x--;
 180e034:	e0bffc17 	ldw	r2,-16(fp)
 180e038:	10800843 	ldbu	r2,33(r2)
 180e03c:	10bfffc4 	addi	r2,r2,-1
 180e040:	1007883a 	mov	r3,r2
 180e044:	e0bffc17 	ldw	r2,-16(fp)
 180e048:	10c00845 	stb	r3,33(r2)
 180e04c:	00002c06 	br	180e100 <altera_avalon_lcd_16207_write+0x2c0>
    }
    else if (isprint(c))
 180e050:	e0bff807 	ldb	r2,-32(fp)
 180e054:	1007883a 	mov	r3,r2
 180e058:	00806074 	movhi	r2,385
 180e05c:	108c8a04 	addi	r2,r2,12840
 180e060:	10800017 	ldw	r2,0(r2)
 180e064:	1885883a 	add	r2,r3,r2
 180e068:	10800003 	ldbu	r2,0(r2)
 180e06c:	10803fcc 	andi	r2,r2,255
 180e070:	1080201c 	xori	r2,r2,128
 180e074:	10bfe004 	addi	r2,r2,-128
 180e078:	108025cc 	andi	r2,r2,151
 180e07c:	1005003a 	cmpeq	r2,r2,zero
 180e080:	10001f1e 	bne	r2,zero,180e100 <altera_avalon_lcd_16207_write+0x2c0>
    {
      /* If we didn't scroll on the last linefeed then we might need to do
       * it now. */
      if (sp->y >= ALT_LCD_HEIGHT)
 180e084:	e0bffc17 	ldw	r2,-16(fp)
 180e088:	10800883 	ldbu	r2,34(r2)
 180e08c:	10803fcc 	andi	r2,r2,255
 180e090:	108000b0 	cmpltui	r2,r2,2
 180e094:	1000021e 	bne	r2,zero,180e0a0 <altera_avalon_lcd_16207_write+0x260>
        lcd_scroll_up(sp);
 180e098:	e13ffc17 	ldw	r4,-16(fp)
 180e09c:	180daa80 	call	180daa8 <lcd_scroll_up>

      if (sp->x < ALT_LCD_VIRTUAL_WIDTH)
 180e0a0:	e0bffc17 	ldw	r2,-16(fp)
 180e0a4:	10800843 	ldbu	r2,33(r2)
 180e0a8:	10803fcc 	andi	r2,r2,255
 180e0ac:	10801428 	cmpgeui	r2,r2,80
 180e0b0:	10000d1e 	bne	r2,zero,180e0e8 <altera_avalon_lcd_16207_write+0x2a8>
        sp->line[sp->y].data[sp->x] = c;
 180e0b4:	e0bffc17 	ldw	r2,-16(fp)
 180e0b8:	10800883 	ldbu	r2,34(r2)
 180e0bc:	11003fcc 	andi	r4,r2,255
 180e0c0:	e0bffc17 	ldw	r2,-16(fp)
 180e0c4:	10800843 	ldbu	r2,33(r2)
 180e0c8:	11403fcc 	andi	r5,r2,255
 180e0cc:	e0fffc17 	ldw	r3,-16(fp)
 180e0d0:	208018e4 	muli	r2,r4,99
 180e0d4:	10c5883a 	add	r2,r2,r3
 180e0d8:	1145883a 	add	r2,r2,r5
 180e0dc:	10c01004 	addi	r3,r2,64
 180e0e0:	e0bff803 	ldbu	r2,-32(fp)
 180e0e4:	18800005 	stb	r2,0(r3)

      sp->x++;
 180e0e8:	e0bffc17 	ldw	r2,-16(fp)
 180e0ec:	10800843 	ldbu	r2,33(r2)
 180e0f0:	10800044 	addi	r2,r2,1
 180e0f4:	1007883a 	mov	r3,r2
 180e0f8:	e0bffc17 	ldw	r2,-16(fp)
 180e0fc:	10c00845 	stb	r3,33(r2)

  /* Tell the routine which is called off the timer interrupt that the
   * foreground routines are active so it must not repaint the display. */
  sp->active = 1;

  for ( ; ptr < end ; ptr++)
 180e100:	e0bffd17 	ldw	r2,-12(fp)
 180e104:	10800044 	addi	r2,r2,1
 180e108:	e0bffd15 	stw	r2,-12(fp)
 180e10c:	e0fffd17 	ldw	r3,-12(fp)
 180e110:	e0bffb17 	ldw	r2,-20(fp)
 180e114:	18bf5b36 	bltu	r3,r2,180de84 <altera_avalon_lcd_16207_write+0x44>
      sp->x++;
    }
  }

  /* Recalculate the scrolling parameters */
  widthmax = ALT_LCD_WIDTH;
 180e118:	00800404 	movi	r2,16
 180e11c:	e0bff915 	stw	r2,-28(fp)
  for (y = 0 ; y < ALT_LCD_HEIGHT ; y++)
 180e120:	e03ffa15 	stw	zero,-24(fp)
 180e124:	00003606 	br	180e200 <altera_avalon_lcd_16207_write+0x3c0>
  {
    int width;
    for (width = ALT_LCD_VIRTUAL_WIDTH ; width > 0 ; width--)
 180e128:	00801404 	movi	r2,80
 180e12c:	e0bff615 	stw	r2,-40(fp)
 180e130:	00001106 	br	180e178 <altera_avalon_lcd_16207_write+0x338>
      if (sp->line[y].data[width-1] != ' ')
 180e134:	e13ffa17 	ldw	r4,-24(fp)
 180e138:	e0bff617 	ldw	r2,-40(fp)
 180e13c:	117fffc4 	addi	r5,r2,-1
 180e140:	e0fffc17 	ldw	r3,-16(fp)
 180e144:	208018e4 	muli	r2,r4,99
 180e148:	10c5883a 	add	r2,r2,r3
 180e14c:	1145883a 	add	r2,r2,r5
 180e150:	10801004 	addi	r2,r2,64
 180e154:	10800003 	ldbu	r2,0(r2)
 180e158:	10803fcc 	andi	r2,r2,255
 180e15c:	1080201c 	xori	r2,r2,128
 180e160:	10bfe004 	addi	r2,r2,-128
 180e164:	10800818 	cmpnei	r2,r2,32
 180e168:	1000061e 	bne	r2,zero,180e184 <altera_avalon_lcd_16207_write+0x344>
  /* Recalculate the scrolling parameters */
  widthmax = ALT_LCD_WIDTH;
  for (y = 0 ; y < ALT_LCD_HEIGHT ; y++)
  {
    int width;
    for (width = ALT_LCD_VIRTUAL_WIDTH ; width > 0 ; width--)
 180e16c:	e0bff617 	ldw	r2,-40(fp)
 180e170:	10bfffc4 	addi	r2,r2,-1
 180e174:	e0bff615 	stw	r2,-40(fp)
 180e178:	e0bff617 	ldw	r2,-40(fp)
 180e17c:	10800048 	cmpgei	r2,r2,1
 180e180:	103fec1e 	bne	r2,zero,180e134 <altera_avalon_lcd_16207_write+0x2f4>

    /* The minimum width is the size of the LCD panel.  If the real width
     * is long enough to require scrolling then add an extra space so the
     * end of the message doesn't run into the beginning of it.
     */
    if (width <= ALT_LCD_WIDTH)
 180e184:	e0bff617 	ldw	r2,-40(fp)
 180e188:	10800448 	cmpgei	r2,r2,17
 180e18c:	1000031e 	bne	r2,zero,180e19c <altera_avalon_lcd_16207_write+0x35c>
      width = ALT_LCD_WIDTH;
 180e190:	00800404 	movi	r2,16
 180e194:	e0bff615 	stw	r2,-40(fp)
 180e198:	00000306 	br	180e1a8 <altera_avalon_lcd_16207_write+0x368>
    else
      width++;
 180e19c:	e0bff617 	ldw	r2,-40(fp)
 180e1a0:	10800044 	addi	r2,r2,1
 180e1a4:	e0bff615 	stw	r2,-40(fp)

    sp->line[y].width = width;
 180e1a8:	e13ffa17 	ldw	r4,-24(fp)
 180e1ac:	e0bff617 	ldw	r2,-40(fp)
 180e1b0:	100b883a 	mov	r5,r2
 180e1b4:	e0fffc17 	ldw	r3,-16(fp)
 180e1b8:	208018e4 	muli	r2,r4,99
 180e1bc:	10c5883a 	add	r2,r2,r3
 180e1c0:	10802404 	addi	r2,r2,144
 180e1c4:	11400045 	stb	r5,1(r2)
    if (widthmax < width)
 180e1c8:	e0fff917 	ldw	r3,-28(fp)
 180e1cc:	e0bff617 	ldw	r2,-40(fp)
 180e1d0:	1880020e 	bge	r3,r2,180e1dc <altera_avalon_lcd_16207_write+0x39c>
      widthmax = width;
 180e1d4:	e0bff617 	ldw	r2,-40(fp)
 180e1d8:	e0bff915 	stw	r2,-28(fp)
    sp->line[y].speed = 0; /* By default lines don't scroll */
 180e1dc:	e0bffa17 	ldw	r2,-24(fp)
 180e1e0:	e0fffc17 	ldw	r3,-16(fp)
 180e1e4:	108018e4 	muli	r2,r2,99
 180e1e8:	10c5883a 	add	r2,r2,r3
 180e1ec:	10802404 	addi	r2,r2,144
 180e1f0:	10000085 	stb	zero,2(r2)
    }
  }

  /* Recalculate the scrolling parameters */
  widthmax = ALT_LCD_WIDTH;
  for (y = 0 ; y < ALT_LCD_HEIGHT ; y++)
 180e1f4:	e0bffa17 	ldw	r2,-24(fp)
 180e1f8:	10800044 	addi	r2,r2,1
 180e1fc:	e0bffa15 	stw	r2,-24(fp)
 180e200:	e0bffa17 	ldw	r2,-24(fp)
 180e204:	10800090 	cmplti	r2,r2,2
 180e208:	103fc71e 	bne	r2,zero,180e128 <altera_avalon_lcd_16207_write+0x2e8>
    if (widthmax < width)
      widthmax = width;
    sp->line[y].speed = 0; /* By default lines don't scroll */
  }

  if (widthmax <= ALT_LCD_WIDTH)
 180e20c:	e0bff917 	ldw	r2,-28(fp)
 180e210:	10800448 	cmpgei	r2,r2,17
 180e214:	1000031e 	bne	r2,zero,180e224 <altera_avalon_lcd_16207_write+0x3e4>
    sp->scrollmax = 0;
 180e218:	e0bffc17 	ldw	r2,-16(fp)
 180e21c:	10000985 	stb	zero,38(r2)
 180e220:	00002d06 	br	180e2d8 <altera_avalon_lcd_16207_write+0x498>
  else
  {
    widthmax *= 2;
 180e224:	e0bff917 	ldw	r2,-28(fp)
 180e228:	1085883a 	add	r2,r2,r2
 180e22c:	e0bff915 	stw	r2,-28(fp)
    sp->scrollmax = widthmax;
 180e230:	e0bff917 	ldw	r2,-28(fp)
 180e234:	1007883a 	mov	r3,r2
 180e238:	e0bffc17 	ldw	r2,-16(fp)
 180e23c:	10c00985 	stb	r3,38(r2)

    /* Now calculate how fast each of the other lines should go */
    for (y = 0 ; y < ALT_LCD_HEIGHT ; y++)
 180e240:	e03ffa15 	stw	zero,-24(fp)
 180e244:	00002106 	br	180e2cc <altera_avalon_lcd_16207_write+0x48c>
      if (sp->line[y].width > ALT_LCD_WIDTH)
 180e248:	e0bffa17 	ldw	r2,-24(fp)
 180e24c:	e0fffc17 	ldw	r3,-16(fp)
 180e250:	108018e4 	muli	r2,r2,99
 180e254:	10c5883a 	add	r2,r2,r3
 180e258:	10802404 	addi	r2,r2,144
 180e25c:	10800043 	ldbu	r2,1(r2)
 180e260:	10803fcc 	andi	r2,r2,255
 180e264:	1080201c 	xori	r2,r2,128
 180e268:	10bfe004 	addi	r2,r2,-128
 180e26c:	10800450 	cmplti	r2,r2,17
 180e270:	1000131e 	bne	r2,zero,180e2c0 <altera_avalon_lcd_16207_write+0x480>
         */
#if 1
        /* This option makes all the lines scroll round at different speeds
         * which are chosen so that all the scrolls finish at the same time.
         */
        sp->line[y].speed = 256 * sp->line[y].width / widthmax;
 180e274:	e17ffa17 	ldw	r5,-24(fp)
 180e278:	e0bffa17 	ldw	r2,-24(fp)
 180e27c:	e0fffc17 	ldw	r3,-16(fp)
 180e280:	108018e4 	muli	r2,r2,99
 180e284:	10c5883a 	add	r2,r2,r3
 180e288:	10802404 	addi	r2,r2,144
 180e28c:	10800043 	ldbu	r2,1(r2)
 180e290:	10803fcc 	andi	r2,r2,255
 180e294:	1080201c 	xori	r2,r2,128
 180e298:	10bfe004 	addi	r2,r2,-128
 180e29c:	1006923a 	slli	r3,r2,8
 180e2a0:	e0bff917 	ldw	r2,-28(fp)
 180e2a4:	1885283a 	div	r2,r3,r2
 180e2a8:	1009883a 	mov	r4,r2
 180e2ac:	e0fffc17 	ldw	r3,-16(fp)
 180e2b0:	288018e4 	muli	r2,r5,99
 180e2b4:	10c5883a 	add	r2,r2,r3
 180e2b8:	10802404 	addi	r2,r2,144
 180e2bc:	11000085 	stb	r4,2(r2)
  {
    widthmax *= 2;
    sp->scrollmax = widthmax;

    /* Now calculate how fast each of the other lines should go */
    for (y = 0 ; y < ALT_LCD_HEIGHT ; y++)
 180e2c0:	e0bffa17 	ldw	r2,-24(fp)
 180e2c4:	10800044 	addi	r2,r2,1
 180e2c8:	e0bffa15 	stw	r2,-24(fp)
 180e2cc:	e0bffa17 	ldw	r2,-24(fp)
 180e2d0:	10800090 	cmplti	r2,r2,2
 180e2d4:	103fdc1e 	bne	r2,zero,180e248 <altera_avalon_lcd_16207_write+0x408>
   * (because active was set when the timer interrupt occurred).  If there
   * has been a missed repaint then paint again.  And again.  etc.
   */
  for ( ; ; )
  {
    int old_scrollpos = sp->scrollpos;
 180e2d8:	e0bffc17 	ldw	r2,-16(fp)
 180e2dc:	10800943 	ldbu	r2,37(r2)
 180e2e0:	10803fcc 	andi	r2,r2,255
 180e2e4:	1080201c 	xori	r2,r2,128
 180e2e8:	10bfe004 	addi	r2,r2,-128
 180e2ec:	e0bff515 	stw	r2,-44(fp)

    lcd_repaint_screen(sp);
 180e2f0:	e13ffc17 	ldw	r4,-16(fp)
 180e2f4:	180d8bc0 	call	180d8bc <lcd_repaint_screen>

    /* Let the timer routines repaint the display again */
    sp->active = 0;
 180e2f8:	e0bffc17 	ldw	r2,-16(fp)
 180e2fc:	100009c5 	stb	zero,39(r2)

    /* Have the timer routines tried to scroll while we were painting?
     * If not then we can exit */
    if (sp->scrollpos == old_scrollpos)
 180e300:	e0bffc17 	ldw	r2,-16(fp)
 180e304:	10800943 	ldbu	r2,37(r2)
 180e308:	10c03fcc 	andi	r3,r2,255
 180e30c:	18c0201c 	xori	r3,r3,128
 180e310:	18ffe004 	addi	r3,r3,-128
 180e314:	e0bff517 	ldw	r2,-44(fp)
 180e318:	18800426 	beq	r3,r2,180e32c <altera_avalon_lcd_16207_write+0x4ec>
      break;

    /* We need to repaint again since the display scrolled while we were
     * painting last time */
    sp->active = 1;
 180e31c:	e0fffc17 	ldw	r3,-16(fp)
 180e320:	00800044 	movi	r2,1
 180e324:	188009c5 	stb	r2,39(r3)
  }
 180e328:	003feb06 	br	180e2d8 <altera_avalon_lcd_16207_write+0x498>
   * semaphore so that other threads can access the buffer.
   */

  ALT_SEM_POST (sp->write_lock);

  return len;
 180e32c:	e0bffe17 	ldw	r2,-8(fp)
}
 180e330:	e037883a 	mov	sp,fp
 180e334:	dfc00117 	ldw	ra,4(sp)
 180e338:	df000017 	ldw	fp,0(sp)
 180e33c:	dec00204 	addi	sp,sp,8
 180e340:	f800283a 	ret

0180e344 <alt_lcd_16207_timeout>:
/*
 * Timeout routine is called every second
 */

static alt_u32 alt_lcd_16207_timeout(void* context) 
{
 180e344:	defffc04 	addi	sp,sp,-16
 180e348:	dfc00315 	stw	ra,12(sp)
 180e34c:	df000215 	stw	fp,8(sp)
 180e350:	df000204 	addi	fp,sp,8
 180e354:	e13fff15 	stw	r4,-4(fp)
  altera_avalon_lcd_16207_state* sp = (altera_avalon_lcd_16207_state*)context;
 180e358:	e0bfff17 	ldw	r2,-4(fp)
 180e35c:	e0bffe15 	stw	r2,-8(fp)

  /* Update the scrolling position */
  if (sp->scrollpos + 1 >= sp->scrollmax)
 180e360:	e0bffe17 	ldw	r2,-8(fp)
 180e364:	10800943 	ldbu	r2,37(r2)
 180e368:	10803fcc 	andi	r2,r2,255
 180e36c:	1080201c 	xori	r2,r2,128
 180e370:	10bfe004 	addi	r2,r2,-128
 180e374:	10c00044 	addi	r3,r2,1
 180e378:	e0bffe17 	ldw	r2,-8(fp)
 180e37c:	10800983 	ldbu	r2,38(r2)
 180e380:	10803fcc 	andi	r2,r2,255
 180e384:	1080201c 	xori	r2,r2,128
 180e388:	10bfe004 	addi	r2,r2,-128
 180e38c:	18800316 	blt	r3,r2,180e39c <alt_lcd_16207_timeout+0x58>
    sp->scrollpos = 0;
 180e390:	e0bffe17 	ldw	r2,-8(fp)
 180e394:	10000945 	stb	zero,37(r2)
 180e398:	00000606 	br	180e3b4 <alt_lcd_16207_timeout+0x70>
  else
    sp->scrollpos = sp->scrollpos + 1;
 180e39c:	e0bffe17 	ldw	r2,-8(fp)
 180e3a0:	10800943 	ldbu	r2,37(r2)
 180e3a4:	10800044 	addi	r2,r2,1
 180e3a8:	1007883a 	mov	r3,r2
 180e3ac:	e0bffe17 	ldw	r2,-8(fp)
 180e3b0:	10c00945 	stb	r3,37(r2)

  /* Repaint the panel unless the foreground will do it again soon */
  if (sp->scrollmax > 0 && !sp->active)
 180e3b4:	e0bffe17 	ldw	r2,-8(fp)
 180e3b8:	10800983 	ldbu	r2,38(r2)
 180e3bc:	10803fcc 	andi	r2,r2,255
 180e3c0:	1080201c 	xori	r2,r2,128
 180e3c4:	10bfe004 	addi	r2,r2,-128
 180e3c8:	10800050 	cmplti	r2,r2,1
 180e3cc:	1000091e 	bne	r2,zero,180e3f4 <alt_lcd_16207_timeout+0xb0>
 180e3d0:	e0bffe17 	ldw	r2,-8(fp)
 180e3d4:	108009c3 	ldbu	r2,39(r2)
 180e3d8:	10803fcc 	andi	r2,r2,255
 180e3dc:	1080201c 	xori	r2,r2,128
 180e3e0:	10bfe004 	addi	r2,r2,-128
 180e3e4:	1004c03a 	cmpne	r2,r2,zero
 180e3e8:	1000021e 	bne	r2,zero,180e3f4 <alt_lcd_16207_timeout+0xb0>
    lcd_repaint_screen(sp);
 180e3ec:	e13ffe17 	ldw	r4,-8(fp)
 180e3f0:	180d8bc0 	call	180d8bc <lcd_repaint_screen>

  return sp->period;
 180e3f4:	e0bffe17 	ldw	r2,-8(fp)
 180e3f8:	10800717 	ldw	r2,28(r2)
}
 180e3fc:	e037883a 	mov	sp,fp
 180e400:	dfc00117 	ldw	ra,4(sp)
 180e404:	df000017 	ldw	fp,0(sp)
 180e408:	dec00204 	addi	sp,sp,8
 180e40c:	f800283a 	ret

0180e410 <altera_avalon_lcd_16207_init>:

/*
 * Called at boot time to initialise the LCD driver
 */
void altera_avalon_lcd_16207_init(altera_avalon_lcd_16207_state* sp)
{
 180e410:	defffc04 	addi	sp,sp,-16
 180e414:	dfc00315 	stw	ra,12(sp)
 180e418:	df000215 	stw	fp,8(sp)
 180e41c:	df000204 	addi	fp,sp,8
 180e420:	e13fff15 	stw	r4,-4(fp)
  unsigned int base = sp->base;
 180e424:	e0bfff17 	ldw	r2,-4(fp)
 180e428:	10800017 	ldw	r2,0(r2)
 180e42c:	e0bffe15 	stw	r2,-8(fp)

  /* Mark the device as functional */
  sp->broken = 0;
 180e430:	e0bfff17 	ldw	r2,-4(fp)
 180e434:	10000805 	stb	zero,32(r2)
   * the BUSY bit in the status register doesn't work until the display
   * has been reset three times.
   */

  /* Wait for 15 ms then reset */
  usleep(15000);
 180e438:	010ea604 	movi	r4,15000
 180e43c:	180abe80 	call	180abe8 <usleep>
  IOWR_ALTERA_AVALON_LCD_16207_COMMAND(base, LCD_CMD_FUNCTION_SET | LCD_CMD_8BIT);
 180e440:	e0bffe17 	ldw	r2,-8(fp)
 180e444:	1007883a 	mov	r3,r2
 180e448:	00800c04 	movi	r2,48
 180e44c:	18800035 	stwio	r2,0(r3)

  /* Wait for another 4.1ms and reset again */
  usleep(4100);  
 180e450:	01040104 	movi	r4,4100
 180e454:	180abe80 	call	180abe8 <usleep>
  IOWR_ALTERA_AVALON_LCD_16207_COMMAND(base, LCD_CMD_FUNCTION_SET | LCD_CMD_8BIT);
 180e458:	e0bffe17 	ldw	r2,-8(fp)
 180e45c:	1007883a 	mov	r3,r2
 180e460:	00800c04 	movi	r2,48
 180e464:	18800035 	stwio	r2,0(r3)

  /* Wait a further 1 ms and reset a third time */
  usleep(1000);
 180e468:	0100fa04 	movi	r4,1000
 180e46c:	180abe80 	call	180abe8 <usleep>
  IOWR_ALTERA_AVALON_LCD_16207_COMMAND(base, LCD_CMD_FUNCTION_SET | LCD_CMD_8BIT);
 180e470:	e0bffe17 	ldw	r2,-8(fp)
 180e474:	1007883a 	mov	r3,r2
 180e478:	00800c04 	movi	r2,48
 180e47c:	18800035 	stwio	r2,0(r3)

  /* Setup interface parameters: 8 bit bus, 2 rows, 5x7 font */
  lcd_write_command(sp, LCD_CMD_FUNCTION_SET | LCD_CMD_8BIT | LCD_CMD_TWO_LINE);
 180e480:	e13fff17 	ldw	r4,-4(fp)
 180e484:	01400e04 	movi	r5,56
 180e488:	180d66c0 	call	180d66c <lcd_write_command>
  
  /* Turn display off */
  lcd_write_command(sp, LCD_CMD_ONOFF);
 180e48c:	e13fff17 	ldw	r4,-4(fp)
 180e490:	01400204 	movi	r5,8
 180e494:	180d66c0 	call	180d66c <lcd_write_command>

  /* Clear display */
  lcd_clear_screen(sp);
 180e498:	e13fff17 	ldw	r4,-4(fp)
 180e49c:	180d7f80 	call	180d7f8 <lcd_clear_screen>
  
  /* Set mode: increment after writing, don't shift display */
  lcd_write_command(sp, LCD_CMD_MODES | LCD_CMD_MODE_INC);
 180e4a0:	e13fff17 	ldw	r4,-4(fp)
 180e4a4:	01400184 	movi	r5,6
 180e4a8:	180d66c0 	call	180d66c <lcd_write_command>

  /* Turn display on */
  lcd_write_command(sp, LCD_CMD_ONOFF | LCD_CMD_ENABLE_DISP);
 180e4ac:	e13fff17 	ldw	r4,-4(fp)
 180e4b0:	01400304 	movi	r5,12
 180e4b4:	180d66c0 	call	180d66c <lcd_write_command>

  sp->esccount = -1;
 180e4b8:	e0ffff17 	ldw	r3,-4(fp)
 180e4bc:	00bfffc4 	movi	r2,-1
 180e4c0:	18800905 	stb	r2,36(r3)
  memset(sp->escape, 0, sizeof(sp->escape));
 180e4c4:	e0bfff17 	ldw	r2,-4(fp)
 180e4c8:	11000a04 	addi	r4,r2,40
 180e4cc:	000b883a 	mov	r5,zero
 180e4d0:	01800204 	movi	r6,8
 180e4d4:	1806b7c0 	call	1806b7c <memset>

  sp->scrollpos = 0;
 180e4d8:	e0bfff17 	ldw	r2,-4(fp)
 180e4dc:	10000945 	stb	zero,37(r2)
  sp->scrollmax = 0;
 180e4e0:	e0bfff17 	ldw	r2,-4(fp)
 180e4e4:	10000985 	stb	zero,38(r2)
  sp->active = 0;
 180e4e8:	e0bfff17 	ldw	r2,-4(fp)
 180e4ec:	100009c5 	stb	zero,39(r2)
 180e4f0:	00806074 	movhi	r2,385
 180e4f4:	108c9604 	addi	r2,r2,12888
 180e4f8:	10800017 	ldw	r2,0(r2)
 180e4fc:	1007883a 	mov	r3,r2

  sp->period = alt_ticks_per_second() / 10; /* Call every 100ms */
 180e500:	00800284 	movi	r2,10
 180e504:	1885203a 	divu	r2,r3,r2
 180e508:	1007883a 	mov	r3,r2
 180e50c:	e0bfff17 	ldw	r2,-4(fp)
 180e510:	10c00715 	stw	r3,28(r2)

  alt_alarm_start(&sp->alarm, sp->period, &alt_lcd_16207_timeout, sp);
 180e514:	e0bfff17 	ldw	r2,-4(fp)
 180e518:	11000104 	addi	r4,r2,4
 180e51c:	e0bfff17 	ldw	r2,-4(fp)
 180e520:	10800717 	ldw	r2,28(r2)
 180e524:	100b883a 	mov	r5,r2
 180e528:	01806074 	movhi	r6,385
 180e52c:	31b8d104 	addi	r6,r6,-7356
 180e530:	e1ffff17 	ldw	r7,-4(fp)
 180e534:	180f0540 	call	180f054 <alt_alarm_start>
}
 180e538:	e037883a 	mov	sp,fp
 180e53c:	dfc00117 	ldw	ra,4(sp)
 180e540:	df000017 	ldw	fp,0(sp)
 180e544:	dec00204 	addi	sp,sp,8
 180e548:	f800283a 	ret

0180e54c <altera_avalon_lcd_16207_write_fd>:
extern int altera_avalon_lcd_16207_write(altera_avalon_lcd_16207_state* sp,
  const char* ptr, int count, int flags);

int 
altera_avalon_lcd_16207_write_fd(alt_fd* fd, const char* buffer, int space)
{
 180e54c:	defffa04 	addi	sp,sp,-24
 180e550:	dfc00515 	stw	ra,20(sp)
 180e554:	df000415 	stw	fp,16(sp)
 180e558:	df000404 	addi	fp,sp,16
 180e55c:	e13ffd15 	stw	r4,-12(fp)
 180e560:	e17ffe15 	stw	r5,-8(fp)
 180e564:	e1bfff15 	stw	r6,-4(fp)
    altera_avalon_lcd_16207_dev* dev = (altera_avalon_lcd_16207_dev*) fd->dev; 
 180e568:	e0bffd17 	ldw	r2,-12(fp)
 180e56c:	10800017 	ldw	r2,0(r2)
 180e570:	e0bffc15 	stw	r2,-16(fp)

    return altera_avalon_lcd_16207_write(&dev->state, buffer, space,
 180e574:	e0bffc17 	ldw	r2,-16(fp)
 180e578:	11000a04 	addi	r4,r2,40
 180e57c:	e0bffd17 	ldw	r2,-12(fp)
 180e580:	11c00217 	ldw	r7,8(r2)
 180e584:	e17ffe17 	ldw	r5,-8(fp)
 180e588:	e1bfff17 	ldw	r6,-4(fp)
 180e58c:	180de400 	call	180de40 <altera_avalon_lcd_16207_write>
      fd->fd_flags);
}
 180e590:	e037883a 	mov	sp,fp
 180e594:	dfc00117 	ldw	ra,4(sp)
 180e598:	df000017 	ldw	fp,0(sp)
 180e59c:	dec00204 	addi	sp,sp,8
 180e5a0:	f800283a 	ret

0180e5a4 <alt_avalon_timer_sc_irq>:
#ifdef ALT_ENHANCED_INTERRUPT_API_PRESENT
static void alt_avalon_timer_sc_irq (void* base)
#else
static void alt_avalon_timer_sc_irq (void* base, alt_u32 id)
#endif
{
 180e5a4:	defffa04 	addi	sp,sp,-24
 180e5a8:	dfc00515 	stw	ra,20(sp)
 180e5ac:	df000415 	stw	fp,16(sp)
 180e5b0:	df000404 	addi	fp,sp,16
 180e5b4:	e13fff15 	stw	r4,-4(fp)
  alt_irq_context cpu_sr;
  
  /* clear the interrupt */
  IOWR_ALTERA_AVALON_TIMER_STATUS (base, 0);
 180e5b8:	e0bfff17 	ldw	r2,-4(fp)
 180e5bc:	10000035 	stwio	zero,0(r2)
  /* 
   * Dummy read to ensure IRQ is negated before the ISR returns.
   * The control register is read because reading the status
   * register has side-effects per the register map documentation.
   */
  IORD_ALTERA_AVALON_TIMER_CONTROL (base);
 180e5c0:	e0bfff17 	ldw	r2,-4(fp)
 180e5c4:	10800104 	addi	r2,r2,4
 180e5c8:	10800037 	ldwio	r2,0(r2)
static ALT_INLINE alt_irq_context ALT_ALWAYS_INLINE 
       alt_irq_disable_all (void)
{
  alt_irq_context context;

  NIOS2_READ_STATUS (context);
 180e5cc:	0005303a 	rdctl	r2,status
 180e5d0:	e0bffd15 	stw	r2,-12(fp)

  NIOS2_WRITE_STATUS (context & ~NIOS2_STATUS_PIE_MSK);
 180e5d4:	e0fffd17 	ldw	r3,-12(fp)
 180e5d8:	00bfff84 	movi	r2,-2
 180e5dc:	1884703a 	and	r2,r3,r2
 180e5e0:	1001703a 	wrctl	status,r2
  
  return context;
 180e5e4:	e0bffd17 	ldw	r2,-12(fp)

  /* 
   * Notify the system of a clock tick. disable interrupts 
   * during this time to safely support ISR preemption
   */
  cpu_sr = alt_irq_disable_all();
 180e5e8:	e0bffe15 	stw	r2,-8(fp)
  alt_tick ();
 180e5ec:	180fd5c0 	call	180fd5c <alt_tick>
 180e5f0:	e0bffe17 	ldw	r2,-8(fp)
 180e5f4:	e0bffc15 	stw	r2,-16(fp)
  status &= ~NIOS2_STATUS_PIE_MSK;
  status |= (context & NIOS2_STATUS_PIE_MSK);
  
  NIOS2_WRITE_STATUS (status);
#else
  NIOS2_WRITE_STATUS (context);
 180e5f8:	e0bffc17 	ldw	r2,-16(fp)
 180e5fc:	1001703a 	wrctl	status,r2
  alt_irq_enable_all(cpu_sr);
}
 180e600:	e037883a 	mov	sp,fp
 180e604:	dfc00117 	ldw	ra,4(sp)
 180e608:	df000017 	ldw	fp,0(sp)
 180e60c:	dec00204 	addi	sp,sp,8
 180e610:	f800283a 	ret

0180e614 <alt_avalon_timer_sc_init>:
 * auto-generated alt_sys_init() function.
 */

void alt_avalon_timer_sc_init (void* base, alt_u32 irq_controller_id, 
                                alt_u32 irq, alt_u32 freq)
{
 180e614:	defff804 	addi	sp,sp,-32
 180e618:	dfc00715 	stw	ra,28(sp)
 180e61c:	df000615 	stw	fp,24(sp)
 180e620:	df000604 	addi	fp,sp,24
 180e624:	e13ffc15 	stw	r4,-16(fp)
 180e628:	e17ffd15 	stw	r5,-12(fp)
 180e62c:	e1bffe15 	stw	r6,-8(fp)
 180e630:	e1ffff15 	stw	r7,-4(fp)
 180e634:	e0bfff17 	ldw	r2,-4(fp)
 180e638:	e0bffb15 	stw	r2,-20(fp)
 * in order to initialise the value of the clock frequency.
 */

static ALT_INLINE int ALT_ALWAYS_INLINE alt_sysclk_init (alt_u32 nticks)
{
  if (! _alt_tick_rate)
 180e63c:	00806074 	movhi	r2,385
 180e640:	108c9604 	addi	r2,r2,12888
 180e644:	10800017 	ldw	r2,0(r2)
 180e648:	1004c03a 	cmpne	r2,r2,zero
 180e64c:	1000041e 	bne	r2,zero,180e660 <alt_avalon_timer_sc_init+0x4c>
  {
    _alt_tick_rate = nticks;
 180e650:	00c06074 	movhi	r3,385
 180e654:	18cc9604 	addi	r3,r3,12888
 180e658:	e0bffb17 	ldw	r2,-20(fp)
 180e65c:	18800015 	stw	r2,0(r3)
  
  alt_sysclk_init (freq);
  
  /* set to free running mode */
  
  IOWR_ALTERA_AVALON_TIMER_CONTROL (base, 
 180e660:	e0bffc17 	ldw	r2,-16(fp)
 180e664:	10800104 	addi	r2,r2,4
 180e668:	1007883a 	mov	r3,r2
 180e66c:	008001c4 	movi	r2,7
 180e670:	18800035 	stwio	r2,0(r3)
            ALTERA_AVALON_TIMER_CONTROL_CONT_MSK |
            ALTERA_AVALON_TIMER_CONTROL_START_MSK);

  /* register the interrupt handler, and enable the interrupt */
#ifdef ALT_ENHANCED_INTERRUPT_API_PRESENT
  alt_ic_isr_register(irq_controller_id, irq, alt_avalon_timer_sc_irq, 
 180e674:	d8000015 	stw	zero,0(sp)
 180e678:	e13ffd17 	ldw	r4,-12(fp)
 180e67c:	e17ffe17 	ldw	r5,-8(fp)
 180e680:	01806074 	movhi	r6,385
 180e684:	31b96904 	addi	r6,r6,-6748
 180e688:	e1fffc17 	ldw	r7,-16(fp)
 180e68c:	180f5f80 	call	180f5f8 <alt_ic_isr_register>
                      base, NULL);
#else
  alt_irq_register (irq, base, alt_avalon_timer_sc_irq);
#endif  
}
 180e690:	e037883a 	mov	sp,fp
 180e694:	dfc00117 	ldw	ra,4(sp)
 180e698:	df000017 	ldw	fp,0(sp)
 180e69c:	dec00204 	addi	sp,sp,8
 180e6a0:	f800283a 	ret

0180e6a4 <altera_avalon_uart_read_fd>:
 *
 */

int 
altera_avalon_uart_read_fd(alt_fd* fd, char* buffer, int space)
{
 180e6a4:	defffa04 	addi	sp,sp,-24
 180e6a8:	dfc00515 	stw	ra,20(sp)
 180e6ac:	df000415 	stw	fp,16(sp)
 180e6b0:	df000404 	addi	fp,sp,16
 180e6b4:	e13ffd15 	stw	r4,-12(fp)
 180e6b8:	e17ffe15 	stw	r5,-8(fp)
 180e6bc:	e1bfff15 	stw	r6,-4(fp)
    altera_avalon_uart_dev* dev = (altera_avalon_uart_dev*) fd->dev; 
 180e6c0:	e0bffd17 	ldw	r2,-12(fp)
 180e6c4:	10800017 	ldw	r2,0(r2)
 180e6c8:	e0bffc15 	stw	r2,-16(fp)

    return altera_avalon_uart_read(&dev->state, buffer, space,
 180e6cc:	e0bffc17 	ldw	r2,-16(fp)
 180e6d0:	11000a04 	addi	r4,r2,40
 180e6d4:	e0bffd17 	ldw	r2,-12(fp)
 180e6d8:	11c00217 	ldw	r7,8(r2)
 180e6dc:	e17ffe17 	ldw	r5,-8(fp)
 180e6e0:	e1bfff17 	ldw	r6,-4(fp)
 180e6e4:	180eb9c0 	call	180eb9c <altera_avalon_uart_read>
      fd->fd_flags);
}
 180e6e8:	e037883a 	mov	sp,fp
 180e6ec:	dfc00117 	ldw	ra,4(sp)
 180e6f0:	df000017 	ldw	fp,0(sp)
 180e6f4:	dec00204 	addi	sp,sp,8
 180e6f8:	f800283a 	ret

0180e6fc <altera_avalon_uart_write_fd>:

int 
altera_avalon_uart_write_fd(alt_fd* fd, const char* buffer, int space)
{
 180e6fc:	defffa04 	addi	sp,sp,-24
 180e700:	dfc00515 	stw	ra,20(sp)
 180e704:	df000415 	stw	fp,16(sp)
 180e708:	df000404 	addi	fp,sp,16
 180e70c:	e13ffd15 	stw	r4,-12(fp)
 180e710:	e17ffe15 	stw	r5,-8(fp)
 180e714:	e1bfff15 	stw	r6,-4(fp)
    altera_avalon_uart_dev* dev = (altera_avalon_uart_dev*) fd->dev; 
 180e718:	e0bffd17 	ldw	r2,-12(fp)
 180e71c:	10800017 	ldw	r2,0(r2)
 180e720:	e0bffc15 	stw	r2,-16(fp)

    return altera_avalon_uart_write(&dev->state, buffer, space,
 180e724:	e0bffc17 	ldw	r2,-16(fp)
 180e728:	11000a04 	addi	r4,r2,40
 180e72c:	e0bffd17 	ldw	r2,-12(fp)
 180e730:	11c00217 	ldw	r7,8(r2)
 180e734:	e17ffe17 	ldw	r5,-8(fp)
 180e738:	e1bfff17 	ldw	r6,-4(fp)
 180e73c:	180ee2c0 	call	180ee2c <altera_avalon_uart_write>
      fd->fd_flags);
}
 180e740:	e037883a 	mov	sp,fp
 180e744:	dfc00117 	ldw	ra,4(sp)
 180e748:	df000017 	ldw	fp,0(sp)
 180e74c:	dec00204 	addi	sp,sp,8
 180e750:	f800283a 	ret

0180e754 <altera_avalon_uart_close_fd>:

#endif /* ALTERA_AVALON_UART_USE_IOCTL */

int 
altera_avalon_uart_close_fd(alt_fd* fd)
{
 180e754:	defffc04 	addi	sp,sp,-16
 180e758:	dfc00315 	stw	ra,12(sp)
 180e75c:	df000215 	stw	fp,8(sp)
 180e760:	df000204 	addi	fp,sp,8
 180e764:	e13fff15 	stw	r4,-4(fp)
    altera_avalon_uart_dev* dev = (altera_avalon_uart_dev*) fd->dev; 
 180e768:	e0bfff17 	ldw	r2,-4(fp)
 180e76c:	10800017 	ldw	r2,0(r2)
 180e770:	e0bffe15 	stw	r2,-8(fp)

    return altera_avalon_uart_close(&dev->state, fd->fd_flags);
 180e774:	e0bffe17 	ldw	r2,-8(fp)
 180e778:	11000a04 	addi	r4,r2,40
 180e77c:	e0bfff17 	ldw	r2,-4(fp)
 180e780:	11400217 	ldw	r5,8(r2)
 180e784:	180eb3c0 	call	180eb3c <altera_avalon_uart_close>
}
 180e788:	e037883a 	mov	sp,fp
 180e78c:	dfc00117 	ldw	ra,4(sp)
 180e790:	df000017 	ldw	fp,0(sp)
 180e794:	dec00204 	addi	sp,sp,8
 180e798:	f800283a 	ret

0180e79c <altera_avalon_uart_init>:
  alt_u32 status);

void 
altera_avalon_uart_init(altera_avalon_uart_state* sp, 
  alt_u32 irq_controller_id,  alt_u32 irq)
{
 180e79c:	defff704 	addi	sp,sp,-36
 180e7a0:	dfc00815 	stw	ra,32(sp)
 180e7a4:	df000715 	stw	fp,28(sp)
 180e7a8:	df000704 	addi	fp,sp,28
 180e7ac:	e13ffc15 	stw	r4,-16(fp)
 180e7b0:	e17ffd15 	stw	r5,-12(fp)
 180e7b4:	e1bffe15 	stw	r6,-8(fp)
  void* base = sp->base;
 180e7b8:	e0bffc17 	ldw	r2,-16(fp)
 180e7bc:	10800017 	ldw	r2,0(r2)
 180e7c0:	e0bffb15 	stw	r2,-20(fp)
 * HAL.
 */

static ALT_INLINE int ALT_ALWAYS_INLINE alt_no_error (void)
{
  return 0;
 180e7c4:	0005883a 	mov	r2,zero
  /* 
   * Initialise the read and write flags and the semaphores used to 
   * protect access to the circular buffers when running in a multi-threaded
   * environment.
   */
  error = ALT_FLAG_CREATE (&sp->events, 0)    || 
 180e7c8:	1004c03a 	cmpne	r2,r2,zero
 180e7cc:	1000061e 	bne	r2,zero,180e7e8 <altera_avalon_uart_init+0x4c>
 180e7d0:	0005883a 	mov	r2,zero
 180e7d4:	1004c03a 	cmpne	r2,r2,zero
 180e7d8:	1000031e 	bne	r2,zero,180e7e8 <altera_avalon_uart_init+0x4c>
 180e7dc:	0005883a 	mov	r2,zero
 180e7e0:	1005003a 	cmpeq	r2,r2,zero
 180e7e4:	1000031e 	bne	r2,zero,180e7f4 <altera_avalon_uart_init+0x58>
 180e7e8:	00800044 	movi	r2,1
 180e7ec:	e0bfff15 	stw	r2,-4(fp)
 180e7f0:	00000106 	br	180e7f8 <altera_avalon_uart_init+0x5c>
 180e7f4:	e03fff15 	stw	zero,-4(fp)
 180e7f8:	e0bfff17 	ldw	r2,-4(fp)
 180e7fc:	e0bffa15 	stw	r2,-24(fp)
          ALT_SEM_CREATE (&sp->read_lock, 1)  ||
          ALT_SEM_CREATE (&sp->write_lock, 1);

  if (!error)
 180e800:	e0bffa17 	ldw	r2,-24(fp)
 180e804:	1004c03a 	cmpne	r2,r2,zero
 180e808:	1000111e 	bne	r2,zero,180e850 <altera_avalon_uart_init+0xb4>
  {
    /* enable interrupts at the device */
    sp->ctrl = ALTERA_AVALON_UART_CONTROL_RTS_MSK  |
 180e80c:	e0fffc17 	ldw	r3,-16(fp)
 180e810:	00832004 	movi	r2,3200
 180e814:	18800115 	stw	r2,4(r3)
                ALTERA_AVALON_UART_CONTROL_RRDY_MSK |
                ALTERA_AVALON_UART_CONTROL_DCTS_MSK;

    IOWR_ALTERA_AVALON_UART_CONTROL(base, sp->ctrl); 
 180e818:	e0bffb17 	ldw	r2,-20(fp)
 180e81c:	11000304 	addi	r4,r2,12
 180e820:	e0bffc17 	ldw	r2,-16(fp)
 180e824:	10800117 	ldw	r2,4(r2)
 180e828:	1007883a 	mov	r3,r2
 180e82c:	2005883a 	mov	r2,r4
 180e830:	10c00035 	stwio	r3,0(r2)
  
    /* register the interrupt handler */
#ifdef ALT_ENHANCED_INTERRUPT_API_PRESENT
    alt_ic_isr_register(irq_controller_id, irq, altera_avalon_uart_irq, sp, 
 180e834:	d8000015 	stw	zero,0(sp)
 180e838:	e13ffd17 	ldw	r4,-12(fp)
 180e83c:	e17ffe17 	ldw	r5,-8(fp)
 180e840:	01806074 	movhi	r6,385
 180e844:	31ba1904 	addi	r6,r6,-6044
 180e848:	e1fffc17 	ldw	r7,-16(fp)
 180e84c:	180f5f80 	call	180f5f8 <alt_ic_isr_register>
      0x0);
#else
    alt_irq_register (irq, sp, altera_avalon_uart_irq);
#endif  
  }
}
 180e850:	e037883a 	mov	sp,fp
 180e854:	dfc00117 	ldw	ra,4(sp)
 180e858:	df000017 	ldw	fp,0(sp)
 180e85c:	dec00204 	addi	sp,sp,8
 180e860:	f800283a 	ret

0180e864 <altera_avalon_uart_irq>:
#ifdef ALT_ENHANCED_INTERRUPT_API_PRESENT
static void altera_avalon_uart_irq(void* context)
#else
static void altera_avalon_uart_irq(void* context, alt_u32 id)
#endif
{
 180e864:	defffa04 	addi	sp,sp,-24
 180e868:	dfc00515 	stw	ra,20(sp)
 180e86c:	df000415 	stw	fp,16(sp)
 180e870:	df000404 	addi	fp,sp,16
 180e874:	e13fff15 	stw	r4,-4(fp)
  alt_u32 status;

  altera_avalon_uart_state* sp = (altera_avalon_uart_state*) context;
 180e878:	e0bfff17 	ldw	r2,-4(fp)
 180e87c:	e0bffd15 	stw	r2,-12(fp)
  void* base               = sp->base;
 180e880:	e0bffd17 	ldw	r2,-12(fp)
 180e884:	10800017 	ldw	r2,0(r2)
 180e888:	e0bffc15 	stw	r2,-16(fp)
  /*
   * Read the status register in order to determine the cause of the
   * interrupt.
   */

  status = IORD_ALTERA_AVALON_UART_STATUS(base);
 180e88c:	e0bffc17 	ldw	r2,-16(fp)
 180e890:	10800204 	addi	r2,r2,8
 180e894:	10800037 	ldwio	r2,0(r2)
 180e898:	e0bffe15 	stw	r2,-8(fp)

  /* Clear any error flags set at the device */
  IOWR_ALTERA_AVALON_UART_STATUS(base, 0);
 180e89c:	e0bffc17 	ldw	r2,-16(fp)
 180e8a0:	10800204 	addi	r2,r2,8
 180e8a4:	10000035 	stwio	zero,0(r2)

  /* Dummy read to ensure IRQ is negated before ISR returns */
  IORD_ALTERA_AVALON_UART_STATUS(base);
 180e8a8:	e0bffc17 	ldw	r2,-16(fp)
 180e8ac:	10800204 	addi	r2,r2,8
 180e8b0:	10800037 	ldwio	r2,0(r2)
  
  /* process a read irq */
  if (status & ALTERA_AVALON_UART_STATUS_RRDY_MSK)
 180e8b4:	e0bffe17 	ldw	r2,-8(fp)
 180e8b8:	1080200c 	andi	r2,r2,128
 180e8bc:	1005003a 	cmpeq	r2,r2,zero
 180e8c0:	1000031e 	bne	r2,zero,180e8d0 <altera_avalon_uart_irq+0x6c>
  {
    altera_avalon_uart_rxirq(sp, status);
 180e8c4:	e13ffd17 	ldw	r4,-12(fp)
 180e8c8:	e17ffe17 	ldw	r5,-8(fp)
 180e8cc:	180e9000 	call	180e900 <altera_avalon_uart_rxirq>
  }

  /* process a write irq */
  if (status & (ALTERA_AVALON_UART_STATUS_TRDY_MSK | 
 180e8d0:	e0bffe17 	ldw	r2,-8(fp)
 180e8d4:	1081100c 	andi	r2,r2,1088
 180e8d8:	1005003a 	cmpeq	r2,r2,zero
 180e8dc:	1000031e 	bne	r2,zero,180e8ec <altera_avalon_uart_irq+0x88>
                  ALTERA_AVALON_UART_STATUS_DCTS_MSK))
  {
    altera_avalon_uart_txirq(sp, status);
 180e8e0:	e13ffd17 	ldw	r4,-12(fp)
 180e8e4:	e17ffe17 	ldw	r5,-8(fp)
 180e8e8:	180e9e00 	call	180e9e0 <altera_avalon_uart_txirq>
  }
  

}
 180e8ec:	e037883a 	mov	sp,fp
 180e8f0:	dfc00117 	ldw	ra,4(sp)
 180e8f4:	df000017 	ldw	fp,0(sp)
 180e8f8:	dec00204 	addi	sp,sp,8
 180e8fc:	f800283a 	ret

0180e900 <altera_avalon_uart_rxirq>:
 * the receive circular buffer, and sets the apropriate flags to indicate 
 * that there is data ready to be processed.
 */
static void 
altera_avalon_uart_rxirq(altera_avalon_uart_state* sp, alt_u32 status)
{
 180e900:	defffc04 	addi	sp,sp,-16
 180e904:	df000315 	stw	fp,12(sp)
 180e908:	df000304 	addi	fp,sp,12
 180e90c:	e13ffe15 	stw	r4,-8(fp)
 180e910:	e17fff15 	stw	r5,-4(fp)
  alt_u32 next;
  
  /* If there was an error, discard the data */

  if (status & (ALTERA_AVALON_UART_STATUS_PE_MSK | 
 180e914:	e0bfff17 	ldw	r2,-4(fp)
 180e918:	108000cc 	andi	r2,r2,3
 180e91c:	1004c03a 	cmpne	r2,r2,zero
 180e920:	10002b1e 	bne	r2,zero,180e9d0 <altera_avalon_uart_rxirq+0xd0>
   * In a multi-threaded environment, set the read event flag to indicate
   * that there is data ready. This is only done if the circular buffer was
   * previously empty.
   */

  if (sp->rx_end == sp->rx_start)
 180e924:	e0bffe17 	ldw	r2,-8(fp)
 180e928:	10800317 	ldw	r2,12(r2)
    ALT_FLAG_POST (sp->events, ALT_UART_READ_RDY, OS_FLAG_SET);
  }

  /* Determine which slot to use next in the circular buffer */

  next = (sp->rx_end + 1) & ALT_AVALON_UART_BUF_MSK;
 180e92c:	e0bffe17 	ldw	r2,-8(fp)
 180e930:	10800317 	ldw	r2,12(r2)
 180e934:	10800044 	addi	r2,r2,1
 180e938:	10800fcc 	andi	r2,r2,63
 180e93c:	e0bffd15 	stw	r2,-12(fp)

  /* Transfer data from the device to the circular buffer */

  sp->rx_buf[sp->rx_end] = IORD_ALTERA_AVALON_UART_RXDATA(sp->base);
 180e940:	e0bffe17 	ldw	r2,-8(fp)
 180e944:	11000317 	ldw	r4,12(r2)
 180e948:	e0bffe17 	ldw	r2,-8(fp)
 180e94c:	10800017 	ldw	r2,0(r2)
 180e950:	10800037 	ldwio	r2,0(r2)
 180e954:	1007883a 	mov	r3,r2
 180e958:	e0bffe17 	ldw	r2,-8(fp)
 180e95c:	2085883a 	add	r2,r4,r2
 180e960:	10800704 	addi	r2,r2,28
 180e964:	10c00005 	stb	r3,0(r2)

  sp->rx_end = next;
 180e968:	e0fffe17 	ldw	r3,-8(fp)
 180e96c:	e0bffd17 	ldw	r2,-12(fp)
 180e970:	18800315 	stw	r2,12(r3)

  next = (sp->rx_end + 1) & ALT_AVALON_UART_BUF_MSK;
 180e974:	e0bffe17 	ldw	r2,-8(fp)
 180e978:	10800317 	ldw	r2,12(r2)
 180e97c:	10800044 	addi	r2,r2,1
 180e980:	10800fcc 	andi	r2,r2,63
 180e984:	e0bffd15 	stw	r2,-12(fp)
  /*
   * If the cicular buffer was full, disable interrupts. Interrupts will be
   * re-enabled when data is removed from the buffer.
   */

  if (next == sp->rx_start)
 180e988:	e0bffe17 	ldw	r2,-8(fp)
 180e98c:	10c00217 	ldw	r3,8(r2)
 180e990:	e0bffd17 	ldw	r2,-12(fp)
 180e994:	18800e1e 	bne	r3,r2,180e9d0 <altera_avalon_uart_rxirq+0xd0>
  {
    sp->ctrl &= ~ALTERA_AVALON_UART_CONTROL_RRDY_MSK;
 180e998:	e0bffe17 	ldw	r2,-8(fp)
 180e99c:	10c00117 	ldw	r3,4(r2)
 180e9a0:	00bfdfc4 	movi	r2,-129
 180e9a4:	1886703a 	and	r3,r3,r2
 180e9a8:	e0bffe17 	ldw	r2,-8(fp)
 180e9ac:	10c00115 	stw	r3,4(r2)
    IOWR_ALTERA_AVALON_UART_CONTROL(sp->base, sp->ctrl); 
 180e9b0:	e0bffe17 	ldw	r2,-8(fp)
 180e9b4:	10800017 	ldw	r2,0(r2)
 180e9b8:	11000304 	addi	r4,r2,12
 180e9bc:	e0bffe17 	ldw	r2,-8(fp)
 180e9c0:	10800117 	ldw	r2,4(r2)
 180e9c4:	1007883a 	mov	r3,r2
 180e9c8:	2005883a 	mov	r2,r4
 180e9cc:	10c00035 	stwio	r3,0(r2)
  }   
}
 180e9d0:	e037883a 	mov	sp,fp
 180e9d4:	df000017 	ldw	fp,0(sp)
 180e9d8:	dec00104 	addi	sp,sp,4
 180e9dc:	f800283a 	ret

0180e9e0 <altera_avalon_uart_txirq>:
 * buffer to the device, and sets the apropriate flags to indicate that 
 * there is data ready to be processed.
 */
static void 
altera_avalon_uart_txirq(altera_avalon_uart_state* sp, alt_u32 status)
{
 180e9e0:	defffd04 	addi	sp,sp,-12
 180e9e4:	df000215 	stw	fp,8(sp)
 180e9e8:	df000204 	addi	fp,sp,8
 180e9ec:	e13ffe15 	stw	r4,-8(fp)
 180e9f0:	e17fff15 	stw	r5,-4(fp)
  /* Transfer data if there is some ready to be transfered */

  if (sp->tx_start != sp->tx_end)
 180e9f4:	e0bffe17 	ldw	r2,-8(fp)
 180e9f8:	10c00417 	ldw	r3,16(r2)
 180e9fc:	e0bffe17 	ldw	r2,-8(fp)
 180ea00:	10800517 	ldw	r2,20(r2)
 180ea04:	18803626 	beq	r3,r2,180eae0 <altera_avalon_uart_txirq+0x100>
    /* 
     * If the device is using flow control (i.e. RTS/CTS), then the
     * transmitter is required to throttle if CTS is high.
     */

    if (!(sp->flags & ALT_AVALON_UART_FC) ||
 180ea08:	e0bffe17 	ldw	r2,-8(fp)
 180ea0c:	10800617 	ldw	r2,24(r2)
 180ea10:	1080008c 	andi	r2,r2,2
 180ea14:	1005003a 	cmpeq	r2,r2,zero
 180ea18:	1000041e 	bne	r2,zero,180ea2c <altera_avalon_uart_txirq+0x4c>
 180ea1c:	e0bfff17 	ldw	r2,-4(fp)
 180ea20:	1082000c 	andi	r2,r2,2048
 180ea24:	1005003a 	cmpeq	r2,r2,zero
 180ea28:	10001e1e 	bne	r2,zero,180eaa4 <altera_avalon_uart_txirq+0xc4>
       * In a multi-threaded environment, set the write event flag to indicate
       * that there is space in the circular buffer. This is only done if the
       * buffer was previously empty.
       */

      if (sp->tx_start == ((sp->tx_end + 1) & ALT_AVALON_UART_BUF_MSK))
 180ea2c:	e0bffe17 	ldw	r2,-8(fp)
 180ea30:	10800417 	ldw	r2,16(r2)
                       OS_FLAG_SET);
      }

      /* Write the data to the device */

      IOWR_ALTERA_AVALON_UART_TXDATA(sp->base, sp->tx_buf[sp->tx_start]);
 180ea34:	e0bffe17 	ldw	r2,-8(fp)
 180ea38:	10800017 	ldw	r2,0(r2)
 180ea3c:	11000104 	addi	r4,r2,4
 180ea40:	e0bffe17 	ldw	r2,-8(fp)
 180ea44:	10c00417 	ldw	r3,16(r2)
 180ea48:	e0bffe17 	ldw	r2,-8(fp)
 180ea4c:	1885883a 	add	r2,r3,r2
 180ea50:	10801704 	addi	r2,r2,92
 180ea54:	10800003 	ldbu	r2,0(r2)
 180ea58:	10c03fcc 	andi	r3,r2,255
 180ea5c:	2005883a 	mov	r2,r4
 180ea60:	10c00035 	stwio	r3,0(r2)

      sp->tx_start = (++sp->tx_start) & ALT_AVALON_UART_BUF_MSK;
 180ea64:	e0bffe17 	ldw	r2,-8(fp)
 180ea68:	10800417 	ldw	r2,16(r2)
 180ea6c:	10c00044 	addi	r3,r2,1
 180ea70:	e0bffe17 	ldw	r2,-8(fp)
 180ea74:	10c00415 	stw	r3,16(r2)
 180ea78:	e0bffe17 	ldw	r2,-8(fp)
 180ea7c:	10800417 	ldw	r2,16(r2)
 180ea80:	10c00fcc 	andi	r3,r2,63
 180ea84:	e0bffe17 	ldw	r2,-8(fp)
 180ea88:	10c00415 	stw	r3,16(r2)
      /*
       * In case the tranmit interrupt had previously been disabled by 
       * detecting a low value on CTS, it is reenabled here.
       */ 

      sp->ctrl |= ALTERA_AVALON_UART_CONTROL_TRDY_MSK;
 180ea8c:	e0bffe17 	ldw	r2,-8(fp)
 180ea90:	10800117 	ldw	r2,4(r2)
 180ea94:	10c01014 	ori	r3,r2,64
 180ea98:	e0bffe17 	ldw	r2,-8(fp)
 180ea9c:	10c00115 	stw	r3,4(r2)
    /* 
     * If the device is using flow control (i.e. RTS/CTS), then the
     * transmitter is required to throttle if CTS is high.
     */

    if (!(sp->flags & ALT_AVALON_UART_FC) ||
 180eaa0:	00000f06 	br	180eae0 <altera_avalon_uart_txirq+0x100>
       * the last write to the status register. To avoid this resulting in
       * deadlock, it's necessary to re-check the status register here
       * before throttling.
       */
 
      status = IORD_ALTERA_AVALON_UART_STATUS(sp->base); 
 180eaa4:	e0bffe17 	ldw	r2,-8(fp)
 180eaa8:	10800017 	ldw	r2,0(r2)
 180eaac:	10800204 	addi	r2,r2,8
 180eab0:	10800037 	ldwio	r2,0(r2)
 180eab4:	e0bfff15 	stw	r2,-4(fp)

      if (!(status & ALTERA_AVALON_UART_STATUS_CTS_MSK))
 180eab8:	e0bfff17 	ldw	r2,-4(fp)
 180eabc:	1082000c 	andi	r2,r2,2048
 180eac0:	1004c03a 	cmpne	r2,r2,zero
 180eac4:	1000061e 	bne	r2,zero,180eae0 <altera_avalon_uart_txirq+0x100>
      {
        sp->ctrl &= ~ALTERA_AVALON_UART_CONTROL_TRDY_MSK;
 180eac8:	e0bffe17 	ldw	r2,-8(fp)
 180eacc:	10c00117 	ldw	r3,4(r2)
 180ead0:	00bfefc4 	movi	r2,-65
 180ead4:	1886703a 	and	r3,r3,r2
 180ead8:	e0bffe17 	ldw	r2,-8(fp)
 180eadc:	10c00115 	stw	r3,4(r2)
  /*
   * If the circular buffer is empty, disable the interrupt. This will be
   * re-enabled when new data is placed in the buffer.
   */

  if (sp->tx_start == sp->tx_end)
 180eae0:	e0bffe17 	ldw	r2,-8(fp)
 180eae4:	10c00417 	ldw	r3,16(r2)
 180eae8:	e0bffe17 	ldw	r2,-8(fp)
 180eaec:	10800517 	ldw	r2,20(r2)
 180eaf0:	1880061e 	bne	r3,r2,180eb0c <altera_avalon_uart_txirq+0x12c>
  {
    sp->ctrl &= ~(ALTERA_AVALON_UART_CONTROL_TRDY_MSK |
 180eaf4:	e0bffe17 	ldw	r2,-8(fp)
 180eaf8:	10c00117 	ldw	r3,4(r2)
 180eafc:	00beefc4 	movi	r2,-1089
 180eb00:	1886703a 	and	r3,r3,r2
 180eb04:	e0bffe17 	ldw	r2,-8(fp)
 180eb08:	10c00115 	stw	r3,4(r2)
                    ALTERA_AVALON_UART_CONTROL_DCTS_MSK);
  }

  IOWR_ALTERA_AVALON_UART_CONTROL(sp->base, sp->ctrl);
 180eb0c:	e0bffe17 	ldw	r2,-8(fp)
 180eb10:	10800017 	ldw	r2,0(r2)
 180eb14:	11000304 	addi	r4,r2,12
 180eb18:	e0bffe17 	ldw	r2,-8(fp)
 180eb1c:	10800117 	ldw	r2,4(r2)
 180eb20:	1007883a 	mov	r3,r2
 180eb24:	2005883a 	mov	r2,r4
 180eb28:	10c00035 	stwio	r3,0(r2)
}
 180eb2c:	e037883a 	mov	sp,fp
 180eb30:	df000017 	ldw	fp,0(sp)
 180eb34:	dec00104 	addi	sp,sp,4
 180eb38:	f800283a 	ret

0180eb3c <altera_avalon_uart_close>:
 * The close routine is not implemented for the small driver; instead it will
 * map to null. This is because the small driver simply waits while characters
 * are transmitted; there is no interrupt-serviced buffer to empty 
 */
int altera_avalon_uart_close(altera_avalon_uart_state* sp, int flags)
{
 180eb3c:	defffc04 	addi	sp,sp,-16
 180eb40:	df000315 	stw	fp,12(sp)
 180eb44:	df000304 	addi	fp,sp,12
 180eb48:	e13ffd15 	stw	r4,-12(fp)
 180eb4c:	e17ffe15 	stw	r5,-8(fp)
  /* 
   * Wait for all transmit data to be emptied by the UART ISR.
   */
  while (sp->tx_start != sp->tx_end) {
 180eb50:	00000706 	br	180eb70 <altera_avalon_uart_close+0x34>
    if (flags & O_NONBLOCK) {
 180eb54:	e0bffe17 	ldw	r2,-8(fp)
 180eb58:	1090000c 	andi	r2,r2,16384
 180eb5c:	1005003a 	cmpeq	r2,r2,zero
 180eb60:	1000031e 	bne	r2,zero,180eb70 <altera_avalon_uart_close+0x34>
      return -EWOULDBLOCK; 
 180eb64:	00bffd44 	movi	r2,-11
 180eb68:	e0bfff15 	stw	r2,-4(fp)
 180eb6c:	00000606 	br	180eb88 <altera_avalon_uart_close+0x4c>
int altera_avalon_uart_close(altera_avalon_uart_state* sp, int flags)
{
  /* 
   * Wait for all transmit data to be emptied by the UART ISR.
   */
  while (sp->tx_start != sp->tx_end) {
 180eb70:	e0bffd17 	ldw	r2,-12(fp)
 180eb74:	10c00417 	ldw	r3,16(r2)
 180eb78:	e0bffd17 	ldw	r2,-12(fp)
 180eb7c:	10800517 	ldw	r2,20(r2)
 180eb80:	18bff41e 	bne	r3,r2,180eb54 <altera_avalon_uart_close+0x18>
    if (flags & O_NONBLOCK) {
      return -EWOULDBLOCK; 
    }
  }

  return 0;
 180eb84:	e03fff15 	stw	zero,-4(fp)
 180eb88:	e0bfff17 	ldw	r2,-4(fp)
}
 180eb8c:	e037883a 	mov	sp,fp
 180eb90:	df000017 	ldw	fp,0(sp)
 180eb94:	dec00104 	addi	sp,sp,4
 180eb98:	f800283a 	ret

0180eb9c <altera_avalon_uart_read>:
 */

int 
altera_avalon_uart_read(altera_avalon_uart_state* sp, char* ptr, int len,
  int flags)
{
 180eb9c:	defff004 	addi	sp,sp,-64
 180eba0:	dfc00f15 	stw	ra,60(sp)
 180eba4:	df000e15 	stw	fp,56(sp)
 180eba8:	df000e04 	addi	fp,sp,56
 180ebac:	e13ffb15 	stw	r4,-20(fp)
 180ebb0:	e17ffc15 	stw	r5,-16(fp)
 180ebb4:	e1bffd15 	stw	r6,-12(fp)
 180ebb8:	e1fffe15 	stw	r7,-8(fp)
  alt_irq_context context;
  int             block;
  alt_u32         next;
  alt_u8          read_would_block = 0;
 180ebbc:	e03ff705 	stb	zero,-36(fp)
  int             count = 0;
 180ebc0:	e03ff615 	stw	zero,-40(fp)
  /* 
   * Construct a flag to indicate whether the device is being accessed in
   * blocking or non-blocking mode.
   */

  block = !(flags & O_NONBLOCK);
 180ebc4:	e0bffe17 	ldw	r2,-8(fp)
 180ebc8:	1090000c 	andi	r2,r2,16384
 180ebcc:	1005003a 	cmpeq	r2,r2,zero
 180ebd0:	e0bff915 	stw	r2,-28(fp)
  /*
   * Calculate which slot in the circular buffer is the next one to read
   * data from.
   */

  next = (sp->rx_start + 1) & ALT_AVALON_UART_BUF_MSK;
 180ebd4:	e0bffb17 	ldw	r2,-20(fp)
 180ebd8:	10800217 	ldw	r2,8(r2)
 180ebdc:	10800044 	addi	r2,r2,1
 180ebe0:	10800fcc 	andi	r2,r2,63
 180ebe4:	e0bff815 	stw	r2,-32(fp)
    /*
     * Read the required amount of data, until the circular buffer runs
     * empty
     */

    while ((count < len) && (sp->rx_start != sp->rx_end))
 180ebe8:	00001906 	br	180ec50 <altera_avalon_uart_read+0xb4>
    {
      count++;
 180ebec:	e0bff617 	ldw	r2,-40(fp)
 180ebf0:	10800044 	addi	r2,r2,1
 180ebf4:	e0bff615 	stw	r2,-40(fp)
      *ptr++ = sp->rx_buf[sp->rx_start];
 180ebf8:	e0bffb17 	ldw	r2,-20(fp)
 180ebfc:	10c00217 	ldw	r3,8(r2)
 180ec00:	e0bffb17 	ldw	r2,-20(fp)
 180ec04:	1885883a 	add	r2,r3,r2
 180ec08:	10800704 	addi	r2,r2,28
 180ec0c:	10800003 	ldbu	r2,0(r2)
 180ec10:	1007883a 	mov	r3,r2
 180ec14:	e0bffc17 	ldw	r2,-16(fp)
 180ec18:	10c00005 	stb	r3,0(r2)
 180ec1c:	e0bffc17 	ldw	r2,-16(fp)
 180ec20:	10800044 	addi	r2,r2,1
 180ec24:	e0bffc15 	stw	r2,-16(fp)
      
      sp->rx_start = (++sp->rx_start) & ALT_AVALON_UART_BUF_MSK;
 180ec28:	e0bffb17 	ldw	r2,-20(fp)
 180ec2c:	10800217 	ldw	r2,8(r2)
 180ec30:	10c00044 	addi	r3,r2,1
 180ec34:	e0bffb17 	ldw	r2,-20(fp)
 180ec38:	10c00215 	stw	r3,8(r2)
 180ec3c:	e0bffb17 	ldw	r2,-20(fp)
 180ec40:	10800217 	ldw	r2,8(r2)
 180ec44:	10c00fcc 	andi	r3,r2,63
 180ec48:	e0bffb17 	ldw	r2,-20(fp)
 180ec4c:	10c00215 	stw	r3,8(r2)
    /*
     * Read the required amount of data, until the circular buffer runs
     * empty
     */

    while ((count < len) && (sp->rx_start != sp->rx_end))
 180ec50:	e0fff617 	ldw	r3,-40(fp)
 180ec54:	e0bffd17 	ldw	r2,-12(fp)
 180ec58:	1880050e 	bge	r3,r2,180ec70 <altera_avalon_uart_read+0xd4>
 180ec5c:	e0bffb17 	ldw	r2,-20(fp)
 180ec60:	10c00217 	ldw	r3,8(r2)
 180ec64:	e0bffb17 	ldw	r2,-20(fp)
 180ec68:	10800317 	ldw	r2,12(r2)
 180ec6c:	18bfdf1e 	bne	r3,r2,180ebec <altera_avalon_uart_read+0x50>
    /*
     * If no data has been transferred, the circular buffer is empty, and
     * this is not a non-blocking access, block waiting for data to arrive.
     */

    if (!count && (sp->rx_start == sp->rx_end))
 180ec70:	e0bff617 	ldw	r2,-40(fp)
 180ec74:	1004c03a 	cmpne	r2,r2,zero
 180ec78:	1000271e 	bne	r2,zero,180ed18 <altera_avalon_uart_read+0x17c>
 180ec7c:	e0bffb17 	ldw	r2,-20(fp)
 180ec80:	10c00217 	ldw	r3,8(r2)
 180ec84:	e0bffb17 	ldw	r2,-20(fp)
 180ec88:	10800317 	ldw	r2,12(r2)
 180ec8c:	1880221e 	bne	r3,r2,180ed18 <altera_avalon_uart_read+0x17c>
    {
      if (!block)
 180ec90:	e0bff917 	ldw	r2,-28(fp)
 180ec94:	1004c03a 	cmpne	r2,r2,zero
 180ec98:	1000061e 	bne	r2,zero,180ecb4 <altera_avalon_uart_read+0x118>
      {
        /* Set errno to indicate the reason we're not returning any data */

        ALT_ERRNO = EWOULDBLOCK;
 180ec9c:	180edcc0 	call	180edcc <alt_get_errno>
 180eca0:	00c002c4 	movi	r3,11
 180eca4:	10c00015 	stw	r3,0(r2)
        read_would_block = 1;
 180eca8:	00800044 	movi	r2,1
 180ecac:	e0bff705 	stb	r2,-36(fp)
        break;
 180ecb0:	00001f06 	br	180ed30 <altera_avalon_uart_read+0x194>
static ALT_INLINE alt_irq_context ALT_ALWAYS_INLINE 
       alt_irq_disable_all (void)
{
  alt_irq_context context;

  NIOS2_READ_STATUS (context);
 180ecb4:	0005303a 	rdctl	r2,status
 180ecb8:	e0bff515 	stw	r2,-44(fp)

  NIOS2_WRITE_STATUS (context & ~NIOS2_STATUS_PIE_MSK);
 180ecbc:	e0fff517 	ldw	r3,-44(fp)
 180ecc0:	00bfff84 	movi	r2,-2
 180ecc4:	1884703a 	and	r2,r3,r2
 180ecc8:	1001703a 	wrctl	status,r2
  
  return context;
 180eccc:	e0bff517 	ldw	r2,-44(fp)
      {
       /* Block waiting for some data to arrive */

       /* First, ensure read interrupts are enabled to avoid deadlock */

       context = alt_irq_disable_all ();
 180ecd0:	e0bffa15 	stw	r2,-24(fp)
       sp->ctrl |= ALTERA_AVALON_UART_CONTROL_RRDY_MSK;
 180ecd4:	e0bffb17 	ldw	r2,-20(fp)
 180ecd8:	10800117 	ldw	r2,4(r2)
 180ecdc:	10c02014 	ori	r3,r2,128
 180ece0:	e0bffb17 	ldw	r2,-20(fp)
 180ece4:	10c00115 	stw	r3,4(r2)
       IOWR_ALTERA_AVALON_UART_CONTROL(sp->base, sp->ctrl);
 180ece8:	e0bffb17 	ldw	r2,-20(fp)
 180ecec:	10800017 	ldw	r2,0(r2)
 180ecf0:	11000304 	addi	r4,r2,12
 180ecf4:	e0bffb17 	ldw	r2,-20(fp)
 180ecf8:	10800117 	ldw	r2,4(r2)
 180ecfc:	1007883a 	mov	r3,r2
 180ed00:	2005883a 	mov	r2,r4
 180ed04:	10c00035 	stwio	r3,0(r2)
 180ed08:	e0bffa17 	ldw	r2,-24(fp)
 180ed0c:	e0bff415 	stw	r2,-48(fp)
  status &= ~NIOS2_STATUS_PIE_MSK;
  status |= (context & NIOS2_STATUS_PIE_MSK);
  
  NIOS2_WRITE_STATUS (status);
#else
  NIOS2_WRITE_STATUS (context);
 180ed10:	e0bff417 	ldw	r2,-48(fp)
 180ed14:	1001703a 	wrctl	status,r2
                      OS_FLAG_WAIT_SET_ANY + OS_FLAG_CONSUME,
                      0);
      }
    }
  }
  while (!count && len);
 180ed18:	e0bff617 	ldw	r2,-40(fp)
 180ed1c:	1004c03a 	cmpne	r2,r2,zero
 180ed20:	1000031e 	bne	r2,zero,180ed30 <altera_avalon_uart_read+0x194>
 180ed24:	e0bffd17 	ldw	r2,-12(fp)
 180ed28:	1004c03a 	cmpne	r2,r2,zero
 180ed2c:	103fc81e 	bne	r2,zero,180ec50 <altera_avalon_uart_read+0xb4>
static ALT_INLINE alt_irq_context ALT_ALWAYS_INLINE 
       alt_irq_disable_all (void)
{
  alt_irq_context context;

  NIOS2_READ_STATUS (context);
 180ed30:	0005303a 	rdctl	r2,status
 180ed34:	e0bff315 	stw	r2,-52(fp)

  NIOS2_WRITE_STATUS (context & ~NIOS2_STATUS_PIE_MSK);
 180ed38:	e0fff317 	ldw	r3,-52(fp)
 180ed3c:	00bfff84 	movi	r2,-2
 180ed40:	1884703a 	and	r2,r3,r2
 180ed44:	1001703a 	wrctl	status,r2
  
  return context;
 180ed48:	e0bff317 	ldw	r2,-52(fp)
  /*
   * Ensure that interrupts are enabled, so that the circular buffer can
   * re-fill.
   */

  context = alt_irq_disable_all ();
 180ed4c:	e0bffa15 	stw	r2,-24(fp)
  sp->ctrl |= ALTERA_AVALON_UART_CONTROL_RRDY_MSK;
 180ed50:	e0bffb17 	ldw	r2,-20(fp)
 180ed54:	10800117 	ldw	r2,4(r2)
 180ed58:	10c02014 	ori	r3,r2,128
 180ed5c:	e0bffb17 	ldw	r2,-20(fp)
 180ed60:	10c00115 	stw	r3,4(r2)
  IOWR_ALTERA_AVALON_UART_CONTROL(sp->base, sp->ctrl);
 180ed64:	e0bffb17 	ldw	r2,-20(fp)
 180ed68:	10800017 	ldw	r2,0(r2)
 180ed6c:	11000304 	addi	r4,r2,12
 180ed70:	e0bffb17 	ldw	r2,-20(fp)
 180ed74:	10800117 	ldw	r2,4(r2)
 180ed78:	1007883a 	mov	r3,r2
 180ed7c:	2005883a 	mov	r2,r4
 180ed80:	10c00035 	stwio	r3,0(r2)
 180ed84:	e0bffa17 	ldw	r2,-24(fp)
 180ed88:	e0bff215 	stw	r2,-56(fp)
  status &= ~NIOS2_STATUS_PIE_MSK;
  status |= (context & NIOS2_STATUS_PIE_MSK);
  
  NIOS2_WRITE_STATUS (status);
#else
  NIOS2_WRITE_STATUS (context);
 180ed8c:	e0bff217 	ldw	r2,-56(fp)
 180ed90:	1001703a 	wrctl	status,r2
  alt_irq_enable_all (context);

  /* Return the number of bytes read */
  if(read_would_block) {
 180ed94:	e0bff703 	ldbu	r2,-36(fp)
 180ed98:	1005003a 	cmpeq	r2,r2,zero
 180ed9c:	1000031e 	bne	r2,zero,180edac <altera_avalon_uart_read+0x210>
    return ~EWOULDBLOCK;
 180eda0:	00bffd04 	movi	r2,-12
 180eda4:	e0bfff15 	stw	r2,-4(fp)
 180eda8:	00000206 	br	180edb4 <altera_avalon_uart_read+0x218>
  }
  else {
    return count;
 180edac:	e0bff617 	ldw	r2,-40(fp)
 180edb0:	e0bfff15 	stw	r2,-4(fp)
 180edb4:	e0bfff17 	ldw	r2,-4(fp)
  }
}
 180edb8:	e037883a 	mov	sp,fp
 180edbc:	dfc00117 	ldw	ra,4(sp)
 180edc0:	df000017 	ldw	fp,0(sp)
 180edc4:	dec00204 	addi	sp,sp,8
 180edc8:	f800283a 	ret

0180edcc <alt_get_errno>:
#undef errno

extern int errno;

static ALT_INLINE int* alt_get_errno(void)
{
 180edcc:	defffd04 	addi	sp,sp,-12
 180edd0:	dfc00215 	stw	ra,8(sp)
 180edd4:	df000115 	stw	fp,4(sp)
 180edd8:	df000104 	addi	fp,sp,4
  return ((alt_errno) ? alt_errno() : &errno);
 180eddc:	00806074 	movhi	r2,385
 180ede0:	108c8204 	addi	r2,r2,12808
 180ede4:	10800017 	ldw	r2,0(r2)
 180ede8:	1005003a 	cmpeq	r2,r2,zero
 180edec:	1000061e 	bne	r2,zero,180ee08 <alt_get_errno+0x3c>
 180edf0:	00806074 	movhi	r2,385
 180edf4:	108c8204 	addi	r2,r2,12808
 180edf8:	10800017 	ldw	r2,0(r2)
 180edfc:	103ee83a 	callr	r2
 180ee00:	e0bfff15 	stw	r2,-4(fp)
 180ee04:	00000306 	br	180ee14 <alt_get_errno+0x48>
 180ee08:	00806074 	movhi	r2,385
 180ee0c:	108c9104 	addi	r2,r2,12868
 180ee10:	e0bfff15 	stw	r2,-4(fp)
 180ee14:	e0bfff17 	ldw	r2,-4(fp)
}
 180ee18:	e037883a 	mov	sp,fp
 180ee1c:	dfc00117 	ldw	ra,4(sp)
 180ee20:	df000017 	ldw	fp,0(sp)
 180ee24:	dec00204 	addi	sp,sp,8
 180ee28:	f800283a 	ret

0180ee2c <altera_avalon_uart_write>:
 */

int
altera_avalon_uart_write(altera_avalon_uart_state* sp, const char* ptr, int len,
  int flags)
{
 180ee2c:	defff204 	addi	sp,sp,-56
 180ee30:	dfc00d15 	stw	ra,52(sp)
 180ee34:	df000c15 	stw	fp,48(sp)
 180ee38:	df000c04 	addi	fp,sp,48
 180ee3c:	e13ffc15 	stw	r4,-16(fp)
 180ee40:	e17ffd15 	stw	r5,-12(fp)
 180ee44:	e1bffe15 	stw	r6,-8(fp)
 180ee48:	e1ffff15 	stw	r7,-4(fp)
  alt_irq_context context;
  int             no_block;
  alt_u32         next;
  int             count = len;
 180ee4c:	e0bffe17 	ldw	r2,-8(fp)
 180ee50:	e0bff815 	stw	r2,-32(fp)
  /* 
   * Construct a flag to indicate whether the device is being accessed in
   * blocking or non-blocking mode.
   */

  no_block = (flags & O_NONBLOCK);
 180ee54:	e0bfff17 	ldw	r2,-4(fp)
 180ee58:	1090000c 	andi	r2,r2,16384
 180ee5c:	e0bffa15 	stw	r2,-24(fp)
   * Loop transferring data from the input buffer to the transmit circular
   * buffer. The loop is terminated once all the data has been transferred,
   * or, (if in non-blocking mode) the buffer becomes full.
   */

  while (count)
 180ee60:	00004006 	br	180ef64 <altera_avalon_uart_write+0x138>
  {
    /* Determine the next slot in the buffer to access */

    next = (sp->tx_end + 1) & ALT_AVALON_UART_BUF_MSK;
 180ee64:	e0bffc17 	ldw	r2,-16(fp)
 180ee68:	10800517 	ldw	r2,20(r2)
 180ee6c:	10800044 	addi	r2,r2,1
 180ee70:	10800fcc 	andi	r2,r2,63
 180ee74:	e0bff915 	stw	r2,-28(fp)

    /* block waiting for space if necessary */

    if (next == sp->tx_start)
 180ee78:	e0bffc17 	ldw	r2,-16(fp)
 180ee7c:	10c00417 	ldw	r3,16(r2)
 180ee80:	e0bff917 	ldw	r2,-28(fp)
 180ee84:	1880251e 	bne	r3,r2,180ef1c <altera_avalon_uart_write+0xf0>
    {
      if (no_block)
 180ee88:	e0bffa17 	ldw	r2,-24(fp)
 180ee8c:	1005003a 	cmpeq	r2,r2,zero
 180ee90:	1000051e 	bne	r2,zero,180eea8 <altera_avalon_uart_write+0x7c>
      {
        /* Set errno to indicate why this function returned early */
 
        ALT_ERRNO = EWOULDBLOCK;
 180ee94:	180eff40 	call	180eff4 <alt_get_errno>
 180ee98:	1007883a 	mov	r3,r2
 180ee9c:	008002c4 	movi	r2,11
 180eea0:	18800015 	stw	r2,0(r3)
        break;
 180eea4:	00003206 	br	180ef70 <altera_avalon_uart_write+0x144>
static ALT_INLINE alt_irq_context ALT_ALWAYS_INLINE 
       alt_irq_disable_all (void)
{
  alt_irq_context context;

  NIOS2_READ_STATUS (context);
 180eea8:	0005303a 	rdctl	r2,status
 180eeac:	e0bff715 	stw	r2,-36(fp)

  NIOS2_WRITE_STATUS (context & ~NIOS2_STATUS_PIE_MSK);
 180eeb0:	e0fff717 	ldw	r3,-36(fp)
 180eeb4:	00bfff84 	movi	r2,-2
 180eeb8:	1884703a 	and	r2,r3,r2
 180eebc:	1001703a 	wrctl	status,r2
  
  return context;
 180eec0:	e0bff717 	ldw	r2,-36(fp)
      {
        /* Block waiting for space in the circular buffer */

        /* First, ensure transmit interrupts are enabled to avoid deadlock */

        context = alt_irq_disable_all ();
 180eec4:	e0bffb15 	stw	r2,-20(fp)
        sp->ctrl |= (ALTERA_AVALON_UART_CONTROL_TRDY_MSK |
 180eec8:	e0bffc17 	ldw	r2,-16(fp)
 180eecc:	10800117 	ldw	r2,4(r2)
 180eed0:	10c11014 	ori	r3,r2,1088
 180eed4:	e0bffc17 	ldw	r2,-16(fp)
 180eed8:	10c00115 	stw	r3,4(r2)
                        ALTERA_AVALON_UART_CONTROL_DCTS_MSK);
        IOWR_ALTERA_AVALON_UART_CONTROL(sp->base, sp->ctrl);
 180eedc:	e0bffc17 	ldw	r2,-16(fp)
 180eee0:	10800017 	ldw	r2,0(r2)
 180eee4:	11000304 	addi	r4,r2,12
 180eee8:	e0bffc17 	ldw	r2,-16(fp)
 180eeec:	10800117 	ldw	r2,4(r2)
 180eef0:	1007883a 	mov	r3,r2
 180eef4:	2005883a 	mov	r2,r4
 180eef8:	10c00035 	stwio	r3,0(r2)
 180eefc:	e0bffb17 	ldw	r2,-20(fp)
 180ef00:	e0bff615 	stw	r2,-40(fp)
  status &= ~NIOS2_STATUS_PIE_MSK;
  status |= (context & NIOS2_STATUS_PIE_MSK);
  
  NIOS2_WRITE_STATUS (status);
#else
  NIOS2_WRITE_STATUS (context);
 180ef04:	e0bff617 	ldw	r2,-40(fp)
 180ef08:	1001703a 	wrctl	status,r2
          ALT_FLAG_PEND (sp->events, 
                         ALT_UART_WRITE_RDY,
                         OS_FLAG_WAIT_SET_ANY + OS_FLAG_CONSUME,
                         0);
        }
        while ((next == sp->tx_start));
 180ef0c:	e0bffc17 	ldw	r2,-16(fp)
 180ef10:	10c00417 	ldw	r3,16(r2)
 180ef14:	e0bff917 	ldw	r2,-28(fp)
 180ef18:	18bffc26 	beq	r3,r2,180ef0c <altera_avalon_uart_write+0xe0>
      }
    }

    count--;
 180ef1c:	e0bff817 	ldw	r2,-32(fp)
 180ef20:	10bfffc4 	addi	r2,r2,-1
 180ef24:	e0bff815 	stw	r2,-32(fp)

    /* Add the next character to the transmit buffer */

    sp->tx_buf[sp->tx_end] = *ptr++;
 180ef28:	e0bffc17 	ldw	r2,-16(fp)
 180ef2c:	10c00517 	ldw	r3,20(r2)
 180ef30:	e0bffd17 	ldw	r2,-12(fp)
 180ef34:	10800003 	ldbu	r2,0(r2)
 180ef38:	1009883a 	mov	r4,r2
 180ef3c:	e0bffc17 	ldw	r2,-16(fp)
 180ef40:	1885883a 	add	r2,r3,r2
 180ef44:	10801704 	addi	r2,r2,92
 180ef48:	11000005 	stb	r4,0(r2)
 180ef4c:	e0bffd17 	ldw	r2,-12(fp)
 180ef50:	10800044 	addi	r2,r2,1
 180ef54:	e0bffd15 	stw	r2,-12(fp)
    sp->tx_end = next;
 180ef58:	e0fffc17 	ldw	r3,-16(fp)
 180ef5c:	e0bff917 	ldw	r2,-28(fp)
 180ef60:	18800515 	stw	r2,20(r3)
   * Loop transferring data from the input buffer to the transmit circular
   * buffer. The loop is terminated once all the data has been transferred,
   * or, (if in non-blocking mode) the buffer becomes full.
   */

  while (count)
 180ef64:	e0bff817 	ldw	r2,-32(fp)
 180ef68:	1004c03a 	cmpne	r2,r2,zero
 180ef6c:	103fbd1e 	bne	r2,zero,180ee64 <altera_avalon_uart_write+0x38>
static ALT_INLINE alt_irq_context ALT_ALWAYS_INLINE 
       alt_irq_disable_all (void)
{
  alt_irq_context context;

  NIOS2_READ_STATUS (context);
 180ef70:	0005303a 	rdctl	r2,status
 180ef74:	e0bff515 	stw	r2,-44(fp)

  NIOS2_WRITE_STATUS (context & ~NIOS2_STATUS_PIE_MSK);
 180ef78:	e0fff517 	ldw	r3,-44(fp)
 180ef7c:	00bfff84 	movi	r2,-2
 180ef80:	1884703a 	and	r2,r3,r2
 180ef84:	1001703a 	wrctl	status,r2
  
  return context;
 180ef88:	e0bff517 	ldw	r2,-44(fp)
  /* 
   * Ensure that interrupts are enabled, so that the circular buffer can 
   * drain.
   */

  context = alt_irq_disable_all ();
 180ef8c:	e0bffb15 	stw	r2,-20(fp)
  sp->ctrl |= ALTERA_AVALON_UART_CONTROL_TRDY_MSK |
 180ef90:	e0bffc17 	ldw	r2,-16(fp)
 180ef94:	10800117 	ldw	r2,4(r2)
 180ef98:	10c11014 	ori	r3,r2,1088
 180ef9c:	e0bffc17 	ldw	r2,-16(fp)
 180efa0:	10c00115 	stw	r3,4(r2)
                 ALTERA_AVALON_UART_CONTROL_DCTS_MSK;
  IOWR_ALTERA_AVALON_UART_CONTROL(sp->base, sp->ctrl);
 180efa4:	e0bffc17 	ldw	r2,-16(fp)
 180efa8:	10800017 	ldw	r2,0(r2)
 180efac:	11000304 	addi	r4,r2,12
 180efb0:	e0bffc17 	ldw	r2,-16(fp)
 180efb4:	10800117 	ldw	r2,4(r2)
 180efb8:	1007883a 	mov	r3,r2
 180efbc:	2005883a 	mov	r2,r4
 180efc0:	10c00035 	stwio	r3,0(r2)
 180efc4:	e0bffb17 	ldw	r2,-20(fp)
 180efc8:	e0bff415 	stw	r2,-48(fp)
  status &= ~NIOS2_STATUS_PIE_MSK;
  status |= (context & NIOS2_STATUS_PIE_MSK);
  
  NIOS2_WRITE_STATUS (status);
#else
  NIOS2_WRITE_STATUS (context);
 180efcc:	e0bff417 	ldw	r2,-48(fp)
 180efd0:	1001703a 	wrctl	status,r2
  alt_irq_enable_all (context);

  /* return the number of bytes written */

  return (len - count);
 180efd4:	e0fffe17 	ldw	r3,-8(fp)
 180efd8:	e0bff817 	ldw	r2,-32(fp)
 180efdc:	1885c83a 	sub	r2,r3,r2
}
 180efe0:	e037883a 	mov	sp,fp
 180efe4:	dfc00117 	ldw	ra,4(sp)
 180efe8:	df000017 	ldw	fp,0(sp)
 180efec:	dec00204 	addi	sp,sp,8
 180eff0:	f800283a 	ret

0180eff4 <alt_get_errno>:
#undef errno

extern int errno;

static ALT_INLINE int* alt_get_errno(void)
{
 180eff4:	defffd04 	addi	sp,sp,-12
 180eff8:	dfc00215 	stw	ra,8(sp)
 180effc:	df000115 	stw	fp,4(sp)
 180f000:	df000104 	addi	fp,sp,4
  return ((alt_errno) ? alt_errno() : &errno);
 180f004:	00806074 	movhi	r2,385
 180f008:	108c8204 	addi	r2,r2,12808
 180f00c:	10800017 	ldw	r2,0(r2)
 180f010:	1005003a 	cmpeq	r2,r2,zero
 180f014:	1000061e 	bne	r2,zero,180f030 <alt_get_errno+0x3c>
 180f018:	00806074 	movhi	r2,385
 180f01c:	108c8204 	addi	r2,r2,12808
 180f020:	10800017 	ldw	r2,0(r2)
 180f024:	103ee83a 	callr	r2
 180f028:	e0bfff15 	stw	r2,-4(fp)
 180f02c:	00000306 	br	180f03c <alt_get_errno+0x48>
 180f030:	00806074 	movhi	r2,385
 180f034:	108c9104 	addi	r2,r2,12868
 180f038:	e0bfff15 	stw	r2,-4(fp)
 180f03c:	e0bfff17 	ldw	r2,-4(fp)
}
 180f040:	e037883a 	mov	sp,fp
 180f044:	dfc00117 	ldw	ra,4(sp)
 180f048:	df000017 	ldw	fp,0(sp)
 180f04c:	dec00204 	addi	sp,sp,8
 180f050:	f800283a 	ret

0180f054 <alt_alarm_start>:
 */ 

int alt_alarm_start (alt_alarm* alarm, alt_u32 nticks,
                     alt_u32 (*callback) (void* context),
                     void* context)
{
 180f054:	defff404 	addi	sp,sp,-48
 180f058:	df000b15 	stw	fp,44(sp)
 180f05c:	df000b04 	addi	fp,sp,44
 180f060:	e13ffb15 	stw	r4,-20(fp)
 180f064:	e17ffc15 	stw	r5,-16(fp)
 180f068:	e1bffd15 	stw	r6,-12(fp)
 180f06c:	e1fffe15 	stw	r7,-8(fp)
  alt_irq_context irq_context;
  alt_u32 current_nticks = 0;
 180f070:	e03ff915 	stw	zero,-28(fp)
 * Obtain the system clock rate in ticks/s. 
 */

static ALT_INLINE alt_u32 ALT_ALWAYS_INLINE alt_ticks_per_second (void)
{
  return _alt_tick_rate;
 180f074:	00806074 	movhi	r2,385
 180f078:	108c9604 	addi	r2,r2,12888
 180f07c:	10800017 	ldw	r2,0(r2)
  
  if (alt_ticks_per_second ())
 180f080:	1005003a 	cmpeq	r2,r2,zero
 180f084:	1000411e 	bne	r2,zero,180f18c <alt_alarm_start+0x138>
  {
    if (alarm)
 180f088:	e0bffb17 	ldw	r2,-20(fp)
 180f08c:	1005003a 	cmpeq	r2,r2,zero
 180f090:	10003b1e 	bne	r2,zero,180f180 <alt_alarm_start+0x12c>
    {
      alarm->callback = callback;
 180f094:	e0fffb17 	ldw	r3,-20(fp)
 180f098:	e0bffd17 	ldw	r2,-12(fp)
 180f09c:	18800315 	stw	r2,12(r3)
      alarm->context  = context;
 180f0a0:	e0fffb17 	ldw	r3,-20(fp)
 180f0a4:	e0bffe17 	ldw	r2,-8(fp)
 180f0a8:	18800515 	stw	r2,20(r3)
static ALT_INLINE alt_irq_context ALT_ALWAYS_INLINE 
       alt_irq_disable_all (void)
{
  alt_irq_context context;

  NIOS2_READ_STATUS (context);
 180f0ac:	0005303a 	rdctl	r2,status
 180f0b0:	e0bff815 	stw	r2,-32(fp)

  NIOS2_WRITE_STATUS (context & ~NIOS2_STATUS_PIE_MSK);
 180f0b4:	e0fff817 	ldw	r3,-32(fp)
 180f0b8:	00bfff84 	movi	r2,-2
 180f0bc:	1884703a 	and	r2,r3,r2
 180f0c0:	1001703a 	wrctl	status,r2
  
  return context;
 180f0c4:	e0bff817 	ldw	r2,-32(fp)
 
      irq_context = alt_irq_disable_all ();
 180f0c8:	e0bffa15 	stw	r2,-24(fp)
 * alt_nticks() returns the elapsed number of system clock ticks since reset.
 */

static ALT_INLINE alt_u32 ALT_ALWAYS_INLINE alt_nticks (void)
{
  return _alt_nticks;
 180f0cc:	00806074 	movhi	r2,385
 180f0d0:	108c9704 	addi	r2,r2,12892
 180f0d4:	10800017 	ldw	r2,0(r2)
      
      current_nticks = alt_nticks();
 180f0d8:	e0bff915 	stw	r2,-28(fp)
      
      alarm->time = nticks + current_nticks + 1; 
 180f0dc:	e0fffc17 	ldw	r3,-16(fp)
 180f0e0:	e0bff917 	ldw	r2,-28(fp)
 180f0e4:	1885883a 	add	r2,r3,r2
 180f0e8:	10c00044 	addi	r3,r2,1
 180f0ec:	e0bffb17 	ldw	r2,-20(fp)
 180f0f0:	10c00215 	stw	r3,8(r2)
      /* 
       * If the desired alarm time causes a roll-over, set the rollover
       * flag. This will prevent the subsequent tick event from causing
       * an alarm too early.
       */
      if(alarm->time < current_nticks)
 180f0f4:	e0bffb17 	ldw	r2,-20(fp)
 180f0f8:	10c00217 	ldw	r3,8(r2)
 180f0fc:	e0bff917 	ldw	r2,-28(fp)
 180f100:	1880042e 	bgeu	r3,r2,180f114 <alt_alarm_start+0xc0>
      {
        alarm->rollover = 1;
 180f104:	e0fffb17 	ldw	r3,-20(fp)
 180f108:	00800044 	movi	r2,1
 180f10c:	18800405 	stb	r2,16(r3)
 180f110:	00000206 	br	180f11c <alt_alarm_start+0xc8>
      }
      else
      {
        alarm->rollover = 0;
 180f114:	e0bffb17 	ldw	r2,-20(fp)
 180f118:	10000405 	stb	zero,16(r2)
      }
    
      alt_llist_insert (&alt_alarm_list, &alarm->llist);
 180f11c:	e0fffb17 	ldw	r3,-20(fp)
 180f120:	00806074 	movhi	r2,385
 180f124:	108c8804 	addi	r2,r2,12832
 180f128:	e0bff615 	stw	r2,-40(fp)
 180f12c:	e0fff715 	stw	r3,-36(fp)
 */

static ALT_INLINE void ALT_ALWAYS_INLINE alt_llist_insert(alt_llist* list, 
                alt_llist* entry)
{
  entry->previous = list;
 180f130:	e0fff717 	ldw	r3,-36(fp)
 180f134:	e0bff617 	ldw	r2,-40(fp)
 180f138:	18800115 	stw	r2,4(r3)
  entry->next     = list->next;
 180f13c:	e0bff617 	ldw	r2,-40(fp)
 180f140:	10c00017 	ldw	r3,0(r2)
 180f144:	e0bff717 	ldw	r2,-36(fp)
 180f148:	10c00015 	stw	r3,0(r2)

  list->next->previous = entry;
 180f14c:	e0bff617 	ldw	r2,-40(fp)
 180f150:	10c00017 	ldw	r3,0(r2)
 180f154:	e0bff717 	ldw	r2,-36(fp)
 180f158:	18800115 	stw	r2,4(r3)
  list->next           = entry;
 180f15c:	e0fff617 	ldw	r3,-40(fp)
 180f160:	e0bff717 	ldw	r2,-36(fp)
 180f164:	18800015 	stw	r2,0(r3)
 180f168:	e0bffa17 	ldw	r2,-24(fp)
 180f16c:	e0bff515 	stw	r2,-44(fp)
  status &= ~NIOS2_STATUS_PIE_MSK;
  status |= (context & NIOS2_STATUS_PIE_MSK);
  
  NIOS2_WRITE_STATUS (status);
#else
  NIOS2_WRITE_STATUS (context);
 180f170:	e0bff517 	ldw	r2,-44(fp)
 180f174:	1001703a 	wrctl	status,r2
      alt_irq_enable_all (irq_context);

      return 0;
 180f178:	e03fff15 	stw	zero,-4(fp)
 180f17c:	00000506 	br	180f194 <alt_alarm_start+0x140>
    }
    else
    {
      return -EINVAL;
 180f180:	00bffa84 	movi	r2,-22
 180f184:	e0bfff15 	stw	r2,-4(fp)
 180f188:	00000206 	br	180f194 <alt_alarm_start+0x140>
    }
  }
  else
  {
    return -ENOTSUP;
 180f18c:	00bfde84 	movi	r2,-134
 180f190:	e0bfff15 	stw	r2,-4(fp)
 180f194:	e0bfff17 	ldw	r2,-4(fp)
  }
}
 180f198:	e037883a 	mov	sp,fp
 180f19c:	df000017 	ldw	fp,0(sp)
 180f1a0:	dec00104 	addi	sp,sp,4
 180f1a4:	f800283a 	ret

0180f1a8 <alt_busy_sleep>:
#include "alt_types.h"

#include "priv/alt_busy_sleep.h"

unsigned int alt_busy_sleep (unsigned int us)
{
 180f1a8:	defffb04 	addi	sp,sp,-20
 180f1ac:	df000415 	stw	fp,16(sp)
 180f1b0:	df000404 	addi	fp,sp,16
 180f1b4:	e13fff15 	stw	r4,-4(fp)
  {
    cycles_per_loop = 9;
  }
  else  
  {
    cycles_per_loop = 3;
 180f1b8:	008000c4 	movi	r2,3
 180f1bc:	e0bffc15 	stw	r2,-16(fp)
  }
  

  big_loops = us / (INT_MAX/
 180f1c0:	e0fffc17 	ldw	r3,-16(fp)
 180f1c4:	008003f4 	movhi	r2,15
 180f1c8:	10909004 	addi	r2,r2,16960
 180f1cc:	1887383a 	mul	r3,r3,r2
 180f1d0:	0080bef4 	movhi	r2,763
 180f1d4:	10bc2004 	addi	r2,r2,-3968
 180f1d8:	10c7203a 	divu	r3,r2,r3
 180f1dc:	00a00034 	movhi	r2,32768
 180f1e0:	10bfffc4 	addi	r2,r2,-1
 180f1e4:	10c7203a 	divu	r3,r2,r3
 180f1e8:	e0bfff17 	ldw	r2,-4(fp)
 180f1ec:	10c5203a 	divu	r2,r2,r3
 180f1f0:	e0bffd15 	stw	r2,-12(fp)
  (ALT_CPU_FREQ/(cycles_per_loop * 1000000)));

  if (big_loops)
 180f1f4:	e0bffd17 	ldw	r2,-12(fp)
 180f1f8:	1005003a 	cmpeq	r2,r2,zero
 180f1fc:	1000251e 	bne	r2,zero,180f294 <alt_busy_sleep+0xec>
  {
    for(i=0;i<big_loops;i++)
 180f200:	e03ffe15 	stw	zero,-8(fp)
 180f204:	00001406 	br	180f258 <alt_busy_sleep+0xb0>
      /*
      * Do NOT Try to single step the asm statement below 
      * (single step will never return)
      * Step out of this function or set a breakpoint after the asm statements
      */
      __asm__ volatile (
 180f208:	00a00034 	movhi	r2,32768
 180f20c:	10bfffc4 	addi	r2,r2,-1
 180f210:	10bfffc4 	addi	r2,r2,-1
 180f214:	103ffe1e 	bne	r2,zero,180f210 <alt_busy_sleep+0x68>
        "\n1:"
        "\n\t.pushsection .debug_alt_sim_info"
        "\n\t.int 4, 0, 0b, 1b"
        "\n\t.popsection"
        :: "r" (INT_MAX));
      us -= (INT_MAX/(ALT_CPU_FREQ/
 180f218:	e0fffc17 	ldw	r3,-16(fp)
 180f21c:	008003f4 	movhi	r2,15
 180f220:	10909004 	addi	r2,r2,16960
 180f224:	1887383a 	mul	r3,r3,r2
 180f228:	0080bef4 	movhi	r2,763
 180f22c:	10bc2004 	addi	r2,r2,-3968
 180f230:	10c7203a 	divu	r3,r2,r3
 180f234:	00a00034 	movhi	r2,32768
 180f238:	10bfffc4 	addi	r2,r2,-1
 180f23c:	10c7203a 	divu	r3,r2,r3
 180f240:	e0bfff17 	ldw	r2,-4(fp)
 180f244:	10c5c83a 	sub	r2,r2,r3
 180f248:	e0bfff15 	stw	r2,-4(fp)
  big_loops = us / (INT_MAX/
  (ALT_CPU_FREQ/(cycles_per_loop * 1000000)));

  if (big_loops)
  {
    for(i=0;i<big_loops;i++)
 180f24c:	e0bffe17 	ldw	r2,-8(fp)
 180f250:	10800044 	addi	r2,r2,1
 180f254:	e0bffe15 	stw	r2,-8(fp)
 180f258:	e0fffe17 	ldw	r3,-8(fp)
 180f25c:	e0bffd17 	ldw	r2,-12(fp)
 180f260:	18bfe916 	blt	r3,r2,180f208 <alt_busy_sleep+0x60>
    /*
    * Do NOT Try to single step the asm statement below 
    * (single step will never return)
    * Step out of this function or set a breakpoint after the asm statements
    */
    __asm__ volatile (
 180f264:	e0fffc17 	ldw	r3,-16(fp)
 180f268:	008003f4 	movhi	r2,15
 180f26c:	10909004 	addi	r2,r2,16960
 180f270:	1887383a 	mul	r3,r3,r2
 180f274:	0080bef4 	movhi	r2,763
 180f278:	10bc2004 	addi	r2,r2,-3968
 180f27c:	10c7203a 	divu	r3,r2,r3
 180f280:	e0bfff17 	ldw	r2,-4(fp)
 180f284:	1885383a 	mul	r2,r3,r2
 180f288:	10bfffc4 	addi	r2,r2,-1
 180f28c:	103ffe1e 	bne	r2,zero,180f288 <alt_busy_sleep+0xe0>
 180f290:	00000b06 	br	180f2c0 <alt_busy_sleep+0x118>
    /*
    * Do NOT Try to single step the asm statement below 
    * (single step will never return)
    * Step out of this function or set a breakpoint after the asm statements
    */
    __asm__ volatile (
 180f294:	e0fffc17 	ldw	r3,-16(fp)
 180f298:	008003f4 	movhi	r2,15
 180f29c:	10909004 	addi	r2,r2,16960
 180f2a0:	1887383a 	mul	r3,r3,r2
 180f2a4:	0080bef4 	movhi	r2,763
 180f2a8:	10bc2004 	addi	r2,r2,-3968
 180f2ac:	10c7203a 	divu	r3,r2,r3
 180f2b0:	e0bfff17 	ldw	r2,-4(fp)
 180f2b4:	1885383a 	mul	r2,r3,r2
 180f2b8:	10bfffc4 	addi	r2,r2,-1
 180f2bc:	00bffe16 	blt	zero,r2,180f2b8 <alt_busy_sleep+0x110>
      "\n\t.int 4, 0, 0b, 1b"
      "\n\t.popsection"
      :: "r" (us*(ALT_CPU_FREQ/(cycles_per_loop * 1000000))));
  }
#endif /* #ifndef ALT_SIM_OPTIMIZE */
  return 0;
 180f2c0:	0005883a 	mov	r2,zero
}
 180f2c4:	e037883a 	mov	sp,fp
 180f2c8:	df000017 	ldw	fp,0(sp)
 180f2cc:	dec00104 	addi	sp,sp,4
 180f2d0:	f800283a 	ret

0180f2d4 <alt_dcache_flush>:
 *
 * Any dirty lines in the data cache are written back to memory.
 */

void alt_dcache_flush (void* start, alt_u32 len)
{
 180f2d4:	defffb04 	addi	sp,sp,-20
 180f2d8:	df000415 	stw	fp,16(sp)
 180f2dc:	df000404 	addi	fp,sp,16
 180f2e0:	e13ffe15 	stw	r4,-8(fp)
 180f2e4:	e17fff15 	stw	r5,-4(fp)
  {
    len = NIOS2_DCACHE_SIZE;
  }
  #endif

  end = ((char*) start) + len; 
 180f2e8:	e0fffe17 	ldw	r3,-8(fp)
 180f2ec:	e0bfff17 	ldw	r2,-4(fp)
 180f2f0:	1885883a 	add	r2,r3,r2
 180f2f4:	e0bffc15 	stw	r2,-16(fp)

  for (i = start; i < end; i+= NIOS2_DCACHE_LINE_SIZE)
 180f2f8:	e0bffe17 	ldw	r2,-8(fp)
 180f2fc:	e0bffd15 	stw	r2,-12(fp)
 180f300:	00000506 	br	180f318 <alt_dcache_flush+0x44>
  { 
    ALT_FLUSH_DATA(i); 
 180f304:	e0bffd17 	ldw	r2,-12(fp)
 180f308:	1000001b 	flushda	0(r2)
  }
  #endif

  end = ((char*) start) + len; 

  for (i = start; i < end; i+= NIOS2_DCACHE_LINE_SIZE)
 180f30c:	e0bffd17 	ldw	r2,-12(fp)
 180f310:	10800804 	addi	r2,r2,32
 180f314:	e0bffd15 	stw	r2,-12(fp)
 180f318:	e0fffd17 	ldw	r3,-12(fp)
 180f31c:	e0bffc17 	ldw	r2,-16(fp)
 180f320:	18bff836 	bltu	r3,r2,180f304 <alt_dcache_flush+0x30>
   * For an unaligned flush request, we've got one more line left.
   * Note that this is dependent on NIOS2_DCACHE_LINE_SIZE to be a 
   * multiple of 2 (which it always is).
   */

  if (((alt_u32) start) & (NIOS2_DCACHE_LINE_SIZE - 1))
 180f324:	e0bffe17 	ldw	r2,-8(fp)
 180f328:	108007cc 	andi	r2,r2,31
 180f32c:	1005003a 	cmpeq	r2,r2,zero
 180f330:	1000021e 	bne	r2,zero,180f33c <alt_dcache_flush+0x68>
  {
    ALT_FLUSH_DATA(i);
 180f334:	e0bffd17 	ldw	r2,-12(fp)
 180f338:	1000001b 	flushda	0(r2)
  }

#endif /* NIOS2_DCACHE_SIZE > 0 */
}
 180f33c:	e037883a 	mov	sp,fp
 180f340:	df000017 	ldw	fp,0(sp)
 180f344:	dec00104 	addi	sp,sp,4
 180f348:	f800283a 	ret

0180f34c <alt_dev_llist_insert>:
/*
 *
 */

int alt_dev_llist_insert (alt_dev_llist* dev, alt_llist* list)
{
 180f34c:	defff904 	addi	sp,sp,-28
 180f350:	dfc00615 	stw	ra,24(sp)
 180f354:	df000515 	stw	fp,20(sp)
 180f358:	df000504 	addi	fp,sp,20
 180f35c:	e13ffd15 	stw	r4,-12(fp)
 180f360:	e17ffe15 	stw	r5,-8(fp)
  /*
   * check that the device exists, and that it has a valid name.
   */

  if (!dev || !dev->name)
 180f364:	e0bffd17 	ldw	r2,-12(fp)
 180f368:	1005003a 	cmpeq	r2,r2,zero
 180f36c:	1000041e 	bne	r2,zero,180f380 <alt_dev_llist_insert+0x34>
 180f370:	e0bffd17 	ldw	r2,-12(fp)
 180f374:	10800217 	ldw	r2,8(r2)
 180f378:	1004c03a 	cmpne	r2,r2,zero
 180f37c:	1000071e 	bne	r2,zero,180f39c <alt_dev_llist_insert+0x50>
  {
    ALT_ERRNO = EINVAL;
 180f380:	180f4000 	call	180f400 <alt_get_errno>
 180f384:	1007883a 	mov	r3,r2
 180f388:	00800584 	movi	r2,22
 180f38c:	18800015 	stw	r2,0(r3)
    return -EINVAL;
 180f390:	00bffa84 	movi	r2,-22
 180f394:	e0bfff15 	stw	r2,-4(fp)
 180f398:	00001306 	br	180f3e8 <alt_dev_llist_insert+0x9c>
  
  /*
   * register the device.
   */
  
  alt_llist_insert(list, &dev->llist);
 180f39c:	e0fffd17 	ldw	r3,-12(fp)
 180f3a0:	e0bffe17 	ldw	r2,-8(fp)
 180f3a4:	e0bffb15 	stw	r2,-20(fp)
 180f3a8:	e0fffc15 	stw	r3,-16(fp)
 */

static ALT_INLINE void ALT_ALWAYS_INLINE alt_llist_insert(alt_llist* list, 
                alt_llist* entry)
{
  entry->previous = list;
 180f3ac:	e0fffc17 	ldw	r3,-16(fp)
 180f3b0:	e0bffb17 	ldw	r2,-20(fp)
 180f3b4:	18800115 	stw	r2,4(r3)
  entry->next     = list->next;
 180f3b8:	e0bffb17 	ldw	r2,-20(fp)
 180f3bc:	10c00017 	ldw	r3,0(r2)
 180f3c0:	e0bffc17 	ldw	r2,-16(fp)
 180f3c4:	10c00015 	stw	r3,0(r2)

  list->next->previous = entry;
 180f3c8:	e0bffb17 	ldw	r2,-20(fp)
 180f3cc:	10c00017 	ldw	r3,0(r2)
 180f3d0:	e0bffc17 	ldw	r2,-16(fp)
 180f3d4:	18800115 	stw	r2,4(r3)
  list->next           = entry;
 180f3d8:	e0fffb17 	ldw	r3,-20(fp)
 180f3dc:	e0bffc17 	ldw	r2,-16(fp)
 180f3e0:	18800015 	stw	r2,0(r3)

  return 0;  
 180f3e4:	e03fff15 	stw	zero,-4(fp)
 180f3e8:	e0bfff17 	ldw	r2,-4(fp)
}
 180f3ec:	e037883a 	mov	sp,fp
 180f3f0:	dfc00117 	ldw	ra,4(sp)
 180f3f4:	df000017 	ldw	fp,0(sp)
 180f3f8:	dec00204 	addi	sp,sp,8
 180f3fc:	f800283a 	ret

0180f400 <alt_get_errno>:
#undef errno

extern int errno;

static ALT_INLINE int* alt_get_errno(void)
{
 180f400:	defffd04 	addi	sp,sp,-12
 180f404:	dfc00215 	stw	ra,8(sp)
 180f408:	df000115 	stw	fp,4(sp)
 180f40c:	df000104 	addi	fp,sp,4
  return ((alt_errno) ? alt_errno() : &errno);
 180f410:	00806074 	movhi	r2,385
 180f414:	108c8204 	addi	r2,r2,12808
 180f418:	10800017 	ldw	r2,0(r2)
 180f41c:	1005003a 	cmpeq	r2,r2,zero
 180f420:	1000061e 	bne	r2,zero,180f43c <alt_get_errno+0x3c>
 180f424:	00806074 	movhi	r2,385
 180f428:	108c8204 	addi	r2,r2,12808
 180f42c:	10800017 	ldw	r2,0(r2)
 180f430:	103ee83a 	callr	r2
 180f434:	e0bfff15 	stw	r2,-4(fp)
 180f438:	00000306 	br	180f448 <alt_get_errno+0x48>
 180f43c:	00806074 	movhi	r2,385
 180f440:	108c9104 	addi	r2,r2,12868
 180f444:	e0bfff15 	stw	r2,-4(fp)
 180f448:	e0bfff17 	ldw	r2,-4(fp)
}
 180f44c:	e037883a 	mov	sp,fp
 180f450:	dfc00117 	ldw	ra,4(sp)
 180f454:	df000017 	ldw	fp,0(sp)
 180f458:	dec00204 	addi	sp,sp,8
 180f45c:	f800283a 	ret

0180f460 <_do_ctors>:
/*
 * Run the C++ static constructors.
 */

void _do_ctors(void)
{
 180f460:	defffd04 	addi	sp,sp,-12
 180f464:	dfc00215 	stw	ra,8(sp)
 180f468:	df000115 	stw	fp,4(sp)
 180f46c:	df000104 	addi	fp,sp,4
  constructor* ctor;

  for (ctor = &__CTOR_END__[-1]; ctor >= __CTOR_LIST__; ctor--)
 180f470:	00bfff04 	movi	r2,-4
 180f474:	00c06074 	movhi	r3,385
 180f478:	18c3c204 	addi	r3,r3,3848
 180f47c:	1885883a 	add	r2,r3,r2
 180f480:	e0bfff15 	stw	r2,-4(fp)
 180f484:	00000606 	br	180f4a0 <_do_ctors+0x40>
        (*ctor) (); 
 180f488:	e0bfff17 	ldw	r2,-4(fp)
 180f48c:	10800017 	ldw	r2,0(r2)
 180f490:	103ee83a 	callr	r2

void _do_ctors(void)
{
  constructor* ctor;

  for (ctor = &__CTOR_END__[-1]; ctor >= __CTOR_LIST__; ctor--)
 180f494:	e0bfff17 	ldw	r2,-4(fp)
 180f498:	10bfff04 	addi	r2,r2,-4
 180f49c:	e0bfff15 	stw	r2,-4(fp)
 180f4a0:	e0ffff17 	ldw	r3,-4(fp)
 180f4a4:	00806074 	movhi	r2,385
 180f4a8:	1083c104 	addi	r2,r2,3844
 180f4ac:	18bff62e 	bgeu	r3,r2,180f488 <_do_ctors+0x28>
        (*ctor) (); 
}
 180f4b0:	e037883a 	mov	sp,fp
 180f4b4:	dfc00117 	ldw	ra,4(sp)
 180f4b8:	df000017 	ldw	fp,0(sp)
 180f4bc:	dec00204 	addi	sp,sp,8
 180f4c0:	f800283a 	ret

0180f4c4 <_do_dtors>:
/*
 * Run the C++ static destructors.
 */

void _do_dtors(void)
{
 180f4c4:	defffd04 	addi	sp,sp,-12
 180f4c8:	dfc00215 	stw	ra,8(sp)
 180f4cc:	df000115 	stw	fp,4(sp)
 180f4d0:	df000104 	addi	fp,sp,4
  destructor* dtor;

  for (dtor = &__DTOR_END__[-1]; dtor >= __DTOR_LIST__; dtor--)
 180f4d4:	00bfff04 	movi	r2,-4
 180f4d8:	00c06074 	movhi	r3,385
 180f4dc:	18c3c204 	addi	r3,r3,3848
 180f4e0:	1885883a 	add	r2,r3,r2
 180f4e4:	e0bfff15 	stw	r2,-4(fp)
 180f4e8:	00000606 	br	180f504 <_do_dtors+0x40>
        (*dtor) (); 
 180f4ec:	e0bfff17 	ldw	r2,-4(fp)
 180f4f0:	10800017 	ldw	r2,0(r2)
 180f4f4:	103ee83a 	callr	r2

void _do_dtors(void)
{
  destructor* dtor;

  for (dtor = &__DTOR_END__[-1]; dtor >= __DTOR_LIST__; dtor--)
 180f4f8:	e0bfff17 	ldw	r2,-4(fp)
 180f4fc:	10bfff04 	addi	r2,r2,-4
 180f500:	e0bfff15 	stw	r2,-4(fp)
 180f504:	e0ffff17 	ldw	r3,-4(fp)
 180f508:	00806074 	movhi	r2,385
 180f50c:	1083c204 	addi	r2,r2,3848
 180f510:	18bff62e 	bgeu	r3,r2,180f4ec <_do_dtors+0x28>
        (*dtor) (); 
}
 180f514:	e037883a 	mov	sp,fp
 180f518:	dfc00117 	ldw	ra,4(sp)
 180f51c:	df000017 	ldw	fp,0(sp)
 180f520:	dec00204 	addi	sp,sp,8
 180f524:	f800283a 	ret

0180f528 <alt_flash_open_dev>:
#include "priv/alt_file.h"

ALT_LLIST_HEAD(alt_flash_dev_list);

alt_flash_fd* alt_flash_open_dev(const char* name)
{
 180f528:	defffb04 	addi	sp,sp,-20
 180f52c:	dfc00415 	stw	ra,16(sp)
 180f530:	df000315 	stw	fp,12(sp)
 180f534:	df000304 	addi	fp,sp,12
 180f538:	e13ffe15 	stw	r4,-8(fp)
  alt_flash_dev* dev = (alt_flash_dev*)alt_find_dev(name, &alt_flash_dev_list);
 180f53c:	e13ffe17 	ldw	r4,-8(fp)
 180f540:	d1600e04 	addi	r5,gp,-32712
 180f544:	18107480 	call	1810748 <alt_find_dev>
 180f548:	e0bffd15 	stw	r2,-12(fp)

  if ((dev) && dev->open)
 180f54c:	e0bffd17 	ldw	r2,-12(fp)
 180f550:	1005003a 	cmpeq	r2,r2,zero
 180f554:	10000b1e 	bne	r2,zero,180f584 <alt_flash_open_dev+0x5c>
 180f558:	e0bffd17 	ldw	r2,-12(fp)
 180f55c:	10800317 	ldw	r2,12(r2)
 180f560:	1005003a 	cmpeq	r2,r2,zero
 180f564:	1000071e 	bne	r2,zero,180f584 <alt_flash_open_dev+0x5c>
  {
    return dev->open(dev, name);
 180f568:	e0bffd17 	ldw	r2,-12(fp)
 180f56c:	10800317 	ldw	r2,12(r2)
 180f570:	e13ffd17 	ldw	r4,-12(fp)
 180f574:	e17ffe17 	ldw	r5,-8(fp)
 180f578:	103ee83a 	callr	r2
 180f57c:	e0bfff15 	stw	r2,-4(fp)
 180f580:	00000206 	br	180f58c <alt_flash_open_dev+0x64>
  }

  return dev;
 180f584:	e0bffd17 	ldw	r2,-12(fp)
 180f588:	e0bfff15 	stw	r2,-4(fp)
 180f58c:	e0bfff17 	ldw	r2,-4(fp)
}
 180f590:	e037883a 	mov	sp,fp
 180f594:	dfc00117 	ldw	ra,4(sp)
 180f598:	df000017 	ldw	fp,0(sp)
 180f59c:	dec00204 	addi	sp,sp,8
 180f5a0:	f800283a 	ret

0180f5a4 <alt_flash_close_dev>:

void alt_flash_close_dev(alt_flash_fd* fd)
{
 180f5a4:	defffd04 	addi	sp,sp,-12
 180f5a8:	dfc00215 	stw	ra,8(sp)
 180f5ac:	df000115 	stw	fp,4(sp)
 180f5b0:	df000104 	addi	fp,sp,4
 180f5b4:	e13fff15 	stw	r4,-4(fp)
  if (fd && fd->close)
 180f5b8:	e0bfff17 	ldw	r2,-4(fp)
 180f5bc:	1005003a 	cmpeq	r2,r2,zero
 180f5c0:	1000081e 	bne	r2,zero,180f5e4 <alt_flash_close_dev+0x40>
 180f5c4:	e0bfff17 	ldw	r2,-4(fp)
 180f5c8:	10800417 	ldw	r2,16(r2)
 180f5cc:	1005003a 	cmpeq	r2,r2,zero
 180f5d0:	1000041e 	bne	r2,zero,180f5e4 <alt_flash_close_dev+0x40>
  {
    fd->close(fd);
 180f5d4:	e0bfff17 	ldw	r2,-4(fp)
 180f5d8:	10800417 	ldw	r2,16(r2)
 180f5dc:	e13fff17 	ldw	r4,-4(fp)
 180f5e0:	103ee83a 	callr	r2
  }
  return;
}
 180f5e4:	e037883a 	mov	sp,fp
 180f5e8:	dfc00117 	ldw	ra,4(sp)
 180f5ec:	df000017 	ldw	fp,0(sp)
 180f5f0:	dec00204 	addi	sp,sp,8
 180f5f4:	f800283a 	ret

0180f5f8 <alt_ic_isr_register>:
  * @param irq              IRQ number
  * @return                 0 if successful, else error (-1)
  */
int alt_ic_isr_register(alt_u32 ic_id, alt_u32 irq, alt_isr_func isr, 
  void *isr_context, void *flags)
{
 180f5f8:	defff904 	addi	sp,sp,-28
 180f5fc:	dfc00615 	stw	ra,24(sp)
 180f600:	df000515 	stw	fp,20(sp)
 180f604:	df000504 	addi	fp,sp,20
 180f608:	e13ffc15 	stw	r4,-16(fp)
 180f60c:	e17ffd15 	stw	r5,-12(fp)
 180f610:	e1bffe15 	stw	r6,-8(fp)
 180f614:	e1ffff15 	stw	r7,-4(fp)
    return alt_iic_isr_register(ic_id, irq, isr, isr_context, flags);
 180f618:	e0800217 	ldw	r2,8(fp)
 180f61c:	d8800015 	stw	r2,0(sp)
 180f620:	e13ffc17 	ldw	r4,-16(fp)
 180f624:	e17ffd17 	ldw	r5,-12(fp)
 180f628:	e1bffe17 	ldw	r6,-8(fp)
 180f62c:	e1ffff17 	ldw	r7,-4(fp)
 180f630:	180f7cc0 	call	180f7cc <alt_iic_isr_register>
}  
 180f634:	e037883a 	mov	sp,fp
 180f638:	dfc00117 	ldw	ra,4(sp)
 180f63c:	df000017 	ldw	fp,0(sp)
 180f640:	dec00204 	addi	sp,sp,8
 180f644:	f800283a 	ret

0180f648 <alt_ic_irq_enable>:
  * @param ic_id            Ignored.
  * @param irq              IRQ number
  * @return                 0 if successful, else error (-1)
  */
int alt_ic_irq_enable (alt_u32 ic_id, alt_u32 irq)
{
 180f648:	defff904 	addi	sp,sp,-28
 180f64c:	df000615 	stw	fp,24(sp)
 180f650:	df000604 	addi	fp,sp,24
 180f654:	e13ffe15 	stw	r4,-8(fp)
 180f658:	e17fff15 	stw	r5,-4(fp)
 180f65c:	e0bfff17 	ldw	r2,-4(fp)
 180f660:	e0bffc15 	stw	r2,-16(fp)
static ALT_INLINE alt_irq_context ALT_ALWAYS_INLINE 
       alt_irq_disable_all (void)
{
  alt_irq_context context;

  NIOS2_READ_STATUS (context);
 180f664:	0005303a 	rdctl	r2,status
 180f668:	e0bffb15 	stw	r2,-20(fp)

  NIOS2_WRITE_STATUS (context & ~NIOS2_STATUS_PIE_MSK);
 180f66c:	e0fffb17 	ldw	r3,-20(fp)
 180f670:	00bfff84 	movi	r2,-2
 180f674:	1884703a 	and	r2,r3,r2
 180f678:	1001703a 	wrctl	status,r2
  
  return context;
 180f67c:	e0bffb17 	ldw	r2,-20(fp)
static ALT_INLINE int ALT_ALWAYS_INLINE alt_irq_enable (alt_u32 id)
{
  alt_irq_context  status;
  extern volatile alt_u32 alt_irq_active;

  status = alt_irq_disable_all ();
 180f680:	e0bffd15 	stw	r2,-12(fp)

  alt_irq_active |= (1 << id);
 180f684:	e0fffc17 	ldw	r3,-16(fp)
 180f688:	00800044 	movi	r2,1
 180f68c:	10c4983a 	sll	r2,r2,r3
 180f690:	1007883a 	mov	r3,r2
 180f694:	00806074 	movhi	r2,385
 180f698:	108c9504 	addi	r2,r2,12884
 180f69c:	10800017 	ldw	r2,0(r2)
 180f6a0:	1886b03a 	or	r3,r3,r2
 180f6a4:	00806074 	movhi	r2,385
 180f6a8:	108c9504 	addi	r2,r2,12884
 180f6ac:	10c00015 	stw	r3,0(r2)
  NIOS2_WRITE_IENABLE (alt_irq_active);
 180f6b0:	00806074 	movhi	r2,385
 180f6b4:	108c9504 	addi	r2,r2,12884
 180f6b8:	10800017 	ldw	r2,0(r2)
 180f6bc:	100170fa 	wrctl	ienable,r2
 180f6c0:	e0bffd17 	ldw	r2,-12(fp)
 180f6c4:	e0bffa15 	stw	r2,-24(fp)
  status &= ~NIOS2_STATUS_PIE_MSK;
  status |= (context & NIOS2_STATUS_PIE_MSK);
  
  NIOS2_WRITE_STATUS (status);
#else
  NIOS2_WRITE_STATUS (context);
 180f6c8:	e0bffa17 	ldw	r2,-24(fp)
 180f6cc:	1001703a 	wrctl	status,r2

  alt_irq_enable_all(status);

  return 0;
 180f6d0:	0005883a 	mov	r2,zero
    return alt_irq_enable(irq);
}
 180f6d4:	e037883a 	mov	sp,fp
 180f6d8:	df000017 	ldw	fp,0(sp)
 180f6dc:	dec00104 	addi	sp,sp,4
 180f6e0:	f800283a 	ret

0180f6e4 <alt_ic_irq_disable>:
  * @param ic_id            Ignored.
  * @param irq              IRQ number
  * @return                 0 if successful, else error (-1)
  */
int alt_ic_irq_disable(alt_u32 ic_id, alt_u32 irq)
{
 180f6e4:	defff904 	addi	sp,sp,-28
 180f6e8:	df000615 	stw	fp,24(sp)
 180f6ec:	df000604 	addi	fp,sp,24
 180f6f0:	e13ffe15 	stw	r4,-8(fp)
 180f6f4:	e17fff15 	stw	r5,-4(fp)
 180f6f8:	e0bfff17 	ldw	r2,-4(fp)
 180f6fc:	e0bffc15 	stw	r2,-16(fp)
static ALT_INLINE alt_irq_context ALT_ALWAYS_INLINE 
       alt_irq_disable_all (void)
{
  alt_irq_context context;

  NIOS2_READ_STATUS (context);
 180f700:	0005303a 	rdctl	r2,status
 180f704:	e0bffb15 	stw	r2,-20(fp)

  NIOS2_WRITE_STATUS (context & ~NIOS2_STATUS_PIE_MSK);
 180f708:	e0fffb17 	ldw	r3,-20(fp)
 180f70c:	00bfff84 	movi	r2,-2
 180f710:	1884703a 	and	r2,r3,r2
 180f714:	1001703a 	wrctl	status,r2
  
  return context;
 180f718:	e0bffb17 	ldw	r2,-20(fp)
static ALT_INLINE int ALT_ALWAYS_INLINE alt_irq_disable (alt_u32 id)
{
  alt_irq_context  status;
  extern volatile alt_u32 alt_irq_active;

  status = alt_irq_disable_all ();
 180f71c:	e0bffd15 	stw	r2,-12(fp)

  alt_irq_active &= ~(1 << id);
 180f720:	e0fffc17 	ldw	r3,-16(fp)
 180f724:	00800044 	movi	r2,1
 180f728:	10c4983a 	sll	r2,r2,r3
 180f72c:	0084303a 	nor	r2,zero,r2
 180f730:	1007883a 	mov	r3,r2
 180f734:	00806074 	movhi	r2,385
 180f738:	108c9504 	addi	r2,r2,12884
 180f73c:	10800017 	ldw	r2,0(r2)
 180f740:	1886703a 	and	r3,r3,r2
 180f744:	00806074 	movhi	r2,385
 180f748:	108c9504 	addi	r2,r2,12884
 180f74c:	10c00015 	stw	r3,0(r2)
  NIOS2_WRITE_IENABLE (alt_irq_active);
 180f750:	00806074 	movhi	r2,385
 180f754:	108c9504 	addi	r2,r2,12884
 180f758:	10800017 	ldw	r2,0(r2)
 180f75c:	100170fa 	wrctl	ienable,r2
 180f760:	e0bffd17 	ldw	r2,-12(fp)
 180f764:	e0bffa15 	stw	r2,-24(fp)
  status &= ~NIOS2_STATUS_PIE_MSK;
  status |= (context & NIOS2_STATUS_PIE_MSK);
  
  NIOS2_WRITE_STATUS (status);
#else
  NIOS2_WRITE_STATUS (context);
 180f768:	e0bffa17 	ldw	r2,-24(fp)
 180f76c:	1001703a 	wrctl	status,r2

  alt_irq_enable_all(status);

  return 0;
 180f770:	0005883a 	mov	r2,zero
    return alt_irq_disable(irq);
}
 180f774:	e037883a 	mov	sp,fp
 180f778:	df000017 	ldw	fp,0(sp)
 180f77c:	dec00104 	addi	sp,sp,4
 180f780:	f800283a 	ret

0180f784 <alt_ic_irq_enabled>:
  * @param irq              IRQ number
  * @return                 Zero if corresponding interrupt is disabled and
  *                         non-zero otherwise.
  */
alt_u32 alt_ic_irq_enabled(alt_u32 ic_id, alt_u32 irq)
{
 180f784:	defffc04 	addi	sp,sp,-16
 180f788:	df000315 	stw	fp,12(sp)
 180f78c:	df000304 	addi	fp,sp,12
 180f790:	e13ffe15 	stw	r4,-8(fp)
 180f794:	e17fff15 	stw	r5,-4(fp)
    alt_u32 irq_enabled;

    NIOS2_READ_IENABLE(irq_enabled);
 180f798:	000530fa 	rdctl	r2,ienable
 180f79c:	e0bffd15 	stw	r2,-12(fp)

    return (irq_enabled & (1 << irq)) ? 1: 0;
 180f7a0:	e0ffff17 	ldw	r3,-4(fp)
 180f7a4:	00800044 	movi	r2,1
 180f7a8:	10c4983a 	sll	r2,r2,r3
 180f7ac:	1007883a 	mov	r3,r2
 180f7b0:	e0bffd17 	ldw	r2,-12(fp)
 180f7b4:	1884703a 	and	r2,r3,r2
 180f7b8:	1004c03a 	cmpne	r2,r2,zero
}
 180f7bc:	e037883a 	mov	sp,fp
 180f7c0:	df000017 	ldw	fp,0(sp)
 180f7c4:	dec00104 	addi	sp,sp,4
 180f7c8:	f800283a 	ret

0180f7cc <alt_iic_isr_register>:
  * @param flags            
  * @return                 0 if successful, else error (-1)
  */
int alt_iic_isr_register(alt_u32 ic_id, alt_u32 irq, alt_isr_func isr, 
  void *isr_context, void *flags)
{
 180f7cc:	defff404 	addi	sp,sp,-48
 180f7d0:	dfc00b15 	stw	ra,44(sp)
 180f7d4:	df000a15 	stw	fp,40(sp)
 180f7d8:	df000a04 	addi	fp,sp,40
 180f7dc:	e13ffb15 	stw	r4,-20(fp)
 180f7e0:	e17ffc15 	stw	r5,-16(fp)
 180f7e4:	e1bffd15 	stw	r6,-12(fp)
 180f7e8:	e1fffe15 	stw	r7,-8(fp)
  int rc = -EINVAL;  
 180f7ec:	00bffa84 	movi	r2,-22
 180f7f0:	e0bffa15 	stw	r2,-24(fp)
  int id = irq;             /* IRQ interpreted as the interrupt ID. */
 180f7f4:	e0bffc17 	ldw	r2,-16(fp)
 180f7f8:	e0bff915 	stw	r2,-28(fp)
  alt_irq_context status;

  if (id < ALT_NIRQ)
 180f7fc:	e0bff917 	ldw	r2,-28(fp)
 180f800:	10800808 	cmpgei	r2,r2,32
 180f804:	1000291e 	bne	r2,zero,180f8ac <alt_iic_isr_register+0xe0>
static ALT_INLINE alt_irq_context ALT_ALWAYS_INLINE 
       alt_irq_disable_all (void)
{
  alt_irq_context context;

  NIOS2_READ_STATUS (context);
 180f808:	0005303a 	rdctl	r2,status
 180f80c:	e0bff715 	stw	r2,-36(fp)

  NIOS2_WRITE_STATUS (context & ~NIOS2_STATUS_PIE_MSK);
 180f810:	e0fff717 	ldw	r3,-36(fp)
 180f814:	00bfff84 	movi	r2,-2
 180f818:	1884703a 	and	r2,r3,r2
 180f81c:	1001703a 	wrctl	status,r2
  
  return context;
 180f820:	e0bff717 	ldw	r2,-36(fp)
     * interrupts are disabled while the handler tables are updated to ensure
     * that an interrupt doesn't occur while the tables are in an inconsistant
     * state.
     */

    status = alt_irq_disable_all();
 180f824:	e0bff815 	stw	r2,-32(fp)

    alt_irq[id].handler = isr;
 180f828:	e0bff917 	ldw	r2,-28(fp)
 180f82c:	00c06074 	movhi	r3,385
 180f830:	18cca304 	addi	r3,r3,12940
 180f834:	100490fa 	slli	r2,r2,3
 180f838:	10c7883a 	add	r3,r2,r3
 180f83c:	e0bffd17 	ldw	r2,-12(fp)
 180f840:	18800015 	stw	r2,0(r3)
    alt_irq[id].context = isr_context;
 180f844:	e0bff917 	ldw	r2,-28(fp)
 180f848:	00c06074 	movhi	r3,385
 180f84c:	18cca304 	addi	r3,r3,12940
 180f850:	100490fa 	slli	r2,r2,3
 180f854:	10c5883a 	add	r2,r2,r3
 180f858:	10c00104 	addi	r3,r2,4
 180f85c:	e0bffe17 	ldw	r2,-8(fp)
 180f860:	18800015 	stw	r2,0(r3)

    rc = (isr) ? alt_ic_irq_enable(ic_id, id) : alt_ic_irq_disable(ic_id, id);
 180f864:	e0bffd17 	ldw	r2,-12(fp)
 180f868:	1005003a 	cmpeq	r2,r2,zero
 180f86c:	1000051e 	bne	r2,zero,180f884 <alt_iic_isr_register+0xb8>
 180f870:	e17ff917 	ldw	r5,-28(fp)
 180f874:	e13ffb17 	ldw	r4,-20(fp)
 180f878:	180f6480 	call	180f648 <alt_ic_irq_enable>
 180f87c:	e0bfff15 	stw	r2,-4(fp)
 180f880:	00000406 	br	180f894 <alt_iic_isr_register+0xc8>
 180f884:	e17ff917 	ldw	r5,-28(fp)
 180f888:	e13ffb17 	ldw	r4,-20(fp)
 180f88c:	180f6e40 	call	180f6e4 <alt_ic_irq_disable>
 180f890:	e0bfff15 	stw	r2,-4(fp)
 180f894:	e0bfff17 	ldw	r2,-4(fp)
 180f898:	e0bffa15 	stw	r2,-24(fp)
 180f89c:	e0bff817 	ldw	r2,-32(fp)
 180f8a0:	e0bff615 	stw	r2,-40(fp)
  status &= ~NIOS2_STATUS_PIE_MSK;
  status |= (context & NIOS2_STATUS_PIE_MSK);
  
  NIOS2_WRITE_STATUS (status);
#else
  NIOS2_WRITE_STATUS (context);
 180f8a4:	e0bff617 	ldw	r2,-40(fp)
 180f8a8:	1001703a 	wrctl	status,r2

    alt_irq_enable_all(status);
  }

  return rc; 
 180f8ac:	e0bffa17 	ldw	r2,-24(fp)
}
 180f8b0:	e037883a 	mov	sp,fp
 180f8b4:	dfc00117 	ldw	ra,4(sp)
 180f8b8:	df000017 	ldw	fp,0(sp)
 180f8bc:	dec00204 	addi	sp,sp,8
 180f8c0:	f800283a 	ret

0180f8c4 <alt_open_fd>:
 * If the device can not be succesfully opened, then the input file descriptor
 * remains unchanged.
 */

static void alt_open_fd(alt_fd* fd, const char* name, int flags, int mode)
{
 180f8c4:	defff904 	addi	sp,sp,-28
 180f8c8:	dfc00615 	stw	ra,24(sp)
 180f8cc:	df000515 	stw	fp,20(sp)
 180f8d0:	df000504 	addi	fp,sp,20
 180f8d4:	e13ffc15 	stw	r4,-16(fp)
 180f8d8:	e17ffd15 	stw	r5,-12(fp)
 180f8dc:	e1bffe15 	stw	r6,-8(fp)
 180f8e0:	e1ffff15 	stw	r7,-4(fp)
  int old;

  old = open (name, flags, mode);
 180f8e4:	e13ffd17 	ldw	r4,-12(fp)
 180f8e8:	e17ffe17 	ldw	r5,-8(fp)
 180f8ec:	e1bfff17 	ldw	r6,-4(fp)
 180f8f0:	180fadc0 	call	180fadc <open>
 180f8f4:	e0bffb15 	stw	r2,-20(fp)

  if (old >= 0)
 180f8f8:	e0bffb17 	ldw	r2,-20(fp)
 180f8fc:	1004803a 	cmplt	r2,r2,zero
 180f900:	10001c1e 	bne	r2,zero,180f974 <alt_open_fd+0xb0>
  {
    fd->dev      = alt_fd_list[old].dev;
 180f904:	e0bffb17 	ldw	r2,-20(fp)
 180f908:	00c06074 	movhi	r3,385
 180f90c:	18c75004 	addi	r3,r3,7488
 180f910:	10800324 	muli	r2,r2,12
 180f914:	10c5883a 	add	r2,r2,r3
 180f918:	10c00017 	ldw	r3,0(r2)
 180f91c:	e0bffc17 	ldw	r2,-16(fp)
 180f920:	10c00015 	stw	r3,0(r2)
    fd->priv     = alt_fd_list[old].priv;
 180f924:	e0bffb17 	ldw	r2,-20(fp)
 180f928:	00c06074 	movhi	r3,385
 180f92c:	18c75004 	addi	r3,r3,7488
 180f930:	10800324 	muli	r2,r2,12
 180f934:	10c5883a 	add	r2,r2,r3
 180f938:	10800104 	addi	r2,r2,4
 180f93c:	10c00017 	ldw	r3,0(r2)
 180f940:	e0bffc17 	ldw	r2,-16(fp)
 180f944:	10c00115 	stw	r3,4(r2)
    fd->fd_flags = alt_fd_list[old].fd_flags;
 180f948:	e0bffb17 	ldw	r2,-20(fp)
 180f94c:	00c06074 	movhi	r3,385
 180f950:	18c75004 	addi	r3,r3,7488
 180f954:	10800324 	muli	r2,r2,12
 180f958:	10c5883a 	add	r2,r2,r3
 180f95c:	10800204 	addi	r2,r2,8
 180f960:	10c00017 	ldw	r3,0(r2)
 180f964:	e0bffc17 	ldw	r2,-16(fp)
 180f968:	10c00215 	stw	r3,8(r2)

    alt_release_fd (old);
 180f96c:	e13ffb17 	ldw	r4,-20(fp)
 180f970:	180aacc0 	call	180aacc <alt_release_fd>
  }
} 
 180f974:	e037883a 	mov	sp,fp
 180f978:	dfc00117 	ldw	ra,4(sp)
 180f97c:	df000017 	ldw	fp,0(sp)
 180f980:	dec00204 	addi	sp,sp,8
 180f984:	f800283a 	ret

0180f988 <alt_io_redirect>:
 */
 
void alt_io_redirect(const char* stdout_dev, 
                     const char* stdin_dev, 
                     const char* stderr_dev)
{
 180f988:	defffb04 	addi	sp,sp,-20
 180f98c:	dfc00415 	stw	ra,16(sp)
 180f990:	df000315 	stw	fp,12(sp)
 180f994:	df000304 	addi	fp,sp,12
 180f998:	e13ffd15 	stw	r4,-12(fp)
 180f99c:	e17ffe15 	stw	r5,-8(fp)
 180f9a0:	e1bfff15 	stw	r6,-4(fp)
  /* Redirect the channels */

  alt_open_fd (&alt_fd_list[STDOUT_FILENO], stdout_dev, O_WRONLY, 0777);
 180f9a4:	01006074 	movhi	r4,385
 180f9a8:	21075304 	addi	r4,r4,7500
 180f9ac:	e17ffd17 	ldw	r5,-12(fp)
 180f9b0:	01800044 	movi	r6,1
 180f9b4:	01c07fc4 	movi	r7,511
 180f9b8:	180f8c40 	call	180f8c4 <alt_open_fd>
  alt_open_fd (&alt_fd_list[STDIN_FILENO], stdin_dev, O_RDONLY, 0777);
 180f9bc:	01006074 	movhi	r4,385
 180f9c0:	21075004 	addi	r4,r4,7488
 180f9c4:	e17ffe17 	ldw	r5,-8(fp)
 180f9c8:	000d883a 	mov	r6,zero
 180f9cc:	01c07fc4 	movi	r7,511
 180f9d0:	180f8c40 	call	180f8c4 <alt_open_fd>
  alt_open_fd (&alt_fd_list[STDERR_FILENO], stderr_dev, O_WRONLY, 0777);
 180f9d4:	01006074 	movhi	r4,385
 180f9d8:	21075604 	addi	r4,r4,7512
 180f9dc:	e17fff17 	ldw	r5,-4(fp)
 180f9e0:	01800044 	movi	r6,1
 180f9e4:	01c07fc4 	movi	r7,511
 180f9e8:	180f8c40 	call	180f8c4 <alt_open_fd>
}  
 180f9ec:	e037883a 	mov	sp,fp
 180f9f0:	dfc00117 	ldw	ra,4(sp)
 180f9f4:	df000017 	ldw	fp,0(sp)
 180f9f8:	dec00204 	addi	sp,sp,8
 180f9fc:	f800283a 	ret

0180fa00 <alt_file_locked>:
 * performed for devices. Filesystems are required to handle the ioctl() call
 * themselves, and report the error from the filesystems open() function. 
 */ 

static int alt_file_locked (alt_fd* fd)
{
 180fa00:	defffc04 	addi	sp,sp,-16
 180fa04:	df000315 	stw	fp,12(sp)
 180fa08:	df000304 	addi	fp,sp,12
 180fa0c:	e13ffe15 	stw	r4,-8(fp)

  /*
   * Mark the file descriptor as belonging to a device.
   */

  fd->fd_flags |= ALT_FD_DEV;
 180fa10:	e0bffe17 	ldw	r2,-8(fp)
 180fa14:	10800217 	ldw	r2,8(r2)
 180fa18:	10d00034 	orhi	r3,r2,16384
 180fa1c:	e0bffe17 	ldw	r2,-8(fp)
 180fa20:	10c00215 	stw	r3,8(r2)
  /*
   * Loop through all current file descriptors searching for one that's locked
   * for exclusive access. If a match is found, generate an error.
   */

  for (i = 0; i <= alt_max_fd; i++)
 180fa24:	e03ffd15 	stw	zero,-12(fp)
 180fa28:	00002006 	br	180faac <alt_file_locked+0xac>
  {
    if ((alt_fd_list[i].dev == fd->dev) &&
 180fa2c:	e0bffd17 	ldw	r2,-12(fp)
 180fa30:	00c06074 	movhi	r3,385
 180fa34:	18c75004 	addi	r3,r3,7488
 180fa38:	10800324 	muli	r2,r2,12
 180fa3c:	10c5883a 	add	r2,r2,r3
 180fa40:	10c00017 	ldw	r3,0(r2)
 180fa44:	e0bffe17 	ldw	r2,-8(fp)
 180fa48:	10800017 	ldw	r2,0(r2)
 180fa4c:	1880141e 	bne	r3,r2,180faa0 <alt_file_locked+0xa0>
 180fa50:	e0bffd17 	ldw	r2,-12(fp)
 180fa54:	00c06074 	movhi	r3,385
 180fa58:	18c75004 	addi	r3,r3,7488
 180fa5c:	10800324 	muli	r2,r2,12
 180fa60:	10c5883a 	add	r2,r2,r3
 180fa64:	10800204 	addi	r2,r2,8
 180fa68:	10800017 	ldw	r2,0(r2)
 180fa6c:	1004403a 	cmpge	r2,r2,zero
 180fa70:	10000b1e 	bne	r2,zero,180faa0 <alt_file_locked+0xa0>
 180fa74:	e0bffd17 	ldw	r2,-12(fp)
 180fa78:	10800324 	muli	r2,r2,12
 180fa7c:	1007883a 	mov	r3,r2
 180fa80:	00806074 	movhi	r2,385
 180fa84:	10875004 	addi	r2,r2,7488
 180fa88:	1887883a 	add	r3,r3,r2
 180fa8c:	e0bffe17 	ldw	r2,-8(fp)
 180fa90:	18800326 	beq	r3,r2,180faa0 <alt_file_locked+0xa0>
        (alt_fd_list[i].fd_flags & ALT_FD_EXCL) &&
        (&alt_fd_list[i] != fd))
    {
      return -EACCES;
 180fa94:	00bffcc4 	movi	r2,-13
 180fa98:	e0bfff15 	stw	r2,-4(fp)
 180fa9c:	00000a06 	br	180fac8 <alt_file_locked+0xc8>
  /*
   * Loop through all current file descriptors searching for one that's locked
   * for exclusive access. If a match is found, generate an error.
   */

  for (i = 0; i <= alt_max_fd; i++)
 180faa0:	e0bffd17 	ldw	r2,-12(fp)
 180faa4:	10800044 	addi	r2,r2,1
 180faa8:	e0bffd15 	stw	r2,-12(fp)
 180faac:	00806074 	movhi	r2,385
 180fab0:	108c8104 	addi	r2,r2,12804
 180fab4:	10800017 	ldw	r2,0(r2)
 180fab8:	1007883a 	mov	r3,r2
 180fabc:	e0bffd17 	ldw	r2,-12(fp)
 180fac0:	18bfda2e 	bgeu	r3,r2,180fa2c <alt_file_locked+0x2c>
    }
  }
  
  /* The device is not locked */
 
  return 0;
 180fac4:	e03fff15 	stw	zero,-4(fp)
 180fac8:	e0bfff17 	ldw	r2,-4(fp)
}
 180facc:	e037883a 	mov	sp,fp
 180fad0:	df000017 	ldw	fp,0(sp)
 180fad4:	dec00104 	addi	sp,sp,4
 180fad8:	f800283a 	ret

0180fadc <open>:
 *
 * ALT_OPEN is mapped onto the open() system call in alt_syscall.h
 */
 
int ALT_OPEN (const char* file, int flags, int mode)
{ 
 180fadc:	defff404 	addi	sp,sp,-48
 180fae0:	dfc00b15 	stw	ra,44(sp)
 180fae4:	df000a15 	stw	fp,40(sp)
 180fae8:	df000a04 	addi	fp,sp,40
 180faec:	e13ffb15 	stw	r4,-20(fp)
 180faf0:	e17ffc15 	stw	r5,-16(fp)
 180faf4:	e1bffd15 	stw	r6,-12(fp)
  alt_dev* dev;
  alt_fd*  fd;
  int index  = -1;
 180faf8:	00bfffc4 	movi	r2,-1
 180fafc:	e0bff815 	stw	r2,-32(fp)
  int status = -ENODEV;
 180fb00:	00bffb44 	movi	r2,-19
 180fb04:	e0bff715 	stw	r2,-36(fp)
  int isafs = 0;
 180fb08:	e03ff615 	stw	zero,-40(fp)
  /* 
   * Check the device list, to see if a device with a matching name is 
   * registered.
   */
  
  if (!(dev = alt_find_dev (file, &alt_dev_list)))
 180fb0c:	e13ffb17 	ldw	r4,-20(fp)
 180fb10:	01406074 	movhi	r5,385
 180fb14:	294c7f04 	addi	r5,r5,12796
 180fb18:	18107480 	call	1810748 <alt_find_dev>
 180fb1c:	e0bffa15 	stw	r2,-24(fp)
 180fb20:	e0bffa17 	ldw	r2,-24(fp)
 180fb24:	1004c03a 	cmpne	r2,r2,zero
 180fb28:	1000051e 	bne	r2,zero,180fb40 <open+0x64>
  {
    /* No matching device, so try the filesystem list */

    dev   = alt_find_file (file);
 180fb2c:	e13ffb17 	ldw	r4,-20(fp)
 180fb30:	18107dc0 	call	18107dc <alt_find_file>
 180fb34:	e0bffa15 	stw	r2,-24(fp)
    isafs = 1;
 180fb38:	00800044 	movi	r2,1
 180fb3c:	e0bff615 	stw	r2,-40(fp)

  /* 
   * If a matching device or filesystem is found, allocate a file descriptor. 
   */

  if (dev)
 180fb40:	e0bffa17 	ldw	r2,-24(fp)
 180fb44:	1005003a 	cmpeq	r2,r2,zero
 180fb48:	1000301e 	bne	r2,zero,180fc0c <open+0x130>
  {
    if ((index = alt_get_fd (dev)) < 0)
 180fb4c:	e13ffa17 	ldw	r4,-24(fp)
 180fb50:	18108fc0 	call	18108fc <alt_get_fd>
 180fb54:	e0bff815 	stw	r2,-32(fp)
 180fb58:	e0bff817 	ldw	r2,-32(fp)
 180fb5c:	1004403a 	cmpge	r2,r2,zero
 180fb60:	1000031e 	bne	r2,zero,180fb70 <open+0x94>
    {
      status = index;
 180fb64:	e0bff817 	ldw	r2,-32(fp)
 180fb68:	e0bff715 	stw	r2,-36(fp)
 180fb6c:	00002906 	br	180fc14 <open+0x138>
    }
    else
    {
      fd = &alt_fd_list[index];
 180fb70:	e0bff817 	ldw	r2,-32(fp)
 180fb74:	10800324 	muli	r2,r2,12
 180fb78:	1007883a 	mov	r3,r2
 180fb7c:	00806074 	movhi	r2,385
 180fb80:	10875004 	addi	r2,r2,7488
 180fb84:	1885883a 	add	r2,r3,r2
 180fb88:	e0bff915 	stw	r2,-28(fp)
      fd->fd_flags = (flags & ~ALT_FD_FLAGS_MASK);
 180fb8c:	e0fffc17 	ldw	r3,-16(fp)
 180fb90:	00900034 	movhi	r2,16384
 180fb94:	10bfffc4 	addi	r2,r2,-1
 180fb98:	1886703a 	and	r3,r3,r2
 180fb9c:	e0bff917 	ldw	r2,-28(fp)
 180fba0:	10c00215 	stw	r3,8(r2)
      
      /* If this is a device, ensure it isn't already locked */

      if (isafs || ((status = alt_file_locked (fd)) >= 0))
 180fba4:	e0bff617 	ldw	r2,-40(fp)
 180fba8:	1004c03a 	cmpne	r2,r2,zero
 180fbac:	1000061e 	bne	r2,zero,180fbc8 <open+0xec>
 180fbb0:	e13ff917 	ldw	r4,-28(fp)
 180fbb4:	180fa000 	call	180fa00 <alt_file_locked>
 180fbb8:	e0bff715 	stw	r2,-36(fp)
 180fbbc:	e0bff717 	ldw	r2,-36(fp)
 180fbc0:	1004803a 	cmplt	r2,r2,zero
 180fbc4:	1000131e 	bne	r2,zero,180fc14 <open+0x138>
        /* 
         * If the device or filesystem provides an open() callback function,
         * call it now to perform any device/filesystem specific operations.
         */
    
        status = (dev->open) ? dev->open(fd, file, flags, mode): 0;
 180fbc8:	e0bffa17 	ldw	r2,-24(fp)
 180fbcc:	10800317 	ldw	r2,12(r2)
 180fbd0:	1005003a 	cmpeq	r2,r2,zero
 180fbd4:	1000091e 	bne	r2,zero,180fbfc <open+0x120>
 180fbd8:	e0bffa17 	ldw	r2,-24(fp)
 180fbdc:	10800317 	ldw	r2,12(r2)
 180fbe0:	e13ff917 	ldw	r4,-28(fp)
 180fbe4:	e17ffb17 	ldw	r5,-20(fp)
 180fbe8:	e1bffc17 	ldw	r6,-16(fp)
 180fbec:	e1fffd17 	ldw	r7,-12(fp)
 180fbf0:	103ee83a 	callr	r2
 180fbf4:	e0bfff15 	stw	r2,-4(fp)
 180fbf8:	00000106 	br	180fc00 <open+0x124>
 180fbfc:	e03fff15 	stw	zero,-4(fp)
 180fc00:	e0bfff17 	ldw	r2,-4(fp)
 180fc04:	e0bff715 	stw	r2,-36(fp)
 180fc08:	00000206 	br	180fc14 <open+0x138>
      }
    }
  }
  else
  {
    status = -ENODEV;
 180fc0c:	00bffb44 	movi	r2,-19
 180fc10:	e0bff715 	stw	r2,-36(fp)
  }

  /* Allocation failed, so clean up and return an error */ 

  if (status < 0)
 180fc14:	e0bff717 	ldw	r2,-36(fp)
 180fc18:	1004403a 	cmpge	r2,r2,zero
 180fc1c:	1000091e 	bne	r2,zero,180fc44 <open+0x168>
  {
    alt_release_fd (index);  
 180fc20:	e13ff817 	ldw	r4,-32(fp)
 180fc24:	180aacc0 	call	180aacc <alt_release_fd>
    ALT_ERRNO = -status;
 180fc28:	180fc640 	call	180fc64 <alt_get_errno>
 180fc2c:	e0fff717 	ldw	r3,-36(fp)
 180fc30:	00c7c83a 	sub	r3,zero,r3
 180fc34:	10c00015 	stw	r3,0(r2)
    return -1;
 180fc38:	00bfffc4 	movi	r2,-1
 180fc3c:	e0bffe15 	stw	r2,-8(fp)
 180fc40:	00000206 	br	180fc4c <open+0x170>
  }
  
  /* return the reference upon success */

  return index;
 180fc44:	e0bff817 	ldw	r2,-32(fp)
 180fc48:	e0bffe15 	stw	r2,-8(fp)
 180fc4c:	e0bffe17 	ldw	r2,-8(fp)
}
 180fc50:	e037883a 	mov	sp,fp
 180fc54:	dfc00117 	ldw	ra,4(sp)
 180fc58:	df000017 	ldw	fp,0(sp)
 180fc5c:	dec00204 	addi	sp,sp,8
 180fc60:	f800283a 	ret

0180fc64 <alt_get_errno>:
#undef errno

extern int errno;

static ALT_INLINE int* alt_get_errno(void)
{
 180fc64:	defffd04 	addi	sp,sp,-12
 180fc68:	dfc00215 	stw	ra,8(sp)
 180fc6c:	df000115 	stw	fp,4(sp)
 180fc70:	df000104 	addi	fp,sp,4
  return ((alt_errno) ? alt_errno() : &errno);
 180fc74:	00806074 	movhi	r2,385
 180fc78:	108c8204 	addi	r2,r2,12808
 180fc7c:	10800017 	ldw	r2,0(r2)
 180fc80:	1005003a 	cmpeq	r2,r2,zero
 180fc84:	1000061e 	bne	r2,zero,180fca0 <alt_get_errno+0x3c>
 180fc88:	00806074 	movhi	r2,385
 180fc8c:	108c8204 	addi	r2,r2,12808
 180fc90:	10800017 	ldw	r2,0(r2)
 180fc94:	103ee83a 	callr	r2
 180fc98:	e0bfff15 	stw	r2,-4(fp)
 180fc9c:	00000306 	br	180fcac <alt_get_errno+0x48>
 180fca0:	00806074 	movhi	r2,385
 180fca4:	108c9104 	addi	r2,r2,12868
 180fca8:	e0bfff15 	stw	r2,-4(fp)
 180fcac:	e0bfff17 	ldw	r2,-4(fp)
}
 180fcb0:	e037883a 	mov	sp,fp
 180fcb4:	dfc00117 	ldw	ra,4(sp)
 180fcb8:	df000017 	ldw	fp,0(sp)
 180fcbc:	dec00204 	addi	sp,sp,8
 180fcc0:	f800283a 	ret

0180fcc4 <alt_alarm_stop>:
 * alarms. Alternatively an alarm can unregister itself by returning zero when 
 * the alarm executes.
 */

void alt_alarm_stop (alt_alarm* alarm)
{
 180fcc4:	defffa04 	addi	sp,sp,-24
 180fcc8:	df000515 	stw	fp,20(sp)
 180fccc:	df000504 	addi	fp,sp,20
 180fcd0:	e13fff15 	stw	r4,-4(fp)
static ALT_INLINE alt_irq_context ALT_ALWAYS_INLINE 
       alt_irq_disable_all (void)
{
  alt_irq_context context;

  NIOS2_READ_STATUS (context);
 180fcd4:	0005303a 	rdctl	r2,status
 180fcd8:	e0bffd15 	stw	r2,-12(fp)

  NIOS2_WRITE_STATUS (context & ~NIOS2_STATUS_PIE_MSK);
 180fcdc:	e0fffd17 	ldw	r3,-12(fp)
 180fce0:	00bfff84 	movi	r2,-2
 180fce4:	1884703a 	and	r2,r3,r2
 180fce8:	1001703a 	wrctl	status,r2
  
  return context;
 180fcec:	e0bffd17 	ldw	r2,-12(fp)
  alt_irq_context irq_context;

  irq_context = alt_irq_disable_all();
 180fcf0:	e0bffe15 	stw	r2,-8(fp)
  alt_llist_remove (&alarm->llist);
 180fcf4:	e0bfff17 	ldw	r2,-4(fp)
 180fcf8:	e0bffc15 	stw	r2,-16(fp)
 * input argument is the element to remove.
 */
     
static ALT_INLINE void ALT_ALWAYS_INLINE alt_llist_remove(alt_llist* entry)
{
  entry->next->previous = entry->previous;
 180fcfc:	e0bffc17 	ldw	r2,-16(fp)
 180fd00:	10c00017 	ldw	r3,0(r2)
 180fd04:	e0bffc17 	ldw	r2,-16(fp)
 180fd08:	10800117 	ldw	r2,4(r2)
 180fd0c:	18800115 	stw	r2,4(r3)
  entry->previous->next = entry->next;
 180fd10:	e0bffc17 	ldw	r2,-16(fp)
 180fd14:	10c00117 	ldw	r3,4(r2)
 180fd18:	e0bffc17 	ldw	r2,-16(fp)
 180fd1c:	10800017 	ldw	r2,0(r2)
 180fd20:	18800015 	stw	r2,0(r3)
  /* 
   * Set the entry to point to itself, so that any further calls to
   * alt_llist_remove() are harmless.
   */

  entry->previous = entry;
 180fd24:	e0fffc17 	ldw	r3,-16(fp)
 180fd28:	e0bffc17 	ldw	r2,-16(fp)
 180fd2c:	18800115 	stw	r2,4(r3)
  entry->next     = entry;
 180fd30:	e0fffc17 	ldw	r3,-16(fp)
 180fd34:	e0bffc17 	ldw	r2,-16(fp)
 180fd38:	18800015 	stw	r2,0(r3)
 180fd3c:	e0bffe17 	ldw	r2,-8(fp)
 180fd40:	e0bffb15 	stw	r2,-20(fp)
  status &= ~NIOS2_STATUS_PIE_MSK;
  status |= (context & NIOS2_STATUS_PIE_MSK);
  
  NIOS2_WRITE_STATUS (status);
#else
  NIOS2_WRITE_STATUS (context);
 180fd44:	e0bffb17 	ldw	r2,-20(fp)
 180fd48:	1001703a 	wrctl	status,r2
  alt_irq_enable_all (irq_context);
}
 180fd4c:	e037883a 	mov	sp,fp
 180fd50:	df000017 	ldw	fp,0(sp)
 180fd54:	dec00104 	addi	sp,sp,4
 180fd58:	f800283a 	ret

0180fd5c <alt_tick>:
 * 
 * alt_tick() is expected to run at interrupt level.
 */

void alt_tick (void)
{
 180fd5c:	defffb04 	addi	sp,sp,-20
 180fd60:	dfc00415 	stw	ra,16(sp)
 180fd64:	df000315 	stw	fp,12(sp)
 180fd68:	df000304 	addi	fp,sp,12
  alt_alarm* next;
  alt_alarm* alarm = (alt_alarm*) alt_alarm_list.next;
 180fd6c:	d0a01117 	ldw	r2,-32700(gp)
 180fd70:	e0bffe15 	stw	r2,-8(fp)

  alt_u32    next_callback;

  /* update the tick counter */

  _alt_nticks++;
 180fd74:	d0a02017 	ldw	r2,-32640(gp)
 180fd78:	10800044 	addi	r2,r2,1
 180fd7c:	d0a02015 	stw	r2,-32640(gp)

  /* process the registered callbacks */

  while (alarm != (alt_alarm*) &alt_alarm_list)
 180fd80:	00003106 	br	180fe48 <alt_tick+0xec>
  {
    next = (alt_alarm*) alarm->llist.next;
 180fd84:	e0bffe17 	ldw	r2,-8(fp)
 180fd88:	10800017 	ldw	r2,0(r2)
 180fd8c:	e0bfff15 	stw	r2,-4(fp)
    /* 
     * Upon the tick-counter rolling over it is safe to clear the 
     * roll-over flag; once the flag is cleared this (or subsequnt)
     * tick events are enabled to generate an alarm event. 
     */
    if ((alarm->rollover) && (_alt_nticks == 0))
 180fd90:	e0bffe17 	ldw	r2,-8(fp)
 180fd94:	10800403 	ldbu	r2,16(r2)
 180fd98:	10803fcc 	andi	r2,r2,255
 180fd9c:	1005003a 	cmpeq	r2,r2,zero
 180fda0:	1000051e 	bne	r2,zero,180fdb8 <alt_tick+0x5c>
 180fda4:	d0a02017 	ldw	r2,-32640(gp)
 180fda8:	1004c03a 	cmpne	r2,r2,zero
 180fdac:	1000021e 	bne	r2,zero,180fdb8 <alt_tick+0x5c>
    {
      alarm->rollover = 0;
 180fdb0:	e0bffe17 	ldw	r2,-8(fp)
 180fdb4:	10000405 	stb	zero,16(r2)
    }
    
    /* if the alarm period has expired, make the callback */    
    if ((alarm->time <= _alt_nticks) && (alarm->rollover == 0))
 180fdb8:	e0bffe17 	ldw	r2,-8(fp)
 180fdbc:	10c00217 	ldw	r3,8(r2)
 180fdc0:	d0a02017 	ldw	r2,-32640(gp)
 180fdc4:	10c01e36 	bltu	r2,r3,180fe40 <alt_tick+0xe4>
 180fdc8:	e0bffe17 	ldw	r2,-8(fp)
 180fdcc:	10800403 	ldbu	r2,16(r2)
 180fdd0:	10803fcc 	andi	r2,r2,255
 180fdd4:	1004c03a 	cmpne	r2,r2,zero
 180fdd8:	1000191e 	bne	r2,zero,180fe40 <alt_tick+0xe4>
    {
      next_callback = alarm->callback (alarm->context);
 180fddc:	e0bffe17 	ldw	r2,-8(fp)
 180fde0:	10c00317 	ldw	r3,12(r2)
 180fde4:	e0bffe17 	ldw	r2,-8(fp)
 180fde8:	11000517 	ldw	r4,20(r2)
 180fdec:	183ee83a 	callr	r3
 180fdf0:	e0bffd15 	stw	r2,-12(fp)

      /* deactivate the alarm if the return value is zero */

      if (next_callback == 0)
 180fdf4:	e0bffd17 	ldw	r2,-12(fp)
 180fdf8:	1004c03a 	cmpne	r2,r2,zero
 180fdfc:	1000031e 	bne	r2,zero,180fe0c <alt_tick+0xb0>
      {
        alt_alarm_stop (alarm);
 180fe00:	e13ffe17 	ldw	r4,-8(fp)
 180fe04:	180fcc40 	call	180fcc4 <alt_alarm_stop>
 180fe08:	00000d06 	br	180fe40 <alt_tick+0xe4>
      }
      else
      {
        alarm->time += next_callback;
 180fe0c:	e0bffe17 	ldw	r2,-8(fp)
 180fe10:	10c00217 	ldw	r3,8(r2)
 180fe14:	e0bffd17 	ldw	r2,-12(fp)
 180fe18:	1887883a 	add	r3,r3,r2
 180fe1c:	e0bffe17 	ldw	r2,-8(fp)
 180fe20:	10c00215 	stw	r3,8(r2)
        /* 
         * If the desired alarm time causes a roll-over, set the rollover
         * flag. This will prevent the subsequent tick event from causing
         * an alarm too early.
         */
        if(alarm->time < _alt_nticks)
 180fe24:	e0bffe17 	ldw	r2,-8(fp)
 180fe28:	10c00217 	ldw	r3,8(r2)
 180fe2c:	d0a02017 	ldw	r2,-32640(gp)
 180fe30:	1880032e 	bgeu	r3,r2,180fe40 <alt_tick+0xe4>
        {
          alarm->rollover = 1;
 180fe34:	e0fffe17 	ldw	r3,-8(fp)
 180fe38:	00800044 	movi	r2,1
 180fe3c:	18800405 	stb	r2,16(r3)
        }
      }
    }
    alarm = next;
 180fe40:	e0bfff17 	ldw	r2,-4(fp)
 180fe44:	e0bffe15 	stw	r2,-8(fp)

  _alt_nticks++;

  /* process the registered callbacks */

  while (alarm != (alt_alarm*) &alt_alarm_list)
 180fe48:	d0e01104 	addi	r3,gp,-32700
 180fe4c:	e0bffe17 	ldw	r2,-8(fp)
 180fe50:	10ffcc1e 	bne	r2,r3,180fd84 <alt_tick+0x28>
  /* 
   * Update the operating system specific timer facilities.
   */

  ALT_OS_TIME_TICK();
}
 180fe54:	e037883a 	mov	sp,fp
 180fe58:	dfc00117 	ldw	ra,4(sp)
 180fe5c:	df000017 	ldw	fp,0(sp)
 180fe60:	dec00204 	addi	sp,sp,8
 180fe64:	f800283a 	ret

0180fe68 <altera_nios2_irq_init>:
/*
 * To initialize the internal interrupt controller, just clear the IENABLE
 * register so that all possible IRQs are disabled.
 */
void altera_nios2_irq_init(void) 
{
 180fe68:	deffff04 	addi	sp,sp,-4
 180fe6c:	df000015 	stw	fp,0(sp)
 180fe70:	d839883a 	mov	fp,sp
    NIOS2_WRITE_IENABLE(0);
 180fe74:	000170fa 	wrctl	ienable,zero
}
 180fe78:	e037883a 	mov	sp,fp
 180fe7c:	df000017 	ldw	fp,0(sp)
 180fe80:	dec00104 	addi	sp,sp,4
 180fe84:	f800283a 	ret

0180fe88 <alt_program_amd>:
 * then writes Addr, Data Addr, Data etc.
 */
int alt_program_amd(alt_flash_dev* flash_info, int block_offset, 
                int offset, const void* src_addr, 
                int length)
{
 180fe88:	defff704 	addi	sp,sp,-36
 180fe8c:	dfc00815 	stw	ra,32(sp)
 180fe90:	df000715 	stw	fp,28(sp)
 180fe94:	df000704 	addi	fp,sp,28
 180fe98:	e13ffc15 	stw	r4,-16(fp)
 180fe9c:	e17ffd15 	stw	r5,-12(fp)
 180fea0:	e1bffe15 	stw	r6,-8(fp)
 180fea4:	e1ffff15 	stw	r7,-4(fp)
  int ret_code = 0;
 180fea8:	e03ffb15 	stw	zero,-20(fp)
  alt_flash_cfi_dev* flash = (alt_flash_cfi_dev*)flash_info;
 180feac:	e0bffc17 	ldw	r2,-16(fp)
 180feb0:	e0bffa15 	stw	r2,-24(fp)
  
  
  ret_code = alt_flash_program_block( flash, offset, src_addr, length, 
 180feb4:	e1bfff17 	ldw	r6,-4(fp)
 180feb8:	00806074 	movhi	r2,385
 180febc:	10808b04 	addi	r2,r2,556
 180fec0:	d8800015 	stw	r2,0(sp)
 180fec4:	e13ffa17 	ldw	r4,-24(fp)
 180fec8:	e17ffe17 	ldw	r5,-8(fp)
 180fecc:	e1c00217 	ldw	r7,8(fp)
 180fed0:	180b4900 	call	180b490 <alt_flash_program_block>
 180fed4:	e0bffb15 	stw	r2,-20(fp)
                                    alt_write_word_amd);
  return ret_code;
 180fed8:	e0bffb17 	ldw	r2,-20(fp)
}
 180fedc:	e037883a 	mov	sp,fp
 180fee0:	dfc00117 	ldw	ra,4(sp)
 180fee4:	df000017 	ldw	fp,0(sp)
 180fee8:	dec00204 	addi	sp,sp,8
 180feec:	f800283a 	ret

0180fef0 <alt_erase_block_amd>:
 * alt_erase_block_amd
 * 
 * Erase the selected erase block
 */
int alt_erase_block_amd(alt_flash_dev* flash_info, int block_offset)
{
 180fef0:	defff804 	addi	sp,sp,-32
 180fef4:	dfc00715 	stw	ra,28(sp)
 180fef8:	df000615 	stw	fp,24(sp)
 180fefc:	df000604 	addi	fp,sp,24
 180ff00:	e13ffe15 	stw	r4,-8(fp)
 180ff04:	e17fff15 	stw	r5,-4(fp)
  int   ret_code = 0;
 180ff08:	e03ffc15 	stw	zero,-16(fp)
  int   timeout;
  alt_flash_cfi_dev* flash = (alt_flash_cfi_dev*)flash_info;
 180ff0c:	e0bffe17 	ldw	r2,-8(fp)
 180ff10:	e0bffa15 	stw	r2,-24(fp)
  volatile alt_u8  value;

  (*flash->write_command)(flash->dev.base_addr, 0x555, (alt_u8)0xAA);
 180ff14:	e0bffa17 	ldw	r2,-24(fp)
 180ff18:	10c03317 	ldw	r3,204(r2)
 180ff1c:	e0bffa17 	ldw	r2,-24(fp)
 180ff20:	11000a17 	ldw	r4,40(r2)
 180ff24:	01415544 	movi	r5,1365
 180ff28:	01802a84 	movi	r6,170
 180ff2c:	183ee83a 	callr	r3
  (*flash->write_command)(flash->dev.base_addr, 0x2AA, (alt_u8)0x55);
 180ff30:	e0bffa17 	ldw	r2,-24(fp)
 180ff34:	10c03317 	ldw	r3,204(r2)
 180ff38:	e0bffa17 	ldw	r2,-24(fp)
 180ff3c:	11000a17 	ldw	r4,40(r2)
 180ff40:	0140aa84 	movi	r5,682
 180ff44:	01801544 	movi	r6,85
 180ff48:	183ee83a 	callr	r3
  (*flash->write_command)(flash->dev.base_addr, 0x555, (alt_u8)0x80);
 180ff4c:	e0bffa17 	ldw	r2,-24(fp)
 180ff50:	10c03317 	ldw	r3,204(r2)
 180ff54:	e0bffa17 	ldw	r2,-24(fp)
 180ff58:	11000a17 	ldw	r4,40(r2)
 180ff5c:	01415544 	movi	r5,1365
 180ff60:	01802004 	movi	r6,128
 180ff64:	183ee83a 	callr	r3
  (*flash->write_command)(flash->dev.base_addr, 0x555, (alt_u8)0xAA);
 180ff68:	e0bffa17 	ldw	r2,-24(fp)
 180ff6c:	10c03317 	ldw	r3,204(r2)
 180ff70:	e0bffa17 	ldw	r2,-24(fp)
 180ff74:	11000a17 	ldw	r4,40(r2)
 180ff78:	01415544 	movi	r5,1365
 180ff7c:	01802a84 	movi	r6,170
 180ff80:	183ee83a 	callr	r3
  (*flash->write_command)(flash->dev.base_addr, 0x2AA, (alt_u8)0x55);
 180ff84:	e0bffa17 	ldw	r2,-24(fp)
 180ff88:	10c03317 	ldw	r3,204(r2)
 180ff8c:	e0bffa17 	ldw	r2,-24(fp)
 180ff90:	11000a17 	ldw	r4,40(r2)
 180ff94:	0140aa84 	movi	r5,682
 180ff98:	01801544 	movi	r6,85
 180ff9c:	183ee83a 	callr	r3

  (*flash->write_native)((alt_u8*)flash->dev.base_addr+block_offset, 0x30);
 180ffa0:	e0bffa17 	ldw	r2,-24(fp)
 180ffa4:	11803517 	ldw	r6,212(r2)
 180ffa8:	e0bffa17 	ldw	r2,-24(fp)
 180ffac:	10800a17 	ldw	r2,40(r2)
 180ffb0:	1007883a 	mov	r3,r2
 180ffb4:	e0bfff17 	ldw	r2,-4(fp)
 180ffb8:	1889883a 	add	r4,r3,r2
 180ffbc:	01400c04 	movi	r5,48
 180ffc0:	303ee83a 	callr	r6

  /*
   * Delay to meet AM29LV065D timing requirements
   */
  usleep(10000);
 180ffc4:	0109c404 	movi	r4,10000
 180ffc8:	180abe80 	call	180abe8 <usleep>
  
  /*
   * Bit 3 indicates that the erase command has been accepted
   * this last 50S
   */
  timeout = 50;   
 180ffcc:	00800c84 	movi	r2,50
 180ffd0:	e0bffb15 	stw	r2,-20(fp)
  do 
  {
    value = IORD_8DIRECT((alt_u8*)flash->dev.base_addr + block_offset, 0);
 180ffd4:	e0bffa17 	ldw	r2,-24(fp)
 180ffd8:	10800a17 	ldw	r2,40(r2)
 180ffdc:	1007883a 	mov	r3,r2
 180ffe0:	e0bfff17 	ldw	r2,-4(fp)
 180ffe4:	1885883a 	add	r2,r3,r2
 180ffe8:	10800023 	ldbuio	r2,0(r2)
 180ffec:	e0bffd05 	stb	r2,-12(fp)
    usleep(1000);
 180fff0:	0100fa04 	movi	r4,1000
 180fff4:	180abe80 	call	180abe8 <usleep>
    timeout--;
 180fff8:	e0bffb17 	ldw	r2,-20(fp)
 180fffc:	10bfffc4 	addi	r2,r2,-1
 1810000:	e0bffb15 	stw	r2,-20(fp)
  }while(!(value & 0x8) && (timeout > 0));
 1810004:	e0bffd03 	ldbu	r2,-12(fp)
 1810008:	10803fcc 	andi	r2,r2,255
 181000c:	1080020c 	andi	r2,r2,8
 1810010:	1004c03a 	cmpne	r2,r2,zero
 1810014:	1000031e 	bne	r2,zero,1810024 <alt_erase_block_amd+0x134>
 1810018:	e0bffb17 	ldw	r2,-20(fp)
 181001c:	10800048 	cmpgei	r2,r2,1
 1810020:	103fec1e 	bne	r2,zero,180ffd4 <alt_erase_block_amd+0xe4>


  timeout = flash->erase_timeout;
 1810024:	e0bffa17 	ldw	r2,-24(fp)
 1810028:	10803117 	ldw	r2,196(r2)
 181002c:	e0bffb15 	stw	r2,-20(fp)
  
  /*
   *  Bit 7 goes low until the block is erased if bit 5 goes to 
   *  1 it's an error
   */
  while (timeout > 0)
 1810030:	00001706 	br	1810090 <alt_erase_block_amd+0x1a0>
  {
    value = IORD_8DIRECT((alt_u8*)flash->dev.base_addr + block_offset, 0);
 1810034:	e0bffa17 	ldw	r2,-24(fp)
 1810038:	10800a17 	ldw	r2,40(r2)
 181003c:	1007883a 	mov	r3,r2
 1810040:	e0bfff17 	ldw	r2,-4(fp)
 1810044:	1885883a 	add	r2,r3,r2
 1810048:	10800023 	ldbuio	r2,0(r2)
 181004c:	e0bffd05 	stb	r2,-12(fp)
    if ((value & 0x80) || (value &0x20))
 1810050:	e0bffd03 	ldbu	r2,-12(fp)
 1810054:	10803fcc 	andi	r2,r2,255
 1810058:	1080201c 	xori	r2,r2,128
 181005c:	10bfe004 	addi	r2,r2,-128
 1810060:	1004803a 	cmplt	r2,r2,zero
 1810064:	10000d1e 	bne	r2,zero,181009c <alt_erase_block_amd+0x1ac>
 1810068:	e0bffd03 	ldbu	r2,-12(fp)
 181006c:	10803fcc 	andi	r2,r2,255
 1810070:	1080080c 	andi	r2,r2,32
 1810074:	1004c03a 	cmpne	r2,r2,zero
 1810078:	1000081e 	bne	r2,zero,181009c <alt_erase_block_amd+0x1ac>
    {
      break;
    }
    usleep(1000);
 181007c:	0100fa04 	movi	r4,1000
 1810080:	180abe80 	call	180abe8 <usleep>
    timeout -= 1000;
 1810084:	e0bffb17 	ldw	r2,-20(fp)
 1810088:	10bf0604 	addi	r2,r2,-1000
 181008c:	e0bffb15 	stw	r2,-20(fp)
  
  /*
   *  Bit 7 goes low until the block is erased if bit 5 goes to 
   *  1 it's an error
   */
  while (timeout > 0)
 1810090:	e0bffb17 	ldw	r2,-20(fp)
 1810094:	10800048 	cmpgei	r2,r2,1
 1810098:	103fe61e 	bne	r2,zero,1810034 <alt_erase_block_amd+0x144>
    }
    usleep(1000);
    timeout -= 1000;
  }
  
  if (timeout <= 0)
 181009c:	e0bffb17 	ldw	r2,-20(fp)
 18100a0:	10800048 	cmpgei	r2,r2,1
 18100a4:	1000031e 	bne	r2,zero,18100b4 <alt_erase_block_amd+0x1c4>
  {
    ret_code = -ETIMEDOUT;
 18100a8:	00bfe304 	movi	r2,-116
 18100ac:	e0bffc15 	stw	r2,-16(fp)
 18100b0:	00000f06 	br	18100f0 <alt_erase_block_amd+0x200>
  }
  else
  {
    value = IORD_8DIRECT((alt_u8*)flash->dev.base_addr + block_offset, 0);
 18100b4:	e0bffa17 	ldw	r2,-24(fp)
 18100b8:	10800a17 	ldw	r2,40(r2)
 18100bc:	1007883a 	mov	r3,r2
 18100c0:	e0bfff17 	ldw	r2,-4(fp)
 18100c4:	1885883a 	add	r2,r3,r2
 18100c8:	10800023 	ldbuio	r2,0(r2)
 18100cc:	e0bffd05 	stb	r2,-12(fp)
    if (!(value & 0x80))
 18100d0:	e0bffd03 	ldbu	r2,-12(fp)
 18100d4:	10803fcc 	andi	r2,r2,255
 18100d8:	1080201c 	xori	r2,r2,128
 18100dc:	10bfe004 	addi	r2,r2,-128
 18100e0:	1004803a 	cmplt	r2,r2,zero
 18100e4:	1000021e 	bne	r2,zero,18100f0 <alt_erase_block_amd+0x200>
    {
      ret_code = -EIO;
 18100e8:	00bffec4 	movi	r2,-5
 18100ec:	e0bffc15 	stw	r2,-16(fp)
    }
  }    
  
  return ret_code;
 18100f0:	e0bffc17 	ldw	r2,-16(fp)
}
 18100f4:	e037883a 	mov	sp,fp
 18100f8:	dfc00117 	ldw	ra,4(sp)
 18100fc:	df000017 	ldw	fp,0(sp)
 1810100:	dec00204 	addi	sp,sp,8
 1810104:	f800283a 	ret

01810108 <alt_wait_for_command_to_complete_amd>:
 */
 
int alt_wait_for_command_to_complete_amd(alt_flash_cfi_dev* flash,
                                         int offset, 
                                          alt_u8 data)
{
 1810108:	defff804 	addi	sp,sp,-32
 181010c:	dfc00715 	stw	ra,28(sp)
 1810110:	df000615 	stw	fp,24(sp)
 1810114:	df000604 	addi	fp,sp,24
 1810118:	e13ffd15 	stw	r4,-12(fp)
 181011c:	e17ffe15 	stw	r5,-8(fp)
 1810120:	e1bfff05 	stb	r6,-4(fp)
  volatile alt_u8  value;
  int timeout = flash->write_timeout * 100;
 1810124:	e0bffd17 	ldw	r2,-12(fp)
 1810128:	10803017 	ldw	r2,192(r2)
 181012c:	10801924 	muli	r2,r2,100
 1810130:	e0bffb15 	stw	r2,-20(fp)
  int ret_code = 0;
 1810134:	e03ffa15 	stw	zero,-24(fp)
  
  value = IORD_8DIRECT(flash->dev.base_addr, offset);
 1810138:	e0bffd17 	ldw	r2,-12(fp)
 181013c:	10800a17 	ldw	r2,40(r2)
 1810140:	1007883a 	mov	r3,r2
 1810144:	e0bffe17 	ldw	r2,-8(fp)
 1810148:	1885883a 	add	r2,r3,r2
 181014c:	10800023 	ldbuio	r2,0(r2)
 1810150:	e0bffc05 	stb	r2,-16(fp)
  while (timeout > 0)
 1810154:	00001706 	br	18101b4 <alt_wait_for_command_to_complete_amd+0xac>
  {
    if (((value & 0x80 ) == (data &0x80)) ||
 1810158:	e0bffc03 	ldbu	r2,-16(fp)
 181015c:	10803fcc 	andi	r2,r2,255
 1810160:	10c0200c 	andi	r3,r2,128
 1810164:	e0bfff03 	ldbu	r2,-4(fp)
 1810168:	1080200c 	andi	r2,r2,128
 181016c:	18801426 	beq	r3,r2,18101c0 <alt_wait_for_command_to_complete_amd+0xb8>
 1810170:	e0bffc03 	ldbu	r2,-16(fp)
 1810174:	10803fcc 	andi	r2,r2,255
 1810178:	1080080c 	andi	r2,r2,32
 181017c:	1004c03a 	cmpne	r2,r2,zero
 1810180:	10000f1e 	bne	r2,zero,18101c0 <alt_wait_for_command_to_complete_amd+0xb8>
        (value & 0x20))
    {
      break;
    }
    usleep (1);
 1810184:	01000044 	movi	r4,1
 1810188:	180abe80 	call	180abe8 <usleep>
    timeout--;
 181018c:	e0bffb17 	ldw	r2,-20(fp)
 1810190:	10bfffc4 	addi	r2,r2,-1
 1810194:	e0bffb15 	stw	r2,-20(fp)
    value = IORD_8DIRECT(flash->dev.base_addr, offset);
 1810198:	e0bffd17 	ldw	r2,-12(fp)
 181019c:	10800a17 	ldw	r2,40(r2)
 18101a0:	1007883a 	mov	r3,r2
 18101a4:	e0bffe17 	ldw	r2,-8(fp)
 18101a8:	1885883a 	add	r2,r3,r2
 18101ac:	10800023 	ldbuio	r2,0(r2)
 18101b0:	e0bffc05 	stb	r2,-16(fp)
  volatile alt_u8  value;
  int timeout = flash->write_timeout * 100;
  int ret_code = 0;
  
  value = IORD_8DIRECT(flash->dev.base_addr, offset);
  while (timeout > 0)
 18101b4:	e0bffb17 	ldw	r2,-20(fp)
 18101b8:	10800048 	cmpgei	r2,r2,1
 18101bc:	103fe61e 	bne	r2,zero,1810158 <alt_wait_for_command_to_complete_amd+0x50>
    usleep (1);
    timeout--;
    value = IORD_8DIRECT(flash->dev.base_addr, offset);
  }
  
  if (timeout == 0)
 18101c0:	e0bffb17 	ldw	r2,-20(fp)
 18101c4:	1004c03a 	cmpne	r2,r2,zero
 18101c8:	1000031e 	bne	r2,zero,18101d8 <alt_wait_for_command_to_complete_amd+0xd0>
  {
    ret_code = -ETIMEDOUT;
 18101cc:	00bfe304 	movi	r2,-116
 18101d0:	e0bffa15 	stw	r2,-24(fp)
 18101d4:	00000f06 	br	1810214 <alt_wait_for_command_to_complete_amd+0x10c>
  }
  else
  {
    value = IORD_8DIRECT(flash->dev.base_addr, offset);
 18101d8:	e0bffd17 	ldw	r2,-12(fp)
 18101dc:	10800a17 	ldw	r2,40(r2)
 18101e0:	1007883a 	mov	r3,r2
 18101e4:	e0bffe17 	ldw	r2,-8(fp)
 18101e8:	1885883a 	add	r2,r3,r2
 18101ec:	10800023 	ldbuio	r2,0(r2)
 18101f0:	e0bffc05 	stb	r2,-16(fp)
    if ((value & 0x80) != (data&0x80))
 18101f4:	e0bffc03 	ldbu	r2,-16(fp)
 18101f8:	10803fcc 	andi	r2,r2,255
 18101fc:	10c0200c 	andi	r3,r2,128
 1810200:	e0bfff03 	ldbu	r2,-4(fp)
 1810204:	1080200c 	andi	r2,r2,128
 1810208:	18800226 	beq	r3,r2,1810214 <alt_wait_for_command_to_complete_amd+0x10c>
    {
      ret_code = -EIO;
 181020c:	00bffec4 	movi	r2,-5
 1810210:	e0bffa15 	stw	r2,-24(fp)
    }
  }    
  return ret_code;
 1810214:	e0bffa17 	ldw	r2,-24(fp)
}
 1810218:	e037883a 	mov	sp,fp
 181021c:	dfc00117 	ldw	ra,4(sp)
 1810220:	df000017 	ldw	fp,0(sp)
 1810224:	dec00204 	addi	sp,sp,8
 1810228:	f800283a 	ret

0181022c <alt_write_word_amd>:

static int alt_write_word_amd(  alt_flash_cfi_dev* flash, 
                                const int offset, 
                                const alt_u8* src_addr)
{
 181022c:	defff904 	addi	sp,sp,-28
 1810230:	dfc00615 	stw	ra,24(sp)
 1810234:	df000515 	stw	fp,20(sp)
 1810238:	df000504 	addi	fp,sp,20
 181023c:	e13ffd15 	stw	r4,-12(fp)
 1810240:	e17ffe15 	stw	r5,-8(fp)
 1810244:	e1bfff15 	stw	r6,-4(fp)
  int ret_code = 0;
 1810248:	e03ffc15 	stw	zero,-16(fp)
  alt_u8 value;
  (*flash->write_command)(flash->dev.base_addr, 0x555, (alt_u8)0xAA);
 181024c:	e0bffd17 	ldw	r2,-12(fp)
 1810250:	10c03317 	ldw	r3,204(r2)
 1810254:	e0bffd17 	ldw	r2,-12(fp)
 1810258:	11000a17 	ldw	r4,40(r2)
 181025c:	01415544 	movi	r5,1365
 1810260:	01802a84 	movi	r6,170
 1810264:	183ee83a 	callr	r3
  (*flash->write_command)(flash->dev.base_addr, 0x2AA, (alt_u8)0x55);
 1810268:	e0bffd17 	ldw	r2,-12(fp)
 181026c:	10c03317 	ldw	r3,204(r2)
 1810270:	e0bffd17 	ldw	r2,-12(fp)
 1810274:	11000a17 	ldw	r4,40(r2)
 1810278:	0140aa84 	movi	r5,682
 181027c:	01801544 	movi	r6,85
 1810280:	183ee83a 	callr	r3
  (*flash->write_command)(flash->dev.base_addr, 0x555, (alt_u8)0xA0);
 1810284:	e0bffd17 	ldw	r2,-12(fp)
 1810288:	10c03317 	ldw	r3,204(r2)
 181028c:	e0bffd17 	ldw	r2,-12(fp)
 1810290:	11000a17 	ldw	r4,40(r2)
 1810294:	01415544 	movi	r5,1365
 1810298:	01802804 	movi	r6,160
 181029c:	183ee83a 	callr	r3
  
  value = *src_addr;
 18102a0:	e0bfff17 	ldw	r2,-4(fp)
 18102a4:	10800003 	ldbu	r2,0(r2)
 18102a8:	e0bffb05 	stb	r2,-20(fp)

  alt_write_value_to_flash(flash, offset, src_addr);
 18102ac:	e13ffd17 	ldw	r4,-12(fp)
 18102b0:	e17ffe17 	ldw	r5,-8(fp)
 18102b4:	e1bfff17 	ldw	r6,-4(fp)
 18102b8:	180b32c0 	call	180b32c <alt_write_value_to_flash>
  
  ret_code = alt_wait_for_command_to_complete_amd(flash, 
 18102bc:	e1bffb03 	ldbu	r6,-20(fp)
 18102c0:	e13ffd17 	ldw	r4,-12(fp)
 18102c4:	e17ffe17 	ldw	r5,-8(fp)
 18102c8:	18101080 	call	1810108 <alt_wait_for_command_to_complete_amd>
 18102cc:	e0bffc15 	stw	r2,-16(fp)
                                                  offset,
                                                  value);
  return ret_code;
 18102d0:	e0bffc17 	ldw	r2,-16(fp)
  
}
 18102d4:	e037883a 	mov	sp,fp
 18102d8:	dfc00117 	ldw	ra,4(sp)
 18102dc:	df000017 	ldw	fp,0(sp)
 18102e0:	dec00204 	addi	sp,sp,8
 18102e4:	f800283a 	ret

018102e8 <alt_program_intel>:
 * Program a block (or part of one)
 */
int alt_program_intel(alt_flash_dev* flash_info, int block_offset, 
                int offset, const void* src_addr, 
                int length)
{
 18102e8:	defff704 	addi	sp,sp,-36
 18102ec:	dfc00815 	stw	ra,32(sp)
 18102f0:	df000715 	stw	fp,28(sp)
 18102f4:	df000704 	addi	fp,sp,28
 18102f8:	e13ffc15 	stw	r4,-16(fp)
 18102fc:	e17ffd15 	stw	r5,-12(fp)
 1810300:	e1bffe15 	stw	r6,-8(fp)
 1810304:	e1ffff15 	stw	r7,-4(fp)
  int ret_code = 0;
 1810308:	e03ffb15 	stw	zero,-20(fp)
  alt_flash_cfi_dev* flash = (alt_flash_cfi_dev*)flash_info;
 181030c:	e0bffc17 	ldw	r2,-16(fp)
 1810310:	e0bffa15 	stw	r2,-24(fp)
  
   /*
  * If this block is locked then unlock it
  */
  ret_code = alt_unlock_block_intel(flash, block_offset);
 1810314:	e13ffa17 	ldw	r4,-24(fp)
 1810318:	e17ffd17 	ldw	r5,-12(fp)
 181031c:	18104e00 	call	18104e0 <alt_unlock_block_intel>
 1810320:	e0bffb15 	stw	r2,-20(fp)

  if (!ret_code)
 1810324:	e0bffb17 	ldw	r2,-20(fp)
 1810328:	1004c03a 	cmpne	r2,r2,zero
 181032c:	1000091e 	bne	r2,zero,1810354 <alt_program_intel+0x6c>
  {

    ret_code = alt_flash_program_block( flash, offset, src_addr, length, 
 1810330:	e1bfff17 	ldw	r6,-4(fp)
 1810334:	00806074 	movhi	r2,385
 1810338:	10819b04 	addi	r2,r2,1644
 181033c:	d8800015 	stw	r2,0(sp)
 1810340:	e13ffa17 	ldw	r4,-24(fp)
 1810344:	e17ffe17 	ldw	r5,-8(fp)
 1810348:	e1c00217 	ldw	r7,8(fp)
 181034c:	180b4900 	call	180b490 <alt_flash_program_block>
 1810350:	e0bffb15 	stw	r2,-20(fp)
                                        alt_write_word_intel);
  }
  
  return ret_code;
 1810354:	e0bffb17 	ldw	r2,-20(fp)
}
 1810358:	e037883a 	mov	sp,fp
 181035c:	dfc00117 	ldw	ra,4(sp)
 1810360:	df000017 	ldw	fp,0(sp)
 1810364:	dec00204 	addi	sp,sp,8
 1810368:	f800283a 	ret

0181036c <alt_erase_block_intel>:
 * alt_erase_block_intel
 * 
 * Erase the selected erase block
 */
int alt_erase_block_intel(alt_flash_dev* flash_info, int block_offset)
{
 181036c:	defff804 	addi	sp,sp,-32
 1810370:	dfc00715 	stw	ra,28(sp)
 1810374:	df000615 	stw	fp,24(sp)
 1810378:	df000604 	addi	fp,sp,24
 181037c:	e13ffe15 	stw	r4,-8(fp)
 1810380:	e17fff15 	stw	r5,-4(fp)
  int   ret_code = 0;
 1810384:	e03ffc15 	stw	zero,-16(fp)
  alt_flash_cfi_dev* flash = (alt_flash_cfi_dev*)flash_info;
 1810388:	e0bffe17 	ldw	r2,-8(fp)
 181038c:	e0bffb15 	stw	r2,-20(fp)
  volatile alt_u8  status;
  int   timeout = flash->erase_timeout;
 1810390:	e0bffb17 	ldw	r2,-20(fp)
 1810394:	10803117 	ldw	r2,196(r2)
 1810398:	e0bffa15 	stw	r2,-24(fp)

  /*
  * If this block is locked then unlock it
  */
  ret_code = alt_unlock_block_intel(flash, block_offset);
 181039c:	e13ffb17 	ldw	r4,-20(fp)
 18103a0:	e17fff17 	ldw	r5,-4(fp)
 18103a4:	18104e00 	call	18104e0 <alt_unlock_block_intel>
 18103a8:	e0bffc15 	stw	r2,-16(fp)

  if (!ret_code)
 18103ac:	e0bffc17 	ldw	r2,-16(fp)
 18103b0:	1004c03a 	cmpne	r2,r2,zero
 18103b4:	1000441e 	bne	r2,zero,18104c8 <alt_erase_block_intel+0x15c>
  {

    flash->write_native((alt_u8*)flash->dev.base_addr + block_offset, 0x20);
 18103b8:	e0bffb17 	ldw	r2,-20(fp)
 18103bc:	11803517 	ldw	r6,212(r2)
 18103c0:	e0bffb17 	ldw	r2,-20(fp)
 18103c4:	10800a17 	ldw	r2,40(r2)
 18103c8:	1007883a 	mov	r3,r2
 18103cc:	e0bfff17 	ldw	r2,-4(fp)
 18103d0:	1889883a 	add	r4,r3,r2
 18103d4:	01400804 	movi	r5,32
 18103d8:	303ee83a 	callr	r6
    flash->write_native((alt_u8*)flash->dev.base_addr + block_offset, 0xD0);
 18103dc:	e0bffb17 	ldw	r2,-20(fp)
 18103e0:	11803517 	ldw	r6,212(r2)
 18103e4:	e0bffb17 	ldw	r2,-20(fp)
 18103e8:	10800a17 	ldw	r2,40(r2)
 18103ec:	1007883a 	mov	r3,r2
 18103f0:	e0bfff17 	ldw	r2,-4(fp)
 18103f4:	1889883a 	add	r4,r3,r2
 18103f8:	01403404 	movi	r5,208
 18103fc:	303ee83a 	callr	r6

    do
    {
      status = IORD_8DIRECT(flash->dev.base_addr, block_offset);
 1810400:	e0bffb17 	ldw	r2,-20(fp)
 1810404:	10800a17 	ldw	r2,40(r2)
 1810408:	1007883a 	mov	r3,r2
 181040c:	e0bfff17 	ldw	r2,-4(fp)
 1810410:	1885883a 	add	r2,r3,r2
 1810414:	10800023 	ldbuio	r2,0(r2)
 1810418:	e0bffd05 	stb	r2,-12(fp)
      if (status & 0x80)
 181041c:	e0bffd03 	ldbu	r2,-12(fp)
 1810420:	10803fcc 	andi	r2,r2,255
 1810424:	1080201c 	xori	r2,r2,128
 1810428:	10bfe004 	addi	r2,r2,-128
 181042c:	1004803a 	cmplt	r2,r2,zero
 1810430:	1000081e 	bne	r2,zero,1810454 <alt_erase_block_intel+0xe8>
      {
        break;
      }
      usleep(1000);
 1810434:	0100fa04 	movi	r4,1000
 1810438:	180abe80 	call	180abe8 <usleep>
      timeout -= 1000;
 181043c:	e0bffa17 	ldw	r2,-24(fp)
 1810440:	10bf0604 	addi	r2,r2,-1000
 1810444:	e0bffa15 	stw	r2,-24(fp)
    }while(timeout > 0);
 1810448:	e0bffa17 	ldw	r2,-24(fp)
 181044c:	10800048 	cmpgei	r2,r2,1
 1810450:	103feb1e 	bne	r2,zero,1810400 <alt_erase_block_intel+0x94>
    
    if (timeout <= 0)
 1810454:	e0bffa17 	ldw	r2,-24(fp)
 1810458:	10800048 	cmpgei	r2,r2,1
 181045c:	1000031e 	bne	r2,zero,181046c <alt_erase_block_intel+0x100>
    {
      ret_code = -ETIMEDOUT;
 1810460:	00bfe304 	movi	r2,-116
 1810464:	e0bffc15 	stw	r2,-16(fp)
 1810468:	00000e06 	br	18104a4 <alt_erase_block_intel+0x138>
    }
    else if (status & 0x7f)
 181046c:	e0bffd03 	ldbu	r2,-12(fp)
 1810470:	10803fcc 	andi	r2,r2,255
 1810474:	10801fcc 	andi	r2,r2,127
 1810478:	1005003a 	cmpeq	r2,r2,zero
 181047c:	1000091e 	bne	r2,zero,18104a4 <alt_erase_block_intel+0x138>
    {
      /* If we have an error of some kind bomb out */
      ret_code = -EIO;
 1810480:	00bffec4 	movi	r2,-5
 1810484:	e0bffc15 	stw	r2,-16(fp)
      status = IORD_8DIRECT(flash->dev.base_addr, block_offset);
 1810488:	e0bffb17 	ldw	r2,-20(fp)
 181048c:	10800a17 	ldw	r2,40(r2)
 1810490:	1007883a 	mov	r3,r2
 1810494:	e0bfff17 	ldw	r2,-4(fp)
 1810498:	1885883a 	add	r2,r3,r2
 181049c:	10800023 	ldbuio	r2,0(r2)
 18104a0:	e0bffd05 	stb	r2,-12(fp)
    }

    /* Put the device back into read array mode */
    flash->write_native((alt_u8*)flash->dev.base_addr + block_offset, 0xFF);
 18104a4:	e0bffb17 	ldw	r2,-20(fp)
 18104a8:	11803517 	ldw	r6,212(r2)
 18104ac:	e0bffb17 	ldw	r2,-20(fp)
 18104b0:	10800a17 	ldw	r2,40(r2)
 18104b4:	1007883a 	mov	r3,r2
 18104b8:	e0bfff17 	ldw	r2,-4(fp)
 18104bc:	1889883a 	add	r4,r3,r2
 18104c0:	01403fc4 	movi	r5,255
 18104c4:	303ee83a 	callr	r6
  }
  
  return ret_code;
 18104c8:	e0bffc17 	ldw	r2,-16(fp)
}
 18104cc:	e037883a 	mov	sp,fp
 18104d0:	dfc00117 	ldw	ra,4(sp)
 18104d4:	df000017 	ldw	fp,0(sp)
 18104d8:	dec00204 	addi	sp,sp,8
 18104dc:	f800283a 	ret

018104e0 <alt_unlock_block_intel>:
/*
* Private Intel specific functions
*/

static int alt_unlock_block_intel(alt_flash_cfi_dev* flash, int block_offset)
{
 18104e0:	defff904 	addi	sp,sp,-28
 18104e4:	dfc00615 	stw	ra,24(sp)
 18104e8:	df000515 	stw	fp,20(sp)
 18104ec:	df000504 	addi	fp,sp,20
 18104f0:	e13ffe15 	stw	r4,-8(fp)
 18104f4:	e17fff15 	stw	r5,-4(fp)
  alt_u8  locked;
  alt_u8  status;
  int ret_code = 0;
 18104f8:	e03ffc15 	stw	zero,-16(fp)
  int timeout = flash->write_timeout * 100;
 18104fc:	e0bffe17 	ldw	r2,-8(fp)
 1810500:	10803017 	ldw	r2,192(r2)
 1810504:	10801924 	muli	r2,r2,100
 1810508:	e0bffb15 	stw	r2,-20(fp)


  /*
  * Is this block locked?
  */
  flash->write_native((alt_u8*)flash->dev.base_addr + block_offset, 0x90);
 181050c:	e0bffe17 	ldw	r2,-8(fp)
 1810510:	11803517 	ldw	r6,212(r2)
 1810514:	e0bffe17 	ldw	r2,-8(fp)
 1810518:	10800a17 	ldw	r2,40(r2)
 181051c:	1007883a 	mov	r3,r2
 1810520:	e0bfff17 	ldw	r2,-4(fp)
 1810524:	1889883a 	add	r4,r3,r2
 1810528:	01402404 	movi	r5,144
 181052c:	303ee83a 	callr	r6
  locked = IORD_8DIRECT(flash->dev.base_addr, block_offset + 4);
 1810530:	e0bffe17 	ldw	r2,-8(fp)
 1810534:	10800a17 	ldw	r2,40(r2)
 1810538:	1007883a 	mov	r3,r2
 181053c:	e0bfff17 	ldw	r2,-4(fp)
 1810540:	1885883a 	add	r2,r3,r2
 1810544:	10800104 	addi	r2,r2,4
 1810548:	10800023 	ldbuio	r2,0(r2)
 181054c:	e0bffd45 	stb	r2,-11(fp)
  if (locked & 0x1)
 1810550:	e0bffd43 	ldbu	r2,-11(fp)
 1810554:	1080004c 	andi	r2,r2,1
 1810558:	10803fcc 	andi	r2,r2,255
 181055c:	1005003a 	cmpeq	r2,r2,zero
 1810560:	1000331e 	bne	r2,zero,1810630 <alt_unlock_block_intel+0x150>
  {
    flash->write_native((alt_u8*)flash->dev.base_addr + block_offset, 0x60);
 1810564:	e0bffe17 	ldw	r2,-8(fp)
 1810568:	11803517 	ldw	r6,212(r2)
 181056c:	e0bffe17 	ldw	r2,-8(fp)
 1810570:	10800a17 	ldw	r2,40(r2)
 1810574:	1007883a 	mov	r3,r2
 1810578:	e0bfff17 	ldw	r2,-4(fp)
 181057c:	1889883a 	add	r4,r3,r2
 1810580:	01401804 	movi	r5,96
 1810584:	303ee83a 	callr	r6
    flash->write_native((alt_u8*)flash->dev.base_addr + block_offset, 0xD0);
 1810588:	e0bffe17 	ldw	r2,-8(fp)
 181058c:	11803517 	ldw	r6,212(r2)
 1810590:	e0bffe17 	ldw	r2,-8(fp)
 1810594:	10800a17 	ldw	r2,40(r2)
 1810598:	1007883a 	mov	r3,r2
 181059c:	e0bfff17 	ldw	r2,-4(fp)
 18105a0:	1889883a 	add	r4,r3,r2
 18105a4:	01403404 	movi	r5,208
 18105a8:	303ee83a 	callr	r6

    do
    {
      status = IORD_8DIRECT(flash->dev.base_addr, block_offset);
 18105ac:	e0bffe17 	ldw	r2,-8(fp)
 18105b0:	10800a17 	ldw	r2,40(r2)
 18105b4:	1007883a 	mov	r3,r2
 18105b8:	e0bfff17 	ldw	r2,-4(fp)
 18105bc:	1885883a 	add	r2,r3,r2
 18105c0:	10800023 	ldbuio	r2,0(r2)
 18105c4:	e0bffd05 	stb	r2,-12(fp)
      if (status & 0x80)
 18105c8:	e0bffd03 	ldbu	r2,-12(fp)
 18105cc:	10803fcc 	andi	r2,r2,255
 18105d0:	1080201c 	xori	r2,r2,128
 18105d4:	10bfe004 	addi	r2,r2,-128
 18105d8:	1004803a 	cmplt	r2,r2,zero
 18105dc:	1000081e 	bne	r2,zero,1810600 <alt_unlock_block_intel+0x120>
      {
        break;
      }
      timeout--;
 18105e0:	e0bffb17 	ldw	r2,-20(fp)
 18105e4:	10bfffc4 	addi	r2,r2,-1
 18105e8:	e0bffb15 	stw	r2,-20(fp)
      usleep(1);
 18105ec:	01000044 	movi	r4,1
 18105f0:	180abe80 	call	180abe8 <usleep>
    }while(timeout > 0);
 18105f4:	e0bffb17 	ldw	r2,-20(fp)
 18105f8:	10800048 	cmpgei	r2,r2,1
 18105fc:	103feb1e 	bne	r2,zero,18105ac <alt_unlock_block_intel+0xcc>

    if (timeout == 0)
 1810600:	e0bffb17 	ldw	r2,-20(fp)
 1810604:	1004c03a 	cmpne	r2,r2,zero
 1810608:	1000031e 	bne	r2,zero,1810618 <alt_unlock_block_intel+0x138>
    {
      ret_code = -ETIMEDOUT;
 181060c:	00bfe304 	movi	r2,-116
 1810610:	e0bffc15 	stw	r2,-16(fp)
 1810614:	00000606 	br	1810630 <alt_unlock_block_intel+0x150>
    }
    else if (status & 0x7f)
 1810618:	e0bffd03 	ldbu	r2,-12(fp)
 181061c:	10801fcc 	andi	r2,r2,127
 1810620:	1005003a 	cmpeq	r2,r2,zero
 1810624:	1000021e 	bne	r2,zero,1810630 <alt_unlock_block_intel+0x150>
    {
      /* If we have an error of some kind bomb out */
      ret_code = -EIO;
 1810628:	00bffec4 	movi	r2,-5
 181062c:	e0bffc15 	stw	r2,-16(fp)
  }

  /*
  * Back to Read Array mode
  */
  flash->write_native((alt_u8*)flash->dev.base_addr + block_offset, 0xFF);
 1810630:	e0bffe17 	ldw	r2,-8(fp)
 1810634:	11803517 	ldw	r6,212(r2)
 1810638:	e0bffe17 	ldw	r2,-8(fp)
 181063c:	10800a17 	ldw	r2,40(r2)
 1810640:	1007883a 	mov	r3,r2
 1810644:	e0bfff17 	ldw	r2,-4(fp)
 1810648:	1889883a 	add	r4,r3,r2
 181064c:	01403fc4 	movi	r5,255
 1810650:	303ee83a 	callr	r6

  return ret_code;
 1810654:	e0bffc17 	ldw	r2,-16(fp)
}
 1810658:	e037883a 	mov	sp,fp
 181065c:	dfc00117 	ldw	ra,4(sp)
 1810660:	df000017 	ldw	fp,0(sp)
 1810664:	dec00204 	addi	sp,sp,8
 1810668:	f800283a 	ret

0181066c <alt_write_word_intel>:
 * offset bytes into the flash
 */
 
int alt_write_word_intel( alt_flash_cfi_dev* flash, 
                                  const int offset, const alt_u8* src_addr)
{ 
 181066c:	defff904 	addi	sp,sp,-28
 1810670:	dfc00615 	stw	ra,24(sp)
 1810674:	df000515 	stw	fp,20(sp)
 1810678:	df000504 	addi	fp,sp,20
 181067c:	e13ffd15 	stw	r4,-12(fp)
 1810680:	e17ffe15 	stw	r5,-8(fp)
 1810684:	e1bfff15 	stw	r6,-4(fp)
  int ret_code = 0;
 1810688:	e03ffc15 	stw	zero,-16(fp)
  alt_u8 status;
  (*flash->write_native)((alt_u8*)flash->dev.base_addr+offset, 0x40);
 181068c:	e0bffd17 	ldw	r2,-12(fp)
 1810690:	11803517 	ldw	r6,212(r2)
 1810694:	e0bffd17 	ldw	r2,-12(fp)
 1810698:	10800a17 	ldw	r2,40(r2)
 181069c:	1007883a 	mov	r3,r2
 18106a0:	e0bffe17 	ldw	r2,-8(fp)
 18106a4:	1889883a 	add	r4,r3,r2
 18106a8:	01401004 	movi	r5,64
 18106ac:	303ee83a 	callr	r6
  alt_write_value_to_flash(flash, offset, src_addr);
 18106b0:	e13ffd17 	ldw	r4,-12(fp)
 18106b4:	e17ffe17 	ldw	r5,-8(fp)
 18106b8:	e1bfff17 	ldw	r6,-4(fp)
 18106bc:	180b32c0 	call	180b32c <alt_write_value_to_flash>

  do
  {
    status = IORD_8DIRECT(flash->dev.base_addr, offset);
 18106c0:	e0bffd17 	ldw	r2,-12(fp)
 18106c4:	10800a17 	ldw	r2,40(r2)
 18106c8:	1007883a 	mov	r3,r2
 18106cc:	e0bffe17 	ldw	r2,-8(fp)
 18106d0:	1885883a 	add	r2,r3,r2
 18106d4:	10800023 	ldbuio	r2,0(r2)
 18106d8:	e0bffb05 	stb	r2,-20(fp)
  }while(!(status & 0x80));
 18106dc:	e0bffb03 	ldbu	r2,-20(fp)
 18106e0:	10803fcc 	andi	r2,r2,255
 18106e4:	1080201c 	xori	r2,r2,128
 18106e8:	10bfe004 	addi	r2,r2,-128
 18106ec:	1004403a 	cmpge	r2,r2,zero
 18106f0:	103ff31e 	bne	r2,zero,18106c0 <alt_write_word_intel+0x54>

  /* If we have an error of some kind bomb out */
  if (status & 0x7f)
 18106f4:	e0bffb03 	ldbu	r2,-20(fp)
 18106f8:	10801fcc 	andi	r2,r2,127
 18106fc:	1005003a 	cmpeq	r2,r2,zero
 1810700:	1000021e 	bne	r2,zero,181070c <alt_write_word_intel+0xa0>
  {
    ret_code = -EIO;
 1810704:	00bffec4 	movi	r2,-5
 1810708:	e0bffc15 	stw	r2,-16(fp)
  }

  /* Put the device back into read array mode */
  flash->write_native((alt_u8*)flash->dev.base_addr + offset, 0xFF);
 181070c:	e0bffd17 	ldw	r2,-12(fp)
 1810710:	11803517 	ldw	r6,212(r2)
 1810714:	e0bffd17 	ldw	r2,-12(fp)
 1810718:	10800a17 	ldw	r2,40(r2)
 181071c:	1007883a 	mov	r3,r2
 1810720:	e0bffe17 	ldw	r2,-8(fp)
 1810724:	1889883a 	add	r4,r3,r2
 1810728:	01403fc4 	movi	r5,255
 181072c:	303ee83a 	callr	r6
  
  return ret_code;
 1810730:	e0bffc17 	ldw	r2,-16(fp)
}
 1810734:	e037883a 	mov	sp,fp
 1810738:	dfc00117 	ldw	ra,4(sp)
 181073c:	df000017 	ldw	fp,0(sp)
 1810740:	dec00204 	addi	sp,sp,8
 1810744:	f800283a 	ret

01810748 <alt_find_dev>:
 * "name" must be an exact match for the devices registered name for a match to
 * be found.
 */
 
alt_dev* alt_find_dev(const char* name, alt_llist* llist)
{
 1810748:	defff904 	addi	sp,sp,-28
 181074c:	dfc00615 	stw	ra,24(sp)
 1810750:	df000515 	stw	fp,20(sp)
 1810754:	df000504 	addi	fp,sp,20
 1810758:	e13ffd15 	stw	r4,-12(fp)
 181075c:	e17ffe15 	stw	r5,-8(fp)
  alt_dev* next = (alt_dev*) llist->next;
 1810760:	e0bffe17 	ldw	r2,-8(fp)
 1810764:	10800017 	ldw	r2,0(r2)
 1810768:	e0bffc15 	stw	r2,-16(fp)
  alt_32 len;

  len  = strlen(name) + 1;
 181076c:	e13ffd17 	ldw	r4,-12(fp)
 1810770:	18084e40 	call	18084e4 <strlen>
 1810774:	10800044 	addi	r2,r2,1
 1810778:	e0bffb15 	stw	r2,-20(fp)
  /*
   * Check each list entry in turn, until a match is found, or we reach the
   * end of the list (i.e. next winds up pointing back to the list head).
   */ 

  while (next != (alt_dev*) llist)
 181077c:	00000d06 	br	18107b4 <alt_find_dev+0x6c>
    /* 
     * memcmp() is used here rather than strcmp() in order to reduce the size
     * of the executable.
     */

    if (!memcmp (next->name, name, len))
 1810780:	e0bffc17 	ldw	r2,-16(fp)
 1810784:	11000217 	ldw	r4,8(r2)
 1810788:	e1bffb17 	ldw	r6,-20(fp)
 181078c:	e17ffd17 	ldw	r5,-12(fp)
 1810790:	1810adc0 	call	1810adc <memcmp>
 1810794:	1004c03a 	cmpne	r2,r2,zero
 1810798:	1000031e 	bne	r2,zero,18107a8 <alt_find_dev+0x60>
    {
      /* match found */

      return next;
 181079c:	e0bffc17 	ldw	r2,-16(fp)
 18107a0:	e0bfff15 	stw	r2,-4(fp)
 18107a4:	00000706 	br	18107c4 <alt_find_dev+0x7c>
    }
    next = (alt_dev*) next->llist.next;
 18107a8:	e0bffc17 	ldw	r2,-16(fp)
 18107ac:	10800017 	ldw	r2,0(r2)
 18107b0:	e0bffc15 	stw	r2,-16(fp)
  /*
   * Check each list entry in turn, until a match is found, or we reach the
   * end of the list (i.e. next winds up pointing back to the list head).
   */ 

  while (next != (alt_dev*) llist)
 18107b4:	e0fffe17 	ldw	r3,-8(fp)
 18107b8:	e0bffc17 	ldw	r2,-16(fp)
 18107bc:	10fff01e 	bne	r2,r3,1810780 <alt_find_dev+0x38>
    next = (alt_dev*) next->llist.next;
  }
  
  /* No match found */
  
  return NULL;
 18107c0:	e03fff15 	stw	zero,-4(fp)
 18107c4:	e0bfff17 	ldw	r2,-4(fp)
}
 18107c8:	e037883a 	mov	sp,fp
 18107cc:	dfc00117 	ldw	ra,4(sp)
 18107d0:	df000017 	ldw	fp,0(sp)
 18107d4:	dec00204 	addi	sp,sp,8
 18107d8:	f800283a 	ret

018107dc <alt_find_file>:
 * either '/' or '\0' is the prefix of the filename. For example the filename:
 * "/myfilesystem/junk.txt" would match: "/myfilesystem", but not: "/myfile". 
 */
 
alt_dev* alt_find_file (const char* name)
{
 18107dc:	defffa04 	addi	sp,sp,-24
 18107e0:	dfc00515 	stw	ra,20(sp)
 18107e4:	df000415 	stw	fp,16(sp)
 18107e8:	df000404 	addi	fp,sp,16
 18107ec:	e13ffe15 	stw	r4,-8(fp)
  alt_dev* next = (alt_dev*) alt_fs_list.next;   
 18107f0:	00806074 	movhi	r2,385
 18107f4:	108c7d04 	addi	r2,r2,12788
 18107f8:	10800017 	ldw	r2,0(r2)
 18107fc:	e0bffd15 	stw	r2,-12(fp)
  /*
   * Check each list entry in turn, until a match is found, or we reach the
   * end of the list (i.e. next winds up pointing back to the list head).
   */ 
 
  while (next != (alt_dev*) &alt_fs_list)
 1810800:	00003306 	br	18108d0 <alt_find_file+0xf4>
  {
    len = strlen(next->name);
 1810804:	e0bffd17 	ldw	r2,-12(fp)
 1810808:	11000217 	ldw	r4,8(r2)
 181080c:	18084e40 	call	18084e4 <strlen>
 1810810:	e0bffc15 	stw	r2,-16(fp)
    
    if (next->name[len-1] == '/')
 1810814:	e0bffd17 	ldw	r2,-12(fp)
 1810818:	10c00217 	ldw	r3,8(r2)
 181081c:	e0bffc17 	ldw	r2,-16(fp)
 1810820:	1885883a 	add	r2,r3,r2
 1810824:	10bfffc4 	addi	r2,r2,-1
 1810828:	10800003 	ldbu	r2,0(r2)
 181082c:	10803fcc 	andi	r2,r2,255
 1810830:	1080201c 	xori	r2,r2,128
 1810834:	10bfe004 	addi	r2,r2,-128
 1810838:	10800bd8 	cmpnei	r2,r2,47
 181083c:	1000031e 	bne	r2,zero,181084c <alt_find_file+0x70>
    {
      len -= 1;
 1810840:	e0bffc17 	ldw	r2,-16(fp)
 1810844:	10bfffc4 	addi	r2,r2,-1
 1810848:	e0bffc15 	stw	r2,-16(fp)
    }

    if (((name[len] == '/') || (name[len] == '\0')) && 
 181084c:	e0bffc17 	ldw	r2,-16(fp)
 1810850:	1007883a 	mov	r3,r2
 1810854:	e0bffe17 	ldw	r2,-8(fp)
 1810858:	1885883a 	add	r2,r3,r2
 181085c:	10800003 	ldbu	r2,0(r2)
 1810860:	10803fcc 	andi	r2,r2,255
 1810864:	1080201c 	xori	r2,r2,128
 1810868:	10bfe004 	addi	r2,r2,-128
 181086c:	10800be0 	cmpeqi	r2,r2,47
 1810870:	10000a1e 	bne	r2,zero,181089c <alt_find_file+0xc0>
 1810874:	e0bffc17 	ldw	r2,-16(fp)
 1810878:	1007883a 	mov	r3,r2
 181087c:	e0bffe17 	ldw	r2,-8(fp)
 1810880:	1885883a 	add	r2,r3,r2
 1810884:	10800003 	ldbu	r2,0(r2)
 1810888:	10803fcc 	andi	r2,r2,255
 181088c:	1080201c 	xori	r2,r2,128
 1810890:	10bfe004 	addi	r2,r2,-128
 1810894:	1004c03a 	cmpne	r2,r2,zero
 1810898:	10000a1e 	bne	r2,zero,18108c4 <alt_find_file+0xe8>
 181089c:	e0bffd17 	ldw	r2,-12(fp)
 18108a0:	11000217 	ldw	r4,8(r2)
 18108a4:	e1bffc17 	ldw	r6,-16(fp)
 18108a8:	e17ffe17 	ldw	r5,-8(fp)
 18108ac:	1810adc0 	call	1810adc <memcmp>
 18108b0:	1004c03a 	cmpne	r2,r2,zero
 18108b4:	1000031e 	bne	r2,zero,18108c4 <alt_find_file+0xe8>
        !memcmp (next->name, name, len))
    {
      /* match found */

      return next;
 18108b8:	e0bffd17 	ldw	r2,-12(fp)
 18108bc:	e0bfff15 	stw	r2,-4(fp)
 18108c0:	00000806 	br	18108e4 <alt_find_file+0x108>
    }
    next = (alt_dev*) next->llist.next;
 18108c4:	e0bffd17 	ldw	r2,-12(fp)
 18108c8:	10800017 	ldw	r2,0(r2)
 18108cc:	e0bffd15 	stw	r2,-12(fp)
  /*
   * Check each list entry in turn, until a match is found, or we reach the
   * end of the list (i.e. next winds up pointing back to the list head).
   */ 
 
  while (next != (alt_dev*) &alt_fs_list)
 18108d0:	00c06074 	movhi	r3,385
 18108d4:	18cc7d04 	addi	r3,r3,12788
 18108d8:	e0bffd17 	ldw	r2,-12(fp)
 18108dc:	10ffc91e 	bne	r2,r3,1810804 <alt_find_file+0x28>
    next = (alt_dev*) next->llist.next;
  }
  
  /* No match found */
  
  return NULL;     
 18108e0:	e03fff15 	stw	zero,-4(fp)
 18108e4:	e0bfff17 	ldw	r2,-4(fp)
}
 18108e8:	e037883a 	mov	sp,fp
 18108ec:	dfc00117 	ldw	ra,4(sp)
 18108f0:	df000017 	ldw	fp,0(sp)
 18108f4:	dec00204 	addi	sp,sp,8
 18108f8:	f800283a 	ret

018108fc <alt_get_fd>:
 * the offset of the file descriptor within the file descriptor array). A
 * negative value indicates failure.
 */

int alt_get_fd (alt_dev* dev)
{
 18108fc:	defffc04 	addi	sp,sp,-16
 1810900:	df000315 	stw	fp,12(sp)
 1810904:	df000304 	addi	fp,sp,12
 1810908:	e13fff15 	stw	r4,-4(fp)
  alt_32 i;
  int rc = -EMFILE;
 181090c:	00bffa04 	movi	r2,-24
 1810910:	e0bffd15 	stw	r2,-12(fp)
   * indicates the highest file descriptor ever allocated. This is used to
   * improve efficency when searching the file descriptor list, and 
   * therefore reduce contention on the alt_fd_list_lock semaphore. 
   */

  for (i = 0; i < ALT_MAX_FD; i++)
 1810914:	e03ffe15 	stw	zero,-8(fp)
 1810918:	00001e06 	br	1810994 <alt_get_fd+0x98>
  {
    if (!alt_fd_list[i].dev)
 181091c:	e0bffe17 	ldw	r2,-8(fp)
 1810920:	00c06074 	movhi	r3,385
 1810924:	18c75004 	addi	r3,r3,7488
 1810928:	10800324 	muli	r2,r2,12
 181092c:	10c5883a 	add	r2,r2,r3
 1810930:	10800017 	ldw	r2,0(r2)
 1810934:	1004c03a 	cmpne	r2,r2,zero
 1810938:	1000131e 	bne	r2,zero,1810988 <alt_get_fd+0x8c>
    {
      alt_fd_list[i].dev = dev;
 181093c:	e0bffe17 	ldw	r2,-8(fp)
 1810940:	00c06074 	movhi	r3,385
 1810944:	18c75004 	addi	r3,r3,7488
 1810948:	10800324 	muli	r2,r2,12
 181094c:	10c7883a 	add	r3,r2,r3
 1810950:	e0bfff17 	ldw	r2,-4(fp)
 1810954:	18800015 	stw	r2,0(r3)
      if (i > alt_max_fd)
 1810958:	00806074 	movhi	r2,385
 181095c:	108c8104 	addi	r2,r2,12804
 1810960:	10c00017 	ldw	r3,0(r2)
 1810964:	e0bffe17 	ldw	r2,-8(fp)
 1810968:	1880040e 	bge	r3,r2,181097c <alt_get_fd+0x80>
      {
        alt_max_fd = i;
 181096c:	00c06074 	movhi	r3,385
 1810970:	18cc8104 	addi	r3,r3,12804
 1810974:	e0bffe17 	ldw	r2,-8(fp)
 1810978:	18800015 	stw	r2,0(r3)
      }
      rc = i;
 181097c:	e0bffe17 	ldw	r2,-8(fp)
 1810980:	e0bffd15 	stw	r2,-12(fp)
      goto alt_get_fd_exit;
 1810984:	00000606 	br	18109a0 <alt_get_fd+0xa4>
   * indicates the highest file descriptor ever allocated. This is used to
   * improve efficency when searching the file descriptor list, and 
   * therefore reduce contention on the alt_fd_list_lock semaphore. 
   */

  for (i = 0; i < ALT_MAX_FD; i++)
 1810988:	e0bffe17 	ldw	r2,-8(fp)
 181098c:	10800044 	addi	r2,r2,1
 1810990:	e0bffe15 	stw	r2,-8(fp)
 1810994:	e0bffe17 	ldw	r2,-8(fp)
 1810998:	10800810 	cmplti	r2,r2,32
 181099c:	103fdf1e 	bne	r2,zero,181091c <alt_get_fd+0x20>
   * file descriptor pool.
   */

  ALT_SEM_POST(alt_fd_list_lock);

  return rc;
 18109a0:	e0bffd17 	ldw	r2,-12(fp)
}
 18109a4:	e037883a 	mov	sp,fp
 18109a8:	df000017 	ldw	fp,0(sp)
 18109ac:	dec00104 	addi	sp,sp,4
 18109b0:	f800283a 	ret

018109b4 <alt_exception_cause_generated_bad_addr>:
 *
 * Return: 1: BADADDR (bad_addr argument to handler) is valid
 *         0: BADADDR is not valid
 */
int alt_exception_cause_generated_bad_addr(alt_exception_cause cause)
{
 18109b4:	defffc04 	addi	sp,sp,-16
 18109b8:	df000315 	stw	fp,12(sp)
 18109bc:	df000304 	addi	fp,sp,12
 18109c0:	e13ffd15 	stw	r4,-12(fp)
  switch (cause) {
 18109c4:	e0bffd17 	ldw	r2,-12(fp)
 18109c8:	10bffe84 	addi	r2,r2,-6
 18109cc:	e0bfff15 	stw	r2,-4(fp)
 18109d0:	e0ffff17 	ldw	r3,-4(fp)
 18109d4:	18800328 	cmpgeui	r2,r3,12
 18109d8:	1000271e 	bne	r2,zero,1810a78 <alt_exception_cause_generated_bad_addr+0xc4>
 18109dc:	e13fff17 	ldw	r4,-4(fp)
 18109e0:	e13fff17 	ldw	r4,-4(fp)
 18109e4:	2105883a 	add	r2,r4,r4
 18109e8:	1087883a 	add	r3,r2,r2
 18109ec:	00806074 	movhi	r2,385
 18109f0:	10828004 	addi	r2,r2,2560
 18109f4:	1885883a 	add	r2,r3,r2
 18109f8:	10800017 	ldw	r2,0(r2)
 18109fc:	1000683a 	jmp	r2
 1810a00:	01810a3c 	xorhi	r6,zero,1064
 1810a04:	01810a48 	cmpgei	r6,zero,1065
 1810a08:	01810a78 	rdprs	r6,zero,1065
 1810a0c:	01810a78 	rdprs	r6,zero,1065
 1810a10:	01810a78 	rdprs	r6,zero,1065
 1810a14:	01810a30 	cmpltui	r6,zero,1064
 1810a18:	01810a78 	rdprs	r6,zero,1065
 1810a1c:	01810a78 	rdprs	r6,zero,1065
 1810a20:	01810a54 	movui	r6,1065
 1810a24:	01810a60 	cmpeqi	r6,zero,1065
 1810a28:	01810a78 	rdprs	r6,zero,1065
 1810a2c:	01810a6c 	andhi	r6,zero,1065
  case NIOS2_EXCEPTION_SUPERVISOR_ONLY_DATA_ADDR:
    return 1;
 1810a30:	00800044 	movi	r2,1
 1810a34:	e0bffe15 	stw	r2,-8(fp)
 1810a38:	00001006 	br	1810a7c <alt_exception_cause_generated_bad_addr+0xc8>
  case NIOS2_EXCEPTION_MISALIGNED_DATA_ADDR:
    return 1;
 1810a3c:	00c00044 	movi	r3,1
 1810a40:	e0fffe15 	stw	r3,-8(fp)
 1810a44:	00000d06 	br	1810a7c <alt_exception_cause_generated_bad_addr+0xc8>
  case NIOS2_EXCEPTION_MISALIGNED_TARGET_PC:
    return 1;
 1810a48:	01000044 	movi	r4,1
 1810a4c:	e13ffe15 	stw	r4,-8(fp)
 1810a50:	00000a06 	br	1810a7c <alt_exception_cause_generated_bad_addr+0xc8>
  case NIOS2_EXCEPTION_TLB_READ_PERM_VIOLATION:
    return 1;
 1810a54:	00800044 	movi	r2,1
 1810a58:	e0bffe15 	stw	r2,-8(fp)
 1810a5c:	00000706 	br	1810a7c <alt_exception_cause_generated_bad_addr+0xc8>
  case NIOS2_EXCEPTION_TLB_WRITE_PERM_VIOLATION:
    return 1;
 1810a60:	00c00044 	movi	r3,1
 1810a64:	e0fffe15 	stw	r3,-8(fp)
 1810a68:	00000406 	br	1810a7c <alt_exception_cause_generated_bad_addr+0xc8>
  case NIOS2_EXCEPTION_MPU_DATA_REGION_VIOLATION:
    return 1;
 1810a6c:	01000044 	movi	r4,1
 1810a70:	e13ffe15 	stw	r4,-8(fp)
 1810a74:	00000106 	br	1810a7c <alt_exception_cause_generated_bad_addr+0xc8>
  default:
    return 0;
 1810a78:	e03ffe15 	stw	zero,-8(fp)
 1810a7c:	e0bffe17 	ldw	r2,-8(fp)
  }
}
 1810a80:	e037883a 	mov	sp,fp
 1810a84:	df000017 	ldw	fp,0(sp)
 1810a88:	dec00104 	addi	sp,sp,4
 1810a8c:	f800283a 	ret

01810a90 <atexit>:
 1810a90:	200b883a 	mov	r5,r4
 1810a94:	000d883a 	mov	r6,zero
 1810a98:	0009883a 	mov	r4,zero
 1810a9c:	000f883a 	mov	r7,zero
 1810aa0:	1810b501 	jmpi	1810b50 <__register_exitproc>

01810aa4 <exit>:
 1810aa4:	defffe04 	addi	sp,sp,-8
 1810aa8:	000b883a 	mov	r5,zero
 1810aac:	dc000015 	stw	r16,0(sp)
 1810ab0:	dfc00115 	stw	ra,4(sp)
 1810ab4:	2021883a 	mov	r16,r4
 1810ab8:	1810c880 	call	1810c88 <__call_exitprocs>
 1810abc:	00806074 	movhi	r2,385
 1810ac0:	108c7804 	addi	r2,r2,12768
 1810ac4:	11000017 	ldw	r4,0(r2)
 1810ac8:	20800f17 	ldw	r2,60(r4)
 1810acc:	10000126 	beq	r2,zero,1810ad4 <exit+0x30>
 1810ad0:	103ee83a 	callr	r2
 1810ad4:	8009883a 	mov	r4,r16
 1810ad8:	1810e780 	call	1810e78 <_exit>

01810adc <memcmp>:
 1810adc:	00c000c4 	movi	r3,3
 1810ae0:	1980032e 	bgeu	r3,r6,1810af0 <memcmp+0x14>
 1810ae4:	2144b03a 	or	r2,r4,r5
 1810ae8:	10c4703a 	and	r2,r2,r3
 1810aec:	10000f26 	beq	r2,zero,1810b2c <memcmp+0x50>
 1810af0:	31ffffc4 	addi	r7,r6,-1
 1810af4:	3000061e 	bne	r6,zero,1810b10 <memcmp+0x34>
 1810af8:	00000a06 	br	1810b24 <memcmp+0x48>
 1810afc:	39ffffc4 	addi	r7,r7,-1
 1810b00:	00bfffc4 	movi	r2,-1
 1810b04:	21000044 	addi	r4,r4,1
 1810b08:	29400044 	addi	r5,r5,1
 1810b0c:	38800526 	beq	r7,r2,1810b24 <memcmp+0x48>
 1810b10:	20c00003 	ldbu	r3,0(r4)
 1810b14:	28800003 	ldbu	r2,0(r5)
 1810b18:	18bff826 	beq	r3,r2,1810afc <memcmp+0x20>
 1810b1c:	1885c83a 	sub	r2,r3,r2
 1810b20:	f800283a 	ret
 1810b24:	0005883a 	mov	r2,zero
 1810b28:	f800283a 	ret
 1810b2c:	180f883a 	mov	r7,r3
 1810b30:	20c00017 	ldw	r3,0(r4)
 1810b34:	28800017 	ldw	r2,0(r5)
 1810b38:	18bfed1e 	bne	r3,r2,1810af0 <memcmp+0x14>
 1810b3c:	31bfff04 	addi	r6,r6,-4
 1810b40:	21000104 	addi	r4,r4,4
 1810b44:	29400104 	addi	r5,r5,4
 1810b48:	39bff936 	bltu	r7,r6,1810b30 <memcmp+0x54>
 1810b4c:	003fe806 	br	1810af0 <memcmp+0x14>

01810b50 <__register_exitproc>:
 1810b50:	defffa04 	addi	sp,sp,-24
 1810b54:	00806074 	movhi	r2,385
 1810b58:	108c7804 	addi	r2,r2,12768
 1810b5c:	dc000015 	stw	r16,0(sp)
 1810b60:	14000017 	ldw	r16,0(r2)
 1810b64:	dd000415 	stw	r20,16(sp)
 1810b68:	2829883a 	mov	r20,r5
 1810b6c:	81405217 	ldw	r5,328(r16)
 1810b70:	dcc00315 	stw	r19,12(sp)
 1810b74:	dc800215 	stw	r18,8(sp)
 1810b78:	dc400115 	stw	r17,4(sp)
 1810b7c:	dfc00515 	stw	ra,20(sp)
 1810b80:	2023883a 	mov	r17,r4
 1810b84:	3027883a 	mov	r19,r6
 1810b88:	3825883a 	mov	r18,r7
 1810b8c:	28002526 	beq	r5,zero,1810c24 <__register_exitproc+0xd4>
 1810b90:	29000117 	ldw	r4,4(r5)
 1810b94:	008007c4 	movi	r2,31
 1810b98:	11002716 	blt	r2,r4,1810c38 <__register_exitproc+0xe8>
 1810b9c:	8800101e 	bne	r17,zero,1810be0 <__register_exitproc+0x90>
 1810ba0:	2105883a 	add	r2,r4,r4
 1810ba4:	1085883a 	add	r2,r2,r2
 1810ba8:	20c00044 	addi	r3,r4,1
 1810bac:	1145883a 	add	r2,r2,r5
 1810bb0:	0009883a 	mov	r4,zero
 1810bb4:	15000215 	stw	r20,8(r2)
 1810bb8:	28c00115 	stw	r3,4(r5)
 1810bbc:	2005883a 	mov	r2,r4
 1810bc0:	dfc00517 	ldw	ra,20(sp)
 1810bc4:	dd000417 	ldw	r20,16(sp)
 1810bc8:	dcc00317 	ldw	r19,12(sp)
 1810bcc:	dc800217 	ldw	r18,8(sp)
 1810bd0:	dc400117 	ldw	r17,4(sp)
 1810bd4:	dc000017 	ldw	r16,0(sp)
 1810bd8:	dec00604 	addi	sp,sp,24
 1810bdc:	f800283a 	ret
 1810be0:	29802204 	addi	r6,r5,136
 1810be4:	00800044 	movi	r2,1
 1810be8:	110e983a 	sll	r7,r2,r4
 1810bec:	30c04017 	ldw	r3,256(r6)
 1810bf0:	2105883a 	add	r2,r4,r4
 1810bf4:	1085883a 	add	r2,r2,r2
 1810bf8:	1185883a 	add	r2,r2,r6
 1810bfc:	19c6b03a 	or	r3,r3,r7
 1810c00:	14802015 	stw	r18,128(r2)
 1810c04:	14c00015 	stw	r19,0(r2)
 1810c08:	00800084 	movi	r2,2
 1810c0c:	30c04015 	stw	r3,256(r6)
 1810c10:	88bfe31e 	bne	r17,r2,1810ba0 <__register_exitproc+0x50>
 1810c14:	30804117 	ldw	r2,260(r6)
 1810c18:	11c4b03a 	or	r2,r2,r7
 1810c1c:	30804115 	stw	r2,260(r6)
 1810c20:	003fdf06 	br	1810ba0 <__register_exitproc+0x50>
 1810c24:	00806074 	movhi	r2,385
 1810c28:	108ce304 	addi	r2,r2,13196
 1810c2c:	100b883a 	mov	r5,r2
 1810c30:	80805215 	stw	r2,328(r16)
 1810c34:	003fd606 	br	1810b90 <__register_exitproc+0x40>
 1810c38:	00800034 	movhi	r2,0
 1810c3c:	10800004 	addi	r2,r2,0
 1810c40:	1000021e 	bne	r2,zero,1810c4c <__register_exitproc+0xfc>
 1810c44:	013fffc4 	movi	r4,-1
 1810c48:	003fdc06 	br	1810bbc <__register_exitproc+0x6c>
 1810c4c:	01006404 	movi	r4,400
 1810c50:	103ee83a 	callr	r2
 1810c54:	1007883a 	mov	r3,r2
 1810c58:	103ffa26 	beq	r2,zero,1810c44 <__register_exitproc+0xf4>
 1810c5c:	80805217 	ldw	r2,328(r16)
 1810c60:	180b883a 	mov	r5,r3
 1810c64:	18000115 	stw	zero,4(r3)
 1810c68:	18800015 	stw	r2,0(r3)
 1810c6c:	80c05215 	stw	r3,328(r16)
 1810c70:	18006215 	stw	zero,392(r3)
 1810c74:	18006315 	stw	zero,396(r3)
 1810c78:	0009883a 	mov	r4,zero
 1810c7c:	883fc826 	beq	r17,zero,1810ba0 <__register_exitproc+0x50>
 1810c80:	003fd706 	br	1810be0 <__register_exitproc+0x90>

01810c84 <register_fini>:
 1810c84:	f800283a 	ret

01810c88 <__call_exitprocs>:
 1810c88:	00806074 	movhi	r2,385
 1810c8c:	108c7804 	addi	r2,r2,12768
 1810c90:	10800017 	ldw	r2,0(r2)
 1810c94:	defff304 	addi	sp,sp,-52
 1810c98:	df000b15 	stw	fp,44(sp)
 1810c9c:	d8800115 	stw	r2,4(sp)
 1810ca0:	00800034 	movhi	r2,0
 1810ca4:	10800004 	addi	r2,r2,0
 1810ca8:	1005003a 	cmpeq	r2,r2,zero
 1810cac:	d8800215 	stw	r2,8(sp)
 1810cb0:	d8800117 	ldw	r2,4(sp)
 1810cb4:	dd400815 	stw	r21,32(sp)
 1810cb8:	dd000715 	stw	r20,28(sp)
 1810cbc:	10805204 	addi	r2,r2,328
 1810cc0:	dfc00c15 	stw	ra,48(sp)
 1810cc4:	ddc00a15 	stw	r23,40(sp)
 1810cc8:	dd800915 	stw	r22,36(sp)
 1810ccc:	dcc00615 	stw	r19,24(sp)
 1810cd0:	dc800515 	stw	r18,20(sp)
 1810cd4:	dc400415 	stw	r17,16(sp)
 1810cd8:	dc000315 	stw	r16,12(sp)
 1810cdc:	282b883a 	mov	r21,r5
 1810ce0:	2039883a 	mov	fp,r4
 1810ce4:	d8800015 	stw	r2,0(sp)
 1810ce8:	2829003a 	cmpeq	r20,r5,zero
 1810cec:	d8800117 	ldw	r2,4(sp)
 1810cf0:	14405217 	ldw	r17,328(r2)
 1810cf4:	88001026 	beq	r17,zero,1810d38 <__call_exitprocs+0xb0>
 1810cf8:	ddc00017 	ldw	r23,0(sp)
 1810cfc:	88800117 	ldw	r2,4(r17)
 1810d00:	8c802204 	addi	r18,r17,136
 1810d04:	143fffc4 	addi	r16,r2,-1
 1810d08:	80000916 	blt	r16,zero,1810d30 <__call_exitprocs+0xa8>
 1810d0c:	05bfffc4 	movi	r22,-1
 1810d10:	a000151e 	bne	r20,zero,1810d68 <__call_exitprocs+0xe0>
 1810d14:	8409883a 	add	r4,r16,r16
 1810d18:	2105883a 	add	r2,r4,r4
 1810d1c:	1485883a 	add	r2,r2,r18
 1810d20:	10c02017 	ldw	r3,128(r2)
 1810d24:	a8c01126 	beq	r21,r3,1810d6c <__call_exitprocs+0xe4>
 1810d28:	843fffc4 	addi	r16,r16,-1
 1810d2c:	85bff81e 	bne	r16,r22,1810d10 <__call_exitprocs+0x88>
 1810d30:	d8800217 	ldw	r2,8(sp)
 1810d34:	10003126 	beq	r2,zero,1810dfc <__call_exitprocs+0x174>
 1810d38:	dfc00c17 	ldw	ra,48(sp)
 1810d3c:	df000b17 	ldw	fp,44(sp)
 1810d40:	ddc00a17 	ldw	r23,40(sp)
 1810d44:	dd800917 	ldw	r22,36(sp)
 1810d48:	dd400817 	ldw	r21,32(sp)
 1810d4c:	dd000717 	ldw	r20,28(sp)
 1810d50:	dcc00617 	ldw	r19,24(sp)
 1810d54:	dc800517 	ldw	r18,20(sp)
 1810d58:	dc400417 	ldw	r17,16(sp)
 1810d5c:	dc000317 	ldw	r16,12(sp)
 1810d60:	dec00d04 	addi	sp,sp,52
 1810d64:	f800283a 	ret
 1810d68:	8409883a 	add	r4,r16,r16
 1810d6c:	88c00117 	ldw	r3,4(r17)
 1810d70:	2105883a 	add	r2,r4,r4
 1810d74:	1445883a 	add	r2,r2,r17
 1810d78:	18ffffc4 	addi	r3,r3,-1
 1810d7c:	11800217 	ldw	r6,8(r2)
 1810d80:	1c001526 	beq	r3,r16,1810dd8 <__call_exitprocs+0x150>
 1810d84:	10000215 	stw	zero,8(r2)
 1810d88:	303fe726 	beq	r6,zero,1810d28 <__call_exitprocs+0xa0>
 1810d8c:	00c00044 	movi	r3,1
 1810d90:	1c06983a 	sll	r3,r3,r16
 1810d94:	90804017 	ldw	r2,256(r18)
 1810d98:	8cc00117 	ldw	r19,4(r17)
 1810d9c:	1884703a 	and	r2,r3,r2
 1810da0:	10001426 	beq	r2,zero,1810df4 <__call_exitprocs+0x16c>
 1810da4:	90804117 	ldw	r2,260(r18)
 1810da8:	1884703a 	and	r2,r3,r2
 1810dac:	10000c1e 	bne	r2,zero,1810de0 <__call_exitprocs+0x158>
 1810db0:	2105883a 	add	r2,r4,r4
 1810db4:	1485883a 	add	r2,r2,r18
 1810db8:	11400017 	ldw	r5,0(r2)
 1810dbc:	e009883a 	mov	r4,fp
 1810dc0:	303ee83a 	callr	r6
 1810dc4:	88800117 	ldw	r2,4(r17)
 1810dc8:	98bfc81e 	bne	r19,r2,1810cec <__call_exitprocs+0x64>
 1810dcc:	b8800017 	ldw	r2,0(r23)
 1810dd0:	147fd526 	beq	r2,r17,1810d28 <__call_exitprocs+0xa0>
 1810dd4:	003fc506 	br	1810cec <__call_exitprocs+0x64>
 1810dd8:	8c000115 	stw	r16,4(r17)
 1810ddc:	003fea06 	br	1810d88 <__call_exitprocs+0x100>
 1810de0:	2105883a 	add	r2,r4,r4
 1810de4:	1485883a 	add	r2,r2,r18
 1810de8:	11000017 	ldw	r4,0(r2)
 1810dec:	303ee83a 	callr	r6
 1810df0:	003ff406 	br	1810dc4 <__call_exitprocs+0x13c>
 1810df4:	303ee83a 	callr	r6
 1810df8:	003ff206 	br	1810dc4 <__call_exitprocs+0x13c>
 1810dfc:	88800117 	ldw	r2,4(r17)
 1810e00:	1000081e 	bne	r2,zero,1810e24 <__call_exitprocs+0x19c>
 1810e04:	89000017 	ldw	r4,0(r17)
 1810e08:	20000726 	beq	r4,zero,1810e28 <__call_exitprocs+0x1a0>
 1810e0c:	b9000015 	stw	r4,0(r23)
 1810e10:	8809883a 	mov	r4,r17
 1810e14:	00000000 	call	0 <__alt_mem_sdram-0x1800000>
 1810e18:	bc400017 	ldw	r17,0(r23)
 1810e1c:	883fb71e 	bne	r17,zero,1810cfc <__call_exitprocs+0x74>
 1810e20:	003fc506 	br	1810d38 <__call_exitprocs+0xb0>
 1810e24:	89000017 	ldw	r4,0(r17)
 1810e28:	882f883a 	mov	r23,r17
 1810e2c:	2023883a 	mov	r17,r4
 1810e30:	883fb21e 	bne	r17,zero,1810cfc <__call_exitprocs+0x74>
 1810e34:	003fc006 	br	1810d38 <__call_exitprocs+0xb0>

01810e38 <alt_sim_halt>:

/*
 * Routine called on exit.
 */
static ALT_ALWAYS_INLINE void alt_sim_halt(int exit_code)
{
 1810e38:	defffd04 	addi	sp,sp,-12
 1810e3c:	df000215 	stw	fp,8(sp)
 1810e40:	df000204 	addi	fp,sp,8
 1810e44:	e13fff15 	stw	r4,-4(fp)
  int r2 = exit_code;
 1810e48:	e0bfff17 	ldw	r2,-4(fp)
 1810e4c:	e0bffe15 	stw	r2,-8(fp)
  __asm__ volatile ("\n0:\n\taddi %0,%0, -1\n\tbgt %0,zero,0b" : : "r" (ALT_CPU_FREQ/100) ); /* Delay for >30ms */

  __asm__ volatile ("break 2" : : "D02"(r2), "D03"(r3) ALT_GMON_DATA );

#else /* !DEBUG_STUB */
  if (r2) {
 1810e50:	e0bffe17 	ldw	r2,-8(fp)
 1810e54:	1005003a 	cmpeq	r2,r2,zero
 1810e58:	1000021e 	bne	r2,zero,1810e64 <alt_sim_halt+0x2c>
    ALT_SIM_FAIL();
 1810e5c:	002af070 	cmpltui	zero,zero,43969
 1810e60:	00000106 	br	1810e68 <alt_sim_halt+0x30>
  } else {
    ALT_SIM_PASS();
 1810e64:	002af0b0 	cmpltui	zero,zero,43970
  }
#endif /* DEBUG_STUB */
}
 1810e68:	e037883a 	mov	sp,fp
 1810e6c:	df000017 	ldw	fp,0(sp)
 1810e70:	dec00104 	addi	sp,sp,4
 1810e74:	f800283a 	ret

01810e78 <_exit>:
 *
 * ALT_EXIT is mapped onto the _exit() system call in alt_syscall.h
 */

void ALT_EXIT (int exit_code)
{
 1810e78:	defffd04 	addi	sp,sp,-12
 1810e7c:	dfc00215 	stw	ra,8(sp)
 1810e80:	df000115 	stw	fp,4(sp)
 1810e84:	df000104 	addi	fp,sp,4
 1810e88:	e13fff15 	stw	r4,-4(fp)
  ALT_OS_STOP();

  /* Provide notification to the simulator that we've stopped */

  ALT_LOG_PRINT_BOOT("[alt_exit.c] Calling ALT_SIM_HALT().\r\n");
  ALT_SIM_HALT(exit_code);
 1810e8c:	e13fff17 	ldw	r4,-4(fp)
 1810e90:	1810e380 	call	1810e38 <alt_sim_halt>

  /* spin forever, since there's no where to go back to */

  ALT_LOG_PRINT_BOOT("[alt_exit.c] Spinning forever.\r\n");
  while (1);
 1810e94:	003fff06 	br	1810e94 <_exit+0x1c>
 1810e98:	00000010 	cmplti	zero,zero,0
 1810e9c:	00000000 	call	0 <__alt_mem_sdram-0x1800000>
 1810ea0:	00527a01 	jmpi	527a0 <__alt_mem_sdram-0x17ad860>
 1810ea4:	011f7c01 	jmpi	11f7c0 <__alt_mem_sdram-0x16e0840>
 1810ea8:	001b0c0b 	ldhu	zero,27696(zero)
 1810eac:	00000028 	cmpgeui	zero,zero,0
 1810eb0:	00000018 	cmpnei	zero,zero,0
 1810eb4:	018089ec 	andhi	r6,zero,551
 1810eb8:	000005dc 	xori	zero,zero,23
 1810ebc:	400e4400 	call	400e440 <alt_instruction_exception_entry+0x180627c>
 1810ec0:	92099170 	cmpltui	r8,r18,9797
 1810ec4:	95079308 	cmpgei	r20,r18,7756
 1810ec8:	97049605 	stb	fp,4696(r18)
 1810ecc:	90019f03 	ldbu	zero,1660(r18)
 1810ed0:	9c06940a 	0x9c06940a
 1810ed4:	00000002 	0x2
 1810ed8:	00000028 	cmpgeui	zero,zero,0
 1810edc:	00000044 	movi	zero,1
 1810ee0:	01808fc8 	cmpgei	r6,zero,575
 1810ee4:	000005b0 	cmpltui	zero,zero,22
 1810ee8:	3c0e4400 	call	3c0e440 <alt_instruction_exception_entry+0x140627c>
 1810eec:	92099168 	cmpgeui	r8,r18,9797
 1810ef0:	95079308 	cmpgei	r20,r18,7756
 1810ef4:	9c039705 	stb	r16,3676(r19)
 1810ef8:	90019f02 	0x90019f02
 1810efc:	9606940a 	0x9606940a
 1810f00:	00000004 	movi	zero,0
 1810f04:	01810c84 	movi	r6,1074
