
HelloWorldnew.elf:     file format elf32-littlenios2
HelloWorldnew.elf
architecture: nios2, flags 0x00000112:
EXEC_P, HAS_SYMS, D_PAGED
start address 0x01800000

Program Header:
    LOAD off    0x00001000 vaddr 0x01800000 paddr 0x01800000 align 2**12
         filesz 0x00012be0 memsz 0x00012ed0 flags rwx
    LOAD off    0x00014000 vaddr 0x02400000 paddr 0x02400000 align 2**12
         filesz 0x00000000 memsz 0x00000000 flags r-x
    LOAD off    0x00014020 vaddr 0x02808020 paddr 0x02808020 align 2**12
         filesz 0x0000020c memsz 0x0000020c flags r-x

Sections:
Idx Name          Size      VMA       LMA       File off  Algn
  0 .entry        00000000  02400000  02400000  00014000  2**5
                  CONTENTS, ALLOC, LOAD, READONLY, CODE
  1 .exceptions   0000020c  02808020  02808020  00014020  2**2
                  CONTENTS, ALLOC, LOAD, READONLY, CODE
  2 .text         000108a8  01800000  01800000  00001000  2**2
                  CONTENTS, ALLOC, LOAD, READONLY, CODE
  3 .rodata       00000610  018108a8  018108a8  000118a8  2**2
                  CONTENTS, ALLOC, LOAD, READONLY, DATA
  4 .rwdata       00001d28  01810eb8  01810eb8  00011eb8  2**2
                  CONTENTS, ALLOC, LOAD, DATA, SMALL_DATA
  5 .bss          000002f0  01812be0  01812be0  00013be0  2**2
                  ALLOC, SMALL_DATA
  6 .comment      00000026  00000000  00000000  0001422c  2**0
                  CONTENTS, READONLY
  7 .debug_aranges 00000df8  00000000  00000000  00014258  2**3
                  CONTENTS, READONLY, DEBUGGING
  8 .debug_pubnames 0000199d  00000000  00000000  00015050  2**0
                  CONTENTS, READONLY, DEBUGGING
  9 .debug_info   00029819  00000000  00000000  000169ed  2**0
                  CONTENTS, READONLY, DEBUGGING
 10 .debug_abbrev 00008902  00000000  00000000  00040206  2**0
                  CONTENTS, READONLY, DEBUGGING
 11 .debug_line   00016afb  00000000  00000000  00048b08  2**0
                  CONTENTS, READONLY, DEBUGGING
 12 .debug_frame  00001f60  00000000  00000000  0005f604  2**2
                  CONTENTS, READONLY, DEBUGGING
 13 .debug_str    000024f9  00000000  00000000  00061564  2**0
                  CONTENTS, READONLY, DEBUGGING
 14 .debug_loc    0000c760  00000000  00000000  00063a5d  2**0
                  CONTENTS, READONLY, DEBUGGING
 15 .debug_alt_sim_info 00000050  00000000  00000000  000701c0  2**2
                  CONTENTS, READONLY, DEBUGGING
 16 .debug_ranges 00000970  00000000  00000000  00070210  2**3
                  CONTENTS, READONLY, DEBUGGING
 17 .thread_model 00000003  00000000  00000000  000745b4  2**0
                  CONTENTS, READONLY
 18 .cpu          00000003  00000000  00000000  000745b7  2**0
                  CONTENTS, READONLY
 19 .simulation_enabled 00000001  00000000  00000000  000745ba  2**0
                  CONTENTS, READONLY
 20 .sysid_hash   00000004  00000000  00000000  000745bb  2**0
                  CONTENTS, READONLY
 21 .sysid_base   00000004  00000000  00000000  000745bf  2**0
                  CONTENTS, READONLY
 22 .sysid_time   00000004  00000000  00000000  000745c3  2**0
                  CONTENTS, READONLY
 23 .stderr_dev   00000009  00000000  00000000  000745c7  2**0
                  CONTENTS, READONLY
 24 .stdin_dev    00000009  00000000  00000000  000745d0  2**0
                  CONTENTS, READONLY
 25 .stdout_dev   00000009  00000000  00000000  000745d9  2**0
                  CONTENTS, READONLY
 26 .sopc_system_name 00000008  00000000  00000000  000745e2  2**0
                  CONTENTS, READONLY
 27 .quartus_project_dir 00000052  00000000  00000000  000745ea  2**0
                  CONTENTS, READONLY
 28 .jdi          00004101  00000000  00000000  0007463c  2**0
                  CONTENTS, READONLY
 29 .sopcinfo     000be023  00000000  00000000  0007873d  2**0
                  CONTENTS, READONLY
SYMBOL TABLE:
02400000 l    d  .entry	00000000 .entry
02808020 l    d  .exceptions	00000000 .exceptions
01800000 l    d  .text	00000000 .text
018108a8 l    d  .rodata	00000000 .rodata
01810eb8 l    d  .rwdata	00000000 .rwdata
01812be0 l    d  .bss	00000000 .bss
00000000 l    d  .comment	00000000 .comment
00000000 l    d  .debug_aranges	00000000 .debug_aranges
00000000 l    d  .debug_pubnames	00000000 .debug_pubnames
00000000 l    d  .debug_info	00000000 .debug_info
00000000 l    d  .debug_abbrev	00000000 .debug_abbrev
00000000 l    d  .debug_line	00000000 .debug_line
00000000 l    d  .debug_frame	00000000 .debug_frame
00000000 l    d  .debug_str	00000000 .debug_str
00000000 l    d  .debug_loc	00000000 .debug_loc
00000000 l    d  .debug_alt_sim_info	00000000 .debug_alt_sim_info
00000000 l    d  .debug_ranges	00000000 .debug_ranges
01800044 l       .text	00000000 alt_after_alt_main
00000000 l    df *ABS*	00000000 alt_irq_handler.c
00000000 l    df *ABS*	00000000 alt_instruction_exception_entry.c
00000000 l    df *ABS*	00000000 hello_world.c
00000000 l    df *ABS*	00000000 pwm.c
00000000 l    df *ABS*	00000000 utilities.c
00000000 l    df *ABS*	00000000 printf.c
00000000 l    df *ABS*	00000000 puts.c
00000000 l    df *ABS*	00000000 strlen.c
00000000 l    df *ABS*	00000000 vfprintf.c
01800770 l     F .text	00000058 __sprint_r
01810942 l     O .rodata	00000010 blanks.3452
01810932 l     O .rodata	00000010 zeroes.3453
00000000 l    df *ABS*	00000000 wsetup.c
00000000 l    df *ABS*	00000000 dtoa.c
018027d4 l     F .text	00000218 quorem
00000000 l    df *ABS*	00000000 fflush.c
00000000 l    df *ABS*	00000000 findfp.c
018041d0 l     F .text	00000058 std
018042dc l     F .text	00000008 __fp_lock
018042e4 l     F .text	00000008 __fp_unlock
00000000 l    df *ABS*	00000000 mallocr.c
00000000 l    df *ABS*	00000000 fvwrite.c
00000000 l    df *ABS*	00000000 fwalk.c
00000000 l    df *ABS*	00000000 impure.c
01810eb8 l     O .rwdata	00000400 impure_data
00000000 l    df *ABS*	00000000 locale.c
01812b9c l     O .rwdata	00000004 charset
01810978 l     O .rodata	00000030 lconv
00000000 l    df *ABS*	00000000 makebuf.c
00000000 l    df *ABS*	00000000 mallocr.c
00000000 l    df *ABS*	00000000 memchr.c
00000000 l    df *ABS*	00000000 memcpy.c
00000000 l    df *ABS*	00000000 memmove.c
00000000 l    df *ABS*	00000000 memset.c
00000000 l    df *ABS*	00000000 mprec.c
01810ac0 l     O .rodata	0000000c p05.2458
00000000 l    df *ABS*	00000000 mallocr.c
00000000 l    df *ABS*	00000000 s_isinfd.c
00000000 l    df *ABS*	00000000 s_isnand.c
00000000 l    df *ABS*	00000000 sbrkr.c
00000000 l    df *ABS*	00000000 stdio.c
00000000 l    df *ABS*	00000000 strcmp.c
00000000 l    df *ABS*	00000000 writer.c
00000000 l    df *ABS*	00000000 mallocr.c
00000000 l    df *ABS*	00000000 closer.c
00000000 l    df *ABS*	00000000 fclose.c
00000000 l    df *ABS*	00000000 fstatr.c
00000000 l    df *ABS*	00000000 int_errno.c
00000000 l    df *ABS*	00000000 isattyr.c
00000000 l    df *ABS*	00000000 lseekr.c
00000000 l    df *ABS*	00000000 readr.c
00000000 l    df *ABS*	00000000 libgcc2.c
00000000 l    df *ABS*	00000000 libgcc2.c
00000000 l    df *ABS*	00000000 dp-bit.c
01808470 l     F .text	00000410 _fpadd_parts
00000000 l    df *ABS*	00000000 dp-bit.c
00000000 l    df *ABS*	00000000 dp-bit.c
00000000 l    df *ABS*	00000000 dp-bit.c
00000000 l    df *ABS*	00000000 dp-bit.c
00000000 l    df *ABS*	00000000 dp-bit.c
00000000 l    df *ABS*	00000000 dp-bit.c
00000000 l    df *ABS*	00000000 dp-bit.c
00000000 l    df *ABS*	00000000 dp-bit.c
00000000 l    df *ABS*	00000000 dp-bit.c
00000000 l    df *ABS*	00000000 dp-bit.c
00000000 l    df *ABS*	00000000 dp-bit.c
00000000 l    df *ABS*	00000000 lib2-divmod.c
0180959c l     F .text	0000007c udivmodsi4
00000000 l    df *ABS*	00000000 libgcc2.c
00000000 l    df *ABS*	00000000 libgcc2.c
00000000 l    df *ABS*	00000000 libgcc2.c
00000000 l    df *ABS*	00000000 dp-bit.c
00000000 l    df *ABS*	00000000 dp-bit.c
00000000 l    df *ABS*	00000000 dp-bit.c
00000000 l    df *ABS*	00000000 alt_close.c
01809e10 l     F .text	00000060 alt_get_errno
00000000 l    df *ABS*	00000000 alt_dev.c
01809e70 l     F .text	0000002c alt_dev_null_write
00000000 l    df *ABS*	00000000 alt_errno.c
00000000 l    df *ABS*	00000000 alt_fstat.c
01809f70 l     F .text	00000060 alt_get_errno
00000000 l    df *ABS*	00000000 alt_isatty.c
0180a090 l     F .text	00000060 alt_get_errno
00000000 l    df *ABS*	00000000 alt_lseek.c
0180a1e0 l     F .text	00000060 alt_get_errno
00000000 l    df *ABS*	00000000 alt_main.c
00000000 l    df *ABS*	00000000 alt_malloc_lock.c
00000000 l    df *ABS*	00000000 alt_read.c
0180a40c l     F .text	00000060 alt_get_errno
00000000 l    df *ABS*	00000000 alt_release_fd.c
00000000 l    df *ABS*	00000000 alt_sbrk.c
01812bc0 l     O .rwdata	00000004 heap_end
00000000 l    df *ABS*	00000000 alt_usleep.c
00000000 l    df *ABS*	00000000 alt_write.c
0180a6d8 l     F .text	00000060 alt_get_errno
00000000 l    df *ABS*	00000000 alt_sys_init.c
01811874 l     O .rwdata	000000d8 cfi_flash
0181194c l     O .rwdata	00001060 jtag_uart
018129ac l     O .rwdata	00000120 lcd
01812acc l     O .rwdata	000000c4 uart
0180a808 l     F .text	00000038 alt_dev_reg
00000000 l    df *ABS*	00000000 altera_avalon_cfi_flash.c
0180a8dc l     F .text	00000038 alt_flash_device_register
00000000 l    df *ABS*	00000000 altera_avalon_cfi_flash_table.c
0180b6dc l     F .text	0000007c alt_read_16bit_query_entry
00000000 l    df *ABS*	00000000 altera_avalon_jtag_uart_fd.c
00000000 l    df *ABS*	00000000 altera_avalon_jtag_uart_init.c
0180c768 l     F .text	00000228 altera_avalon_jtag_uart_irq
0180c990 l     F .text	000000b0 altera_avalon_jtag_uart_timeout
00000000 l    df *ABS*	00000000 altera_avalon_jtag_uart_ioctl.c
00000000 l    df *ABS*	00000000 altera_avalon_jtag_uart_read.c
00000000 l    df *ABS*	00000000 altera_avalon_jtag_uart_write.c
00000000 l    df *ABS*	00000000 altera_avalon_lcd_16207.c
01812bc4 l     O .rwdata	00000004 colstart
0180d00c l     F .text	000000b8 lcd_write_command
0180d0c4 l     F .text	000000d4 lcd_write_data
0180d198 l     F .text	000000c4 lcd_clear_screen
0180d25c l     F .text	000001ec lcd_repaint_screen
0180d448 l     F .text	000000c8 lcd_scroll_up
0180d510 l     F .text	000002d0 lcd_handle_escape
0180dce4 l     F .text	000000cc alt_lcd_16207_timeout
00000000 l    df *ABS*	00000000 altera_avalon_lcd_16207_fd.c
00000000 l    df *ABS*	00000000 altera_avalon_timer_sc.c
0180df44 l     F .text	00000070 alt_avalon_timer_sc_irq
00000000 l    df *ABS*	00000000 altera_avalon_uart_fd.c
00000000 l    df *ABS*	00000000 altera_avalon_uart_init.c
0180e204 l     F .text	0000009c altera_avalon_uart_irq
0180e2a0 l     F .text	000000e0 altera_avalon_uart_rxirq
0180e380 l     F .text	0000015c altera_avalon_uart_txirq
00000000 l    df *ABS*	00000000 altera_avalon_uart_read.c
0180e76c l     F .text	00000060 alt_get_errno
00000000 l    df *ABS*	00000000 altera_avalon_uart_write.c
0180e994 l     F .text	00000060 alt_get_errno
00000000 l    df *ABS*	00000000 alt_alarm_start.c
00000000 l    df *ABS*	00000000 alt_busy_sleep.c
00000000 l    df *ABS*	00000000 alt_dcache_flush.c
00000000 l    df *ABS*	00000000 alt_dev_llist_insert.c
0180eda0 l     F .text	00000060 alt_get_errno
00000000 l    df *ABS*	00000000 alt_do_ctors.c
00000000 l    df *ABS*	00000000 alt_do_dtors.c
00000000 l    df *ABS*	00000000 alt_flash_dev.c
00000000 l    df *ABS*	00000000 alt_iic.c
00000000 l    df *ABS*	00000000 alt_iic_isr_register.c
00000000 l    df *ABS*	00000000 alt_io_redirect.c
0180f264 l     F .text	000000c4 alt_open_fd
00000000 l    df *ABS*	00000000 alt_irq_vars.c
00000000 l    df *ABS*	00000000 alt_open.c
0180f3a0 l     F .text	000000dc alt_file_locked
0180f604 l     F .text	00000060 alt_get_errno
00000000 l    df *ABS*	00000000 alt_tick.c
00000000 l    df *ABS*	00000000 altera_nios2_irq.c
00000000 l    df *ABS*	00000000 altera_avalon_cfi_flash_amd.c
0180fbcc l     F .text	000000bc alt_write_word_amd
0180faa8 l     F .text	00000124 alt_wait_for_command_to_complete_amd
00000000 l    df *ABS*	00000000 altera_avalon_cfi_flash_intel.c
0180fe80 l     F .text	0000018c alt_unlock_block_intel
0181000c l     F .text	000000dc alt_write_word_intel
00000000 l    df *ABS*	00000000 alt_find_dev.c
00000000 l    df *ABS*	00000000 alt_find_file.c
00000000 l    df *ABS*	00000000 alt_get_fd.c
00000000 l    df *ABS*	00000000 atexit.c
00000000 l    df *ABS*	00000000 ctype_.c
01810d35 l     O .rodata	00000180 _ctype_b
00000000 l    df *ABS*	00000000 exit.c
00000000 l    df *ABS*	00000000 memcmp.c
00000000 l    df *ABS*	00000000 __atexit.c
00000000 l    df *ABS*	00000000 __call_atexit.c
01810624 l     F .text	00000004 register_fini
00000000 l    df *ABS*	00000000 alt_exit.c
018107d8 l     F .text	00000040 alt_sim_halt
01812c14 g     O .bss	00000004 alt_instruction_exception_handler
01805f8c g     F .text	00000094 _mprec_log10
01806078 g     F .text	00000088 __any_on
01807784 g     F .text	00000070 _isatty_r
01810a98 g     O .rodata	00000028 __mprec_tinytens
0180a240 g     F .text	0000006c alt_main
01800648 g     F .text	000000a0 _puts_r
0180b19c g     F .text	00000048 alt_read_query_entry_32bit
01812c40 g     O .bss	00000100 alt_irq
018077f4 g     F .text	00000078 _lseek_r
0180a914 g     F .text	000002c0 alt_flash_cfi_write
01808f90 g     F .text	00000088 __eqdf2
01812ed0 g       *ABS*	00000000 __alt_heap_start
018005d0 g     F .text	00000044 printf
01807250 g     F .text	00000068 __sseek
01804238 g     F .text	000000a4 __sinit
01804f10 g     F .text	00000084 _setlocale_r
01804338 g     F .text	00000068 __sfmoreglue
0180a2cc g     F .text	00000020 __malloc_unlock
01805a08 g     F .text	000000e0 memmove
01804328 g     F .text	00000010 _cleanup
01806100 g     F .text	000000bc _Balloc
018090a0 g     F .text	00000088 __gtdf2
00000000  w      *UND*	00000000 __errno
0180b328 g     F .text	00000048 alt_write_flash_command_32bit_device_16bit_mode
02400000 g     F .entry	00000000 __reset
01807710 g     F .text	00000074 _fstat_r
0180ae30 g     F .text	000002e8 alt_flash_program_block
01812bf8 g     O .bss	00000004 errno
01812c00 g     O .bss	00000004 alt_argv
0181ab90 g       *ABS*	00000000 _gp
0180a588 g     F .text	00000030 usleep
018116f4 g     O .rwdata	00000180 alt_fd_list
018100e8 g     F .text	00000094 alt_find_dev
01805968 g     F .text	000000a0 memcpy
0180431c g     F .text	0000000c _cleanup_r
01809238 g     F .text	000000f8 __floatsidf
0180f328 g     F .text	00000078 alt_io_redirect
018091b0 g     F .text	00000088 __ltdf2
018108a8 g       *ABS*	00000000 __DTOR_END__
018006e8 g     F .text	00000014 puts
01810354 g     F .text	000000dc alt_exception_cause_generated_bad_addr
0180f808 g     F .text	00000020 altera_nios2_irq_init
01805edc g     F .text	000000b0 __ratio
0180cba8 g     F .text	00000224 altera_avalon_jtag_uart_read
00000000  w      *UND*	00000000 malloc
01800614 g     F .text	00000034 _printf_r
018096d8 g     F .text	00000008 __udivsi3
01809fd0 g     F .text	000000c0 isatty
018109a8 g     O .rodata	000000c8 __mprec_tens
01804eec g     F .text	00000008 __locale_charset
01812bec g     O .bss	00000004 __malloc_top_pad
01812b98 g     O .rwdata	00000004 __mb_cur_max
01804ef4 g     F .text	0000000c _localeconv_r
018067f8 g     F .text	0000003c __i2b
018048d0 g     F .text	0000049c __sfvwrite_r
018071d8 g     F .text	00000070 _sbrk_r
0180fc88 g     F .text	00000084 alt_program_intel
0180786c g     F .text	00000078 _read_r
0180ec74 g     F .text	00000078 alt_dcache_flush
018112b8 g     O .rwdata	0000000c __lc_ctype
01812bb8 g     O .rwdata	00000004 alt_max_fd
0180b118 g     F .text	00000040 alt_read_query_entry_8bit
01809b14 g     F .text	00000138 __unpack_d
018075ec g     F .text	00000110 _fclose_r
0180fd0c g     F .text	00000174 alt_erase_block_intel
0180419c g     F .text	00000034 fflush
01812bf0 g     O .bss	00000004 __malloc_max_sbrked_mem
01808900 g     F .text	00000074 __adddf3
01805dbc g     F .text	00000120 __b2d
01807ec0 g     F .text	000005b0 __umoddi3
0180a0f0 g     F .text	000000f0 lseek
01812b94 g     O .rwdata	00000004 _global_impure_ptr
01806b74 g     F .text	000005f4 _realloc_r
01812ed0 g       *ABS*	00000000 __bss_end
0180f16c g     F .text	000000f8 alt_iic_isr_register
0180f6fc g     F .text	0000010c alt_tick
018078e4 g     F .text	000005dc __udivdi3
01810a70 g     O .rodata	00000028 __mprec_bigtens
01806a54 g     F .text	00000120 __s2b
01809408 g     F .text	00000194 __floatunsidf
01805cdc g     F .text	00000060 __mcmp
0180e13c g     F .text	000000c8 altera_avalon_uart_init
01812bdc g     O .rwdata	00000004 __ctype_ptr
01804304 g     F .text	00000018 __fp_lock_all
0180f124 g     F .text	00000048 alt_ic_irq_enabled
0180f664 g     F .text	00000098 alt_alarm_stop
01812c08 g     O .bss	00000004 alt_irq_active
02808000 g       *ABS*	00000000 __alt_mem_onchip_mem
028080fc g     F .exceptions	000000c8 alt_irq_handler
018116cc g     O .rwdata	00000028 alt_dev_null
0180b630 g     F .text	000000ac alt_set_flash_algorithm_func
01805ba8 g     F .text	00000070 __hi0bits
01809330 g     F .text	000000d8 __fixdfsi
018004a0 g     F .text	00000130 Set_Servo_Position
0180b1e4 g     F .text	0000003c alt_write_flash_command_8bit_device_8bit_mode
01812bb0 g     O .rwdata	00000008 alt_dev_list
0180a5b8 g     F .text	00000120 write
01809e9c g     F .text	000000d4 fstat
0180c484 g     F .text	000000dc alt_check_primary_table
01806934 g     F .text	00000120 __pow5mult
01812be0 g     O .bss	00000004 __nlocale_changed
018096e0 g     F .text	00000008 __umodsi3
0180ac64 g     F .text	00000068 alt_flash_cfi_read
0180b3b8 g     F .text	00000034 alt_write_native_8bit
01812ed0 g       *ABS*	00000000 end
0180b220 g     F .text	0000007c alt_write_flash_command_16bit_device_8bit_mode
0180d7e0 g     F .text	00000504 altera_avalon_lcd_16207_write
0180e7cc g     F .text	000001c8 altera_avalon_uart_write
0180b758 g     F .text	00000580 alt_read_cfi_table
0180c6a8 g     F .text	000000c0 altera_avalon_jtag_uart_init
028081c4 g     F .exceptions	00000068 alt_instruction_exception_entry
018108a4 g       *ABS*	00000000 __CTOR_LIST__
02000000 g       *ABS*	00000000 __alt_stack_pointer
0180dfb4 g     F .text	00000090 alt_avalon_timer_sc_init
0180e09c g     F .text	00000058 altera_avalon_uart_write_fd
01809780 g     F .text	00000080 __clzsi2
0180e0f4 g     F .text	00000048 altera_avalon_uart_close_fd
0180cdcc g     F .text	00000240 altera_avalon_jtag_uart_write
0180a840 g     F .text	0000009c alt_flash_cfi_init
018001c0 g     F .text	000001e8 Initilise_PWM
01804228 g     F .text	00000004 __sfp_lock_acquire
01805884 g     F .text	000000e4 memchr
018007c8 g     F .text	00001eac ___vfprintf_internal_r
018045bc g     F .text	00000314 _free_r
01810628 g     F .text	000001b0 __call_exitprocs
01812be4 g     O .bss	00000004 __mlocale_changed
01812ba4 g     O .rwdata	00000004 __malloc_sbrk_base
01800000 g     F .text	00000048 _start
01812c0c g     O .bss	00000004 _alt_tick_rate
018064c4 g     F .text	0000014c __lshift
01812c10 g     O .bss	00000004 _alt_nticks
0180a2ec g     F .text	00000120 read
0180a76c g     F .text	0000009c alt_sys_init
018104f0 g     F .text	00000134 __register_exitproc
0180b158 g     F .text	00000044 alt_read_query_entry_16bit
01806610 g     F .text	000001e8 __multiply
0180ca40 g     F .text	00000074 altera_avalon_jtag_uart_close
01812c18 g     O .bss	00000028 __malloc_current_mallinfo
0180b450 g     F .text	000001e0 alt_set_flash_width_func
018061bc g     F .text	0000017c __d2b
0180c560 g     F .text	00000058 altera_avalon_jtag_uart_read_fd
0181029c g     F .text	000000b8 alt_get_fd
0180eb48 g     F .text	0000012c alt_busy_sleep
01809c4c g     F .text	000000c8 __fpcmp_parts_d
0180757c g     F .text	00000070 _close_r
0180f890 g     F .text	00000218 alt_erase_block_amd
0181047c g     F .text	00000074 memcmp
0180c610 g     F .text	00000048 altera_avalon_jtag_uart_close_fd
01812ed0 g       *ABS*	00000000 __alt_stack_base
0180c658 g     F .text	00000050 altera_avalon_jtag_uart_ioctl_fd
01802698 g     F .text	0000013c __swsetup_r
0180bcd8 g     F .text	000007ac alt_read_cfi_width
01808d38 g     F .text	00000258 __divdf3
018043a0 g     F .text	000000f0 __sfp
01806020 g     F .text	00000058 __copybits
018112c4 g     O .rwdata	00000408 __malloc_av_
01804234 g     F .text	00000004 __sinit_lock_release
01808974 g     F .text	000003c4 __muldf3
01807334 g     F .text	00000060 __sread
0181017c g     F .text	00000120 alt_find_file
018003a8 g     F .text	000000f8 Set_PWM_Duty_Cycle
0180ecec g     F .text	000000b4 alt_dev_llist_insert
0180a2ac g     F .text	00000020 __malloc_lock
0180a4cc g     F .text	000000bc sbrk
01803fa0 g     F .text	000001fc _fflush_r
018074c8 g     F .text	000000b4 _calloc_r
01812bc8 g     O .rwdata	00000008 alt_flash_dev_list
0180b2e4 g     F .text	00000044 alt_write_flash_command_16bit_device_16bit_mode
01812be0 g       *ABS*	00000000 __bss_start
01805ae8 g     F .text	00000098 memset
01800048 g     F .text	00000178 main
01812c04 g     O .bss	00000004 alt_envp
01812bf4 g     O .bss	00000004 __malloc_max_total_mem
0180c5b8 g     F .text	00000058 altera_avalon_jtag_uart_write_fd
0180ddb0 g     F .text	0000013c altera_avalon_lcd_16207_init
01807248 g     F .text	00000008 __sclose
02000000 g       *ABS*	00000000 __alt_heap_limit
018076fc g     F .text	00000014 fclose
01812d40 g     O .bss	00000190 _atexit0
018029ec g     F .text	000015b4 _dtoa_r
01805144 g     F .text	00000740 _malloc_r
01812bbc g     O .rwdata	00000004 alt_errno
0180b370 g     F .text	00000048 alt_write_flash_command_32bit_device_32bit_mode
01804e34 g     F .text	000000b8 _fwalk
0180accc g     F .text	00000164 alt_write_value_to_flash
0180b3ec g     F .text	00000034 alt_write_native_16bit
01809618 g     F .text	00000060 __divsi3
02400000 g       *ABS*	00000000 __alt_mem_cfi_flash
01810acc g     O .rodata	00000014 __thenan_df
01804490 g     F .text	0000012c _malloc_trim_r
018108a8 g       *ABS*	00000000 __CTOR_END__
01807394 g     F .text	000000bc strcmp
018108a8 g       *ABS*	00000000 __DTOR_LIST__
01809018 g     F .text	00000088 __nedf2
0180a738 g     F .text	00000034 alt_irq_init
0180a46c g     F .text	00000060 alt_release_fd
01810ae0 g     O .rodata	00000100 __clz_tab
01812be8 g     O .bss	00000004 _PathLocale
01810430 g     F .text	00000014 atexit
01807450 g     F .text	00000078 _write_r
01804f94 g     F .text	0000001c setlocale
01812b90 g     O .rwdata	00000004 _impure_ptr
01812bfc g     O .bss	00000004 alt_argc
0180ee64 g     F .text	00000064 _do_dtors
02808020 g       .exceptions	00000000 alt_irq_entry
01805d3c g     F .text	00000080 __ulp
01807168 g     F .text	00000040 __isinfd
018042ec g     F .text	00000018 __fp_unlock_all
0180deec g     F .text	00000058 altera_avalon_lcd_16207_write_fd
01812ba8 g     O .rwdata	00000008 alt_fs_list
0180b29c g     F .text	00000048 alt_write_flash_command_32bit_device_8bit_mode
01804f00 g     F .text	00000010 localeconv
0180ef98 g     F .text	00000050 alt_ic_isr_register
01812be0 g       *ABS*	00000000 _edata
0180e044 g     F .text	00000058 altera_avalon_uart_read_fd
01812ed0 g       *ABS*	00000000 _end
0180eec8 g     F .text	0000007c alt_flash_open_dev
0180cab4 g     F .text	000000f4 altera_avalon_jtag_uart_ioctl
0180f084 g     F .text	000000a0 alt_ic_irq_disable
018072b8 g     F .text	0000007c __swrite
01812ba0 g     O .rwdata	00000004 __malloc_trim_threshold
01810444 g     F .text	00000038 exit
01804d6c g     F .text	000000c8 _fwalk_reent
01806338 g     F .text	0000018c __mdiff
0180ef44 g     F .text	00000054 alt_flash_close_dev
01809678 g     F .text	00000060 __modsi3
02000000 g       *ABS*	00000000 __alt_data_end
02808020 g     F .exceptions	00000000 alt_exception
0180422c g     F .text	00000004 __sfp_lock_release
01800000 g       *ABS*	00000000 __alt_mem_sdram
01810c34 g     O .rodata	00000101 _ctype_
0180e4dc g     F .text	00000060 altera_avalon_uart_close
01810818 g     F .text	00000020 _exit
018071a8 g     F .text	00000030 __isnand
0180e9f4 g     F .text	00000154 alt_alarm_start
018096e8 g     F .text	00000098 __muldi3
01804fb0 g     F .text	00000194 __smakebuf_r
0180b420 g     F .text	00000030 alt_write_native_32bit
018006fc g     F .text	00000074 strlen
0180f47c g     F .text	00000188 open
01809128 g     F .text	00000088 __gedf2
0180abd4 g     F .text	00000090 alt_flash_cfi_get_info
01812bd0 g     O .rwdata	00000004 alt_priority_mask
0180efe8 g     F .text	0000009c alt_ic_irq_enable
01802674 g     F .text	00000024 __vfprintf_internal
0180e53c g     F .text	00000230 altera_avalon_uart_read
01808880 g     F .text	00000080 __subdf3
01805c18 g     F .text	000000c4 __lo0bits
01812bd4 g     O .rwdata	00000008 alt_alarm_list
0180ee00 g     F .text	00000064 _do_ctors
01809d14 g     F .text	000000fc close
0180f828 g     F .text	00000068 alt_program_amd
01809800 g     F .text	00000314 __pack_d
00000000  w      *UND*	00000000 free
01804230 g     F .text	00000004 __sinit_lock_acquire
01806834 g     F .text	00000100 __multadd
01805b80 g     F .text	00000028 _Bfree



Disassembly of section .exceptions:

02808020 <alt_exception>:
         * Process an exception.  For all exceptions we must preserve all
         * caller saved registers on the stack (See the Nios2 ABI
         * documentation for details).
         */

        addi  sp, sp, -76
 2808020:	deffed04 	addi	sp,sp,-76

#endif

#endif

        stw   ra,  0(sp)
 2808024:	dfc00015 	stw	ra,0(sp)
        /*
         * Leave a gap in the stack frame at 4(sp) for the muldiv handler to
         * store zero into.
         */

        stw   r1,   8(sp)
 2808028:	d8400215 	stw	at,8(sp)
        stw   r2,  12(sp)
 280802c:	d8800315 	stw	r2,12(sp)
        stw   r3,  16(sp)
 2808030:	d8c00415 	stw	r3,16(sp)
        stw   r4,  20(sp)
 2808034:	d9000515 	stw	r4,20(sp)
        stw   r5,  24(sp)
 2808038:	d9400615 	stw	r5,24(sp)
        stw   r6,  28(sp)
 280803c:	d9800715 	stw	r6,28(sp)
        stw   r7,  32(sp)
 2808040:	d9c00815 	stw	r7,32(sp)

        rdctl r5, estatus
 2808044:	000b307a 	rdctl	r5,estatus

        stw   r8,  36(sp)
 2808048:	da000915 	stw	r8,36(sp)
        stw   r9,  40(sp)
 280804c:	da400a15 	stw	r9,40(sp)
        stw   r10, 44(sp)
 2808050:	da800b15 	stw	r10,44(sp)
        stw   r11, 48(sp)
 2808054:	dac00c15 	stw	r11,48(sp)
        stw   r12, 52(sp)
 2808058:	db000d15 	stw	r12,52(sp)
        stw   r13, 56(sp)
 280805c:	db400e15 	stw	r13,56(sp)
        stw   r14, 60(sp)
 2808060:	db800f15 	stw	r14,60(sp)
        stw   r15, 64(sp)
 2808064:	dbc01015 	stw	r15,64(sp)
        /*
         * ea-4 contains the address of the instruction being executed
         * when the exception occured. For interrupt exceptions, we will
         * will be re-issue the isntruction. Store it in 72(sp)
         */
        stw   r5,  68(sp)  /* estatus */
 2808068:	d9401115 	stw	r5,68(sp)
        addi  r15, ea, -4  /* instruction that caused exception */
 280806c:	ebffff04 	addi	r15,ea,-4
        stw   r15,  72(sp)
 2808070:	dbc01215 	stw	r15,72(sp)
#else
        /*
         * Test to see if the exception was a software exception or caused 
         * by an external interrupt, and vector accordingly.
         */
        rdctl r4, ipending
 2808074:	0009313a 	rdctl	r4,ipending
        andi  r2, r5, 1
 2808078:	2880004c 	andi	r2,r5,1
        beq   r2, zero, .Lnot_irq
 280807c:	10000326 	beq	r2,zero,280808c <alt_exception+0x6c>
        beq   r4, zero, .Lnot_irq
 2808080:	20000226 	beq	r4,zero,280808c <alt_exception+0x6c>
        /*
         * Now that all necessary registers have been preserved, call 
         * alt_irq_handler() to process the interrupts.
         */

        call alt_irq_handler
 2808084:	28080fc0 	call	28080fc <alt_irq_handler>

        .section .exceptions.irqreturn, "xa"

        br    .Lexception_exit
 2808088:	00000706 	br	28080a8 <alt_exception+0x88>
         * upon completion, so we write ea (address of instruction *after*
         * the one where the exception occured) into 72(sp). The actual
         * instruction that caused the exception is written in r2, which these
         * handlers will utilize.
         */
        stw   ea,  72(sp)  /* Don't re-issue */
 280808c:	df401215 	stw	ea,72(sp)
        ldw   r2, -4(ea)   /* Instruction that caused exception */
 2808090:	e8bfff17 	ldw	r2,-4(ea)
         * debugger is present) or go into an infinite loop since the
         * handling behavior is undefined; in that case we will not return here.
         */

        /* Load exception-causing address as first argument (r4) */
        addi   r4, ea, -4
 2808094:	e93fff04 	addi	r4,ea,-4

        /* Call the instruction-exception entry */
        call   alt_instruction_exception_entry
 2808098:	28081c40 	call	28081c4 <alt_instruction_exception_entry>
         * instruction
         *
         * Return code was 0: Skip. The instruction after the exception is
         * already stored in 72(sp).
         */
        bne   r2, r0, .Lexception_exit
 280809c:	1000021e 	bne	r2,zero,28080a8 <alt_exception+0x88>

        /*
         * Otherwise, modify 72(sp) to re-issue the instruction that caused the
         * exception.
         */
        addi  r15, ea, -4  /* instruction that caused exception */
 28080a0:	ebffff04 	addi	r15,ea,-4
        stw   r15,  72(sp)
 28080a4:	dbc01215 	stw	r15,72(sp)
        /* 
         * Restore the saved registers, so that all general purpose registers 
         * have been restored to their state at the time the interrupt occured.
         */

        ldw   r5,  68(sp)
 28080a8:	d9401117 	ldw	r5,68(sp)
        ldw   ea,  72(sp)  /* This becomes the PC once eret is executed */
 28080ac:	df401217 	ldw	ea,72(sp)
        ldw   ra,   0(sp)
 28080b0:	dfc00017 	ldw	ra,0(sp)

        wrctl estatus, r5
 28080b4:	2801707a 	wrctl	estatus,r5

        ldw   r1,   8(sp)
 28080b8:	d8400217 	ldw	at,8(sp)
        ldw   r2,  12(sp)
 28080bc:	d8800317 	ldw	r2,12(sp)
        ldw   r3,  16(sp)
 28080c0:	d8c00417 	ldw	r3,16(sp)
        ldw   r4,  20(sp)
 28080c4:	d9000517 	ldw	r4,20(sp)
        ldw   r5,  24(sp)
 28080c8:	d9400617 	ldw	r5,24(sp)
        ldw   r6,  28(sp)
 28080cc:	d9800717 	ldw	r6,28(sp)
        ldw   r7,  32(sp)
 28080d0:	d9c00817 	ldw	r7,32(sp)
#ifdef ALT_STACK_CHECK
        ldw   et, %gprel(alt_exception_old_stack_limit)(gp)
#endif
#endif

        ldw   r8,  36(sp)
 28080d4:	da000917 	ldw	r8,36(sp)
        ldw   r9,  40(sp)
 28080d8:	da400a17 	ldw	r9,40(sp)
        ldw   r10, 44(sp)
 28080dc:	da800b17 	ldw	r10,44(sp)
        ldw   r11, 48(sp)
 28080e0:	dac00c17 	ldw	r11,48(sp)
        ldw   r12, 52(sp)
 28080e4:	db000d17 	ldw	r12,52(sp)
        ldw   r13, 56(sp)
 28080e8:	db400e17 	ldw	r13,56(sp)
        ldw   r14, 60(sp)
 28080ec:	db800f17 	ldw	r14,60(sp)
        ldw   r15, 64(sp)
 28080f0:	dbc01017 	ldw	r15,64(sp)
#endif

        ldw   sp,  76(sp)

#else
        addi  sp, sp, 76
 28080f4:	dec01304 	addi	sp,sp,76

        /*
         * Return to the interrupted instruction.
         */

        eret
 28080f8:	ef80083a 	eret

028080fc <alt_irq_handler>:
 * instruction is present if the macro ALT_CI_INTERRUPT_VECTOR defined.
 */

void alt_irq_handler (void) __attribute__ ((section (".exceptions")));
void alt_irq_handler (void)
{
 28080fc:	defff904 	addi	sp,sp,-28
 2808100:	dfc00615 	stw	ra,24(sp)
 2808104:	df000515 	stw	fp,20(sp)
 2808108:	df000504 	addi	fp,sp,20
#ifndef NIOS2_EIC_PRESENT
static ALT_INLINE alt_u32 ALT_ALWAYS_INLINE alt_irq_pending (void)
{
  alt_u32 active;

  NIOS2_READ_IPENDING (active);
 280810c:	0005313a 	rdctl	r2,ipending
 2808110:	e0bffc15 	stw	r2,-16(fp)

  return active;
 2808114:	e0bffc17 	ldw	r2,-16(fp)
   * Consider the case where the high priority interupt is asserted during
   * the interrupt entry sequence for a lower priority interrupt to see why
   * this is the case.
   */

  active = alt_irq_pending ();
 2808118:	e0bfff15 	stw	r2,-4(fp)

  do
  {
    i = 0;
 280811c:	e03ffd15 	stw	zero,-12(fp)
    mask = 1;
 2808120:	00800044 	movi	r2,1
 2808124:	e0bffe15 	stw	r2,-8(fp)
     * called to clear the interrupt condition.
     */

    do
    {
      if (active & mask)
 2808128:	e0ffff17 	ldw	r3,-4(fp)
 280812c:	e0bffe17 	ldw	r2,-8(fp)
 2808130:	1884703a 	and	r2,r3,r2
 2808134:	1005003a 	cmpeq	r2,r2,zero
 2808138:	1000161e 	bne	r2,zero,2808194 <alt_irq_handler+0x98>
      { 
#ifdef ALT_ENHANCED_INTERRUPT_API_PRESENT
        alt_irq[i].handler(alt_irq[i].context); 
 280813c:	e0bffd17 	ldw	r2,-12(fp)
 2808140:	00c06074 	movhi	r3,385
 2808144:	18cb1004 	addi	r3,r3,11328
 2808148:	100490fa 	slli	r2,r2,3
 280814c:	10c5883a 	add	r2,r2,r3
 2808150:	11400017 	ldw	r5,0(r2)
 2808154:	e0bffd17 	ldw	r2,-12(fp)
 2808158:	00c06074 	movhi	r3,385
 280815c:	18cb1004 	addi	r3,r3,11328
 2808160:	100490fa 	slli	r2,r2,3
 2808164:	10c5883a 	add	r2,r2,r3
 2808168:	10800104 	addi	r2,r2,4
 280816c:	11000017 	ldw	r4,0(r2)
 2808170:	283ee83a 	callr	r5
#ifndef NIOS2_EIC_PRESENT
static ALT_INLINE alt_u32 ALT_ALWAYS_INLINE alt_irq_pending (void)
{
  alt_u32 active;

  NIOS2_READ_IPENDING (active);
 2808174:	0005313a 	rdctl	r2,ipending
 2808178:	e0bffb15 	stw	r2,-20(fp)

  return active;
 280817c:	e0bffb17 	ldw	r2,-20(fp)
      mask <<= 1;
      i++;

    } while (1);

    active = alt_irq_pending ();
 2808180:	e0bfff15 	stw	r2,-4(fp)
    
  } while (active);
 2808184:	e0bfff17 	ldw	r2,-4(fp)
 2808188:	1004c03a 	cmpne	r2,r2,zero
 280818c:	103fe31e 	bne	r2,zero,280811c <alt_irq_handler+0x20>
 2808190:	00000706 	br	28081b0 <alt_irq_handler+0xb4>
#else
        alt_irq[i].handler(alt_irq[i].context, i); 
#endif
        break;
      }
      mask <<= 1;
 2808194:	e0bffe17 	ldw	r2,-8(fp)
 2808198:	1085883a 	add	r2,r2,r2
 280819c:	e0bffe15 	stw	r2,-8(fp)
      i++;
 28081a0:	e0bffd17 	ldw	r2,-12(fp)
 28081a4:	10800044 	addi	r2,r2,1
 28081a8:	e0bffd15 	stw	r2,-12(fp)

    } while (1);
 28081ac:	003fde06 	br	2808128 <alt_irq_handler+0x2c>
  /*
   * Notify the operating system that interrupt processing is complete.
   */ 

  ALT_OS_INT_EXIT();
}
 28081b0:	e037883a 	mov	sp,fp
 28081b4:	dfc00117 	ldw	ra,4(sp)
 28081b8:	df000017 	ldw	fp,0(sp)
 28081bc:	dec00204 	addi	sp,sp,8
 28081c0:	f800283a 	ret

028081c4 <alt_instruction_exception_entry>:
 * using alt_instruction_exception_register(). This routine will call
 * that handler if it has been registered. Absent a handler, it will
 * break break or hang as discussed below.
 */
int alt_instruction_exception_entry (alt_u32 exception_pc)
{
 28081c4:	defffa04 	addi	sp,sp,-24
 28081c8:	dfc00515 	stw	ra,20(sp)
 28081cc:	df000415 	stw	fp,16(sp)
 28081d0:	df000404 	addi	fp,sp,16
 28081d4:	e13ffe15 	stw	r4,-8(fp)
  cause = ( (cause & NIOS2_EXCEPTION_REG_CAUSE_MASK) >>
              NIOS2_EXCEPTION_REG_CAUSE_OFST );

  NIOS2_READ_BADADDR(badaddr);
#else
  cause = NIOS2_EXCEPTION_CAUSE_NOT_PRESENT;
 28081d8:	00bfffc4 	movi	r2,-1
 28081dc:	e0bffd15 	stw	r2,-12(fp)
  badaddr = 0;
 28081e0:	e03ffc15 	stw	zero,-16(fp)
#endif /* NIOS2_HAS_EXTRA_EXCEPTION_INFO */

  if(alt_instruction_exception_handler) {
 28081e4:	d0a02117 	ldw	r2,-32636(gp)
 28081e8:	1005003a 	cmpeq	r2,r2,zero
 28081ec:	1000071e 	bne	r2,zero,280820c <alt_instruction_exception_entry+0x48>
     * Call handler. Its return value indicates whether the exception-causing
     * instruction should be re-issued. The code that called us,
     * alt_eceptions_entry.S, will look at this value and adjust the ea
     * register as necessary
     */
    return alt_instruction_exception_handler(cause, exception_pc, badaddr);
 28081f0:	d0a02117 	ldw	r2,-32636(gp)
 28081f4:	e13ffd17 	ldw	r4,-12(fp)
 28081f8:	e17ffe17 	ldw	r5,-8(fp)
 28081fc:	e1bffc17 	ldw	r6,-16(fp)
 2808200:	103ee83a 	callr	r2
 2808204:	e0bfff15 	stw	r2,-4(fp)
 2808208:	00000206 	br	2808214 <alt_instruction_exception_entry+0x50>
   *    (a peripheral which negates its interrupt output before its
   *    interrupt handler has been executed will cause spurious interrupts)
   */
  else {
#ifdef NIOS2_HAS_DEBUG_STUB
    NIOS2_BREAK();
 280820c:	003da03a 	break	0
      ;
#endif /* NIOS2_HAS_DEBUG_STUB */
  }

  /* // We should not get here. Remove compiler warning. */
  return NIOS2_EXCEPTION_RETURN_REISSUE_INST;
 2808210:	e03fff15 	stw	zero,-4(fp)
 2808214:	e0bfff17 	ldw	r2,-4(fp)
}
 2808218:	e037883a 	mov	sp,fp
 280821c:	dfc00117 	ldw	ra,4(sp)
 2808220:	df000017 	ldw	fp,0(sp)
 2808224:	dec00204 	addi	sp,sp,8
 2808228:	f800283a 	ret

Disassembly of section .text:

01800000 <_start>:

    /* Assume the data cache size is always a power of two. */
#if NIOS2_DCACHE_SIZE > 0x8000
    movhi r2, %hi(NIOS2_DCACHE_SIZE)
#else
    movui r2, NIOS2_DCACHE_SIZE
 1800000:	00840014 	movui	r2,4096
#endif

0:
    initd 0(r2)
 1800004:	10000033 	initd	0(r2)
    addi r2, r2, -NIOS2_DCACHE_LINE_SIZE
 1800008:	10bff804 	addi	r2,r2,-32
    bgt r2, zero, 0b
 180000c:	00bffd16 	blt	zero,r2,1800004 <_start+0x4>
#if (NIOS2_NUM_OF_SHADOW_REG_SETS == 0)    
    /*
     * Now that the caches are initialized, set up the stack pointer.
     * The value provided by the linker is assumed to be correctly aligned.
     */
    movhi sp, %hi(__alt_stack_pointer)
 1800010:	06c08034 	movhi	sp,512
    ori sp, sp, %lo(__alt_stack_pointer)
 1800014:	dec00014 	ori	sp,sp,0

    /* Set up the global pointer. */
    movhi gp, %hi(_gp)
 1800018:	06806074 	movhi	gp,385
    ori gp, gp, %lo(_gp)
 180001c:	d6aae414 	ori	gp,gp,43920
 */
#ifndef ALT_SIM_OPTIMIZE
    /* Log that the BSS is about to be cleared. */
    ALT_LOG_PUTS(alt_log_msg_bss)

    movhi r2, %hi(__bss_start)
 1800020:	00806074 	movhi	r2,385
    ori r2, r2, %lo(__bss_start)
 1800024:	108af814 	ori	r2,r2,11232

    movhi r3, %hi(__bss_end)
 1800028:	00c06074 	movhi	r3,385
    ori r3, r3, %lo(__bss_end)
 180002c:	18cbb414 	ori	r3,r3,11984

    beq r2, r3, 1f
 1800030:	10c00326 	beq	r2,r3,1800040 <_start+0x40>

0:
    stw zero, (r2)
 1800034:	10000015 	stw	zero,0(r2)
    addi r2, r2, 4
 1800038:	10800104 	addi	r2,r2,4
    bltu r2, r3, 0b
 180003c:	10fffd36 	bltu	r2,r3,1800034 <_start+0x34>

    /* Log that alt_main is about to be called. */
    ALT_LOG_PUTS(alt_log_msg_alt_main)

    /* Call the C entry point. It should never return. */
    call alt_main
 1800040:	180a2400 	call	180a240 <alt_main>

01800044 <alt_after_alt_main>:

    /* Wait in infinite loop in case alt_main does return. */
alt_after_alt_main:
    br alt_after_alt_main
 1800044:	003fff06 	br	1800044 <alt_after_alt_main>

01800048 <main>:

#include <stdio.h>
#include "pwm.h"

int main()
{
 1800048:	defffa04 	addi	sp,sp,-24
 180004c:	dfc00515 	stw	ra,20(sp)
 1800050:	df000415 	stw	fp,16(sp)
 1800054:	df000404 	addi	fp,sp,16
	printf("lololol lolol\n");
 1800058:	01006074 	movhi	r4,385
 180005c:	21022a04 	addi	r4,r4,2216
 1800060:	18006e80 	call	18006e8 <puts>
  Initilise_PWM('G');
 1800064:	010011c4 	movi	r4,71
 1800068:	18001c00 	call	18001c0 <Initilise_PWM>
  Initilise_PWM('W');
 180006c:	010015c4 	movi	r4,87
 1800070:	18001c00 	call	18001c0 <Initilise_PWM>
  Initilise_PWM('E');
 1800074:	01001144 	movi	r4,69
 1800078:	18001c00 	call	18001c0 <Initilise_PWM>
  Initilise_PWM('S');
 180007c:	010014c4 	movi	r4,83
 1800080:	18001c00 	call	18001c0 <Initilise_PWM>
  Initilise_PWM('B');
 1800084:	01001084 	movi	r4,66
 1800088:	18001c00 	call	18001c0 <Initilise_PWM>
  printf("initialised\n");
 180008c:	01006074 	movhi	r4,385
 1800090:	21022e04 	addi	r4,r4,2232
 1800094:	18006e80 	call	18006e8 <puts>
  int pwm = 75;
 1800098:	008012c4 	movi	r2,75
 180009c:	e0bfff15 	stw	r2,-4(fp)
  int dir = 1;
 18000a0:	00800044 	movi	r2,1
 18000a4:	e0bffe15 	stw	r2,-8(fp)
  int pwm2 = 150;
 18000a8:	00802584 	movi	r2,150
 18000ac:	e0bffd15 	stw	r2,-12(fp)
  int dir2 = 1;
 18000b0:	00800044 	movi	r2,1
 18000b4:	e0bffc15 	stw	r2,-16(fp)

  while(1)
  {
	  if((pwm == 100) || (pwm == 50))
 18000b8:	e0bfff17 	ldw	r2,-4(fp)
 18000bc:	10801920 	cmpeqi	r2,r2,100
 18000c0:	1000031e 	bne	r2,zero,18000d0 <main+0x88>
 18000c4:	e0bfff17 	ldw	r2,-4(fp)
 18000c8:	10800c98 	cmpnei	r2,r2,50
 18000cc:	1000031e 	bne	r2,zero,18000dc <main+0x94>
		{
			dir = !dir;
 18000d0:	e0bffe17 	ldw	r2,-8(fp)
 18000d4:	1005003a 	cmpeq	r2,r2,zero
 18000d8:	e0bffe15 	stw	r2,-8(fp)
		}

	  if(dir == 1)
 18000dc:	e0bffe17 	ldw	r2,-8(fp)
 18000e0:	10800058 	cmpnei	r2,r2,1
 18000e4:	1000041e 	bne	r2,zero,18000f8 <main+0xb0>
	  {
		  pwm++;
 18000e8:	e0bfff17 	ldw	r2,-4(fp)
 18000ec:	10800044 	addi	r2,r2,1
 18000f0:	e0bfff15 	stw	r2,-4(fp)
 18000f4:	00000606 	br	1800110 <main+0xc8>
	  }
	  else if(dir == 0)
 18000f8:	e0bffe17 	ldw	r2,-8(fp)
 18000fc:	1004c03a 	cmpne	r2,r2,zero
 1800100:	1000031e 	bne	r2,zero,1800110 <main+0xc8>
	  {
		  pwm--;
 1800104:	e0bfff17 	ldw	r2,-4(fp)
 1800108:	10bfffc4 	addi	r2,r2,-1
 180010c:	e0bfff15 	stw	r2,-4(fp)
	  }
	  if((pwm2 == 200) || (pwm2 == 100))
 1800110:	e0bffd17 	ldw	r2,-12(fp)
 1800114:	10803220 	cmpeqi	r2,r2,200
 1800118:	1000031e 	bne	r2,zero,1800128 <main+0xe0>
 180011c:	e0bffd17 	ldw	r2,-12(fp)
 1800120:	10801918 	cmpnei	r2,r2,100
 1800124:	1000031e 	bne	r2,zero,1800134 <main+0xec>
	  		{
	  			dir2 = !dir2;
 1800128:	e0bffc17 	ldw	r2,-16(fp)
 180012c:	1005003a 	cmpeq	r2,r2,zero
 1800130:	e0bffc15 	stw	r2,-16(fp)
	  		}

	  if(dir2 == 1)
 1800134:	e0bffc17 	ldw	r2,-16(fp)
 1800138:	10800058 	cmpnei	r2,r2,1
 180013c:	1000041e 	bne	r2,zero,1800150 <main+0x108>
	  	  {
	  		  pwm2++;
 1800140:	e0bffd17 	ldw	r2,-12(fp)
 1800144:	10800044 	addi	r2,r2,1
 1800148:	e0bffd15 	stw	r2,-12(fp)
 180014c:	00000606 	br	1800168 <main+0x120>
	  	  }
	  else if(dir2 == 0)
 1800150:	e0bffc17 	ldw	r2,-16(fp)
 1800154:	1004c03a 	cmpne	r2,r2,zero
 1800158:	1000031e 	bne	r2,zero,1800168 <main+0x120>
	  	  {
	  		  pwm2--;
 180015c:	e0bffd17 	ldw	r2,-12(fp)
 1800160:	10bfffc4 	addi	r2,r2,-1
 1800164:	e0bffd15 	stw	r2,-12(fp)
	  	  }
	  //write to the pwm modules
	  Set_Servo_Position('G', 150);
 1800168:	010011c4 	movi	r4,71
 180016c:	01402584 	movi	r5,150
 1800170:	18004a00 	call	18004a0 <Set_Servo_Position>
	  Set_Servo_Position('W', pwm2);
 1800174:	010015c4 	movi	r4,87
 1800178:	e17ffd17 	ldw	r5,-12(fp)
 180017c:	18004a00 	call	18004a0 <Set_Servo_Position>
	  Set_Servo_Position('E', pwm2);
 1800180:	01001144 	movi	r4,69
 1800184:	e17ffd17 	ldw	r5,-12(fp)
 1800188:	18004a00 	call	18004a0 <Set_Servo_Position>
	  Set_Servo_Position('S', pwm2);
 180018c:	010014c4 	movi	r4,83
 1800190:	e17ffd17 	ldw	r5,-12(fp)
 1800194:	18004a00 	call	18004a0 <Set_Servo_Position>
	  Set_Servo_Position('B', pwm2);
 1800198:	01001084 	movi	r4,66
 180019c:	e17ffd17 	ldw	r5,-12(fp)
 18001a0:	18004a00 	call	18004a0 <Set_Servo_Position>
	  usleep(50000);
 18001a4:	0130d414 	movui	r4,50000
 18001a8:	180a5880 	call	180a588 <usleep>
	  printf("set to %d\n", pwm);
 18001ac:	01006074 	movhi	r4,385
 18001b0:	21023104 	addi	r4,r4,2244
 18001b4:	e17fff17 	ldw	r5,-4(fp)
 18001b8:	18005d00 	call	18005d0 <printf>
  }
 18001bc:	003fbe06 	br	18000b8 <main+0x70>

018001c0 <Initilise_PWM>:
 *  Description : This module runs the start up sequence for whichever PWM module is specified
 *                by the input variable
 *
 **************************************************************************************************/
int Initilise_PWM(char Module_To_Initilise)
{
 18001c0:	defffd04 	addi	sp,sp,-12
 18001c4:	df000215 	stw	fp,8(sp)
 18001c8:	df000204 	addi	fp,sp,8
 18001cc:	e13ffe05 	stb	r4,-8(fp)
    switch (Module_To_Initilise)
 18001d0:	e0bffe07 	ldb	r2,-8(fp)
 18001d4:	10bfef84 	addi	r2,r2,-66
 18001d8:	e0bfff15 	stw	r2,-4(fp)
 18001dc:	e0ffff17 	ldw	r3,-4(fp)
 18001e0:	188005a8 	cmpgeui	r2,r3,22
 18001e4:	10006b1e 	bne	r2,zero,1800394 <Initilise_PWM+0x1d4>
 18001e8:	e13fff17 	ldw	r4,-4(fp)
 18001ec:	e13fff17 	ldw	r4,-4(fp)
 18001f0:	2105883a 	add	r2,r4,r4
 18001f4:	1087883a 	add	r3,r2,r2
 18001f8:	00806034 	movhi	r2,384
 18001fc:	10808304 	addi	r2,r2,524
 1800200:	1885883a 	add	r2,r3,r2
 1800204:	10800017 	ldw	r2,0(r2)
 1800208:	1000683a 	jmp	r2
 180020c:	01800264 	muli	r6,zero,9
 1800210:	01800394 	movui	r6,14
 1800214:	01800394 	movui	r6,14
 1800218:	018002fc 	xorhi	r6,zero,11
 180021c:	01800394 	movui	r6,14
 1800220:	01800364 	muli	r6,zero,13
 1800224:	01800394 	movui	r6,14
 1800228:	01800394 	movui	r6,14
 180022c:	01800394 	movui	r6,14
 1800230:	01800394 	movui	r6,14
 1800234:	01800394 	movui	r6,14
 1800238:	01800394 	movui	r6,14
 180023c:	01800394 	movui	r6,14
 1800240:	01800394 	movui	r6,14
 1800244:	01800394 	movui	r6,14
 1800248:	01800394 	movui	r6,14
 180024c:	01800394 	movui	r6,14
 1800250:	01800298 	cmpnei	r6,zero,10
 1800254:	01800394 	movui	r6,14
 1800258:	01800394 	movui	r6,14
 180025c:	01800394 	movui	r6,14
 1800260:	01800330 	cmpltui	r6,zero,12
    {
        case 'B' :
            IOWR_ALTERA_AVALON_PWM_CLK_DIV(MY_PWM_5_BASE, 50);
 1800264:	00c07904 	movi	r3,484
 1800268:	00800c84 	movi	r2,50
 180026c:	18800035 	stwio	r2,0(r3)
            IOWR_ALTERA_AVALON_PWM_DUTY(MY_PWM_5_BASE, 50);
 1800270:	00c07804 	movi	r3,480
 1800274:	00800c84 	movi	r2,50
 1800278:	18800035 	stwio	r2,0(r3)
            IOWR_ALTERA_AVALON_PWM_PERIOD(MY_PWM_5_BASE, 2000);
 180027c:	00c07a04 	movi	r3,488
 1800280:	0081f404 	movi	r2,2000
 1800284:	18800035 	stwio	r2,0(r3)
            IOWR_ALTERA_AVALON_PWM_CONTROL(MY_PWM_5_BASE, 1);
 1800288:	00c07b04 	movi	r3,492
 180028c:	00800044 	movi	r2,1
 1800290:	18800035 	stwio	r2,0(r3)
            break;
 1800294:	00003f06 	br	1800394 <Initilise_PWM+0x1d4>

        case 'S' :
            IOWR_ALTERA_AVALON_PWM_CLK_DIV(MY_PWM_3_BASE, 50);
 1800298:	00c07104 	movi	r3,452
 180029c:	00800c84 	movi	r2,50
 18002a0:	18800035 	stwio	r2,0(r3)
            IOWR_ALTERA_AVALON_PWM_DUTY(MY_PWM_3_BASE, 50);
 18002a4:	00c07004 	movi	r3,448
 18002a8:	00800c84 	movi	r2,50
 18002ac:	18800035 	stwio	r2,0(r3)
            IOWR_ALTERA_AVALON_PWM_PERIOD(MY_PWM_3_BASE, 2000);
 18002b0:	00c07204 	movi	r3,456
 18002b4:	0081f404 	movi	r2,2000
 18002b8:	18800035 	stwio	r2,0(r3)
            IOWR_ALTERA_AVALON_PWM_CONTROL(MY_PWM_3_BASE, 1);
 18002bc:	00c07304 	movi	r3,460
 18002c0:	00800044 	movi	r2,1
 18002c4:	18800035 	stwio	r2,0(r3)

            IOWR_ALTERA_AVALON_PWM_CLK_DIV(MY_PWM_4_BASE, 50);
 18002c8:	00c07504 	movi	r3,468
 18002cc:	00800c84 	movi	r2,50
 18002d0:	18800035 	stwio	r2,0(r3)
            IOWR_ALTERA_AVALON_PWM_DUTY(MY_PWM_4_BASE, 50);
 18002d4:	00c07404 	movi	r3,464
 18002d8:	00800c84 	movi	r2,50
 18002dc:	18800035 	stwio	r2,0(r3)
            IOWR_ALTERA_AVALON_PWM_PERIOD(MY_PWM_4_BASE, 2000);
 18002e0:	00c07604 	movi	r3,472
 18002e4:	0081f404 	movi	r2,2000
 18002e8:	18800035 	stwio	r2,0(r3)
            IOWR_ALTERA_AVALON_PWM_CONTROL(MY_PWM_4_BASE, 1);
 18002ec:	00c07704 	movi	r3,476
 18002f0:	00800044 	movi	r2,1
 18002f4:	18800035 	stwio	r2,0(r3)
            break;
 18002f8:	00002606 	br	1800394 <Initilise_PWM+0x1d4>

        case 'E' :
            IOWR_ALTERA_AVALON_PWM_CLK_DIV(MY_PWM_2_BASE, 50);
 18002fc:	00c06d04 	movi	r3,436
 1800300:	00800c84 	movi	r2,50
 1800304:	18800035 	stwio	r2,0(r3)
            IOWR_ALTERA_AVALON_PWM_DUTY(MY_PWM_2_BASE, 50);
 1800308:	00c06c04 	movi	r3,432
 180030c:	00800c84 	movi	r2,50
 1800310:	18800035 	stwio	r2,0(r3)
            IOWR_ALTERA_AVALON_PWM_PERIOD(MY_PWM_2_BASE, 2000);
 1800314:	00c06e04 	movi	r3,440
 1800318:	0081f404 	movi	r2,2000
 180031c:	18800035 	stwio	r2,0(r3)
            IOWR_ALTERA_AVALON_PWM_CONTROL(MY_PWM_2_BASE, 1);
 1800320:	00c06f04 	movi	r3,444
 1800324:	00800044 	movi	r2,1
 1800328:	18800035 	stwio	r2,0(r3)
            break;
 180032c:	00001906 	br	1800394 <Initilise_PWM+0x1d4>

        case 'W' :
            IOWR_ALTERA_AVALON_PWM_CLK_DIV(MY_PWM_1_BASE, 50);
 1800330:	00c06904 	movi	r3,420
 1800334:	00800c84 	movi	r2,50
 1800338:	18800035 	stwio	r2,0(r3)
            IOWR_ALTERA_AVALON_PWM_DUTY(MY_PWM_1_BASE, 50);
 180033c:	00c06804 	movi	r3,416
 1800340:	00800c84 	movi	r2,50
 1800344:	18800035 	stwio	r2,0(r3)
            IOWR_ALTERA_AVALON_PWM_PERIOD(MY_PWM_1_BASE, 2000);
 1800348:	00c06a04 	movi	r3,424
 180034c:	0081f404 	movi	r2,2000
 1800350:	18800035 	stwio	r2,0(r3)
            IOWR_ALTERA_AVALON_PWM_CONTROL(MY_PWM_1_BASE, 1);
 1800354:	00c06b04 	movi	r3,428
 1800358:	00800044 	movi	r2,1
 180035c:	18800035 	stwio	r2,0(r3)
            break;
 1800360:	00000c06 	br	1800394 <Initilise_PWM+0x1d4>

        case 'G' :
            IOWR_ALTERA_AVALON_PWM_CLK_DIV(MY_PWM_0_BASE,50);//100
 1800364:	00c06504 	movi	r3,404
 1800368:	00800c84 	movi	r2,50
 180036c:	18800035 	stwio	r2,0(r3)
            IOWR_ALTERA_AVALON_PWM_DUTY(MY_PWM_0_BASE, 50);
 1800370:	00c06404 	movi	r3,400
 1800374:	00800c84 	movi	r2,50
 1800378:	18800035 	stwio	r2,0(r3)
            IOWR_ALTERA_AVALON_PWM_PERIOD(MY_PWM_0_BASE, 2000);//1000
 180037c:	00c06604 	movi	r3,408
 1800380:	0081f404 	movi	r2,2000
 1800384:	18800035 	stwio	r2,0(r3)
            IOWR_ALTERA_AVALON_PWM_CONTROL(MY_PWM_0_BASE, 1);
 1800388:	00c06704 	movi	r3,412
 180038c:	00800044 	movi	r2,1
 1800390:	18800035 	stwio	r2,0(r3)

            default :
            	break;
                return 0;
    }
    return 1;
 1800394:	00800044 	movi	r2,1
}
 1800398:	e037883a 	mov	sp,fp
 180039c:	df000017 	ldw	fp,0(sp)
 18003a0:	dec00104 	addi	sp,sp,4
 18003a4:	f800283a 	ret

018003a8 <Set_PWM_Duty_Cycle>:
 *
 *  Description : This module updates the duty cycle for the selected PWM module
 *
 **************************************************************************************************/
int Set_PWM_Duty_Cycle ( int Channel, int Duty_Cycle)
{
 18003a8:	defffb04 	addi	sp,sp,-20
 18003ac:	df000415 	stw	fp,16(sp)
 18003b0:	df000404 	addi	fp,sp,16
 18003b4:	e13ffd15 	stw	r4,-12(fp)
 18003b8:	e17ffe15 	stw	r5,-8(fp)
    //get address of PWM Channel

    int Address = 0;
 18003bc:	e03ffc15 	stw	zero,-16(fp)

    switch (Channel)
 18003c0:	e0bffd17 	ldw	r2,-12(fp)
 18003c4:	108001e8 	cmpgeui	r2,r2,7
 18003c8:	1000211e 	bne	r2,zero,1800450 <Set_PWM_Duty_Cycle+0xa8>
 18003cc:	e0bffd17 	ldw	r2,-12(fp)
 18003d0:	1085883a 	add	r2,r2,r2
 18003d4:	1087883a 	add	r3,r2,r2
 18003d8:	00806034 	movhi	r2,384
 18003dc:	1080fb04 	addi	r2,r2,1004
 18003e0:	1885883a 	add	r2,r3,r2
 18003e4:	10800017 	ldw	r2,0(r2)
 18003e8:	1000683a 	jmp	r2
 18003ec:	01800450 	cmplti	r6,zero,17
 18003f0:	01800408 	cmpgei	r6,zero,16
 18003f4:	01800414 	movui	r6,16
 18003f8:	01800420 	cmpeqi	r6,zero,16
 18003fc:	0180042c 	andhi	r6,zero,16
 1800400:	01800438 	rdprs	r6,zero,16
 1800404:	01800444 	movi	r6,17
    {
        case 1 :
            Address = MY_PWM_0_BASE;
 1800408:	00806404 	movi	r2,400
 180040c:	e0bffc15 	stw	r2,-16(fp)
            break;
 1800410:	00001106 	br	1800458 <Set_PWM_Duty_Cycle+0xb0>
        case 2 :
            Address = MY_PWM_1_BASE;
 1800414:	00806804 	movi	r2,416
 1800418:	e0bffc15 	stw	r2,-16(fp)
            break;
 180041c:	00000e06 	br	1800458 <Set_PWM_Duty_Cycle+0xb0>
        case 3 :
            Address = MY_PWM_2_BASE;
 1800420:	00806c04 	movi	r2,432
 1800424:	e0bffc15 	stw	r2,-16(fp)
            break;
 1800428:	00000b06 	br	1800458 <Set_PWM_Duty_Cycle+0xb0>
        case 4 :
            Address = MY_PWM_3_BASE;
 180042c:	00807004 	movi	r2,448
 1800430:	e0bffc15 	stw	r2,-16(fp)
            break;
 1800434:	00000806 	br	1800458 <Set_PWM_Duty_Cycle+0xb0>
        case 5 :
            Address = MY_PWM_4_BASE;
 1800438:	00807404 	movi	r2,464
 180043c:	e0bffc15 	stw	r2,-16(fp)
            break;
 1800440:	00000506 	br	1800458 <Set_PWM_Duty_Cycle+0xb0>
        case 6 :
            Address = MY_PWM_5_BASE;
 1800444:	00807804 	movi	r2,480
 1800448:	e0bffc15 	stw	r2,-16(fp)
            break;
 180044c:	00000206 	br	1800458 <Set_PWM_Duty_Cycle+0xb0>
        default :
            //unrecognised channal selected
            return 0;
 1800450:	e03fff15 	stw	zero,-4(fp)
 1800454:	00000d06 	br	180048c <Set_PWM_Duty_Cycle+0xe4>

    }

    //check the desired PWM module is active
    if(IORD_ALTERA_AVALON_PWM_CONTROL(Address) == 0)
 1800458:	e0bffc17 	ldw	r2,-16(fp)
 180045c:	10800304 	addi	r2,r2,12
 1800460:	10800037 	ldwio	r2,0(r2)
 1800464:	1004c03a 	cmpne	r2,r2,zero
 1800468:	1000021e 	bne	r2,zero,1800474 <Set_PWM_Duty_Cycle+0xcc>
    {
        return 0;
 180046c:	e03fff15 	stw	zero,-4(fp)
 1800470:	00000606 	br	180048c <Set_PWM_Duty_Cycle+0xe4>

    //check duty cycle is within bounds (0-100)
    //if(Duty_Cycle > 125) Duty_Cycle = 125;
    //if(Duty_Cycle < 25) Duty_Cycle = 0;
    //set the channel to the desired Duty Cycle
    IOWR_ALTERA_AVALON_PWM_DUTY(Address, Duty_Cycle);
 1800474:	e0bffc17 	ldw	r2,-16(fp)
 1800478:	1007883a 	mov	r3,r2
 180047c:	e0bffe17 	ldw	r2,-8(fp)
 1800480:	18800035 	stwio	r2,0(r3)

    return 1;
 1800484:	00800044 	movi	r2,1
 1800488:	e0bfff15 	stw	r2,-4(fp)
 180048c:	e0bfff17 	ldw	r2,-4(fp)
}
 1800490:	e037883a 	mov	sp,fp
 1800494:	df000017 	ldw	fp,0(sp)
 1800498:	dec00104 	addi	sp,sp,4
 180049c:	f800283a 	ret

018004a0 <Set_Servo_Position>:
 *
 *  Description : This module updates the duty cycle for the selected PWM module
 *
 **************************************************************************************************/
int Set_Servo_Position (char Servo, int Position)
{
 18004a0:	defffa04 	addi	sp,sp,-24
 18004a4:	dfc00515 	stw	ra,20(sp)
 18004a8:	df000415 	stw	fp,16(sp)
 18004ac:	df000404 	addi	fp,sp,16
 18004b0:	e17ffd15 	stw	r5,-12(fp)
 18004b4:	e13ffc05 	stb	r4,-16(fp)
    switch (Servo)
 18004b8:	e0bffc07 	ldb	r2,-16(fp)
 18004bc:	10bfef84 	addi	r2,r2,-66
 18004c0:	e0bfff15 	stw	r2,-4(fp)
 18004c4:	e0ffff17 	ldw	r3,-4(fp)
 18004c8:	188005a8 	cmpgeui	r2,r3,22
 18004cc:	1000361e 	bne	r2,zero,18005a8 <Set_Servo_Position+0x108>
 18004d0:	e13fff17 	ldw	r4,-4(fp)
 18004d4:	e13fff17 	ldw	r4,-4(fp)
 18004d8:	2105883a 	add	r2,r4,r4
 18004dc:	1087883a 	add	r3,r2,r2
 18004e0:	00806034 	movhi	r2,384
 18004e4:	10813d04 	addi	r2,r2,1268
 18004e8:	1885883a 	add	r2,r3,r2
 18004ec:	10800017 	ldw	r2,0(r2)
 18004f0:	1000683a 	jmp	r2
 18004f4:	01800598 	cmpnei	r6,zero,22
 18004f8:	018005a8 	cmpgeui	r6,zero,22
 18004fc:	018005a8 	cmpgeui	r6,zero,22
 1800500:	0180056c 	andhi	r6,zero,21
 1800504:	018005a8 	cmpgeui	r6,zero,22
 1800508:	0180054c 	andi	r6,zero,21
 180050c:	018005a8 	cmpgeui	r6,zero,22
 1800510:	018005a8 	cmpgeui	r6,zero,22
 1800514:	018005a8 	cmpgeui	r6,zero,22
 1800518:	018005a8 	cmpgeui	r6,zero,22
 180051c:	018005a8 	cmpgeui	r6,zero,22
 1800520:	018005a8 	cmpgeui	r6,zero,22
 1800524:	018005a8 	cmpgeui	r6,zero,22
 1800528:	018005a8 	cmpgeui	r6,zero,22
 180052c:	018005a8 	cmpgeui	r6,zero,22
 1800530:	018005a8 	cmpgeui	r6,zero,22
 1800534:	018005a8 	cmpgeui	r6,zero,22
 1800538:	0180057c 	xorhi	r6,zero,21
 180053c:	018005a8 	cmpgeui	r6,zero,22
 1800540:	018005a8 	cmpgeui	r6,zero,22
 1800544:	018005a8 	cmpgeui	r6,zero,22
 1800548:	0180055c 	xori	r6,zero,21
    {
        case 'G' :
        	Set_PWM_Duty_Cycle(1, Position);
 180054c:	01000044 	movi	r4,1
 1800550:	e17ffd17 	ldw	r5,-12(fp)
 1800554:	18003a80 	call	18003a8 <Set_PWM_Duty_Cycle>
            break;
 1800558:	00001506 	br	18005b0 <Set_Servo_Position+0x110>
        case 'W' :
        	Set_PWM_Duty_Cycle(2, Position);
 180055c:	01000084 	movi	r4,2
 1800560:	e17ffd17 	ldw	r5,-12(fp)
 1800564:	18003a80 	call	18003a8 <Set_PWM_Duty_Cycle>
            break;
 1800568:	00001106 	br	18005b0 <Set_Servo_Position+0x110>
        case 'E' :
        	Set_PWM_Duty_Cycle(3, Position);
 180056c:	010000c4 	movi	r4,3
 1800570:	e17ffd17 	ldw	r5,-12(fp)
 1800574:	18003a80 	call	18003a8 <Set_PWM_Duty_Cycle>
            break;
 1800578:	00000d06 	br	18005b0 <Set_Servo_Position+0x110>
        case 'S' :
        	Set_PWM_Duty_Cycle(4, Position);
 180057c:	01000104 	movi	r4,4
 1800580:	e17ffd17 	ldw	r5,-12(fp)
 1800584:	18003a80 	call	18003a8 <Set_PWM_Duty_Cycle>
        	Set_PWM_Duty_Cycle(5, Position);
 1800588:	01000144 	movi	r4,5
 180058c:	e17ffd17 	ldw	r5,-12(fp)
 1800590:	18003a80 	call	18003a8 <Set_PWM_Duty_Cycle>
            break;
 1800594:	00000606 	br	18005b0 <Set_Servo_Position+0x110>
        case 'B' :
        	Set_PWM_Duty_Cycle(6, Position);
 1800598:	01000184 	movi	r4,6
 180059c:	e17ffd17 	ldw	r5,-12(fp)
 18005a0:	18003a80 	call	18003a8 <Set_PWM_Duty_Cycle>
            break;
 18005a4:	00000206 	br	18005b0 <Set_Servo_Position+0x110>
        default :
            //unrecognised channal selected
            return 0;
 18005a8:	e03ffe15 	stw	zero,-8(fp)
 18005ac:	00000206 	br	18005b8 <Set_Servo_Position+0x118>
    }
    return 1;
 18005b0:	00800044 	movi	r2,1
 18005b4:	e0bffe15 	stw	r2,-8(fp)
 18005b8:	e0bffe17 	ldw	r2,-8(fp)
}
 18005bc:	e037883a 	mov	sp,fp
 18005c0:	dfc00117 	ldw	ra,4(sp)
 18005c4:	df000017 	ldw	fp,0(sp)
 18005c8:	dec00204 	addi	sp,sp,8
 18005cc:	f800283a 	ret

018005d0 <printf>:
 18005d0:	defffb04 	addi	sp,sp,-20
 18005d4:	dfc00115 	stw	ra,4(sp)
 18005d8:	d9400215 	stw	r5,8(sp)
 18005dc:	d9800315 	stw	r6,12(sp)
 18005e0:	d9c00415 	stw	r7,16(sp)
 18005e4:	00806074 	movhi	r2,385
 18005e8:	108ae404 	addi	r2,r2,11152
 18005ec:	10c00017 	ldw	r3,0(r2)
 18005f0:	200b883a 	mov	r5,r4
 18005f4:	d8800204 	addi	r2,sp,8
 18005f8:	19000217 	ldw	r4,8(r3)
 18005fc:	100d883a 	mov	r6,r2
 1800600:	d8800015 	stw	r2,0(sp)
 1800604:	18026740 	call	1802674 <__vfprintf_internal>
 1800608:	dfc00117 	ldw	ra,4(sp)
 180060c:	dec00504 	addi	sp,sp,20
 1800610:	f800283a 	ret

01800614 <_printf_r>:
 1800614:	defffc04 	addi	sp,sp,-16
 1800618:	dfc00115 	stw	ra,4(sp)
 180061c:	d9800215 	stw	r6,8(sp)
 1800620:	d9c00315 	stw	r7,12(sp)
 1800624:	280d883a 	mov	r6,r5
 1800628:	21400217 	ldw	r5,8(r4)
 180062c:	d8c00204 	addi	r3,sp,8
 1800630:	180f883a 	mov	r7,r3
 1800634:	d8c00015 	stw	r3,0(sp)
 1800638:	18007c80 	call	18007c8 <___vfprintf_internal_r>
 180063c:	dfc00117 	ldw	ra,4(sp)
 1800640:	dec00404 	addi	sp,sp,16
 1800644:	f800283a 	ret

01800648 <_puts_r>:
 1800648:	defff604 	addi	sp,sp,-40
 180064c:	dc400715 	stw	r17,28(sp)
 1800650:	2023883a 	mov	r17,r4
 1800654:	2809883a 	mov	r4,r5
 1800658:	dfc00915 	stw	ra,36(sp)
 180065c:	dcc00815 	stw	r19,32(sp)
 1800660:	2827883a 	mov	r19,r5
 1800664:	18006fc0 	call	18006fc <strlen>
 1800668:	89400217 	ldw	r5,8(r17)
 180066c:	00c06074 	movhi	r3,385
 1800670:	18c23404 	addi	r3,r3,2256
 1800674:	01c00044 	movi	r7,1
 1800678:	12000044 	addi	r8,r2,1
 180067c:	d8c00515 	stw	r3,20(sp)
 1800680:	d9c00615 	stw	r7,24(sp)
 1800684:	d8c00304 	addi	r3,sp,12
 1800688:	01c00084 	movi	r7,2
 180068c:	8809883a 	mov	r4,r17
 1800690:	d80d883a 	mov	r6,sp
 1800694:	d8c00015 	stw	r3,0(sp)
 1800698:	dcc00315 	stw	r19,12(sp)
 180069c:	da000215 	stw	r8,8(sp)
 18006a0:	d9c00115 	stw	r7,4(sp)
 18006a4:	d8800415 	stw	r2,16(sp)
 18006a8:	18048d00 	call	18048d0 <__sfvwrite_r>
 18006ac:	00ffffc4 	movi	r3,-1
 18006b0:	10000626 	beq	r2,zero,18006cc <_puts_r+0x84>
 18006b4:	1805883a 	mov	r2,r3
 18006b8:	dfc00917 	ldw	ra,36(sp)
 18006bc:	dcc00817 	ldw	r19,32(sp)
 18006c0:	dc400717 	ldw	r17,28(sp)
 18006c4:	dec00a04 	addi	sp,sp,40
 18006c8:	f800283a 	ret
 18006cc:	00c00284 	movi	r3,10
 18006d0:	1805883a 	mov	r2,r3
 18006d4:	dfc00917 	ldw	ra,36(sp)
 18006d8:	dcc00817 	ldw	r19,32(sp)
 18006dc:	dc400717 	ldw	r17,28(sp)
 18006e0:	dec00a04 	addi	sp,sp,40
 18006e4:	f800283a 	ret

018006e8 <puts>:
 18006e8:	00806074 	movhi	r2,385
 18006ec:	108ae404 	addi	r2,r2,11152
 18006f0:	200b883a 	mov	r5,r4
 18006f4:	11000017 	ldw	r4,0(r2)
 18006f8:	18006481 	jmpi	1800648 <_puts_r>

018006fc <strlen>:
 18006fc:	208000cc 	andi	r2,r4,3
 1800700:	2011883a 	mov	r8,r4
 1800704:	1000161e 	bne	r2,zero,1800760 <strlen+0x64>
 1800708:	20c00017 	ldw	r3,0(r4)
 180070c:	017fbff4 	movhi	r5,65279
 1800710:	297fbfc4 	addi	r5,r5,-257
 1800714:	01e02074 	movhi	r7,32897
 1800718:	39e02004 	addi	r7,r7,-32640
 180071c:	1945883a 	add	r2,r3,r5
 1800720:	11c4703a 	and	r2,r2,r7
 1800724:	00c6303a 	nor	r3,zero,r3
 1800728:	1886703a 	and	r3,r3,r2
 180072c:	18000c1e 	bne	r3,zero,1800760 <strlen+0x64>
 1800730:	280d883a 	mov	r6,r5
 1800734:	380b883a 	mov	r5,r7
 1800738:	21000104 	addi	r4,r4,4
 180073c:	20800017 	ldw	r2,0(r4)
 1800740:	1187883a 	add	r3,r2,r6
 1800744:	1946703a 	and	r3,r3,r5
 1800748:	0084303a 	nor	r2,zero,r2
 180074c:	10c4703a 	and	r2,r2,r3
 1800750:	103ff926 	beq	r2,zero,1800738 <strlen+0x3c>
 1800754:	20800007 	ldb	r2,0(r4)
 1800758:	10000326 	beq	r2,zero,1800768 <strlen+0x6c>
 180075c:	21000044 	addi	r4,r4,1
 1800760:	20800007 	ldb	r2,0(r4)
 1800764:	103ffd1e 	bne	r2,zero,180075c <strlen+0x60>
 1800768:	2205c83a 	sub	r2,r4,r8
 180076c:	f800283a 	ret

01800770 <__sprint_r>:
 1800770:	30800217 	ldw	r2,8(r6)
 1800774:	defffe04 	addi	sp,sp,-8
 1800778:	dc000015 	stw	r16,0(sp)
 180077c:	dfc00115 	stw	ra,4(sp)
 1800780:	3021883a 	mov	r16,r6
 1800784:	0007883a 	mov	r3,zero
 1800788:	1000061e 	bne	r2,zero,18007a4 <__sprint_r+0x34>
 180078c:	1805883a 	mov	r2,r3
 1800790:	30000115 	stw	zero,4(r6)
 1800794:	dfc00117 	ldw	ra,4(sp)
 1800798:	dc000017 	ldw	r16,0(sp)
 180079c:	dec00204 	addi	sp,sp,8
 18007a0:	f800283a 	ret
 18007a4:	18048d00 	call	18048d0 <__sfvwrite_r>
 18007a8:	1007883a 	mov	r3,r2
 18007ac:	1805883a 	mov	r2,r3
 18007b0:	80000115 	stw	zero,4(r16)
 18007b4:	80000215 	stw	zero,8(r16)
 18007b8:	dfc00117 	ldw	ra,4(sp)
 18007bc:	dc000017 	ldw	r16,0(sp)
 18007c0:	dec00204 	addi	sp,sp,8
 18007c4:	f800283a 	ret

018007c8 <___vfprintf_internal_r>:
 18007c8:	defea404 	addi	sp,sp,-1392
 18007cc:	dd815815 	stw	r22,1376(sp)
 18007d0:	dc015215 	stw	r16,1352(sp)
 18007d4:	d9c15115 	stw	r7,1348(sp)
 18007d8:	dfc15b15 	stw	ra,1388(sp)
 18007dc:	df015a15 	stw	fp,1384(sp)
 18007e0:	ddc15915 	stw	r23,1380(sp)
 18007e4:	dd415715 	stw	r21,1372(sp)
 18007e8:	dd015615 	stw	r20,1368(sp)
 18007ec:	dcc15515 	stw	r19,1364(sp)
 18007f0:	dc815415 	stw	r18,1360(sp)
 18007f4:	dc415315 	stw	r17,1356(sp)
 18007f8:	282d883a 	mov	r22,r5
 18007fc:	3021883a 	mov	r16,r6
 1800800:	d9014f15 	stw	r4,1340(sp)
 1800804:	1804ef40 	call	1804ef4 <_localeconv_r>
 1800808:	10800017 	ldw	r2,0(r2)
 180080c:	d9c15117 	ldw	r7,1348(sp)
 1800810:	d8814915 	stw	r2,1316(sp)
 1800814:	d8814f17 	ldw	r2,1340(sp)
 1800818:	10000226 	beq	r2,zero,1800824 <___vfprintf_internal_r+0x5c>
 180081c:	10800e17 	ldw	r2,56(r2)
 1800820:	10020d26 	beq	r2,zero,1801058 <___vfprintf_internal_r+0x890>
 1800824:	b080030b 	ldhu	r2,12(r22)
 1800828:	1080020c 	andi	r2,r2,8
 180082c:	10020e26 	beq	r2,zero,1801068 <___vfprintf_internal_r+0x8a0>
 1800830:	b0800417 	ldw	r2,16(r22)
 1800834:	10020c26 	beq	r2,zero,1801068 <___vfprintf_internal_r+0x8a0>
 1800838:	b200030b 	ldhu	r8,12(r22)
 180083c:	00800284 	movi	r2,10
 1800840:	40c0068c 	andi	r3,r8,26
 1800844:	18802f1e 	bne	r3,r2,1800904 <___vfprintf_internal_r+0x13c>
 1800848:	b080038f 	ldh	r2,14(r22)
 180084c:	10002d16 	blt	r2,zero,1800904 <___vfprintf_internal_r+0x13c>
 1800850:	b240038b 	ldhu	r9,14(r22)
 1800854:	b2800717 	ldw	r10,28(r22)
 1800858:	b2c00917 	ldw	r11,36(r22)
 180085c:	d9014f17 	ldw	r4,1340(sp)
 1800860:	dc402904 	addi	r17,sp,164
 1800864:	d8804004 	addi	r2,sp,256
 1800868:	00c10004 	movi	r3,1024
 180086c:	423fff4c 	andi	r8,r8,65533
 1800870:	800d883a 	mov	r6,r16
 1800874:	880b883a 	mov	r5,r17
 1800878:	da002c0d 	sth	r8,176(sp)
 180087c:	da402c8d 	sth	r9,178(sp)
 1800880:	da803015 	stw	r10,192(sp)
 1800884:	dac03215 	stw	r11,200(sp)
 1800888:	d8802d15 	stw	r2,180(sp)
 180088c:	d8c02e15 	stw	r3,184(sp)
 1800890:	d8802915 	stw	r2,164(sp)
 1800894:	d8c02b15 	stw	r3,172(sp)
 1800898:	d8002f15 	stw	zero,188(sp)
 180089c:	18007c80 	call	18007c8 <___vfprintf_internal_r>
 18008a0:	d8814b15 	stw	r2,1324(sp)
 18008a4:	10000416 	blt	r2,zero,18008b8 <___vfprintf_internal_r+0xf0>
 18008a8:	d9014f17 	ldw	r4,1340(sp)
 18008ac:	880b883a 	mov	r5,r17
 18008b0:	1803fa00 	call	1803fa0 <_fflush_r>
 18008b4:	1002321e 	bne	r2,zero,1801180 <___vfprintf_internal_r+0x9b8>
 18008b8:	d8802c0b 	ldhu	r2,176(sp)
 18008bc:	1080100c 	andi	r2,r2,64
 18008c0:	10000326 	beq	r2,zero,18008d0 <___vfprintf_internal_r+0x108>
 18008c4:	b080030b 	ldhu	r2,12(r22)
 18008c8:	10801014 	ori	r2,r2,64
 18008cc:	b080030d 	sth	r2,12(r22)
 18008d0:	d8814b17 	ldw	r2,1324(sp)
 18008d4:	dfc15b17 	ldw	ra,1388(sp)
 18008d8:	df015a17 	ldw	fp,1384(sp)
 18008dc:	ddc15917 	ldw	r23,1380(sp)
 18008e0:	dd815817 	ldw	r22,1376(sp)
 18008e4:	dd415717 	ldw	r21,1372(sp)
 18008e8:	dd015617 	ldw	r20,1368(sp)
 18008ec:	dcc15517 	ldw	r19,1364(sp)
 18008f0:	dc815417 	ldw	r18,1360(sp)
 18008f4:	dc415317 	ldw	r17,1356(sp)
 18008f8:	dc015217 	ldw	r16,1352(sp)
 18008fc:	dec15c04 	addi	sp,sp,1392
 1800900:	f800283a 	ret
 1800904:	0005883a 	mov	r2,zero
 1800908:	0007883a 	mov	r3,zero
 180090c:	dd401904 	addi	r21,sp,100
 1800910:	d8814215 	stw	r2,1288(sp)
 1800914:	802f883a 	mov	r23,r16
 1800918:	d8c14315 	stw	r3,1292(sp)
 180091c:	d8014b15 	stw	zero,1324(sp)
 1800920:	d8014815 	stw	zero,1312(sp)
 1800924:	d8014415 	stw	zero,1296(sp)
 1800928:	d8014715 	stw	zero,1308(sp)
 180092c:	dd400c15 	stw	r21,48(sp)
 1800930:	d8000e15 	stw	zero,56(sp)
 1800934:	d8000d15 	stw	zero,52(sp)
 1800938:	b8800007 	ldb	r2,0(r23)
 180093c:	10001926 	beq	r2,zero,18009a4 <___vfprintf_internal_r+0x1dc>
 1800940:	00c00944 	movi	r3,37
 1800944:	10c01726 	beq	r2,r3,18009a4 <___vfprintf_internal_r+0x1dc>
 1800948:	b821883a 	mov	r16,r23
 180094c:	00000106 	br	1800954 <___vfprintf_internal_r+0x18c>
 1800950:	10c00326 	beq	r2,r3,1800960 <___vfprintf_internal_r+0x198>
 1800954:	84000044 	addi	r16,r16,1
 1800958:	80800007 	ldb	r2,0(r16)
 180095c:	103ffc1e 	bne	r2,zero,1800950 <___vfprintf_internal_r+0x188>
 1800960:	85e7c83a 	sub	r19,r16,r23
 1800964:	98000e26 	beq	r19,zero,18009a0 <___vfprintf_internal_r+0x1d8>
 1800968:	dc800e17 	ldw	r18,56(sp)
 180096c:	dc400d17 	ldw	r17,52(sp)
 1800970:	008001c4 	movi	r2,7
 1800974:	94e5883a 	add	r18,r18,r19
 1800978:	8c400044 	addi	r17,r17,1
 180097c:	adc00015 	stw	r23,0(r21)
 1800980:	dc800e15 	stw	r18,56(sp)
 1800984:	acc00115 	stw	r19,4(r21)
 1800988:	dc400d15 	stw	r17,52(sp)
 180098c:	14428b16 	blt	r2,r17,18013bc <___vfprintf_internal_r+0xbf4>
 1800990:	ad400204 	addi	r21,r21,8
 1800994:	d9014b17 	ldw	r4,1324(sp)
 1800998:	24c9883a 	add	r4,r4,r19
 180099c:	d9014b15 	stw	r4,1324(sp)
 18009a0:	802f883a 	mov	r23,r16
 18009a4:	b8800007 	ldb	r2,0(r23)
 18009a8:	10013c26 	beq	r2,zero,1800e9c <___vfprintf_internal_r+0x6d4>
 18009ac:	bdc00044 	addi	r23,r23,1
 18009b0:	d8000405 	stb	zero,16(sp)
 18009b4:	b8c00007 	ldb	r3,0(r23)
 18009b8:	04ffffc4 	movi	r19,-1
 18009bc:	d8014c15 	stw	zero,1328(sp)
 18009c0:	d8014a15 	stw	zero,1320(sp)
 18009c4:	d8c14d15 	stw	r3,1332(sp)
 18009c8:	bdc00044 	addi	r23,r23,1
 18009cc:	d9414d17 	ldw	r5,1332(sp)
 18009d0:	00801604 	movi	r2,88
 18009d4:	28fff804 	addi	r3,r5,-32
 18009d8:	10c06036 	bltu	r2,r3,1800b5c <___vfprintf_internal_r+0x394>
 18009dc:	18c5883a 	add	r2,r3,r3
 18009e0:	1085883a 	add	r2,r2,r2
 18009e4:	00c06034 	movhi	r3,384
 18009e8:	18c27e04 	addi	r3,r3,2552
 18009ec:	10c5883a 	add	r2,r2,r3
 18009f0:	11000017 	ldw	r4,0(r2)
 18009f4:	2000683a 	jmp	r4
 18009f8:	0180196c 	andhi	r6,zero,101
 18009fc:	01800b5c 	xori	r6,zero,45
 1800a00:	01800b5c 	xori	r6,zero,45
 1800a04:	01801958 	cmpnei	r6,zero,101
 1800a08:	01800b5c 	xori	r6,zero,45
 1800a0c:	01800b5c 	xori	r6,zero,45
 1800a10:	01800b5c 	xori	r6,zero,45
 1800a14:	01800b5c 	xori	r6,zero,45
 1800a18:	01800b5c 	xori	r6,zero,45
 1800a1c:	01800b5c 	xori	r6,zero,45
 1800a20:	01801738 	rdprs	r6,zero,92
 1800a24:	01801948 	cmpgei	r6,zero,101
 1800a28:	01800b5c 	xori	r6,zero,45
 1800a2c:	01801750 	cmplti	r6,zero,93
 1800a30:	018019e4 	muli	r6,zero,103
 1800a34:	01800b5c 	xori	r6,zero,45
 1800a38:	018019d0 	cmplti	r6,zero,103
 1800a3c:	01801998 	cmpnei	r6,zero,102
 1800a40:	01801998 	cmpnei	r6,zero,102
 1800a44:	01801998 	cmpnei	r6,zero,102
 1800a48:	01801998 	cmpnei	r6,zero,102
 1800a4c:	01801998 	cmpnei	r6,zero,102
 1800a50:	01801998 	cmpnei	r6,zero,102
 1800a54:	01801998 	cmpnei	r6,zero,102
 1800a58:	01801998 	cmpnei	r6,zero,102
 1800a5c:	01801998 	cmpnei	r6,zero,102
 1800a60:	01800b5c 	xori	r6,zero,45
 1800a64:	01800b5c 	xori	r6,zero,45
 1800a68:	01800b5c 	xori	r6,zero,45
 1800a6c:	01800b5c 	xori	r6,zero,45
 1800a70:	01800b5c 	xori	r6,zero,45
 1800a74:	01800b5c 	xori	r6,zero,45
 1800a78:	01800b5c 	xori	r6,zero,45
 1800a7c:	01800b5c 	xori	r6,zero,45
 1800a80:	01800b5c 	xori	r6,zero,45
 1800a84:	01800b5c 	xori	r6,zero,45
 1800a88:	018011b4 	movhi	r6,70
 1800a8c:	01801820 	cmpeqi	r6,zero,96
 1800a90:	01800b5c 	xori	r6,zero,45
 1800a94:	01801820 	cmpeqi	r6,zero,96
 1800a98:	01800b5c 	xori	r6,zero,45
 1800a9c:	01800b5c 	xori	r6,zero,45
 1800aa0:	01800b5c 	xori	r6,zero,45
 1800aa4:	01800b5c 	xori	r6,zero,45
 1800aa8:	01801984 	movi	r6,102
 1800aac:	01800b5c 	xori	r6,zero,45
 1800ab0:	01800b5c 	xori	r6,zero,45
 1800ab4:	01801268 	cmpgeui	r6,zero,73
 1800ab8:	01800b5c 	xori	r6,zero,45
 1800abc:	01800b5c 	xori	r6,zero,45
 1800ac0:	01800b5c 	xori	r6,zero,45
 1800ac4:	01800b5c 	xori	r6,zero,45
 1800ac8:	01800b5c 	xori	r6,zero,45
 1800acc:	018012b4 	movhi	r6,74
 1800ad0:	01800b5c 	xori	r6,zero,45
 1800ad4:	01800b5c 	xori	r6,zero,45
 1800ad8:	018018d4 	movui	r6,99
 1800adc:	01800b5c 	xori	r6,zero,45
 1800ae0:	01800b5c 	xori	r6,zero,45
 1800ae4:	01800b5c 	xori	r6,zero,45
 1800ae8:	01800b5c 	xori	r6,zero,45
 1800aec:	01800b5c 	xori	r6,zero,45
 1800af0:	01800b5c 	xori	r6,zero,45
 1800af4:	01800b5c 	xori	r6,zero,45
 1800af8:	01800b5c 	xori	r6,zero,45
 1800afc:	01800b5c 	xori	r6,zero,45
 1800b00:	01800b5c 	xori	r6,zero,45
 1800b04:	018018a8 	cmpgeui	r6,zero,98
 1800b08:	018011c0 	call	18011c <__alt_mem_sdram-0x167fee4>
 1800b0c:	01801820 	cmpeqi	r6,zero,96
 1800b10:	01801820 	cmpeqi	r6,zero,96
 1800b14:	01801820 	cmpeqi	r6,zero,96
 1800b18:	0180180c 	andi	r6,zero,96
 1800b1c:	018011c0 	call	18011c <__alt_mem_sdram-0x167fee4>
 1800b20:	01800b5c 	xori	r6,zero,45
 1800b24:	01800b5c 	xori	r6,zero,45
 1800b28:	01801794 	movui	r6,94
 1800b2c:	01800b5c 	xori	r6,zero,45
 1800b30:	01801764 	muli	r6,zero,93
 1800b34:	01801274 	movhi	r6,73
 1800b38:	018017c4 	movi	r6,95
 1800b3c:	018017b0 	cmpltui	r6,zero,94
 1800b40:	01800b5c 	xori	r6,zero,45
 1800b44:	01801a40 	call	1801a4 <__alt_mem_sdram-0x167fe5c>
 1800b48:	01800b5c 	xori	r6,zero,45
 1800b4c:	018012c0 	call	18012c <__alt_mem_sdram-0x167fed4>
 1800b50:	01800b5c 	xori	r6,zero,45
 1800b54:	01800b5c 	xori	r6,zero,45
 1800b58:	01801938 	rdprs	r6,zero,100
 1800b5c:	d9014d17 	ldw	r4,1332(sp)
 1800b60:	2000ce26 	beq	r4,zero,1800e9c <___vfprintf_internal_r+0x6d4>
 1800b64:	01400044 	movi	r5,1
 1800b68:	d9800f04 	addi	r6,sp,60
 1800b6c:	d9c14015 	stw	r7,1280(sp)
 1800b70:	d9414515 	stw	r5,1300(sp)
 1800b74:	d9814115 	stw	r6,1284(sp)
 1800b78:	280f883a 	mov	r7,r5
 1800b7c:	d9000f05 	stb	r4,60(sp)
 1800b80:	d8000405 	stb	zero,16(sp)
 1800b84:	d8014615 	stw	zero,1304(sp)
 1800b88:	d8c14c17 	ldw	r3,1328(sp)
 1800b8c:	1880008c 	andi	r2,r3,2
 1800b90:	1005003a 	cmpeq	r2,r2,zero
 1800b94:	d8815015 	stw	r2,1344(sp)
 1800b98:	1000031e 	bne	r2,zero,1800ba8 <___vfprintf_internal_r+0x3e0>
 1800b9c:	d9014517 	ldw	r4,1300(sp)
 1800ba0:	21000084 	addi	r4,r4,2
 1800ba4:	d9014515 	stw	r4,1300(sp)
 1800ba8:	d9414c17 	ldw	r5,1328(sp)
 1800bac:	2940210c 	andi	r5,r5,132
 1800bb0:	d9414e15 	stw	r5,1336(sp)
 1800bb4:	28002d1e 	bne	r5,zero,1800c6c <___vfprintf_internal_r+0x4a4>
 1800bb8:	d9814a17 	ldw	r6,1320(sp)
 1800bbc:	d8814517 	ldw	r2,1300(sp)
 1800bc0:	30a1c83a 	sub	r16,r6,r2
 1800bc4:	0400290e 	bge	zero,r16,1800c6c <___vfprintf_internal_r+0x4a4>
 1800bc8:	00800404 	movi	r2,16
 1800bcc:	1404580e 	bge	r2,r16,1801d30 <___vfprintf_internal_r+0x1568>
 1800bd0:	dc800e17 	ldw	r18,56(sp)
 1800bd4:	dc400d17 	ldw	r17,52(sp)
 1800bd8:	1027883a 	mov	r19,r2
 1800bdc:	07006074 	movhi	fp,385
 1800be0:	e7025084 	addi	fp,fp,2370
 1800be4:	050001c4 	movi	r20,7
 1800be8:	00000306 	br	1800bf8 <___vfprintf_internal_r+0x430>
 1800bec:	843ffc04 	addi	r16,r16,-16
 1800bf0:	ad400204 	addi	r21,r21,8
 1800bf4:	9c00130e 	bge	r19,r16,1800c44 <___vfprintf_internal_r+0x47c>
 1800bf8:	94800404 	addi	r18,r18,16
 1800bfc:	8c400044 	addi	r17,r17,1
 1800c00:	af000015 	stw	fp,0(r21)
 1800c04:	acc00115 	stw	r19,4(r21)
 1800c08:	dc800e15 	stw	r18,56(sp)
 1800c0c:	dc400d15 	stw	r17,52(sp)
 1800c10:	a47ff60e 	bge	r20,r17,1800bec <___vfprintf_internal_r+0x424>
 1800c14:	d9014f17 	ldw	r4,1340(sp)
 1800c18:	b00b883a 	mov	r5,r22
 1800c1c:	d9800c04 	addi	r6,sp,48
 1800c20:	d9c15115 	stw	r7,1348(sp)
 1800c24:	18007700 	call	1800770 <__sprint_r>
 1800c28:	d9c15117 	ldw	r7,1348(sp)
 1800c2c:	10009e1e 	bne	r2,zero,1800ea8 <___vfprintf_internal_r+0x6e0>
 1800c30:	843ffc04 	addi	r16,r16,-16
 1800c34:	dc800e17 	ldw	r18,56(sp)
 1800c38:	dc400d17 	ldw	r17,52(sp)
 1800c3c:	dd401904 	addi	r21,sp,100
 1800c40:	9c3fed16 	blt	r19,r16,1800bf8 <___vfprintf_internal_r+0x430>
 1800c44:	9425883a 	add	r18,r18,r16
 1800c48:	8c400044 	addi	r17,r17,1
 1800c4c:	008001c4 	movi	r2,7
 1800c50:	af000015 	stw	fp,0(r21)
 1800c54:	ac000115 	stw	r16,4(r21)
 1800c58:	dc800e15 	stw	r18,56(sp)
 1800c5c:	dc400d15 	stw	r17,52(sp)
 1800c60:	1441f516 	blt	r2,r17,1801438 <___vfprintf_internal_r+0xc70>
 1800c64:	ad400204 	addi	r21,r21,8
 1800c68:	00000206 	br	1800c74 <___vfprintf_internal_r+0x4ac>
 1800c6c:	dc800e17 	ldw	r18,56(sp)
 1800c70:	dc400d17 	ldw	r17,52(sp)
 1800c74:	d8800407 	ldb	r2,16(sp)
 1800c78:	10000b26 	beq	r2,zero,1800ca8 <___vfprintf_internal_r+0x4e0>
 1800c7c:	00800044 	movi	r2,1
 1800c80:	94800044 	addi	r18,r18,1
 1800c84:	8c400044 	addi	r17,r17,1
 1800c88:	a8800115 	stw	r2,4(r21)
 1800c8c:	d8c00404 	addi	r3,sp,16
 1800c90:	008001c4 	movi	r2,7
 1800c94:	a8c00015 	stw	r3,0(r21)
 1800c98:	dc800e15 	stw	r18,56(sp)
 1800c9c:	dc400d15 	stw	r17,52(sp)
 1800ca0:	1441da16 	blt	r2,r17,180140c <___vfprintf_internal_r+0xc44>
 1800ca4:	ad400204 	addi	r21,r21,8
 1800ca8:	d9015017 	ldw	r4,1344(sp)
 1800cac:	20000b1e 	bne	r4,zero,1800cdc <___vfprintf_internal_r+0x514>
 1800cb0:	d8800444 	addi	r2,sp,17
 1800cb4:	94800084 	addi	r18,r18,2
 1800cb8:	8c400044 	addi	r17,r17,1
 1800cbc:	a8800015 	stw	r2,0(r21)
 1800cc0:	00c00084 	movi	r3,2
 1800cc4:	008001c4 	movi	r2,7
 1800cc8:	a8c00115 	stw	r3,4(r21)
 1800ccc:	dc800e15 	stw	r18,56(sp)
 1800cd0:	dc400d15 	stw	r17,52(sp)
 1800cd4:	1441c216 	blt	r2,r17,18013e0 <___vfprintf_internal_r+0xc18>
 1800cd8:	ad400204 	addi	r21,r21,8
 1800cdc:	d9414e17 	ldw	r5,1336(sp)
 1800ce0:	00802004 	movi	r2,128
 1800ce4:	2880b126 	beq	r5,r2,1800fac <___vfprintf_internal_r+0x7e4>
 1800ce8:	d8c14617 	ldw	r3,1304(sp)
 1800cec:	19e1c83a 	sub	r16,r3,r7
 1800cf0:	0400260e 	bge	zero,r16,1800d8c <___vfprintf_internal_r+0x5c4>
 1800cf4:	00800404 	movi	r2,16
 1800cf8:	1403c90e 	bge	r2,r16,1801c20 <___vfprintf_internal_r+0x1458>
 1800cfc:	1027883a 	mov	r19,r2
 1800d00:	07006074 	movhi	fp,385
 1800d04:	e7024c84 	addi	fp,fp,2354
 1800d08:	050001c4 	movi	r20,7
 1800d0c:	00000306 	br	1800d1c <___vfprintf_internal_r+0x554>
 1800d10:	843ffc04 	addi	r16,r16,-16
 1800d14:	ad400204 	addi	r21,r21,8
 1800d18:	9c00130e 	bge	r19,r16,1800d68 <___vfprintf_internal_r+0x5a0>
 1800d1c:	94800404 	addi	r18,r18,16
 1800d20:	8c400044 	addi	r17,r17,1
 1800d24:	af000015 	stw	fp,0(r21)
 1800d28:	acc00115 	stw	r19,4(r21)
 1800d2c:	dc800e15 	stw	r18,56(sp)
 1800d30:	dc400d15 	stw	r17,52(sp)
 1800d34:	a47ff60e 	bge	r20,r17,1800d10 <___vfprintf_internal_r+0x548>
 1800d38:	d9014f17 	ldw	r4,1340(sp)
 1800d3c:	b00b883a 	mov	r5,r22
 1800d40:	d9800c04 	addi	r6,sp,48
 1800d44:	d9c15115 	stw	r7,1348(sp)
 1800d48:	18007700 	call	1800770 <__sprint_r>
 1800d4c:	d9c15117 	ldw	r7,1348(sp)
 1800d50:	1000551e 	bne	r2,zero,1800ea8 <___vfprintf_internal_r+0x6e0>
 1800d54:	843ffc04 	addi	r16,r16,-16
 1800d58:	dc800e17 	ldw	r18,56(sp)
 1800d5c:	dc400d17 	ldw	r17,52(sp)
 1800d60:	dd401904 	addi	r21,sp,100
 1800d64:	9c3fed16 	blt	r19,r16,1800d1c <___vfprintf_internal_r+0x554>
 1800d68:	9425883a 	add	r18,r18,r16
 1800d6c:	8c400044 	addi	r17,r17,1
 1800d70:	008001c4 	movi	r2,7
 1800d74:	af000015 	stw	fp,0(r21)
 1800d78:	ac000115 	stw	r16,4(r21)
 1800d7c:	dc800e15 	stw	r18,56(sp)
 1800d80:	dc400d15 	stw	r17,52(sp)
 1800d84:	14418216 	blt	r2,r17,1801390 <___vfprintf_internal_r+0xbc8>
 1800d88:	ad400204 	addi	r21,r21,8
 1800d8c:	d9014c17 	ldw	r4,1328(sp)
 1800d90:	2080400c 	andi	r2,r4,256
 1800d94:	10004a1e 	bne	r2,zero,1800ec0 <___vfprintf_internal_r+0x6f8>
 1800d98:	d9414117 	ldw	r5,1284(sp)
 1800d9c:	91e5883a 	add	r18,r18,r7
 1800da0:	8c400044 	addi	r17,r17,1
 1800da4:	008001c4 	movi	r2,7
 1800da8:	a9400015 	stw	r5,0(r21)
 1800dac:	a9c00115 	stw	r7,4(r21)
 1800db0:	dc800e15 	stw	r18,56(sp)
 1800db4:	dc400d15 	stw	r17,52(sp)
 1800db8:	14416716 	blt	r2,r17,1801358 <___vfprintf_internal_r+0xb90>
 1800dbc:	a8c00204 	addi	r3,r21,8
 1800dc0:	d9814c17 	ldw	r6,1328(sp)
 1800dc4:	3080010c 	andi	r2,r6,4
 1800dc8:	10002826 	beq	r2,zero,1800e6c <___vfprintf_internal_r+0x6a4>
 1800dcc:	d8814a17 	ldw	r2,1320(sp)
 1800dd0:	d9014517 	ldw	r4,1300(sp)
 1800dd4:	1121c83a 	sub	r16,r2,r4
 1800dd8:	0400240e 	bge	zero,r16,1800e6c <___vfprintf_internal_r+0x6a4>
 1800ddc:	00800404 	movi	r2,16
 1800de0:	14044f0e 	bge	r2,r16,1801f20 <___vfprintf_internal_r+0x1758>
 1800de4:	dc400d17 	ldw	r17,52(sp)
 1800de8:	1027883a 	mov	r19,r2
 1800dec:	07006074 	movhi	fp,385
 1800df0:	e7025084 	addi	fp,fp,2370
 1800df4:	050001c4 	movi	r20,7
 1800df8:	00000306 	br	1800e08 <___vfprintf_internal_r+0x640>
 1800dfc:	843ffc04 	addi	r16,r16,-16
 1800e00:	18c00204 	addi	r3,r3,8
 1800e04:	9c00110e 	bge	r19,r16,1800e4c <___vfprintf_internal_r+0x684>
 1800e08:	94800404 	addi	r18,r18,16
 1800e0c:	8c400044 	addi	r17,r17,1
 1800e10:	1f000015 	stw	fp,0(r3)
 1800e14:	1cc00115 	stw	r19,4(r3)
 1800e18:	dc800e15 	stw	r18,56(sp)
 1800e1c:	dc400d15 	stw	r17,52(sp)
 1800e20:	a47ff60e 	bge	r20,r17,1800dfc <___vfprintf_internal_r+0x634>
 1800e24:	d9014f17 	ldw	r4,1340(sp)
 1800e28:	b00b883a 	mov	r5,r22
 1800e2c:	d9800c04 	addi	r6,sp,48
 1800e30:	18007700 	call	1800770 <__sprint_r>
 1800e34:	10001c1e 	bne	r2,zero,1800ea8 <___vfprintf_internal_r+0x6e0>
 1800e38:	843ffc04 	addi	r16,r16,-16
 1800e3c:	dc800e17 	ldw	r18,56(sp)
 1800e40:	dc400d17 	ldw	r17,52(sp)
 1800e44:	d8c01904 	addi	r3,sp,100
 1800e48:	9c3fef16 	blt	r19,r16,1800e08 <___vfprintf_internal_r+0x640>
 1800e4c:	9425883a 	add	r18,r18,r16
 1800e50:	8c400044 	addi	r17,r17,1
 1800e54:	008001c4 	movi	r2,7
 1800e58:	1f000015 	stw	fp,0(r3)
 1800e5c:	1c000115 	stw	r16,4(r3)
 1800e60:	dc800e15 	stw	r18,56(sp)
 1800e64:	dc400d15 	stw	r17,52(sp)
 1800e68:	1440cb16 	blt	r2,r17,1801198 <___vfprintf_internal_r+0x9d0>
 1800e6c:	d8814a17 	ldw	r2,1320(sp)
 1800e70:	d9414517 	ldw	r5,1300(sp)
 1800e74:	1140010e 	bge	r2,r5,1800e7c <___vfprintf_internal_r+0x6b4>
 1800e78:	2805883a 	mov	r2,r5
 1800e7c:	d9814b17 	ldw	r6,1324(sp)
 1800e80:	308d883a 	add	r6,r6,r2
 1800e84:	d9814b15 	stw	r6,1324(sp)
 1800e88:	90013b1e 	bne	r18,zero,1801378 <___vfprintf_internal_r+0xbb0>
 1800e8c:	d9c14017 	ldw	r7,1280(sp)
 1800e90:	dd401904 	addi	r21,sp,100
 1800e94:	d8000d15 	stw	zero,52(sp)
 1800e98:	003ea706 	br	1800938 <___vfprintf_internal_r+0x170>
 1800e9c:	d8800e17 	ldw	r2,56(sp)
 1800ea0:	10053f1e 	bne	r2,zero,18023a0 <___vfprintf_internal_r+0x1bd8>
 1800ea4:	d8000d15 	stw	zero,52(sp)
 1800ea8:	b080030b 	ldhu	r2,12(r22)
 1800eac:	1080100c 	andi	r2,r2,64
 1800eb0:	103e8726 	beq	r2,zero,18008d0 <___vfprintf_internal_r+0x108>
 1800eb4:	00bfffc4 	movi	r2,-1
 1800eb8:	d8814b15 	stw	r2,1324(sp)
 1800ebc:	003e8406 	br	18008d0 <___vfprintf_internal_r+0x108>
 1800ec0:	d9814d17 	ldw	r6,1332(sp)
 1800ec4:	00801944 	movi	r2,101
 1800ec8:	11806e16 	blt	r2,r6,1801084 <___vfprintf_internal_r+0x8bc>
 1800ecc:	d9414717 	ldw	r5,1308(sp)
 1800ed0:	00c00044 	movi	r3,1
 1800ed4:	1943430e 	bge	r3,r5,1801be4 <___vfprintf_internal_r+0x141c>
 1800ed8:	d8814117 	ldw	r2,1284(sp)
 1800edc:	94800044 	addi	r18,r18,1
 1800ee0:	8c400044 	addi	r17,r17,1
 1800ee4:	a8800015 	stw	r2,0(r21)
 1800ee8:	008001c4 	movi	r2,7
 1800eec:	a8c00115 	stw	r3,4(r21)
 1800ef0:	dc800e15 	stw	r18,56(sp)
 1800ef4:	dc400d15 	stw	r17,52(sp)
 1800ef8:	1441ca16 	blt	r2,r17,1801624 <___vfprintf_internal_r+0xe5c>
 1800efc:	a8c00204 	addi	r3,r21,8
 1800f00:	d9014917 	ldw	r4,1316(sp)
 1800f04:	00800044 	movi	r2,1
 1800f08:	94800044 	addi	r18,r18,1
 1800f0c:	8c400044 	addi	r17,r17,1
 1800f10:	18800115 	stw	r2,4(r3)
 1800f14:	008001c4 	movi	r2,7
 1800f18:	19000015 	stw	r4,0(r3)
 1800f1c:	dc800e15 	stw	r18,56(sp)
 1800f20:	dc400d15 	stw	r17,52(sp)
 1800f24:	1441b616 	blt	r2,r17,1801600 <___vfprintf_internal_r+0xe38>
 1800f28:	1cc00204 	addi	r19,r3,8
 1800f2c:	d9014217 	ldw	r4,1288(sp)
 1800f30:	d9414317 	ldw	r5,1292(sp)
 1800f34:	000d883a 	mov	r6,zero
 1800f38:	000f883a 	mov	r7,zero
 1800f3c:	18090180 	call	1809018 <__nedf2>
 1800f40:	10017426 	beq	r2,zero,1801514 <___vfprintf_internal_r+0xd4c>
 1800f44:	d9414717 	ldw	r5,1308(sp)
 1800f48:	d9814117 	ldw	r6,1284(sp)
 1800f4c:	8c400044 	addi	r17,r17,1
 1800f50:	2c85883a 	add	r2,r5,r18
 1800f54:	14bfffc4 	addi	r18,r2,-1
 1800f58:	28bfffc4 	addi	r2,r5,-1
 1800f5c:	30c00044 	addi	r3,r6,1
 1800f60:	98800115 	stw	r2,4(r19)
 1800f64:	008001c4 	movi	r2,7
 1800f68:	98c00015 	stw	r3,0(r19)
 1800f6c:	dc800e15 	stw	r18,56(sp)
 1800f70:	dc400d15 	stw	r17,52(sp)
 1800f74:	14418e16 	blt	r2,r17,18015b0 <___vfprintf_internal_r+0xde8>
 1800f78:	9cc00204 	addi	r19,r19,8
 1800f7c:	d9414817 	ldw	r5,1312(sp)
 1800f80:	d8800804 	addi	r2,sp,32
 1800f84:	8c400044 	addi	r17,r17,1
 1800f88:	9165883a 	add	r18,r18,r5
 1800f8c:	98800015 	stw	r2,0(r19)
 1800f90:	008001c4 	movi	r2,7
 1800f94:	99400115 	stw	r5,4(r19)
 1800f98:	dc800e15 	stw	r18,56(sp)
 1800f9c:	dc400d15 	stw	r17,52(sp)
 1800fa0:	1440ed16 	blt	r2,r17,1801358 <___vfprintf_internal_r+0xb90>
 1800fa4:	98c00204 	addi	r3,r19,8
 1800fa8:	003f8506 	br	1800dc0 <___vfprintf_internal_r+0x5f8>
 1800fac:	d9814a17 	ldw	r6,1320(sp)
 1800fb0:	d8814517 	ldw	r2,1300(sp)
 1800fb4:	30a1c83a 	sub	r16,r6,r2
 1800fb8:	043f4b0e 	bge	zero,r16,1800ce8 <___vfprintf_internal_r+0x520>
 1800fbc:	00800404 	movi	r2,16
 1800fc0:	1404340e 	bge	r2,r16,1802094 <___vfprintf_internal_r+0x18cc>
 1800fc4:	1027883a 	mov	r19,r2
 1800fc8:	07006074 	movhi	fp,385
 1800fcc:	e7024c84 	addi	fp,fp,2354
 1800fd0:	050001c4 	movi	r20,7
 1800fd4:	00000306 	br	1800fe4 <___vfprintf_internal_r+0x81c>
 1800fd8:	843ffc04 	addi	r16,r16,-16
 1800fdc:	ad400204 	addi	r21,r21,8
 1800fe0:	9c00130e 	bge	r19,r16,1801030 <___vfprintf_internal_r+0x868>
 1800fe4:	94800404 	addi	r18,r18,16
 1800fe8:	8c400044 	addi	r17,r17,1
 1800fec:	af000015 	stw	fp,0(r21)
 1800ff0:	acc00115 	stw	r19,4(r21)
 1800ff4:	dc800e15 	stw	r18,56(sp)
 1800ff8:	dc400d15 	stw	r17,52(sp)
 1800ffc:	a47ff60e 	bge	r20,r17,1800fd8 <___vfprintf_internal_r+0x810>
 1801000:	d9014f17 	ldw	r4,1340(sp)
 1801004:	b00b883a 	mov	r5,r22
 1801008:	d9800c04 	addi	r6,sp,48
 180100c:	d9c15115 	stw	r7,1348(sp)
 1801010:	18007700 	call	1800770 <__sprint_r>
 1801014:	d9c15117 	ldw	r7,1348(sp)
 1801018:	103fa31e 	bne	r2,zero,1800ea8 <___vfprintf_internal_r+0x6e0>
 180101c:	843ffc04 	addi	r16,r16,-16
 1801020:	dc800e17 	ldw	r18,56(sp)
 1801024:	dc400d17 	ldw	r17,52(sp)
 1801028:	dd401904 	addi	r21,sp,100
 180102c:	9c3fed16 	blt	r19,r16,1800fe4 <___vfprintf_internal_r+0x81c>
 1801030:	9425883a 	add	r18,r18,r16
 1801034:	8c400044 	addi	r17,r17,1
 1801038:	008001c4 	movi	r2,7
 180103c:	af000015 	stw	fp,0(r21)
 1801040:	ac000115 	stw	r16,4(r21)
 1801044:	dc800e15 	stw	r18,56(sp)
 1801048:	dc400d15 	stw	r17,52(sp)
 180104c:	14416116 	blt	r2,r17,18015d4 <___vfprintf_internal_r+0xe0c>
 1801050:	ad400204 	addi	r21,r21,8
 1801054:	003f2406 	br	1800ce8 <___vfprintf_internal_r+0x520>
 1801058:	d9014f17 	ldw	r4,1340(sp)
 180105c:	18042380 	call	1804238 <__sinit>
 1801060:	d9c15117 	ldw	r7,1348(sp)
 1801064:	003def06 	br	1800824 <___vfprintf_internal_r+0x5c>
 1801068:	d9014f17 	ldw	r4,1340(sp)
 180106c:	b00b883a 	mov	r5,r22
 1801070:	d9c15115 	stw	r7,1348(sp)
 1801074:	18026980 	call	1802698 <__swsetup_r>
 1801078:	d9c15117 	ldw	r7,1348(sp)
 180107c:	103dee26 	beq	r2,zero,1800838 <___vfprintf_internal_r+0x70>
 1801080:	003f8c06 	br	1800eb4 <___vfprintf_internal_r+0x6ec>
 1801084:	d9014217 	ldw	r4,1288(sp)
 1801088:	d9414317 	ldw	r5,1292(sp)
 180108c:	000d883a 	mov	r6,zero
 1801090:	000f883a 	mov	r7,zero
 1801094:	1808f900 	call	1808f90 <__eqdf2>
 1801098:	1000f21e 	bne	r2,zero,1801464 <___vfprintf_internal_r+0xc9c>
 180109c:	00806074 	movhi	r2,385
 18010a0:	10824c04 	addi	r2,r2,2352
 18010a4:	94800044 	addi	r18,r18,1
 18010a8:	8c400044 	addi	r17,r17,1
 18010ac:	a8800015 	stw	r2,0(r21)
 18010b0:	00c00044 	movi	r3,1
 18010b4:	008001c4 	movi	r2,7
 18010b8:	a8c00115 	stw	r3,4(r21)
 18010bc:	dc800e15 	stw	r18,56(sp)
 18010c0:	dc400d15 	stw	r17,52(sp)
 18010c4:	1442fa16 	blt	r2,r17,1801cb0 <___vfprintf_internal_r+0x14e8>
 18010c8:	a8c00204 	addi	r3,r21,8
 18010cc:	d8800517 	ldw	r2,20(sp)
 18010d0:	d9014717 	ldw	r4,1308(sp)
 18010d4:	11015c0e 	bge	r2,r4,1801648 <___vfprintf_internal_r+0xe80>
 18010d8:	dc400d17 	ldw	r17,52(sp)
 18010dc:	d9814917 	ldw	r6,1316(sp)
 18010e0:	00800044 	movi	r2,1
 18010e4:	94800044 	addi	r18,r18,1
 18010e8:	8c400044 	addi	r17,r17,1
 18010ec:	18800115 	stw	r2,4(r3)
 18010f0:	008001c4 	movi	r2,7
 18010f4:	19800015 	stw	r6,0(r3)
 18010f8:	dc800e15 	stw	r18,56(sp)
 18010fc:	dc400d15 	stw	r17,52(sp)
 1801100:	14431016 	blt	r2,r17,1801d44 <___vfprintf_internal_r+0x157c>
 1801104:	18c00204 	addi	r3,r3,8
 1801108:	d8814717 	ldw	r2,1308(sp)
 180110c:	143fffc4 	addi	r16,r2,-1
 1801110:	043f2b0e 	bge	zero,r16,1800dc0 <___vfprintf_internal_r+0x5f8>
 1801114:	00800404 	movi	r2,16
 1801118:	1402a20e 	bge	r2,r16,1801ba4 <___vfprintf_internal_r+0x13dc>
 180111c:	dc400d17 	ldw	r17,52(sp)
 1801120:	1027883a 	mov	r19,r2
 1801124:	07006074 	movhi	fp,385
 1801128:	e7024c84 	addi	fp,fp,2354
 180112c:	050001c4 	movi	r20,7
 1801130:	00000306 	br	1801140 <___vfprintf_internal_r+0x978>
 1801134:	18c00204 	addi	r3,r3,8
 1801138:	843ffc04 	addi	r16,r16,-16
 180113c:	9c029c0e 	bge	r19,r16,1801bb0 <___vfprintf_internal_r+0x13e8>
 1801140:	94800404 	addi	r18,r18,16
 1801144:	8c400044 	addi	r17,r17,1
 1801148:	1f000015 	stw	fp,0(r3)
 180114c:	1cc00115 	stw	r19,4(r3)
 1801150:	dc800e15 	stw	r18,56(sp)
 1801154:	dc400d15 	stw	r17,52(sp)
 1801158:	a47ff60e 	bge	r20,r17,1801134 <___vfprintf_internal_r+0x96c>
 180115c:	d9014f17 	ldw	r4,1340(sp)
 1801160:	b00b883a 	mov	r5,r22
 1801164:	d9800c04 	addi	r6,sp,48
 1801168:	18007700 	call	1800770 <__sprint_r>
 180116c:	103f4e1e 	bne	r2,zero,1800ea8 <___vfprintf_internal_r+0x6e0>
 1801170:	dc800e17 	ldw	r18,56(sp)
 1801174:	dc400d17 	ldw	r17,52(sp)
 1801178:	d8c01904 	addi	r3,sp,100
 180117c:	003fee06 	br	1801138 <___vfprintf_internal_r+0x970>
 1801180:	d8802c0b 	ldhu	r2,176(sp)
 1801184:	00ffffc4 	movi	r3,-1
 1801188:	d8c14b15 	stw	r3,1324(sp)
 180118c:	1080100c 	andi	r2,r2,64
 1801190:	103dcc1e 	bne	r2,zero,18008c4 <___vfprintf_internal_r+0xfc>
 1801194:	003dce06 	br	18008d0 <___vfprintf_internal_r+0x108>
 1801198:	d9014f17 	ldw	r4,1340(sp)
 180119c:	b00b883a 	mov	r5,r22
 18011a0:	d9800c04 	addi	r6,sp,48
 18011a4:	18007700 	call	1800770 <__sprint_r>
 18011a8:	103f3f1e 	bne	r2,zero,1800ea8 <___vfprintf_internal_r+0x6e0>
 18011ac:	dc800e17 	ldw	r18,56(sp)
 18011b0:	003f2e06 	br	1800e6c <___vfprintf_internal_r+0x6a4>
 18011b4:	d9414c17 	ldw	r5,1328(sp)
 18011b8:	29400414 	ori	r5,r5,16
 18011bc:	d9414c15 	stw	r5,1328(sp)
 18011c0:	d9814c17 	ldw	r6,1328(sp)
 18011c4:	3080080c 	andi	r2,r6,32
 18011c8:	10014f1e 	bne	r2,zero,1801708 <___vfprintf_internal_r+0xf40>
 18011cc:	d8c14c17 	ldw	r3,1328(sp)
 18011d0:	1880040c 	andi	r2,r3,16
 18011d4:	1002ea1e 	bne	r2,zero,1801d80 <___vfprintf_internal_r+0x15b8>
 18011d8:	d9014c17 	ldw	r4,1328(sp)
 18011dc:	2080100c 	andi	r2,r4,64
 18011e0:	1002e726 	beq	r2,zero,1801d80 <___vfprintf_internal_r+0x15b8>
 18011e4:	3880000f 	ldh	r2,0(r7)
 18011e8:	39c00104 	addi	r7,r7,4
 18011ec:	d9c14015 	stw	r7,1280(sp)
 18011f0:	1023d7fa 	srai	r17,r2,31
 18011f4:	1021883a 	mov	r16,r2
 18011f8:	88037216 	blt	r17,zero,1801fc4 <___vfprintf_internal_r+0x17fc>
 18011fc:	01000044 	movi	r4,1
 1801200:	98000416 	blt	r19,zero,1801214 <___vfprintf_internal_r+0xa4c>
 1801204:	d8c14c17 	ldw	r3,1328(sp)
 1801208:	00bfdfc4 	movi	r2,-129
 180120c:	1886703a 	and	r3,r3,r2
 1801210:	d8c14c15 	stw	r3,1328(sp)
 1801214:	8444b03a 	or	r2,r16,r17
 1801218:	1002261e 	bne	r2,zero,1801ab4 <___vfprintf_internal_r+0x12ec>
 180121c:	9802251e 	bne	r19,zero,1801ab4 <___vfprintf_internal_r+0x12ec>
 1801220:	20803fcc 	andi	r2,r4,255
 1801224:	10029b26 	beq	r2,zero,1801c94 <___vfprintf_internal_r+0x14cc>
 1801228:	d8c01904 	addi	r3,sp,100
 180122c:	dd000f04 	addi	r20,sp,60
 1801230:	d8c14115 	stw	r3,1284(sp)
 1801234:	d8c14117 	ldw	r3,1284(sp)
 1801238:	dcc14515 	stw	r19,1300(sp)
 180123c:	a0c5c83a 	sub	r2,r20,r3
 1801240:	11c00a04 	addi	r7,r2,40
 1801244:	99c0010e 	bge	r19,r7,180124c <___vfprintf_internal_r+0xa84>
 1801248:	d9c14515 	stw	r7,1300(sp)
 180124c:	dcc14615 	stw	r19,1304(sp)
 1801250:	d8800407 	ldb	r2,16(sp)
 1801254:	103e4c26 	beq	r2,zero,1800b88 <___vfprintf_internal_r+0x3c0>
 1801258:	d8814517 	ldw	r2,1300(sp)
 180125c:	10800044 	addi	r2,r2,1
 1801260:	d8814515 	stw	r2,1300(sp)
 1801264:	003e4806 	br	1800b88 <___vfprintf_internal_r+0x3c0>
 1801268:	d9814c17 	ldw	r6,1328(sp)
 180126c:	31800414 	ori	r6,r6,16
 1801270:	d9814c15 	stw	r6,1328(sp)
 1801274:	d8c14c17 	ldw	r3,1328(sp)
 1801278:	1880080c 	andi	r2,r3,32
 180127c:	1001271e 	bne	r2,zero,180171c <___vfprintf_internal_r+0xf54>
 1801280:	d9414c17 	ldw	r5,1328(sp)
 1801284:	2880040c 	andi	r2,r5,16
 1801288:	1002b61e 	bne	r2,zero,1801d64 <___vfprintf_internal_r+0x159c>
 180128c:	d9814c17 	ldw	r6,1328(sp)
 1801290:	3080100c 	andi	r2,r6,64
 1801294:	1002b326 	beq	r2,zero,1801d64 <___vfprintf_internal_r+0x159c>
 1801298:	3c00000b 	ldhu	r16,0(r7)
 180129c:	0009883a 	mov	r4,zero
 18012a0:	39c00104 	addi	r7,r7,4
 18012a4:	0023883a 	mov	r17,zero
 18012a8:	d9c14015 	stw	r7,1280(sp)
 18012ac:	d8000405 	stb	zero,16(sp)
 18012b0:	003fd306 	br	1801200 <___vfprintf_internal_r+0xa38>
 18012b4:	d9014c17 	ldw	r4,1328(sp)
 18012b8:	21000414 	ori	r4,r4,16
 18012bc:	d9014c15 	stw	r4,1328(sp)
 18012c0:	d9414c17 	ldw	r5,1328(sp)
 18012c4:	2880080c 	andi	r2,r5,32
 18012c8:	1001081e 	bne	r2,zero,18016ec <___vfprintf_internal_r+0xf24>
 18012cc:	d8c14c17 	ldw	r3,1328(sp)
 18012d0:	1880040c 	andi	r2,r3,16
 18012d4:	1002b01e 	bne	r2,zero,1801d98 <___vfprintf_internal_r+0x15d0>
 18012d8:	d9014c17 	ldw	r4,1328(sp)
 18012dc:	2080100c 	andi	r2,r4,64
 18012e0:	1002ad26 	beq	r2,zero,1801d98 <___vfprintf_internal_r+0x15d0>
 18012e4:	3c00000b 	ldhu	r16,0(r7)
 18012e8:	01000044 	movi	r4,1
 18012ec:	39c00104 	addi	r7,r7,4
 18012f0:	0023883a 	mov	r17,zero
 18012f4:	d9c14015 	stw	r7,1280(sp)
 18012f8:	d8000405 	stb	zero,16(sp)
 18012fc:	003fc006 	br	1801200 <___vfprintf_internal_r+0xa38>
 1801300:	d9014f17 	ldw	r4,1340(sp)
 1801304:	b00b883a 	mov	r5,r22
 1801308:	d9800c04 	addi	r6,sp,48
 180130c:	18007700 	call	1800770 <__sprint_r>
 1801310:	103ee51e 	bne	r2,zero,1800ea8 <___vfprintf_internal_r+0x6e0>
 1801314:	dc800e17 	ldw	r18,56(sp)
 1801318:	d8c01904 	addi	r3,sp,100
 180131c:	d9814c17 	ldw	r6,1328(sp)
 1801320:	3080004c 	andi	r2,r6,1
 1801324:	1005003a 	cmpeq	r2,r2,zero
 1801328:	103ea51e 	bne	r2,zero,1800dc0 <___vfprintf_internal_r+0x5f8>
 180132c:	00800044 	movi	r2,1
 1801330:	dc400d17 	ldw	r17,52(sp)
 1801334:	18800115 	stw	r2,4(r3)
 1801338:	d8814917 	ldw	r2,1316(sp)
 180133c:	94800044 	addi	r18,r18,1
 1801340:	8c400044 	addi	r17,r17,1
 1801344:	18800015 	stw	r2,0(r3)
 1801348:	008001c4 	movi	r2,7
 180134c:	dc800e15 	stw	r18,56(sp)
 1801350:	dc400d15 	stw	r17,52(sp)
 1801354:	14421e0e 	bge	r2,r17,1801bd0 <___vfprintf_internal_r+0x1408>
 1801358:	d9014f17 	ldw	r4,1340(sp)
 180135c:	b00b883a 	mov	r5,r22
 1801360:	d9800c04 	addi	r6,sp,48
 1801364:	18007700 	call	1800770 <__sprint_r>
 1801368:	103ecf1e 	bne	r2,zero,1800ea8 <___vfprintf_internal_r+0x6e0>
 180136c:	dc800e17 	ldw	r18,56(sp)
 1801370:	d8c01904 	addi	r3,sp,100
 1801374:	003e9206 	br	1800dc0 <___vfprintf_internal_r+0x5f8>
 1801378:	d9014f17 	ldw	r4,1340(sp)
 180137c:	b00b883a 	mov	r5,r22
 1801380:	d9800c04 	addi	r6,sp,48
 1801384:	18007700 	call	1800770 <__sprint_r>
 1801388:	103ec026 	beq	r2,zero,1800e8c <___vfprintf_internal_r+0x6c4>
 180138c:	003ec606 	br	1800ea8 <___vfprintf_internal_r+0x6e0>
 1801390:	d9014f17 	ldw	r4,1340(sp)
 1801394:	b00b883a 	mov	r5,r22
 1801398:	d9800c04 	addi	r6,sp,48
 180139c:	d9c15115 	stw	r7,1348(sp)
 18013a0:	18007700 	call	1800770 <__sprint_r>
 18013a4:	d9c15117 	ldw	r7,1348(sp)
 18013a8:	103ebf1e 	bne	r2,zero,1800ea8 <___vfprintf_internal_r+0x6e0>
 18013ac:	dc800e17 	ldw	r18,56(sp)
 18013b0:	dc400d17 	ldw	r17,52(sp)
 18013b4:	dd401904 	addi	r21,sp,100
 18013b8:	003e7406 	br	1800d8c <___vfprintf_internal_r+0x5c4>
 18013bc:	d9014f17 	ldw	r4,1340(sp)
 18013c0:	b00b883a 	mov	r5,r22
 18013c4:	d9800c04 	addi	r6,sp,48
 18013c8:	d9c15115 	stw	r7,1348(sp)
 18013cc:	18007700 	call	1800770 <__sprint_r>
 18013d0:	d9c15117 	ldw	r7,1348(sp)
 18013d4:	103eb41e 	bne	r2,zero,1800ea8 <___vfprintf_internal_r+0x6e0>
 18013d8:	dd401904 	addi	r21,sp,100
 18013dc:	003d6d06 	br	1800994 <___vfprintf_internal_r+0x1cc>
 18013e0:	d9014f17 	ldw	r4,1340(sp)
 18013e4:	b00b883a 	mov	r5,r22
 18013e8:	d9800c04 	addi	r6,sp,48
 18013ec:	d9c15115 	stw	r7,1348(sp)
 18013f0:	18007700 	call	1800770 <__sprint_r>
 18013f4:	d9c15117 	ldw	r7,1348(sp)
 18013f8:	103eab1e 	bne	r2,zero,1800ea8 <___vfprintf_internal_r+0x6e0>
 18013fc:	dc800e17 	ldw	r18,56(sp)
 1801400:	dc400d17 	ldw	r17,52(sp)
 1801404:	dd401904 	addi	r21,sp,100
 1801408:	003e3406 	br	1800cdc <___vfprintf_internal_r+0x514>
 180140c:	d9014f17 	ldw	r4,1340(sp)
 1801410:	b00b883a 	mov	r5,r22
 1801414:	d9800c04 	addi	r6,sp,48
 1801418:	d9c15115 	stw	r7,1348(sp)
 180141c:	18007700 	call	1800770 <__sprint_r>
 1801420:	d9c15117 	ldw	r7,1348(sp)
 1801424:	103ea01e 	bne	r2,zero,1800ea8 <___vfprintf_internal_r+0x6e0>
 1801428:	dc800e17 	ldw	r18,56(sp)
 180142c:	dc400d17 	ldw	r17,52(sp)
 1801430:	dd401904 	addi	r21,sp,100
 1801434:	003e1c06 	br	1800ca8 <___vfprintf_internal_r+0x4e0>
 1801438:	d9014f17 	ldw	r4,1340(sp)
 180143c:	b00b883a 	mov	r5,r22
 1801440:	d9800c04 	addi	r6,sp,48
 1801444:	d9c15115 	stw	r7,1348(sp)
 1801448:	18007700 	call	1800770 <__sprint_r>
 180144c:	d9c15117 	ldw	r7,1348(sp)
 1801450:	103e951e 	bne	r2,zero,1800ea8 <___vfprintf_internal_r+0x6e0>
 1801454:	dc800e17 	ldw	r18,56(sp)
 1801458:	dc400d17 	ldw	r17,52(sp)
 180145c:	dd401904 	addi	r21,sp,100
 1801460:	003e0406 	br	1800c74 <___vfprintf_internal_r+0x4ac>
 1801464:	d9000517 	ldw	r4,20(sp)
 1801468:	0102520e 	bge	zero,r4,1801db4 <___vfprintf_internal_r+0x15ec>
 180146c:	d9814717 	ldw	r6,1308(sp)
 1801470:	21807a16 	blt	r4,r6,180165c <___vfprintf_internal_r+0xe94>
 1801474:	d8814117 	ldw	r2,1284(sp)
 1801478:	91a5883a 	add	r18,r18,r6
 180147c:	8c400044 	addi	r17,r17,1
 1801480:	a8800015 	stw	r2,0(r21)
 1801484:	008001c4 	movi	r2,7
 1801488:	a9800115 	stw	r6,4(r21)
 180148c:	dc800e15 	stw	r18,56(sp)
 1801490:	dc400d15 	stw	r17,52(sp)
 1801494:	1442f616 	blt	r2,r17,1802070 <___vfprintf_internal_r+0x18a8>
 1801498:	a8c00204 	addi	r3,r21,8
 180149c:	d9414717 	ldw	r5,1308(sp)
 18014a0:	2161c83a 	sub	r16,r4,r5
 18014a4:	043f9d0e 	bge	zero,r16,180131c <___vfprintf_internal_r+0xb54>
 18014a8:	00800404 	movi	r2,16
 18014ac:	1402130e 	bge	r2,r16,1801cfc <___vfprintf_internal_r+0x1534>
 18014b0:	dc400d17 	ldw	r17,52(sp)
 18014b4:	1027883a 	mov	r19,r2
 18014b8:	07006074 	movhi	fp,385
 18014bc:	e7024c84 	addi	fp,fp,2354
 18014c0:	050001c4 	movi	r20,7
 18014c4:	00000306 	br	18014d4 <___vfprintf_internal_r+0xd0c>
 18014c8:	18c00204 	addi	r3,r3,8
 18014cc:	843ffc04 	addi	r16,r16,-16
 18014d0:	9c020d0e 	bge	r19,r16,1801d08 <___vfprintf_internal_r+0x1540>
 18014d4:	94800404 	addi	r18,r18,16
 18014d8:	8c400044 	addi	r17,r17,1
 18014dc:	1f000015 	stw	fp,0(r3)
 18014e0:	1cc00115 	stw	r19,4(r3)
 18014e4:	dc800e15 	stw	r18,56(sp)
 18014e8:	dc400d15 	stw	r17,52(sp)
 18014ec:	a47ff60e 	bge	r20,r17,18014c8 <___vfprintf_internal_r+0xd00>
 18014f0:	d9014f17 	ldw	r4,1340(sp)
 18014f4:	b00b883a 	mov	r5,r22
 18014f8:	d9800c04 	addi	r6,sp,48
 18014fc:	18007700 	call	1800770 <__sprint_r>
 1801500:	103e691e 	bne	r2,zero,1800ea8 <___vfprintf_internal_r+0x6e0>
 1801504:	dc800e17 	ldw	r18,56(sp)
 1801508:	dc400d17 	ldw	r17,52(sp)
 180150c:	d8c01904 	addi	r3,sp,100
 1801510:	003fee06 	br	18014cc <___vfprintf_internal_r+0xd04>
 1801514:	d8814717 	ldw	r2,1308(sp)
 1801518:	143fffc4 	addi	r16,r2,-1
 180151c:	043e970e 	bge	zero,r16,1800f7c <___vfprintf_internal_r+0x7b4>
 1801520:	00800404 	movi	r2,16
 1801524:	1400180e 	bge	r2,r16,1801588 <___vfprintf_internal_r+0xdc0>
 1801528:	1029883a 	mov	r20,r2
 180152c:	07006074 	movhi	fp,385
 1801530:	e7024c84 	addi	fp,fp,2354
 1801534:	054001c4 	movi	r21,7
 1801538:	00000306 	br	1801548 <___vfprintf_internal_r+0xd80>
 180153c:	9cc00204 	addi	r19,r19,8
 1801540:	843ffc04 	addi	r16,r16,-16
 1801544:	a400120e 	bge	r20,r16,1801590 <___vfprintf_internal_r+0xdc8>
 1801548:	94800404 	addi	r18,r18,16
 180154c:	8c400044 	addi	r17,r17,1
 1801550:	9f000015 	stw	fp,0(r19)
 1801554:	9d000115 	stw	r20,4(r19)
 1801558:	dc800e15 	stw	r18,56(sp)
 180155c:	dc400d15 	stw	r17,52(sp)
 1801560:	ac7ff60e 	bge	r21,r17,180153c <___vfprintf_internal_r+0xd74>
 1801564:	d9014f17 	ldw	r4,1340(sp)
 1801568:	b00b883a 	mov	r5,r22
 180156c:	d9800c04 	addi	r6,sp,48
 1801570:	18007700 	call	1800770 <__sprint_r>
 1801574:	103e4c1e 	bne	r2,zero,1800ea8 <___vfprintf_internal_r+0x6e0>
 1801578:	dc800e17 	ldw	r18,56(sp)
 180157c:	dc400d17 	ldw	r17,52(sp)
 1801580:	dcc01904 	addi	r19,sp,100
 1801584:	003fee06 	br	1801540 <___vfprintf_internal_r+0xd78>
 1801588:	07006074 	movhi	fp,385
 180158c:	e7024c84 	addi	fp,fp,2354
 1801590:	9425883a 	add	r18,r18,r16
 1801594:	8c400044 	addi	r17,r17,1
 1801598:	008001c4 	movi	r2,7
 180159c:	9f000015 	stw	fp,0(r19)
 18015a0:	9c000115 	stw	r16,4(r19)
 18015a4:	dc800e15 	stw	r18,56(sp)
 18015a8:	dc400d15 	stw	r17,52(sp)
 18015ac:	147e720e 	bge	r2,r17,1800f78 <___vfprintf_internal_r+0x7b0>
 18015b0:	d9014f17 	ldw	r4,1340(sp)
 18015b4:	b00b883a 	mov	r5,r22
 18015b8:	d9800c04 	addi	r6,sp,48
 18015bc:	18007700 	call	1800770 <__sprint_r>
 18015c0:	103e391e 	bne	r2,zero,1800ea8 <___vfprintf_internal_r+0x6e0>
 18015c4:	dc800e17 	ldw	r18,56(sp)
 18015c8:	dc400d17 	ldw	r17,52(sp)
 18015cc:	dcc01904 	addi	r19,sp,100
 18015d0:	003e6a06 	br	1800f7c <___vfprintf_internal_r+0x7b4>
 18015d4:	d9014f17 	ldw	r4,1340(sp)
 18015d8:	b00b883a 	mov	r5,r22
 18015dc:	d9800c04 	addi	r6,sp,48
 18015e0:	d9c15115 	stw	r7,1348(sp)
 18015e4:	18007700 	call	1800770 <__sprint_r>
 18015e8:	d9c15117 	ldw	r7,1348(sp)
 18015ec:	103e2e1e 	bne	r2,zero,1800ea8 <___vfprintf_internal_r+0x6e0>
 18015f0:	dc800e17 	ldw	r18,56(sp)
 18015f4:	dc400d17 	ldw	r17,52(sp)
 18015f8:	dd401904 	addi	r21,sp,100
 18015fc:	003dba06 	br	1800ce8 <___vfprintf_internal_r+0x520>
 1801600:	d9014f17 	ldw	r4,1340(sp)
 1801604:	b00b883a 	mov	r5,r22
 1801608:	d9800c04 	addi	r6,sp,48
 180160c:	18007700 	call	1800770 <__sprint_r>
 1801610:	103e251e 	bne	r2,zero,1800ea8 <___vfprintf_internal_r+0x6e0>
 1801614:	dc800e17 	ldw	r18,56(sp)
 1801618:	dc400d17 	ldw	r17,52(sp)
 180161c:	dcc01904 	addi	r19,sp,100
 1801620:	003e4206 	br	1800f2c <___vfprintf_internal_r+0x764>
 1801624:	d9014f17 	ldw	r4,1340(sp)
 1801628:	b00b883a 	mov	r5,r22
 180162c:	d9800c04 	addi	r6,sp,48
 1801630:	18007700 	call	1800770 <__sprint_r>
 1801634:	103e1c1e 	bne	r2,zero,1800ea8 <___vfprintf_internal_r+0x6e0>
 1801638:	dc800e17 	ldw	r18,56(sp)
 180163c:	dc400d17 	ldw	r17,52(sp)
 1801640:	d8c01904 	addi	r3,sp,100
 1801644:	003e2e06 	br	1800f00 <___vfprintf_internal_r+0x738>
 1801648:	d9414c17 	ldw	r5,1328(sp)
 180164c:	2880004c 	andi	r2,r5,1
 1801650:	1005003a 	cmpeq	r2,r2,zero
 1801654:	103dda1e 	bne	r2,zero,1800dc0 <___vfprintf_internal_r+0x5f8>
 1801658:	003e9f06 	br	18010d8 <___vfprintf_internal_r+0x910>
 180165c:	d8c14117 	ldw	r3,1284(sp)
 1801660:	9125883a 	add	r18,r18,r4
 1801664:	8c400044 	addi	r17,r17,1
 1801668:	008001c4 	movi	r2,7
 180166c:	a8c00015 	stw	r3,0(r21)
 1801670:	a9000115 	stw	r4,4(r21)
 1801674:	dc800e15 	stw	r18,56(sp)
 1801678:	dc400d15 	stw	r17,52(sp)
 180167c:	14426616 	blt	r2,r17,1802018 <___vfprintf_internal_r+0x1850>
 1801680:	a8c00204 	addi	r3,r21,8
 1801684:	d9414917 	ldw	r5,1316(sp)
 1801688:	00800044 	movi	r2,1
 180168c:	94800044 	addi	r18,r18,1
 1801690:	8c400044 	addi	r17,r17,1
 1801694:	18800115 	stw	r2,4(r3)
 1801698:	008001c4 	movi	r2,7
 180169c:	19400015 	stw	r5,0(r3)
 18016a0:	dc800e15 	stw	r18,56(sp)
 18016a4:	dc400d15 	stw	r17,52(sp)
 18016a8:	2021883a 	mov	r16,r4
 18016ac:	14425016 	blt	r2,r17,1801ff0 <___vfprintf_internal_r+0x1828>
 18016b0:	19400204 	addi	r5,r3,8
 18016b4:	d9814717 	ldw	r6,1308(sp)
 18016b8:	8c400044 	addi	r17,r17,1
 18016bc:	dc400d15 	stw	r17,52(sp)
 18016c0:	3107c83a 	sub	r3,r6,r4
 18016c4:	d9014117 	ldw	r4,1284(sp)
 18016c8:	90e5883a 	add	r18,r18,r3
 18016cc:	28c00115 	stw	r3,4(r5)
 18016d0:	8105883a 	add	r2,r16,r4
 18016d4:	28800015 	stw	r2,0(r5)
 18016d8:	008001c4 	movi	r2,7
 18016dc:	dc800e15 	stw	r18,56(sp)
 18016e0:	147f1d16 	blt	r2,r17,1801358 <___vfprintf_internal_r+0xb90>
 18016e4:	28c00204 	addi	r3,r5,8
 18016e8:	003db506 	br	1800dc0 <___vfprintf_internal_r+0x5f8>
 18016ec:	3c000017 	ldw	r16,0(r7)
 18016f0:	3c400117 	ldw	r17,4(r7)
 18016f4:	39800204 	addi	r6,r7,8
 18016f8:	01000044 	movi	r4,1
 18016fc:	d9814015 	stw	r6,1280(sp)
 1801700:	d8000405 	stb	zero,16(sp)
 1801704:	003ebe06 	br	1801200 <___vfprintf_internal_r+0xa38>
 1801708:	3c000017 	ldw	r16,0(r7)
 180170c:	3c400117 	ldw	r17,4(r7)
 1801710:	38800204 	addi	r2,r7,8
 1801714:	d8814015 	stw	r2,1280(sp)
 1801718:	003eb706 	br	18011f8 <___vfprintf_internal_r+0xa30>
 180171c:	3c000017 	ldw	r16,0(r7)
 1801720:	3c400117 	ldw	r17,4(r7)
 1801724:	39000204 	addi	r4,r7,8
 1801728:	d9014015 	stw	r4,1280(sp)
 180172c:	0009883a 	mov	r4,zero
 1801730:	d8000405 	stb	zero,16(sp)
 1801734:	003eb206 	br	1801200 <___vfprintf_internal_r+0xa38>
 1801738:	38c00017 	ldw	r3,0(r7)
 180173c:	39c00104 	addi	r7,r7,4
 1801740:	d8c14a15 	stw	r3,1320(sp)
 1801744:	1800d10e 	bge	r3,zero,1801a8c <___vfprintf_internal_r+0x12c4>
 1801748:	00c7c83a 	sub	r3,zero,r3
 180174c:	d8c14a15 	stw	r3,1320(sp)
 1801750:	d9014c17 	ldw	r4,1328(sp)
 1801754:	b8c00007 	ldb	r3,0(r23)
 1801758:	21000114 	ori	r4,r4,4
 180175c:	d9014c15 	stw	r4,1328(sp)
 1801760:	003c9806 	br	18009c4 <___vfprintf_internal_r+0x1fc>
 1801764:	d9814c17 	ldw	r6,1328(sp)
 1801768:	3080080c 	andi	r2,r6,32
 180176c:	1001f026 	beq	r2,zero,1801f30 <___vfprintf_internal_r+0x1768>
 1801770:	d9014b17 	ldw	r4,1324(sp)
 1801774:	38800017 	ldw	r2,0(r7)
 1801778:	39c00104 	addi	r7,r7,4
 180177c:	d9c14015 	stw	r7,1280(sp)
 1801780:	2007d7fa 	srai	r3,r4,31
 1801784:	d9c14017 	ldw	r7,1280(sp)
 1801788:	11000015 	stw	r4,0(r2)
 180178c:	10c00115 	stw	r3,4(r2)
 1801790:	003c6906 	br	1800938 <___vfprintf_internal_r+0x170>
 1801794:	b8c00007 	ldb	r3,0(r23)
 1801798:	00801b04 	movi	r2,108
 180179c:	18824f26 	beq	r3,r2,18020dc <___vfprintf_internal_r+0x1914>
 18017a0:	d9414c17 	ldw	r5,1328(sp)
 18017a4:	29400414 	ori	r5,r5,16
 18017a8:	d9414c15 	stw	r5,1328(sp)
 18017ac:	003c8506 	br	18009c4 <___vfprintf_internal_r+0x1fc>
 18017b0:	d9814c17 	ldw	r6,1328(sp)
 18017b4:	b8c00007 	ldb	r3,0(r23)
 18017b8:	31800814 	ori	r6,r6,32
 18017bc:	d9814c15 	stw	r6,1328(sp)
 18017c0:	003c8006 	br	18009c4 <___vfprintf_internal_r+0x1fc>
 18017c4:	d8814c17 	ldw	r2,1328(sp)
 18017c8:	3c000017 	ldw	r16,0(r7)
 18017cc:	00c01e04 	movi	r3,120
 18017d0:	10800094 	ori	r2,r2,2
 18017d4:	d8814c15 	stw	r2,1328(sp)
 18017d8:	39c00104 	addi	r7,r7,4
 18017dc:	01406074 	movhi	r5,385
 18017e0:	29423504 	addi	r5,r5,2260
 18017e4:	00800c04 	movi	r2,48
 18017e8:	0023883a 	mov	r17,zero
 18017ec:	01000084 	movi	r4,2
 18017f0:	d9c14015 	stw	r7,1280(sp)
 18017f4:	d8c14d15 	stw	r3,1332(sp)
 18017f8:	d9414415 	stw	r5,1296(sp)
 18017fc:	d8800445 	stb	r2,17(sp)
 1801800:	d8c00485 	stb	r3,18(sp)
 1801804:	d8000405 	stb	zero,16(sp)
 1801808:	003e7d06 	br	1801200 <___vfprintf_internal_r+0xa38>
 180180c:	d8814c17 	ldw	r2,1328(sp)
 1801810:	b8c00007 	ldb	r3,0(r23)
 1801814:	10801014 	ori	r2,r2,64
 1801818:	d8814c15 	stw	r2,1328(sp)
 180181c:	003c6906 	br	18009c4 <___vfprintf_internal_r+0x1fc>
 1801820:	d9414c17 	ldw	r5,1328(sp)
 1801824:	2880020c 	andi	r2,r5,8
 1801828:	1001df26 	beq	r2,zero,1801fa8 <___vfprintf_internal_r+0x17e0>
 180182c:	39800017 	ldw	r6,0(r7)
 1801830:	38800204 	addi	r2,r7,8
 1801834:	d8814015 	stw	r2,1280(sp)
 1801838:	d9814215 	stw	r6,1288(sp)
 180183c:	39c00117 	ldw	r7,4(r7)
 1801840:	d9c14315 	stw	r7,1292(sp)
 1801844:	d9014217 	ldw	r4,1288(sp)
 1801848:	d9414317 	ldw	r5,1292(sp)
 180184c:	18071680 	call	1807168 <__isinfd>
 1801850:	10021726 	beq	r2,zero,18020b0 <___vfprintf_internal_r+0x18e8>
 1801854:	d9014217 	ldw	r4,1288(sp)
 1801858:	d9414317 	ldw	r5,1292(sp)
 180185c:	000d883a 	mov	r6,zero
 1801860:	000f883a 	mov	r7,zero
 1801864:	18091b00 	call	18091b0 <__ltdf2>
 1801868:	1002ca16 	blt	r2,zero,1802394 <___vfprintf_internal_r+0x1bcc>
 180186c:	d9414d17 	ldw	r5,1332(sp)
 1801870:	008011c4 	movi	r2,71
 1801874:	11420a16 	blt	r2,r5,18020a0 <___vfprintf_internal_r+0x18d8>
 1801878:	01806074 	movhi	r6,385
 180187c:	31823a04 	addi	r6,r6,2280
 1801880:	d9814115 	stw	r6,1284(sp)
 1801884:	d9014c17 	ldw	r4,1328(sp)
 1801888:	00c000c4 	movi	r3,3
 180188c:	00bfdfc4 	movi	r2,-129
 1801890:	2088703a 	and	r4,r4,r2
 1801894:	180f883a 	mov	r7,r3
 1801898:	d8c14515 	stw	r3,1300(sp)
 180189c:	d9014c15 	stw	r4,1328(sp)
 18018a0:	d8014615 	stw	zero,1304(sp)
 18018a4:	003e6a06 	br	1801250 <___vfprintf_internal_r+0xa88>
 18018a8:	38800017 	ldw	r2,0(r7)
 18018ac:	00c00044 	movi	r3,1
 18018b0:	39c00104 	addi	r7,r7,4
 18018b4:	d9c14015 	stw	r7,1280(sp)
 18018b8:	d9000f04 	addi	r4,sp,60
 18018bc:	180f883a 	mov	r7,r3
 18018c0:	d8c14515 	stw	r3,1300(sp)
 18018c4:	d9014115 	stw	r4,1284(sp)
 18018c8:	d8800f05 	stb	r2,60(sp)
 18018cc:	d8000405 	stb	zero,16(sp)
 18018d0:	003cac06 	br	1800b84 <___vfprintf_internal_r+0x3bc>
 18018d4:	01406074 	movhi	r5,385
 18018d8:	29424004 	addi	r5,r5,2304
 18018dc:	d9414415 	stw	r5,1296(sp)
 18018e0:	d9814c17 	ldw	r6,1328(sp)
 18018e4:	3080080c 	andi	r2,r6,32
 18018e8:	1000f926 	beq	r2,zero,1801cd0 <___vfprintf_internal_r+0x1508>
 18018ec:	3c000017 	ldw	r16,0(r7)
 18018f0:	3c400117 	ldw	r17,4(r7)
 18018f4:	38800204 	addi	r2,r7,8
 18018f8:	d8814015 	stw	r2,1280(sp)
 18018fc:	d9414c17 	ldw	r5,1328(sp)
 1801900:	2880004c 	andi	r2,r5,1
 1801904:	1005003a 	cmpeq	r2,r2,zero
 1801908:	1000b31e 	bne	r2,zero,1801bd8 <___vfprintf_internal_r+0x1410>
 180190c:	8444b03a 	or	r2,r16,r17
 1801910:	1000b126 	beq	r2,zero,1801bd8 <___vfprintf_internal_r+0x1410>
 1801914:	d9814d17 	ldw	r6,1332(sp)
 1801918:	29400094 	ori	r5,r5,2
 180191c:	00800c04 	movi	r2,48
 1801920:	01000084 	movi	r4,2
 1801924:	d9414c15 	stw	r5,1328(sp)
 1801928:	d8800445 	stb	r2,17(sp)
 180192c:	d9800485 	stb	r6,18(sp)
 1801930:	d8000405 	stb	zero,16(sp)
 1801934:	003e3206 	br	1801200 <___vfprintf_internal_r+0xa38>
 1801938:	01806074 	movhi	r6,385
 180193c:	31823504 	addi	r6,r6,2260
 1801940:	d9814415 	stw	r6,1296(sp)
 1801944:	003fe606 	br	18018e0 <___vfprintf_internal_r+0x1118>
 1801948:	00800ac4 	movi	r2,43
 180194c:	d8800405 	stb	r2,16(sp)
 1801950:	b8c00007 	ldb	r3,0(r23)
 1801954:	003c1b06 	br	18009c4 <___vfprintf_internal_r+0x1fc>
 1801958:	d8814c17 	ldw	r2,1328(sp)
 180195c:	b8c00007 	ldb	r3,0(r23)
 1801960:	10800054 	ori	r2,r2,1
 1801964:	d8814c15 	stw	r2,1328(sp)
 1801968:	003c1606 	br	18009c4 <___vfprintf_internal_r+0x1fc>
 180196c:	d8800407 	ldb	r2,16(sp)
 1801970:	1000461e 	bne	r2,zero,1801a8c <___vfprintf_internal_r+0x12c4>
 1801974:	00800804 	movi	r2,32
 1801978:	d8800405 	stb	r2,16(sp)
 180197c:	b8c00007 	ldb	r3,0(r23)
 1801980:	003c1006 	br	18009c4 <___vfprintf_internal_r+0x1fc>
 1801984:	d9814c17 	ldw	r6,1328(sp)
 1801988:	b8c00007 	ldb	r3,0(r23)
 180198c:	31800214 	ori	r6,r6,8
 1801990:	d9814c15 	stw	r6,1328(sp)
 1801994:	003c0b06 	br	18009c4 <___vfprintf_internal_r+0x1fc>
 1801998:	0007883a 	mov	r3,zero
 180199c:	01000244 	movi	r4,9
 18019a0:	188002a4 	muli	r2,r3,10
 18019a4:	b8c00007 	ldb	r3,0(r23)
 18019a8:	d9814d17 	ldw	r6,1332(sp)
 18019ac:	bdc00044 	addi	r23,r23,1
 18019b0:	d8c14d15 	stw	r3,1332(sp)
 18019b4:	d9414d17 	ldw	r5,1332(sp)
 18019b8:	3085883a 	add	r2,r6,r2
 18019bc:	10fff404 	addi	r3,r2,-48
 18019c0:	28bff404 	addi	r2,r5,-48
 18019c4:	20bff62e 	bgeu	r4,r2,18019a0 <___vfprintf_internal_r+0x11d8>
 18019c8:	d8c14a15 	stw	r3,1320(sp)
 18019cc:	003bff06 	br	18009cc <___vfprintf_internal_r+0x204>
 18019d0:	d9414c17 	ldw	r5,1328(sp)
 18019d4:	b8c00007 	ldb	r3,0(r23)
 18019d8:	29402014 	ori	r5,r5,128
 18019dc:	d9414c15 	stw	r5,1328(sp)
 18019e0:	003bf806 	br	18009c4 <___vfprintf_internal_r+0x1fc>
 18019e4:	b8c00007 	ldb	r3,0(r23)
 18019e8:	00800a84 	movi	r2,42
 18019ec:	bdc00044 	addi	r23,r23,1
 18019f0:	18831526 	beq	r3,r2,1802648 <___vfprintf_internal_r+0x1e80>
 18019f4:	d8c14d15 	stw	r3,1332(sp)
 18019f8:	18bff404 	addi	r2,r3,-48
 18019fc:	00c00244 	movi	r3,9
 1801a00:	18827836 	bltu	r3,r2,18023e4 <___vfprintf_internal_r+0x1c1c>
 1801a04:	000d883a 	mov	r6,zero
 1801a08:	308002a4 	muli	r2,r6,10
 1801a0c:	b9800007 	ldb	r6,0(r23)
 1801a10:	d9414d17 	ldw	r5,1332(sp)
 1801a14:	bdc00044 	addi	r23,r23,1
 1801a18:	d9814d15 	stw	r6,1332(sp)
 1801a1c:	d9014d17 	ldw	r4,1332(sp)
 1801a20:	1145883a 	add	r2,r2,r5
 1801a24:	11bff404 	addi	r6,r2,-48
 1801a28:	20bff404 	addi	r2,r4,-48
 1801a2c:	18bff62e 	bgeu	r3,r2,1801a08 <___vfprintf_internal_r+0x1240>
 1801a30:	3027883a 	mov	r19,r6
 1801a34:	303be50e 	bge	r6,zero,18009cc <___vfprintf_internal_r+0x204>
 1801a38:	04ffffc4 	movi	r19,-1
 1801a3c:	003be306 	br	18009cc <___vfprintf_internal_r+0x204>
 1801a40:	d8000405 	stb	zero,16(sp)
 1801a44:	39800017 	ldw	r6,0(r7)
 1801a48:	39c00104 	addi	r7,r7,4
 1801a4c:	d9c14015 	stw	r7,1280(sp)
 1801a50:	d9814115 	stw	r6,1284(sp)
 1801a54:	3001c926 	beq	r6,zero,180217c <___vfprintf_internal_r+0x19b4>
 1801a58:	98000e16 	blt	r19,zero,1801a94 <___vfprintf_internal_r+0x12cc>
 1801a5c:	d9014117 	ldw	r4,1284(sp)
 1801a60:	000b883a 	mov	r5,zero
 1801a64:	980d883a 	mov	r6,r19
 1801a68:	18058840 	call	1805884 <memchr>
 1801a6c:	10025926 	beq	r2,zero,18023d4 <___vfprintf_internal_r+0x1c0c>
 1801a70:	d8c14117 	ldw	r3,1284(sp)
 1801a74:	10cfc83a 	sub	r7,r2,r3
 1801a78:	99c19e16 	blt	r19,r7,18020f4 <___vfprintf_internal_r+0x192c>
 1801a7c:	d9c14515 	stw	r7,1300(sp)
 1801a80:	38000916 	blt	r7,zero,1801aa8 <___vfprintf_internal_r+0x12e0>
 1801a84:	d8014615 	stw	zero,1304(sp)
 1801a88:	003df106 	br	1801250 <___vfprintf_internal_r+0xa88>
 1801a8c:	b8c00007 	ldb	r3,0(r23)
 1801a90:	003bcc06 	br	18009c4 <___vfprintf_internal_r+0x1fc>
 1801a94:	d9014117 	ldw	r4,1284(sp)
 1801a98:	18006fc0 	call	18006fc <strlen>
 1801a9c:	d8814515 	stw	r2,1300(sp)
 1801aa0:	100f883a 	mov	r7,r2
 1801aa4:	103ff70e 	bge	r2,zero,1801a84 <___vfprintf_internal_r+0x12bc>
 1801aa8:	d8014515 	stw	zero,1300(sp)
 1801aac:	d8014615 	stw	zero,1304(sp)
 1801ab0:	003de706 	br	1801250 <___vfprintf_internal_r+0xa88>
 1801ab4:	20c03fcc 	andi	r3,r4,255
 1801ab8:	00800044 	movi	r2,1
 1801abc:	18802d26 	beq	r3,r2,1801b74 <___vfprintf_internal_r+0x13ac>
 1801ac0:	18800e36 	bltu	r3,r2,1801afc <___vfprintf_internal_r+0x1334>
 1801ac4:	00800084 	movi	r2,2
 1801ac8:	1880fa26 	beq	r3,r2,1801eb4 <___vfprintf_internal_r+0x16ec>
 1801acc:	01006074 	movhi	r4,385
 1801ad0:	21024504 	addi	r4,r4,2324
 1801ad4:	18006fc0 	call	18006fc <strlen>
 1801ad8:	100f883a 	mov	r7,r2
 1801adc:	dcc14515 	stw	r19,1300(sp)
 1801ae0:	9880010e 	bge	r19,r2,1801ae8 <___vfprintf_internal_r+0x1320>
 1801ae4:	d8814515 	stw	r2,1300(sp)
 1801ae8:	00806074 	movhi	r2,385
 1801aec:	10824504 	addi	r2,r2,2324
 1801af0:	dcc14615 	stw	r19,1304(sp)
 1801af4:	d8814115 	stw	r2,1284(sp)
 1801af8:	003dd506 	br	1801250 <___vfprintf_internal_r+0xa88>
 1801afc:	d9401904 	addi	r5,sp,100
 1801b00:	dd000f04 	addi	r20,sp,60
 1801b04:	d9414115 	stw	r5,1284(sp)
 1801b08:	880a977a 	slli	r5,r17,29
 1801b0c:	d9814117 	ldw	r6,1284(sp)
 1801b10:	8004d0fa 	srli	r2,r16,3
 1801b14:	8806d0fa 	srli	r3,r17,3
 1801b18:	810001cc 	andi	r4,r16,7
 1801b1c:	2884b03a 	or	r2,r5,r2
 1801b20:	31bfffc4 	addi	r6,r6,-1
 1801b24:	21000c04 	addi	r4,r4,48
 1801b28:	d9814115 	stw	r6,1284(sp)
 1801b2c:	10cab03a 	or	r5,r2,r3
 1801b30:	31000005 	stb	r4,0(r6)
 1801b34:	1021883a 	mov	r16,r2
 1801b38:	1823883a 	mov	r17,r3
 1801b3c:	283ff21e 	bne	r5,zero,1801b08 <___vfprintf_internal_r+0x1340>
 1801b40:	d8c14c17 	ldw	r3,1328(sp)
 1801b44:	1880004c 	andi	r2,r3,1
 1801b48:	1005003a 	cmpeq	r2,r2,zero
 1801b4c:	103db91e 	bne	r2,zero,1801234 <___vfprintf_internal_r+0xa6c>
 1801b50:	20803fcc 	andi	r2,r4,255
 1801b54:	1080201c 	xori	r2,r2,128
 1801b58:	10bfe004 	addi	r2,r2,-128
 1801b5c:	00c00c04 	movi	r3,48
 1801b60:	10fdb426 	beq	r2,r3,1801234 <___vfprintf_internal_r+0xa6c>
 1801b64:	31bfffc4 	addi	r6,r6,-1
 1801b68:	d9814115 	stw	r6,1284(sp)
 1801b6c:	30c00005 	stb	r3,0(r6)
 1801b70:	003db006 	br	1801234 <___vfprintf_internal_r+0xa6c>
 1801b74:	88800068 	cmpgeui	r2,r17,1
 1801b78:	10002c1e 	bne	r2,zero,1801c2c <___vfprintf_internal_r+0x1464>
 1801b7c:	8800021e 	bne	r17,zero,1801b88 <___vfprintf_internal_r+0x13c0>
 1801b80:	00800244 	movi	r2,9
 1801b84:	14002936 	bltu	r2,r16,1801c2c <___vfprintf_internal_r+0x1464>
 1801b88:	d90018c4 	addi	r4,sp,99
 1801b8c:	dd000f04 	addi	r20,sp,60
 1801b90:	d9014115 	stw	r4,1284(sp)
 1801b94:	d9014117 	ldw	r4,1284(sp)
 1801b98:	80800c04 	addi	r2,r16,48
 1801b9c:	20800005 	stb	r2,0(r4)
 1801ba0:	003da406 	br	1801234 <___vfprintf_internal_r+0xa6c>
 1801ba4:	dc400d17 	ldw	r17,52(sp)
 1801ba8:	07006074 	movhi	fp,385
 1801bac:	e7024c84 	addi	fp,fp,2354
 1801bb0:	9425883a 	add	r18,r18,r16
 1801bb4:	8c400044 	addi	r17,r17,1
 1801bb8:	008001c4 	movi	r2,7
 1801bbc:	1f000015 	stw	fp,0(r3)
 1801bc0:	1c000115 	stw	r16,4(r3)
 1801bc4:	dc800e15 	stw	r18,56(sp)
 1801bc8:	dc400d15 	stw	r17,52(sp)
 1801bcc:	147de216 	blt	r2,r17,1801358 <___vfprintf_internal_r+0xb90>
 1801bd0:	18c00204 	addi	r3,r3,8
 1801bd4:	003c7a06 	br	1800dc0 <___vfprintf_internal_r+0x5f8>
 1801bd8:	01000084 	movi	r4,2
 1801bdc:	d8000405 	stb	zero,16(sp)
 1801be0:	003d8706 	br	1801200 <___vfprintf_internal_r+0xa38>
 1801be4:	d9814c17 	ldw	r6,1328(sp)
 1801be8:	30c4703a 	and	r2,r6,r3
 1801bec:	1005003a 	cmpeq	r2,r2,zero
 1801bf0:	103cb926 	beq	r2,zero,1800ed8 <___vfprintf_internal_r+0x710>
 1801bf4:	d9014117 	ldw	r4,1284(sp)
 1801bf8:	94800044 	addi	r18,r18,1
 1801bfc:	8c400044 	addi	r17,r17,1
 1801c00:	008001c4 	movi	r2,7
 1801c04:	a9000015 	stw	r4,0(r21)
 1801c08:	a8c00115 	stw	r3,4(r21)
 1801c0c:	dc800e15 	stw	r18,56(sp)
 1801c10:	dc400d15 	stw	r17,52(sp)
 1801c14:	147e6616 	blt	r2,r17,18015b0 <___vfprintf_internal_r+0xde8>
 1801c18:	acc00204 	addi	r19,r21,8
 1801c1c:	003cd706 	br	1800f7c <___vfprintf_internal_r+0x7b4>
 1801c20:	07006074 	movhi	fp,385
 1801c24:	e7024c84 	addi	fp,fp,2354
 1801c28:	003c4f06 	br	1800d68 <___vfprintf_internal_r+0x5a0>
 1801c2c:	dd000f04 	addi	r20,sp,60
 1801c30:	dc801904 	addi	r18,sp,100
 1801c34:	8009883a 	mov	r4,r16
 1801c38:	880b883a 	mov	r5,r17
 1801c3c:	01800284 	movi	r6,10
 1801c40:	000f883a 	mov	r7,zero
 1801c44:	1807ec00 	call	1807ec0 <__umoddi3>
 1801c48:	12000c04 	addi	r8,r2,48
 1801c4c:	94bfffc4 	addi	r18,r18,-1
 1801c50:	8009883a 	mov	r4,r16
 1801c54:	880b883a 	mov	r5,r17
 1801c58:	01800284 	movi	r6,10
 1801c5c:	000f883a 	mov	r7,zero
 1801c60:	92000005 	stb	r8,0(r18)
 1801c64:	18078e40 	call	18078e4 <__udivdi3>
 1801c68:	1009883a 	mov	r4,r2
 1801c6c:	1021883a 	mov	r16,r2
 1801c70:	18800068 	cmpgeui	r2,r3,1
 1801c74:	1823883a 	mov	r17,r3
 1801c78:	103fee1e 	bne	r2,zero,1801c34 <___vfprintf_internal_r+0x146c>
 1801c7c:	1800021e 	bne	r3,zero,1801c88 <___vfprintf_internal_r+0x14c0>
 1801c80:	00800244 	movi	r2,9
 1801c84:	113feb36 	bltu	r2,r4,1801c34 <___vfprintf_internal_r+0x146c>
 1801c88:	94bfffc4 	addi	r18,r18,-1
 1801c8c:	dc814115 	stw	r18,1284(sp)
 1801c90:	003fc006 	br	1801b94 <___vfprintf_internal_r+0x13cc>
 1801c94:	d9014c17 	ldw	r4,1328(sp)
 1801c98:	2080004c 	andi	r2,r4,1
 1801c9c:	10009a1e 	bne	r2,zero,1801f08 <___vfprintf_internal_r+0x1740>
 1801ca0:	d9401904 	addi	r5,sp,100
 1801ca4:	dd000f04 	addi	r20,sp,60
 1801ca8:	d9414115 	stw	r5,1284(sp)
 1801cac:	003d6106 	br	1801234 <___vfprintf_internal_r+0xa6c>
 1801cb0:	d9014f17 	ldw	r4,1340(sp)
 1801cb4:	b00b883a 	mov	r5,r22
 1801cb8:	d9800c04 	addi	r6,sp,48
 1801cbc:	18007700 	call	1800770 <__sprint_r>
 1801cc0:	103c791e 	bne	r2,zero,1800ea8 <___vfprintf_internal_r+0x6e0>
 1801cc4:	dc800e17 	ldw	r18,56(sp)
 1801cc8:	d8c01904 	addi	r3,sp,100
 1801ccc:	003cff06 	br	18010cc <___vfprintf_internal_r+0x904>
 1801cd0:	d8c14c17 	ldw	r3,1328(sp)
 1801cd4:	1880040c 	andi	r2,r3,16
 1801cd8:	1000711e 	bne	r2,zero,1801ea0 <___vfprintf_internal_r+0x16d8>
 1801cdc:	d9014c17 	ldw	r4,1328(sp)
 1801ce0:	2080100c 	andi	r2,r4,64
 1801ce4:	10006e26 	beq	r2,zero,1801ea0 <___vfprintf_internal_r+0x16d8>
 1801ce8:	3c00000b 	ldhu	r16,0(r7)
 1801cec:	0023883a 	mov	r17,zero
 1801cf0:	39c00104 	addi	r7,r7,4
 1801cf4:	d9c14015 	stw	r7,1280(sp)
 1801cf8:	003f0006 	br	18018fc <___vfprintf_internal_r+0x1134>
 1801cfc:	dc400d17 	ldw	r17,52(sp)
 1801d00:	07006074 	movhi	fp,385
 1801d04:	e7024c84 	addi	fp,fp,2354
 1801d08:	9425883a 	add	r18,r18,r16
 1801d0c:	8c400044 	addi	r17,r17,1
 1801d10:	008001c4 	movi	r2,7
 1801d14:	1f000015 	stw	fp,0(r3)
 1801d18:	1c000115 	stw	r16,4(r3)
 1801d1c:	dc800e15 	stw	r18,56(sp)
 1801d20:	dc400d15 	stw	r17,52(sp)
 1801d24:	147d7616 	blt	r2,r17,1801300 <___vfprintf_internal_r+0xb38>
 1801d28:	18c00204 	addi	r3,r3,8
 1801d2c:	003d7b06 	br	180131c <___vfprintf_internal_r+0xb54>
 1801d30:	dc800e17 	ldw	r18,56(sp)
 1801d34:	dc400d17 	ldw	r17,52(sp)
 1801d38:	07006074 	movhi	fp,385
 1801d3c:	e7025084 	addi	fp,fp,2370
 1801d40:	003bc006 	br	1800c44 <___vfprintf_internal_r+0x47c>
 1801d44:	d9014f17 	ldw	r4,1340(sp)
 1801d48:	b00b883a 	mov	r5,r22
 1801d4c:	d9800c04 	addi	r6,sp,48
 1801d50:	18007700 	call	1800770 <__sprint_r>
 1801d54:	103c541e 	bne	r2,zero,1800ea8 <___vfprintf_internal_r+0x6e0>
 1801d58:	dc800e17 	ldw	r18,56(sp)
 1801d5c:	d8c01904 	addi	r3,sp,100
 1801d60:	003ce906 	br	1801108 <___vfprintf_internal_r+0x940>
 1801d64:	3c000017 	ldw	r16,0(r7)
 1801d68:	0009883a 	mov	r4,zero
 1801d6c:	39c00104 	addi	r7,r7,4
 1801d70:	0023883a 	mov	r17,zero
 1801d74:	d9c14015 	stw	r7,1280(sp)
 1801d78:	d8000405 	stb	zero,16(sp)
 1801d7c:	003d2006 	br	1801200 <___vfprintf_internal_r+0xa38>
 1801d80:	38800017 	ldw	r2,0(r7)
 1801d84:	39c00104 	addi	r7,r7,4
 1801d88:	d9c14015 	stw	r7,1280(sp)
 1801d8c:	1023d7fa 	srai	r17,r2,31
 1801d90:	1021883a 	mov	r16,r2
 1801d94:	003d1806 	br	18011f8 <___vfprintf_internal_r+0xa30>
 1801d98:	3c000017 	ldw	r16,0(r7)
 1801d9c:	01000044 	movi	r4,1
 1801da0:	39c00104 	addi	r7,r7,4
 1801da4:	0023883a 	mov	r17,zero
 1801da8:	d9c14015 	stw	r7,1280(sp)
 1801dac:	d8000405 	stb	zero,16(sp)
 1801db0:	003d1306 	br	1801200 <___vfprintf_internal_r+0xa38>
 1801db4:	00806074 	movhi	r2,385
 1801db8:	10824c04 	addi	r2,r2,2352
 1801dbc:	94800044 	addi	r18,r18,1
 1801dc0:	8c400044 	addi	r17,r17,1
 1801dc4:	a8800015 	stw	r2,0(r21)
 1801dc8:	00c00044 	movi	r3,1
 1801dcc:	008001c4 	movi	r2,7
 1801dd0:	a8c00115 	stw	r3,4(r21)
 1801dd4:	dc800e15 	stw	r18,56(sp)
 1801dd8:	dc400d15 	stw	r17,52(sp)
 1801ddc:	1440ca16 	blt	r2,r17,1802108 <___vfprintf_internal_r+0x1940>
 1801de0:	a8c00204 	addi	r3,r21,8
 1801de4:	2000061e 	bne	r4,zero,1801e00 <___vfprintf_internal_r+0x1638>
 1801de8:	d9414717 	ldw	r5,1308(sp)
 1801dec:	2800041e 	bne	r5,zero,1801e00 <___vfprintf_internal_r+0x1638>
 1801df0:	d9814c17 	ldw	r6,1328(sp)
 1801df4:	3080004c 	andi	r2,r6,1
 1801df8:	1005003a 	cmpeq	r2,r2,zero
 1801dfc:	103bf01e 	bne	r2,zero,1800dc0 <___vfprintf_internal_r+0x5f8>
 1801e00:	00800044 	movi	r2,1
 1801e04:	dc400d17 	ldw	r17,52(sp)
 1801e08:	18800115 	stw	r2,4(r3)
 1801e0c:	d8814917 	ldw	r2,1316(sp)
 1801e10:	94800044 	addi	r18,r18,1
 1801e14:	8c400044 	addi	r17,r17,1
 1801e18:	18800015 	stw	r2,0(r3)
 1801e1c:	008001c4 	movi	r2,7
 1801e20:	dc800e15 	stw	r18,56(sp)
 1801e24:	dc400d15 	stw	r17,52(sp)
 1801e28:	1440ca16 	blt	r2,r17,1802154 <___vfprintf_internal_r+0x198c>
 1801e2c:	18c00204 	addi	r3,r3,8
 1801e30:	0121c83a 	sub	r16,zero,r4
 1801e34:	0400500e 	bge	zero,r16,1801f78 <___vfprintf_internal_r+0x17b0>
 1801e38:	00800404 	movi	r2,16
 1801e3c:	1400800e 	bge	r2,r16,1802040 <___vfprintf_internal_r+0x1878>
 1801e40:	1027883a 	mov	r19,r2
 1801e44:	07006074 	movhi	fp,385
 1801e48:	e7024c84 	addi	fp,fp,2354
 1801e4c:	050001c4 	movi	r20,7
 1801e50:	00000306 	br	1801e60 <___vfprintf_internal_r+0x1698>
 1801e54:	18c00204 	addi	r3,r3,8
 1801e58:	843ffc04 	addi	r16,r16,-16
 1801e5c:	9c007a0e 	bge	r19,r16,1802048 <___vfprintf_internal_r+0x1880>
 1801e60:	94800404 	addi	r18,r18,16
 1801e64:	8c400044 	addi	r17,r17,1
 1801e68:	1f000015 	stw	fp,0(r3)
 1801e6c:	1cc00115 	stw	r19,4(r3)
 1801e70:	dc800e15 	stw	r18,56(sp)
 1801e74:	dc400d15 	stw	r17,52(sp)
 1801e78:	a47ff60e 	bge	r20,r17,1801e54 <___vfprintf_internal_r+0x168c>
 1801e7c:	d9014f17 	ldw	r4,1340(sp)
 1801e80:	b00b883a 	mov	r5,r22
 1801e84:	d9800c04 	addi	r6,sp,48
 1801e88:	18007700 	call	1800770 <__sprint_r>
 1801e8c:	103c061e 	bne	r2,zero,1800ea8 <___vfprintf_internal_r+0x6e0>
 1801e90:	dc800e17 	ldw	r18,56(sp)
 1801e94:	dc400d17 	ldw	r17,52(sp)
 1801e98:	d8c01904 	addi	r3,sp,100
 1801e9c:	003fee06 	br	1801e58 <___vfprintf_internal_r+0x1690>
 1801ea0:	3c000017 	ldw	r16,0(r7)
 1801ea4:	0023883a 	mov	r17,zero
 1801ea8:	39c00104 	addi	r7,r7,4
 1801eac:	d9c14015 	stw	r7,1280(sp)
 1801eb0:	003e9206 	br	18018fc <___vfprintf_internal_r+0x1134>
 1801eb4:	d9401904 	addi	r5,sp,100
 1801eb8:	dd000f04 	addi	r20,sp,60
 1801ebc:	d9414115 	stw	r5,1284(sp)
 1801ec0:	d9814417 	ldw	r6,1296(sp)
 1801ec4:	880a973a 	slli	r5,r17,28
 1801ec8:	8004d13a 	srli	r2,r16,4
 1801ecc:	810003cc 	andi	r4,r16,15
 1801ed0:	3109883a 	add	r4,r6,r4
 1801ed4:	2884b03a 	or	r2,r5,r2
 1801ed8:	21400003 	ldbu	r5,0(r4)
 1801edc:	d9014117 	ldw	r4,1284(sp)
 1801ee0:	8806d13a 	srli	r3,r17,4
 1801ee4:	1021883a 	mov	r16,r2
 1801ee8:	213fffc4 	addi	r4,r4,-1
 1801eec:	d9014115 	stw	r4,1284(sp)
 1801ef0:	d9814117 	ldw	r6,1284(sp)
 1801ef4:	10c8b03a 	or	r4,r2,r3
 1801ef8:	1823883a 	mov	r17,r3
 1801efc:	31400005 	stb	r5,0(r6)
 1801f00:	203fef1e 	bne	r4,zero,1801ec0 <___vfprintf_internal_r+0x16f8>
 1801f04:	003ccb06 	br	1801234 <___vfprintf_internal_r+0xa6c>
 1801f08:	00800c04 	movi	r2,48
 1801f0c:	d98018c4 	addi	r6,sp,99
 1801f10:	dd000f04 	addi	r20,sp,60
 1801f14:	d88018c5 	stb	r2,99(sp)
 1801f18:	d9814115 	stw	r6,1284(sp)
 1801f1c:	003cc506 	br	1801234 <___vfprintf_internal_r+0xa6c>
 1801f20:	dc400d17 	ldw	r17,52(sp)
 1801f24:	07006074 	movhi	fp,385
 1801f28:	e7025084 	addi	fp,fp,2370
 1801f2c:	003bc706 	br	1800e4c <___vfprintf_internal_r+0x684>
 1801f30:	d9414c17 	ldw	r5,1328(sp)
 1801f34:	2880040c 	andi	r2,r5,16
 1801f38:	10007c26 	beq	r2,zero,180212c <___vfprintf_internal_r+0x1964>
 1801f3c:	38800017 	ldw	r2,0(r7)
 1801f40:	39c00104 	addi	r7,r7,4
 1801f44:	d9c14015 	stw	r7,1280(sp)
 1801f48:	d9814b17 	ldw	r6,1324(sp)
 1801f4c:	d9c14017 	ldw	r7,1280(sp)
 1801f50:	11800015 	stw	r6,0(r2)
 1801f54:	003a7806 	br	1800938 <___vfprintf_internal_r+0x170>
 1801f58:	d9014f17 	ldw	r4,1340(sp)
 1801f5c:	b00b883a 	mov	r5,r22
 1801f60:	d9800c04 	addi	r6,sp,48
 1801f64:	18007700 	call	1800770 <__sprint_r>
 1801f68:	103bcf1e 	bne	r2,zero,1800ea8 <___vfprintf_internal_r+0x6e0>
 1801f6c:	dc800e17 	ldw	r18,56(sp)
 1801f70:	dc400d17 	ldw	r17,52(sp)
 1801f74:	d8c01904 	addi	r3,sp,100
 1801f78:	d9014717 	ldw	r4,1308(sp)
 1801f7c:	d9414117 	ldw	r5,1284(sp)
 1801f80:	8c400044 	addi	r17,r17,1
 1801f84:	9125883a 	add	r18,r18,r4
 1801f88:	008001c4 	movi	r2,7
 1801f8c:	19400015 	stw	r5,0(r3)
 1801f90:	19000115 	stw	r4,4(r3)
 1801f94:	dc800e15 	stw	r18,56(sp)
 1801f98:	dc400d15 	stw	r17,52(sp)
 1801f9c:	147cee16 	blt	r2,r17,1801358 <___vfprintf_internal_r+0xb90>
 1801fa0:	18c00204 	addi	r3,r3,8
 1801fa4:	003b8606 	br	1800dc0 <___vfprintf_internal_r+0x5f8>
 1801fa8:	38c00017 	ldw	r3,0(r7)
 1801fac:	39000204 	addi	r4,r7,8
 1801fb0:	d9014015 	stw	r4,1280(sp)
 1801fb4:	d8c14215 	stw	r3,1288(sp)
 1801fb8:	39c00117 	ldw	r7,4(r7)
 1801fbc:	d9c14315 	stw	r7,1292(sp)
 1801fc0:	003e2006 	br	1801844 <___vfprintf_internal_r+0x107c>
 1801fc4:	0005883a 	mov	r2,zero
 1801fc8:	1409c83a 	sub	r4,r2,r16
 1801fcc:	1105803a 	cmpltu	r2,r2,r4
 1801fd0:	044bc83a 	sub	r5,zero,r17
 1801fd4:	2885c83a 	sub	r2,r5,r2
 1801fd8:	2021883a 	mov	r16,r4
 1801fdc:	1023883a 	mov	r17,r2
 1801fe0:	01000044 	movi	r4,1
 1801fe4:	00800b44 	movi	r2,45
 1801fe8:	d8800405 	stb	r2,16(sp)
 1801fec:	003c8406 	br	1801200 <___vfprintf_internal_r+0xa38>
 1801ff0:	d9014f17 	ldw	r4,1340(sp)
 1801ff4:	b00b883a 	mov	r5,r22
 1801ff8:	d9800c04 	addi	r6,sp,48
 1801ffc:	18007700 	call	1800770 <__sprint_r>
 1802000:	103ba91e 	bne	r2,zero,1800ea8 <___vfprintf_internal_r+0x6e0>
 1802004:	dc800e17 	ldw	r18,56(sp)
 1802008:	dc400d17 	ldw	r17,52(sp)
 180200c:	d9000517 	ldw	r4,20(sp)
 1802010:	d9401904 	addi	r5,sp,100
 1802014:	003da706 	br	18016b4 <___vfprintf_internal_r+0xeec>
 1802018:	d9014f17 	ldw	r4,1340(sp)
 180201c:	b00b883a 	mov	r5,r22
 1802020:	d9800c04 	addi	r6,sp,48
 1802024:	18007700 	call	1800770 <__sprint_r>
 1802028:	103b9f1e 	bne	r2,zero,1800ea8 <___vfprintf_internal_r+0x6e0>
 180202c:	dc800e17 	ldw	r18,56(sp)
 1802030:	dc400d17 	ldw	r17,52(sp)
 1802034:	d9000517 	ldw	r4,20(sp)
 1802038:	d8c01904 	addi	r3,sp,100
 180203c:	003d9106 	br	1801684 <___vfprintf_internal_r+0xebc>
 1802040:	07006074 	movhi	fp,385
 1802044:	e7024c84 	addi	fp,fp,2354
 1802048:	9425883a 	add	r18,r18,r16
 180204c:	8c400044 	addi	r17,r17,1
 1802050:	008001c4 	movi	r2,7
 1802054:	1f000015 	stw	fp,0(r3)
 1802058:	1c000115 	stw	r16,4(r3)
 180205c:	dc800e15 	stw	r18,56(sp)
 1802060:	dc400d15 	stw	r17,52(sp)
 1802064:	147fbc16 	blt	r2,r17,1801f58 <___vfprintf_internal_r+0x1790>
 1802068:	18c00204 	addi	r3,r3,8
 180206c:	003fc206 	br	1801f78 <___vfprintf_internal_r+0x17b0>
 1802070:	d9014f17 	ldw	r4,1340(sp)
 1802074:	b00b883a 	mov	r5,r22
 1802078:	d9800c04 	addi	r6,sp,48
 180207c:	18007700 	call	1800770 <__sprint_r>
 1802080:	103b891e 	bne	r2,zero,1800ea8 <___vfprintf_internal_r+0x6e0>
 1802084:	dc800e17 	ldw	r18,56(sp)
 1802088:	d9000517 	ldw	r4,20(sp)
 180208c:	d8c01904 	addi	r3,sp,100
 1802090:	003d0206 	br	180149c <___vfprintf_internal_r+0xcd4>
 1802094:	07006074 	movhi	fp,385
 1802098:	e7024c84 	addi	fp,fp,2354
 180209c:	003be406 	br	1801030 <___vfprintf_internal_r+0x868>
 18020a0:	00806074 	movhi	r2,385
 18020a4:	10823b04 	addi	r2,r2,2284
 18020a8:	d8814115 	stw	r2,1284(sp)
 18020ac:	003df506 	br	1801884 <___vfprintf_internal_r+0x10bc>
 18020b0:	d9014217 	ldw	r4,1288(sp)
 18020b4:	d9414317 	ldw	r5,1292(sp)
 18020b8:	18071a80 	call	18071a8 <__isnand>
 18020bc:	10003926 	beq	r2,zero,18021a4 <___vfprintf_internal_r+0x19dc>
 18020c0:	d9414d17 	ldw	r5,1332(sp)
 18020c4:	008011c4 	movi	r2,71
 18020c8:	1140ce16 	blt	r2,r5,1802404 <___vfprintf_internal_r+0x1c3c>
 18020cc:	01806074 	movhi	r6,385
 18020d0:	31823c04 	addi	r6,r6,2288
 18020d4:	d9814115 	stw	r6,1284(sp)
 18020d8:	003dea06 	br	1801884 <___vfprintf_internal_r+0x10bc>
 18020dc:	d9014c17 	ldw	r4,1328(sp)
 18020e0:	bdc00044 	addi	r23,r23,1
 18020e4:	b8c00007 	ldb	r3,0(r23)
 18020e8:	21000814 	ori	r4,r4,32
 18020ec:	d9014c15 	stw	r4,1328(sp)
 18020f0:	003a3406 	br	18009c4 <___vfprintf_internal_r+0x1fc>
 18020f4:	dcc14515 	stw	r19,1300(sp)
 18020f8:	98011016 	blt	r19,zero,180253c <___vfprintf_internal_r+0x1d74>
 18020fc:	980f883a 	mov	r7,r19
 1802100:	d8014615 	stw	zero,1304(sp)
 1802104:	003c5206 	br	1801250 <___vfprintf_internal_r+0xa88>
 1802108:	d9014f17 	ldw	r4,1340(sp)
 180210c:	b00b883a 	mov	r5,r22
 1802110:	d9800c04 	addi	r6,sp,48
 1802114:	18007700 	call	1800770 <__sprint_r>
 1802118:	103b631e 	bne	r2,zero,1800ea8 <___vfprintf_internal_r+0x6e0>
 180211c:	dc800e17 	ldw	r18,56(sp)
 1802120:	d9000517 	ldw	r4,20(sp)
 1802124:	d8c01904 	addi	r3,sp,100
 1802128:	003f2e06 	br	1801de4 <___vfprintf_internal_r+0x161c>
 180212c:	d8c14c17 	ldw	r3,1328(sp)
 1802130:	1880100c 	andi	r2,r3,64
 1802134:	1000a026 	beq	r2,zero,18023b8 <___vfprintf_internal_r+0x1bf0>
 1802138:	38800017 	ldw	r2,0(r7)
 180213c:	39c00104 	addi	r7,r7,4
 1802140:	d9c14015 	stw	r7,1280(sp)
 1802144:	d9014b17 	ldw	r4,1324(sp)
 1802148:	d9c14017 	ldw	r7,1280(sp)
 180214c:	1100000d 	sth	r4,0(r2)
 1802150:	0039f906 	br	1800938 <___vfprintf_internal_r+0x170>
 1802154:	d9014f17 	ldw	r4,1340(sp)
 1802158:	b00b883a 	mov	r5,r22
 180215c:	d9800c04 	addi	r6,sp,48
 1802160:	18007700 	call	1800770 <__sprint_r>
 1802164:	103b501e 	bne	r2,zero,1800ea8 <___vfprintf_internal_r+0x6e0>
 1802168:	dc800e17 	ldw	r18,56(sp)
 180216c:	dc400d17 	ldw	r17,52(sp)
 1802170:	d9000517 	ldw	r4,20(sp)
 1802174:	d8c01904 	addi	r3,sp,100
 1802178:	003f2d06 	br	1801e30 <___vfprintf_internal_r+0x1668>
 180217c:	00800184 	movi	r2,6
 1802180:	14c09a36 	bltu	r2,r19,18023ec <___vfprintf_internal_r+0x1c24>
 1802184:	dcc14515 	stw	r19,1300(sp)
 1802188:	9800010e 	bge	r19,zero,1802190 <___vfprintf_internal_r+0x19c8>
 180218c:	d8014515 	stw	zero,1300(sp)
 1802190:	00806074 	movhi	r2,385
 1802194:	10823e04 	addi	r2,r2,2296
 1802198:	980f883a 	mov	r7,r19
 180219c:	d8814115 	stw	r2,1284(sp)
 18021a0:	003a7806 	br	1800b84 <___vfprintf_internal_r+0x3bc>
 18021a4:	00bfffc4 	movi	r2,-1
 18021a8:	9880e226 	beq	r19,r2,1802534 <___vfprintf_internal_r+0x1d6c>
 18021ac:	d9414d17 	ldw	r5,1332(sp)
 18021b0:	008019c4 	movi	r2,103
 18021b4:	2880dc26 	beq	r5,r2,1802528 <___vfprintf_internal_r+0x1d60>
 18021b8:	008011c4 	movi	r2,71
 18021bc:	2880da26 	beq	r5,r2,1802528 <___vfprintf_internal_r+0x1d60>
 18021c0:	d9414c17 	ldw	r5,1328(sp)
 18021c4:	d9014317 	ldw	r4,1292(sp)
 18021c8:	d9814217 	ldw	r6,1288(sp)
 18021cc:	29404014 	ori	r5,r5,256
 18021d0:	d9414c15 	stw	r5,1328(sp)
 18021d4:	2000cc16 	blt	r4,zero,1802508 <___vfprintf_internal_r+0x1d40>
 18021d8:	3021883a 	mov	r16,r6
 18021dc:	2023883a 	mov	r17,r4
 18021e0:	0039883a 	mov	fp,zero
 18021e4:	d9414d17 	ldw	r5,1332(sp)
 18021e8:	00801984 	movi	r2,102
 18021ec:	2880b726 	beq	r5,r2,18024cc <___vfprintf_internal_r+0x1d04>
 18021f0:	00801184 	movi	r2,70
 18021f4:	2880b526 	beq	r5,r2,18024cc <___vfprintf_internal_r+0x1d04>
 18021f8:	00801944 	movi	r2,101
 18021fc:	2880c826 	beq	r5,r2,1802520 <___vfprintf_internal_r+0x1d58>
 1802200:	00801144 	movi	r2,69
 1802204:	2880c626 	beq	r5,r2,1802520 <___vfprintf_internal_r+0x1d58>
 1802208:	9829883a 	mov	r20,r19
 180220c:	d9014f17 	ldw	r4,1340(sp)
 1802210:	d8800504 	addi	r2,sp,20
 1802214:	880d883a 	mov	r6,r17
 1802218:	d8800115 	stw	r2,4(sp)
 180221c:	d8c00604 	addi	r3,sp,24
 1802220:	d8800704 	addi	r2,sp,28
 1802224:	800b883a 	mov	r5,r16
 1802228:	01c00084 	movi	r7,2
 180222c:	d8c00215 	stw	r3,8(sp)
 1802230:	d8800315 	stw	r2,12(sp)
 1802234:	dd000015 	stw	r20,0(sp)
 1802238:	18029ec0 	call	18029ec <_dtoa_r>
 180223c:	d9814d17 	ldw	r6,1332(sp)
 1802240:	d8814115 	stw	r2,1284(sp)
 1802244:	008019c4 	movi	r2,103
 1802248:	30809526 	beq	r6,r2,18024a0 <___vfprintf_internal_r+0x1cd8>
 180224c:	d8c14d17 	ldw	r3,1332(sp)
 1802250:	008011c4 	movi	r2,71
 1802254:	18809226 	beq	r3,r2,18024a0 <___vfprintf_internal_r+0x1cd8>
 1802258:	d9414117 	ldw	r5,1284(sp)
 180225c:	d9814d17 	ldw	r6,1332(sp)
 1802260:	00801984 	movi	r2,102
 1802264:	2d25883a 	add	r18,r5,r20
 1802268:	30808626 	beq	r6,r2,1802484 <___vfprintf_internal_r+0x1cbc>
 180226c:	00801184 	movi	r2,70
 1802270:	30808426 	beq	r6,r2,1802484 <___vfprintf_internal_r+0x1cbc>
 1802274:	000d883a 	mov	r6,zero
 1802278:	000f883a 	mov	r7,zero
 180227c:	880b883a 	mov	r5,r17
 1802280:	8009883a 	mov	r4,r16
 1802284:	1808f900 	call	1808f90 <__eqdf2>
 1802288:	1000751e 	bne	r2,zero,1802460 <___vfprintf_internal_r+0x1c98>
 180228c:	9005883a 	mov	r2,r18
 1802290:	dc800715 	stw	r18,28(sp)
 1802294:	d9014117 	ldw	r4,1284(sp)
 1802298:	d9414d17 	ldw	r5,1332(sp)
 180229c:	00c019c4 	movi	r3,103
 18022a0:	1125c83a 	sub	r18,r2,r4
 18022a4:	28c06826 	beq	r5,r3,1802448 <___vfprintf_internal_r+0x1c80>
 18022a8:	008011c4 	movi	r2,71
 18022ac:	28806626 	beq	r5,r2,1802448 <___vfprintf_internal_r+0x1c80>
 18022b0:	d9000517 	ldw	r4,20(sp)
 18022b4:	d8c14d17 	ldw	r3,1332(sp)
 18022b8:	00801944 	movi	r2,101
 18022bc:	10c05516 	blt	r2,r3,1802414 <___vfprintf_internal_r+0x1c4c>
 18022c0:	213fffc4 	addi	r4,r4,-1
 18022c4:	d9000515 	stw	r4,20(sp)
 18022c8:	d8c00805 	stb	r3,32(sp)
 18022cc:	2021883a 	mov	r16,r4
 18022d0:	2000c116 	blt	r4,zero,18025d8 <___vfprintf_internal_r+0x1e10>
 18022d4:	00800ac4 	movi	r2,43
 18022d8:	d8800845 	stb	r2,33(sp)
 18022dc:	00800244 	movi	r2,9
 18022e0:	1400af0e 	bge	r2,r16,18025a0 <___vfprintf_internal_r+0x1dd8>
 18022e4:	1027883a 	mov	r19,r2
 18022e8:	dc400b84 	addi	r17,sp,46
 18022ec:	8009883a 	mov	r4,r16
 18022f0:	01400284 	movi	r5,10
 18022f4:	18096780 	call	1809678 <__modsi3>
 18022f8:	10800c04 	addi	r2,r2,48
 18022fc:	8c7fffc4 	addi	r17,r17,-1
 1802300:	8009883a 	mov	r4,r16
 1802304:	01400284 	movi	r5,10
 1802308:	88800005 	stb	r2,0(r17)
 180230c:	18096180 	call	1809618 <__divsi3>
 1802310:	1021883a 	mov	r16,r2
 1802314:	98bff516 	blt	r19,r2,18022ec <___vfprintf_internal_r+0x1b24>
 1802318:	10c00c04 	addi	r3,r2,48
 180231c:	d88009c4 	addi	r2,sp,39
 1802320:	108001c4 	addi	r2,r2,7
 1802324:	897fffc4 	addi	r5,r17,-1
 1802328:	88ffffc5 	stb	r3,-1(r17)
 180232c:	2880a72e 	bgeu	r5,r2,18025cc <___vfprintf_internal_r+0x1e04>
 1802330:	1009883a 	mov	r4,r2
 1802334:	d9800804 	addi	r6,sp,32
 1802338:	d8c00884 	addi	r3,sp,34
 180233c:	28800003 	ldbu	r2,0(r5)
 1802340:	29400044 	addi	r5,r5,1
 1802344:	18800005 	stb	r2,0(r3)
 1802348:	18c00044 	addi	r3,r3,1
 180234c:	293ffb36 	bltu	r5,r4,180233c <___vfprintf_internal_r+0x1b74>
 1802350:	1987c83a 	sub	r3,r3,r6
 1802354:	00800044 	movi	r2,1
 1802358:	d8c14815 	stw	r3,1312(sp)
 180235c:	90cf883a 	add	r7,r18,r3
 1802360:	1480960e 	bge	r2,r18,18025bc <___vfprintf_internal_r+0x1df4>
 1802364:	39c00044 	addi	r7,r7,1
 1802368:	d9c14515 	stw	r7,1300(sp)
 180236c:	38003416 	blt	r7,zero,1802440 <___vfprintf_internal_r+0x1c78>
 1802370:	e0803fcc 	andi	r2,fp,255
 1802374:	1080201c 	xori	r2,r2,128
 1802378:	10bfe004 	addi	r2,r2,-128
 180237c:	10004e26 	beq	r2,zero,18024b8 <___vfprintf_internal_r+0x1cf0>
 1802380:	00800b44 	movi	r2,45
 1802384:	dc814715 	stw	r18,1308(sp)
 1802388:	d8014615 	stw	zero,1304(sp)
 180238c:	d8800405 	stb	r2,16(sp)
 1802390:	003bb106 	br	1801258 <___vfprintf_internal_r+0xa90>
 1802394:	00800b44 	movi	r2,45
 1802398:	d8800405 	stb	r2,16(sp)
 180239c:	003d3306 	br	180186c <___vfprintf_internal_r+0x10a4>
 18023a0:	d9014f17 	ldw	r4,1340(sp)
 18023a4:	b00b883a 	mov	r5,r22
 18023a8:	d9800c04 	addi	r6,sp,48
 18023ac:	18007700 	call	1800770 <__sprint_r>
 18023b0:	103abd1e 	bne	r2,zero,1800ea8 <___vfprintf_internal_r+0x6e0>
 18023b4:	003abb06 	br	1800ea4 <___vfprintf_internal_r+0x6dc>
 18023b8:	38800017 	ldw	r2,0(r7)
 18023bc:	39c00104 	addi	r7,r7,4
 18023c0:	d9c14015 	stw	r7,1280(sp)
 18023c4:	d9414b17 	ldw	r5,1324(sp)
 18023c8:	d9c14017 	ldw	r7,1280(sp)
 18023cc:	11400015 	stw	r5,0(r2)
 18023d0:	00395906 	br	1800938 <___vfprintf_internal_r+0x170>
 18023d4:	980f883a 	mov	r7,r19
 18023d8:	dcc14515 	stw	r19,1300(sp)
 18023dc:	d8014615 	stw	zero,1304(sp)
 18023e0:	003b9b06 	br	1801250 <___vfprintf_internal_r+0xa88>
 18023e4:	0027883a 	mov	r19,zero
 18023e8:	00397806 	br	18009cc <___vfprintf_internal_r+0x204>
 18023ec:	00c06074 	movhi	r3,385
 18023f0:	18c23e04 	addi	r3,r3,2296
 18023f4:	100f883a 	mov	r7,r2
 18023f8:	d8814515 	stw	r2,1300(sp)
 18023fc:	d8c14115 	stw	r3,1284(sp)
 1802400:	0039e006 	br	1800b84 <___vfprintf_internal_r+0x3bc>
 1802404:	00806074 	movhi	r2,385
 1802408:	10823d04 	addi	r2,r2,2292
 180240c:	d8814115 	stw	r2,1284(sp)
 1802410:	003d1c06 	br	1801884 <___vfprintf_internal_r+0x10bc>
 1802414:	d9414d17 	ldw	r5,1332(sp)
 1802418:	00801984 	movi	r2,102
 180241c:	28804926 	beq	r5,r2,1802544 <___vfprintf_internal_r+0x1d7c>
 1802420:	200f883a 	mov	r7,r4
 1802424:	24805716 	blt	r4,r18,1802584 <___vfprintf_internal_r+0x1dbc>
 1802428:	d9414c17 	ldw	r5,1328(sp)
 180242c:	2880004c 	andi	r2,r5,1
 1802430:	10000126 	beq	r2,zero,1802438 <___vfprintf_internal_r+0x1c70>
 1802434:	21c00044 	addi	r7,r4,1
 1802438:	d9c14515 	stw	r7,1300(sp)
 180243c:	383fcc0e 	bge	r7,zero,1802370 <___vfprintf_internal_r+0x1ba8>
 1802440:	d8014515 	stw	zero,1300(sp)
 1802444:	003fca06 	br	1802370 <___vfprintf_internal_r+0x1ba8>
 1802448:	d9000517 	ldw	r4,20(sp)
 180244c:	00bfff04 	movi	r2,-4
 1802450:	1100480e 	bge	r2,r4,1802574 <___vfprintf_internal_r+0x1dac>
 1802454:	99004716 	blt	r19,r4,1802574 <___vfprintf_internal_r+0x1dac>
 1802458:	d8c14d15 	stw	r3,1332(sp)
 180245c:	003ff006 	br	1802420 <___vfprintf_internal_r+0x1c58>
 1802460:	d8800717 	ldw	r2,28(sp)
 1802464:	14bf8b2e 	bgeu	r2,r18,1802294 <___vfprintf_internal_r+0x1acc>
 1802468:	9007883a 	mov	r3,r18
 180246c:	01000c04 	movi	r4,48
 1802470:	11000005 	stb	r4,0(r2)
 1802474:	10800044 	addi	r2,r2,1
 1802478:	d8800715 	stw	r2,28(sp)
 180247c:	18bffc1e 	bne	r3,r2,1802470 <___vfprintf_internal_r+0x1ca8>
 1802480:	003f8406 	br	1802294 <___vfprintf_internal_r+0x1acc>
 1802484:	d8814117 	ldw	r2,1284(sp)
 1802488:	10c00007 	ldb	r3,0(r2)
 180248c:	00800c04 	movi	r2,48
 1802490:	18805b26 	beq	r3,r2,1802600 <___vfprintf_internal_r+0x1e38>
 1802494:	d9000517 	ldw	r4,20(sp)
 1802498:	9125883a 	add	r18,r18,r4
 180249c:	003f7506 	br	1802274 <___vfprintf_internal_r+0x1aac>
 18024a0:	d9014c17 	ldw	r4,1328(sp)
 18024a4:	2080004c 	andi	r2,r4,1
 18024a8:	1005003a 	cmpeq	r2,r2,zero
 18024ac:	103f6a26 	beq	r2,zero,1802258 <___vfprintf_internal_r+0x1a90>
 18024b0:	d8800717 	ldw	r2,28(sp)
 18024b4:	003f7706 	br	1802294 <___vfprintf_internal_r+0x1acc>
 18024b8:	d9c14515 	stw	r7,1300(sp)
 18024bc:	38004d16 	blt	r7,zero,18025f4 <___vfprintf_internal_r+0x1e2c>
 18024c0:	dc814715 	stw	r18,1308(sp)
 18024c4:	d8014615 	stw	zero,1304(sp)
 18024c8:	003b6106 	br	1801250 <___vfprintf_internal_r+0xa88>
 18024cc:	d9014f17 	ldw	r4,1340(sp)
 18024d0:	d8800504 	addi	r2,sp,20
 18024d4:	d8800115 	stw	r2,4(sp)
 18024d8:	d8c00604 	addi	r3,sp,24
 18024dc:	d8800704 	addi	r2,sp,28
 18024e0:	800b883a 	mov	r5,r16
 18024e4:	880d883a 	mov	r6,r17
 18024e8:	01c000c4 	movi	r7,3
 18024ec:	d8c00215 	stw	r3,8(sp)
 18024f0:	d8800315 	stw	r2,12(sp)
 18024f4:	dcc00015 	stw	r19,0(sp)
 18024f8:	9829883a 	mov	r20,r19
 18024fc:	18029ec0 	call	18029ec <_dtoa_r>
 1802500:	d8814115 	stw	r2,1284(sp)
 1802504:	003f5106 	br	180224c <___vfprintf_internal_r+0x1a84>
 1802508:	d8c14217 	ldw	r3,1288(sp)
 180250c:	d9014317 	ldw	r4,1292(sp)
 1802510:	07000b44 	movi	fp,45
 1802514:	1821883a 	mov	r16,r3
 1802518:	2460003c 	xorhi	r17,r4,32768
 180251c:	003f3106 	br	18021e4 <___vfprintf_internal_r+0x1a1c>
 1802520:	9d000044 	addi	r20,r19,1
 1802524:	003f3906 	br	180220c <___vfprintf_internal_r+0x1a44>
 1802528:	983f251e 	bne	r19,zero,18021c0 <___vfprintf_internal_r+0x19f8>
 180252c:	04c00044 	movi	r19,1
 1802530:	003f2306 	br	18021c0 <___vfprintf_internal_r+0x19f8>
 1802534:	04c00184 	movi	r19,6
 1802538:	003f2106 	br	18021c0 <___vfprintf_internal_r+0x19f8>
 180253c:	d8014515 	stw	zero,1300(sp)
 1802540:	003eee06 	br	18020fc <___vfprintf_internal_r+0x1934>
 1802544:	200f883a 	mov	r7,r4
 1802548:	0100370e 	bge	zero,r4,1802628 <___vfprintf_internal_r+0x1e60>
 180254c:	9800031e 	bne	r19,zero,180255c <___vfprintf_internal_r+0x1d94>
 1802550:	d9814c17 	ldw	r6,1328(sp)
 1802554:	3080004c 	andi	r2,r6,1
 1802558:	103fb726 	beq	r2,zero,1802438 <___vfprintf_internal_r+0x1c70>
 180255c:	20800044 	addi	r2,r4,1
 1802560:	98a7883a 	add	r19,r19,r2
 1802564:	dcc14515 	stw	r19,1300(sp)
 1802568:	980f883a 	mov	r7,r19
 180256c:	983f800e 	bge	r19,zero,1802370 <___vfprintf_internal_r+0x1ba8>
 1802570:	003fb306 	br	1802440 <___vfprintf_internal_r+0x1c78>
 1802574:	d9814d17 	ldw	r6,1332(sp)
 1802578:	31bfff84 	addi	r6,r6,-2
 180257c:	d9814d15 	stw	r6,1332(sp)
 1802580:	003f4c06 	br	18022b4 <___vfprintf_internal_r+0x1aec>
 1802584:	0100180e 	bge	zero,r4,18025e8 <___vfprintf_internal_r+0x1e20>
 1802588:	00800044 	movi	r2,1
 180258c:	1485883a 	add	r2,r2,r18
 1802590:	d8814515 	stw	r2,1300(sp)
 1802594:	100f883a 	mov	r7,r2
 1802598:	103f750e 	bge	r2,zero,1802370 <___vfprintf_internal_r+0x1ba8>
 180259c:	003fa806 	br	1802440 <___vfprintf_internal_r+0x1c78>
 18025a0:	80c00c04 	addi	r3,r16,48
 18025a4:	00800c04 	movi	r2,48
 18025a8:	d8c008c5 	stb	r3,35(sp)
 18025ac:	d9800804 	addi	r6,sp,32
 18025b0:	d8c00904 	addi	r3,sp,36
 18025b4:	d8800885 	stb	r2,34(sp)
 18025b8:	003f6506 	br	1802350 <___vfprintf_internal_r+0x1b88>
 18025bc:	d9014c17 	ldw	r4,1328(sp)
 18025c0:	2084703a 	and	r2,r4,r2
 18025c4:	103f9c26 	beq	r2,zero,1802438 <___vfprintf_internal_r+0x1c70>
 18025c8:	003f6606 	br	1802364 <___vfprintf_internal_r+0x1b9c>
 18025cc:	d9800804 	addi	r6,sp,32
 18025d0:	d8c00884 	addi	r3,sp,34
 18025d4:	003f5e06 	br	1802350 <___vfprintf_internal_r+0x1b88>
 18025d8:	00800b44 	movi	r2,45
 18025dc:	0121c83a 	sub	r16,zero,r4
 18025e0:	d8800845 	stb	r2,33(sp)
 18025e4:	003f3d06 	br	18022dc <___vfprintf_internal_r+0x1b14>
 18025e8:	00800084 	movi	r2,2
 18025ec:	1105c83a 	sub	r2,r2,r4
 18025f0:	003fe606 	br	180258c <___vfprintf_internal_r+0x1dc4>
 18025f4:	d8014515 	stw	zero,1300(sp)
 18025f8:	dc814715 	stw	r18,1308(sp)
 18025fc:	003fb106 	br	18024c4 <___vfprintf_internal_r+0x1cfc>
 1802600:	000d883a 	mov	r6,zero
 1802604:	000f883a 	mov	r7,zero
 1802608:	8009883a 	mov	r4,r16
 180260c:	880b883a 	mov	r5,r17
 1802610:	18090180 	call	1809018 <__nedf2>
 1802614:	103f9f26 	beq	r2,zero,1802494 <___vfprintf_internal_r+0x1ccc>
 1802618:	00800044 	movi	r2,1
 180261c:	1509c83a 	sub	r4,r2,r20
 1802620:	d9000515 	stw	r4,20(sp)
 1802624:	003f9b06 	br	1802494 <___vfprintf_internal_r+0x1ccc>
 1802628:	98000d1e 	bne	r19,zero,1802660 <___vfprintf_internal_r+0x1e98>
 180262c:	d8c14c17 	ldw	r3,1328(sp)
 1802630:	1880004c 	andi	r2,r3,1
 1802634:	10000a1e 	bne	r2,zero,1802660 <___vfprintf_internal_r+0x1e98>
 1802638:	01000044 	movi	r4,1
 180263c:	200f883a 	mov	r7,r4
 1802640:	d9014515 	stw	r4,1300(sp)
 1802644:	003f4a06 	br	1802370 <___vfprintf_internal_r+0x1ba8>
 1802648:	3cc00017 	ldw	r19,0(r7)
 180264c:	39c00104 	addi	r7,r7,4
 1802650:	983d0e0e 	bge	r19,zero,1801a8c <___vfprintf_internal_r+0x12c4>
 1802654:	b8c00007 	ldb	r3,0(r23)
 1802658:	04ffffc4 	movi	r19,-1
 180265c:	0038d906 	br	18009c4 <___vfprintf_internal_r+0x1fc>
 1802660:	9cc00084 	addi	r19,r19,2
 1802664:	dcc14515 	stw	r19,1300(sp)
 1802668:	980f883a 	mov	r7,r19
 180266c:	983f400e 	bge	r19,zero,1802370 <___vfprintf_internal_r+0x1ba8>
 1802670:	003f7306 	br	1802440 <___vfprintf_internal_r+0x1c78>

01802674 <__vfprintf_internal>:
 1802674:	00806074 	movhi	r2,385
 1802678:	108ae404 	addi	r2,r2,11152
 180267c:	2013883a 	mov	r9,r4
 1802680:	11000017 	ldw	r4,0(r2)
 1802684:	2805883a 	mov	r2,r5
 1802688:	300f883a 	mov	r7,r6
 180268c:	480b883a 	mov	r5,r9
 1802690:	100d883a 	mov	r6,r2
 1802694:	18007c81 	jmpi	18007c8 <___vfprintf_internal_r>

01802698 <__swsetup_r>:
 1802698:	00806074 	movhi	r2,385
 180269c:	108ae404 	addi	r2,r2,11152
 18026a0:	10c00017 	ldw	r3,0(r2)
 18026a4:	defffd04 	addi	sp,sp,-12
 18026a8:	dc400115 	stw	r17,4(sp)
 18026ac:	dc000015 	stw	r16,0(sp)
 18026b0:	dfc00215 	stw	ra,8(sp)
 18026b4:	2023883a 	mov	r17,r4
 18026b8:	2821883a 	mov	r16,r5
 18026bc:	18000226 	beq	r3,zero,18026c8 <__swsetup_r+0x30>
 18026c0:	18800e17 	ldw	r2,56(r3)
 18026c4:	10001f26 	beq	r2,zero,1802744 <__swsetup_r+0xac>
 18026c8:	8100030b 	ldhu	r4,12(r16)
 18026cc:	2080020c 	andi	r2,r4,8
 18026d0:	10002826 	beq	r2,zero,1802774 <__swsetup_r+0xdc>
 18026d4:	81400417 	ldw	r5,16(r16)
 18026d8:	28001d26 	beq	r5,zero,1802750 <__swsetup_r+0xb8>
 18026dc:	2080004c 	andi	r2,r4,1
 18026e0:	1005003a 	cmpeq	r2,r2,zero
 18026e4:	10000b26 	beq	r2,zero,1802714 <__swsetup_r+0x7c>
 18026e8:	2080008c 	andi	r2,r4,2
 18026ec:	10001226 	beq	r2,zero,1802738 <__swsetup_r+0xa0>
 18026f0:	0005883a 	mov	r2,zero
 18026f4:	80800215 	stw	r2,8(r16)
 18026f8:	28000b26 	beq	r5,zero,1802728 <__swsetup_r+0x90>
 18026fc:	0005883a 	mov	r2,zero
 1802700:	dfc00217 	ldw	ra,8(sp)
 1802704:	dc400117 	ldw	r17,4(sp)
 1802708:	dc000017 	ldw	r16,0(sp)
 180270c:	dec00304 	addi	sp,sp,12
 1802710:	f800283a 	ret
 1802714:	80800517 	ldw	r2,20(r16)
 1802718:	80000215 	stw	zero,8(r16)
 180271c:	0085c83a 	sub	r2,zero,r2
 1802720:	80800615 	stw	r2,24(r16)
 1802724:	283ff51e 	bne	r5,zero,18026fc <__swsetup_r+0x64>
 1802728:	2080200c 	andi	r2,r4,128
 180272c:	103ff326 	beq	r2,zero,18026fc <__swsetup_r+0x64>
 1802730:	00bfffc4 	movi	r2,-1
 1802734:	003ff206 	br	1802700 <__swsetup_r+0x68>
 1802738:	80800517 	ldw	r2,20(r16)
 180273c:	80800215 	stw	r2,8(r16)
 1802740:	003fed06 	br	18026f8 <__swsetup_r+0x60>
 1802744:	1809883a 	mov	r4,r3
 1802748:	18042380 	call	1804238 <__sinit>
 180274c:	003fde06 	br	18026c8 <__swsetup_r+0x30>
 1802750:	20c0a00c 	andi	r3,r4,640
 1802754:	00808004 	movi	r2,512
 1802758:	18bfe026 	beq	r3,r2,18026dc <__swsetup_r+0x44>
 180275c:	8809883a 	mov	r4,r17
 1802760:	800b883a 	mov	r5,r16
 1802764:	1804fb00 	call	1804fb0 <__smakebuf_r>
 1802768:	8100030b 	ldhu	r4,12(r16)
 180276c:	81400417 	ldw	r5,16(r16)
 1802770:	003fda06 	br	18026dc <__swsetup_r+0x44>
 1802774:	2080040c 	andi	r2,r4,16
 1802778:	103fed26 	beq	r2,zero,1802730 <__swsetup_r+0x98>
 180277c:	2080010c 	andi	r2,r4,4
 1802780:	10001226 	beq	r2,zero,18027cc <__swsetup_r+0x134>
 1802784:	81400c17 	ldw	r5,48(r16)
 1802788:	28000526 	beq	r5,zero,18027a0 <__swsetup_r+0x108>
 180278c:	80801004 	addi	r2,r16,64
 1802790:	28800226 	beq	r5,r2,180279c <__swsetup_r+0x104>
 1802794:	8809883a 	mov	r4,r17
 1802798:	18045bc0 	call	18045bc <_free_r>
 180279c:	80000c15 	stw	zero,48(r16)
 18027a0:	8080030b 	ldhu	r2,12(r16)
 18027a4:	81400417 	ldw	r5,16(r16)
 18027a8:	80000115 	stw	zero,4(r16)
 18027ac:	10bff6cc 	andi	r2,r2,65499
 18027b0:	8080030d 	sth	r2,12(r16)
 18027b4:	81400015 	stw	r5,0(r16)
 18027b8:	8080030b 	ldhu	r2,12(r16)
 18027bc:	10800214 	ori	r2,r2,8
 18027c0:	113fffcc 	andi	r4,r2,65535
 18027c4:	8080030d 	sth	r2,12(r16)
 18027c8:	003fc306 	br	18026d8 <__swsetup_r+0x40>
 18027cc:	81400417 	ldw	r5,16(r16)
 18027d0:	003ff906 	br	18027b8 <__swsetup_r+0x120>

018027d4 <quorem>:
 18027d4:	28c00417 	ldw	r3,16(r5)
 18027d8:	20800417 	ldw	r2,16(r4)
 18027dc:	defff604 	addi	sp,sp,-40
 18027e0:	ddc00715 	stw	r23,28(sp)
 18027e4:	dd400515 	stw	r21,20(sp)
 18027e8:	dfc00915 	stw	ra,36(sp)
 18027ec:	df000815 	stw	fp,32(sp)
 18027f0:	dd800615 	stw	r22,24(sp)
 18027f4:	dd000415 	stw	r20,16(sp)
 18027f8:	dcc00315 	stw	r19,12(sp)
 18027fc:	dc800215 	stw	r18,8(sp)
 1802800:	dc400115 	stw	r17,4(sp)
 1802804:	dc000015 	stw	r16,0(sp)
 1802808:	202f883a 	mov	r23,r4
 180280c:	282b883a 	mov	r21,r5
 1802810:	10c07416 	blt	r2,r3,18029e4 <quorem+0x210>
 1802814:	1c7fffc4 	addi	r17,r3,-1
 1802818:	8c45883a 	add	r2,r17,r17
 180281c:	1085883a 	add	r2,r2,r2
 1802820:	2c000504 	addi	r16,r5,20
 1802824:	24c00504 	addi	r19,r4,20
 1802828:	14ed883a 	add	r22,r2,r19
 180282c:	80a5883a 	add	r18,r16,r2
 1802830:	b7000017 	ldw	fp,0(r22)
 1802834:	91400017 	ldw	r5,0(r18)
 1802838:	e009883a 	mov	r4,fp
 180283c:	29400044 	addi	r5,r5,1
 1802840:	18096d80 	call	18096d8 <__udivsi3>
 1802844:	1029883a 	mov	r20,r2
 1802848:	10003c1e 	bne	r2,zero,180293c <quorem+0x168>
 180284c:	a80b883a 	mov	r5,r21
 1802850:	b809883a 	mov	r4,r23
 1802854:	1805cdc0 	call	1805cdc <__mcmp>
 1802858:	10002b16 	blt	r2,zero,1802908 <quorem+0x134>
 180285c:	a5000044 	addi	r20,r20,1
 1802860:	980f883a 	mov	r7,r19
 1802864:	0011883a 	mov	r8,zero
 1802868:	0009883a 	mov	r4,zero
 180286c:	81400017 	ldw	r5,0(r16)
 1802870:	38c00017 	ldw	r3,0(r7)
 1802874:	84000104 	addi	r16,r16,4
 1802878:	28bfffcc 	andi	r2,r5,65535
 180287c:	2085883a 	add	r2,r4,r2
 1802880:	11bfffcc 	andi	r6,r2,65535
 1802884:	193fffcc 	andi	r4,r3,65535
 1802888:	1004d43a 	srli	r2,r2,16
 180288c:	280ad43a 	srli	r5,r5,16
 1802890:	2189c83a 	sub	r4,r4,r6
 1802894:	2209883a 	add	r4,r4,r8
 1802898:	1806d43a 	srli	r3,r3,16
 180289c:	288b883a 	add	r5,r5,r2
 18028a0:	200dd43a 	srai	r6,r4,16
 18028a4:	28bfffcc 	andi	r2,r5,65535
 18028a8:	1887c83a 	sub	r3,r3,r2
 18028ac:	1987883a 	add	r3,r3,r6
 18028b0:	3900000d 	sth	r4,0(r7)
 18028b4:	38c0008d 	sth	r3,2(r7)
 18028b8:	2808d43a 	srli	r4,r5,16
 18028bc:	39c00104 	addi	r7,r7,4
 18028c0:	1811d43a 	srai	r8,r3,16
 18028c4:	943fe92e 	bgeu	r18,r16,180286c <quorem+0x98>
 18028c8:	8c45883a 	add	r2,r17,r17
 18028cc:	1085883a 	add	r2,r2,r2
 18028d0:	9885883a 	add	r2,r19,r2
 18028d4:	10c00017 	ldw	r3,0(r2)
 18028d8:	18000b1e 	bne	r3,zero,1802908 <quorem+0x134>
 18028dc:	113fff04 	addi	r4,r2,-4
 18028e0:	9900082e 	bgeu	r19,r4,1802904 <quorem+0x130>
 18028e4:	10bfff17 	ldw	r2,-4(r2)
 18028e8:	10000326 	beq	r2,zero,18028f8 <quorem+0x124>
 18028ec:	00000506 	br	1802904 <quorem+0x130>
 18028f0:	20800017 	ldw	r2,0(r4)
 18028f4:	1000031e 	bne	r2,zero,1802904 <quorem+0x130>
 18028f8:	213fff04 	addi	r4,r4,-4
 18028fc:	8c7fffc4 	addi	r17,r17,-1
 1802900:	993ffb36 	bltu	r19,r4,18028f0 <quorem+0x11c>
 1802904:	bc400415 	stw	r17,16(r23)
 1802908:	a005883a 	mov	r2,r20
 180290c:	dfc00917 	ldw	ra,36(sp)
 1802910:	df000817 	ldw	fp,32(sp)
 1802914:	ddc00717 	ldw	r23,28(sp)
 1802918:	dd800617 	ldw	r22,24(sp)
 180291c:	dd400517 	ldw	r21,20(sp)
 1802920:	dd000417 	ldw	r20,16(sp)
 1802924:	dcc00317 	ldw	r19,12(sp)
 1802928:	dc800217 	ldw	r18,8(sp)
 180292c:	dc400117 	ldw	r17,4(sp)
 1802930:	dc000017 	ldw	r16,0(sp)
 1802934:	dec00a04 	addi	sp,sp,40
 1802938:	f800283a 	ret
 180293c:	980f883a 	mov	r7,r19
 1802940:	8011883a 	mov	r8,r16
 1802944:	0013883a 	mov	r9,zero
 1802948:	000d883a 	mov	r6,zero
 180294c:	40c00017 	ldw	r3,0(r8)
 1802950:	39000017 	ldw	r4,0(r7)
 1802954:	42000104 	addi	r8,r8,4
 1802958:	18bfffcc 	andi	r2,r3,65535
 180295c:	a085383a 	mul	r2,r20,r2
 1802960:	1806d43a 	srli	r3,r3,16
 1802964:	217fffcc 	andi	r5,r4,65535
 1802968:	3085883a 	add	r2,r6,r2
 180296c:	11bfffcc 	andi	r6,r2,65535
 1802970:	a0c7383a 	mul	r3,r20,r3
 1802974:	1004d43a 	srli	r2,r2,16
 1802978:	298bc83a 	sub	r5,r5,r6
 180297c:	2a4b883a 	add	r5,r5,r9
 1802980:	2008d43a 	srli	r4,r4,16
 1802984:	1887883a 	add	r3,r3,r2
 1802988:	280dd43a 	srai	r6,r5,16
 180298c:	18bfffcc 	andi	r2,r3,65535
 1802990:	2089c83a 	sub	r4,r4,r2
 1802994:	2189883a 	add	r4,r4,r6
 1802998:	3900008d 	sth	r4,2(r7)
 180299c:	3940000d 	sth	r5,0(r7)
 18029a0:	180cd43a 	srli	r6,r3,16
 18029a4:	39c00104 	addi	r7,r7,4
 18029a8:	2013d43a 	srai	r9,r4,16
 18029ac:	923fe72e 	bgeu	r18,r8,180294c <quorem+0x178>
 18029b0:	e03fa61e 	bne	fp,zero,180284c <quorem+0x78>
 18029b4:	b0ffff04 	addi	r3,r22,-4
 18029b8:	98c0082e 	bgeu	r19,r3,18029dc <quorem+0x208>
 18029bc:	b0bfff17 	ldw	r2,-4(r22)
 18029c0:	10000326 	beq	r2,zero,18029d0 <quorem+0x1fc>
 18029c4:	00000506 	br	18029dc <quorem+0x208>
 18029c8:	18800017 	ldw	r2,0(r3)
 18029cc:	1000031e 	bne	r2,zero,18029dc <quorem+0x208>
 18029d0:	18ffff04 	addi	r3,r3,-4
 18029d4:	8c7fffc4 	addi	r17,r17,-1
 18029d8:	98fffb36 	bltu	r19,r3,18029c8 <quorem+0x1f4>
 18029dc:	bc400415 	stw	r17,16(r23)
 18029e0:	003f9a06 	br	180284c <quorem+0x78>
 18029e4:	0005883a 	mov	r2,zero
 18029e8:	003fc806 	br	180290c <quorem+0x138>

018029ec <_dtoa_r>:
 18029ec:	22001017 	ldw	r8,64(r4)
 18029f0:	deffda04 	addi	sp,sp,-152
 18029f4:	dd402115 	stw	r21,132(sp)
 18029f8:	dd002015 	stw	r20,128(sp)
 18029fc:	dc801e15 	stw	r18,120(sp)
 1802a00:	dc401d15 	stw	r17,116(sp)
 1802a04:	dfc02515 	stw	ra,148(sp)
 1802a08:	df002415 	stw	fp,144(sp)
 1802a0c:	ddc02315 	stw	r23,140(sp)
 1802a10:	dd802215 	stw	r22,136(sp)
 1802a14:	dcc01f15 	stw	r19,124(sp)
 1802a18:	dc001c15 	stw	r16,112(sp)
 1802a1c:	d9001615 	stw	r4,88(sp)
 1802a20:	3023883a 	mov	r17,r6
 1802a24:	2829883a 	mov	r20,r5
 1802a28:	d9c01715 	stw	r7,92(sp)
 1802a2c:	dc802817 	ldw	r18,160(sp)
 1802a30:	302b883a 	mov	r21,r6
 1802a34:	40000a26 	beq	r8,zero,1802a60 <_dtoa_r+0x74>
 1802a38:	20801117 	ldw	r2,68(r4)
 1802a3c:	400b883a 	mov	r5,r8
 1802a40:	40800115 	stw	r2,4(r8)
 1802a44:	20c01117 	ldw	r3,68(r4)
 1802a48:	00800044 	movi	r2,1
 1802a4c:	10c4983a 	sll	r2,r2,r3
 1802a50:	40800215 	stw	r2,8(r8)
 1802a54:	1805b800 	call	1805b80 <_Bfree>
 1802a58:	d8c01617 	ldw	r3,88(sp)
 1802a5c:	18001015 	stw	zero,64(r3)
 1802a60:	8800a316 	blt	r17,zero,1802cf0 <_dtoa_r+0x304>
 1802a64:	90000015 	stw	zero,0(r18)
 1802a68:	a8dffc2c 	andhi	r3,r21,32752
 1802a6c:	009ffc34 	movhi	r2,32752
 1802a70:	18809126 	beq	r3,r2,1802cb8 <_dtoa_r+0x2cc>
 1802a74:	000d883a 	mov	r6,zero
 1802a78:	000f883a 	mov	r7,zero
 1802a7c:	a009883a 	mov	r4,r20
 1802a80:	a80b883a 	mov	r5,r21
 1802a84:	dd001215 	stw	r20,72(sp)
 1802a88:	dd401315 	stw	r21,76(sp)
 1802a8c:	18090180 	call	1809018 <__nedf2>
 1802a90:	1000171e 	bne	r2,zero,1802af0 <_dtoa_r+0x104>
 1802a94:	d9802717 	ldw	r6,156(sp)
 1802a98:	00800044 	movi	r2,1
 1802a9c:	30800015 	stw	r2,0(r6)
 1802aa0:	d8802917 	ldw	r2,164(sp)
 1802aa4:	10029b26 	beq	r2,zero,1803514 <_dtoa_r+0xb28>
 1802aa8:	d9002917 	ldw	r4,164(sp)
 1802aac:	00806074 	movhi	r2,385
 1802ab0:	10824c44 	addi	r2,r2,2353
 1802ab4:	10ffffc4 	addi	r3,r2,-1
 1802ab8:	20800015 	stw	r2,0(r4)
 1802abc:	1805883a 	mov	r2,r3
 1802ac0:	dfc02517 	ldw	ra,148(sp)
 1802ac4:	df002417 	ldw	fp,144(sp)
 1802ac8:	ddc02317 	ldw	r23,140(sp)
 1802acc:	dd802217 	ldw	r22,136(sp)
 1802ad0:	dd402117 	ldw	r21,132(sp)
 1802ad4:	dd002017 	ldw	r20,128(sp)
 1802ad8:	dcc01f17 	ldw	r19,124(sp)
 1802adc:	dc801e17 	ldw	r18,120(sp)
 1802ae0:	dc401d17 	ldw	r17,116(sp)
 1802ae4:	dc001c17 	ldw	r16,112(sp)
 1802ae8:	dec02604 	addi	sp,sp,152
 1802aec:	f800283a 	ret
 1802af0:	d9001617 	ldw	r4,88(sp)
 1802af4:	d9401217 	ldw	r5,72(sp)
 1802af8:	d8800104 	addi	r2,sp,4
 1802afc:	a80d883a 	mov	r6,r21
 1802b00:	d9c00204 	addi	r7,sp,8
 1802b04:	d8800015 	stw	r2,0(sp)
 1802b08:	18061bc0 	call	18061bc <__d2b>
 1802b0c:	d8800715 	stw	r2,28(sp)
 1802b10:	a804d53a 	srli	r2,r21,20
 1802b14:	1101ffcc 	andi	r4,r2,2047
 1802b18:	20008626 	beq	r4,zero,1802d34 <_dtoa_r+0x348>
 1802b1c:	d8c01217 	ldw	r3,72(sp)
 1802b20:	00800434 	movhi	r2,16
 1802b24:	10bfffc4 	addi	r2,r2,-1
 1802b28:	ddc00117 	ldw	r23,4(sp)
 1802b2c:	a884703a 	and	r2,r21,r2
 1802b30:	1811883a 	mov	r8,r3
 1802b34:	124ffc34 	orhi	r9,r2,16368
 1802b38:	25bf0044 	addi	r22,r4,-1023
 1802b3c:	d8000815 	stw	zero,32(sp)
 1802b40:	0005883a 	mov	r2,zero
 1802b44:	00cffe34 	movhi	r3,16376
 1802b48:	480b883a 	mov	r5,r9
 1802b4c:	4009883a 	mov	r4,r8
 1802b50:	180f883a 	mov	r7,r3
 1802b54:	100d883a 	mov	r6,r2
 1802b58:	18088800 	call	1808880 <__subdf3>
 1802b5c:	0218dbf4 	movhi	r8,25455
 1802b60:	4210d844 	addi	r8,r8,17249
 1802b64:	024ff4f4 	movhi	r9,16339
 1802b68:	4a61e9c4 	addi	r9,r9,-30809
 1802b6c:	480f883a 	mov	r7,r9
 1802b70:	400d883a 	mov	r6,r8
 1802b74:	180b883a 	mov	r5,r3
 1802b78:	1009883a 	mov	r4,r2
 1802b7c:	18089740 	call	1808974 <__muldf3>
 1802b80:	0222d874 	movhi	r8,35681
 1802b84:	42322cc4 	addi	r8,r8,-14157
 1802b88:	024ff1f4 	movhi	r9,16327
 1802b8c:	4a628a04 	addi	r9,r9,-30168
 1802b90:	480f883a 	mov	r7,r9
 1802b94:	400d883a 	mov	r6,r8
 1802b98:	180b883a 	mov	r5,r3
 1802b9c:	1009883a 	mov	r4,r2
 1802ba0:	18089000 	call	1808900 <__adddf3>
 1802ba4:	b009883a 	mov	r4,r22
 1802ba8:	1021883a 	mov	r16,r2
 1802bac:	1823883a 	mov	r17,r3
 1802bb0:	18092380 	call	1809238 <__floatsidf>
 1802bb4:	021427f4 	movhi	r8,20639
 1802bb8:	421e7ec4 	addi	r8,r8,31227
 1802bbc:	024ff4f4 	movhi	r9,16339
 1802bc0:	4a5104c4 	addi	r9,r9,17427
 1802bc4:	480f883a 	mov	r7,r9
 1802bc8:	400d883a 	mov	r6,r8
 1802bcc:	180b883a 	mov	r5,r3
 1802bd0:	1009883a 	mov	r4,r2
 1802bd4:	18089740 	call	1808974 <__muldf3>
 1802bd8:	180f883a 	mov	r7,r3
 1802bdc:	880b883a 	mov	r5,r17
 1802be0:	100d883a 	mov	r6,r2
 1802be4:	8009883a 	mov	r4,r16
 1802be8:	18089000 	call	1808900 <__adddf3>
 1802bec:	1009883a 	mov	r4,r2
 1802bf0:	180b883a 	mov	r5,r3
 1802bf4:	1021883a 	mov	r16,r2
 1802bf8:	1823883a 	mov	r17,r3
 1802bfc:	18093300 	call	1809330 <__fixdfsi>
 1802c00:	000d883a 	mov	r6,zero
 1802c04:	000f883a 	mov	r7,zero
 1802c08:	8009883a 	mov	r4,r16
 1802c0c:	880b883a 	mov	r5,r17
 1802c10:	d8800d15 	stw	r2,52(sp)
 1802c14:	18091b00 	call	18091b0 <__ltdf2>
 1802c18:	10031716 	blt	r2,zero,1803878 <_dtoa_r+0xe8c>
 1802c1c:	d8c00d17 	ldw	r3,52(sp)
 1802c20:	00800584 	movi	r2,22
 1802c24:	10c1482e 	bgeu	r2,r3,1803148 <_dtoa_r+0x75c>
 1802c28:	01000044 	movi	r4,1
 1802c2c:	d9000c15 	stw	r4,48(sp)
 1802c30:	bd85c83a 	sub	r2,r23,r22
 1802c34:	11bfffc4 	addi	r6,r2,-1
 1802c38:	30030b16 	blt	r6,zero,1803868 <_dtoa_r+0xe7c>
 1802c3c:	d9800a15 	stw	r6,40(sp)
 1802c40:	d8001115 	stw	zero,68(sp)
 1802c44:	d8c00d17 	ldw	r3,52(sp)
 1802c48:	1802ff16 	blt	r3,zero,1803848 <_dtoa_r+0xe5c>
 1802c4c:	d9000a17 	ldw	r4,40(sp)
 1802c50:	d8c00915 	stw	r3,36(sp)
 1802c54:	d8001015 	stw	zero,64(sp)
 1802c58:	20c9883a 	add	r4,r4,r3
 1802c5c:	d9000a15 	stw	r4,40(sp)
 1802c60:	d9001717 	ldw	r4,92(sp)
 1802c64:	00800244 	movi	r2,9
 1802c68:	11004636 	bltu	r2,r4,1802d84 <_dtoa_r+0x398>
 1802c6c:	00800144 	movi	r2,5
 1802c70:	11020416 	blt	r2,r4,1803484 <_dtoa_r+0xa98>
 1802c74:	04400044 	movi	r17,1
 1802c78:	d8c01717 	ldw	r3,92(sp)
 1802c7c:	00800144 	movi	r2,5
 1802c80:	10c1ed36 	bltu	r2,r3,1803438 <_dtoa_r+0xa4c>
 1802c84:	18c5883a 	add	r2,r3,r3
 1802c88:	1085883a 	add	r2,r2,r2
 1802c8c:	00c06034 	movhi	r3,384
 1802c90:	18cb2804 	addi	r3,r3,11424
 1802c94:	10c5883a 	add	r2,r2,r3
 1802c98:	11000017 	ldw	r4,0(r2)
 1802c9c:	2000683a 	jmp	r4
 1802ca0:	01802d8c 	andi	r6,zero,182
 1802ca4:	01802d8c 	andi	r6,zero,182
 1802ca8:	0180378c 	andi	r6,zero,222
 1802cac:	01803764 	muli	r6,zero,221
 1802cb0:	018037a8 	cmpgeui	r6,zero,222
 1802cb4:	018037b4 	movhi	r6,222
 1802cb8:	d9002717 	ldw	r4,156(sp)
 1802cbc:	0089c3c4 	movi	r2,9999
 1802cc0:	20800015 	stw	r2,0(r4)
 1802cc4:	a0001026 	beq	r20,zero,1802d08 <_dtoa_r+0x31c>
 1802cc8:	00c06074 	movhi	r3,385
 1802ccc:	18c25804 	addi	r3,r3,2400
 1802cd0:	d9802917 	ldw	r6,164(sp)
 1802cd4:	303f7926 	beq	r6,zero,1802abc <_dtoa_r+0xd0>
 1802cd8:	188000c7 	ldb	r2,3(r3)
 1802cdc:	190000c4 	addi	r4,r3,3
 1802ce0:	1000101e 	bne	r2,zero,1802d24 <_dtoa_r+0x338>
 1802ce4:	d8802917 	ldw	r2,164(sp)
 1802ce8:	11000015 	stw	r4,0(r2)
 1802cec:	003f7306 	br	1802abc <_dtoa_r+0xd0>
 1802cf0:	00a00034 	movhi	r2,32768
 1802cf4:	10bfffc4 	addi	r2,r2,-1
 1802cf8:	00c00044 	movi	r3,1
 1802cfc:	88aa703a 	and	r21,r17,r2
 1802d00:	90c00015 	stw	r3,0(r18)
 1802d04:	003f5806 	br	1802a68 <_dtoa_r+0x7c>
 1802d08:	00800434 	movhi	r2,16
 1802d0c:	10bfffc4 	addi	r2,r2,-1
 1802d10:	a884703a 	and	r2,r21,r2
 1802d14:	103fec1e 	bne	r2,zero,1802cc8 <_dtoa_r+0x2dc>
 1802d18:	00c06074 	movhi	r3,385
 1802d1c:	18c25504 	addi	r3,r3,2388
 1802d20:	003feb06 	br	1802cd0 <_dtoa_r+0x2e4>
 1802d24:	d8802917 	ldw	r2,164(sp)
 1802d28:	19000204 	addi	r4,r3,8
 1802d2c:	11000015 	stw	r4,0(r2)
 1802d30:	003f6206 	br	1802abc <_dtoa_r+0xd0>
 1802d34:	ddc00117 	ldw	r23,4(sp)
 1802d38:	d8800217 	ldw	r2,8(sp)
 1802d3c:	01000804 	movi	r4,32
 1802d40:	b8c10c84 	addi	r3,r23,1074
 1802d44:	18a3883a 	add	r17,r3,r2
 1802d48:	2441b80e 	bge	r4,r17,180342c <_dtoa_r+0xa40>
 1802d4c:	00c01004 	movi	r3,64
 1802d50:	1c47c83a 	sub	r3,r3,r17
 1802d54:	88bff804 	addi	r2,r17,-32
 1802d58:	a8c6983a 	sll	r3,r21,r3
 1802d5c:	a084d83a 	srl	r2,r20,r2
 1802d60:	1888b03a 	or	r4,r3,r2
 1802d64:	18094080 	call	1809408 <__floatunsidf>
 1802d68:	1011883a 	mov	r8,r2
 1802d6c:	00bf8434 	movhi	r2,65040
 1802d70:	01000044 	movi	r4,1
 1802d74:	10d3883a 	add	r9,r2,r3
 1802d78:	8dbef344 	addi	r22,r17,-1075
 1802d7c:	d9000815 	stw	r4,32(sp)
 1802d80:	003f6f06 	br	1802b40 <_dtoa_r+0x154>
 1802d84:	d8001715 	stw	zero,92(sp)
 1802d88:	04400044 	movi	r17,1
 1802d8c:	00bfffc4 	movi	r2,-1
 1802d90:	00c00044 	movi	r3,1
 1802d94:	d8800e15 	stw	r2,56(sp)
 1802d98:	d8002615 	stw	zero,152(sp)
 1802d9c:	d8800f15 	stw	r2,60(sp)
 1802da0:	d8c00b15 	stw	r3,44(sp)
 1802da4:	1021883a 	mov	r16,r2
 1802da8:	d8801617 	ldw	r2,88(sp)
 1802dac:	10001115 	stw	zero,68(r2)
 1802db0:	d8801617 	ldw	r2,88(sp)
 1802db4:	11401117 	ldw	r5,68(r2)
 1802db8:	1009883a 	mov	r4,r2
 1802dbc:	18061000 	call	1806100 <_Balloc>
 1802dc0:	d8c01617 	ldw	r3,88(sp)
 1802dc4:	d8800515 	stw	r2,20(sp)
 1802dc8:	18801015 	stw	r2,64(r3)
 1802dcc:	00800384 	movi	r2,14
 1802dd0:	14006836 	bltu	r2,r16,1802f74 <_dtoa_r+0x588>
 1802dd4:	8805003a 	cmpeq	r2,r17,zero
 1802dd8:	1000661e 	bne	r2,zero,1802f74 <_dtoa_r+0x588>
 1802ddc:	d9000d17 	ldw	r4,52(sp)
 1802de0:	0102300e 	bge	zero,r4,18036a4 <_dtoa_r+0xcb8>
 1802de4:	208003cc 	andi	r2,r4,15
 1802de8:	100490fa 	slli	r2,r2,3
 1802dec:	2025d13a 	srai	r18,r4,4
 1802df0:	00c06074 	movhi	r3,385
 1802df4:	18c26a04 	addi	r3,r3,2472
 1802df8:	10c5883a 	add	r2,r2,r3
 1802dfc:	90c0040c 	andi	r3,r18,16
 1802e00:	14000017 	ldw	r16,0(r2)
 1802e04:	14400117 	ldw	r17,4(r2)
 1802e08:	18036a1e 	bne	r3,zero,1803bb4 <_dtoa_r+0x11c8>
 1802e0c:	05800084 	movi	r22,2
 1802e10:	90001026 	beq	r18,zero,1802e54 <_dtoa_r+0x468>
 1802e14:	04c06074 	movhi	r19,385
 1802e18:	9cc29c04 	addi	r19,r19,2672
 1802e1c:	9080004c 	andi	r2,r18,1
 1802e20:	1005003a 	cmpeq	r2,r2,zero
 1802e24:	1000081e 	bne	r2,zero,1802e48 <_dtoa_r+0x45c>
 1802e28:	99800017 	ldw	r6,0(r19)
 1802e2c:	99c00117 	ldw	r7,4(r19)
 1802e30:	880b883a 	mov	r5,r17
 1802e34:	8009883a 	mov	r4,r16
 1802e38:	18089740 	call	1808974 <__muldf3>
 1802e3c:	1021883a 	mov	r16,r2
 1802e40:	b5800044 	addi	r22,r22,1
 1802e44:	1823883a 	mov	r17,r3
 1802e48:	9025d07a 	srai	r18,r18,1
 1802e4c:	9cc00204 	addi	r19,r19,8
 1802e50:	903ff21e 	bne	r18,zero,1802e1c <_dtoa_r+0x430>
 1802e54:	a80b883a 	mov	r5,r21
 1802e58:	a009883a 	mov	r4,r20
 1802e5c:	880f883a 	mov	r7,r17
 1802e60:	800d883a 	mov	r6,r16
 1802e64:	1808d380 	call	1808d38 <__divdf3>
 1802e68:	1029883a 	mov	r20,r2
 1802e6c:	182b883a 	mov	r21,r3
 1802e70:	d8c00c17 	ldw	r3,48(sp)
 1802e74:	1805003a 	cmpeq	r2,r3,zero
 1802e78:	1000081e 	bne	r2,zero,1802e9c <_dtoa_r+0x4b0>
 1802e7c:	0005883a 	mov	r2,zero
 1802e80:	00cffc34 	movhi	r3,16368
 1802e84:	180f883a 	mov	r7,r3
 1802e88:	a009883a 	mov	r4,r20
 1802e8c:	a80b883a 	mov	r5,r21
 1802e90:	100d883a 	mov	r6,r2
 1802e94:	18091b00 	call	18091b0 <__ltdf2>
 1802e98:	1003fe16 	blt	r2,zero,1803e94 <_dtoa_r+0x14a8>
 1802e9c:	b009883a 	mov	r4,r22
 1802ea0:	18092380 	call	1809238 <__floatsidf>
 1802ea4:	180b883a 	mov	r5,r3
 1802ea8:	1009883a 	mov	r4,r2
 1802eac:	a00d883a 	mov	r6,r20
 1802eb0:	a80f883a 	mov	r7,r21
 1802eb4:	18089740 	call	1808974 <__muldf3>
 1802eb8:	0011883a 	mov	r8,zero
 1802ebc:	02500734 	movhi	r9,16412
 1802ec0:	1009883a 	mov	r4,r2
 1802ec4:	180b883a 	mov	r5,r3
 1802ec8:	480f883a 	mov	r7,r9
 1802ecc:	400d883a 	mov	r6,r8
 1802ed0:	18089000 	call	1808900 <__adddf3>
 1802ed4:	d9000f17 	ldw	r4,60(sp)
 1802ed8:	102d883a 	mov	r22,r2
 1802edc:	00bf3034 	movhi	r2,64704
 1802ee0:	18b9883a 	add	fp,r3,r2
 1802ee4:	e02f883a 	mov	r23,fp
 1802ee8:	20028f1e 	bne	r4,zero,1803928 <_dtoa_r+0xf3c>
 1802eec:	0005883a 	mov	r2,zero
 1802ef0:	00d00534 	movhi	r3,16404
 1802ef4:	a009883a 	mov	r4,r20
 1802ef8:	a80b883a 	mov	r5,r21
 1802efc:	180f883a 	mov	r7,r3
 1802f00:	100d883a 	mov	r6,r2
 1802f04:	18088800 	call	1808880 <__subdf3>
 1802f08:	1009883a 	mov	r4,r2
 1802f0c:	e00f883a 	mov	r7,fp
 1802f10:	180b883a 	mov	r5,r3
 1802f14:	b00d883a 	mov	r6,r22
 1802f18:	1025883a 	mov	r18,r2
 1802f1c:	1827883a 	mov	r19,r3
 1802f20:	18090a00 	call	18090a0 <__gtdf2>
 1802f24:	00834f16 	blt	zero,r2,1803c64 <_dtoa_r+0x1278>
 1802f28:	e0e0003c 	xorhi	r3,fp,32768
 1802f2c:	9009883a 	mov	r4,r18
 1802f30:	980b883a 	mov	r5,r19
 1802f34:	180f883a 	mov	r7,r3
 1802f38:	b00d883a 	mov	r6,r22
 1802f3c:	18091b00 	call	18091b0 <__ltdf2>
 1802f40:	1000080e 	bge	r2,zero,1802f64 <_dtoa_r+0x578>
 1802f44:	0027883a 	mov	r19,zero
 1802f48:	0025883a 	mov	r18,zero
 1802f4c:	d8802617 	ldw	r2,152(sp)
 1802f50:	df000517 	ldw	fp,20(sp)
 1802f54:	d8000615 	stw	zero,24(sp)
 1802f58:	0084303a 	nor	r2,zero,r2
 1802f5c:	d8800d15 	stw	r2,52(sp)
 1802f60:	00019b06 	br	18035d0 <_dtoa_r+0xbe4>
 1802f64:	d9801217 	ldw	r6,72(sp)
 1802f68:	d8801317 	ldw	r2,76(sp)
 1802f6c:	3029883a 	mov	r20,r6
 1802f70:	102b883a 	mov	r21,r2
 1802f74:	d8c00217 	ldw	r3,8(sp)
 1802f78:	18008516 	blt	r3,zero,1803190 <_dtoa_r+0x7a4>
 1802f7c:	d9000d17 	ldw	r4,52(sp)
 1802f80:	00800384 	movi	r2,14
 1802f84:	11008216 	blt	r2,r4,1803190 <_dtoa_r+0x7a4>
 1802f88:	200490fa 	slli	r2,r4,3
 1802f8c:	d9802617 	ldw	r6,152(sp)
 1802f90:	00c06074 	movhi	r3,385
 1802f94:	18c26a04 	addi	r3,r3,2472
 1802f98:	10c5883a 	add	r2,r2,r3
 1802f9c:	14800017 	ldw	r18,0(r2)
 1802fa0:	14c00117 	ldw	r19,4(r2)
 1802fa4:	30031e16 	blt	r6,zero,1803c20 <_dtoa_r+0x1234>
 1802fa8:	d9000517 	ldw	r4,20(sp)
 1802fac:	d8c00f17 	ldw	r3,60(sp)
 1802fb0:	a823883a 	mov	r17,r21
 1802fb4:	a021883a 	mov	r16,r20
 1802fb8:	192b883a 	add	r21,r3,r4
 1802fbc:	2039883a 	mov	fp,r4
 1802fc0:	00000f06 	br	1803000 <_dtoa_r+0x614>
 1802fc4:	0005883a 	mov	r2,zero
 1802fc8:	00d00934 	movhi	r3,16420
 1802fcc:	5009883a 	mov	r4,r10
 1802fd0:	580b883a 	mov	r5,r11
 1802fd4:	180f883a 	mov	r7,r3
 1802fd8:	100d883a 	mov	r6,r2
 1802fdc:	18089740 	call	1808974 <__muldf3>
 1802fe0:	180b883a 	mov	r5,r3
 1802fe4:	000d883a 	mov	r6,zero
 1802fe8:	000f883a 	mov	r7,zero
 1802fec:	1009883a 	mov	r4,r2
 1802ff0:	1021883a 	mov	r16,r2
 1802ff4:	1823883a 	mov	r17,r3
 1802ff8:	18090180 	call	1809018 <__nedf2>
 1802ffc:	10004526 	beq	r2,zero,1803114 <_dtoa_r+0x728>
 1803000:	900d883a 	mov	r6,r18
 1803004:	980f883a 	mov	r7,r19
 1803008:	8009883a 	mov	r4,r16
 180300c:	880b883a 	mov	r5,r17
 1803010:	1808d380 	call	1808d38 <__divdf3>
 1803014:	180b883a 	mov	r5,r3
 1803018:	1009883a 	mov	r4,r2
 180301c:	18093300 	call	1809330 <__fixdfsi>
 1803020:	1009883a 	mov	r4,r2
 1803024:	1029883a 	mov	r20,r2
 1803028:	18092380 	call	1809238 <__floatsidf>
 180302c:	180f883a 	mov	r7,r3
 1803030:	9009883a 	mov	r4,r18
 1803034:	980b883a 	mov	r5,r19
 1803038:	100d883a 	mov	r6,r2
 180303c:	18089740 	call	1808974 <__muldf3>
 1803040:	180f883a 	mov	r7,r3
 1803044:	880b883a 	mov	r5,r17
 1803048:	8009883a 	mov	r4,r16
 180304c:	100d883a 	mov	r6,r2
 1803050:	18088800 	call	1808880 <__subdf3>
 1803054:	1015883a 	mov	r10,r2
 1803058:	a0800c04 	addi	r2,r20,48
 180305c:	e0800005 	stb	r2,0(fp)
 1803060:	e7000044 	addi	fp,fp,1
 1803064:	1817883a 	mov	r11,r3
 1803068:	e57fd61e 	bne	fp,r21,1802fc4 <_dtoa_r+0x5d8>
 180306c:	500d883a 	mov	r6,r10
 1803070:	180f883a 	mov	r7,r3
 1803074:	5009883a 	mov	r4,r10
 1803078:	180b883a 	mov	r5,r3
 180307c:	18089000 	call	1808900 <__adddf3>
 1803080:	100d883a 	mov	r6,r2
 1803084:	9009883a 	mov	r4,r18
 1803088:	980b883a 	mov	r5,r19
 180308c:	180f883a 	mov	r7,r3
 1803090:	1021883a 	mov	r16,r2
 1803094:	1823883a 	mov	r17,r3
 1803098:	18091b00 	call	18091b0 <__ltdf2>
 180309c:	10000816 	blt	r2,zero,18030c0 <_dtoa_r+0x6d4>
 18030a0:	980b883a 	mov	r5,r19
 18030a4:	800d883a 	mov	r6,r16
 18030a8:	880f883a 	mov	r7,r17
 18030ac:	9009883a 	mov	r4,r18
 18030b0:	1808f900 	call	1808f90 <__eqdf2>
 18030b4:	1000171e 	bne	r2,zero,1803114 <_dtoa_r+0x728>
 18030b8:	a080004c 	andi	r2,r20,1
 18030bc:	10001526 	beq	r2,zero,1803114 <_dtoa_r+0x728>
 18030c0:	d8800d17 	ldw	r2,52(sp)
 18030c4:	d8800415 	stw	r2,16(sp)
 18030c8:	e009883a 	mov	r4,fp
 18030cc:	213fffc4 	addi	r4,r4,-1
 18030d0:	20c00007 	ldb	r3,0(r4)
 18030d4:	00800e44 	movi	r2,57
 18030d8:	1880081e 	bne	r3,r2,18030fc <_dtoa_r+0x710>
 18030dc:	d8800517 	ldw	r2,20(sp)
 18030e0:	113ffa1e 	bne	r2,r4,18030cc <_dtoa_r+0x6e0>
 18030e4:	d8c00417 	ldw	r3,16(sp)
 18030e8:	d9800517 	ldw	r6,20(sp)
 18030ec:	00800c04 	movi	r2,48
 18030f0:	18c00044 	addi	r3,r3,1
 18030f4:	d8c00415 	stw	r3,16(sp)
 18030f8:	30800005 	stb	r2,0(r6)
 18030fc:	20800003 	ldbu	r2,0(r4)
 1803100:	d8c00417 	ldw	r3,16(sp)
 1803104:	27000044 	addi	fp,r4,1
 1803108:	10800044 	addi	r2,r2,1
 180310c:	d8c00d15 	stw	r3,52(sp)
 1803110:	20800005 	stb	r2,0(r4)
 1803114:	d9001617 	ldw	r4,88(sp)
 1803118:	d9400717 	ldw	r5,28(sp)
 180311c:	1805b800 	call	1805b80 <_Bfree>
 1803120:	e0000005 	stb	zero,0(fp)
 1803124:	d9800d17 	ldw	r6,52(sp)
 1803128:	d8c02717 	ldw	r3,156(sp)
 180312c:	d9002917 	ldw	r4,164(sp)
 1803130:	30800044 	addi	r2,r6,1
 1803134:	18800015 	stw	r2,0(r3)
 1803138:	20029c26 	beq	r4,zero,1803bac <_dtoa_r+0x11c0>
 180313c:	d8c00517 	ldw	r3,20(sp)
 1803140:	27000015 	stw	fp,0(r4)
 1803144:	003e5d06 	br	1802abc <_dtoa_r+0xd0>
 1803148:	d9800d17 	ldw	r6,52(sp)
 180314c:	00c06074 	movhi	r3,385
 1803150:	18c26a04 	addi	r3,r3,2472
 1803154:	d9001217 	ldw	r4,72(sp)
 1803158:	300490fa 	slli	r2,r6,3
 180315c:	d9401317 	ldw	r5,76(sp)
 1803160:	10c5883a 	add	r2,r2,r3
 1803164:	12000017 	ldw	r8,0(r2)
 1803168:	12400117 	ldw	r9,4(r2)
 180316c:	400d883a 	mov	r6,r8
 1803170:	480f883a 	mov	r7,r9
 1803174:	18091b00 	call	18091b0 <__ltdf2>
 1803178:	1000030e 	bge	r2,zero,1803188 <_dtoa_r+0x79c>
 180317c:	d8800d17 	ldw	r2,52(sp)
 1803180:	10bfffc4 	addi	r2,r2,-1
 1803184:	d8800d15 	stw	r2,52(sp)
 1803188:	d8000c15 	stw	zero,48(sp)
 180318c:	003ea806 	br	1802c30 <_dtoa_r+0x244>
 1803190:	d9000b17 	ldw	r4,44(sp)
 1803194:	202cc03a 	cmpne	r22,r4,zero
 1803198:	b000c71e 	bne	r22,zero,18034b8 <_dtoa_r+0xacc>
 180319c:	dc001117 	ldw	r16,68(sp)
 18031a0:	dc801017 	ldw	r18,64(sp)
 18031a4:	0027883a 	mov	r19,zero
 18031a8:	04000b0e 	bge	zero,r16,18031d8 <_dtoa_r+0x7ec>
 18031ac:	d8c00a17 	ldw	r3,40(sp)
 18031b0:	00c0090e 	bge	zero,r3,18031d8 <_dtoa_r+0x7ec>
 18031b4:	8005883a 	mov	r2,r16
 18031b8:	1c011316 	blt	r3,r16,1803608 <_dtoa_r+0xc1c>
 18031bc:	d9000a17 	ldw	r4,40(sp)
 18031c0:	d9801117 	ldw	r6,68(sp)
 18031c4:	80a1c83a 	sub	r16,r16,r2
 18031c8:	2089c83a 	sub	r4,r4,r2
 18031cc:	308dc83a 	sub	r6,r6,r2
 18031d0:	d9000a15 	stw	r4,40(sp)
 18031d4:	d9801115 	stw	r6,68(sp)
 18031d8:	d8801017 	ldw	r2,64(sp)
 18031dc:	0080150e 	bge	zero,r2,1803234 <_dtoa_r+0x848>
 18031e0:	d8c00b17 	ldw	r3,44(sp)
 18031e4:	1805003a 	cmpeq	r2,r3,zero
 18031e8:	1001c91e 	bne	r2,zero,1803910 <_dtoa_r+0xf24>
 18031ec:	04800e0e 	bge	zero,r18,1803228 <_dtoa_r+0x83c>
 18031f0:	d9001617 	ldw	r4,88(sp)
 18031f4:	980b883a 	mov	r5,r19
 18031f8:	900d883a 	mov	r6,r18
 18031fc:	18069340 	call	1806934 <__pow5mult>
 1803200:	d9001617 	ldw	r4,88(sp)
 1803204:	d9800717 	ldw	r6,28(sp)
 1803208:	100b883a 	mov	r5,r2
 180320c:	1027883a 	mov	r19,r2
 1803210:	18066100 	call	1806610 <__multiply>
 1803214:	d9001617 	ldw	r4,88(sp)
 1803218:	d9400717 	ldw	r5,28(sp)
 180321c:	1023883a 	mov	r17,r2
 1803220:	1805b800 	call	1805b80 <_Bfree>
 1803224:	dc400715 	stw	r17,28(sp)
 1803228:	d9001017 	ldw	r4,64(sp)
 180322c:	248dc83a 	sub	r6,r4,r18
 1803230:	30010e1e 	bne	r6,zero,180366c <_dtoa_r+0xc80>
 1803234:	d9001617 	ldw	r4,88(sp)
 1803238:	04400044 	movi	r17,1
 180323c:	880b883a 	mov	r5,r17
 1803240:	18067f80 	call	18067f8 <__i2b>
 1803244:	d9800917 	ldw	r6,36(sp)
 1803248:	1025883a 	mov	r18,r2
 180324c:	0180040e 	bge	zero,r6,1803260 <_dtoa_r+0x874>
 1803250:	d9001617 	ldw	r4,88(sp)
 1803254:	100b883a 	mov	r5,r2
 1803258:	18069340 	call	1806934 <__pow5mult>
 180325c:	1025883a 	mov	r18,r2
 1803260:	d8801717 	ldw	r2,92(sp)
 1803264:	8880f30e 	bge	r17,r2,1803634 <_dtoa_r+0xc48>
 1803268:	0023883a 	mov	r17,zero
 180326c:	d9800917 	ldw	r6,36(sp)
 1803270:	30019e1e 	bne	r6,zero,18038ec <_dtoa_r+0xf00>
 1803274:	00c00044 	movi	r3,1
 1803278:	d9000a17 	ldw	r4,40(sp)
 180327c:	20c5883a 	add	r2,r4,r3
 1803280:	10c007cc 	andi	r3,r2,31
 1803284:	1800841e 	bne	r3,zero,1803498 <_dtoa_r+0xaac>
 1803288:	00800704 	movi	r2,28
 180328c:	d9000a17 	ldw	r4,40(sp)
 1803290:	d9801117 	ldw	r6,68(sp)
 1803294:	80a1883a 	add	r16,r16,r2
 1803298:	2089883a 	add	r4,r4,r2
 180329c:	308d883a 	add	r6,r6,r2
 18032a0:	d9000a15 	stw	r4,40(sp)
 18032a4:	d9801115 	stw	r6,68(sp)
 18032a8:	d8801117 	ldw	r2,68(sp)
 18032ac:	0080050e 	bge	zero,r2,18032c4 <_dtoa_r+0x8d8>
 18032b0:	d9400717 	ldw	r5,28(sp)
 18032b4:	d9001617 	ldw	r4,88(sp)
 18032b8:	100d883a 	mov	r6,r2
 18032bc:	18064c40 	call	18064c4 <__lshift>
 18032c0:	d8800715 	stw	r2,28(sp)
 18032c4:	d8c00a17 	ldw	r3,40(sp)
 18032c8:	00c0050e 	bge	zero,r3,18032e0 <_dtoa_r+0x8f4>
 18032cc:	d9001617 	ldw	r4,88(sp)
 18032d0:	900b883a 	mov	r5,r18
 18032d4:	180d883a 	mov	r6,r3
 18032d8:	18064c40 	call	18064c4 <__lshift>
 18032dc:	1025883a 	mov	r18,r2
 18032e0:	d9000c17 	ldw	r4,48(sp)
 18032e4:	2005003a 	cmpeq	r2,r4,zero
 18032e8:	10016f26 	beq	r2,zero,18038a8 <_dtoa_r+0xebc>
 18032ec:	d9000f17 	ldw	r4,60(sp)
 18032f0:	0102170e 	bge	zero,r4,1803b50 <_dtoa_r+0x1164>
 18032f4:	d9800b17 	ldw	r6,44(sp)
 18032f8:	3005003a 	cmpeq	r2,r6,zero
 18032fc:	1000881e 	bne	r2,zero,1803520 <_dtoa_r+0xb34>
 1803300:	0400050e 	bge	zero,r16,1803318 <_dtoa_r+0x92c>
 1803304:	d9001617 	ldw	r4,88(sp)
 1803308:	980b883a 	mov	r5,r19
 180330c:	800d883a 	mov	r6,r16
 1803310:	18064c40 	call	18064c4 <__lshift>
 1803314:	1027883a 	mov	r19,r2
 1803318:	8804c03a 	cmpne	r2,r17,zero
 180331c:	1002541e 	bne	r2,zero,1803c70 <_dtoa_r+0x1284>
 1803320:	980b883a 	mov	r5,r19
 1803324:	dd800517 	ldw	r22,20(sp)
 1803328:	dcc00615 	stw	r19,24(sp)
 180332c:	a700004c 	andi	fp,r20,1
 1803330:	2827883a 	mov	r19,r5
 1803334:	d9000717 	ldw	r4,28(sp)
 1803338:	900b883a 	mov	r5,r18
 180333c:	18027d40 	call	18027d4 <quorem>
 1803340:	d9000717 	ldw	r4,28(sp)
 1803344:	d9400617 	ldw	r5,24(sp)
 1803348:	1023883a 	mov	r17,r2
 180334c:	8dc00c04 	addi	r23,r17,48
 1803350:	1805cdc0 	call	1805cdc <__mcmp>
 1803354:	d9001617 	ldw	r4,88(sp)
 1803358:	900b883a 	mov	r5,r18
 180335c:	980d883a 	mov	r6,r19
 1803360:	1029883a 	mov	r20,r2
 1803364:	18063380 	call	1806338 <__mdiff>
 1803368:	102b883a 	mov	r21,r2
 180336c:	10800317 	ldw	r2,12(r2)
 1803370:	1001281e 	bne	r2,zero,1803814 <_dtoa_r+0xe28>
 1803374:	d9000717 	ldw	r4,28(sp)
 1803378:	a80b883a 	mov	r5,r21
 180337c:	1805cdc0 	call	1805cdc <__mcmp>
 1803380:	d9001617 	ldw	r4,88(sp)
 1803384:	1021883a 	mov	r16,r2
 1803388:	a80b883a 	mov	r5,r21
 180338c:	1805b800 	call	1805b80 <_Bfree>
 1803390:	8000041e 	bne	r16,zero,18033a4 <_dtoa_r+0x9b8>
 1803394:	d8801717 	ldw	r2,92(sp)
 1803398:	1000021e 	bne	r2,zero,18033a4 <_dtoa_r+0x9b8>
 180339c:	e004c03a 	cmpne	r2,fp,zero
 18033a0:	10011726 	beq	r2,zero,1803800 <_dtoa_r+0xe14>
 18033a4:	a0010616 	blt	r20,zero,18037c0 <_dtoa_r+0xdd4>
 18033a8:	a000041e 	bne	r20,zero,18033bc <_dtoa_r+0x9d0>
 18033ac:	d8c01717 	ldw	r3,92(sp)
 18033b0:	1800021e 	bne	r3,zero,18033bc <_dtoa_r+0x9d0>
 18033b4:	e004c03a 	cmpne	r2,fp,zero
 18033b8:	10010126 	beq	r2,zero,18037c0 <_dtoa_r+0xdd4>
 18033bc:	04023d16 	blt	zero,r16,1803cb4 <_dtoa_r+0x12c8>
 18033c0:	b5c00005 	stb	r23,0(r22)
 18033c4:	d9800517 	ldw	r6,20(sp)
 18033c8:	d9000f17 	ldw	r4,60(sp)
 18033cc:	b5800044 	addi	r22,r22,1
 18033d0:	3105883a 	add	r2,r6,r4
 18033d4:	b0806526 	beq	r22,r2,180356c <_dtoa_r+0xb80>
 18033d8:	d9400717 	ldw	r5,28(sp)
 18033dc:	d9001617 	ldw	r4,88(sp)
 18033e0:	01800284 	movi	r6,10
 18033e4:	000f883a 	mov	r7,zero
 18033e8:	18068340 	call	1806834 <__multadd>
 18033ec:	d8800715 	stw	r2,28(sp)
 18033f0:	d8800617 	ldw	r2,24(sp)
 18033f4:	14c10c26 	beq	r2,r19,1803828 <_dtoa_r+0xe3c>
 18033f8:	d9400617 	ldw	r5,24(sp)
 18033fc:	d9001617 	ldw	r4,88(sp)
 1803400:	01800284 	movi	r6,10
 1803404:	000f883a 	mov	r7,zero
 1803408:	18068340 	call	1806834 <__multadd>
 180340c:	d9001617 	ldw	r4,88(sp)
 1803410:	980b883a 	mov	r5,r19
 1803414:	01800284 	movi	r6,10
 1803418:	000f883a 	mov	r7,zero
 180341c:	d8800615 	stw	r2,24(sp)
 1803420:	18068340 	call	1806834 <__multadd>
 1803424:	1027883a 	mov	r19,r2
 1803428:	003fc206 	br	1803334 <_dtoa_r+0x948>
 180342c:	2445c83a 	sub	r2,r4,r17
 1803430:	a088983a 	sll	r4,r20,r2
 1803434:	003e4b06 	br	1802d64 <_dtoa_r+0x378>
 1803438:	01bfffc4 	movi	r6,-1
 180343c:	00800044 	movi	r2,1
 1803440:	d9800e15 	stw	r6,56(sp)
 1803444:	d9800f15 	stw	r6,60(sp)
 1803448:	d8800b15 	stw	r2,44(sp)
 180344c:	d8c01617 	ldw	r3,88(sp)
 1803450:	008005c4 	movi	r2,23
 1803454:	18001115 	stw	zero,68(r3)
 1803458:	1580082e 	bgeu	r2,r22,180347c <_dtoa_r+0xa90>
 180345c:	00c00104 	movi	r3,4
 1803460:	0009883a 	mov	r4,zero
 1803464:	18c7883a 	add	r3,r3,r3
 1803468:	18800504 	addi	r2,r3,20
 180346c:	21000044 	addi	r4,r4,1
 1803470:	b0bffc2e 	bgeu	r22,r2,1803464 <_dtoa_r+0xa78>
 1803474:	d9801617 	ldw	r6,88(sp)
 1803478:	31001115 	stw	r4,68(r6)
 180347c:	dc000f17 	ldw	r16,60(sp)
 1803480:	003e4b06 	br	1802db0 <_dtoa_r+0x3c4>
 1803484:	d9801717 	ldw	r6,92(sp)
 1803488:	0023883a 	mov	r17,zero
 180348c:	31bfff04 	addi	r6,r6,-4
 1803490:	d9801715 	stw	r6,92(sp)
 1803494:	003df806 	br	1802c78 <_dtoa_r+0x28c>
 1803498:	00800804 	movi	r2,32
 180349c:	10c9c83a 	sub	r4,r2,r3
 18034a0:	00c00104 	movi	r3,4
 18034a4:	19005a16 	blt	r3,r4,1803610 <_dtoa_r+0xc24>
 18034a8:	008000c4 	movi	r2,3
 18034ac:	113f7e16 	blt	r2,r4,18032a8 <_dtoa_r+0x8bc>
 18034b0:	20800704 	addi	r2,r4,28
 18034b4:	003f7506 	br	180328c <_dtoa_r+0x8a0>
 18034b8:	d9801717 	ldw	r6,92(sp)
 18034bc:	00800044 	movi	r2,1
 18034c0:	1180a10e 	bge	r2,r6,1803748 <_dtoa_r+0xd5c>
 18034c4:	d9800f17 	ldw	r6,60(sp)
 18034c8:	d8c01017 	ldw	r3,64(sp)
 18034cc:	30bfffc4 	addi	r2,r6,-1
 18034d0:	1881c616 	blt	r3,r2,1803bec <_dtoa_r+0x1200>
 18034d4:	18a5c83a 	sub	r18,r3,r2
 18034d8:	d8800f17 	ldw	r2,60(sp)
 18034dc:	10026216 	blt	r2,zero,1803e68 <_dtoa_r+0x147c>
 18034e0:	dc001117 	ldw	r16,68(sp)
 18034e4:	1007883a 	mov	r3,r2
 18034e8:	d9800a17 	ldw	r6,40(sp)
 18034ec:	d8801117 	ldw	r2,68(sp)
 18034f0:	d9001617 	ldw	r4,88(sp)
 18034f4:	30cd883a 	add	r6,r6,r3
 18034f8:	10c5883a 	add	r2,r2,r3
 18034fc:	01400044 	movi	r5,1
 1803500:	d9800a15 	stw	r6,40(sp)
 1803504:	d8801115 	stw	r2,68(sp)
 1803508:	18067f80 	call	18067f8 <__i2b>
 180350c:	1027883a 	mov	r19,r2
 1803510:	003f2506 	br	18031a8 <_dtoa_r+0x7bc>
 1803514:	00c06074 	movhi	r3,385
 1803518:	18c24c04 	addi	r3,r3,2352
 180351c:	003d6706 	br	1802abc <_dtoa_r+0xd0>
 1803520:	dd800517 	ldw	r22,20(sp)
 1803524:	04000044 	movi	r16,1
 1803528:	00000706 	br	1803548 <_dtoa_r+0xb5c>
 180352c:	d9400717 	ldw	r5,28(sp)
 1803530:	d9001617 	ldw	r4,88(sp)
 1803534:	01800284 	movi	r6,10
 1803538:	000f883a 	mov	r7,zero
 180353c:	18068340 	call	1806834 <__multadd>
 1803540:	d8800715 	stw	r2,28(sp)
 1803544:	84000044 	addi	r16,r16,1
 1803548:	d9000717 	ldw	r4,28(sp)
 180354c:	900b883a 	mov	r5,r18
 1803550:	18027d40 	call	18027d4 <quorem>
 1803554:	15c00c04 	addi	r23,r2,48
 1803558:	b5c00005 	stb	r23,0(r22)
 180355c:	d8c00f17 	ldw	r3,60(sp)
 1803560:	b5800044 	addi	r22,r22,1
 1803564:	80fff116 	blt	r16,r3,180352c <_dtoa_r+0xb40>
 1803568:	d8000615 	stw	zero,24(sp)
 180356c:	d9400717 	ldw	r5,28(sp)
 1803570:	d9001617 	ldw	r4,88(sp)
 1803574:	01800044 	movi	r6,1
 1803578:	18064c40 	call	18064c4 <__lshift>
 180357c:	1009883a 	mov	r4,r2
 1803580:	900b883a 	mov	r5,r18
 1803584:	d8800715 	stw	r2,28(sp)
 1803588:	1805cdc0 	call	1805cdc <__mcmp>
 180358c:	00803c0e 	bge	zero,r2,1803680 <_dtoa_r+0xc94>
 1803590:	b009883a 	mov	r4,r22
 1803594:	213fffc4 	addi	r4,r4,-1
 1803598:	21400003 	ldbu	r5,0(r4)
 180359c:	00800e44 	movi	r2,57
 18035a0:	28c03fcc 	andi	r3,r5,255
 18035a4:	18c0201c 	xori	r3,r3,128
 18035a8:	18ffe004 	addi	r3,r3,-128
 18035ac:	1881981e 	bne	r3,r2,1803c10 <_dtoa_r+0x1224>
 18035b0:	d9800517 	ldw	r6,20(sp)
 18035b4:	21bff71e 	bne	r4,r6,1803594 <_dtoa_r+0xba8>
 18035b8:	d8800d17 	ldw	r2,52(sp)
 18035bc:	37000044 	addi	fp,r6,1
 18035c0:	10800044 	addi	r2,r2,1
 18035c4:	d8800d15 	stw	r2,52(sp)
 18035c8:	00800c44 	movi	r2,49
 18035cc:	30800005 	stb	r2,0(r6)
 18035d0:	d9001617 	ldw	r4,88(sp)
 18035d4:	900b883a 	mov	r5,r18
 18035d8:	1805b800 	call	1805b80 <_Bfree>
 18035dc:	983ecd26 	beq	r19,zero,1803114 <_dtoa_r+0x728>
 18035e0:	d8c00617 	ldw	r3,24(sp)
 18035e4:	18000426 	beq	r3,zero,18035f8 <_dtoa_r+0xc0c>
 18035e8:	1cc00326 	beq	r3,r19,18035f8 <_dtoa_r+0xc0c>
 18035ec:	d9001617 	ldw	r4,88(sp)
 18035f0:	180b883a 	mov	r5,r3
 18035f4:	1805b800 	call	1805b80 <_Bfree>
 18035f8:	d9001617 	ldw	r4,88(sp)
 18035fc:	980b883a 	mov	r5,r19
 1803600:	1805b800 	call	1805b80 <_Bfree>
 1803604:	003ec306 	br	1803114 <_dtoa_r+0x728>
 1803608:	1805883a 	mov	r2,r3
 180360c:	003eeb06 	br	18031bc <_dtoa_r+0x7d0>
 1803610:	d9800a17 	ldw	r6,40(sp)
 1803614:	d8c01117 	ldw	r3,68(sp)
 1803618:	20bfff04 	addi	r2,r4,-4
 180361c:	308d883a 	add	r6,r6,r2
 1803620:	1887883a 	add	r3,r3,r2
 1803624:	80a1883a 	add	r16,r16,r2
 1803628:	d9800a15 	stw	r6,40(sp)
 180362c:	d8c01115 	stw	r3,68(sp)
 1803630:	003f1d06 	br	18032a8 <_dtoa_r+0x8bc>
 1803634:	a03f0c1e 	bne	r20,zero,1803268 <_dtoa_r+0x87c>
 1803638:	00800434 	movhi	r2,16
 180363c:	10bfffc4 	addi	r2,r2,-1
 1803640:	a884703a 	and	r2,r21,r2
 1803644:	103f081e 	bne	r2,zero,1803268 <_dtoa_r+0x87c>
 1803648:	a89ffc2c 	andhi	r2,r21,32752
 180364c:	103f0626 	beq	r2,zero,1803268 <_dtoa_r+0x87c>
 1803650:	d8c01117 	ldw	r3,68(sp)
 1803654:	d9000a17 	ldw	r4,40(sp)
 1803658:	18c00044 	addi	r3,r3,1
 180365c:	21000044 	addi	r4,r4,1
 1803660:	d8c01115 	stw	r3,68(sp)
 1803664:	d9000a15 	stw	r4,40(sp)
 1803668:	003f0006 	br	180326c <_dtoa_r+0x880>
 180366c:	d9400717 	ldw	r5,28(sp)
 1803670:	d9001617 	ldw	r4,88(sp)
 1803674:	18069340 	call	1806934 <__pow5mult>
 1803678:	d8800715 	stw	r2,28(sp)
 180367c:	003eed06 	br	1803234 <_dtoa_r+0x848>
 1803680:	1000021e 	bne	r2,zero,180368c <_dtoa_r+0xca0>
 1803684:	b880004c 	andi	r2,r23,1
 1803688:	103fc11e 	bne	r2,zero,1803590 <_dtoa_r+0xba4>
 180368c:	b5bfffc4 	addi	r22,r22,-1
 1803690:	b0c00007 	ldb	r3,0(r22)
 1803694:	00800c04 	movi	r2,48
 1803698:	18bffc26 	beq	r3,r2,180368c <_dtoa_r+0xca0>
 180369c:	b7000044 	addi	fp,r22,1
 18036a0:	003fcb06 	br	18035d0 <_dtoa_r+0xbe4>
 18036a4:	d9800d17 	ldw	r6,52(sp)
 18036a8:	018fc83a 	sub	r7,zero,r6
 18036ac:	3801f726 	beq	r7,zero,1803e8c <_dtoa_r+0x14a0>
 18036b0:	398003cc 	andi	r6,r7,15
 18036b4:	300c90fa 	slli	r6,r6,3
 18036b8:	01406074 	movhi	r5,385
 18036bc:	29426a04 	addi	r5,r5,2472
 18036c0:	d9001217 	ldw	r4,72(sp)
 18036c4:	314d883a 	add	r6,r6,r5
 18036c8:	30c00117 	ldw	r3,4(r6)
 18036cc:	30800017 	ldw	r2,0(r6)
 18036d0:	d9401317 	ldw	r5,76(sp)
 18036d4:	3821d13a 	srai	r16,r7,4
 18036d8:	100d883a 	mov	r6,r2
 18036dc:	180f883a 	mov	r7,r3
 18036e0:	18089740 	call	1808974 <__muldf3>
 18036e4:	1011883a 	mov	r8,r2
 18036e8:	1813883a 	mov	r9,r3
 18036ec:	1029883a 	mov	r20,r2
 18036f0:	182b883a 	mov	r21,r3
 18036f4:	8001e526 	beq	r16,zero,1803e8c <_dtoa_r+0x14a0>
 18036f8:	05800084 	movi	r22,2
 18036fc:	04406074 	movhi	r17,385
 1803700:	8c429c04 	addi	r17,r17,2672
 1803704:	8080004c 	andi	r2,r16,1
 1803708:	1005003a 	cmpeq	r2,r2,zero
 180370c:	1000081e 	bne	r2,zero,1803730 <_dtoa_r+0xd44>
 1803710:	89800017 	ldw	r6,0(r17)
 1803714:	89c00117 	ldw	r7,4(r17)
 1803718:	480b883a 	mov	r5,r9
 180371c:	4009883a 	mov	r4,r8
 1803720:	18089740 	call	1808974 <__muldf3>
 1803724:	1011883a 	mov	r8,r2
 1803728:	b5800044 	addi	r22,r22,1
 180372c:	1813883a 	mov	r9,r3
 1803730:	8021d07a 	srai	r16,r16,1
 1803734:	8c400204 	addi	r17,r17,8
 1803738:	803ff21e 	bne	r16,zero,1803704 <_dtoa_r+0xd18>
 180373c:	4029883a 	mov	r20,r8
 1803740:	482b883a 	mov	r21,r9
 1803744:	003dca06 	br	1802e70 <_dtoa_r+0x484>
 1803748:	d9000817 	ldw	r4,32(sp)
 180374c:	2005003a 	cmpeq	r2,r4,zero
 1803750:	1001f61e 	bne	r2,zero,1803f2c <_dtoa_r+0x1540>
 1803754:	dc001117 	ldw	r16,68(sp)
 1803758:	dc801017 	ldw	r18,64(sp)
 180375c:	18c10cc4 	addi	r3,r3,1075
 1803760:	003f6106 	br	18034e8 <_dtoa_r+0xafc>
 1803764:	d8000b15 	stw	zero,44(sp)
 1803768:	d9802617 	ldw	r6,152(sp)
 180376c:	d8c00d17 	ldw	r3,52(sp)
 1803770:	30800044 	addi	r2,r6,1
 1803774:	18ad883a 	add	r22,r3,r2
 1803778:	b13fffc4 	addi	r4,r22,-1
 180377c:	d9000e15 	stw	r4,56(sp)
 1803780:	0581f60e 	bge	zero,r22,1803f5c <_dtoa_r+0x1570>
 1803784:	dd800f15 	stw	r22,60(sp)
 1803788:	003f3006 	br	180344c <_dtoa_r+0xa60>
 180378c:	d8000b15 	stw	zero,44(sp)
 1803790:	d9002617 	ldw	r4,152(sp)
 1803794:	0101eb0e 	bge	zero,r4,1803f44 <_dtoa_r+0x1558>
 1803798:	202d883a 	mov	r22,r4
 180379c:	d9000e15 	stw	r4,56(sp)
 18037a0:	d9000f15 	stw	r4,60(sp)
 18037a4:	003f2906 	br	180344c <_dtoa_r+0xa60>
 18037a8:	01800044 	movi	r6,1
 18037ac:	d9800b15 	stw	r6,44(sp)
 18037b0:	003ff706 	br	1803790 <_dtoa_r+0xda4>
 18037b4:	01000044 	movi	r4,1
 18037b8:	d9000b15 	stw	r4,44(sp)
 18037bc:	003fea06 	br	1803768 <_dtoa_r+0xd7c>
 18037c0:	04000c0e 	bge	zero,r16,18037f4 <_dtoa_r+0xe08>
 18037c4:	d9400717 	ldw	r5,28(sp)
 18037c8:	d9001617 	ldw	r4,88(sp)
 18037cc:	01800044 	movi	r6,1
 18037d0:	18064c40 	call	18064c4 <__lshift>
 18037d4:	1009883a 	mov	r4,r2
 18037d8:	900b883a 	mov	r5,r18
 18037dc:	d8800715 	stw	r2,28(sp)
 18037e0:	1805cdc0 	call	1805cdc <__mcmp>
 18037e4:	0081e00e 	bge	zero,r2,1803f68 <_dtoa_r+0x157c>
 18037e8:	bdc00044 	addi	r23,r23,1
 18037ec:	00800e84 	movi	r2,58
 18037f0:	b881a226 	beq	r23,r2,1803e7c <_dtoa_r+0x1490>
 18037f4:	b7000044 	addi	fp,r22,1
 18037f8:	b5c00005 	stb	r23,0(r22)
 18037fc:	003f7406 	br	18035d0 <_dtoa_r+0xbe4>
 1803800:	00800e44 	movi	r2,57
 1803804:	b8819d26 	beq	r23,r2,1803e7c <_dtoa_r+0x1490>
 1803808:	053ffa0e 	bge	zero,r20,18037f4 <_dtoa_r+0xe08>
 180380c:	8dc00c44 	addi	r23,r17,49
 1803810:	003ff806 	br	18037f4 <_dtoa_r+0xe08>
 1803814:	d9001617 	ldw	r4,88(sp)
 1803818:	a80b883a 	mov	r5,r21
 180381c:	04000044 	movi	r16,1
 1803820:	1805b800 	call	1805b80 <_Bfree>
 1803824:	003edf06 	br	18033a4 <_dtoa_r+0x9b8>
 1803828:	d9001617 	ldw	r4,88(sp)
 180382c:	980b883a 	mov	r5,r19
 1803830:	01800284 	movi	r6,10
 1803834:	000f883a 	mov	r7,zero
 1803838:	18068340 	call	1806834 <__multadd>
 180383c:	1027883a 	mov	r19,r2
 1803840:	d8800615 	stw	r2,24(sp)
 1803844:	003ebb06 	br	1803334 <_dtoa_r+0x948>
 1803848:	d9801117 	ldw	r6,68(sp)
 180384c:	d8800d17 	ldw	r2,52(sp)
 1803850:	d8000915 	stw	zero,36(sp)
 1803854:	308dc83a 	sub	r6,r6,r2
 1803858:	0087c83a 	sub	r3,zero,r2
 180385c:	d9801115 	stw	r6,68(sp)
 1803860:	d8c01015 	stw	r3,64(sp)
 1803864:	003cfe06 	br	1802c60 <_dtoa_r+0x274>
 1803868:	018dc83a 	sub	r6,zero,r6
 180386c:	d9801115 	stw	r6,68(sp)
 1803870:	d8000a15 	stw	zero,40(sp)
 1803874:	003cf306 	br	1802c44 <_dtoa_r+0x258>
 1803878:	d9000d17 	ldw	r4,52(sp)
 180387c:	18092380 	call	1809238 <__floatsidf>
 1803880:	880b883a 	mov	r5,r17
 1803884:	8009883a 	mov	r4,r16
 1803888:	180f883a 	mov	r7,r3
 180388c:	100d883a 	mov	r6,r2
 1803890:	18090180 	call	1809018 <__nedf2>
 1803894:	103ce126 	beq	r2,zero,1802c1c <_dtoa_r+0x230>
 1803898:	d9800d17 	ldw	r6,52(sp)
 180389c:	31bfffc4 	addi	r6,r6,-1
 18038a0:	d9800d15 	stw	r6,52(sp)
 18038a4:	003cdd06 	br	1802c1c <_dtoa_r+0x230>
 18038a8:	d9000717 	ldw	r4,28(sp)
 18038ac:	900b883a 	mov	r5,r18
 18038b0:	1805cdc0 	call	1805cdc <__mcmp>
 18038b4:	103e8d0e 	bge	r2,zero,18032ec <_dtoa_r+0x900>
 18038b8:	d9400717 	ldw	r5,28(sp)
 18038bc:	d9001617 	ldw	r4,88(sp)
 18038c0:	01800284 	movi	r6,10
 18038c4:	000f883a 	mov	r7,zero
 18038c8:	18068340 	call	1806834 <__multadd>
 18038cc:	d9800d17 	ldw	r6,52(sp)
 18038d0:	d8800715 	stw	r2,28(sp)
 18038d4:	31bfffc4 	addi	r6,r6,-1
 18038d8:	d9800d15 	stw	r6,52(sp)
 18038dc:	b001a71e 	bne	r22,zero,1803f7c <_dtoa_r+0x1590>
 18038e0:	d8800e17 	ldw	r2,56(sp)
 18038e4:	d8800f15 	stw	r2,60(sp)
 18038e8:	003e8006 	br	18032ec <_dtoa_r+0x900>
 18038ec:	90800417 	ldw	r2,16(r18)
 18038f0:	1085883a 	add	r2,r2,r2
 18038f4:	1085883a 	add	r2,r2,r2
 18038f8:	1485883a 	add	r2,r2,r18
 18038fc:	11000417 	ldw	r4,16(r2)
 1803900:	1805ba80 	call	1805ba8 <__hi0bits>
 1803904:	00c00804 	movi	r3,32
 1803908:	1887c83a 	sub	r3,r3,r2
 180390c:	003e5a06 	br	1803278 <_dtoa_r+0x88c>
 1803910:	d9400717 	ldw	r5,28(sp)
 1803914:	d9801017 	ldw	r6,64(sp)
 1803918:	d9001617 	ldw	r4,88(sp)
 180391c:	18069340 	call	1806934 <__pow5mult>
 1803920:	d8800715 	stw	r2,28(sp)
 1803924:	003e4306 	br	1803234 <_dtoa_r+0x848>
 1803928:	d9800f17 	ldw	r6,60(sp)
 180392c:	d8800d17 	ldw	r2,52(sp)
 1803930:	d9800315 	stw	r6,12(sp)
 1803934:	d8800415 	stw	r2,16(sp)
 1803938:	d8c00b17 	ldw	r3,44(sp)
 180393c:	1805003a 	cmpeq	r2,r3,zero
 1803940:	1000e21e 	bne	r2,zero,1803ccc <_dtoa_r+0x12e0>
 1803944:	d9000317 	ldw	r4,12(sp)
 1803948:	0005883a 	mov	r2,zero
 180394c:	00cff834 	movhi	r3,16352
 1803950:	200c90fa 	slli	r6,r4,3
 1803954:	01006074 	movhi	r4,385
 1803958:	21026a04 	addi	r4,r4,2472
 180395c:	180b883a 	mov	r5,r3
 1803960:	310d883a 	add	r6,r6,r4
 1803964:	327fff17 	ldw	r9,-4(r6)
 1803968:	323ffe17 	ldw	r8,-8(r6)
 180396c:	1009883a 	mov	r4,r2
 1803970:	480f883a 	mov	r7,r9
 1803974:	400d883a 	mov	r6,r8
 1803978:	1808d380 	call	1808d38 <__divdf3>
 180397c:	180b883a 	mov	r5,r3
 1803980:	b00d883a 	mov	r6,r22
 1803984:	b80f883a 	mov	r7,r23
 1803988:	1009883a 	mov	r4,r2
 180398c:	18088800 	call	1808880 <__subdf3>
 1803990:	a80b883a 	mov	r5,r21
 1803994:	a009883a 	mov	r4,r20
 1803998:	d8c01915 	stw	r3,100(sp)
 180399c:	d8801815 	stw	r2,96(sp)
 18039a0:	18093300 	call	1809330 <__fixdfsi>
 18039a4:	1009883a 	mov	r4,r2
 18039a8:	1027883a 	mov	r19,r2
 18039ac:	18092380 	call	1809238 <__floatsidf>
 18039b0:	a80b883a 	mov	r5,r21
 18039b4:	a009883a 	mov	r4,r20
 18039b8:	180f883a 	mov	r7,r3
 18039bc:	100d883a 	mov	r6,r2
 18039c0:	18088800 	call	1808880 <__subdf3>
 18039c4:	d9801817 	ldw	r6,96(sp)
 18039c8:	1823883a 	mov	r17,r3
 18039cc:	d8801415 	stw	r2,80(sp)
 18039d0:	302d883a 	mov	r22,r6
 18039d4:	d9800517 	ldw	r6,20(sp)
 18039d8:	9cc00c04 	addi	r19,r19,48
 18039dc:	dc401515 	stw	r17,84(sp)
 18039e0:	d8c01917 	ldw	r3,100(sp)
 18039e4:	34c00005 	stb	r19,0(r6)
 18039e8:	d8800517 	ldw	r2,20(sp)
 18039ec:	d9401917 	ldw	r5,100(sp)
 18039f0:	d9801417 	ldw	r6,80(sp)
 18039f4:	b009883a 	mov	r4,r22
 18039f8:	880f883a 	mov	r7,r17
 18039fc:	182f883a 	mov	r23,r3
 1803a00:	17000044 	addi	fp,r2,1
 1803a04:	18090a00 	call	18090a0 <__gtdf2>
 1803a08:	00804e16 	blt	zero,r2,1803b44 <_dtoa_r+0x1158>
 1803a0c:	d9801417 	ldw	r6,80(sp)
 1803a10:	0005883a 	mov	r2,zero
 1803a14:	00cffc34 	movhi	r3,16368
 1803a18:	180b883a 	mov	r5,r3
 1803a1c:	880f883a 	mov	r7,r17
 1803a20:	1009883a 	mov	r4,r2
 1803a24:	18088800 	call	1808880 <__subdf3>
 1803a28:	d9401917 	ldw	r5,100(sp)
 1803a2c:	180f883a 	mov	r7,r3
 1803a30:	b009883a 	mov	r4,r22
 1803a34:	100d883a 	mov	r6,r2
 1803a38:	18090a00 	call	18090a0 <__gtdf2>
 1803a3c:	00bda216 	blt	zero,r2,18030c8 <_dtoa_r+0x6dc>
 1803a40:	d8c00317 	ldw	r3,12(sp)
 1803a44:	00800044 	movi	r2,1
 1803a48:	10c01216 	blt	r2,r3,1803a94 <_dtoa_r+0x10a8>
 1803a4c:	003d4506 	br	1802f64 <_dtoa_r+0x578>
 1803a50:	d9801417 	ldw	r6,80(sp)
 1803a54:	0005883a 	mov	r2,zero
 1803a58:	00cffc34 	movhi	r3,16368
 1803a5c:	180b883a 	mov	r5,r3
 1803a60:	880f883a 	mov	r7,r17
 1803a64:	1009883a 	mov	r4,r2
 1803a68:	18088800 	call	1808880 <__subdf3>
 1803a6c:	d9c01b17 	ldw	r7,108(sp)
 1803a70:	180b883a 	mov	r5,r3
 1803a74:	1009883a 	mov	r4,r2
 1803a78:	b00d883a 	mov	r6,r22
 1803a7c:	18091b00 	call	18091b0 <__ltdf2>
 1803a80:	103d9116 	blt	r2,zero,18030c8 <_dtoa_r+0x6dc>
 1803a84:	d9800517 	ldw	r6,20(sp)
 1803a88:	d9000317 	ldw	r4,12(sp)
 1803a8c:	3105883a 	add	r2,r6,r4
 1803a90:	e0bd3426 	beq	fp,r2,1802f64 <_dtoa_r+0x578>
 1803a94:	04500934 	movhi	r17,16420
 1803a98:	0021883a 	mov	r16,zero
 1803a9c:	b80b883a 	mov	r5,r23
 1803aa0:	b009883a 	mov	r4,r22
 1803aa4:	800d883a 	mov	r6,r16
 1803aa8:	880f883a 	mov	r7,r17
 1803aac:	18089740 	call	1808974 <__muldf3>
 1803ab0:	d9401517 	ldw	r5,84(sp)
 1803ab4:	d9001417 	ldw	r4,80(sp)
 1803ab8:	880f883a 	mov	r7,r17
 1803abc:	000d883a 	mov	r6,zero
 1803ac0:	d8801a15 	stw	r2,104(sp)
 1803ac4:	d8c01b15 	stw	r3,108(sp)
 1803ac8:	18089740 	call	1808974 <__muldf3>
 1803acc:	180b883a 	mov	r5,r3
 1803ad0:	1009883a 	mov	r4,r2
 1803ad4:	1823883a 	mov	r17,r3
 1803ad8:	1021883a 	mov	r16,r2
 1803adc:	18093300 	call	1809330 <__fixdfsi>
 1803ae0:	1009883a 	mov	r4,r2
 1803ae4:	102b883a 	mov	r21,r2
 1803ae8:	18092380 	call	1809238 <__floatsidf>
 1803aec:	880b883a 	mov	r5,r17
 1803af0:	8009883a 	mov	r4,r16
 1803af4:	180f883a 	mov	r7,r3
 1803af8:	100d883a 	mov	r6,r2
 1803afc:	18088800 	call	1808880 <__subdf3>
 1803b00:	1021883a 	mov	r16,r2
 1803b04:	d9001b17 	ldw	r4,108(sp)
 1803b08:	1823883a 	mov	r17,r3
 1803b0c:	dc001415 	stw	r16,80(sp)
 1803b10:	ad400c04 	addi	r21,r21,48
 1803b14:	dc401515 	stw	r17,84(sp)
 1803b18:	d8801a17 	ldw	r2,104(sp)
 1803b1c:	e5400005 	stb	r21,0(fp)
 1803b20:	202f883a 	mov	r23,r4
 1803b24:	d9c01b17 	ldw	r7,108(sp)
 1803b28:	d9001417 	ldw	r4,80(sp)
 1803b2c:	880b883a 	mov	r5,r17
 1803b30:	100d883a 	mov	r6,r2
 1803b34:	102d883a 	mov	r22,r2
 1803b38:	e7000044 	addi	fp,fp,1
 1803b3c:	18091b00 	call	18091b0 <__ltdf2>
 1803b40:	103fc30e 	bge	r2,zero,1803a50 <_dtoa_r+0x1064>
 1803b44:	d9000417 	ldw	r4,16(sp)
 1803b48:	d9000d15 	stw	r4,52(sp)
 1803b4c:	003d7106 	br	1803114 <_dtoa_r+0x728>
 1803b50:	d9801717 	ldw	r6,92(sp)
 1803b54:	00800084 	movi	r2,2
 1803b58:	11bde60e 	bge	r2,r6,18032f4 <_dtoa_r+0x908>
 1803b5c:	203cfb1e 	bne	r4,zero,1802f4c <_dtoa_r+0x560>
 1803b60:	d9001617 	ldw	r4,88(sp)
 1803b64:	900b883a 	mov	r5,r18
 1803b68:	01800144 	movi	r6,5
 1803b6c:	000f883a 	mov	r7,zero
 1803b70:	18068340 	call	1806834 <__multadd>
 1803b74:	d9000717 	ldw	r4,28(sp)
 1803b78:	100b883a 	mov	r5,r2
 1803b7c:	1025883a 	mov	r18,r2
 1803b80:	1805cdc0 	call	1805cdc <__mcmp>
 1803b84:	00bcf10e 	bge	zero,r2,1802f4c <_dtoa_r+0x560>
 1803b88:	d8c00d17 	ldw	r3,52(sp)
 1803b8c:	d9000517 	ldw	r4,20(sp)
 1803b90:	d8000615 	stw	zero,24(sp)
 1803b94:	18c00044 	addi	r3,r3,1
 1803b98:	d8c00d15 	stw	r3,52(sp)
 1803b9c:	00800c44 	movi	r2,49
 1803ba0:	27000044 	addi	fp,r4,1
 1803ba4:	20800005 	stb	r2,0(r4)
 1803ba8:	003e8906 	br	18035d0 <_dtoa_r+0xbe4>
 1803bac:	d8c00517 	ldw	r3,20(sp)
 1803bb0:	003bc206 	br	1802abc <_dtoa_r+0xd0>
 1803bb4:	01806074 	movhi	r6,385
 1803bb8:	31829c04 	addi	r6,r6,2672
 1803bbc:	30c00917 	ldw	r3,36(r6)
 1803bc0:	30800817 	ldw	r2,32(r6)
 1803bc4:	d9001217 	ldw	r4,72(sp)
 1803bc8:	d9401317 	ldw	r5,76(sp)
 1803bcc:	180f883a 	mov	r7,r3
 1803bd0:	100d883a 	mov	r6,r2
 1803bd4:	1808d380 	call	1808d38 <__divdf3>
 1803bd8:	948003cc 	andi	r18,r18,15
 1803bdc:	058000c4 	movi	r22,3
 1803be0:	1029883a 	mov	r20,r2
 1803be4:	182b883a 	mov	r21,r3
 1803be8:	003c8906 	br	1802e10 <_dtoa_r+0x424>
 1803bec:	d9001017 	ldw	r4,64(sp)
 1803bf0:	d9800917 	ldw	r6,36(sp)
 1803bf4:	0025883a 	mov	r18,zero
 1803bf8:	1105c83a 	sub	r2,r2,r4
 1803bfc:	2089883a 	add	r4,r4,r2
 1803c00:	308d883a 	add	r6,r6,r2
 1803c04:	d9001015 	stw	r4,64(sp)
 1803c08:	d9800915 	stw	r6,36(sp)
 1803c0c:	003e3206 	br	18034d8 <_dtoa_r+0xaec>
 1803c10:	28800044 	addi	r2,r5,1
 1803c14:	27000044 	addi	fp,r4,1
 1803c18:	20800005 	stb	r2,0(r4)
 1803c1c:	003e6c06 	br	18035d0 <_dtoa_r+0xbe4>
 1803c20:	d8800f17 	ldw	r2,60(sp)
 1803c24:	00bce016 	blt	zero,r2,1802fa8 <_dtoa_r+0x5bc>
 1803c28:	d9800f17 	ldw	r6,60(sp)
 1803c2c:	303cc51e 	bne	r6,zero,1802f44 <_dtoa_r+0x558>
 1803c30:	0005883a 	mov	r2,zero
 1803c34:	00d00534 	movhi	r3,16404
 1803c38:	980b883a 	mov	r5,r19
 1803c3c:	180f883a 	mov	r7,r3
 1803c40:	9009883a 	mov	r4,r18
 1803c44:	100d883a 	mov	r6,r2
 1803c48:	18089740 	call	1808974 <__muldf3>
 1803c4c:	180b883a 	mov	r5,r3
 1803c50:	a80f883a 	mov	r7,r21
 1803c54:	1009883a 	mov	r4,r2
 1803c58:	a00d883a 	mov	r6,r20
 1803c5c:	18091280 	call	1809128 <__gedf2>
 1803c60:	103cb80e 	bge	r2,zero,1802f44 <_dtoa_r+0x558>
 1803c64:	0027883a 	mov	r19,zero
 1803c68:	0025883a 	mov	r18,zero
 1803c6c:	003fc606 	br	1803b88 <_dtoa_r+0x119c>
 1803c70:	99400117 	ldw	r5,4(r19)
 1803c74:	d9001617 	ldw	r4,88(sp)
 1803c78:	18061000 	call	1806100 <_Balloc>
 1803c7c:	99800417 	ldw	r6,16(r19)
 1803c80:	11000304 	addi	r4,r2,12
 1803c84:	99400304 	addi	r5,r19,12
 1803c88:	318d883a 	add	r6,r6,r6
 1803c8c:	318d883a 	add	r6,r6,r6
 1803c90:	31800204 	addi	r6,r6,8
 1803c94:	1023883a 	mov	r17,r2
 1803c98:	18059680 	call	1805968 <memcpy>
 1803c9c:	d9001617 	ldw	r4,88(sp)
 1803ca0:	880b883a 	mov	r5,r17
 1803ca4:	01800044 	movi	r6,1
 1803ca8:	18064c40 	call	18064c4 <__lshift>
 1803cac:	100b883a 	mov	r5,r2
 1803cb0:	003d9c06 	br	1803324 <_dtoa_r+0x938>
 1803cb4:	00800e44 	movi	r2,57
 1803cb8:	b8807026 	beq	r23,r2,1803e7c <_dtoa_r+0x1490>
 1803cbc:	b8800044 	addi	r2,r23,1
 1803cc0:	b7000044 	addi	fp,r22,1
 1803cc4:	b0800005 	stb	r2,0(r22)
 1803cc8:	003e4106 	br	18035d0 <_dtoa_r+0xbe4>
 1803ccc:	d8800317 	ldw	r2,12(sp)
 1803cd0:	01806074 	movhi	r6,385
 1803cd4:	31826a04 	addi	r6,r6,2472
 1803cd8:	b009883a 	mov	r4,r22
 1803cdc:	100e90fa 	slli	r7,r2,3
 1803ce0:	b80b883a 	mov	r5,r23
 1803ce4:	398f883a 	add	r7,r7,r6
 1803ce8:	38bffe17 	ldw	r2,-8(r7)
 1803cec:	d9800517 	ldw	r6,20(sp)
 1803cf0:	38ffff17 	ldw	r3,-4(r7)
 1803cf4:	37000044 	addi	fp,r6,1
 1803cf8:	180f883a 	mov	r7,r3
 1803cfc:	100d883a 	mov	r6,r2
 1803d00:	18089740 	call	1808974 <__muldf3>
 1803d04:	a80b883a 	mov	r5,r21
 1803d08:	a009883a 	mov	r4,r20
 1803d0c:	182f883a 	mov	r23,r3
 1803d10:	102d883a 	mov	r22,r2
 1803d14:	18093300 	call	1809330 <__fixdfsi>
 1803d18:	1009883a 	mov	r4,r2
 1803d1c:	1027883a 	mov	r19,r2
 1803d20:	18092380 	call	1809238 <__floatsidf>
 1803d24:	a80b883a 	mov	r5,r21
 1803d28:	a009883a 	mov	r4,r20
 1803d2c:	180f883a 	mov	r7,r3
 1803d30:	100d883a 	mov	r6,r2
 1803d34:	18088800 	call	1808880 <__subdf3>
 1803d38:	180b883a 	mov	r5,r3
 1803d3c:	d8c00517 	ldw	r3,20(sp)
 1803d40:	9cc00c04 	addi	r19,r19,48
 1803d44:	1009883a 	mov	r4,r2
 1803d48:	1cc00005 	stb	r19,0(r3)
 1803d4c:	2021883a 	mov	r16,r4
 1803d50:	d9000317 	ldw	r4,12(sp)
 1803d54:	00800044 	movi	r2,1
 1803d58:	2823883a 	mov	r17,r5
 1803d5c:	20802226 	beq	r4,r2,1803de8 <_dtoa_r+0x13fc>
 1803d60:	1029883a 	mov	r20,r2
 1803d64:	0005883a 	mov	r2,zero
 1803d68:	00d00934 	movhi	r3,16420
 1803d6c:	180f883a 	mov	r7,r3
 1803d70:	100d883a 	mov	r6,r2
 1803d74:	880b883a 	mov	r5,r17
 1803d78:	8009883a 	mov	r4,r16
 1803d7c:	18089740 	call	1808974 <__muldf3>
 1803d80:	180b883a 	mov	r5,r3
 1803d84:	1009883a 	mov	r4,r2
 1803d88:	1823883a 	mov	r17,r3
 1803d8c:	1021883a 	mov	r16,r2
 1803d90:	18093300 	call	1809330 <__fixdfsi>
 1803d94:	1009883a 	mov	r4,r2
 1803d98:	102b883a 	mov	r21,r2
 1803d9c:	18092380 	call	1809238 <__floatsidf>
 1803da0:	880b883a 	mov	r5,r17
 1803da4:	8009883a 	mov	r4,r16
 1803da8:	180f883a 	mov	r7,r3
 1803dac:	100d883a 	mov	r6,r2
 1803db0:	18088800 	call	1808880 <__subdf3>
 1803db4:	180b883a 	mov	r5,r3
 1803db8:	d8c00517 	ldw	r3,20(sp)
 1803dbc:	1009883a 	mov	r4,r2
 1803dc0:	ad400c04 	addi	r21,r21,48
 1803dc4:	1d05883a 	add	r2,r3,r20
 1803dc8:	15400005 	stb	r21,0(r2)
 1803dcc:	2021883a 	mov	r16,r4
 1803dd0:	d9000317 	ldw	r4,12(sp)
 1803dd4:	a5000044 	addi	r20,r20,1
 1803dd8:	2823883a 	mov	r17,r5
 1803ddc:	a13fe11e 	bne	r20,r4,1803d64 <_dtoa_r+0x1378>
 1803de0:	e505883a 	add	r2,fp,r20
 1803de4:	173fffc4 	addi	fp,r2,-1
 1803de8:	0025883a 	mov	r18,zero
 1803dec:	04cff834 	movhi	r19,16352
 1803df0:	b009883a 	mov	r4,r22
 1803df4:	b80b883a 	mov	r5,r23
 1803df8:	900d883a 	mov	r6,r18
 1803dfc:	980f883a 	mov	r7,r19
 1803e00:	18089000 	call	1808900 <__adddf3>
 1803e04:	180b883a 	mov	r5,r3
 1803e08:	1009883a 	mov	r4,r2
 1803e0c:	800d883a 	mov	r6,r16
 1803e10:	880f883a 	mov	r7,r17
 1803e14:	18091b00 	call	18091b0 <__ltdf2>
 1803e18:	103cab16 	blt	r2,zero,18030c8 <_dtoa_r+0x6dc>
 1803e1c:	0009883a 	mov	r4,zero
 1803e20:	980b883a 	mov	r5,r19
 1803e24:	b80f883a 	mov	r7,r23
 1803e28:	b00d883a 	mov	r6,r22
 1803e2c:	18088800 	call	1808880 <__subdf3>
 1803e30:	180b883a 	mov	r5,r3
 1803e34:	880f883a 	mov	r7,r17
 1803e38:	1009883a 	mov	r4,r2
 1803e3c:	800d883a 	mov	r6,r16
 1803e40:	18090a00 	call	18090a0 <__gtdf2>
 1803e44:	00bc470e 	bge	zero,r2,1802f64 <_dtoa_r+0x578>
 1803e48:	00c00c04 	movi	r3,48
 1803e4c:	e73fffc4 	addi	fp,fp,-1
 1803e50:	e0800007 	ldb	r2,0(fp)
 1803e54:	10fffd26 	beq	r2,r3,1803e4c <_dtoa_r+0x1460>
 1803e58:	d9800417 	ldw	r6,16(sp)
 1803e5c:	e7000044 	addi	fp,fp,1
 1803e60:	d9800d15 	stw	r6,52(sp)
 1803e64:	003cab06 	br	1803114 <_dtoa_r+0x728>
 1803e68:	d8c00f17 	ldw	r3,60(sp)
 1803e6c:	d9001117 	ldw	r4,68(sp)
 1803e70:	20e1c83a 	sub	r16,r4,r3
 1803e74:	0007883a 	mov	r3,zero
 1803e78:	003d9b06 	br	18034e8 <_dtoa_r+0xafc>
 1803e7c:	00800e44 	movi	r2,57
 1803e80:	b0800005 	stb	r2,0(r22)
 1803e84:	b5800044 	addi	r22,r22,1
 1803e88:	003dc106 	br	1803590 <_dtoa_r+0xba4>
 1803e8c:	05800084 	movi	r22,2
 1803e90:	003bf706 	br	1802e70 <_dtoa_r+0x484>
 1803e94:	d9000f17 	ldw	r4,60(sp)
 1803e98:	013c000e 	bge	zero,r4,1802e9c <_dtoa_r+0x4b0>
 1803e9c:	d9800e17 	ldw	r6,56(sp)
 1803ea0:	01bc300e 	bge	zero,r6,1802f64 <_dtoa_r+0x578>
 1803ea4:	0005883a 	mov	r2,zero
 1803ea8:	00d00934 	movhi	r3,16420
 1803eac:	a80b883a 	mov	r5,r21
 1803eb0:	180f883a 	mov	r7,r3
 1803eb4:	a009883a 	mov	r4,r20
 1803eb8:	100d883a 	mov	r6,r2
 1803ebc:	18089740 	call	1808974 <__muldf3>
 1803ec0:	b1000044 	addi	r4,r22,1
 1803ec4:	1021883a 	mov	r16,r2
 1803ec8:	1823883a 	mov	r17,r3
 1803ecc:	18092380 	call	1809238 <__floatsidf>
 1803ed0:	880b883a 	mov	r5,r17
 1803ed4:	8009883a 	mov	r4,r16
 1803ed8:	180f883a 	mov	r7,r3
 1803edc:	100d883a 	mov	r6,r2
 1803ee0:	18089740 	call	1808974 <__muldf3>
 1803ee4:	0011883a 	mov	r8,zero
 1803ee8:	02500734 	movhi	r9,16412
 1803eec:	180b883a 	mov	r5,r3
 1803ef0:	480f883a 	mov	r7,r9
 1803ef4:	1009883a 	mov	r4,r2
 1803ef8:	400d883a 	mov	r6,r8
 1803efc:	18089000 	call	1808900 <__adddf3>
 1803f00:	102d883a 	mov	r22,r2
 1803f04:	00bf3034 	movhi	r2,64704
 1803f08:	10ef883a 	add	r23,r2,r3
 1803f0c:	d8800d17 	ldw	r2,52(sp)
 1803f10:	d8c00e17 	ldw	r3,56(sp)
 1803f14:	8029883a 	mov	r20,r16
 1803f18:	10bfffc4 	addi	r2,r2,-1
 1803f1c:	882b883a 	mov	r21,r17
 1803f20:	d8800415 	stw	r2,16(sp)
 1803f24:	d8c00315 	stw	r3,12(sp)
 1803f28:	003e8306 	br	1803938 <_dtoa_r+0xf4c>
 1803f2c:	d8800117 	ldw	r2,4(sp)
 1803f30:	dc001117 	ldw	r16,68(sp)
 1803f34:	dc801017 	ldw	r18,64(sp)
 1803f38:	00c00d84 	movi	r3,54
 1803f3c:	1887c83a 	sub	r3,r3,r2
 1803f40:	003d6906 	br	18034e8 <_dtoa_r+0xafc>
 1803f44:	01800044 	movi	r6,1
 1803f48:	3021883a 	mov	r16,r6
 1803f4c:	d9800f15 	stw	r6,60(sp)
 1803f50:	d9802615 	stw	r6,152(sp)
 1803f54:	d9800e15 	stw	r6,56(sp)
 1803f58:	003b9306 	br	1802da8 <_dtoa_r+0x3bc>
 1803f5c:	b021883a 	mov	r16,r22
 1803f60:	dd800f15 	stw	r22,60(sp)
 1803f64:	003b9006 	br	1802da8 <_dtoa_r+0x3bc>
 1803f68:	103e221e 	bne	r2,zero,18037f4 <_dtoa_r+0xe08>
 1803f6c:	b880004c 	andi	r2,r23,1
 1803f70:	1005003a 	cmpeq	r2,r2,zero
 1803f74:	103e1f1e 	bne	r2,zero,18037f4 <_dtoa_r+0xe08>
 1803f78:	003e1b06 	br	18037e8 <_dtoa_r+0xdfc>
 1803f7c:	d9001617 	ldw	r4,88(sp)
 1803f80:	980b883a 	mov	r5,r19
 1803f84:	01800284 	movi	r6,10
 1803f88:	000f883a 	mov	r7,zero
 1803f8c:	18068340 	call	1806834 <__multadd>
 1803f90:	d8c00e17 	ldw	r3,56(sp)
 1803f94:	1027883a 	mov	r19,r2
 1803f98:	d8c00f15 	stw	r3,60(sp)
 1803f9c:	003cd306 	br	18032ec <_dtoa_r+0x900>

01803fa0 <_fflush_r>:
 1803fa0:	defffb04 	addi	sp,sp,-20
 1803fa4:	dcc00315 	stw	r19,12(sp)
 1803fa8:	dc800215 	stw	r18,8(sp)
 1803fac:	dfc00415 	stw	ra,16(sp)
 1803fb0:	dc400115 	stw	r17,4(sp)
 1803fb4:	dc000015 	stw	r16,0(sp)
 1803fb8:	2027883a 	mov	r19,r4
 1803fbc:	2825883a 	mov	r18,r5
 1803fc0:	20000226 	beq	r4,zero,1803fcc <_fflush_r+0x2c>
 1803fc4:	20800e17 	ldw	r2,56(r4)
 1803fc8:	10005626 	beq	r2,zero,1804124 <_fflush_r+0x184>
 1803fcc:	9100030b 	ldhu	r4,12(r18)
 1803fd0:	20ffffcc 	andi	r3,r4,65535
 1803fd4:	18e0001c 	xori	r3,r3,32768
 1803fd8:	18e00004 	addi	r3,r3,-32768
 1803fdc:	1880020c 	andi	r2,r3,8
 1803fe0:	1000261e 	bne	r2,zero,180407c <_fflush_r+0xdc>
 1803fe4:	90c00117 	ldw	r3,4(r18)
 1803fe8:	20820014 	ori	r2,r4,2048
 1803fec:	9080030d 	sth	r2,12(r18)
 1803ff0:	1009883a 	mov	r4,r2
 1803ff4:	00c0400e 	bge	zero,r3,18040f8 <_fflush_r+0x158>
 1803ff8:	92000a17 	ldw	r8,40(r18)
 1803ffc:	40004026 	beq	r8,zero,1804100 <_fflush_r+0x160>
 1804000:	2084000c 	andi	r2,r4,4096
 1804004:	10005326 	beq	r2,zero,1804154 <_fflush_r+0x1b4>
 1804008:	94001417 	ldw	r16,80(r18)
 180400c:	9080030b 	ldhu	r2,12(r18)
 1804010:	1080010c 	andi	r2,r2,4
 1804014:	1000481e 	bne	r2,zero,1804138 <_fflush_r+0x198>
 1804018:	91400717 	ldw	r5,28(r18)
 180401c:	9809883a 	mov	r4,r19
 1804020:	800d883a 	mov	r6,r16
 1804024:	000f883a 	mov	r7,zero
 1804028:	403ee83a 	callr	r8
 180402c:	8080261e 	bne	r16,r2,18040c8 <_fflush_r+0x128>
 1804030:	9080030b 	ldhu	r2,12(r18)
 1804034:	91000417 	ldw	r4,16(r18)
 1804038:	90000115 	stw	zero,4(r18)
 180403c:	10bdffcc 	andi	r2,r2,63487
 1804040:	10ffffcc 	andi	r3,r2,65535
 1804044:	18c4000c 	andi	r3,r3,4096
 1804048:	9080030d 	sth	r2,12(r18)
 180404c:	91000015 	stw	r4,0(r18)
 1804050:	18002b26 	beq	r3,zero,1804100 <_fflush_r+0x160>
 1804054:	0007883a 	mov	r3,zero
 1804058:	1805883a 	mov	r2,r3
 180405c:	94001415 	stw	r16,80(r18)
 1804060:	dfc00417 	ldw	ra,16(sp)
 1804064:	dcc00317 	ldw	r19,12(sp)
 1804068:	dc800217 	ldw	r18,8(sp)
 180406c:	dc400117 	ldw	r17,4(sp)
 1804070:	dc000017 	ldw	r16,0(sp)
 1804074:	dec00504 	addi	sp,sp,20
 1804078:	f800283a 	ret
 180407c:	94400417 	ldw	r17,16(r18)
 1804080:	88001f26 	beq	r17,zero,1804100 <_fflush_r+0x160>
 1804084:	90800017 	ldw	r2,0(r18)
 1804088:	18c000cc 	andi	r3,r3,3
 180408c:	94400015 	stw	r17,0(r18)
 1804090:	1461c83a 	sub	r16,r2,r17
 1804094:	18002526 	beq	r3,zero,180412c <_fflush_r+0x18c>
 1804098:	0005883a 	mov	r2,zero
 180409c:	90800215 	stw	r2,8(r18)
 18040a0:	0400170e 	bge	zero,r16,1804100 <_fflush_r+0x160>
 18040a4:	90c00917 	ldw	r3,36(r18)
 18040a8:	91400717 	ldw	r5,28(r18)
 18040ac:	880d883a 	mov	r6,r17
 18040b0:	800f883a 	mov	r7,r16
 18040b4:	9809883a 	mov	r4,r19
 18040b8:	183ee83a 	callr	r3
 18040bc:	88a3883a 	add	r17,r17,r2
 18040c0:	80a1c83a 	sub	r16,r16,r2
 18040c4:	00bff616 	blt	zero,r2,18040a0 <_fflush_r+0x100>
 18040c8:	9080030b 	ldhu	r2,12(r18)
 18040cc:	00ffffc4 	movi	r3,-1
 18040d0:	10801014 	ori	r2,r2,64
 18040d4:	9080030d 	sth	r2,12(r18)
 18040d8:	1805883a 	mov	r2,r3
 18040dc:	dfc00417 	ldw	ra,16(sp)
 18040e0:	dcc00317 	ldw	r19,12(sp)
 18040e4:	dc800217 	ldw	r18,8(sp)
 18040e8:	dc400117 	ldw	r17,4(sp)
 18040ec:	dc000017 	ldw	r16,0(sp)
 18040f0:	dec00504 	addi	sp,sp,20
 18040f4:	f800283a 	ret
 18040f8:	90800f17 	ldw	r2,60(r18)
 18040fc:	00bfbe16 	blt	zero,r2,1803ff8 <_fflush_r+0x58>
 1804100:	0007883a 	mov	r3,zero
 1804104:	1805883a 	mov	r2,r3
 1804108:	dfc00417 	ldw	ra,16(sp)
 180410c:	dcc00317 	ldw	r19,12(sp)
 1804110:	dc800217 	ldw	r18,8(sp)
 1804114:	dc400117 	ldw	r17,4(sp)
 1804118:	dc000017 	ldw	r16,0(sp)
 180411c:	dec00504 	addi	sp,sp,20
 1804120:	f800283a 	ret
 1804124:	18042380 	call	1804238 <__sinit>
 1804128:	003fa806 	br	1803fcc <_fflush_r+0x2c>
 180412c:	90800517 	ldw	r2,20(r18)
 1804130:	90800215 	stw	r2,8(r18)
 1804134:	003fda06 	br	18040a0 <_fflush_r+0x100>
 1804138:	90800117 	ldw	r2,4(r18)
 180413c:	90c00c17 	ldw	r3,48(r18)
 1804140:	80a1c83a 	sub	r16,r16,r2
 1804144:	183fb426 	beq	r3,zero,1804018 <_fflush_r+0x78>
 1804148:	90800f17 	ldw	r2,60(r18)
 180414c:	80a1c83a 	sub	r16,r16,r2
 1804150:	003fb106 	br	1804018 <_fflush_r+0x78>
 1804154:	91400717 	ldw	r5,28(r18)
 1804158:	9809883a 	mov	r4,r19
 180415c:	000d883a 	mov	r6,zero
 1804160:	01c00044 	movi	r7,1
 1804164:	403ee83a 	callr	r8
 1804168:	1021883a 	mov	r16,r2
 180416c:	00bfffc4 	movi	r2,-1
 1804170:	80800226 	beq	r16,r2,180417c <_fflush_r+0x1dc>
 1804174:	92000a17 	ldw	r8,40(r18)
 1804178:	003fa406 	br	180400c <_fflush_r+0x6c>
 180417c:	98c00017 	ldw	r3,0(r19)
 1804180:	00800744 	movi	r2,29
 1804184:	18bfde26 	beq	r3,r2,1804100 <_fflush_r+0x160>
 1804188:	9080030b 	ldhu	r2,12(r18)
 180418c:	8007883a 	mov	r3,r16
 1804190:	10801014 	ori	r2,r2,64
 1804194:	9080030d 	sth	r2,12(r18)
 1804198:	003fcf06 	br	18040d8 <_fflush_r+0x138>

0180419c <fflush>:
 180419c:	01406034 	movhi	r5,384
 18041a0:	294fe804 	addi	r5,r5,16288
 18041a4:	2007883a 	mov	r3,r4
 18041a8:	20000526 	beq	r4,zero,18041c0 <fflush+0x24>
 18041ac:	00806074 	movhi	r2,385
 18041b0:	108ae404 	addi	r2,r2,11152
 18041b4:	11000017 	ldw	r4,0(r2)
 18041b8:	180b883a 	mov	r5,r3
 18041bc:	1803fa01 	jmpi	1803fa0 <_fflush_r>
 18041c0:	00806074 	movhi	r2,385
 18041c4:	108ae504 	addi	r2,r2,11156
 18041c8:	11000017 	ldw	r4,0(r2)
 18041cc:	1804d6c1 	jmpi	1804d6c <_fwalk_reent>

018041d0 <std>:
 18041d0:	00806034 	movhi	r2,384
 18041d4:	109c9204 	addi	r2,r2,29256
 18041d8:	20800b15 	stw	r2,44(r4)
 18041dc:	00806034 	movhi	r2,384
 18041e0:	109ccd04 	addi	r2,r2,29492
 18041e4:	20800815 	stw	r2,32(r4)
 18041e8:	00c06034 	movhi	r3,384
 18041ec:	18dcae04 	addi	r3,r3,29368
 18041f0:	00806034 	movhi	r2,384
 18041f4:	109c9404 	addi	r2,r2,29264
 18041f8:	2140030d 	sth	r5,12(r4)
 18041fc:	2180038d 	sth	r6,14(r4)
 1804200:	20c00915 	stw	r3,36(r4)
 1804204:	20800a15 	stw	r2,40(r4)
 1804208:	20000015 	stw	zero,0(r4)
 180420c:	20000115 	stw	zero,4(r4)
 1804210:	20000215 	stw	zero,8(r4)
 1804214:	20000415 	stw	zero,16(r4)
 1804218:	20000515 	stw	zero,20(r4)
 180421c:	20000615 	stw	zero,24(r4)
 1804220:	21000715 	stw	r4,28(r4)
 1804224:	f800283a 	ret

01804228 <__sfp_lock_acquire>:
 1804228:	f800283a 	ret

0180422c <__sfp_lock_release>:
 180422c:	f800283a 	ret

01804230 <__sinit_lock_acquire>:
 1804230:	f800283a 	ret

01804234 <__sinit_lock_release>:
 1804234:	f800283a 	ret

01804238 <__sinit>:
 1804238:	20800e17 	ldw	r2,56(r4)
 180423c:	defffd04 	addi	sp,sp,-12
 1804240:	dc400115 	stw	r17,4(sp)
 1804244:	dc000015 	stw	r16,0(sp)
 1804248:	dfc00215 	stw	ra,8(sp)
 180424c:	04400044 	movi	r17,1
 1804250:	01400104 	movi	r5,4
 1804254:	000d883a 	mov	r6,zero
 1804258:	2021883a 	mov	r16,r4
 180425c:	2200bb04 	addi	r8,r4,748
 1804260:	200f883a 	mov	r7,r4
 1804264:	10000526 	beq	r2,zero,180427c <__sinit+0x44>
 1804268:	dfc00217 	ldw	ra,8(sp)
 180426c:	dc400117 	ldw	r17,4(sp)
 1804270:	dc000017 	ldw	r16,0(sp)
 1804274:	dec00304 	addi	sp,sp,12
 1804278:	f800283a 	ret
 180427c:	21000117 	ldw	r4,4(r4)
 1804280:	00806034 	movhi	r2,384
 1804284:	1090c704 	addi	r2,r2,17180
 1804288:	00c000c4 	movi	r3,3
 180428c:	80800f15 	stw	r2,60(r16)
 1804290:	80c0b915 	stw	r3,740(r16)
 1804294:	8200ba15 	stw	r8,744(r16)
 1804298:	84400e15 	stw	r17,56(r16)
 180429c:	8000b815 	stw	zero,736(r16)
 18042a0:	18041d00 	call	18041d0 <std>
 18042a4:	81000217 	ldw	r4,8(r16)
 18042a8:	880d883a 	mov	r6,r17
 18042ac:	800f883a 	mov	r7,r16
 18042b0:	01400284 	movi	r5,10
 18042b4:	18041d00 	call	18041d0 <std>
 18042b8:	81000317 	ldw	r4,12(r16)
 18042bc:	800f883a 	mov	r7,r16
 18042c0:	01400484 	movi	r5,18
 18042c4:	01800084 	movi	r6,2
 18042c8:	dfc00217 	ldw	ra,8(sp)
 18042cc:	dc400117 	ldw	r17,4(sp)
 18042d0:	dc000017 	ldw	r16,0(sp)
 18042d4:	dec00304 	addi	sp,sp,12
 18042d8:	18041d01 	jmpi	18041d0 <std>

018042dc <__fp_lock>:
 18042dc:	0005883a 	mov	r2,zero
 18042e0:	f800283a 	ret

018042e4 <__fp_unlock>:
 18042e4:	0005883a 	mov	r2,zero
 18042e8:	f800283a 	ret

018042ec <__fp_unlock_all>:
 18042ec:	00806074 	movhi	r2,385
 18042f0:	108ae404 	addi	r2,r2,11152
 18042f4:	11000017 	ldw	r4,0(r2)
 18042f8:	01406034 	movhi	r5,384
 18042fc:	2950b904 	addi	r5,r5,17124
 1804300:	1804e341 	jmpi	1804e34 <_fwalk>

01804304 <__fp_lock_all>:
 1804304:	00806074 	movhi	r2,385
 1804308:	108ae404 	addi	r2,r2,11152
 180430c:	11000017 	ldw	r4,0(r2)
 1804310:	01406034 	movhi	r5,384
 1804314:	2950b704 	addi	r5,r5,17116
 1804318:	1804e341 	jmpi	1804e34 <_fwalk>

0180431c <_cleanup_r>:
 180431c:	01406034 	movhi	r5,384
 1804320:	295dbf04 	addi	r5,r5,30460
 1804324:	1804e341 	jmpi	1804e34 <_fwalk>

01804328 <_cleanup>:
 1804328:	00806074 	movhi	r2,385
 180432c:	108ae504 	addi	r2,r2,11156
 1804330:	11000017 	ldw	r4,0(r2)
 1804334:	180431c1 	jmpi	180431c <_cleanup_r>

01804338 <__sfmoreglue>:
 1804338:	defffc04 	addi	sp,sp,-16
 180433c:	dc400115 	stw	r17,4(sp)
 1804340:	2c401724 	muli	r17,r5,92
 1804344:	dc800215 	stw	r18,8(sp)
 1804348:	2825883a 	mov	r18,r5
 180434c:	89400304 	addi	r5,r17,12
 1804350:	dc000015 	stw	r16,0(sp)
 1804354:	dfc00315 	stw	ra,12(sp)
 1804358:	18051440 	call	1805144 <_malloc_r>
 180435c:	0021883a 	mov	r16,zero
 1804360:	880d883a 	mov	r6,r17
 1804364:	000b883a 	mov	r5,zero
 1804368:	10000626 	beq	r2,zero,1804384 <__sfmoreglue+0x4c>
 180436c:	11000304 	addi	r4,r2,12
 1804370:	14800115 	stw	r18,4(r2)
 1804374:	10000015 	stw	zero,0(r2)
 1804378:	11000215 	stw	r4,8(r2)
 180437c:	1021883a 	mov	r16,r2
 1804380:	1805ae80 	call	1805ae8 <memset>
 1804384:	8005883a 	mov	r2,r16
 1804388:	dfc00317 	ldw	ra,12(sp)
 180438c:	dc800217 	ldw	r18,8(sp)
 1804390:	dc400117 	ldw	r17,4(sp)
 1804394:	dc000017 	ldw	r16,0(sp)
 1804398:	dec00404 	addi	sp,sp,16
 180439c:	f800283a 	ret

018043a0 <__sfp>:
 18043a0:	defffd04 	addi	sp,sp,-12
 18043a4:	00806074 	movhi	r2,385
 18043a8:	108ae504 	addi	r2,r2,11156
 18043ac:	dc000015 	stw	r16,0(sp)
 18043b0:	14000017 	ldw	r16,0(r2)
 18043b4:	dc400115 	stw	r17,4(sp)
 18043b8:	dfc00215 	stw	ra,8(sp)
 18043bc:	80800e17 	ldw	r2,56(r16)
 18043c0:	2023883a 	mov	r17,r4
 18043c4:	10002626 	beq	r2,zero,1804460 <__sfp+0xc0>
 18043c8:	8400b804 	addi	r16,r16,736
 18043cc:	80800117 	ldw	r2,4(r16)
 18043d0:	81000217 	ldw	r4,8(r16)
 18043d4:	10ffffc4 	addi	r3,r2,-1
 18043d8:	18000916 	blt	r3,zero,1804400 <__sfp+0x60>
 18043dc:	2080030f 	ldh	r2,12(r4)
 18043e0:	10000b26 	beq	r2,zero,1804410 <__sfp+0x70>
 18043e4:	017fffc4 	movi	r5,-1
 18043e8:	00000206 	br	18043f4 <__sfp+0x54>
 18043ec:	2080030f 	ldh	r2,12(r4)
 18043f0:	10000726 	beq	r2,zero,1804410 <__sfp+0x70>
 18043f4:	18ffffc4 	addi	r3,r3,-1
 18043f8:	21001704 	addi	r4,r4,92
 18043fc:	197ffb1e 	bne	r3,r5,18043ec <__sfp+0x4c>
 1804400:	80800017 	ldw	r2,0(r16)
 1804404:	10001926 	beq	r2,zero,180446c <__sfp+0xcc>
 1804408:	1021883a 	mov	r16,r2
 180440c:	003fef06 	br	18043cc <__sfp+0x2c>
 1804410:	00bfffc4 	movi	r2,-1
 1804414:	00c00044 	movi	r3,1
 1804418:	2080038d 	sth	r2,14(r4)
 180441c:	20c0030d 	sth	r3,12(r4)
 1804420:	20000015 	stw	zero,0(r4)
 1804424:	20000215 	stw	zero,8(r4)
 1804428:	20000115 	stw	zero,4(r4)
 180442c:	20000415 	stw	zero,16(r4)
 1804430:	20000515 	stw	zero,20(r4)
 1804434:	20000615 	stw	zero,24(r4)
 1804438:	20000c15 	stw	zero,48(r4)
 180443c:	20000d15 	stw	zero,52(r4)
 1804440:	20001115 	stw	zero,68(r4)
 1804444:	20001215 	stw	zero,72(r4)
 1804448:	2005883a 	mov	r2,r4
 180444c:	dfc00217 	ldw	ra,8(sp)
 1804450:	dc400117 	ldw	r17,4(sp)
 1804454:	dc000017 	ldw	r16,0(sp)
 1804458:	dec00304 	addi	sp,sp,12
 180445c:	f800283a 	ret
 1804460:	8009883a 	mov	r4,r16
 1804464:	18042380 	call	1804238 <__sinit>
 1804468:	003fd706 	br	18043c8 <__sfp+0x28>
 180446c:	8809883a 	mov	r4,r17
 1804470:	01400104 	movi	r5,4
 1804474:	18043380 	call	1804338 <__sfmoreglue>
 1804478:	80800015 	stw	r2,0(r16)
 180447c:	103fe21e 	bne	r2,zero,1804408 <__sfp+0x68>
 1804480:	00800304 	movi	r2,12
 1804484:	0009883a 	mov	r4,zero
 1804488:	88800015 	stw	r2,0(r17)
 180448c:	003fee06 	br	1804448 <__sfp+0xa8>

01804490 <_malloc_trim_r>:
 1804490:	defffb04 	addi	sp,sp,-20
 1804494:	dcc00315 	stw	r19,12(sp)
 1804498:	04c06074 	movhi	r19,385
 180449c:	9cc4b104 	addi	r19,r19,4804
 18044a0:	dc800215 	stw	r18,8(sp)
 18044a4:	dc400115 	stw	r17,4(sp)
 18044a8:	dc000015 	stw	r16,0(sp)
 18044ac:	2823883a 	mov	r17,r5
 18044b0:	2025883a 	mov	r18,r4
 18044b4:	dfc00415 	stw	ra,16(sp)
 18044b8:	180a2ac0 	call	180a2ac <__malloc_lock>
 18044bc:	98800217 	ldw	r2,8(r19)
 18044c0:	9009883a 	mov	r4,r18
 18044c4:	000b883a 	mov	r5,zero
 18044c8:	10c00117 	ldw	r3,4(r2)
 18044cc:	00bfff04 	movi	r2,-4
 18044d0:	18a0703a 	and	r16,r3,r2
 18044d4:	8463c83a 	sub	r17,r16,r17
 18044d8:	8c43fbc4 	addi	r17,r17,4079
 18044dc:	8822d33a 	srli	r17,r17,12
 18044e0:	0083ffc4 	movi	r2,4095
 18044e4:	8c7fffc4 	addi	r17,r17,-1
 18044e8:	8822933a 	slli	r17,r17,12
 18044ec:	1440060e 	bge	r2,r17,1804508 <_malloc_trim_r+0x78>
 18044f0:	18071d80 	call	18071d8 <_sbrk_r>
 18044f4:	98c00217 	ldw	r3,8(r19)
 18044f8:	9009883a 	mov	r4,r18
 18044fc:	044bc83a 	sub	r5,zero,r17
 1804500:	80c7883a 	add	r3,r16,r3
 1804504:	10c00926 	beq	r2,r3,180452c <_malloc_trim_r+0x9c>
 1804508:	180a2cc0 	call	180a2cc <__malloc_unlock>
 180450c:	0005883a 	mov	r2,zero
 1804510:	dfc00417 	ldw	ra,16(sp)
 1804514:	dcc00317 	ldw	r19,12(sp)
 1804518:	dc800217 	ldw	r18,8(sp)
 180451c:	dc400117 	ldw	r17,4(sp)
 1804520:	dc000017 	ldw	r16,0(sp)
 1804524:	dec00504 	addi	sp,sp,20
 1804528:	f800283a 	ret
 180452c:	9009883a 	mov	r4,r18
 1804530:	18071d80 	call	18071d8 <_sbrk_r>
 1804534:	844dc83a 	sub	r6,r16,r17
 1804538:	00ffffc4 	movi	r3,-1
 180453c:	9009883a 	mov	r4,r18
 1804540:	000b883a 	mov	r5,zero
 1804544:	01c06074 	movhi	r7,385
 1804548:	39cb0604 	addi	r7,r7,11288
 180454c:	31800054 	ori	r6,r6,1
 1804550:	10c00926 	beq	r2,r3,1804578 <_malloc_trim_r+0xe8>
 1804554:	38800017 	ldw	r2,0(r7)
 1804558:	98c00217 	ldw	r3,8(r19)
 180455c:	9009883a 	mov	r4,r18
 1804560:	1445c83a 	sub	r2,r2,r17
 1804564:	38800015 	stw	r2,0(r7)
 1804568:	19800115 	stw	r6,4(r3)
 180456c:	180a2cc0 	call	180a2cc <__malloc_unlock>
 1804570:	00800044 	movi	r2,1
 1804574:	003fe606 	br	1804510 <_malloc_trim_r+0x80>
 1804578:	18071d80 	call	18071d8 <_sbrk_r>
 180457c:	99800217 	ldw	r6,8(r19)
 1804580:	100f883a 	mov	r7,r2
 1804584:	9009883a 	mov	r4,r18
 1804588:	1187c83a 	sub	r3,r2,r6
 180458c:	008003c4 	movi	r2,15
 1804590:	19400054 	ori	r5,r3,1
 1804594:	10ffdc0e 	bge	r2,r3,1804508 <_malloc_trim_r+0x78>
 1804598:	00806074 	movhi	r2,385
 180459c:	108ae904 	addi	r2,r2,11172
 18045a0:	10c00017 	ldw	r3,0(r2)
 18045a4:	00806074 	movhi	r2,385
 18045a8:	108b0604 	addi	r2,r2,11288
 18045ac:	31400115 	stw	r5,4(r6)
 18045b0:	38c7c83a 	sub	r3,r7,r3
 18045b4:	10c00015 	stw	r3,0(r2)
 18045b8:	003fd306 	br	1804508 <_malloc_trim_r+0x78>

018045bc <_free_r>:
 18045bc:	defffd04 	addi	sp,sp,-12
 18045c0:	dc400115 	stw	r17,4(sp)
 18045c4:	dc000015 	stw	r16,0(sp)
 18045c8:	dfc00215 	stw	ra,8(sp)
 18045cc:	2821883a 	mov	r16,r5
 18045d0:	2023883a 	mov	r17,r4
 18045d4:	28005a26 	beq	r5,zero,1804740 <_free_r+0x184>
 18045d8:	180a2ac0 	call	180a2ac <__malloc_lock>
 18045dc:	823ffe04 	addi	r8,r16,-8
 18045e0:	41400117 	ldw	r5,4(r8)
 18045e4:	00bfff84 	movi	r2,-2
 18045e8:	02806074 	movhi	r10,385
 18045ec:	5284b104 	addi	r10,r10,4804
 18045f0:	288e703a 	and	r7,r5,r2
 18045f4:	41cd883a 	add	r6,r8,r7
 18045f8:	30c00117 	ldw	r3,4(r6)
 18045fc:	51000217 	ldw	r4,8(r10)
 1804600:	00bfff04 	movi	r2,-4
 1804604:	1892703a 	and	r9,r3,r2
 1804608:	5017883a 	mov	r11,r10
 180460c:	31006726 	beq	r6,r4,18047ac <_free_r+0x1f0>
 1804610:	2880004c 	andi	r2,r5,1
 1804614:	1005003a 	cmpeq	r2,r2,zero
 1804618:	32400115 	stw	r9,4(r6)
 180461c:	10001a1e 	bne	r2,zero,1804688 <_free_r+0xcc>
 1804620:	000b883a 	mov	r5,zero
 1804624:	3247883a 	add	r3,r6,r9
 1804628:	18800117 	ldw	r2,4(r3)
 180462c:	1080004c 	andi	r2,r2,1
 1804630:	1000231e 	bne	r2,zero,18046c0 <_free_r+0x104>
 1804634:	280ac03a 	cmpne	r5,r5,zero
 1804638:	3a4f883a 	add	r7,r7,r9
 180463c:	2800451e 	bne	r5,zero,1804754 <_free_r+0x198>
 1804640:	31000217 	ldw	r4,8(r6)
 1804644:	00806074 	movhi	r2,385
 1804648:	1084b304 	addi	r2,r2,4812
 180464c:	20807b26 	beq	r4,r2,180483c <_free_r+0x280>
 1804650:	30800317 	ldw	r2,12(r6)
 1804654:	3a07883a 	add	r3,r7,r8
 1804658:	19c00015 	stw	r7,0(r3)
 180465c:	11000215 	stw	r4,8(r2)
 1804660:	20800315 	stw	r2,12(r4)
 1804664:	38800054 	ori	r2,r7,1
 1804668:	40800115 	stw	r2,4(r8)
 180466c:	28001a26 	beq	r5,zero,18046d8 <_free_r+0x11c>
 1804670:	8809883a 	mov	r4,r17
 1804674:	dfc00217 	ldw	ra,8(sp)
 1804678:	dc400117 	ldw	r17,4(sp)
 180467c:	dc000017 	ldw	r16,0(sp)
 1804680:	dec00304 	addi	sp,sp,12
 1804684:	180a2cc1 	jmpi	180a2cc <__malloc_unlock>
 1804688:	80bffe17 	ldw	r2,-8(r16)
 180468c:	50c00204 	addi	r3,r10,8
 1804690:	4091c83a 	sub	r8,r8,r2
 1804694:	41000217 	ldw	r4,8(r8)
 1804698:	388f883a 	add	r7,r7,r2
 180469c:	20c06126 	beq	r4,r3,1804824 <_free_r+0x268>
 18046a0:	40800317 	ldw	r2,12(r8)
 18046a4:	3247883a 	add	r3,r6,r9
 18046a8:	000b883a 	mov	r5,zero
 18046ac:	11000215 	stw	r4,8(r2)
 18046b0:	20800315 	stw	r2,12(r4)
 18046b4:	18800117 	ldw	r2,4(r3)
 18046b8:	1080004c 	andi	r2,r2,1
 18046bc:	103fdd26 	beq	r2,zero,1804634 <_free_r+0x78>
 18046c0:	38800054 	ori	r2,r7,1
 18046c4:	3a07883a 	add	r3,r7,r8
 18046c8:	280ac03a 	cmpne	r5,r5,zero
 18046cc:	40800115 	stw	r2,4(r8)
 18046d0:	19c00015 	stw	r7,0(r3)
 18046d4:	283fe61e 	bne	r5,zero,1804670 <_free_r+0xb4>
 18046d8:	00807fc4 	movi	r2,511
 18046dc:	11c01f2e 	bgeu	r2,r7,180475c <_free_r+0x1a0>
 18046e0:	3806d27a 	srli	r3,r7,9
 18046e4:	1800481e 	bne	r3,zero,1804808 <_free_r+0x24c>
 18046e8:	3804d0fa 	srli	r2,r7,3
 18046ec:	100690fa 	slli	r3,r2,3
 18046f0:	1acd883a 	add	r6,r3,r11
 18046f4:	31400217 	ldw	r5,8(r6)
 18046f8:	31405926 	beq	r6,r5,1804860 <_free_r+0x2a4>
 18046fc:	28800117 	ldw	r2,4(r5)
 1804700:	00ffff04 	movi	r3,-4
 1804704:	10c4703a 	and	r2,r2,r3
 1804708:	3880022e 	bgeu	r7,r2,1804714 <_free_r+0x158>
 180470c:	29400217 	ldw	r5,8(r5)
 1804710:	317ffa1e 	bne	r6,r5,18046fc <_free_r+0x140>
 1804714:	29800317 	ldw	r6,12(r5)
 1804718:	41800315 	stw	r6,12(r8)
 180471c:	41400215 	stw	r5,8(r8)
 1804720:	8809883a 	mov	r4,r17
 1804724:	2a000315 	stw	r8,12(r5)
 1804728:	32000215 	stw	r8,8(r6)
 180472c:	dfc00217 	ldw	ra,8(sp)
 1804730:	dc400117 	ldw	r17,4(sp)
 1804734:	dc000017 	ldw	r16,0(sp)
 1804738:	dec00304 	addi	sp,sp,12
 180473c:	180a2cc1 	jmpi	180a2cc <__malloc_unlock>
 1804740:	dfc00217 	ldw	ra,8(sp)
 1804744:	dc400117 	ldw	r17,4(sp)
 1804748:	dc000017 	ldw	r16,0(sp)
 180474c:	dec00304 	addi	sp,sp,12
 1804750:	f800283a 	ret
 1804754:	31000217 	ldw	r4,8(r6)
 1804758:	003fbd06 	br	1804650 <_free_r+0x94>
 180475c:	3806d0fa 	srli	r3,r7,3
 1804760:	00800044 	movi	r2,1
 1804764:	51400117 	ldw	r5,4(r10)
 1804768:	180890fa 	slli	r4,r3,3
 180476c:	1807d0ba 	srai	r3,r3,2
 1804770:	22c9883a 	add	r4,r4,r11
 1804774:	21800217 	ldw	r6,8(r4)
 1804778:	10c4983a 	sll	r2,r2,r3
 180477c:	41000315 	stw	r4,12(r8)
 1804780:	41800215 	stw	r6,8(r8)
 1804784:	288ab03a 	or	r5,r5,r2
 1804788:	22000215 	stw	r8,8(r4)
 180478c:	8809883a 	mov	r4,r17
 1804790:	51400115 	stw	r5,4(r10)
 1804794:	32000315 	stw	r8,12(r6)
 1804798:	dfc00217 	ldw	ra,8(sp)
 180479c:	dc400117 	ldw	r17,4(sp)
 18047a0:	dc000017 	ldw	r16,0(sp)
 18047a4:	dec00304 	addi	sp,sp,12
 18047a8:	180a2cc1 	jmpi	180a2cc <__malloc_unlock>
 18047ac:	2880004c 	andi	r2,r5,1
 18047b0:	3a4d883a 	add	r6,r7,r9
 18047b4:	1000071e 	bne	r2,zero,18047d4 <_free_r+0x218>
 18047b8:	80bffe17 	ldw	r2,-8(r16)
 18047bc:	4091c83a 	sub	r8,r8,r2
 18047c0:	41000317 	ldw	r4,12(r8)
 18047c4:	40c00217 	ldw	r3,8(r8)
 18047c8:	308d883a 	add	r6,r6,r2
 18047cc:	20c00215 	stw	r3,8(r4)
 18047d0:	19000315 	stw	r4,12(r3)
 18047d4:	00806074 	movhi	r2,385
 18047d8:	108ae804 	addi	r2,r2,11168
 18047dc:	11000017 	ldw	r4,0(r2)
 18047e0:	30c00054 	ori	r3,r6,1
 18047e4:	52000215 	stw	r8,8(r10)
 18047e8:	40c00115 	stw	r3,4(r8)
 18047ec:	313fa036 	bltu	r6,r4,1804670 <_free_r+0xb4>
 18047f0:	00806074 	movhi	r2,385
 18047f4:	108afb04 	addi	r2,r2,11244
 18047f8:	11400017 	ldw	r5,0(r2)
 18047fc:	8809883a 	mov	r4,r17
 1804800:	18044900 	call	1804490 <_malloc_trim_r>
 1804804:	003f9a06 	br	1804670 <_free_r+0xb4>
 1804808:	00800104 	movi	r2,4
 180480c:	10c0072e 	bgeu	r2,r3,180482c <_free_r+0x270>
 1804810:	00800504 	movi	r2,20
 1804814:	10c01936 	bltu	r2,r3,180487c <_free_r+0x2c0>
 1804818:	188016c4 	addi	r2,r3,91
 180481c:	100690fa 	slli	r3,r2,3
 1804820:	003fb306 	br	18046f0 <_free_r+0x134>
 1804824:	01400044 	movi	r5,1
 1804828:	003f7e06 	br	1804624 <_free_r+0x68>
 180482c:	3804d1ba 	srli	r2,r7,6
 1804830:	10800e04 	addi	r2,r2,56
 1804834:	100690fa 	slli	r3,r2,3
 1804838:	003fad06 	br	18046f0 <_free_r+0x134>
 180483c:	22000315 	stw	r8,12(r4)
 1804840:	22000215 	stw	r8,8(r4)
 1804844:	3a05883a 	add	r2,r7,r8
 1804848:	38c00054 	ori	r3,r7,1
 180484c:	11c00015 	stw	r7,0(r2)
 1804850:	41000215 	stw	r4,8(r8)
 1804854:	40c00115 	stw	r3,4(r8)
 1804858:	41000315 	stw	r4,12(r8)
 180485c:	003f8406 	br	1804670 <_free_r+0xb4>
 1804860:	1005d0ba 	srai	r2,r2,2
 1804864:	00c00044 	movi	r3,1
 1804868:	51000117 	ldw	r4,4(r10)
 180486c:	1886983a 	sll	r3,r3,r2
 1804870:	20c8b03a 	or	r4,r4,r3
 1804874:	51000115 	stw	r4,4(r10)
 1804878:	003fa706 	br	1804718 <_free_r+0x15c>
 180487c:	00801504 	movi	r2,84
 1804880:	10c00436 	bltu	r2,r3,1804894 <_free_r+0x2d8>
 1804884:	3804d33a 	srli	r2,r7,12
 1804888:	10801b84 	addi	r2,r2,110
 180488c:	100690fa 	slli	r3,r2,3
 1804890:	003f9706 	br	18046f0 <_free_r+0x134>
 1804894:	00805504 	movi	r2,340
 1804898:	10c00436 	bltu	r2,r3,18048ac <_free_r+0x2f0>
 180489c:	3804d3fa 	srli	r2,r7,15
 18048a0:	10801dc4 	addi	r2,r2,119
 18048a4:	100690fa 	slli	r3,r2,3
 18048a8:	003f9106 	br	18046f0 <_free_r+0x134>
 18048ac:	00815504 	movi	r2,1364
 18048b0:	10c0032e 	bgeu	r2,r3,18048c0 <_free_r+0x304>
 18048b4:	00801f84 	movi	r2,126
 18048b8:	00c0fc04 	movi	r3,1008
 18048bc:	003f8c06 	br	18046f0 <_free_r+0x134>
 18048c0:	3804d4ba 	srli	r2,r7,18
 18048c4:	10801f04 	addi	r2,r2,124
 18048c8:	100690fa 	slli	r3,r2,3
 18048cc:	003f8806 	br	18046f0 <_free_r+0x134>

018048d0 <__sfvwrite_r>:
 18048d0:	30800217 	ldw	r2,8(r6)
 18048d4:	defff504 	addi	sp,sp,-44
 18048d8:	df000915 	stw	fp,36(sp)
 18048dc:	dd800715 	stw	r22,28(sp)
 18048e0:	dc800315 	stw	r18,12(sp)
 18048e4:	dfc00a15 	stw	ra,40(sp)
 18048e8:	ddc00815 	stw	r23,32(sp)
 18048ec:	dd400615 	stw	r21,24(sp)
 18048f0:	dd000515 	stw	r20,20(sp)
 18048f4:	dcc00415 	stw	r19,16(sp)
 18048f8:	dc400215 	stw	r17,8(sp)
 18048fc:	dc000115 	stw	r16,4(sp)
 1804900:	302d883a 	mov	r22,r6
 1804904:	2039883a 	mov	fp,r4
 1804908:	2825883a 	mov	r18,r5
 180490c:	10001c26 	beq	r2,zero,1804980 <__sfvwrite_r+0xb0>
 1804910:	29c0030b 	ldhu	r7,12(r5)
 1804914:	3880020c 	andi	r2,r7,8
 1804918:	10002726 	beq	r2,zero,18049b8 <__sfvwrite_r+0xe8>
 180491c:	28800417 	ldw	r2,16(r5)
 1804920:	10002526 	beq	r2,zero,18049b8 <__sfvwrite_r+0xe8>
 1804924:	3880008c 	andi	r2,r7,2
 1804928:	b5400017 	ldw	r21,0(r22)
 180492c:	10002826 	beq	r2,zero,18049d0 <__sfvwrite_r+0x100>
 1804930:	0021883a 	mov	r16,zero
 1804934:	0023883a 	mov	r17,zero
 1804938:	880d883a 	mov	r6,r17
 180493c:	e009883a 	mov	r4,fp
 1804940:	00810004 	movi	r2,1024
 1804944:	80006e26 	beq	r16,zero,1804b00 <__sfvwrite_r+0x230>
 1804948:	800f883a 	mov	r7,r16
 180494c:	91400717 	ldw	r5,28(r18)
 1804950:	1400012e 	bgeu	r2,r16,1804958 <__sfvwrite_r+0x88>
 1804954:	100f883a 	mov	r7,r2
 1804958:	90c00917 	ldw	r3,36(r18)
 180495c:	183ee83a 	callr	r3
 1804960:	1007883a 	mov	r3,r2
 1804964:	80a1c83a 	sub	r16,r16,r2
 1804968:	88a3883a 	add	r17,r17,r2
 180496c:	00806d0e 	bge	zero,r2,1804b24 <__sfvwrite_r+0x254>
 1804970:	b0800217 	ldw	r2,8(r22)
 1804974:	10c5c83a 	sub	r2,r2,r3
 1804978:	b0800215 	stw	r2,8(r22)
 180497c:	103fee1e 	bne	r2,zero,1804938 <__sfvwrite_r+0x68>
 1804980:	0009883a 	mov	r4,zero
 1804984:	2005883a 	mov	r2,r4
 1804988:	dfc00a17 	ldw	ra,40(sp)
 180498c:	df000917 	ldw	fp,36(sp)
 1804990:	ddc00817 	ldw	r23,32(sp)
 1804994:	dd800717 	ldw	r22,28(sp)
 1804998:	dd400617 	ldw	r21,24(sp)
 180499c:	dd000517 	ldw	r20,20(sp)
 18049a0:	dcc00417 	ldw	r19,16(sp)
 18049a4:	dc800317 	ldw	r18,12(sp)
 18049a8:	dc400217 	ldw	r17,8(sp)
 18049ac:	dc000117 	ldw	r16,4(sp)
 18049b0:	dec00b04 	addi	sp,sp,44
 18049b4:	f800283a 	ret
 18049b8:	18026980 	call	1802698 <__swsetup_r>
 18049bc:	1000e41e 	bne	r2,zero,1804d50 <__sfvwrite_r+0x480>
 18049c0:	91c0030b 	ldhu	r7,12(r18)
 18049c4:	b5400017 	ldw	r21,0(r22)
 18049c8:	3880008c 	andi	r2,r7,2
 18049cc:	103fd81e 	bne	r2,zero,1804930 <__sfvwrite_r+0x60>
 18049d0:	3880004c 	andi	r2,r7,1
 18049d4:	1005003a 	cmpeq	r2,r2,zero
 18049d8:	10005726 	beq	r2,zero,1804b38 <__sfvwrite_r+0x268>
 18049dc:	0029883a 	mov	r20,zero
 18049e0:	002f883a 	mov	r23,zero
 18049e4:	a0004226 	beq	r20,zero,1804af0 <__sfvwrite_r+0x220>
 18049e8:	3880800c 	andi	r2,r7,512
 18049ec:	94000217 	ldw	r16,8(r18)
 18049f0:	10008b26 	beq	r2,zero,1804c20 <__sfvwrite_r+0x350>
 18049f4:	800d883a 	mov	r6,r16
 18049f8:	a400a536 	bltu	r20,r16,1804c90 <__sfvwrite_r+0x3c0>
 18049fc:	3881200c 	andi	r2,r7,1152
 1804a00:	10002726 	beq	r2,zero,1804aa0 <__sfvwrite_r+0x1d0>
 1804a04:	90800517 	ldw	r2,20(r18)
 1804a08:	92000417 	ldw	r8,16(r18)
 1804a0c:	91400017 	ldw	r5,0(r18)
 1804a10:	1087883a 	add	r3,r2,r2
 1804a14:	1887883a 	add	r3,r3,r2
 1804a18:	1808d7fa 	srli	r4,r3,31
 1804a1c:	2a21c83a 	sub	r16,r5,r8
 1804a20:	80800044 	addi	r2,r16,1
 1804a24:	20c9883a 	add	r4,r4,r3
 1804a28:	2027d07a 	srai	r19,r4,1
 1804a2c:	a085883a 	add	r2,r20,r2
 1804a30:	980d883a 	mov	r6,r19
 1804a34:	9880022e 	bgeu	r19,r2,1804a40 <__sfvwrite_r+0x170>
 1804a38:	1027883a 	mov	r19,r2
 1804a3c:	100d883a 	mov	r6,r2
 1804a40:	3881000c 	andi	r2,r7,1024
 1804a44:	1000b826 	beq	r2,zero,1804d28 <__sfvwrite_r+0x458>
 1804a48:	300b883a 	mov	r5,r6
 1804a4c:	e009883a 	mov	r4,fp
 1804a50:	18051440 	call	1805144 <_malloc_r>
 1804a54:	10003126 	beq	r2,zero,1804b1c <__sfvwrite_r+0x24c>
 1804a58:	91400417 	ldw	r5,16(r18)
 1804a5c:	1009883a 	mov	r4,r2
 1804a60:	800d883a 	mov	r6,r16
 1804a64:	1023883a 	mov	r17,r2
 1804a68:	18059680 	call	1805968 <memcpy>
 1804a6c:	90c0030b 	ldhu	r3,12(r18)
 1804a70:	00beffc4 	movi	r2,-1025
 1804a74:	1886703a 	and	r3,r3,r2
 1804a78:	18c02014 	ori	r3,r3,128
 1804a7c:	90c0030d 	sth	r3,12(r18)
 1804a80:	9c07c83a 	sub	r3,r19,r16
 1804a84:	8c05883a 	add	r2,r17,r16
 1804a88:	a00d883a 	mov	r6,r20
 1804a8c:	a021883a 	mov	r16,r20
 1804a90:	90800015 	stw	r2,0(r18)
 1804a94:	90c00215 	stw	r3,8(r18)
 1804a98:	94400415 	stw	r17,16(r18)
 1804a9c:	94c00515 	stw	r19,20(r18)
 1804aa0:	91000017 	ldw	r4,0(r18)
 1804aa4:	b80b883a 	mov	r5,r23
 1804aa8:	a023883a 	mov	r17,r20
 1804aac:	1805a080 	call	1805a08 <memmove>
 1804ab0:	90c00217 	ldw	r3,8(r18)
 1804ab4:	90800017 	ldw	r2,0(r18)
 1804ab8:	a027883a 	mov	r19,r20
 1804abc:	1c07c83a 	sub	r3,r3,r16
 1804ac0:	1405883a 	add	r2,r2,r16
 1804ac4:	90c00215 	stw	r3,8(r18)
 1804ac8:	a021883a 	mov	r16,r20
 1804acc:	90800015 	stw	r2,0(r18)
 1804ad0:	b0800217 	ldw	r2,8(r22)
 1804ad4:	1405c83a 	sub	r2,r2,r16
 1804ad8:	b0800215 	stw	r2,8(r22)
 1804adc:	103fa826 	beq	r2,zero,1804980 <__sfvwrite_r+0xb0>
 1804ae0:	a469c83a 	sub	r20,r20,r17
 1804ae4:	91c0030b 	ldhu	r7,12(r18)
 1804ae8:	bcef883a 	add	r23,r23,r19
 1804aec:	a03fbe1e 	bne	r20,zero,18049e8 <__sfvwrite_r+0x118>
 1804af0:	adc00017 	ldw	r23,0(r21)
 1804af4:	ad000117 	ldw	r20,4(r21)
 1804af8:	ad400204 	addi	r21,r21,8
 1804afc:	003fb906 	br	18049e4 <__sfvwrite_r+0x114>
 1804b00:	ac400017 	ldw	r17,0(r21)
 1804b04:	ac000117 	ldw	r16,4(r21)
 1804b08:	ad400204 	addi	r21,r21,8
 1804b0c:	003f8a06 	br	1804938 <__sfvwrite_r+0x68>
 1804b10:	91400417 	ldw	r5,16(r18)
 1804b14:	e009883a 	mov	r4,fp
 1804b18:	18045bc0 	call	18045bc <_free_r>
 1804b1c:	00800304 	movi	r2,12
 1804b20:	e0800015 	stw	r2,0(fp)
 1804b24:	9080030b 	ldhu	r2,12(r18)
 1804b28:	013fffc4 	movi	r4,-1
 1804b2c:	10801014 	ori	r2,r2,64
 1804b30:	9080030d 	sth	r2,12(r18)
 1804b34:	003f9306 	br	1804984 <__sfvwrite_r+0xb4>
 1804b38:	0027883a 	mov	r19,zero
 1804b3c:	002f883a 	mov	r23,zero
 1804b40:	d8000015 	stw	zero,0(sp)
 1804b44:	0029883a 	mov	r20,zero
 1804b48:	98001e26 	beq	r19,zero,1804bc4 <__sfvwrite_r+0x2f4>
 1804b4c:	d8c00017 	ldw	r3,0(sp)
 1804b50:	1804c03a 	cmpne	r2,r3,zero
 1804b54:	10005e26 	beq	r2,zero,1804cd0 <__sfvwrite_r+0x400>
 1804b58:	9821883a 	mov	r16,r19
 1804b5c:	a4c0012e 	bgeu	r20,r19,1804b64 <__sfvwrite_r+0x294>
 1804b60:	a021883a 	mov	r16,r20
 1804b64:	91000017 	ldw	r4,0(r18)
 1804b68:	90800417 	ldw	r2,16(r18)
 1804b6c:	91800217 	ldw	r6,8(r18)
 1804b70:	91c00517 	ldw	r7,20(r18)
 1804b74:	1100022e 	bgeu	r2,r4,1804b80 <__sfvwrite_r+0x2b0>
 1804b78:	31e3883a 	add	r17,r6,r7
 1804b7c:	8c001616 	blt	r17,r16,1804bd8 <__sfvwrite_r+0x308>
 1804b80:	81c03816 	blt	r16,r7,1804c64 <__sfvwrite_r+0x394>
 1804b84:	90c00917 	ldw	r3,36(r18)
 1804b88:	91400717 	ldw	r5,28(r18)
 1804b8c:	e009883a 	mov	r4,fp
 1804b90:	b80d883a 	mov	r6,r23
 1804b94:	183ee83a 	callr	r3
 1804b98:	1023883a 	mov	r17,r2
 1804b9c:	00bfe10e 	bge	zero,r2,1804b24 <__sfvwrite_r+0x254>
 1804ba0:	a469c83a 	sub	r20,r20,r17
 1804ba4:	a0001826 	beq	r20,zero,1804c08 <__sfvwrite_r+0x338>
 1804ba8:	b0800217 	ldw	r2,8(r22)
 1804bac:	1445c83a 	sub	r2,r2,r17
 1804bb0:	b0800215 	stw	r2,8(r22)
 1804bb4:	103f7226 	beq	r2,zero,1804980 <__sfvwrite_r+0xb0>
 1804bb8:	9c67c83a 	sub	r19,r19,r17
 1804bbc:	bc6f883a 	add	r23,r23,r17
 1804bc0:	983fe21e 	bne	r19,zero,1804b4c <__sfvwrite_r+0x27c>
 1804bc4:	adc00017 	ldw	r23,0(r21)
 1804bc8:	acc00117 	ldw	r19,4(r21)
 1804bcc:	ad400204 	addi	r21,r21,8
 1804bd0:	d8000015 	stw	zero,0(sp)
 1804bd4:	003fdc06 	br	1804b48 <__sfvwrite_r+0x278>
 1804bd8:	b80b883a 	mov	r5,r23
 1804bdc:	880d883a 	mov	r6,r17
 1804be0:	1805a080 	call	1805a08 <memmove>
 1804be4:	90c00017 	ldw	r3,0(r18)
 1804be8:	e009883a 	mov	r4,fp
 1804bec:	900b883a 	mov	r5,r18
 1804bf0:	1c47883a 	add	r3,r3,r17
 1804bf4:	90c00015 	stw	r3,0(r18)
 1804bf8:	1803fa00 	call	1803fa0 <_fflush_r>
 1804bfc:	103fc91e 	bne	r2,zero,1804b24 <__sfvwrite_r+0x254>
 1804c00:	a469c83a 	sub	r20,r20,r17
 1804c04:	a03fe81e 	bne	r20,zero,1804ba8 <__sfvwrite_r+0x2d8>
 1804c08:	e009883a 	mov	r4,fp
 1804c0c:	900b883a 	mov	r5,r18
 1804c10:	1803fa00 	call	1803fa0 <_fflush_r>
 1804c14:	103fc31e 	bne	r2,zero,1804b24 <__sfvwrite_r+0x254>
 1804c18:	d8000015 	stw	zero,0(sp)
 1804c1c:	003fe206 	br	1804ba8 <__sfvwrite_r+0x2d8>
 1804c20:	91000017 	ldw	r4,0(r18)
 1804c24:	90800417 	ldw	r2,16(r18)
 1804c28:	1100022e 	bgeu	r2,r4,1804c34 <__sfvwrite_r+0x364>
 1804c2c:	8023883a 	mov	r17,r16
 1804c30:	85003136 	bltu	r16,r20,1804cf8 <__sfvwrite_r+0x428>
 1804c34:	91c00517 	ldw	r7,20(r18)
 1804c38:	a1c01836 	bltu	r20,r7,1804c9c <__sfvwrite_r+0x3cc>
 1804c3c:	90c00917 	ldw	r3,36(r18)
 1804c40:	91400717 	ldw	r5,28(r18)
 1804c44:	e009883a 	mov	r4,fp
 1804c48:	b80d883a 	mov	r6,r23
 1804c4c:	183ee83a 	callr	r3
 1804c50:	1021883a 	mov	r16,r2
 1804c54:	00bfb30e 	bge	zero,r2,1804b24 <__sfvwrite_r+0x254>
 1804c58:	1023883a 	mov	r17,r2
 1804c5c:	1027883a 	mov	r19,r2
 1804c60:	003f9b06 	br	1804ad0 <__sfvwrite_r+0x200>
 1804c64:	b80b883a 	mov	r5,r23
 1804c68:	800d883a 	mov	r6,r16
 1804c6c:	1805a080 	call	1805a08 <memmove>
 1804c70:	90c00217 	ldw	r3,8(r18)
 1804c74:	90800017 	ldw	r2,0(r18)
 1804c78:	8023883a 	mov	r17,r16
 1804c7c:	1c07c83a 	sub	r3,r3,r16
 1804c80:	1405883a 	add	r2,r2,r16
 1804c84:	90c00215 	stw	r3,8(r18)
 1804c88:	90800015 	stw	r2,0(r18)
 1804c8c:	003fc406 	br	1804ba0 <__sfvwrite_r+0x2d0>
 1804c90:	a00d883a 	mov	r6,r20
 1804c94:	a021883a 	mov	r16,r20
 1804c98:	003f8106 	br	1804aa0 <__sfvwrite_r+0x1d0>
 1804c9c:	b80b883a 	mov	r5,r23
 1804ca0:	a00d883a 	mov	r6,r20
 1804ca4:	1805a080 	call	1805a08 <memmove>
 1804ca8:	90c00217 	ldw	r3,8(r18)
 1804cac:	90800017 	ldw	r2,0(r18)
 1804cb0:	a021883a 	mov	r16,r20
 1804cb4:	1d07c83a 	sub	r3,r3,r20
 1804cb8:	1505883a 	add	r2,r2,r20
 1804cbc:	a023883a 	mov	r17,r20
 1804cc0:	a027883a 	mov	r19,r20
 1804cc4:	90c00215 	stw	r3,8(r18)
 1804cc8:	90800015 	stw	r2,0(r18)
 1804ccc:	003f8006 	br	1804ad0 <__sfvwrite_r+0x200>
 1804cd0:	b809883a 	mov	r4,r23
 1804cd4:	01400284 	movi	r5,10
 1804cd8:	980d883a 	mov	r6,r19
 1804cdc:	18058840 	call	1805884 <memchr>
 1804ce0:	10001726 	beq	r2,zero,1804d40 <__sfvwrite_r+0x470>
 1804ce4:	15c5c83a 	sub	r2,r2,r23
 1804ce8:	15000044 	addi	r20,r2,1
 1804cec:	00800044 	movi	r2,1
 1804cf0:	d8800015 	stw	r2,0(sp)
 1804cf4:	003f9806 	br	1804b58 <__sfvwrite_r+0x288>
 1804cf8:	b80b883a 	mov	r5,r23
 1804cfc:	800d883a 	mov	r6,r16
 1804d00:	1805a080 	call	1805a08 <memmove>
 1804d04:	90c00017 	ldw	r3,0(r18)
 1804d08:	e009883a 	mov	r4,fp
 1804d0c:	900b883a 	mov	r5,r18
 1804d10:	1c07883a 	add	r3,r3,r16
 1804d14:	90c00015 	stw	r3,0(r18)
 1804d18:	8027883a 	mov	r19,r16
 1804d1c:	1803fa00 	call	1803fa0 <_fflush_r>
 1804d20:	103f6b26 	beq	r2,zero,1804ad0 <__sfvwrite_r+0x200>
 1804d24:	003f7f06 	br	1804b24 <__sfvwrite_r+0x254>
 1804d28:	400b883a 	mov	r5,r8
 1804d2c:	e009883a 	mov	r4,fp
 1804d30:	1806b740 	call	1806b74 <_realloc_r>
 1804d34:	103f7626 	beq	r2,zero,1804b10 <__sfvwrite_r+0x240>
 1804d38:	1023883a 	mov	r17,r2
 1804d3c:	003f5006 	br	1804a80 <__sfvwrite_r+0x1b0>
 1804d40:	00c00044 	movi	r3,1
 1804d44:	9d000044 	addi	r20,r19,1
 1804d48:	d8c00015 	stw	r3,0(sp)
 1804d4c:	003f8206 	br	1804b58 <__sfvwrite_r+0x288>
 1804d50:	9080030b 	ldhu	r2,12(r18)
 1804d54:	00c00244 	movi	r3,9
 1804d58:	013fffc4 	movi	r4,-1
 1804d5c:	10801014 	ori	r2,r2,64
 1804d60:	9080030d 	sth	r2,12(r18)
 1804d64:	e0c00015 	stw	r3,0(fp)
 1804d68:	003f0606 	br	1804984 <__sfvwrite_r+0xb4>

01804d6c <_fwalk_reent>:
 1804d6c:	defff704 	addi	sp,sp,-36
 1804d70:	dcc00315 	stw	r19,12(sp)
 1804d74:	24c0b804 	addi	r19,r4,736
 1804d78:	dd800615 	stw	r22,24(sp)
 1804d7c:	dd400515 	stw	r21,20(sp)
 1804d80:	dfc00815 	stw	ra,32(sp)
 1804d84:	ddc00715 	stw	r23,28(sp)
 1804d88:	dd000415 	stw	r20,16(sp)
 1804d8c:	dc800215 	stw	r18,8(sp)
 1804d90:	dc400115 	stw	r17,4(sp)
 1804d94:	dc000015 	stw	r16,0(sp)
 1804d98:	202b883a 	mov	r21,r4
 1804d9c:	282d883a 	mov	r22,r5
 1804da0:	18042280 	call	1804228 <__sfp_lock_acquire>
 1804da4:	98002126 	beq	r19,zero,1804e2c <_fwalk_reent+0xc0>
 1804da8:	002f883a 	mov	r23,zero
 1804dac:	9c800117 	ldw	r18,4(r19)
 1804db0:	9c000217 	ldw	r16,8(r19)
 1804db4:	90bfffc4 	addi	r2,r18,-1
 1804db8:	10000d16 	blt	r2,zero,1804df0 <_fwalk_reent+0x84>
 1804dbc:	0023883a 	mov	r17,zero
 1804dc0:	053fffc4 	movi	r20,-1
 1804dc4:	8080030f 	ldh	r2,12(r16)
 1804dc8:	8c400044 	addi	r17,r17,1
 1804dcc:	10000626 	beq	r2,zero,1804de8 <_fwalk_reent+0x7c>
 1804dd0:	8080038f 	ldh	r2,14(r16)
 1804dd4:	800b883a 	mov	r5,r16
 1804dd8:	a809883a 	mov	r4,r21
 1804ddc:	15000226 	beq	r2,r20,1804de8 <_fwalk_reent+0x7c>
 1804de0:	b03ee83a 	callr	r22
 1804de4:	b8aeb03a 	or	r23,r23,r2
 1804de8:	84001704 	addi	r16,r16,92
 1804dec:	947ff51e 	bne	r18,r17,1804dc4 <_fwalk_reent+0x58>
 1804df0:	9cc00017 	ldw	r19,0(r19)
 1804df4:	983fed1e 	bne	r19,zero,1804dac <_fwalk_reent+0x40>
 1804df8:	180422c0 	call	180422c <__sfp_lock_release>
 1804dfc:	b805883a 	mov	r2,r23
 1804e00:	dfc00817 	ldw	ra,32(sp)
 1804e04:	ddc00717 	ldw	r23,28(sp)
 1804e08:	dd800617 	ldw	r22,24(sp)
 1804e0c:	dd400517 	ldw	r21,20(sp)
 1804e10:	dd000417 	ldw	r20,16(sp)
 1804e14:	dcc00317 	ldw	r19,12(sp)
 1804e18:	dc800217 	ldw	r18,8(sp)
 1804e1c:	dc400117 	ldw	r17,4(sp)
 1804e20:	dc000017 	ldw	r16,0(sp)
 1804e24:	dec00904 	addi	sp,sp,36
 1804e28:	f800283a 	ret
 1804e2c:	002f883a 	mov	r23,zero
 1804e30:	003ff106 	br	1804df8 <_fwalk_reent+0x8c>

01804e34 <_fwalk>:
 1804e34:	defff804 	addi	sp,sp,-32
 1804e38:	dcc00315 	stw	r19,12(sp)
 1804e3c:	24c0b804 	addi	r19,r4,736
 1804e40:	dd400515 	stw	r21,20(sp)
 1804e44:	dfc00715 	stw	ra,28(sp)
 1804e48:	dd800615 	stw	r22,24(sp)
 1804e4c:	dd000415 	stw	r20,16(sp)
 1804e50:	dc800215 	stw	r18,8(sp)
 1804e54:	dc400115 	stw	r17,4(sp)
 1804e58:	dc000015 	stw	r16,0(sp)
 1804e5c:	282b883a 	mov	r21,r5
 1804e60:	18042280 	call	1804228 <__sfp_lock_acquire>
 1804e64:	98001f26 	beq	r19,zero,1804ee4 <_fwalk+0xb0>
 1804e68:	002d883a 	mov	r22,zero
 1804e6c:	9c800117 	ldw	r18,4(r19)
 1804e70:	9c000217 	ldw	r16,8(r19)
 1804e74:	90bfffc4 	addi	r2,r18,-1
 1804e78:	10000c16 	blt	r2,zero,1804eac <_fwalk+0x78>
 1804e7c:	0023883a 	mov	r17,zero
 1804e80:	053fffc4 	movi	r20,-1
 1804e84:	8080030f 	ldh	r2,12(r16)
 1804e88:	8c400044 	addi	r17,r17,1
 1804e8c:	10000526 	beq	r2,zero,1804ea4 <_fwalk+0x70>
 1804e90:	8080038f 	ldh	r2,14(r16)
 1804e94:	8009883a 	mov	r4,r16
 1804e98:	15000226 	beq	r2,r20,1804ea4 <_fwalk+0x70>
 1804e9c:	a83ee83a 	callr	r21
 1804ea0:	b0acb03a 	or	r22,r22,r2
 1804ea4:	84001704 	addi	r16,r16,92
 1804ea8:	947ff61e 	bne	r18,r17,1804e84 <_fwalk+0x50>
 1804eac:	9cc00017 	ldw	r19,0(r19)
 1804eb0:	983fee1e 	bne	r19,zero,1804e6c <_fwalk+0x38>
 1804eb4:	180422c0 	call	180422c <__sfp_lock_release>
 1804eb8:	b005883a 	mov	r2,r22
 1804ebc:	dfc00717 	ldw	ra,28(sp)
 1804ec0:	dd800617 	ldw	r22,24(sp)
 1804ec4:	dd400517 	ldw	r21,20(sp)
 1804ec8:	dd000417 	ldw	r20,16(sp)
 1804ecc:	dcc00317 	ldw	r19,12(sp)
 1804ed0:	dc800217 	ldw	r18,8(sp)
 1804ed4:	dc400117 	ldw	r17,4(sp)
 1804ed8:	dc000017 	ldw	r16,0(sp)
 1804edc:	dec00804 	addi	sp,sp,32
 1804ee0:	f800283a 	ret
 1804ee4:	002d883a 	mov	r22,zero
 1804ee8:	003ff206 	br	1804eb4 <_fwalk+0x80>

01804eec <__locale_charset>:
 1804eec:	d0a00317 	ldw	r2,-32756(gp)
 1804ef0:	f800283a 	ret

01804ef4 <_localeconv_r>:
 1804ef4:	00806074 	movhi	r2,385
 1804ef8:	10825e04 	addi	r2,r2,2424
 1804efc:	f800283a 	ret

01804f00 <localeconv>:
 1804f00:	00806074 	movhi	r2,385
 1804f04:	108ae404 	addi	r2,r2,11152
 1804f08:	11000017 	ldw	r4,0(r2)
 1804f0c:	1804ef41 	jmpi	1804ef4 <_localeconv_r>

01804f10 <_setlocale_r>:
 1804f10:	defffc04 	addi	sp,sp,-16
 1804f14:	00c06074 	movhi	r3,385
 1804f18:	18c25904 	addi	r3,r3,2404
 1804f1c:	dc800215 	stw	r18,8(sp)
 1804f20:	dc400115 	stw	r17,4(sp)
 1804f24:	dc000015 	stw	r16,0(sp)
 1804f28:	2023883a 	mov	r17,r4
 1804f2c:	2825883a 	mov	r18,r5
 1804f30:	dfc00315 	stw	ra,12(sp)
 1804f34:	3021883a 	mov	r16,r6
 1804f38:	3009883a 	mov	r4,r6
 1804f3c:	180b883a 	mov	r5,r3
 1804f40:	30000926 	beq	r6,zero,1804f68 <_setlocale_r+0x58>
 1804f44:	18073940 	call	1807394 <strcmp>
 1804f48:	8009883a 	mov	r4,r16
 1804f4c:	01406074 	movhi	r5,385
 1804f50:	29424404 	addi	r5,r5,2320
 1804f54:	10000b1e 	bne	r2,zero,1804f84 <_setlocale_r+0x74>
 1804f58:	8c000d15 	stw	r16,52(r17)
 1804f5c:	8c800c15 	stw	r18,48(r17)
 1804f60:	00c06074 	movhi	r3,385
 1804f64:	18c25904 	addi	r3,r3,2404
 1804f68:	1805883a 	mov	r2,r3
 1804f6c:	dfc00317 	ldw	ra,12(sp)
 1804f70:	dc800217 	ldw	r18,8(sp)
 1804f74:	dc400117 	ldw	r17,4(sp)
 1804f78:	dc000017 	ldw	r16,0(sp)
 1804f7c:	dec00404 	addi	sp,sp,16
 1804f80:	f800283a 	ret
 1804f84:	18073940 	call	1807394 <strcmp>
 1804f88:	0007883a 	mov	r3,zero
 1804f8c:	103ff226 	beq	r2,zero,1804f58 <_setlocale_r+0x48>
 1804f90:	003ff506 	br	1804f68 <_setlocale_r+0x58>

01804f94 <setlocale>:
 1804f94:	01806074 	movhi	r6,385
 1804f98:	318ae404 	addi	r6,r6,11152
 1804f9c:	2007883a 	mov	r3,r4
 1804fa0:	31000017 	ldw	r4,0(r6)
 1804fa4:	280d883a 	mov	r6,r5
 1804fa8:	180b883a 	mov	r5,r3
 1804fac:	1804f101 	jmpi	1804f10 <_setlocale_r>

01804fb0 <__smakebuf_r>:
 1804fb0:	2880030b 	ldhu	r2,12(r5)
 1804fb4:	deffed04 	addi	sp,sp,-76
 1804fb8:	dc401015 	stw	r17,64(sp)
 1804fbc:	1080008c 	andi	r2,r2,2
 1804fc0:	dc000f15 	stw	r16,60(sp)
 1804fc4:	dfc01215 	stw	ra,72(sp)
 1804fc8:	dc801115 	stw	r18,68(sp)
 1804fcc:	2821883a 	mov	r16,r5
 1804fd0:	2023883a 	mov	r17,r4
 1804fd4:	10000b26 	beq	r2,zero,1805004 <__smakebuf_r+0x54>
 1804fd8:	28c010c4 	addi	r3,r5,67
 1804fdc:	00800044 	movi	r2,1
 1804fe0:	28800515 	stw	r2,20(r5)
 1804fe4:	28c00415 	stw	r3,16(r5)
 1804fe8:	28c00015 	stw	r3,0(r5)
 1804fec:	dfc01217 	ldw	ra,72(sp)
 1804ff0:	dc801117 	ldw	r18,68(sp)
 1804ff4:	dc401017 	ldw	r17,64(sp)
 1804ff8:	dc000f17 	ldw	r16,60(sp)
 1804ffc:	dec01304 	addi	sp,sp,76
 1805000:	f800283a 	ret
 1805004:	2940038f 	ldh	r5,14(r5)
 1805008:	28002116 	blt	r5,zero,1805090 <__smakebuf_r+0xe0>
 180500c:	d80d883a 	mov	r6,sp
 1805010:	18077100 	call	1807710 <_fstat_r>
 1805014:	10001e16 	blt	r2,zero,1805090 <__smakebuf_r+0xe0>
 1805018:	d8800117 	ldw	r2,4(sp)
 180501c:	00e00014 	movui	r3,32768
 1805020:	113c000c 	andi	r4,r2,61440
 1805024:	20c03126 	beq	r4,r3,18050ec <__smakebuf_r+0x13c>
 1805028:	8080030b 	ldhu	r2,12(r16)
 180502c:	00c80004 	movi	r3,8192
 1805030:	10820014 	ori	r2,r2,2048
 1805034:	8080030d 	sth	r2,12(r16)
 1805038:	20c01e26 	beq	r4,r3,18050b4 <__smakebuf_r+0x104>
 180503c:	04810004 	movi	r18,1024
 1805040:	8809883a 	mov	r4,r17
 1805044:	900b883a 	mov	r5,r18
 1805048:	18051440 	call	1805144 <_malloc_r>
 180504c:	1009883a 	mov	r4,r2
 1805050:	10003126 	beq	r2,zero,1805118 <__smakebuf_r+0x168>
 1805054:	80c0030b 	ldhu	r3,12(r16)
 1805058:	00806034 	movhi	r2,384
 180505c:	1090c704 	addi	r2,r2,17180
 1805060:	88800f15 	stw	r2,60(r17)
 1805064:	18c02014 	ori	r3,r3,128
 1805068:	84800515 	stw	r18,20(r16)
 180506c:	80c0030d 	sth	r3,12(r16)
 1805070:	81000415 	stw	r4,16(r16)
 1805074:	81000015 	stw	r4,0(r16)
 1805078:	dfc01217 	ldw	ra,72(sp)
 180507c:	dc801117 	ldw	r18,68(sp)
 1805080:	dc401017 	ldw	r17,64(sp)
 1805084:	dc000f17 	ldw	r16,60(sp)
 1805088:	dec01304 	addi	sp,sp,76
 180508c:	f800283a 	ret
 1805090:	80c0030b 	ldhu	r3,12(r16)
 1805094:	1880200c 	andi	r2,r3,128
 1805098:	10000426 	beq	r2,zero,18050ac <__smakebuf_r+0xfc>
 180509c:	04801004 	movi	r18,64
 18050a0:	18820014 	ori	r2,r3,2048
 18050a4:	8080030d 	sth	r2,12(r16)
 18050a8:	003fe506 	br	1805040 <__smakebuf_r+0x90>
 18050ac:	04810004 	movi	r18,1024
 18050b0:	003ffb06 	br	18050a0 <__smakebuf_r+0xf0>
 18050b4:	8140038f 	ldh	r5,14(r16)
 18050b8:	8809883a 	mov	r4,r17
 18050bc:	18077840 	call	1807784 <_isatty_r>
 18050c0:	103fde26 	beq	r2,zero,180503c <__smakebuf_r+0x8c>
 18050c4:	8080030b 	ldhu	r2,12(r16)
 18050c8:	80c010c4 	addi	r3,r16,67
 18050cc:	04810004 	movi	r18,1024
 18050d0:	10800054 	ori	r2,r2,1
 18050d4:	8080030d 	sth	r2,12(r16)
 18050d8:	00800044 	movi	r2,1
 18050dc:	80c00415 	stw	r3,16(r16)
 18050e0:	80800515 	stw	r2,20(r16)
 18050e4:	80c00015 	stw	r3,0(r16)
 18050e8:	003fd506 	br	1805040 <__smakebuf_r+0x90>
 18050ec:	80c00a17 	ldw	r3,40(r16)
 18050f0:	00806034 	movhi	r2,384
 18050f4:	109c9404 	addi	r2,r2,29264
 18050f8:	18bfcb1e 	bne	r3,r2,1805028 <__smakebuf_r+0x78>
 18050fc:	8080030b 	ldhu	r2,12(r16)
 1805100:	00c10004 	movi	r3,1024
 1805104:	1825883a 	mov	r18,r3
 1805108:	10c4b03a 	or	r2,r2,r3
 180510c:	8080030d 	sth	r2,12(r16)
 1805110:	80c01315 	stw	r3,76(r16)
 1805114:	003fca06 	br	1805040 <__smakebuf_r+0x90>
 1805118:	8100030b 	ldhu	r4,12(r16)
 180511c:	2080800c 	andi	r2,r4,512
 1805120:	103fb21e 	bne	r2,zero,1804fec <__smakebuf_r+0x3c>
 1805124:	80c010c4 	addi	r3,r16,67
 1805128:	21000094 	ori	r4,r4,2
 180512c:	00800044 	movi	r2,1
 1805130:	80800515 	stw	r2,20(r16)
 1805134:	8100030d 	sth	r4,12(r16)
 1805138:	80c00415 	stw	r3,16(r16)
 180513c:	80c00015 	stw	r3,0(r16)
 1805140:	003faa06 	br	1804fec <__smakebuf_r+0x3c>

01805144 <_malloc_r>:
 1805144:	defff604 	addi	sp,sp,-40
 1805148:	28c002c4 	addi	r3,r5,11
 180514c:	00800584 	movi	r2,22
 1805150:	dc800215 	stw	r18,8(sp)
 1805154:	dfc00915 	stw	ra,36(sp)
 1805158:	df000815 	stw	fp,32(sp)
 180515c:	ddc00715 	stw	r23,28(sp)
 1805160:	dd800615 	stw	r22,24(sp)
 1805164:	dd400515 	stw	r21,20(sp)
 1805168:	dd000415 	stw	r20,16(sp)
 180516c:	dcc00315 	stw	r19,12(sp)
 1805170:	dc400115 	stw	r17,4(sp)
 1805174:	dc000015 	stw	r16,0(sp)
 1805178:	2025883a 	mov	r18,r4
 180517c:	10c01236 	bltu	r2,r3,18051c8 <_malloc_r+0x84>
 1805180:	04400404 	movi	r17,16
 1805184:	8940142e 	bgeu	r17,r5,18051d8 <_malloc_r+0x94>
 1805188:	00800304 	movi	r2,12
 180518c:	0007883a 	mov	r3,zero
 1805190:	90800015 	stw	r2,0(r18)
 1805194:	1805883a 	mov	r2,r3
 1805198:	dfc00917 	ldw	ra,36(sp)
 180519c:	df000817 	ldw	fp,32(sp)
 18051a0:	ddc00717 	ldw	r23,28(sp)
 18051a4:	dd800617 	ldw	r22,24(sp)
 18051a8:	dd400517 	ldw	r21,20(sp)
 18051ac:	dd000417 	ldw	r20,16(sp)
 18051b0:	dcc00317 	ldw	r19,12(sp)
 18051b4:	dc800217 	ldw	r18,8(sp)
 18051b8:	dc400117 	ldw	r17,4(sp)
 18051bc:	dc000017 	ldw	r16,0(sp)
 18051c0:	dec00a04 	addi	sp,sp,40
 18051c4:	f800283a 	ret
 18051c8:	00bffe04 	movi	r2,-8
 18051cc:	18a2703a 	and	r17,r3,r2
 18051d0:	883fed16 	blt	r17,zero,1805188 <_malloc_r+0x44>
 18051d4:	897fec36 	bltu	r17,r5,1805188 <_malloc_r+0x44>
 18051d8:	9009883a 	mov	r4,r18
 18051dc:	180a2ac0 	call	180a2ac <__malloc_lock>
 18051e0:	00807dc4 	movi	r2,503
 18051e4:	14402b2e 	bgeu	r2,r17,1805294 <_malloc_r+0x150>
 18051e8:	8806d27a 	srli	r3,r17,9
 18051ec:	18003f1e 	bne	r3,zero,18052ec <_malloc_r+0x1a8>
 18051f0:	880cd0fa 	srli	r6,r17,3
 18051f4:	300490fa 	slli	r2,r6,3
 18051f8:	02c06074 	movhi	r11,385
 18051fc:	5ac4b104 	addi	r11,r11,4804
 1805200:	12cb883a 	add	r5,r2,r11
 1805204:	2c000317 	ldw	r16,12(r5)
 1805208:	580f883a 	mov	r7,r11
 180520c:	2c00041e 	bne	r5,r16,1805220 <_malloc_r+0xdc>
 1805210:	00000a06 	br	180523c <_malloc_r+0xf8>
 1805214:	1800860e 	bge	r3,zero,1805430 <_malloc_r+0x2ec>
 1805218:	84000317 	ldw	r16,12(r16)
 180521c:	2c000726 	beq	r5,r16,180523c <_malloc_r+0xf8>
 1805220:	80800117 	ldw	r2,4(r16)
 1805224:	00ffff04 	movi	r3,-4
 1805228:	10c8703a 	and	r4,r2,r3
 180522c:	2447c83a 	sub	r3,r4,r17
 1805230:	008003c4 	movi	r2,15
 1805234:	10fff70e 	bge	r2,r3,1805214 <_malloc_r+0xd0>
 1805238:	31bfffc4 	addi	r6,r6,-1
 180523c:	32400044 	addi	r9,r6,1
 1805240:	02806074 	movhi	r10,385
 1805244:	5284b304 	addi	r10,r10,4812
 1805248:	54000217 	ldw	r16,8(r10)
 180524c:	8280a026 	beq	r16,r10,18054d0 <_malloc_r+0x38c>
 1805250:	80800117 	ldw	r2,4(r16)
 1805254:	00ffff04 	movi	r3,-4
 1805258:	10ca703a 	and	r5,r2,r3
 180525c:	2c4dc83a 	sub	r6,r5,r17
 1805260:	008003c4 	movi	r2,15
 1805264:	11808316 	blt	r2,r6,1805474 <_malloc_r+0x330>
 1805268:	52800315 	stw	r10,12(r10)
 180526c:	52800215 	stw	r10,8(r10)
 1805270:	30002916 	blt	r6,zero,1805318 <_malloc_r+0x1d4>
 1805274:	8147883a 	add	r3,r16,r5
 1805278:	18800117 	ldw	r2,4(r3)
 180527c:	9009883a 	mov	r4,r18
 1805280:	10800054 	ori	r2,r2,1
 1805284:	18800115 	stw	r2,4(r3)
 1805288:	180a2cc0 	call	180a2cc <__malloc_unlock>
 180528c:	80c00204 	addi	r3,r16,8
 1805290:	003fc006 	br	1805194 <_malloc_r+0x50>
 1805294:	02c06074 	movhi	r11,385
 1805298:	5ac4b104 	addi	r11,r11,4804
 180529c:	8ac5883a 	add	r2,r17,r11
 18052a0:	14000317 	ldw	r16,12(r2)
 18052a4:	580f883a 	mov	r7,r11
 18052a8:	8806d0fa 	srli	r3,r17,3
 18052ac:	14006c26 	beq	r2,r16,1805460 <_malloc_r+0x31c>
 18052b0:	80c00117 	ldw	r3,4(r16)
 18052b4:	00bfff04 	movi	r2,-4
 18052b8:	81800317 	ldw	r6,12(r16)
 18052bc:	1886703a 	and	r3,r3,r2
 18052c0:	80c7883a 	add	r3,r16,r3
 18052c4:	18800117 	ldw	r2,4(r3)
 18052c8:	81400217 	ldw	r5,8(r16)
 18052cc:	9009883a 	mov	r4,r18
 18052d0:	10800054 	ori	r2,r2,1
 18052d4:	18800115 	stw	r2,4(r3)
 18052d8:	31400215 	stw	r5,8(r6)
 18052dc:	29800315 	stw	r6,12(r5)
 18052e0:	180a2cc0 	call	180a2cc <__malloc_unlock>
 18052e4:	80c00204 	addi	r3,r16,8
 18052e8:	003faa06 	br	1805194 <_malloc_r+0x50>
 18052ec:	00800104 	movi	r2,4
 18052f0:	10c0052e 	bgeu	r2,r3,1805308 <_malloc_r+0x1c4>
 18052f4:	00800504 	movi	r2,20
 18052f8:	10c07836 	bltu	r2,r3,18054dc <_malloc_r+0x398>
 18052fc:	198016c4 	addi	r6,r3,91
 1805300:	300490fa 	slli	r2,r6,3
 1805304:	003fbc06 	br	18051f8 <_malloc_r+0xb4>
 1805308:	8804d1ba 	srli	r2,r17,6
 180530c:	11800e04 	addi	r6,r2,56
 1805310:	300490fa 	slli	r2,r6,3
 1805314:	003fb806 	br	18051f8 <_malloc_r+0xb4>
 1805318:	00807fc4 	movi	r2,511
 180531c:	1140bb36 	bltu	r2,r5,180560c <_malloc_r+0x4c8>
 1805320:	2806d0fa 	srli	r3,r5,3
 1805324:	573ffe04 	addi	fp,r10,-8
 1805328:	00800044 	movi	r2,1
 180532c:	180890fa 	slli	r4,r3,3
 1805330:	1807d0ba 	srai	r3,r3,2
 1805334:	e1c00117 	ldw	r7,4(fp)
 1805338:	5909883a 	add	r4,r11,r4
 180533c:	21400217 	ldw	r5,8(r4)
 1805340:	10c4983a 	sll	r2,r2,r3
 1805344:	81000315 	stw	r4,12(r16)
 1805348:	81400215 	stw	r5,8(r16)
 180534c:	388eb03a 	or	r7,r7,r2
 1805350:	2c000315 	stw	r16,12(r5)
 1805354:	24000215 	stw	r16,8(r4)
 1805358:	e1c00115 	stw	r7,4(fp)
 180535c:	4807883a 	mov	r3,r9
 1805360:	4800cd16 	blt	r9,zero,1805698 <_malloc_r+0x554>
 1805364:	1807d0ba 	srai	r3,r3,2
 1805368:	00800044 	movi	r2,1
 180536c:	10c8983a 	sll	r4,r2,r3
 1805370:	39004436 	bltu	r7,r4,1805484 <_malloc_r+0x340>
 1805374:	21c4703a 	and	r2,r4,r7
 1805378:	10000a1e 	bne	r2,zero,18053a4 <_malloc_r+0x260>
 180537c:	2109883a 	add	r4,r4,r4
 1805380:	00bfff04 	movi	r2,-4
 1805384:	4884703a 	and	r2,r9,r2
 1805388:	3906703a 	and	r3,r7,r4
 180538c:	12400104 	addi	r9,r2,4
 1805390:	1800041e 	bne	r3,zero,18053a4 <_malloc_r+0x260>
 1805394:	2109883a 	add	r4,r4,r4
 1805398:	3904703a 	and	r2,r7,r4
 180539c:	4a400104 	addi	r9,r9,4
 18053a0:	103ffc26 	beq	r2,zero,1805394 <_malloc_r+0x250>
 18053a4:	480490fa 	slli	r2,r9,3
 18053a8:	4819883a 	mov	r12,r9
 18053ac:	023fff04 	movi	r8,-4
 18053b0:	589b883a 	add	r13,r11,r2
 18053b4:	6807883a 	mov	r3,r13
 18053b8:	014003c4 	movi	r5,15
 18053bc:	1c000317 	ldw	r16,12(r3)
 18053c0:	1c00041e 	bne	r3,r16,18053d4 <_malloc_r+0x290>
 18053c4:	0000a706 	br	1805664 <_malloc_r+0x520>
 18053c8:	3000ab0e 	bge	r6,zero,1805678 <_malloc_r+0x534>
 18053cc:	84000317 	ldw	r16,12(r16)
 18053d0:	1c00a426 	beq	r3,r16,1805664 <_malloc_r+0x520>
 18053d4:	80800117 	ldw	r2,4(r16)
 18053d8:	1204703a 	and	r2,r2,r8
 18053dc:	144dc83a 	sub	r6,r2,r17
 18053e0:	29bff90e 	bge	r5,r6,18053c8 <_malloc_r+0x284>
 18053e4:	81000317 	ldw	r4,12(r16)
 18053e8:	80c00217 	ldw	r3,8(r16)
 18053ec:	89400054 	ori	r5,r17,1
 18053f0:	8445883a 	add	r2,r16,r17
 18053f4:	20c00215 	stw	r3,8(r4)
 18053f8:	19000315 	stw	r4,12(r3)
 18053fc:	81400115 	stw	r5,4(r16)
 1805400:	1187883a 	add	r3,r2,r6
 1805404:	31000054 	ori	r4,r6,1
 1805408:	50800315 	stw	r2,12(r10)
 180540c:	50800215 	stw	r2,8(r10)
 1805410:	19800015 	stw	r6,0(r3)
 1805414:	11000115 	stw	r4,4(r2)
 1805418:	12800215 	stw	r10,8(r2)
 180541c:	12800315 	stw	r10,12(r2)
 1805420:	9009883a 	mov	r4,r18
 1805424:	180a2cc0 	call	180a2cc <__malloc_unlock>
 1805428:	80c00204 	addi	r3,r16,8
 180542c:	003f5906 	br	1805194 <_malloc_r+0x50>
 1805430:	8109883a 	add	r4,r16,r4
 1805434:	20800117 	ldw	r2,4(r4)
 1805438:	80c00217 	ldw	r3,8(r16)
 180543c:	81400317 	ldw	r5,12(r16)
 1805440:	10800054 	ori	r2,r2,1
 1805444:	20800115 	stw	r2,4(r4)
 1805448:	28c00215 	stw	r3,8(r5)
 180544c:	19400315 	stw	r5,12(r3)
 1805450:	9009883a 	mov	r4,r18
 1805454:	180a2cc0 	call	180a2cc <__malloc_unlock>
 1805458:	80c00204 	addi	r3,r16,8
 180545c:	003f4d06 	br	1805194 <_malloc_r+0x50>
 1805460:	80800204 	addi	r2,r16,8
 1805464:	14000317 	ldw	r16,12(r2)
 1805468:	143f911e 	bne	r2,r16,18052b0 <_malloc_r+0x16c>
 180546c:	1a400084 	addi	r9,r3,2
 1805470:	003f7306 	br	1805240 <_malloc_r+0xfc>
 1805474:	88c00054 	ori	r3,r17,1
 1805478:	8445883a 	add	r2,r16,r17
 180547c:	80c00115 	stw	r3,4(r16)
 1805480:	003fdf06 	br	1805400 <_malloc_r+0x2bc>
 1805484:	e4000217 	ldw	r16,8(fp)
 1805488:	00bfff04 	movi	r2,-4
 180548c:	80c00117 	ldw	r3,4(r16)
 1805490:	802d883a 	mov	r22,r16
 1805494:	18aa703a 	and	r21,r3,r2
 1805498:	ac401636 	bltu	r21,r17,18054f4 <_malloc_r+0x3b0>
 180549c:	ac49c83a 	sub	r4,r21,r17
 18054a0:	008003c4 	movi	r2,15
 18054a4:	1100130e 	bge	r2,r4,18054f4 <_malloc_r+0x3b0>
 18054a8:	88800054 	ori	r2,r17,1
 18054ac:	8447883a 	add	r3,r16,r17
 18054b0:	80800115 	stw	r2,4(r16)
 18054b4:	20800054 	ori	r2,r4,1
 18054b8:	18800115 	stw	r2,4(r3)
 18054bc:	e0c00215 	stw	r3,8(fp)
 18054c0:	9009883a 	mov	r4,r18
 18054c4:	180a2cc0 	call	180a2cc <__malloc_unlock>
 18054c8:	80c00204 	addi	r3,r16,8
 18054cc:	003f3106 	br	1805194 <_malloc_r+0x50>
 18054d0:	39c00117 	ldw	r7,4(r7)
 18054d4:	573ffe04 	addi	fp,r10,-8
 18054d8:	003fa006 	br	180535c <_malloc_r+0x218>
 18054dc:	00801504 	movi	r2,84
 18054e0:	10c06736 	bltu	r2,r3,1805680 <_malloc_r+0x53c>
 18054e4:	8804d33a 	srli	r2,r17,12
 18054e8:	11801b84 	addi	r6,r2,110
 18054ec:	300490fa 	slli	r2,r6,3
 18054f0:	003f4106 	br	18051f8 <_malloc_r+0xb4>
 18054f4:	d0a01717 	ldw	r2,-32676(gp)
 18054f8:	d0e00517 	ldw	r3,-32748(gp)
 18054fc:	053fffc4 	movi	r20,-1
 1805500:	10800404 	addi	r2,r2,16
 1805504:	88a7883a 	add	r19,r17,r2
 1805508:	1d000326 	beq	r3,r20,1805518 <_malloc_r+0x3d4>
 180550c:	98c3ffc4 	addi	r3,r19,4095
 1805510:	00bc0004 	movi	r2,-4096
 1805514:	18a6703a 	and	r19,r3,r2
 1805518:	9009883a 	mov	r4,r18
 180551c:	980b883a 	mov	r5,r19
 1805520:	18071d80 	call	18071d8 <_sbrk_r>
 1805524:	1009883a 	mov	r4,r2
 1805528:	15000426 	beq	r2,r20,180553c <_malloc_r+0x3f8>
 180552c:	854b883a 	add	r5,r16,r21
 1805530:	1029883a 	mov	r20,r2
 1805534:	11405a2e 	bgeu	r2,r5,18056a0 <_malloc_r+0x55c>
 1805538:	87000c26 	beq	r16,fp,180556c <_malloc_r+0x428>
 180553c:	e4000217 	ldw	r16,8(fp)
 1805540:	80c00117 	ldw	r3,4(r16)
 1805544:	00bfff04 	movi	r2,-4
 1805548:	1884703a 	and	r2,r3,r2
 180554c:	14400336 	bltu	r2,r17,180555c <_malloc_r+0x418>
 1805550:	1449c83a 	sub	r4,r2,r17
 1805554:	008003c4 	movi	r2,15
 1805558:	113fd316 	blt	r2,r4,18054a8 <_malloc_r+0x364>
 180555c:	9009883a 	mov	r4,r18
 1805560:	180a2cc0 	call	180a2cc <__malloc_unlock>
 1805564:	0007883a 	mov	r3,zero
 1805568:	003f0a06 	br	1805194 <_malloc_r+0x50>
 180556c:	05c06074 	movhi	r23,385
 1805570:	bdcb0604 	addi	r23,r23,11288
 1805574:	b8800017 	ldw	r2,0(r23)
 1805578:	988d883a 	add	r6,r19,r2
 180557c:	b9800015 	stw	r6,0(r23)
 1805580:	d0e00517 	ldw	r3,-32748(gp)
 1805584:	00bfffc4 	movi	r2,-1
 1805588:	18808e26 	beq	r3,r2,18057c4 <_malloc_r+0x680>
 180558c:	2145c83a 	sub	r2,r4,r5
 1805590:	3085883a 	add	r2,r6,r2
 1805594:	b8800015 	stw	r2,0(r23)
 1805598:	20c001cc 	andi	r3,r4,7
 180559c:	18005f1e 	bne	r3,zero,180571c <_malloc_r+0x5d8>
 18055a0:	000b883a 	mov	r5,zero
 18055a4:	a4c5883a 	add	r2,r20,r19
 18055a8:	1083ffcc 	andi	r2,r2,4095
 18055ac:	00c40004 	movi	r3,4096
 18055b0:	1887c83a 	sub	r3,r3,r2
 18055b4:	28e7883a 	add	r19,r5,r3
 18055b8:	9009883a 	mov	r4,r18
 18055bc:	980b883a 	mov	r5,r19
 18055c0:	18071d80 	call	18071d8 <_sbrk_r>
 18055c4:	1007883a 	mov	r3,r2
 18055c8:	00bfffc4 	movi	r2,-1
 18055cc:	18807a26 	beq	r3,r2,18057b8 <_malloc_r+0x674>
 18055d0:	1d05c83a 	sub	r2,r3,r20
 18055d4:	9885883a 	add	r2,r19,r2
 18055d8:	10c00054 	ori	r3,r2,1
 18055dc:	b8800017 	ldw	r2,0(r23)
 18055e0:	a021883a 	mov	r16,r20
 18055e4:	a0c00115 	stw	r3,4(r20)
 18055e8:	9885883a 	add	r2,r19,r2
 18055ec:	b8800015 	stw	r2,0(r23)
 18055f0:	e5000215 	stw	r20,8(fp)
 18055f4:	b7003626 	beq	r22,fp,18056d0 <_malloc_r+0x58c>
 18055f8:	018003c4 	movi	r6,15
 18055fc:	35404b36 	bltu	r6,r21,180572c <_malloc_r+0x5e8>
 1805600:	00800044 	movi	r2,1
 1805604:	a0800115 	stw	r2,4(r20)
 1805608:	003fcd06 	br	1805540 <_malloc_r+0x3fc>
 180560c:	2808d27a 	srli	r4,r5,9
 1805610:	2000371e 	bne	r4,zero,18056f0 <_malloc_r+0x5ac>
 1805614:	2808d0fa 	srli	r4,r5,3
 1805618:	200690fa 	slli	r3,r4,3
 180561c:	1ad1883a 	add	r8,r3,r11
 1805620:	41800217 	ldw	r6,8(r8)
 1805624:	41805b26 	beq	r8,r6,1805794 <_malloc_r+0x650>
 1805628:	30800117 	ldw	r2,4(r6)
 180562c:	00ffff04 	movi	r3,-4
 1805630:	10c4703a 	and	r2,r2,r3
 1805634:	2880022e 	bgeu	r5,r2,1805640 <_malloc_r+0x4fc>
 1805638:	31800217 	ldw	r6,8(r6)
 180563c:	41bffa1e 	bne	r8,r6,1805628 <_malloc_r+0x4e4>
 1805640:	32000317 	ldw	r8,12(r6)
 1805644:	39c00117 	ldw	r7,4(r7)
 1805648:	82000315 	stw	r8,12(r16)
 180564c:	81800215 	stw	r6,8(r16)
 1805650:	07006074 	movhi	fp,385
 1805654:	e704b104 	addi	fp,fp,4804
 1805658:	34000315 	stw	r16,12(r6)
 180565c:	44000215 	stw	r16,8(r8)
 1805660:	003f3e06 	br	180535c <_malloc_r+0x218>
 1805664:	63000044 	addi	r12,r12,1
 1805668:	608000cc 	andi	r2,r12,3
 180566c:	10005d26 	beq	r2,zero,18057e4 <_malloc_r+0x6a0>
 1805670:	18c00204 	addi	r3,r3,8
 1805674:	003f5106 	br	18053bc <_malloc_r+0x278>
 1805678:	8089883a 	add	r4,r16,r2
 180567c:	003f6d06 	br	1805434 <_malloc_r+0x2f0>
 1805680:	00805504 	movi	r2,340
 1805684:	10c02036 	bltu	r2,r3,1805708 <_malloc_r+0x5c4>
 1805688:	8804d3fa 	srli	r2,r17,15
 180568c:	11801dc4 	addi	r6,r2,119
 1805690:	300490fa 	slli	r2,r6,3
 1805694:	003ed806 	br	18051f8 <_malloc_r+0xb4>
 1805698:	48c000c4 	addi	r3,r9,3
 180569c:	003f3106 	br	1805364 <_malloc_r+0x220>
 18056a0:	05c06074 	movhi	r23,385
 18056a4:	bdcb0604 	addi	r23,r23,11288
 18056a8:	b8800017 	ldw	r2,0(r23)
 18056ac:	988d883a 	add	r6,r19,r2
 18056b0:	b9800015 	stw	r6,0(r23)
 18056b4:	293fb21e 	bne	r5,r4,1805580 <_malloc_r+0x43c>
 18056b8:	2083ffcc 	andi	r2,r4,4095
 18056bc:	103fb01e 	bne	r2,zero,1805580 <_malloc_r+0x43c>
 18056c0:	e4000217 	ldw	r16,8(fp)
 18056c4:	9d45883a 	add	r2,r19,r21
 18056c8:	10800054 	ori	r2,r2,1
 18056cc:	80800115 	stw	r2,4(r16)
 18056d0:	b8c00017 	ldw	r3,0(r23)
 18056d4:	d0a01817 	ldw	r2,-32672(gp)
 18056d8:	10c0012e 	bgeu	r2,r3,18056e0 <_malloc_r+0x59c>
 18056dc:	d0e01815 	stw	r3,-32672(gp)
 18056e0:	d0a01917 	ldw	r2,-32668(gp)
 18056e4:	10ff962e 	bgeu	r2,r3,1805540 <_malloc_r+0x3fc>
 18056e8:	d0e01915 	stw	r3,-32668(gp)
 18056ec:	003f9406 	br	1805540 <_malloc_r+0x3fc>
 18056f0:	00800104 	movi	r2,4
 18056f4:	11001e36 	bltu	r2,r4,1805770 <_malloc_r+0x62c>
 18056f8:	2804d1ba 	srli	r2,r5,6
 18056fc:	11000e04 	addi	r4,r2,56
 1805700:	200690fa 	slli	r3,r4,3
 1805704:	003fc506 	br	180561c <_malloc_r+0x4d8>
 1805708:	00815504 	movi	r2,1364
 180570c:	10c01d2e 	bgeu	r2,r3,1805784 <_malloc_r+0x640>
 1805710:	01801f84 	movi	r6,126
 1805714:	0080fc04 	movi	r2,1008
 1805718:	003eb706 	br	18051f8 <_malloc_r+0xb4>
 180571c:	00800204 	movi	r2,8
 1805720:	10cbc83a 	sub	r5,r2,r3
 1805724:	2169883a 	add	r20,r4,r5
 1805728:	003f9e06 	br	18055a4 <_malloc_r+0x460>
 180572c:	00bffe04 	movi	r2,-8
 1805730:	a93ffd04 	addi	r4,r21,-12
 1805734:	2088703a 	and	r4,r4,r2
 1805738:	b10b883a 	add	r5,r22,r4
 180573c:	00c00144 	movi	r3,5
 1805740:	28c00215 	stw	r3,8(r5)
 1805744:	28c00115 	stw	r3,4(r5)
 1805748:	b0800117 	ldw	r2,4(r22)
 180574c:	1080004c 	andi	r2,r2,1
 1805750:	2084b03a 	or	r2,r4,r2
 1805754:	b0800115 	stw	r2,4(r22)
 1805758:	313fdd2e 	bgeu	r6,r4,18056d0 <_malloc_r+0x58c>
 180575c:	b1400204 	addi	r5,r22,8
 1805760:	9009883a 	mov	r4,r18
 1805764:	18045bc0 	call	18045bc <_free_r>
 1805768:	e4000217 	ldw	r16,8(fp)
 180576c:	003fd806 	br	18056d0 <_malloc_r+0x58c>
 1805770:	00800504 	movi	r2,20
 1805774:	11001536 	bltu	r2,r4,18057cc <_malloc_r+0x688>
 1805778:	210016c4 	addi	r4,r4,91
 180577c:	200690fa 	slli	r3,r4,3
 1805780:	003fa606 	br	180561c <_malloc_r+0x4d8>
 1805784:	8804d4ba 	srli	r2,r17,18
 1805788:	11801f04 	addi	r6,r2,124
 180578c:	300490fa 	slli	r2,r6,3
 1805790:	003e9906 	br	18051f8 <_malloc_r+0xb4>
 1805794:	2009d0ba 	srai	r4,r4,2
 1805798:	01406074 	movhi	r5,385
 180579c:	2944b104 	addi	r5,r5,4804
 18057a0:	00c00044 	movi	r3,1
 18057a4:	28800117 	ldw	r2,4(r5)
 18057a8:	1906983a 	sll	r3,r3,r4
 18057ac:	10c4b03a 	or	r2,r2,r3
 18057b0:	28800115 	stw	r2,4(r5)
 18057b4:	003fa306 	br	1805644 <_malloc_r+0x500>
 18057b8:	0027883a 	mov	r19,zero
 18057bc:	00c00044 	movi	r3,1
 18057c0:	003f8606 	br	18055dc <_malloc_r+0x498>
 18057c4:	d1200515 	stw	r4,-32748(gp)
 18057c8:	003f7306 	br	1805598 <_malloc_r+0x454>
 18057cc:	00801504 	movi	r2,84
 18057d0:	11001936 	bltu	r2,r4,1805838 <_malloc_r+0x6f4>
 18057d4:	2804d33a 	srli	r2,r5,12
 18057d8:	11001b84 	addi	r4,r2,110
 18057dc:	200690fa 	slli	r3,r4,3
 18057e0:	003f8e06 	br	180561c <_malloc_r+0x4d8>
 18057e4:	480b883a 	mov	r5,r9
 18057e8:	6807883a 	mov	r3,r13
 18057ec:	288000cc 	andi	r2,r5,3
 18057f0:	18fffe04 	addi	r3,r3,-8
 18057f4:	297fffc4 	addi	r5,r5,-1
 18057f8:	10001526 	beq	r2,zero,1805850 <_malloc_r+0x70c>
 18057fc:	18800217 	ldw	r2,8(r3)
 1805800:	10fffa26 	beq	r2,r3,18057ec <_malloc_r+0x6a8>
 1805804:	2109883a 	add	r4,r4,r4
 1805808:	393f1e36 	bltu	r7,r4,1805484 <_malloc_r+0x340>
 180580c:	203f1d26 	beq	r4,zero,1805484 <_malloc_r+0x340>
 1805810:	21c4703a 	and	r2,r4,r7
 1805814:	10000226 	beq	r2,zero,1805820 <_malloc_r+0x6dc>
 1805818:	6013883a 	mov	r9,r12
 180581c:	003ee106 	br	18053a4 <_malloc_r+0x260>
 1805820:	2109883a 	add	r4,r4,r4
 1805824:	3904703a 	and	r2,r7,r4
 1805828:	63000104 	addi	r12,r12,4
 180582c:	103ffc26 	beq	r2,zero,1805820 <_malloc_r+0x6dc>
 1805830:	6013883a 	mov	r9,r12
 1805834:	003edb06 	br	18053a4 <_malloc_r+0x260>
 1805838:	00805504 	movi	r2,340
 180583c:	11000836 	bltu	r2,r4,1805860 <_malloc_r+0x71c>
 1805840:	2804d3fa 	srli	r2,r5,15
 1805844:	11001dc4 	addi	r4,r2,119
 1805848:	200690fa 	slli	r3,r4,3
 180584c:	003f7306 	br	180561c <_malloc_r+0x4d8>
 1805850:	0104303a 	nor	r2,zero,r4
 1805854:	388e703a 	and	r7,r7,r2
 1805858:	e1c00115 	stw	r7,4(fp)
 180585c:	003fe906 	br	1805804 <_malloc_r+0x6c0>
 1805860:	00815504 	movi	r2,1364
 1805864:	1100032e 	bgeu	r2,r4,1805874 <_malloc_r+0x730>
 1805868:	01001f84 	movi	r4,126
 180586c:	00c0fc04 	movi	r3,1008
 1805870:	003f6a06 	br	180561c <_malloc_r+0x4d8>
 1805874:	2804d4ba 	srli	r2,r5,18
 1805878:	11001f04 	addi	r4,r2,124
 180587c:	200690fa 	slli	r3,r4,3
 1805880:	003f6606 	br	180561c <_malloc_r+0x4d8>

01805884 <memchr>:
 1805884:	008000c4 	movi	r2,3
 1805888:	29403fcc 	andi	r5,r5,255
 180588c:	2007883a 	mov	r3,r4
 1805890:	1180022e 	bgeu	r2,r6,180589c <memchr+0x18>
 1805894:	2084703a 	and	r2,r4,r2
 1805898:	10000b26 	beq	r2,zero,18058c8 <memchr+0x44>
 180589c:	313fffc4 	addi	r4,r6,-1
 18058a0:	3000051e 	bne	r6,zero,18058b8 <memchr+0x34>
 18058a4:	00002c06 	br	1805958 <memchr+0xd4>
 18058a8:	213fffc4 	addi	r4,r4,-1
 18058ac:	00bfffc4 	movi	r2,-1
 18058b0:	18c00044 	addi	r3,r3,1
 18058b4:	20802826 	beq	r4,r2,1805958 <memchr+0xd4>
 18058b8:	18800003 	ldbu	r2,0(r3)
 18058bc:	28bffa1e 	bne	r5,r2,18058a8 <memchr+0x24>
 18058c0:	1805883a 	mov	r2,r3
 18058c4:	f800283a 	ret
 18058c8:	0011883a 	mov	r8,zero
 18058cc:	0007883a 	mov	r3,zero
 18058d0:	01c00104 	movi	r7,4
 18058d4:	4004923a 	slli	r2,r8,8
 18058d8:	18c00044 	addi	r3,r3,1
 18058dc:	1151883a 	add	r8,r2,r5
 18058e0:	19fffc1e 	bne	r3,r7,18058d4 <memchr+0x50>
 18058e4:	02bfbff4 	movhi	r10,65279
 18058e8:	52bfbfc4 	addi	r10,r10,-257
 18058ec:	02602074 	movhi	r9,32897
 18058f0:	4a602004 	addi	r9,r9,-32640
 18058f4:	02c000c4 	movi	r11,3
 18058f8:	20800017 	ldw	r2,0(r4)
 18058fc:	31bfff04 	addi	r6,r6,-4
 1805900:	200f883a 	mov	r7,r4
 1805904:	1204f03a 	xor	r2,r2,r8
 1805908:	1287883a 	add	r3,r2,r10
 180590c:	1a46703a 	and	r3,r3,r9
 1805910:	0084303a 	nor	r2,zero,r2
 1805914:	10c4703a 	and	r2,r2,r3
 1805918:	10000b26 	beq	r2,zero,1805948 <memchr+0xc4>
 180591c:	20800003 	ldbu	r2,0(r4)
 1805920:	28800f26 	beq	r5,r2,1805960 <memchr+0xdc>
 1805924:	20800043 	ldbu	r2,1(r4)
 1805928:	21c00044 	addi	r7,r4,1
 180592c:	28800c26 	beq	r5,r2,1805960 <memchr+0xdc>
 1805930:	20800083 	ldbu	r2,2(r4)
 1805934:	21c00084 	addi	r7,r4,2
 1805938:	28800926 	beq	r5,r2,1805960 <memchr+0xdc>
 180593c:	208000c3 	ldbu	r2,3(r4)
 1805940:	21c000c4 	addi	r7,r4,3
 1805944:	28800626 	beq	r5,r2,1805960 <memchr+0xdc>
 1805948:	21000104 	addi	r4,r4,4
 180594c:	59bfea36 	bltu	r11,r6,18058f8 <memchr+0x74>
 1805950:	2007883a 	mov	r3,r4
 1805954:	003fd106 	br	180589c <memchr+0x18>
 1805958:	0005883a 	mov	r2,zero
 180595c:	f800283a 	ret
 1805960:	3805883a 	mov	r2,r7
 1805964:	f800283a 	ret

01805968 <memcpy>:
 1805968:	01c003c4 	movi	r7,15
 180596c:	2007883a 	mov	r3,r4
 1805970:	3980032e 	bgeu	r7,r6,1805980 <memcpy+0x18>
 1805974:	2904b03a 	or	r2,r5,r4
 1805978:	108000cc 	andi	r2,r2,3
 180597c:	10000926 	beq	r2,zero,18059a4 <memcpy+0x3c>
 1805980:	30000626 	beq	r6,zero,180599c <memcpy+0x34>
 1805984:	30cd883a 	add	r6,r6,r3
 1805988:	28800003 	ldbu	r2,0(r5)
 180598c:	29400044 	addi	r5,r5,1
 1805990:	18800005 	stb	r2,0(r3)
 1805994:	18c00044 	addi	r3,r3,1
 1805998:	30fffb1e 	bne	r6,r3,1805988 <memcpy+0x20>
 180599c:	2005883a 	mov	r2,r4
 18059a0:	f800283a 	ret
 18059a4:	3811883a 	mov	r8,r7
 18059a8:	200f883a 	mov	r7,r4
 18059ac:	28c00017 	ldw	r3,0(r5)
 18059b0:	31bffc04 	addi	r6,r6,-16
 18059b4:	38c00015 	stw	r3,0(r7)
 18059b8:	28800117 	ldw	r2,4(r5)
 18059bc:	38800115 	stw	r2,4(r7)
 18059c0:	28c00217 	ldw	r3,8(r5)
 18059c4:	38c00215 	stw	r3,8(r7)
 18059c8:	28800317 	ldw	r2,12(r5)
 18059cc:	29400404 	addi	r5,r5,16
 18059d0:	38800315 	stw	r2,12(r7)
 18059d4:	39c00404 	addi	r7,r7,16
 18059d8:	41bff436 	bltu	r8,r6,18059ac <memcpy+0x44>
 18059dc:	008000c4 	movi	r2,3
 18059e0:	1180072e 	bgeu	r2,r6,1805a00 <memcpy+0x98>
 18059e4:	1007883a 	mov	r3,r2
 18059e8:	28800017 	ldw	r2,0(r5)
 18059ec:	31bfff04 	addi	r6,r6,-4
 18059f0:	29400104 	addi	r5,r5,4
 18059f4:	38800015 	stw	r2,0(r7)
 18059f8:	39c00104 	addi	r7,r7,4
 18059fc:	19bffa36 	bltu	r3,r6,18059e8 <memcpy+0x80>
 1805a00:	3807883a 	mov	r3,r7
 1805a04:	003fde06 	br	1805980 <memcpy+0x18>

01805a08 <memmove>:
 1805a08:	2807883a 	mov	r3,r5
 1805a0c:	2011883a 	mov	r8,r4
 1805a10:	29000c2e 	bgeu	r5,r4,1805a44 <memmove+0x3c>
 1805a14:	298f883a 	add	r7,r5,r6
 1805a18:	21c00a2e 	bgeu	r4,r7,1805a44 <memmove+0x3c>
 1805a1c:	30000726 	beq	r6,zero,1805a3c <memmove+0x34>
 1805a20:	2187883a 	add	r3,r4,r6
 1805a24:	198dc83a 	sub	r6,r3,r6
 1805a28:	39ffffc4 	addi	r7,r7,-1
 1805a2c:	38800003 	ldbu	r2,0(r7)
 1805a30:	18ffffc4 	addi	r3,r3,-1
 1805a34:	18800005 	stb	r2,0(r3)
 1805a38:	19bffb1e 	bne	r3,r6,1805a28 <memmove+0x20>
 1805a3c:	2005883a 	mov	r2,r4
 1805a40:	f800283a 	ret
 1805a44:	01c003c4 	movi	r7,15
 1805a48:	39800a36 	bltu	r7,r6,1805a74 <memmove+0x6c>
 1805a4c:	303ffb26 	beq	r6,zero,1805a3c <memmove+0x34>
 1805a50:	400f883a 	mov	r7,r8
 1805a54:	320d883a 	add	r6,r6,r8
 1805a58:	28800003 	ldbu	r2,0(r5)
 1805a5c:	29400044 	addi	r5,r5,1
 1805a60:	38800005 	stb	r2,0(r7)
 1805a64:	39c00044 	addi	r7,r7,1
 1805a68:	39bffb1e 	bne	r7,r6,1805a58 <memmove+0x50>
 1805a6c:	2005883a 	mov	r2,r4
 1805a70:	f800283a 	ret
 1805a74:	1904b03a 	or	r2,r3,r4
 1805a78:	108000cc 	andi	r2,r2,3
 1805a7c:	103ff31e 	bne	r2,zero,1805a4c <memmove+0x44>
 1805a80:	3811883a 	mov	r8,r7
 1805a84:	180b883a 	mov	r5,r3
 1805a88:	200f883a 	mov	r7,r4
 1805a8c:	28c00017 	ldw	r3,0(r5)
 1805a90:	31bffc04 	addi	r6,r6,-16
 1805a94:	38c00015 	stw	r3,0(r7)
 1805a98:	28800117 	ldw	r2,4(r5)
 1805a9c:	38800115 	stw	r2,4(r7)
 1805aa0:	28c00217 	ldw	r3,8(r5)
 1805aa4:	38c00215 	stw	r3,8(r7)
 1805aa8:	28800317 	ldw	r2,12(r5)
 1805aac:	29400404 	addi	r5,r5,16
 1805ab0:	38800315 	stw	r2,12(r7)
 1805ab4:	39c00404 	addi	r7,r7,16
 1805ab8:	41bff436 	bltu	r8,r6,1805a8c <memmove+0x84>
 1805abc:	008000c4 	movi	r2,3
 1805ac0:	1180072e 	bgeu	r2,r6,1805ae0 <memmove+0xd8>
 1805ac4:	1007883a 	mov	r3,r2
 1805ac8:	28800017 	ldw	r2,0(r5)
 1805acc:	31bfff04 	addi	r6,r6,-4
 1805ad0:	29400104 	addi	r5,r5,4
 1805ad4:	38800015 	stw	r2,0(r7)
 1805ad8:	39c00104 	addi	r7,r7,4
 1805adc:	19bffa36 	bltu	r3,r6,1805ac8 <memmove+0xc0>
 1805ae0:	3811883a 	mov	r8,r7
 1805ae4:	003fd906 	br	1805a4c <memmove+0x44>

01805ae8 <memset>:
 1805ae8:	008000c4 	movi	r2,3
 1805aec:	29403fcc 	andi	r5,r5,255
 1805af0:	2007883a 	mov	r3,r4
 1805af4:	1180022e 	bgeu	r2,r6,1805b00 <memset+0x18>
 1805af8:	2084703a 	and	r2,r4,r2
 1805afc:	10000826 	beq	r2,zero,1805b20 <memset+0x38>
 1805b00:	30000526 	beq	r6,zero,1805b18 <memset+0x30>
 1805b04:	2805883a 	mov	r2,r5
 1805b08:	30cd883a 	add	r6,r6,r3
 1805b0c:	18800005 	stb	r2,0(r3)
 1805b10:	18c00044 	addi	r3,r3,1
 1805b14:	19bffd1e 	bne	r3,r6,1805b0c <memset+0x24>
 1805b18:	2005883a 	mov	r2,r4
 1805b1c:	f800283a 	ret
 1805b20:	2804923a 	slli	r2,r5,8
 1805b24:	020003c4 	movi	r8,15
 1805b28:	200f883a 	mov	r7,r4
 1805b2c:	2884b03a 	or	r2,r5,r2
 1805b30:	1006943a 	slli	r3,r2,16
 1805b34:	10c6b03a 	or	r3,r2,r3
 1805b38:	41800a2e 	bgeu	r8,r6,1805b64 <memset+0x7c>
 1805b3c:	4005883a 	mov	r2,r8
 1805b40:	31bffc04 	addi	r6,r6,-16
 1805b44:	38c00015 	stw	r3,0(r7)
 1805b48:	38c00115 	stw	r3,4(r7)
 1805b4c:	38c00215 	stw	r3,8(r7)
 1805b50:	38c00315 	stw	r3,12(r7)
 1805b54:	39c00404 	addi	r7,r7,16
 1805b58:	11bff936 	bltu	r2,r6,1805b40 <memset+0x58>
 1805b5c:	008000c4 	movi	r2,3
 1805b60:	1180052e 	bgeu	r2,r6,1805b78 <memset+0x90>
 1805b64:	31bfff04 	addi	r6,r6,-4
 1805b68:	008000c4 	movi	r2,3
 1805b6c:	38c00015 	stw	r3,0(r7)
 1805b70:	39c00104 	addi	r7,r7,4
 1805b74:	11bffb36 	bltu	r2,r6,1805b64 <memset+0x7c>
 1805b78:	3807883a 	mov	r3,r7
 1805b7c:	003fe006 	br	1805b00 <memset+0x18>

01805b80 <_Bfree>:
 1805b80:	28000826 	beq	r5,zero,1805ba4 <_Bfree+0x24>
 1805b84:	28800117 	ldw	r2,4(r5)
 1805b88:	21001317 	ldw	r4,76(r4)
 1805b8c:	1085883a 	add	r2,r2,r2
 1805b90:	1085883a 	add	r2,r2,r2
 1805b94:	1105883a 	add	r2,r2,r4
 1805b98:	10c00017 	ldw	r3,0(r2)
 1805b9c:	28c00015 	stw	r3,0(r5)
 1805ba0:	11400015 	stw	r5,0(r2)
 1805ba4:	f800283a 	ret

01805ba8 <__hi0bits>:
 1805ba8:	20bfffec 	andhi	r2,r4,65535
 1805bac:	10001426 	beq	r2,zero,1805c00 <__hi0bits+0x58>
 1805bb0:	0007883a 	mov	r3,zero
 1805bb4:	20bfc02c 	andhi	r2,r4,65280
 1805bb8:	1000021e 	bne	r2,zero,1805bc4 <__hi0bits+0x1c>
 1805bbc:	2008923a 	slli	r4,r4,8
 1805bc0:	18c00204 	addi	r3,r3,8
 1805bc4:	20bc002c 	andhi	r2,r4,61440
 1805bc8:	1000021e 	bne	r2,zero,1805bd4 <__hi0bits+0x2c>
 1805bcc:	2008913a 	slli	r4,r4,4
 1805bd0:	18c00104 	addi	r3,r3,4
 1805bd4:	20b0002c 	andhi	r2,r4,49152
 1805bd8:	1000031e 	bne	r2,zero,1805be8 <__hi0bits+0x40>
 1805bdc:	2105883a 	add	r2,r4,r4
 1805be0:	18c00084 	addi	r3,r3,2
 1805be4:	1089883a 	add	r4,r2,r2
 1805be8:	20000316 	blt	r4,zero,1805bf8 <__hi0bits+0x50>
 1805bec:	2090002c 	andhi	r2,r4,16384
 1805bf0:	10000626 	beq	r2,zero,1805c0c <__hi0bits+0x64>
 1805bf4:	18c00044 	addi	r3,r3,1
 1805bf8:	1805883a 	mov	r2,r3
 1805bfc:	f800283a 	ret
 1805c00:	2008943a 	slli	r4,r4,16
 1805c04:	00c00404 	movi	r3,16
 1805c08:	003fea06 	br	1805bb4 <__hi0bits+0xc>
 1805c0c:	00c00804 	movi	r3,32
 1805c10:	1805883a 	mov	r2,r3
 1805c14:	f800283a 	ret

01805c18 <__lo0bits>:
 1805c18:	20c00017 	ldw	r3,0(r4)
 1805c1c:	188001cc 	andi	r2,r3,7
 1805c20:	10000a26 	beq	r2,zero,1805c4c <__lo0bits+0x34>
 1805c24:	1880004c 	andi	r2,r3,1
 1805c28:	1005003a 	cmpeq	r2,r2,zero
 1805c2c:	10002126 	beq	r2,zero,1805cb4 <__lo0bits+0x9c>
 1805c30:	1880008c 	andi	r2,r3,2
 1805c34:	1000251e 	bne	r2,zero,1805ccc <__lo0bits+0xb4>
 1805c38:	1804d0ba 	srli	r2,r3,2
 1805c3c:	01400084 	movi	r5,2
 1805c40:	20800015 	stw	r2,0(r4)
 1805c44:	2805883a 	mov	r2,r5
 1805c48:	f800283a 	ret
 1805c4c:	18bfffcc 	andi	r2,r3,65535
 1805c50:	10001526 	beq	r2,zero,1805ca8 <__lo0bits+0x90>
 1805c54:	000b883a 	mov	r5,zero
 1805c58:	18803fcc 	andi	r2,r3,255
 1805c5c:	1000021e 	bne	r2,zero,1805c68 <__lo0bits+0x50>
 1805c60:	1806d23a 	srli	r3,r3,8
 1805c64:	29400204 	addi	r5,r5,8
 1805c68:	188003cc 	andi	r2,r3,15
 1805c6c:	1000021e 	bne	r2,zero,1805c78 <__lo0bits+0x60>
 1805c70:	1806d13a 	srli	r3,r3,4
 1805c74:	29400104 	addi	r5,r5,4
 1805c78:	188000cc 	andi	r2,r3,3
 1805c7c:	1000021e 	bne	r2,zero,1805c88 <__lo0bits+0x70>
 1805c80:	1806d0ba 	srli	r3,r3,2
 1805c84:	29400084 	addi	r5,r5,2
 1805c88:	1880004c 	andi	r2,r3,1
 1805c8c:	1000031e 	bne	r2,zero,1805c9c <__lo0bits+0x84>
 1805c90:	1806d07a 	srli	r3,r3,1
 1805c94:	18000a26 	beq	r3,zero,1805cc0 <__lo0bits+0xa8>
 1805c98:	29400044 	addi	r5,r5,1
 1805c9c:	2805883a 	mov	r2,r5
 1805ca0:	20c00015 	stw	r3,0(r4)
 1805ca4:	f800283a 	ret
 1805ca8:	1806d43a 	srli	r3,r3,16
 1805cac:	01400404 	movi	r5,16
 1805cb0:	003fe906 	br	1805c58 <__lo0bits+0x40>
 1805cb4:	000b883a 	mov	r5,zero
 1805cb8:	2805883a 	mov	r2,r5
 1805cbc:	f800283a 	ret
 1805cc0:	01400804 	movi	r5,32
 1805cc4:	2805883a 	mov	r2,r5
 1805cc8:	f800283a 	ret
 1805ccc:	1804d07a 	srli	r2,r3,1
 1805cd0:	01400044 	movi	r5,1
 1805cd4:	20800015 	stw	r2,0(r4)
 1805cd8:	003fda06 	br	1805c44 <__lo0bits+0x2c>

01805cdc <__mcmp>:
 1805cdc:	20800417 	ldw	r2,16(r4)
 1805ce0:	28c00417 	ldw	r3,16(r5)
 1805ce4:	10cfc83a 	sub	r7,r2,r3
 1805ce8:	38000c1e 	bne	r7,zero,1805d1c <__mcmp+0x40>
 1805cec:	18c5883a 	add	r2,r3,r3
 1805cf0:	1085883a 	add	r2,r2,r2
 1805cf4:	10c00504 	addi	r3,r2,20
 1805cf8:	21000504 	addi	r4,r4,20
 1805cfc:	28cb883a 	add	r5,r5,r3
 1805d00:	2085883a 	add	r2,r4,r2
 1805d04:	10bfff04 	addi	r2,r2,-4
 1805d08:	297fff04 	addi	r5,r5,-4
 1805d0c:	11800017 	ldw	r6,0(r2)
 1805d10:	28c00017 	ldw	r3,0(r5)
 1805d14:	30c0031e 	bne	r6,r3,1805d24 <__mcmp+0x48>
 1805d18:	20bffa36 	bltu	r4,r2,1805d04 <__mcmp+0x28>
 1805d1c:	3805883a 	mov	r2,r7
 1805d20:	f800283a 	ret
 1805d24:	30c00336 	bltu	r6,r3,1805d34 <__mcmp+0x58>
 1805d28:	01c00044 	movi	r7,1
 1805d2c:	3805883a 	mov	r2,r7
 1805d30:	f800283a 	ret
 1805d34:	01ffffc4 	movi	r7,-1
 1805d38:	003ff806 	br	1805d1c <__mcmp+0x40>

01805d3c <__ulp>:
 1805d3c:	295ffc2c 	andhi	r5,r5,32752
 1805d40:	013f3034 	movhi	r4,64704
 1805d44:	290b883a 	add	r5,r5,r4
 1805d48:	0145c83a 	sub	r2,zero,r5
 1805d4c:	1007d53a 	srai	r3,r2,20
 1805d50:	000d883a 	mov	r6,zero
 1805d54:	0140040e 	bge	zero,r5,1805d68 <__ulp+0x2c>
 1805d58:	280f883a 	mov	r7,r5
 1805d5c:	3807883a 	mov	r3,r7
 1805d60:	3005883a 	mov	r2,r6
 1805d64:	f800283a 	ret
 1805d68:	008004c4 	movi	r2,19
 1805d6c:	193ffb04 	addi	r4,r3,-20
 1805d70:	10c00c0e 	bge	r2,r3,1805da4 <__ulp+0x68>
 1805d74:	008007c4 	movi	r2,31
 1805d78:	1107c83a 	sub	r3,r2,r4
 1805d7c:	00800784 	movi	r2,30
 1805d80:	01400044 	movi	r5,1
 1805d84:	11000216 	blt	r2,r4,1805d90 <__ulp+0x54>
 1805d88:	00800044 	movi	r2,1
 1805d8c:	10ca983a 	sll	r5,r2,r3
 1805d90:	000f883a 	mov	r7,zero
 1805d94:	280d883a 	mov	r6,r5
 1805d98:	3807883a 	mov	r3,r7
 1805d9c:	3005883a 	mov	r2,r6
 1805da0:	f800283a 	ret
 1805da4:	00800234 	movhi	r2,8
 1805da8:	10cfd83a 	sra	r7,r2,r3
 1805dac:	000d883a 	mov	r6,zero
 1805db0:	3005883a 	mov	r2,r6
 1805db4:	3807883a 	mov	r3,r7
 1805db8:	f800283a 	ret

01805dbc <__b2d>:
 1805dbc:	20800417 	ldw	r2,16(r4)
 1805dc0:	defff904 	addi	sp,sp,-28
 1805dc4:	dd000415 	stw	r20,16(sp)
 1805dc8:	1085883a 	add	r2,r2,r2
 1805dcc:	25000504 	addi	r20,r4,20
 1805dd0:	1085883a 	add	r2,r2,r2
 1805dd4:	dc000015 	stw	r16,0(sp)
 1805dd8:	a0a1883a 	add	r16,r20,r2
 1805ddc:	dd400515 	stw	r21,20(sp)
 1805de0:	857fff17 	ldw	r21,-4(r16)
 1805de4:	dc400115 	stw	r17,4(sp)
 1805de8:	dfc00615 	stw	ra,24(sp)
 1805dec:	a809883a 	mov	r4,r21
 1805df0:	2823883a 	mov	r17,r5
 1805df4:	dcc00315 	stw	r19,12(sp)
 1805df8:	dc800215 	stw	r18,8(sp)
 1805dfc:	1805ba80 	call	1805ba8 <__hi0bits>
 1805e00:	100b883a 	mov	r5,r2
 1805e04:	00800804 	movi	r2,32
 1805e08:	1145c83a 	sub	r2,r2,r5
 1805e0c:	88800015 	stw	r2,0(r17)
 1805e10:	00800284 	movi	r2,10
 1805e14:	80ffff04 	addi	r3,r16,-4
 1805e18:	11401416 	blt	r2,r5,1805e6c <__b2d+0xb0>
 1805e1c:	008002c4 	movi	r2,11
 1805e20:	1149c83a 	sub	r4,r2,r5
 1805e24:	a0c02736 	bltu	r20,r3,1805ec4 <__b2d+0x108>
 1805e28:	000d883a 	mov	r6,zero
 1805e2c:	28800544 	addi	r2,r5,21
 1805e30:	a906d83a 	srl	r3,r21,r4
 1805e34:	a884983a 	sll	r2,r21,r2
 1805e38:	1ccffc34 	orhi	r19,r3,16368
 1805e3c:	11a4b03a 	or	r18,r2,r6
 1805e40:	9005883a 	mov	r2,r18
 1805e44:	9807883a 	mov	r3,r19
 1805e48:	dfc00617 	ldw	ra,24(sp)
 1805e4c:	dd400517 	ldw	r21,20(sp)
 1805e50:	dd000417 	ldw	r20,16(sp)
 1805e54:	dcc00317 	ldw	r19,12(sp)
 1805e58:	dc800217 	ldw	r18,8(sp)
 1805e5c:	dc400117 	ldw	r17,4(sp)
 1805e60:	dc000017 	ldw	r16,0(sp)
 1805e64:	dec00704 	addi	sp,sp,28
 1805e68:	f800283a 	ret
 1805e6c:	a0c00e36 	bltu	r20,r3,1805ea8 <__b2d+0xec>
 1805e70:	293ffd44 	addi	r4,r5,-11
 1805e74:	000d883a 	mov	r6,zero
 1805e78:	20000f26 	beq	r4,zero,1805eb8 <__b2d+0xfc>
 1805e7c:	00800804 	movi	r2,32
 1805e80:	110bc83a 	sub	r5,r2,r4
 1805e84:	a0c01236 	bltu	r20,r3,1805ed0 <__b2d+0x114>
 1805e88:	000f883a 	mov	r7,zero
 1805e8c:	a904983a 	sll	r2,r21,r4
 1805e90:	3146d83a 	srl	r3,r6,r5
 1805e94:	3108983a 	sll	r4,r6,r4
 1805e98:	108ffc34 	orhi	r2,r2,16368
 1805e9c:	18a6b03a 	or	r19,r3,r2
 1805ea0:	3924b03a 	or	r18,r7,r4
 1805ea4:	003fe606 	br	1805e40 <__b2d+0x84>
 1805ea8:	293ffd44 	addi	r4,r5,-11
 1805eac:	81bffe17 	ldw	r6,-8(r16)
 1805eb0:	80fffe04 	addi	r3,r16,-8
 1805eb4:	203ff11e 	bne	r4,zero,1805e7c <__b2d+0xc0>
 1805eb8:	accffc34 	orhi	r19,r21,16368
 1805ebc:	3025883a 	mov	r18,r6
 1805ec0:	003fdf06 	br	1805e40 <__b2d+0x84>
 1805ec4:	18bfff17 	ldw	r2,-4(r3)
 1805ec8:	110cd83a 	srl	r6,r2,r4
 1805ecc:	003fd706 	br	1805e2c <__b2d+0x70>
 1805ed0:	18bfff17 	ldw	r2,-4(r3)
 1805ed4:	114ed83a 	srl	r7,r2,r5
 1805ed8:	003fec06 	br	1805e8c <__b2d+0xd0>

01805edc <__ratio>:
 1805edc:	defff904 	addi	sp,sp,-28
 1805ee0:	dc400215 	stw	r17,8(sp)
 1805ee4:	2823883a 	mov	r17,r5
 1805ee8:	d80b883a 	mov	r5,sp
 1805eec:	dfc00615 	stw	ra,24(sp)
 1805ef0:	dd000515 	stw	r20,20(sp)
 1805ef4:	dcc00415 	stw	r19,16(sp)
 1805ef8:	dc800315 	stw	r18,12(sp)
 1805efc:	2025883a 	mov	r18,r4
 1805f00:	1805dbc0 	call	1805dbc <__b2d>
 1805f04:	8809883a 	mov	r4,r17
 1805f08:	d9400104 	addi	r5,sp,4
 1805f0c:	1027883a 	mov	r19,r2
 1805f10:	1829883a 	mov	r20,r3
 1805f14:	1805dbc0 	call	1805dbc <__b2d>
 1805f18:	89000417 	ldw	r4,16(r17)
 1805f1c:	91c00417 	ldw	r7,16(r18)
 1805f20:	d9800117 	ldw	r6,4(sp)
 1805f24:	180b883a 	mov	r5,r3
 1805f28:	390fc83a 	sub	r7,r7,r4
 1805f2c:	1009883a 	mov	r4,r2
 1805f30:	d8800017 	ldw	r2,0(sp)
 1805f34:	380e917a 	slli	r7,r7,5
 1805f38:	2011883a 	mov	r8,r4
 1805f3c:	1185c83a 	sub	r2,r2,r6
 1805f40:	11c5883a 	add	r2,r2,r7
 1805f44:	1006953a 	slli	r3,r2,20
 1805f48:	2813883a 	mov	r9,r5
 1805f4c:	00800d0e 	bge	zero,r2,1805f84 <__ratio+0xa8>
 1805f50:	1d29883a 	add	r20,r3,r20
 1805f54:	a00b883a 	mov	r5,r20
 1805f58:	480f883a 	mov	r7,r9
 1805f5c:	9809883a 	mov	r4,r19
 1805f60:	400d883a 	mov	r6,r8
 1805f64:	1808d380 	call	1808d38 <__divdf3>
 1805f68:	dfc00617 	ldw	ra,24(sp)
 1805f6c:	dd000517 	ldw	r20,20(sp)
 1805f70:	dcc00417 	ldw	r19,16(sp)
 1805f74:	dc800317 	ldw	r18,12(sp)
 1805f78:	dc400217 	ldw	r17,8(sp)
 1805f7c:	dec00704 	addi	sp,sp,28
 1805f80:	f800283a 	ret
 1805f84:	28d3c83a 	sub	r9,r5,r3
 1805f88:	003ff206 	br	1805f54 <__ratio+0x78>

01805f8c <_mprec_log10>:
 1805f8c:	defffe04 	addi	sp,sp,-8
 1805f90:	008005c4 	movi	r2,23
 1805f94:	dc000015 	stw	r16,0(sp)
 1805f98:	dfc00115 	stw	ra,4(sp)
 1805f9c:	2021883a 	mov	r16,r4
 1805fa0:	11000c16 	blt	r2,r4,1805fd4 <_mprec_log10+0x48>
 1805fa4:	200490fa 	slli	r2,r4,3
 1805fa8:	00c06074 	movhi	r3,385
 1805fac:	18c26a04 	addi	r3,r3,2472
 1805fb0:	10c5883a 	add	r2,r2,r3
 1805fb4:	12400117 	ldw	r9,4(r2)
 1805fb8:	12000017 	ldw	r8,0(r2)
 1805fbc:	4807883a 	mov	r3,r9
 1805fc0:	4005883a 	mov	r2,r8
 1805fc4:	dfc00117 	ldw	ra,4(sp)
 1805fc8:	dc000017 	ldw	r16,0(sp)
 1805fcc:	dec00204 	addi	sp,sp,8
 1805fd0:	f800283a 	ret
 1805fd4:	0011883a 	mov	r8,zero
 1805fd8:	024ffc34 	movhi	r9,16368
 1805fdc:	0005883a 	mov	r2,zero
 1805fe0:	00d00934 	movhi	r3,16420
 1805fe4:	480b883a 	mov	r5,r9
 1805fe8:	4009883a 	mov	r4,r8
 1805fec:	180f883a 	mov	r7,r3
 1805ff0:	100d883a 	mov	r6,r2
 1805ff4:	18089740 	call	1808974 <__muldf3>
 1805ff8:	843fffc4 	addi	r16,r16,-1
 1805ffc:	1011883a 	mov	r8,r2
 1806000:	1813883a 	mov	r9,r3
 1806004:	803ff51e 	bne	r16,zero,1805fdc <_mprec_log10+0x50>
 1806008:	4005883a 	mov	r2,r8
 180600c:	4807883a 	mov	r3,r9
 1806010:	dfc00117 	ldw	ra,4(sp)
 1806014:	dc000017 	ldw	r16,0(sp)
 1806018:	dec00204 	addi	sp,sp,8
 180601c:	f800283a 	ret

01806020 <__copybits>:
 1806020:	297fffc4 	addi	r5,r5,-1
 1806024:	30800417 	ldw	r2,16(r6)
 1806028:	280bd17a 	srai	r5,r5,5
 180602c:	31800504 	addi	r6,r6,20
 1806030:	1085883a 	add	r2,r2,r2
 1806034:	294b883a 	add	r5,r5,r5
 1806038:	294b883a 	add	r5,r5,r5
 180603c:	1085883a 	add	r2,r2,r2
 1806040:	290b883a 	add	r5,r5,r4
 1806044:	3087883a 	add	r3,r6,r2
 1806048:	29400104 	addi	r5,r5,4
 180604c:	30c0052e 	bgeu	r6,r3,1806064 <__copybits+0x44>
 1806050:	30800017 	ldw	r2,0(r6)
 1806054:	31800104 	addi	r6,r6,4
 1806058:	20800015 	stw	r2,0(r4)
 180605c:	21000104 	addi	r4,r4,4
 1806060:	30fffb36 	bltu	r6,r3,1806050 <__copybits+0x30>
 1806064:	2140032e 	bgeu	r4,r5,1806074 <__copybits+0x54>
 1806068:	20000015 	stw	zero,0(r4)
 180606c:	21000104 	addi	r4,r4,4
 1806070:	217ffd36 	bltu	r4,r5,1806068 <__copybits+0x48>
 1806074:	f800283a 	ret

01806078 <__any_on>:
 1806078:	20800417 	ldw	r2,16(r4)
 180607c:	2807d17a 	srai	r3,r5,5
 1806080:	21000504 	addi	r4,r4,20
 1806084:	10c00d0e 	bge	r2,r3,18060bc <__any_on+0x44>
 1806088:	1085883a 	add	r2,r2,r2
 180608c:	1085883a 	add	r2,r2,r2
 1806090:	208d883a 	add	r6,r4,r2
 1806094:	2180182e 	bgeu	r4,r6,18060f8 <__any_on+0x80>
 1806098:	30bfff17 	ldw	r2,-4(r6)
 180609c:	30ffff04 	addi	r3,r6,-4
 18060a0:	1000041e 	bne	r2,zero,18060b4 <__any_on+0x3c>
 18060a4:	20c0142e 	bgeu	r4,r3,18060f8 <__any_on+0x80>
 18060a8:	18ffff04 	addi	r3,r3,-4
 18060ac:	18800017 	ldw	r2,0(r3)
 18060b0:	103ffc26 	beq	r2,zero,18060a4 <__any_on+0x2c>
 18060b4:	00800044 	movi	r2,1
 18060b8:	f800283a 	ret
 18060bc:	18800a0e 	bge	r3,r2,18060e8 <__any_on+0x70>
 18060c0:	294007cc 	andi	r5,r5,31
 18060c4:	28000826 	beq	r5,zero,18060e8 <__any_on+0x70>
 18060c8:	18c5883a 	add	r2,r3,r3
 18060cc:	1085883a 	add	r2,r2,r2
 18060d0:	208d883a 	add	r6,r4,r2
 18060d4:	30c00017 	ldw	r3,0(r6)
 18060d8:	1944d83a 	srl	r2,r3,r5
 18060dc:	1144983a 	sll	r2,r2,r5
 18060e0:	18bff41e 	bne	r3,r2,18060b4 <__any_on+0x3c>
 18060e4:	003feb06 	br	1806094 <__any_on+0x1c>
 18060e8:	18c5883a 	add	r2,r3,r3
 18060ec:	1085883a 	add	r2,r2,r2
 18060f0:	208d883a 	add	r6,r4,r2
 18060f4:	003fe706 	br	1806094 <__any_on+0x1c>
 18060f8:	0005883a 	mov	r2,zero
 18060fc:	f800283a 	ret

01806100 <_Balloc>:
 1806100:	20c01317 	ldw	r3,76(r4)
 1806104:	defffb04 	addi	sp,sp,-20
 1806108:	dcc00315 	stw	r19,12(sp)
 180610c:	dc800215 	stw	r18,8(sp)
 1806110:	dfc00415 	stw	ra,16(sp)
 1806114:	2825883a 	mov	r18,r5
 1806118:	dc400115 	stw	r17,4(sp)
 180611c:	dc000015 	stw	r16,0(sp)
 1806120:	2027883a 	mov	r19,r4
 1806124:	01800404 	movi	r6,16
 1806128:	01400104 	movi	r5,4
 180612c:	18001726 	beq	r3,zero,180618c <_Balloc+0x8c>
 1806130:	01400044 	movi	r5,1
 1806134:	9485883a 	add	r2,r18,r18
 1806138:	2ca2983a 	sll	r17,r5,r18
 180613c:	1085883a 	add	r2,r2,r2
 1806140:	10c7883a 	add	r3,r2,r3
 1806144:	1c000017 	ldw	r16,0(r3)
 1806148:	8c4d883a 	add	r6,r17,r17
 180614c:	318d883a 	add	r6,r6,r6
 1806150:	9809883a 	mov	r4,r19
 1806154:	31800504 	addi	r6,r6,20
 1806158:	80001226 	beq	r16,zero,18061a4 <_Balloc+0xa4>
 180615c:	80800017 	ldw	r2,0(r16)
 1806160:	18800015 	stw	r2,0(r3)
 1806164:	80000415 	stw	zero,16(r16)
 1806168:	80000315 	stw	zero,12(r16)
 180616c:	8005883a 	mov	r2,r16
 1806170:	dfc00417 	ldw	ra,16(sp)
 1806174:	dcc00317 	ldw	r19,12(sp)
 1806178:	dc800217 	ldw	r18,8(sp)
 180617c:	dc400117 	ldw	r17,4(sp)
 1806180:	dc000017 	ldw	r16,0(sp)
 1806184:	dec00504 	addi	sp,sp,20
 1806188:	f800283a 	ret
 180618c:	18074c80 	call	18074c8 <_calloc_r>
 1806190:	1007883a 	mov	r3,r2
 1806194:	0021883a 	mov	r16,zero
 1806198:	98801315 	stw	r2,76(r19)
 180619c:	103fe41e 	bne	r2,zero,1806130 <_Balloc+0x30>
 18061a0:	003ff206 	br	180616c <_Balloc+0x6c>
 18061a4:	18074c80 	call	18074c8 <_calloc_r>
 18061a8:	103ff026 	beq	r2,zero,180616c <_Balloc+0x6c>
 18061ac:	1021883a 	mov	r16,r2
 18061b0:	14800115 	stw	r18,4(r2)
 18061b4:	14400215 	stw	r17,8(r2)
 18061b8:	003fea06 	br	1806164 <_Balloc+0x64>

018061bc <__d2b>:
 18061bc:	defff504 	addi	sp,sp,-44
 18061c0:	dcc00515 	stw	r19,20(sp)
 18061c4:	04c00044 	movi	r19,1
 18061c8:	dc000215 	stw	r16,8(sp)
 18061cc:	2821883a 	mov	r16,r5
 18061d0:	980b883a 	mov	r5,r19
 18061d4:	ddc00915 	stw	r23,36(sp)
 18061d8:	dd800815 	stw	r22,32(sp)
 18061dc:	dd400715 	stw	r21,28(sp)
 18061e0:	dd000615 	stw	r20,24(sp)
 18061e4:	dc800415 	stw	r18,16(sp)
 18061e8:	dc400315 	stw	r17,12(sp)
 18061ec:	dfc00a15 	stw	ra,40(sp)
 18061f0:	3023883a 	mov	r17,r6
 18061f4:	382d883a 	mov	r22,r7
 18061f8:	ddc00b17 	ldw	r23,44(sp)
 18061fc:	18061000 	call	1806100 <_Balloc>
 1806200:	1025883a 	mov	r18,r2
 1806204:	00a00034 	movhi	r2,32768
 1806208:	10bfffc4 	addi	r2,r2,-1
 180620c:	8888703a 	and	r4,r17,r2
 1806210:	202ad53a 	srli	r21,r4,20
 1806214:	00800434 	movhi	r2,16
 1806218:	10bfffc4 	addi	r2,r2,-1
 180621c:	8886703a 	and	r3,r17,r2
 1806220:	a829003a 	cmpeq	r20,r21,zero
 1806224:	800b883a 	mov	r5,r16
 1806228:	d8c00115 	stw	r3,4(sp)
 180622c:	94000504 	addi	r16,r18,20
 1806230:	a000021e 	bne	r20,zero,180623c <__d2b+0x80>
 1806234:	18c00434 	orhi	r3,r3,16
 1806238:	d8c00115 	stw	r3,4(sp)
 180623c:	28002726 	beq	r5,zero,18062dc <__d2b+0x120>
 1806240:	d809883a 	mov	r4,sp
 1806244:	d9400015 	stw	r5,0(sp)
 1806248:	1805c180 	call	1805c18 <__lo0bits>
 180624c:	100d883a 	mov	r6,r2
 1806250:	10003526 	beq	r2,zero,1806328 <__d2b+0x16c>
 1806254:	d8c00117 	ldw	r3,4(sp)
 1806258:	00800804 	movi	r2,32
 180625c:	1185c83a 	sub	r2,r2,r6
 1806260:	d9000017 	ldw	r4,0(sp)
 1806264:	1886983a 	sll	r3,r3,r2
 1806268:	1906b03a 	or	r3,r3,r4
 180626c:	90c00515 	stw	r3,20(r18)
 1806270:	d8c00117 	ldw	r3,4(sp)
 1806274:	1986d83a 	srl	r3,r3,r6
 1806278:	d8c00115 	stw	r3,4(sp)
 180627c:	180b003a 	cmpeq	r5,r3,zero
 1806280:	00800084 	movi	r2,2
 1806284:	114bc83a 	sub	r5,r2,r5
 1806288:	80c00115 	stw	r3,4(r16)
 180628c:	91400415 	stw	r5,16(r18)
 1806290:	a0001a1e 	bne	r20,zero,18062fc <__d2b+0x140>
 1806294:	3545883a 	add	r2,r6,r21
 1806298:	10bef344 	addi	r2,r2,-1075
 180629c:	00c00d44 	movi	r3,53
 18062a0:	b0800015 	stw	r2,0(r22)
 18062a4:	1987c83a 	sub	r3,r3,r6
 18062a8:	b8c00015 	stw	r3,0(r23)
 18062ac:	9005883a 	mov	r2,r18
 18062b0:	dfc00a17 	ldw	ra,40(sp)
 18062b4:	ddc00917 	ldw	r23,36(sp)
 18062b8:	dd800817 	ldw	r22,32(sp)
 18062bc:	dd400717 	ldw	r21,28(sp)
 18062c0:	dd000617 	ldw	r20,24(sp)
 18062c4:	dcc00517 	ldw	r19,20(sp)
 18062c8:	dc800417 	ldw	r18,16(sp)
 18062cc:	dc400317 	ldw	r17,12(sp)
 18062d0:	dc000217 	ldw	r16,8(sp)
 18062d4:	dec00b04 	addi	sp,sp,44
 18062d8:	f800283a 	ret
 18062dc:	d9000104 	addi	r4,sp,4
 18062e0:	1805c180 	call	1805c18 <__lo0bits>
 18062e4:	11800804 	addi	r6,r2,32
 18062e8:	d8800117 	ldw	r2,4(sp)
 18062ec:	94c00415 	stw	r19,16(r18)
 18062f0:	980b883a 	mov	r5,r19
 18062f4:	90800515 	stw	r2,20(r18)
 18062f8:	a03fe626 	beq	r20,zero,1806294 <__d2b+0xd8>
 18062fc:	2945883a 	add	r2,r5,r5
 1806300:	1085883a 	add	r2,r2,r2
 1806304:	1405883a 	add	r2,r2,r16
 1806308:	113fff17 	ldw	r4,-4(r2)
 180630c:	30fef384 	addi	r3,r6,-1074
 1806310:	2820917a 	slli	r16,r5,5
 1806314:	b0c00015 	stw	r3,0(r22)
 1806318:	1805ba80 	call	1805ba8 <__hi0bits>
 180631c:	80a1c83a 	sub	r16,r16,r2
 1806320:	bc000015 	stw	r16,0(r23)
 1806324:	003fe106 	br	18062ac <__d2b+0xf0>
 1806328:	d8800017 	ldw	r2,0(sp)
 180632c:	90800515 	stw	r2,20(r18)
 1806330:	d8c00117 	ldw	r3,4(sp)
 1806334:	003fd106 	br	180627c <__d2b+0xc0>

01806338 <__mdiff>:
 1806338:	defffb04 	addi	sp,sp,-20
 180633c:	dc000015 	stw	r16,0(sp)
 1806340:	2821883a 	mov	r16,r5
 1806344:	dc800215 	stw	r18,8(sp)
 1806348:	300b883a 	mov	r5,r6
 180634c:	2025883a 	mov	r18,r4
 1806350:	8009883a 	mov	r4,r16
 1806354:	dc400115 	stw	r17,4(sp)
 1806358:	dfc00415 	stw	ra,16(sp)
 180635c:	dcc00315 	stw	r19,12(sp)
 1806360:	3023883a 	mov	r17,r6
 1806364:	1805cdc0 	call	1805cdc <__mcmp>
 1806368:	10004226 	beq	r2,zero,1806474 <__mdiff+0x13c>
 180636c:	10005016 	blt	r2,zero,18064b0 <__mdiff+0x178>
 1806370:	0027883a 	mov	r19,zero
 1806374:	81400117 	ldw	r5,4(r16)
 1806378:	9009883a 	mov	r4,r18
 180637c:	18061000 	call	1806100 <_Balloc>
 1806380:	1019883a 	mov	r12,r2
 1806384:	82800417 	ldw	r10,16(r16)
 1806388:	88800417 	ldw	r2,16(r17)
 180638c:	81800504 	addi	r6,r16,20
 1806390:	5287883a 	add	r3,r10,r10
 1806394:	1085883a 	add	r2,r2,r2
 1806398:	18c7883a 	add	r3,r3,r3
 180639c:	1085883a 	add	r2,r2,r2
 18063a0:	8a000504 	addi	r8,r17,20
 18063a4:	64c00315 	stw	r19,12(r12)
 18063a8:	30db883a 	add	r13,r6,r3
 18063ac:	4097883a 	add	r11,r8,r2
 18063b0:	61c00504 	addi	r7,r12,20
 18063b4:	0013883a 	mov	r9,zero
 18063b8:	31000017 	ldw	r4,0(r6)
 18063bc:	41400017 	ldw	r5,0(r8)
 18063c0:	42000104 	addi	r8,r8,4
 18063c4:	20bfffcc 	andi	r2,r4,65535
 18063c8:	28ffffcc 	andi	r3,r5,65535
 18063cc:	10c5c83a 	sub	r2,r2,r3
 18063d0:	1245883a 	add	r2,r2,r9
 18063d4:	2008d43a 	srli	r4,r4,16
 18063d8:	280ad43a 	srli	r5,r5,16
 18063dc:	1007d43a 	srai	r3,r2,16
 18063e0:	3880000d 	sth	r2,0(r7)
 18063e4:	2149c83a 	sub	r4,r4,r5
 18063e8:	20c9883a 	add	r4,r4,r3
 18063ec:	3900008d 	sth	r4,2(r7)
 18063f0:	31800104 	addi	r6,r6,4
 18063f4:	39c00104 	addi	r7,r7,4
 18063f8:	2013d43a 	srai	r9,r4,16
 18063fc:	42ffee36 	bltu	r8,r11,18063b8 <__mdiff+0x80>
 1806400:	33400c2e 	bgeu	r6,r13,1806434 <__mdiff+0xfc>
 1806404:	30800017 	ldw	r2,0(r6)
 1806408:	31800104 	addi	r6,r6,4
 180640c:	10ffffcc 	andi	r3,r2,65535
 1806410:	1a47883a 	add	r3,r3,r9
 1806414:	1004d43a 	srli	r2,r2,16
 1806418:	1809d43a 	srai	r4,r3,16
 180641c:	38c0000d 	sth	r3,0(r7)
 1806420:	1105883a 	add	r2,r2,r4
 1806424:	3880008d 	sth	r2,2(r7)
 1806428:	1013d43a 	srai	r9,r2,16
 180642c:	39c00104 	addi	r7,r7,4
 1806430:	337ff436 	bltu	r6,r13,1806404 <__mdiff+0xcc>
 1806434:	38bfff17 	ldw	r2,-4(r7)
 1806438:	38ffff04 	addi	r3,r7,-4
 180643c:	1000041e 	bne	r2,zero,1806450 <__mdiff+0x118>
 1806440:	18ffff04 	addi	r3,r3,-4
 1806444:	18800017 	ldw	r2,0(r3)
 1806448:	52bfffc4 	addi	r10,r10,-1
 180644c:	103ffc26 	beq	r2,zero,1806440 <__mdiff+0x108>
 1806450:	6005883a 	mov	r2,r12
 1806454:	62800415 	stw	r10,16(r12)
 1806458:	dfc00417 	ldw	ra,16(sp)
 180645c:	dcc00317 	ldw	r19,12(sp)
 1806460:	dc800217 	ldw	r18,8(sp)
 1806464:	dc400117 	ldw	r17,4(sp)
 1806468:	dc000017 	ldw	r16,0(sp)
 180646c:	dec00504 	addi	sp,sp,20
 1806470:	f800283a 	ret
 1806474:	9009883a 	mov	r4,r18
 1806478:	000b883a 	mov	r5,zero
 180647c:	18061000 	call	1806100 <_Balloc>
 1806480:	1019883a 	mov	r12,r2
 1806484:	00800044 	movi	r2,1
 1806488:	60800415 	stw	r2,16(r12)
 180648c:	6005883a 	mov	r2,r12
 1806490:	60000515 	stw	zero,20(r12)
 1806494:	dfc00417 	ldw	ra,16(sp)
 1806498:	dcc00317 	ldw	r19,12(sp)
 180649c:	dc800217 	ldw	r18,8(sp)
 18064a0:	dc400117 	ldw	r17,4(sp)
 18064a4:	dc000017 	ldw	r16,0(sp)
 18064a8:	dec00504 	addi	sp,sp,20
 18064ac:	f800283a 	ret
 18064b0:	880d883a 	mov	r6,r17
 18064b4:	04c00044 	movi	r19,1
 18064b8:	8023883a 	mov	r17,r16
 18064bc:	3021883a 	mov	r16,r6
 18064c0:	003fac06 	br	1806374 <__mdiff+0x3c>

018064c4 <__lshift>:
 18064c4:	defff904 	addi	sp,sp,-28
 18064c8:	28800417 	ldw	r2,16(r5)
 18064cc:	dc000015 	stw	r16,0(sp)
 18064d0:	3021d17a 	srai	r16,r6,5
 18064d4:	28c00217 	ldw	r3,8(r5)
 18064d8:	10800044 	addi	r2,r2,1
 18064dc:	dc400115 	stw	r17,4(sp)
 18064e0:	80a3883a 	add	r17,r16,r2
 18064e4:	dd400515 	stw	r21,20(sp)
 18064e8:	dd000415 	stw	r20,16(sp)
 18064ec:	dc800215 	stw	r18,8(sp)
 18064f0:	dfc00615 	stw	ra,24(sp)
 18064f4:	2825883a 	mov	r18,r5
 18064f8:	dcc00315 	stw	r19,12(sp)
 18064fc:	3029883a 	mov	r20,r6
 1806500:	202b883a 	mov	r21,r4
 1806504:	29400117 	ldw	r5,4(r5)
 1806508:	1c40030e 	bge	r3,r17,1806518 <__lshift+0x54>
 180650c:	18c7883a 	add	r3,r3,r3
 1806510:	29400044 	addi	r5,r5,1
 1806514:	1c7ffd16 	blt	r3,r17,180650c <__lshift+0x48>
 1806518:	a809883a 	mov	r4,r21
 180651c:	18061000 	call	1806100 <_Balloc>
 1806520:	1027883a 	mov	r19,r2
 1806524:	11400504 	addi	r5,r2,20
 1806528:	0400090e 	bge	zero,r16,1806550 <__lshift+0x8c>
 180652c:	2805883a 	mov	r2,r5
 1806530:	0007883a 	mov	r3,zero
 1806534:	18c00044 	addi	r3,r3,1
 1806538:	10000015 	stw	zero,0(r2)
 180653c:	10800104 	addi	r2,r2,4
 1806540:	80fffc1e 	bne	r16,r3,1806534 <__lshift+0x70>
 1806544:	8405883a 	add	r2,r16,r16
 1806548:	1085883a 	add	r2,r2,r2
 180654c:	288b883a 	add	r5,r5,r2
 1806550:	90800417 	ldw	r2,16(r18)
 1806554:	91000504 	addi	r4,r18,20
 1806558:	a18007cc 	andi	r6,r20,31
 180655c:	1085883a 	add	r2,r2,r2
 1806560:	1085883a 	add	r2,r2,r2
 1806564:	208f883a 	add	r7,r4,r2
 1806568:	30001e26 	beq	r6,zero,18065e4 <__lshift+0x120>
 180656c:	00800804 	movi	r2,32
 1806570:	1191c83a 	sub	r8,r2,r6
 1806574:	0007883a 	mov	r3,zero
 1806578:	20800017 	ldw	r2,0(r4)
 180657c:	1184983a 	sll	r2,r2,r6
 1806580:	1884b03a 	or	r2,r3,r2
 1806584:	28800015 	stw	r2,0(r5)
 1806588:	20c00017 	ldw	r3,0(r4)
 180658c:	21000104 	addi	r4,r4,4
 1806590:	29400104 	addi	r5,r5,4
 1806594:	1a06d83a 	srl	r3,r3,r8
 1806598:	21fff736 	bltu	r4,r7,1806578 <__lshift+0xb4>
 180659c:	28c00015 	stw	r3,0(r5)
 18065a0:	18000126 	beq	r3,zero,18065a8 <__lshift+0xe4>
 18065a4:	8c400044 	addi	r17,r17,1
 18065a8:	88bfffc4 	addi	r2,r17,-1
 18065ac:	98800415 	stw	r2,16(r19)
 18065b0:	a809883a 	mov	r4,r21
 18065b4:	900b883a 	mov	r5,r18
 18065b8:	1805b800 	call	1805b80 <_Bfree>
 18065bc:	9805883a 	mov	r2,r19
 18065c0:	dfc00617 	ldw	ra,24(sp)
 18065c4:	dd400517 	ldw	r21,20(sp)
 18065c8:	dd000417 	ldw	r20,16(sp)
 18065cc:	dcc00317 	ldw	r19,12(sp)
 18065d0:	dc800217 	ldw	r18,8(sp)
 18065d4:	dc400117 	ldw	r17,4(sp)
 18065d8:	dc000017 	ldw	r16,0(sp)
 18065dc:	dec00704 	addi	sp,sp,28
 18065e0:	f800283a 	ret
 18065e4:	20800017 	ldw	r2,0(r4)
 18065e8:	21000104 	addi	r4,r4,4
 18065ec:	28800015 	stw	r2,0(r5)
 18065f0:	29400104 	addi	r5,r5,4
 18065f4:	21ffec2e 	bgeu	r4,r7,18065a8 <__lshift+0xe4>
 18065f8:	20800017 	ldw	r2,0(r4)
 18065fc:	21000104 	addi	r4,r4,4
 1806600:	28800015 	stw	r2,0(r5)
 1806604:	29400104 	addi	r5,r5,4
 1806608:	21fff636 	bltu	r4,r7,18065e4 <__lshift+0x120>
 180660c:	003fe606 	br	18065a8 <__lshift+0xe4>

01806610 <__multiply>:
 1806610:	defff904 	addi	sp,sp,-28
 1806614:	dcc00315 	stw	r19,12(sp)
 1806618:	dc800215 	stw	r18,8(sp)
 180661c:	2cc00417 	ldw	r19,16(r5)
 1806620:	34800417 	ldw	r18,16(r6)
 1806624:	dd000415 	stw	r20,16(sp)
 1806628:	dc400115 	stw	r17,4(sp)
 180662c:	dfc00615 	stw	ra,24(sp)
 1806630:	dd400515 	stw	r21,20(sp)
 1806634:	dc000015 	stw	r16,0(sp)
 1806638:	2823883a 	mov	r17,r5
 180663c:	3029883a 	mov	r20,r6
 1806640:	9c80040e 	bge	r19,r18,1806654 <__multiply+0x44>
 1806644:	9027883a 	mov	r19,r18
 1806648:	2c800417 	ldw	r18,16(r5)
 180664c:	2829883a 	mov	r20,r5
 1806650:	3023883a 	mov	r17,r6
 1806654:	88800217 	ldw	r2,8(r17)
 1806658:	9ca1883a 	add	r16,r19,r18
 180665c:	89400117 	ldw	r5,4(r17)
 1806660:	1400010e 	bge	r2,r16,1806668 <__multiply+0x58>
 1806664:	29400044 	addi	r5,r5,1
 1806668:	18061000 	call	1806100 <_Balloc>
 180666c:	102b883a 	mov	r21,r2
 1806670:	8405883a 	add	r2,r16,r16
 1806674:	1085883a 	add	r2,r2,r2
 1806678:	a9000504 	addi	r4,r21,20
 180667c:	209d883a 	add	r14,r4,r2
 1806680:	2380042e 	bgeu	r4,r14,1806694 <__multiply+0x84>
 1806684:	2005883a 	mov	r2,r4
 1806688:	10000015 	stw	zero,0(r2)
 180668c:	10800104 	addi	r2,r2,4
 1806690:	13bffd36 	bltu	r2,r14,1806688 <__multiply+0x78>
 1806694:	9485883a 	add	r2,r18,r18
 1806698:	9cc7883a 	add	r3,r19,r19
 180669c:	a1800504 	addi	r6,r20,20
 18066a0:	1085883a 	add	r2,r2,r2
 18066a4:	8b400504 	addi	r13,r17,20
 18066a8:	18c7883a 	add	r3,r3,r3
 18066ac:	309f883a 	add	r15,r6,r2
 18066b0:	68d7883a 	add	r11,r13,r3
 18066b4:	33c03b2e 	bgeu	r6,r15,18067a4 <__multiply+0x194>
 18066b8:	2019883a 	mov	r12,r4
 18066bc:	30800017 	ldw	r2,0(r6)
 18066c0:	127fffcc 	andi	r9,r2,65535
 18066c4:	48001826 	beq	r9,zero,1806728 <__multiply+0x118>
 18066c8:	6811883a 	mov	r8,r13
 18066cc:	600f883a 	mov	r7,r12
 18066d0:	0015883a 	mov	r10,zero
 18066d4:	40c00017 	ldw	r3,0(r8)
 18066d8:	39400017 	ldw	r5,0(r7)
 18066dc:	42000104 	addi	r8,r8,4
 18066e0:	193fffcc 	andi	r4,r3,65535
 18066e4:	4909383a 	mul	r4,r9,r4
 18066e8:	1806d43a 	srli	r3,r3,16
 18066ec:	28bfffcc 	andi	r2,r5,65535
 18066f0:	5085883a 	add	r2,r10,r2
 18066f4:	2089883a 	add	r4,r4,r2
 18066f8:	48c7383a 	mul	r3,r9,r3
 18066fc:	280ad43a 	srli	r5,r5,16
 1806700:	2004d43a 	srli	r2,r4,16
 1806704:	3900000d 	sth	r4,0(r7)
 1806708:	1947883a 	add	r3,r3,r5
 180670c:	10c5883a 	add	r2,r2,r3
 1806710:	3880008d 	sth	r2,2(r7)
 1806714:	1014d43a 	srli	r10,r2,16
 1806718:	39c00104 	addi	r7,r7,4
 180671c:	42ffed36 	bltu	r8,r11,18066d4 <__multiply+0xc4>
 1806720:	3a800015 	stw	r10,0(r7)
 1806724:	30800017 	ldw	r2,0(r6)
 1806728:	1012d43a 	srli	r9,r2,16
 180672c:	48001926 	beq	r9,zero,1806794 <__multiply+0x184>
 1806730:	60800017 	ldw	r2,0(r12)
 1806734:	6811883a 	mov	r8,r13
 1806738:	600f883a 	mov	r7,r12
 180673c:	0015883a 	mov	r10,zero
 1806740:	100b883a 	mov	r5,r2
 1806744:	41000017 	ldw	r4,0(r8)
 1806748:	2806d43a 	srli	r3,r5,16
 180674c:	3880000d 	sth	r2,0(r7)
 1806750:	20bfffcc 	andi	r2,r4,65535
 1806754:	4885383a 	mul	r2,r9,r2
 1806758:	50c7883a 	add	r3,r10,r3
 180675c:	2008d43a 	srli	r4,r4,16
 1806760:	10c5883a 	add	r2,r2,r3
 1806764:	3880008d 	sth	r2,2(r7)
 1806768:	39c00104 	addi	r7,r7,4
 180676c:	39400017 	ldw	r5,0(r7)
 1806770:	4909383a 	mul	r4,r9,r4
 1806774:	1004d43a 	srli	r2,r2,16
 1806778:	28ffffcc 	andi	r3,r5,65535
 180677c:	20c9883a 	add	r4,r4,r3
 1806780:	1105883a 	add	r2,r2,r4
 1806784:	42000104 	addi	r8,r8,4
 1806788:	1014d43a 	srli	r10,r2,16
 180678c:	42ffed36 	bltu	r8,r11,1806744 <__multiply+0x134>
 1806790:	38800015 	stw	r2,0(r7)
 1806794:	31800104 	addi	r6,r6,4
 1806798:	33c0022e 	bgeu	r6,r15,18067a4 <__multiply+0x194>
 180679c:	63000104 	addi	r12,r12,4
 18067a0:	003fc606 	br	18066bc <__multiply+0xac>
 18067a4:	0400090e 	bge	zero,r16,18067cc <__multiply+0x1bc>
 18067a8:	70bfff17 	ldw	r2,-4(r14)
 18067ac:	70ffff04 	addi	r3,r14,-4
 18067b0:	10000326 	beq	r2,zero,18067c0 <__multiply+0x1b0>
 18067b4:	00000506 	br	18067cc <__multiply+0x1bc>
 18067b8:	18800017 	ldw	r2,0(r3)
 18067bc:	1000031e 	bne	r2,zero,18067cc <__multiply+0x1bc>
 18067c0:	843fffc4 	addi	r16,r16,-1
 18067c4:	18ffff04 	addi	r3,r3,-4
 18067c8:	803ffb1e 	bne	r16,zero,18067b8 <__multiply+0x1a8>
 18067cc:	a805883a 	mov	r2,r21
 18067d0:	ac000415 	stw	r16,16(r21)
 18067d4:	dfc00617 	ldw	ra,24(sp)
 18067d8:	dd400517 	ldw	r21,20(sp)
 18067dc:	dd000417 	ldw	r20,16(sp)
 18067e0:	dcc00317 	ldw	r19,12(sp)
 18067e4:	dc800217 	ldw	r18,8(sp)
 18067e8:	dc400117 	ldw	r17,4(sp)
 18067ec:	dc000017 	ldw	r16,0(sp)
 18067f0:	dec00704 	addi	sp,sp,28
 18067f4:	f800283a 	ret

018067f8 <__i2b>:
 18067f8:	defffd04 	addi	sp,sp,-12
 18067fc:	dc000015 	stw	r16,0(sp)
 1806800:	04000044 	movi	r16,1
 1806804:	dc800115 	stw	r18,4(sp)
 1806808:	2825883a 	mov	r18,r5
 180680c:	800b883a 	mov	r5,r16
 1806810:	dfc00215 	stw	ra,8(sp)
 1806814:	18061000 	call	1806100 <_Balloc>
 1806818:	14000415 	stw	r16,16(r2)
 180681c:	14800515 	stw	r18,20(r2)
 1806820:	dfc00217 	ldw	ra,8(sp)
 1806824:	dc800117 	ldw	r18,4(sp)
 1806828:	dc000017 	ldw	r16,0(sp)
 180682c:	dec00304 	addi	sp,sp,12
 1806830:	f800283a 	ret

01806834 <__multadd>:
 1806834:	defffa04 	addi	sp,sp,-24
 1806838:	dc800215 	stw	r18,8(sp)
 180683c:	2c800417 	ldw	r18,16(r5)
 1806840:	dd000415 	stw	r20,16(sp)
 1806844:	dcc00315 	stw	r19,12(sp)
 1806848:	dc000015 	stw	r16,0(sp)
 180684c:	dfc00515 	stw	ra,20(sp)
 1806850:	3821883a 	mov	r16,r7
 1806854:	dc400115 	stw	r17,4(sp)
 1806858:	2827883a 	mov	r19,r5
 180685c:	2029883a 	mov	r20,r4
 1806860:	2a000504 	addi	r8,r5,20
 1806864:	000f883a 	mov	r7,zero
 1806868:	40800017 	ldw	r2,0(r8)
 180686c:	39c00044 	addi	r7,r7,1
 1806870:	10ffffcc 	andi	r3,r2,65535
 1806874:	1987383a 	mul	r3,r3,r6
 1806878:	1004d43a 	srli	r2,r2,16
 180687c:	1c07883a 	add	r3,r3,r16
 1806880:	180ad43a 	srli	r5,r3,16
 1806884:	1185383a 	mul	r2,r2,r6
 1806888:	18ffffcc 	andi	r3,r3,65535
 180688c:	1145883a 	add	r2,r2,r5
 1806890:	1008943a 	slli	r4,r2,16
 1806894:	1020d43a 	srli	r16,r2,16
 1806898:	20c9883a 	add	r4,r4,r3
 180689c:	41000015 	stw	r4,0(r8)
 18068a0:	42000104 	addi	r8,r8,4
 18068a4:	3cbff016 	blt	r7,r18,1806868 <__multadd+0x34>
 18068a8:	80000826 	beq	r16,zero,18068cc <__multadd+0x98>
 18068ac:	98800217 	ldw	r2,8(r19)
 18068b0:	90800f0e 	bge	r18,r2,18068f0 <__multadd+0xbc>
 18068b4:	9485883a 	add	r2,r18,r18
 18068b8:	1085883a 	add	r2,r2,r2
 18068bc:	14c5883a 	add	r2,r2,r19
 18068c0:	90c00044 	addi	r3,r18,1
 18068c4:	14000515 	stw	r16,20(r2)
 18068c8:	98c00415 	stw	r3,16(r19)
 18068cc:	9805883a 	mov	r2,r19
 18068d0:	dfc00517 	ldw	ra,20(sp)
 18068d4:	dd000417 	ldw	r20,16(sp)
 18068d8:	dcc00317 	ldw	r19,12(sp)
 18068dc:	dc800217 	ldw	r18,8(sp)
 18068e0:	dc400117 	ldw	r17,4(sp)
 18068e4:	dc000017 	ldw	r16,0(sp)
 18068e8:	dec00604 	addi	sp,sp,24
 18068ec:	f800283a 	ret
 18068f0:	99400117 	ldw	r5,4(r19)
 18068f4:	a009883a 	mov	r4,r20
 18068f8:	29400044 	addi	r5,r5,1
 18068fc:	18061000 	call	1806100 <_Balloc>
 1806900:	99800417 	ldw	r6,16(r19)
 1806904:	99400304 	addi	r5,r19,12
 1806908:	11000304 	addi	r4,r2,12
 180690c:	318d883a 	add	r6,r6,r6
 1806910:	318d883a 	add	r6,r6,r6
 1806914:	31800204 	addi	r6,r6,8
 1806918:	1023883a 	mov	r17,r2
 180691c:	18059680 	call	1805968 <memcpy>
 1806920:	980b883a 	mov	r5,r19
 1806924:	a009883a 	mov	r4,r20
 1806928:	1805b800 	call	1805b80 <_Bfree>
 180692c:	8827883a 	mov	r19,r17
 1806930:	003fe006 	br	18068b4 <__multadd+0x80>

01806934 <__pow5mult>:
 1806934:	defffa04 	addi	sp,sp,-24
 1806938:	308000cc 	andi	r2,r6,3
 180693c:	dd000415 	stw	r20,16(sp)
 1806940:	dcc00315 	stw	r19,12(sp)
 1806944:	dc000015 	stw	r16,0(sp)
 1806948:	dfc00515 	stw	ra,20(sp)
 180694c:	dc800215 	stw	r18,8(sp)
 1806950:	dc400115 	stw	r17,4(sp)
 1806954:	3021883a 	mov	r16,r6
 1806958:	2027883a 	mov	r19,r4
 180695c:	2829883a 	mov	r20,r5
 1806960:	10002b1e 	bne	r2,zero,1806a10 <__pow5mult+0xdc>
 1806964:	8025d0ba 	srai	r18,r16,2
 1806968:	90001b26 	beq	r18,zero,18069d8 <__pow5mult+0xa4>
 180696c:	9c001217 	ldw	r16,72(r19)
 1806970:	8000081e 	bne	r16,zero,1806994 <__pow5mult+0x60>
 1806974:	00003006 	br	1806a38 <__pow5mult+0x104>
 1806978:	800b883a 	mov	r5,r16
 180697c:	800d883a 	mov	r6,r16
 1806980:	9809883a 	mov	r4,r19
 1806984:	90001426 	beq	r18,zero,18069d8 <__pow5mult+0xa4>
 1806988:	80800017 	ldw	r2,0(r16)
 180698c:	10001b26 	beq	r2,zero,18069fc <__pow5mult+0xc8>
 1806990:	1021883a 	mov	r16,r2
 1806994:	9080004c 	andi	r2,r18,1
 1806998:	1005003a 	cmpeq	r2,r2,zero
 180699c:	9025d07a 	srai	r18,r18,1
 18069a0:	800d883a 	mov	r6,r16
 18069a4:	9809883a 	mov	r4,r19
 18069a8:	a00b883a 	mov	r5,r20
 18069ac:	103ff21e 	bne	r2,zero,1806978 <__pow5mult+0x44>
 18069b0:	18066100 	call	1806610 <__multiply>
 18069b4:	a00b883a 	mov	r5,r20
 18069b8:	9809883a 	mov	r4,r19
 18069bc:	1023883a 	mov	r17,r2
 18069c0:	1805b800 	call	1805b80 <_Bfree>
 18069c4:	8829883a 	mov	r20,r17
 18069c8:	800b883a 	mov	r5,r16
 18069cc:	800d883a 	mov	r6,r16
 18069d0:	9809883a 	mov	r4,r19
 18069d4:	903fec1e 	bne	r18,zero,1806988 <__pow5mult+0x54>
 18069d8:	a005883a 	mov	r2,r20
 18069dc:	dfc00517 	ldw	ra,20(sp)
 18069e0:	dd000417 	ldw	r20,16(sp)
 18069e4:	dcc00317 	ldw	r19,12(sp)
 18069e8:	dc800217 	ldw	r18,8(sp)
 18069ec:	dc400117 	ldw	r17,4(sp)
 18069f0:	dc000017 	ldw	r16,0(sp)
 18069f4:	dec00604 	addi	sp,sp,24
 18069f8:	f800283a 	ret
 18069fc:	18066100 	call	1806610 <__multiply>
 1806a00:	80800015 	stw	r2,0(r16)
 1806a04:	1021883a 	mov	r16,r2
 1806a08:	10000015 	stw	zero,0(r2)
 1806a0c:	003fe106 	br	1806994 <__pow5mult+0x60>
 1806a10:	1085883a 	add	r2,r2,r2
 1806a14:	00c06074 	movhi	r3,385
 1806a18:	18c2b004 	addi	r3,r3,2752
 1806a1c:	1085883a 	add	r2,r2,r2
 1806a20:	10c5883a 	add	r2,r2,r3
 1806a24:	11bfff17 	ldw	r6,-4(r2)
 1806a28:	000f883a 	mov	r7,zero
 1806a2c:	18068340 	call	1806834 <__multadd>
 1806a30:	1029883a 	mov	r20,r2
 1806a34:	003fcb06 	br	1806964 <__pow5mult+0x30>
 1806a38:	9809883a 	mov	r4,r19
 1806a3c:	01409c44 	movi	r5,625
 1806a40:	18067f80 	call	18067f8 <__i2b>
 1806a44:	98801215 	stw	r2,72(r19)
 1806a48:	1021883a 	mov	r16,r2
 1806a4c:	10000015 	stw	zero,0(r2)
 1806a50:	003fd006 	br	1806994 <__pow5mult+0x60>

01806a54 <__s2b>:
 1806a54:	defff904 	addi	sp,sp,-28
 1806a58:	dcc00315 	stw	r19,12(sp)
 1806a5c:	dc800215 	stw	r18,8(sp)
 1806a60:	2827883a 	mov	r19,r5
 1806a64:	2025883a 	mov	r18,r4
 1806a68:	01400244 	movi	r5,9
 1806a6c:	39000204 	addi	r4,r7,8
 1806a70:	dd000415 	stw	r20,16(sp)
 1806a74:	dc400115 	stw	r17,4(sp)
 1806a78:	dfc00615 	stw	ra,24(sp)
 1806a7c:	dd400515 	stw	r21,20(sp)
 1806a80:	dc000015 	stw	r16,0(sp)
 1806a84:	3829883a 	mov	r20,r7
 1806a88:	3023883a 	mov	r17,r6
 1806a8c:	18096180 	call	1809618 <__divsi3>
 1806a90:	00c00044 	movi	r3,1
 1806a94:	1880350e 	bge	r3,r2,1806b6c <__s2b+0x118>
 1806a98:	000b883a 	mov	r5,zero
 1806a9c:	18c7883a 	add	r3,r3,r3
 1806aa0:	29400044 	addi	r5,r5,1
 1806aa4:	18bffd16 	blt	r3,r2,1806a9c <__s2b+0x48>
 1806aa8:	9009883a 	mov	r4,r18
 1806aac:	18061000 	call	1806100 <_Balloc>
 1806ab0:	1011883a 	mov	r8,r2
 1806ab4:	d8800717 	ldw	r2,28(sp)
 1806ab8:	00c00044 	movi	r3,1
 1806abc:	01800244 	movi	r6,9
 1806ac0:	40800515 	stw	r2,20(r8)
 1806ac4:	40c00415 	stw	r3,16(r8)
 1806ac8:	3440260e 	bge	r6,r17,1806b64 <__s2b+0x110>
 1806acc:	3021883a 	mov	r16,r6
 1806ad0:	99ab883a 	add	r21,r19,r6
 1806ad4:	9c05883a 	add	r2,r19,r16
 1806ad8:	11c00007 	ldb	r7,0(r2)
 1806adc:	400b883a 	mov	r5,r8
 1806ae0:	9009883a 	mov	r4,r18
 1806ae4:	39fff404 	addi	r7,r7,-48
 1806ae8:	01800284 	movi	r6,10
 1806aec:	18068340 	call	1806834 <__multadd>
 1806af0:	84000044 	addi	r16,r16,1
 1806af4:	1011883a 	mov	r8,r2
 1806af8:	8c3ff61e 	bne	r17,r16,1806ad4 <__s2b+0x80>
 1806afc:	ac45883a 	add	r2,r21,r17
 1806b00:	117ffe04 	addi	r5,r2,-8
 1806b04:	880d883a 	mov	r6,r17
 1806b08:	35000c0e 	bge	r6,r20,1806b3c <__s2b+0xe8>
 1806b0c:	a185c83a 	sub	r2,r20,r6
 1806b10:	2821883a 	mov	r16,r5
 1806b14:	28a3883a 	add	r17,r5,r2
 1806b18:	81c00007 	ldb	r7,0(r16)
 1806b1c:	400b883a 	mov	r5,r8
 1806b20:	9009883a 	mov	r4,r18
 1806b24:	39fff404 	addi	r7,r7,-48
 1806b28:	01800284 	movi	r6,10
 1806b2c:	18068340 	call	1806834 <__multadd>
 1806b30:	84000044 	addi	r16,r16,1
 1806b34:	1011883a 	mov	r8,r2
 1806b38:	847ff71e 	bne	r16,r17,1806b18 <__s2b+0xc4>
 1806b3c:	4005883a 	mov	r2,r8
 1806b40:	dfc00617 	ldw	ra,24(sp)
 1806b44:	dd400517 	ldw	r21,20(sp)
 1806b48:	dd000417 	ldw	r20,16(sp)
 1806b4c:	dcc00317 	ldw	r19,12(sp)
 1806b50:	dc800217 	ldw	r18,8(sp)
 1806b54:	dc400117 	ldw	r17,4(sp)
 1806b58:	dc000017 	ldw	r16,0(sp)
 1806b5c:	dec00704 	addi	sp,sp,28
 1806b60:	f800283a 	ret
 1806b64:	99400284 	addi	r5,r19,10
 1806b68:	003fe706 	br	1806b08 <__s2b+0xb4>
 1806b6c:	000b883a 	mov	r5,zero
 1806b70:	003fcd06 	br	1806aa8 <__s2b+0x54>

01806b74 <_realloc_r>:
 1806b74:	defff404 	addi	sp,sp,-48
 1806b78:	dd800815 	stw	r22,32(sp)
 1806b7c:	dc800415 	stw	r18,16(sp)
 1806b80:	dc400315 	stw	r17,12(sp)
 1806b84:	dfc00b15 	stw	ra,44(sp)
 1806b88:	df000a15 	stw	fp,40(sp)
 1806b8c:	ddc00915 	stw	r23,36(sp)
 1806b90:	dd400715 	stw	r21,28(sp)
 1806b94:	dd000615 	stw	r20,24(sp)
 1806b98:	dcc00515 	stw	r19,20(sp)
 1806b9c:	dc000215 	stw	r16,8(sp)
 1806ba0:	2825883a 	mov	r18,r5
 1806ba4:	3023883a 	mov	r17,r6
 1806ba8:	202d883a 	mov	r22,r4
 1806bac:	2800c926 	beq	r5,zero,1806ed4 <_realloc_r+0x360>
 1806bb0:	180a2ac0 	call	180a2ac <__malloc_lock>
 1806bb4:	943ffe04 	addi	r16,r18,-8
 1806bb8:	88c002c4 	addi	r3,r17,11
 1806bbc:	00800584 	movi	r2,22
 1806bc0:	82000117 	ldw	r8,4(r16)
 1806bc4:	10c01b2e 	bgeu	r2,r3,1806c34 <_realloc_r+0xc0>
 1806bc8:	00bffe04 	movi	r2,-8
 1806bcc:	188e703a 	and	r7,r3,r2
 1806bd0:	3839883a 	mov	fp,r7
 1806bd4:	38001a16 	blt	r7,zero,1806c40 <_realloc_r+0xcc>
 1806bd8:	e4401936 	bltu	fp,r17,1806c40 <_realloc_r+0xcc>
 1806bdc:	013fff04 	movi	r4,-4
 1806be0:	4126703a 	and	r19,r8,r4
 1806be4:	99c02616 	blt	r19,r7,1806c80 <_realloc_r+0x10c>
 1806be8:	802b883a 	mov	r21,r16
 1806bec:	9829883a 	mov	r20,r19
 1806bf0:	84000204 	addi	r16,r16,8
 1806bf4:	a80f883a 	mov	r7,r21
 1806bf8:	a70dc83a 	sub	r6,r20,fp
 1806bfc:	008003c4 	movi	r2,15
 1806c00:	1180c136 	bltu	r2,r6,1806f08 <_realloc_r+0x394>
 1806c04:	38800117 	ldw	r2,4(r7)
 1806c08:	a549883a 	add	r4,r20,r21
 1806c0c:	1080004c 	andi	r2,r2,1
 1806c10:	a084b03a 	or	r2,r20,r2
 1806c14:	38800115 	stw	r2,4(r7)
 1806c18:	20c00117 	ldw	r3,4(r4)
 1806c1c:	18c00054 	ori	r3,r3,1
 1806c20:	20c00115 	stw	r3,4(r4)
 1806c24:	b009883a 	mov	r4,r22
 1806c28:	180a2cc0 	call	180a2cc <__malloc_unlock>
 1806c2c:	8023883a 	mov	r17,r16
 1806c30:	00000606 	br	1806c4c <_realloc_r+0xd8>
 1806c34:	01c00404 	movi	r7,16
 1806c38:	3839883a 	mov	fp,r7
 1806c3c:	e47fe72e 	bgeu	fp,r17,1806bdc <_realloc_r+0x68>
 1806c40:	00800304 	movi	r2,12
 1806c44:	0023883a 	mov	r17,zero
 1806c48:	b0800015 	stw	r2,0(r22)
 1806c4c:	8805883a 	mov	r2,r17
 1806c50:	dfc00b17 	ldw	ra,44(sp)
 1806c54:	df000a17 	ldw	fp,40(sp)
 1806c58:	ddc00917 	ldw	r23,36(sp)
 1806c5c:	dd800817 	ldw	r22,32(sp)
 1806c60:	dd400717 	ldw	r21,28(sp)
 1806c64:	dd000617 	ldw	r20,24(sp)
 1806c68:	dcc00517 	ldw	r19,20(sp)
 1806c6c:	dc800417 	ldw	r18,16(sp)
 1806c70:	dc400317 	ldw	r17,12(sp)
 1806c74:	dc000217 	ldw	r16,8(sp)
 1806c78:	dec00c04 	addi	sp,sp,48
 1806c7c:	f800283a 	ret
 1806c80:	00806074 	movhi	r2,385
 1806c84:	1084b104 	addi	r2,r2,4804
 1806c88:	12400217 	ldw	r9,8(r2)
 1806c8c:	84cd883a 	add	r6,r16,r19
 1806c90:	802b883a 	mov	r21,r16
 1806c94:	3240b926 	beq	r6,r9,1806f7c <_realloc_r+0x408>
 1806c98:	31400117 	ldw	r5,4(r6)
 1806c9c:	00bfff84 	movi	r2,-2
 1806ca0:	2884703a 	and	r2,r5,r2
 1806ca4:	1185883a 	add	r2,r2,r6
 1806ca8:	10c00117 	ldw	r3,4(r2)
 1806cac:	18c0004c 	andi	r3,r3,1
 1806cb0:	1807003a 	cmpeq	r3,r3,zero
 1806cb4:	1800a326 	beq	r3,zero,1806f44 <_realloc_r+0x3d0>
 1806cb8:	2908703a 	and	r4,r5,r4
 1806cbc:	9929883a 	add	r20,r19,r4
 1806cc0:	a1c0a30e 	bge	r20,r7,1806f50 <_realloc_r+0x3dc>
 1806cc4:	4080004c 	andi	r2,r8,1
 1806cc8:	1000551e 	bne	r2,zero,1806e20 <_realloc_r+0x2ac>
 1806ccc:	80800017 	ldw	r2,0(r16)
 1806cd0:	80afc83a 	sub	r23,r16,r2
 1806cd4:	b8c00117 	ldw	r3,4(r23)
 1806cd8:	00bfff04 	movi	r2,-4
 1806cdc:	1884703a 	and	r2,r3,r2
 1806ce0:	30002e26 	beq	r6,zero,1806d9c <_realloc_r+0x228>
 1806ce4:	3240b926 	beq	r6,r9,1806fcc <_realloc_r+0x458>
 1806ce8:	98a9883a 	add	r20,r19,r2
 1806cec:	2509883a 	add	r4,r4,r20
 1806cf0:	d9000015 	stw	r4,0(sp)
 1806cf4:	21c02a16 	blt	r4,r7,1806da0 <_realloc_r+0x22c>
 1806cf8:	30800317 	ldw	r2,12(r6)
 1806cfc:	30c00217 	ldw	r3,8(r6)
 1806d00:	01400904 	movi	r5,36
 1806d04:	99bfff04 	addi	r6,r19,-4
 1806d08:	18800315 	stw	r2,12(r3)
 1806d0c:	10c00215 	stw	r3,8(r2)
 1806d10:	b9000317 	ldw	r4,12(r23)
 1806d14:	b8800217 	ldw	r2,8(r23)
 1806d18:	b82b883a 	mov	r21,r23
 1806d1c:	bc000204 	addi	r16,r23,8
 1806d20:	20800215 	stw	r2,8(r4)
 1806d24:	11000315 	stw	r4,12(r2)
 1806d28:	2980e436 	bltu	r5,r6,18070bc <_realloc_r+0x548>
 1806d2c:	008004c4 	movi	r2,19
 1806d30:	9009883a 	mov	r4,r18
 1806d34:	8011883a 	mov	r8,r16
 1806d38:	11800f2e 	bgeu	r2,r6,1806d78 <_realloc_r+0x204>
 1806d3c:	90800017 	ldw	r2,0(r18)
 1806d40:	ba000404 	addi	r8,r23,16
 1806d44:	91000204 	addi	r4,r18,8
 1806d48:	b8800215 	stw	r2,8(r23)
 1806d4c:	90c00117 	ldw	r3,4(r18)
 1806d50:	008006c4 	movi	r2,27
 1806d54:	b8c00315 	stw	r3,12(r23)
 1806d58:	1180072e 	bgeu	r2,r6,1806d78 <_realloc_r+0x204>
 1806d5c:	90c00217 	ldw	r3,8(r18)
 1806d60:	ba000604 	addi	r8,r23,24
 1806d64:	91000404 	addi	r4,r18,16
 1806d68:	b8c00415 	stw	r3,16(r23)
 1806d6c:	90800317 	ldw	r2,12(r18)
 1806d70:	b8800515 	stw	r2,20(r23)
 1806d74:	3140e726 	beq	r6,r5,1807114 <_realloc_r+0x5a0>
 1806d78:	20800017 	ldw	r2,0(r4)
 1806d7c:	dd000017 	ldw	r20,0(sp)
 1806d80:	b80f883a 	mov	r7,r23
 1806d84:	40800015 	stw	r2,0(r8)
 1806d88:	20c00117 	ldw	r3,4(r4)
 1806d8c:	40c00115 	stw	r3,4(r8)
 1806d90:	20800217 	ldw	r2,8(r4)
 1806d94:	40800215 	stw	r2,8(r8)
 1806d98:	003f9706 	br	1806bf8 <_realloc_r+0x84>
 1806d9c:	98a9883a 	add	r20,r19,r2
 1806da0:	a1c01f16 	blt	r20,r7,1806e20 <_realloc_r+0x2ac>
 1806da4:	b8c00317 	ldw	r3,12(r23)
 1806da8:	b8800217 	ldw	r2,8(r23)
 1806dac:	99bfff04 	addi	r6,r19,-4
 1806db0:	01400904 	movi	r5,36
 1806db4:	b82b883a 	mov	r21,r23
 1806db8:	18800215 	stw	r2,8(r3)
 1806dbc:	10c00315 	stw	r3,12(r2)
 1806dc0:	bc000204 	addi	r16,r23,8
 1806dc4:	2980c336 	bltu	r5,r6,18070d4 <_realloc_r+0x560>
 1806dc8:	008004c4 	movi	r2,19
 1806dcc:	9009883a 	mov	r4,r18
 1806dd0:	8011883a 	mov	r8,r16
 1806dd4:	11800f2e 	bgeu	r2,r6,1806e14 <_realloc_r+0x2a0>
 1806dd8:	90800017 	ldw	r2,0(r18)
 1806ddc:	ba000404 	addi	r8,r23,16
 1806de0:	91000204 	addi	r4,r18,8
 1806de4:	b8800215 	stw	r2,8(r23)
 1806de8:	90c00117 	ldw	r3,4(r18)
 1806dec:	008006c4 	movi	r2,27
 1806df0:	b8c00315 	stw	r3,12(r23)
 1806df4:	1180072e 	bgeu	r2,r6,1806e14 <_realloc_r+0x2a0>
 1806df8:	90c00217 	ldw	r3,8(r18)
 1806dfc:	ba000604 	addi	r8,r23,24
 1806e00:	91000404 	addi	r4,r18,16
 1806e04:	b8c00415 	stw	r3,16(r23)
 1806e08:	90800317 	ldw	r2,12(r18)
 1806e0c:	b8800515 	stw	r2,20(r23)
 1806e10:	3140c726 	beq	r6,r5,1807130 <_realloc_r+0x5bc>
 1806e14:	20800017 	ldw	r2,0(r4)
 1806e18:	b80f883a 	mov	r7,r23
 1806e1c:	003fd906 	br	1806d84 <_realloc_r+0x210>
 1806e20:	880b883a 	mov	r5,r17
 1806e24:	b009883a 	mov	r4,r22
 1806e28:	18051440 	call	1805144 <_malloc_r>
 1806e2c:	1023883a 	mov	r17,r2
 1806e30:	10002526 	beq	r2,zero,1806ec8 <_realloc_r+0x354>
 1806e34:	80800117 	ldw	r2,4(r16)
 1806e38:	00ffff84 	movi	r3,-2
 1806e3c:	893ffe04 	addi	r4,r17,-8
 1806e40:	10c4703a 	and	r2,r2,r3
 1806e44:	8085883a 	add	r2,r16,r2
 1806e48:	20809526 	beq	r4,r2,18070a0 <_realloc_r+0x52c>
 1806e4c:	99bfff04 	addi	r6,r19,-4
 1806e50:	01c00904 	movi	r7,36
 1806e54:	39804536 	bltu	r7,r6,1806f6c <_realloc_r+0x3f8>
 1806e58:	008004c4 	movi	r2,19
 1806e5c:	9009883a 	mov	r4,r18
 1806e60:	880b883a 	mov	r5,r17
 1806e64:	11800f2e 	bgeu	r2,r6,1806ea4 <_realloc_r+0x330>
 1806e68:	90800017 	ldw	r2,0(r18)
 1806e6c:	89400204 	addi	r5,r17,8
 1806e70:	91000204 	addi	r4,r18,8
 1806e74:	88800015 	stw	r2,0(r17)
 1806e78:	90c00117 	ldw	r3,4(r18)
 1806e7c:	008006c4 	movi	r2,27
 1806e80:	88c00115 	stw	r3,4(r17)
 1806e84:	1180072e 	bgeu	r2,r6,1806ea4 <_realloc_r+0x330>
 1806e88:	90c00217 	ldw	r3,8(r18)
 1806e8c:	89400404 	addi	r5,r17,16
 1806e90:	91000404 	addi	r4,r18,16
 1806e94:	88c00215 	stw	r3,8(r17)
 1806e98:	90800317 	ldw	r2,12(r18)
 1806e9c:	88800315 	stw	r2,12(r17)
 1806ea0:	31c09126 	beq	r6,r7,18070e8 <_realloc_r+0x574>
 1806ea4:	20800017 	ldw	r2,0(r4)
 1806ea8:	28800015 	stw	r2,0(r5)
 1806eac:	20c00117 	ldw	r3,4(r4)
 1806eb0:	28c00115 	stw	r3,4(r5)
 1806eb4:	20800217 	ldw	r2,8(r4)
 1806eb8:	28800215 	stw	r2,8(r5)
 1806ebc:	900b883a 	mov	r5,r18
 1806ec0:	b009883a 	mov	r4,r22
 1806ec4:	18045bc0 	call	18045bc <_free_r>
 1806ec8:	b009883a 	mov	r4,r22
 1806ecc:	180a2cc0 	call	180a2cc <__malloc_unlock>
 1806ed0:	003f5e06 	br	1806c4c <_realloc_r+0xd8>
 1806ed4:	300b883a 	mov	r5,r6
 1806ed8:	dfc00b17 	ldw	ra,44(sp)
 1806edc:	df000a17 	ldw	fp,40(sp)
 1806ee0:	ddc00917 	ldw	r23,36(sp)
 1806ee4:	dd800817 	ldw	r22,32(sp)
 1806ee8:	dd400717 	ldw	r21,28(sp)
 1806eec:	dd000617 	ldw	r20,24(sp)
 1806ef0:	dcc00517 	ldw	r19,20(sp)
 1806ef4:	dc800417 	ldw	r18,16(sp)
 1806ef8:	dc400317 	ldw	r17,12(sp)
 1806efc:	dc000217 	ldw	r16,8(sp)
 1806f00:	dec00c04 	addi	sp,sp,48
 1806f04:	18051441 	jmpi	1805144 <_malloc_r>
 1806f08:	38800117 	ldw	r2,4(r7)
 1806f0c:	e54b883a 	add	r5,fp,r21
 1806f10:	31000054 	ori	r4,r6,1
 1806f14:	1080004c 	andi	r2,r2,1
 1806f18:	1704b03a 	or	r2,r2,fp
 1806f1c:	38800115 	stw	r2,4(r7)
 1806f20:	29000115 	stw	r4,4(r5)
 1806f24:	2987883a 	add	r3,r5,r6
 1806f28:	18800117 	ldw	r2,4(r3)
 1806f2c:	29400204 	addi	r5,r5,8
 1806f30:	b009883a 	mov	r4,r22
 1806f34:	10800054 	ori	r2,r2,1
 1806f38:	18800115 	stw	r2,4(r3)
 1806f3c:	18045bc0 	call	18045bc <_free_r>
 1806f40:	003f3806 	br	1806c24 <_realloc_r+0xb0>
 1806f44:	000d883a 	mov	r6,zero
 1806f48:	0009883a 	mov	r4,zero
 1806f4c:	003f5d06 	br	1806cc4 <_realloc_r+0x150>
 1806f50:	30c00217 	ldw	r3,8(r6)
 1806f54:	30800317 	ldw	r2,12(r6)
 1806f58:	800f883a 	mov	r7,r16
 1806f5c:	84000204 	addi	r16,r16,8
 1806f60:	10c00215 	stw	r3,8(r2)
 1806f64:	18800315 	stw	r2,12(r3)
 1806f68:	003f2306 	br	1806bf8 <_realloc_r+0x84>
 1806f6c:	8809883a 	mov	r4,r17
 1806f70:	900b883a 	mov	r5,r18
 1806f74:	1805a080 	call	1805a08 <memmove>
 1806f78:	003fd006 	br	1806ebc <_realloc_r+0x348>
 1806f7c:	30800117 	ldw	r2,4(r6)
 1806f80:	e0c00404 	addi	r3,fp,16
 1806f84:	1108703a 	and	r4,r2,r4
 1806f88:	9905883a 	add	r2,r19,r4
 1806f8c:	10ff4d16 	blt	r2,r3,1806cc4 <_realloc_r+0x150>
 1806f90:	1705c83a 	sub	r2,r2,fp
 1806f94:	870b883a 	add	r5,r16,fp
 1806f98:	10800054 	ori	r2,r2,1
 1806f9c:	28800115 	stw	r2,4(r5)
 1806fa0:	80c00117 	ldw	r3,4(r16)
 1806fa4:	00806074 	movhi	r2,385
 1806fa8:	1084b104 	addi	r2,r2,4804
 1806fac:	b009883a 	mov	r4,r22
 1806fb0:	18c0004c 	andi	r3,r3,1
 1806fb4:	e0c6b03a 	or	r3,fp,r3
 1806fb8:	11400215 	stw	r5,8(r2)
 1806fbc:	80c00115 	stw	r3,4(r16)
 1806fc0:	180a2cc0 	call	180a2cc <__malloc_unlock>
 1806fc4:	84400204 	addi	r17,r16,8
 1806fc8:	003f2006 	br	1806c4c <_realloc_r+0xd8>
 1806fcc:	98a9883a 	add	r20,r19,r2
 1806fd0:	2509883a 	add	r4,r4,r20
 1806fd4:	e0800404 	addi	r2,fp,16
 1806fd8:	d9000115 	stw	r4,4(sp)
 1806fdc:	20bf7016 	blt	r4,r2,1806da0 <_realloc_r+0x22c>
 1806fe0:	b8c00317 	ldw	r3,12(r23)
 1806fe4:	b8800217 	ldw	r2,8(r23)
 1806fe8:	99bfff04 	addi	r6,r19,-4
 1806fec:	01400904 	movi	r5,36
 1806ff0:	18800215 	stw	r2,8(r3)
 1806ff4:	10c00315 	stw	r3,12(r2)
 1806ff8:	bc400204 	addi	r17,r23,8
 1806ffc:	29804136 	bltu	r5,r6,1807104 <_realloc_r+0x590>
 1807000:	008004c4 	movi	r2,19
 1807004:	9009883a 	mov	r4,r18
 1807008:	880f883a 	mov	r7,r17
 180700c:	11800f2e 	bgeu	r2,r6,180704c <_realloc_r+0x4d8>
 1807010:	90800017 	ldw	r2,0(r18)
 1807014:	b9c00404 	addi	r7,r23,16
 1807018:	91000204 	addi	r4,r18,8
 180701c:	b8800215 	stw	r2,8(r23)
 1807020:	90c00117 	ldw	r3,4(r18)
 1807024:	008006c4 	movi	r2,27
 1807028:	b8c00315 	stw	r3,12(r23)
 180702c:	1180072e 	bgeu	r2,r6,180704c <_realloc_r+0x4d8>
 1807030:	90c00217 	ldw	r3,8(r18)
 1807034:	b9c00604 	addi	r7,r23,24
 1807038:	91000404 	addi	r4,r18,16
 180703c:	b8c00415 	stw	r3,16(r23)
 1807040:	90800317 	ldw	r2,12(r18)
 1807044:	b8800515 	stw	r2,20(r23)
 1807048:	31404026 	beq	r6,r5,180714c <_realloc_r+0x5d8>
 180704c:	20800017 	ldw	r2,0(r4)
 1807050:	38800015 	stw	r2,0(r7)
 1807054:	20c00117 	ldw	r3,4(r4)
 1807058:	38c00115 	stw	r3,4(r7)
 180705c:	20800217 	ldw	r2,8(r4)
 1807060:	38800215 	stw	r2,8(r7)
 1807064:	d8c00117 	ldw	r3,4(sp)
 1807068:	bf0b883a 	add	r5,r23,fp
 180706c:	b009883a 	mov	r4,r22
 1807070:	1f05c83a 	sub	r2,r3,fp
 1807074:	10800054 	ori	r2,r2,1
 1807078:	28800115 	stw	r2,4(r5)
 180707c:	b8c00117 	ldw	r3,4(r23)
 1807080:	00806074 	movhi	r2,385
 1807084:	1084b104 	addi	r2,r2,4804
 1807088:	11400215 	stw	r5,8(r2)
 180708c:	18c0004c 	andi	r3,r3,1
 1807090:	e0c6b03a 	or	r3,fp,r3
 1807094:	b8c00115 	stw	r3,4(r23)
 1807098:	180a2cc0 	call	180a2cc <__malloc_unlock>
 180709c:	003eeb06 	br	1806c4c <_realloc_r+0xd8>
 18070a0:	20800117 	ldw	r2,4(r4)
 18070a4:	00ffff04 	movi	r3,-4
 18070a8:	800f883a 	mov	r7,r16
 18070ac:	10c4703a 	and	r2,r2,r3
 18070b0:	98a9883a 	add	r20,r19,r2
 18070b4:	84000204 	addi	r16,r16,8
 18070b8:	003ecf06 	br	1806bf8 <_realloc_r+0x84>
 18070bc:	900b883a 	mov	r5,r18
 18070c0:	8009883a 	mov	r4,r16
 18070c4:	1805a080 	call	1805a08 <memmove>
 18070c8:	dd000017 	ldw	r20,0(sp)
 18070cc:	b80f883a 	mov	r7,r23
 18070d0:	003ec906 	br	1806bf8 <_realloc_r+0x84>
 18070d4:	900b883a 	mov	r5,r18
 18070d8:	8009883a 	mov	r4,r16
 18070dc:	1805a080 	call	1805a08 <memmove>
 18070e0:	b80f883a 	mov	r7,r23
 18070e4:	003ec406 	br	1806bf8 <_realloc_r+0x84>
 18070e8:	90c00417 	ldw	r3,16(r18)
 18070ec:	89400604 	addi	r5,r17,24
 18070f0:	91000604 	addi	r4,r18,24
 18070f4:	88c00415 	stw	r3,16(r17)
 18070f8:	90800517 	ldw	r2,20(r18)
 18070fc:	88800515 	stw	r2,20(r17)
 1807100:	003f6806 	br	1806ea4 <_realloc_r+0x330>
 1807104:	900b883a 	mov	r5,r18
 1807108:	8809883a 	mov	r4,r17
 180710c:	1805a080 	call	1805a08 <memmove>
 1807110:	003fd406 	br	1807064 <_realloc_r+0x4f0>
 1807114:	90c00417 	ldw	r3,16(r18)
 1807118:	91000604 	addi	r4,r18,24
 180711c:	ba000804 	addi	r8,r23,32
 1807120:	b8c00615 	stw	r3,24(r23)
 1807124:	90800517 	ldw	r2,20(r18)
 1807128:	b8800715 	stw	r2,28(r23)
 180712c:	003f1206 	br	1806d78 <_realloc_r+0x204>
 1807130:	90c00417 	ldw	r3,16(r18)
 1807134:	91000604 	addi	r4,r18,24
 1807138:	ba000804 	addi	r8,r23,32
 180713c:	b8c00615 	stw	r3,24(r23)
 1807140:	90800517 	ldw	r2,20(r18)
 1807144:	b8800715 	stw	r2,28(r23)
 1807148:	003f3206 	br	1806e14 <_realloc_r+0x2a0>
 180714c:	90c00417 	ldw	r3,16(r18)
 1807150:	91000604 	addi	r4,r18,24
 1807154:	b9c00804 	addi	r7,r23,32
 1807158:	b8c00615 	stw	r3,24(r23)
 180715c:	90800517 	ldw	r2,20(r18)
 1807160:	b8800715 	stw	r2,28(r23)
 1807164:	003fb906 	br	180704c <_realloc_r+0x4d8>

01807168 <__isinfd>:
 1807168:	200d883a 	mov	r6,r4
 180716c:	0109c83a 	sub	r4,zero,r4
 1807170:	2188b03a 	or	r4,r4,r6
 1807174:	2008d7fa 	srli	r4,r4,31
 1807178:	00a00034 	movhi	r2,32768
 180717c:	10bfffc4 	addi	r2,r2,-1
 1807180:	1144703a 	and	r2,r2,r5
 1807184:	2088b03a 	or	r4,r4,r2
 1807188:	009ffc34 	movhi	r2,32752
 180718c:	1105c83a 	sub	r2,r2,r4
 1807190:	0087c83a 	sub	r3,zero,r2
 1807194:	10c4b03a 	or	r2,r2,r3
 1807198:	1004d7fa 	srli	r2,r2,31
 180719c:	00c00044 	movi	r3,1
 18071a0:	1885c83a 	sub	r2,r3,r2
 18071a4:	f800283a 	ret

018071a8 <__isnand>:
 18071a8:	200d883a 	mov	r6,r4
 18071ac:	0109c83a 	sub	r4,zero,r4
 18071b0:	2188b03a 	or	r4,r4,r6
 18071b4:	2008d7fa 	srli	r4,r4,31
 18071b8:	00a00034 	movhi	r2,32768
 18071bc:	10bfffc4 	addi	r2,r2,-1
 18071c0:	1144703a 	and	r2,r2,r5
 18071c4:	2088b03a 	or	r4,r4,r2
 18071c8:	009ffc34 	movhi	r2,32752
 18071cc:	1105c83a 	sub	r2,r2,r4
 18071d0:	1004d7fa 	srli	r2,r2,31
 18071d4:	f800283a 	ret

018071d8 <_sbrk_r>:
 18071d8:	defffd04 	addi	sp,sp,-12
 18071dc:	dc000015 	stw	r16,0(sp)
 18071e0:	04006074 	movhi	r16,385
 18071e4:	840afe04 	addi	r16,r16,11256
 18071e8:	dc400115 	stw	r17,4(sp)
 18071ec:	80000015 	stw	zero,0(r16)
 18071f0:	2023883a 	mov	r17,r4
 18071f4:	2809883a 	mov	r4,r5
 18071f8:	dfc00215 	stw	ra,8(sp)
 18071fc:	180a4cc0 	call	180a4cc <sbrk>
 1807200:	1007883a 	mov	r3,r2
 1807204:	00bfffc4 	movi	r2,-1
 1807208:	18800626 	beq	r3,r2,1807224 <_sbrk_r+0x4c>
 180720c:	1805883a 	mov	r2,r3
 1807210:	dfc00217 	ldw	ra,8(sp)
 1807214:	dc400117 	ldw	r17,4(sp)
 1807218:	dc000017 	ldw	r16,0(sp)
 180721c:	dec00304 	addi	sp,sp,12
 1807220:	f800283a 	ret
 1807224:	80800017 	ldw	r2,0(r16)
 1807228:	103ff826 	beq	r2,zero,180720c <_sbrk_r+0x34>
 180722c:	88800015 	stw	r2,0(r17)
 1807230:	1805883a 	mov	r2,r3
 1807234:	dfc00217 	ldw	ra,8(sp)
 1807238:	dc400117 	ldw	r17,4(sp)
 180723c:	dc000017 	ldw	r16,0(sp)
 1807240:	dec00304 	addi	sp,sp,12
 1807244:	f800283a 	ret

01807248 <__sclose>:
 1807248:	2940038f 	ldh	r5,14(r5)
 180724c:	180757c1 	jmpi	180757c <_close_r>

01807250 <__sseek>:
 1807250:	defffe04 	addi	sp,sp,-8
 1807254:	dc000015 	stw	r16,0(sp)
 1807258:	2821883a 	mov	r16,r5
 180725c:	2940038f 	ldh	r5,14(r5)
 1807260:	dfc00115 	stw	ra,4(sp)
 1807264:	18077f40 	call	18077f4 <_lseek_r>
 1807268:	1007883a 	mov	r3,r2
 180726c:	00bfffc4 	movi	r2,-1
 1807270:	18800926 	beq	r3,r2,1807298 <__sseek+0x48>
 1807274:	8080030b 	ldhu	r2,12(r16)
 1807278:	80c01415 	stw	r3,80(r16)
 180727c:	10840014 	ori	r2,r2,4096
 1807280:	8080030d 	sth	r2,12(r16)
 1807284:	1805883a 	mov	r2,r3
 1807288:	dfc00117 	ldw	ra,4(sp)
 180728c:	dc000017 	ldw	r16,0(sp)
 1807290:	dec00204 	addi	sp,sp,8
 1807294:	f800283a 	ret
 1807298:	8080030b 	ldhu	r2,12(r16)
 180729c:	10bbffcc 	andi	r2,r2,61439
 18072a0:	8080030d 	sth	r2,12(r16)
 18072a4:	1805883a 	mov	r2,r3
 18072a8:	dfc00117 	ldw	ra,4(sp)
 18072ac:	dc000017 	ldw	r16,0(sp)
 18072b0:	dec00204 	addi	sp,sp,8
 18072b4:	f800283a 	ret

018072b8 <__swrite>:
 18072b8:	2880030b 	ldhu	r2,12(r5)
 18072bc:	defffb04 	addi	sp,sp,-20
 18072c0:	dcc00315 	stw	r19,12(sp)
 18072c4:	1080400c 	andi	r2,r2,256
 18072c8:	dc800215 	stw	r18,8(sp)
 18072cc:	dc400115 	stw	r17,4(sp)
 18072d0:	dc000015 	stw	r16,0(sp)
 18072d4:	3027883a 	mov	r19,r6
 18072d8:	3825883a 	mov	r18,r7
 18072dc:	dfc00415 	stw	ra,16(sp)
 18072e0:	2821883a 	mov	r16,r5
 18072e4:	000d883a 	mov	r6,zero
 18072e8:	01c00084 	movi	r7,2
 18072ec:	2023883a 	mov	r17,r4
 18072f0:	10000226 	beq	r2,zero,18072fc <__swrite+0x44>
 18072f4:	2940038f 	ldh	r5,14(r5)
 18072f8:	18077f40 	call	18077f4 <_lseek_r>
 18072fc:	8080030b 	ldhu	r2,12(r16)
 1807300:	8140038f 	ldh	r5,14(r16)
 1807304:	8809883a 	mov	r4,r17
 1807308:	10bbffcc 	andi	r2,r2,61439
 180730c:	980d883a 	mov	r6,r19
 1807310:	900f883a 	mov	r7,r18
 1807314:	8080030d 	sth	r2,12(r16)
 1807318:	dfc00417 	ldw	ra,16(sp)
 180731c:	dcc00317 	ldw	r19,12(sp)
 1807320:	dc800217 	ldw	r18,8(sp)
 1807324:	dc400117 	ldw	r17,4(sp)
 1807328:	dc000017 	ldw	r16,0(sp)
 180732c:	dec00504 	addi	sp,sp,20
 1807330:	18074501 	jmpi	1807450 <_write_r>

01807334 <__sread>:
 1807334:	defffe04 	addi	sp,sp,-8
 1807338:	dc000015 	stw	r16,0(sp)
 180733c:	2821883a 	mov	r16,r5
 1807340:	2940038f 	ldh	r5,14(r5)
 1807344:	dfc00115 	stw	ra,4(sp)
 1807348:	180786c0 	call	180786c <_read_r>
 180734c:	1007883a 	mov	r3,r2
 1807350:	10000816 	blt	r2,zero,1807374 <__sread+0x40>
 1807354:	80801417 	ldw	r2,80(r16)
 1807358:	10c5883a 	add	r2,r2,r3
 180735c:	80801415 	stw	r2,80(r16)
 1807360:	1805883a 	mov	r2,r3
 1807364:	dfc00117 	ldw	ra,4(sp)
 1807368:	dc000017 	ldw	r16,0(sp)
 180736c:	dec00204 	addi	sp,sp,8
 1807370:	f800283a 	ret
 1807374:	8080030b 	ldhu	r2,12(r16)
 1807378:	10bbffcc 	andi	r2,r2,61439
 180737c:	8080030d 	sth	r2,12(r16)
 1807380:	1805883a 	mov	r2,r3
 1807384:	dfc00117 	ldw	ra,4(sp)
 1807388:	dc000017 	ldw	r16,0(sp)
 180738c:	dec00204 	addi	sp,sp,8
 1807390:	f800283a 	ret

01807394 <strcmp>:
 1807394:	2144b03a 	or	r2,r4,r5
 1807398:	108000cc 	andi	r2,r2,3
 180739c:	10001d1e 	bne	r2,zero,1807414 <strcmp+0x80>
 18073a0:	200f883a 	mov	r7,r4
 18073a4:	28800017 	ldw	r2,0(r5)
 18073a8:	21000017 	ldw	r4,0(r4)
 18073ac:	280d883a 	mov	r6,r5
 18073b0:	2080161e 	bne	r4,r2,180740c <strcmp+0x78>
 18073b4:	023fbff4 	movhi	r8,65279
 18073b8:	423fbfc4 	addi	r8,r8,-257
 18073bc:	2207883a 	add	r3,r4,r8
 18073c0:	01602074 	movhi	r5,32897
 18073c4:	29602004 	addi	r5,r5,-32640
 18073c8:	1946703a 	and	r3,r3,r5
 18073cc:	0104303a 	nor	r2,zero,r4
 18073d0:	10c4703a 	and	r2,r2,r3
 18073d4:	10001c1e 	bne	r2,zero,1807448 <strcmp+0xb4>
 18073d8:	4013883a 	mov	r9,r8
 18073dc:	2811883a 	mov	r8,r5
 18073e0:	00000106 	br	18073e8 <strcmp+0x54>
 18073e4:	1800181e 	bne	r3,zero,1807448 <strcmp+0xb4>
 18073e8:	39c00104 	addi	r7,r7,4
 18073ec:	39000017 	ldw	r4,0(r7)
 18073f0:	31800104 	addi	r6,r6,4
 18073f4:	31400017 	ldw	r5,0(r6)
 18073f8:	2245883a 	add	r2,r4,r9
 18073fc:	1204703a 	and	r2,r2,r8
 1807400:	0106303a 	nor	r3,zero,r4
 1807404:	1886703a 	and	r3,r3,r2
 1807408:	217ff626 	beq	r4,r5,18073e4 <strcmp+0x50>
 180740c:	3809883a 	mov	r4,r7
 1807410:	300b883a 	mov	r5,r6
 1807414:	20c00007 	ldb	r3,0(r4)
 1807418:	1800051e 	bne	r3,zero,1807430 <strcmp+0x9c>
 180741c:	00000606 	br	1807438 <strcmp+0xa4>
 1807420:	21000044 	addi	r4,r4,1
 1807424:	20c00007 	ldb	r3,0(r4)
 1807428:	29400044 	addi	r5,r5,1
 180742c:	18000226 	beq	r3,zero,1807438 <strcmp+0xa4>
 1807430:	28800007 	ldb	r2,0(r5)
 1807434:	18bffa26 	beq	r3,r2,1807420 <strcmp+0x8c>
 1807438:	20c00003 	ldbu	r3,0(r4)
 180743c:	28800003 	ldbu	r2,0(r5)
 1807440:	1885c83a 	sub	r2,r3,r2
 1807444:	f800283a 	ret
 1807448:	0005883a 	mov	r2,zero
 180744c:	f800283a 	ret

01807450 <_write_r>:
 1807450:	defffd04 	addi	sp,sp,-12
 1807454:	dc000015 	stw	r16,0(sp)
 1807458:	04006074 	movhi	r16,385
 180745c:	840afe04 	addi	r16,r16,11256
 1807460:	dc400115 	stw	r17,4(sp)
 1807464:	80000015 	stw	zero,0(r16)
 1807468:	2023883a 	mov	r17,r4
 180746c:	2809883a 	mov	r4,r5
 1807470:	300b883a 	mov	r5,r6
 1807474:	380d883a 	mov	r6,r7
 1807478:	dfc00215 	stw	ra,8(sp)
 180747c:	180a5b80 	call	180a5b8 <write>
 1807480:	1007883a 	mov	r3,r2
 1807484:	00bfffc4 	movi	r2,-1
 1807488:	18800626 	beq	r3,r2,18074a4 <_write_r+0x54>
 180748c:	1805883a 	mov	r2,r3
 1807490:	dfc00217 	ldw	ra,8(sp)
 1807494:	dc400117 	ldw	r17,4(sp)
 1807498:	dc000017 	ldw	r16,0(sp)
 180749c:	dec00304 	addi	sp,sp,12
 18074a0:	f800283a 	ret
 18074a4:	80800017 	ldw	r2,0(r16)
 18074a8:	103ff826 	beq	r2,zero,180748c <_write_r+0x3c>
 18074ac:	88800015 	stw	r2,0(r17)
 18074b0:	1805883a 	mov	r2,r3
 18074b4:	dfc00217 	ldw	ra,8(sp)
 18074b8:	dc400117 	ldw	r17,4(sp)
 18074bc:	dc000017 	ldw	r16,0(sp)
 18074c0:	dec00304 	addi	sp,sp,12
 18074c4:	f800283a 	ret

018074c8 <_calloc_r>:
 18074c8:	298b383a 	mul	r5,r5,r6
 18074cc:	defffe04 	addi	sp,sp,-8
 18074d0:	dc000015 	stw	r16,0(sp)
 18074d4:	dfc00115 	stw	ra,4(sp)
 18074d8:	18051440 	call	1805144 <_malloc_r>
 18074dc:	1021883a 	mov	r16,r2
 18074e0:	01c00904 	movi	r7,36
 18074e4:	10000d26 	beq	r2,zero,180751c <_calloc_r+0x54>
 18074e8:	10ffff17 	ldw	r3,-4(r2)
 18074ec:	1009883a 	mov	r4,r2
 18074f0:	00bfff04 	movi	r2,-4
 18074f4:	1886703a 	and	r3,r3,r2
 18074f8:	1887883a 	add	r3,r3,r2
 18074fc:	180d883a 	mov	r6,r3
 1807500:	000b883a 	mov	r5,zero
 1807504:	38c01736 	bltu	r7,r3,1807564 <_calloc_r+0x9c>
 1807508:	008004c4 	movi	r2,19
 180750c:	10c00836 	bltu	r2,r3,1807530 <_calloc_r+0x68>
 1807510:	20000215 	stw	zero,8(r4)
 1807514:	20000015 	stw	zero,0(r4)
 1807518:	20000115 	stw	zero,4(r4)
 180751c:	8005883a 	mov	r2,r16
 1807520:	dfc00117 	ldw	ra,4(sp)
 1807524:	dc000017 	ldw	r16,0(sp)
 1807528:	dec00204 	addi	sp,sp,8
 180752c:	f800283a 	ret
 1807530:	008006c4 	movi	r2,27
 1807534:	80000015 	stw	zero,0(r16)
 1807538:	80000115 	stw	zero,4(r16)
 180753c:	81000204 	addi	r4,r16,8
 1807540:	10fff32e 	bgeu	r2,r3,1807510 <_calloc_r+0x48>
 1807544:	80000215 	stw	zero,8(r16)
 1807548:	80000315 	stw	zero,12(r16)
 180754c:	81000404 	addi	r4,r16,16
 1807550:	19ffef1e 	bne	r3,r7,1807510 <_calloc_r+0x48>
 1807554:	81000604 	addi	r4,r16,24
 1807558:	80000415 	stw	zero,16(r16)
 180755c:	80000515 	stw	zero,20(r16)
 1807560:	003feb06 	br	1807510 <_calloc_r+0x48>
 1807564:	1805ae80 	call	1805ae8 <memset>
 1807568:	8005883a 	mov	r2,r16
 180756c:	dfc00117 	ldw	ra,4(sp)
 1807570:	dc000017 	ldw	r16,0(sp)
 1807574:	dec00204 	addi	sp,sp,8
 1807578:	f800283a 	ret

0180757c <_close_r>:
 180757c:	defffd04 	addi	sp,sp,-12
 1807580:	dc000015 	stw	r16,0(sp)
 1807584:	04006074 	movhi	r16,385
 1807588:	840afe04 	addi	r16,r16,11256
 180758c:	dc400115 	stw	r17,4(sp)
 1807590:	80000015 	stw	zero,0(r16)
 1807594:	2023883a 	mov	r17,r4
 1807598:	2809883a 	mov	r4,r5
 180759c:	dfc00215 	stw	ra,8(sp)
 18075a0:	1809d140 	call	1809d14 <close>
 18075a4:	1007883a 	mov	r3,r2
 18075a8:	00bfffc4 	movi	r2,-1
 18075ac:	18800626 	beq	r3,r2,18075c8 <_close_r+0x4c>
 18075b0:	1805883a 	mov	r2,r3
 18075b4:	dfc00217 	ldw	ra,8(sp)
 18075b8:	dc400117 	ldw	r17,4(sp)
 18075bc:	dc000017 	ldw	r16,0(sp)
 18075c0:	dec00304 	addi	sp,sp,12
 18075c4:	f800283a 	ret
 18075c8:	80800017 	ldw	r2,0(r16)
 18075cc:	103ff826 	beq	r2,zero,18075b0 <_close_r+0x34>
 18075d0:	88800015 	stw	r2,0(r17)
 18075d4:	1805883a 	mov	r2,r3
 18075d8:	dfc00217 	ldw	ra,8(sp)
 18075dc:	dc400117 	ldw	r17,4(sp)
 18075e0:	dc000017 	ldw	r16,0(sp)
 18075e4:	dec00304 	addi	sp,sp,12
 18075e8:	f800283a 	ret

018075ec <_fclose_r>:
 18075ec:	defffc04 	addi	sp,sp,-16
 18075f0:	dc400115 	stw	r17,4(sp)
 18075f4:	dc000015 	stw	r16,0(sp)
 18075f8:	dfc00315 	stw	ra,12(sp)
 18075fc:	dc800215 	stw	r18,8(sp)
 1807600:	2821883a 	mov	r16,r5
 1807604:	2023883a 	mov	r17,r4
 1807608:	28002926 	beq	r5,zero,18076b0 <_fclose_r+0xc4>
 180760c:	18042280 	call	1804228 <__sfp_lock_acquire>
 1807610:	88000226 	beq	r17,zero,180761c <_fclose_r+0x30>
 1807614:	88800e17 	ldw	r2,56(r17)
 1807618:	10002d26 	beq	r2,zero,18076d0 <_fclose_r+0xe4>
 180761c:	8080030f 	ldh	r2,12(r16)
 1807620:	10002226 	beq	r2,zero,18076ac <_fclose_r+0xc0>
 1807624:	8809883a 	mov	r4,r17
 1807628:	800b883a 	mov	r5,r16
 180762c:	1803fa00 	call	1803fa0 <_fflush_r>
 1807630:	1025883a 	mov	r18,r2
 1807634:	80800b17 	ldw	r2,44(r16)
 1807638:	10000426 	beq	r2,zero,180764c <_fclose_r+0x60>
 180763c:	81400717 	ldw	r5,28(r16)
 1807640:	8809883a 	mov	r4,r17
 1807644:	103ee83a 	callr	r2
 1807648:	10002a16 	blt	r2,zero,18076f4 <_fclose_r+0x108>
 180764c:	8080030b 	ldhu	r2,12(r16)
 1807650:	1080200c 	andi	r2,r2,128
 1807654:	1000231e 	bne	r2,zero,18076e4 <_fclose_r+0xf8>
 1807658:	81400c17 	ldw	r5,48(r16)
 180765c:	28000526 	beq	r5,zero,1807674 <_fclose_r+0x88>
 1807660:	80801004 	addi	r2,r16,64
 1807664:	28800226 	beq	r5,r2,1807670 <_fclose_r+0x84>
 1807668:	8809883a 	mov	r4,r17
 180766c:	18045bc0 	call	18045bc <_free_r>
 1807670:	80000c15 	stw	zero,48(r16)
 1807674:	81401117 	ldw	r5,68(r16)
 1807678:	28000326 	beq	r5,zero,1807688 <_fclose_r+0x9c>
 180767c:	8809883a 	mov	r4,r17
 1807680:	18045bc0 	call	18045bc <_free_r>
 1807684:	80001115 	stw	zero,68(r16)
 1807688:	8000030d 	sth	zero,12(r16)
 180768c:	180422c0 	call	180422c <__sfp_lock_release>
 1807690:	9005883a 	mov	r2,r18
 1807694:	dfc00317 	ldw	ra,12(sp)
 1807698:	dc800217 	ldw	r18,8(sp)
 180769c:	dc400117 	ldw	r17,4(sp)
 18076a0:	dc000017 	ldw	r16,0(sp)
 18076a4:	dec00404 	addi	sp,sp,16
 18076a8:	f800283a 	ret
 18076ac:	180422c0 	call	180422c <__sfp_lock_release>
 18076b0:	0025883a 	mov	r18,zero
 18076b4:	9005883a 	mov	r2,r18
 18076b8:	dfc00317 	ldw	ra,12(sp)
 18076bc:	dc800217 	ldw	r18,8(sp)
 18076c0:	dc400117 	ldw	r17,4(sp)
 18076c4:	dc000017 	ldw	r16,0(sp)
 18076c8:	dec00404 	addi	sp,sp,16
 18076cc:	f800283a 	ret
 18076d0:	8809883a 	mov	r4,r17
 18076d4:	18042380 	call	1804238 <__sinit>
 18076d8:	8080030f 	ldh	r2,12(r16)
 18076dc:	103fd11e 	bne	r2,zero,1807624 <_fclose_r+0x38>
 18076e0:	003ff206 	br	18076ac <_fclose_r+0xc0>
 18076e4:	81400417 	ldw	r5,16(r16)
 18076e8:	8809883a 	mov	r4,r17
 18076ec:	18045bc0 	call	18045bc <_free_r>
 18076f0:	003fd906 	br	1807658 <_fclose_r+0x6c>
 18076f4:	04bfffc4 	movi	r18,-1
 18076f8:	003fd406 	br	180764c <_fclose_r+0x60>

018076fc <fclose>:
 18076fc:	00806074 	movhi	r2,385
 1807700:	108ae404 	addi	r2,r2,11152
 1807704:	200b883a 	mov	r5,r4
 1807708:	11000017 	ldw	r4,0(r2)
 180770c:	18075ec1 	jmpi	18075ec <_fclose_r>

01807710 <_fstat_r>:
 1807710:	defffd04 	addi	sp,sp,-12
 1807714:	dc000015 	stw	r16,0(sp)
 1807718:	04006074 	movhi	r16,385
 180771c:	840afe04 	addi	r16,r16,11256
 1807720:	dc400115 	stw	r17,4(sp)
 1807724:	80000015 	stw	zero,0(r16)
 1807728:	2023883a 	mov	r17,r4
 180772c:	2809883a 	mov	r4,r5
 1807730:	300b883a 	mov	r5,r6
 1807734:	dfc00215 	stw	ra,8(sp)
 1807738:	1809e9c0 	call	1809e9c <fstat>
 180773c:	1007883a 	mov	r3,r2
 1807740:	00bfffc4 	movi	r2,-1
 1807744:	18800626 	beq	r3,r2,1807760 <_fstat_r+0x50>
 1807748:	1805883a 	mov	r2,r3
 180774c:	dfc00217 	ldw	ra,8(sp)
 1807750:	dc400117 	ldw	r17,4(sp)
 1807754:	dc000017 	ldw	r16,0(sp)
 1807758:	dec00304 	addi	sp,sp,12
 180775c:	f800283a 	ret
 1807760:	80800017 	ldw	r2,0(r16)
 1807764:	103ff826 	beq	r2,zero,1807748 <_fstat_r+0x38>
 1807768:	88800015 	stw	r2,0(r17)
 180776c:	1805883a 	mov	r2,r3
 1807770:	dfc00217 	ldw	ra,8(sp)
 1807774:	dc400117 	ldw	r17,4(sp)
 1807778:	dc000017 	ldw	r16,0(sp)
 180777c:	dec00304 	addi	sp,sp,12
 1807780:	f800283a 	ret

01807784 <_isatty_r>:
 1807784:	defffd04 	addi	sp,sp,-12
 1807788:	dc000015 	stw	r16,0(sp)
 180778c:	04006074 	movhi	r16,385
 1807790:	840afe04 	addi	r16,r16,11256
 1807794:	dc400115 	stw	r17,4(sp)
 1807798:	80000015 	stw	zero,0(r16)
 180779c:	2023883a 	mov	r17,r4
 18077a0:	2809883a 	mov	r4,r5
 18077a4:	dfc00215 	stw	ra,8(sp)
 18077a8:	1809fd00 	call	1809fd0 <isatty>
 18077ac:	1007883a 	mov	r3,r2
 18077b0:	00bfffc4 	movi	r2,-1
 18077b4:	18800626 	beq	r3,r2,18077d0 <_isatty_r+0x4c>
 18077b8:	1805883a 	mov	r2,r3
 18077bc:	dfc00217 	ldw	ra,8(sp)
 18077c0:	dc400117 	ldw	r17,4(sp)
 18077c4:	dc000017 	ldw	r16,0(sp)
 18077c8:	dec00304 	addi	sp,sp,12
 18077cc:	f800283a 	ret
 18077d0:	80800017 	ldw	r2,0(r16)
 18077d4:	103ff826 	beq	r2,zero,18077b8 <_isatty_r+0x34>
 18077d8:	88800015 	stw	r2,0(r17)
 18077dc:	1805883a 	mov	r2,r3
 18077e0:	dfc00217 	ldw	ra,8(sp)
 18077e4:	dc400117 	ldw	r17,4(sp)
 18077e8:	dc000017 	ldw	r16,0(sp)
 18077ec:	dec00304 	addi	sp,sp,12
 18077f0:	f800283a 	ret

018077f4 <_lseek_r>:
 18077f4:	defffd04 	addi	sp,sp,-12
 18077f8:	dc000015 	stw	r16,0(sp)
 18077fc:	04006074 	movhi	r16,385
 1807800:	840afe04 	addi	r16,r16,11256
 1807804:	dc400115 	stw	r17,4(sp)
 1807808:	80000015 	stw	zero,0(r16)
 180780c:	2023883a 	mov	r17,r4
 1807810:	2809883a 	mov	r4,r5
 1807814:	300b883a 	mov	r5,r6
 1807818:	380d883a 	mov	r6,r7
 180781c:	dfc00215 	stw	ra,8(sp)
 1807820:	180a0f00 	call	180a0f0 <lseek>
 1807824:	1007883a 	mov	r3,r2
 1807828:	00bfffc4 	movi	r2,-1
 180782c:	18800626 	beq	r3,r2,1807848 <_lseek_r+0x54>
 1807830:	1805883a 	mov	r2,r3
 1807834:	dfc00217 	ldw	ra,8(sp)
 1807838:	dc400117 	ldw	r17,4(sp)
 180783c:	dc000017 	ldw	r16,0(sp)
 1807840:	dec00304 	addi	sp,sp,12
 1807844:	f800283a 	ret
 1807848:	80800017 	ldw	r2,0(r16)
 180784c:	103ff826 	beq	r2,zero,1807830 <_lseek_r+0x3c>
 1807850:	88800015 	stw	r2,0(r17)
 1807854:	1805883a 	mov	r2,r3
 1807858:	dfc00217 	ldw	ra,8(sp)
 180785c:	dc400117 	ldw	r17,4(sp)
 1807860:	dc000017 	ldw	r16,0(sp)
 1807864:	dec00304 	addi	sp,sp,12
 1807868:	f800283a 	ret

0180786c <_read_r>:
 180786c:	defffd04 	addi	sp,sp,-12
 1807870:	dc000015 	stw	r16,0(sp)
 1807874:	04006074 	movhi	r16,385
 1807878:	840afe04 	addi	r16,r16,11256
 180787c:	dc400115 	stw	r17,4(sp)
 1807880:	80000015 	stw	zero,0(r16)
 1807884:	2023883a 	mov	r17,r4
 1807888:	2809883a 	mov	r4,r5
 180788c:	300b883a 	mov	r5,r6
 1807890:	380d883a 	mov	r6,r7
 1807894:	dfc00215 	stw	ra,8(sp)
 1807898:	180a2ec0 	call	180a2ec <read>
 180789c:	1007883a 	mov	r3,r2
 18078a0:	00bfffc4 	movi	r2,-1
 18078a4:	18800626 	beq	r3,r2,18078c0 <_read_r+0x54>
 18078a8:	1805883a 	mov	r2,r3
 18078ac:	dfc00217 	ldw	ra,8(sp)
 18078b0:	dc400117 	ldw	r17,4(sp)
 18078b4:	dc000017 	ldw	r16,0(sp)
 18078b8:	dec00304 	addi	sp,sp,12
 18078bc:	f800283a 	ret
 18078c0:	80800017 	ldw	r2,0(r16)
 18078c4:	103ff826 	beq	r2,zero,18078a8 <_read_r+0x3c>
 18078c8:	88800015 	stw	r2,0(r17)
 18078cc:	1805883a 	mov	r2,r3
 18078d0:	dfc00217 	ldw	ra,8(sp)
 18078d4:	dc400117 	ldw	r17,4(sp)
 18078d8:	dc000017 	ldw	r16,0(sp)
 18078dc:	dec00304 	addi	sp,sp,12
 18078e0:	f800283a 	ret

018078e4 <__udivdi3>:
 18078e4:	defff004 	addi	sp,sp,-64
 18078e8:	2005883a 	mov	r2,r4
 18078ec:	3011883a 	mov	r8,r6
 18078f0:	df000e15 	stw	fp,56(sp)
 18078f4:	dd000a15 	stw	r20,40(sp)
 18078f8:	dc000615 	stw	r16,24(sp)
 18078fc:	dfc00f15 	stw	ra,60(sp)
 1807900:	ddc00d15 	stw	r23,52(sp)
 1807904:	dd800c15 	stw	r22,48(sp)
 1807908:	dd400b15 	stw	r21,44(sp)
 180790c:	dcc00915 	stw	r19,36(sp)
 1807910:	dc800815 	stw	r18,32(sp)
 1807914:	dc400715 	stw	r17,28(sp)
 1807918:	4021883a 	mov	r16,r8
 180791c:	1039883a 	mov	fp,r2
 1807920:	2829883a 	mov	r20,r5
 1807924:	38003b1e 	bne	r7,zero,1807a14 <__udivdi3+0x130>
 1807928:	2a005c36 	bltu	r5,r8,1807a9c <__udivdi3+0x1b8>
 180792c:	4000a626 	beq	r8,zero,1807bc8 <__udivdi3+0x2e4>
 1807930:	00bfffd4 	movui	r2,65535
 1807934:	14009e36 	bltu	r2,r16,1807bb0 <__udivdi3+0x2cc>
 1807938:	00803fc4 	movi	r2,255
 180793c:	14013d36 	bltu	r2,r16,1807e34 <__udivdi3+0x550>
 1807940:	000b883a 	mov	r5,zero
 1807944:	0005883a 	mov	r2,zero
 1807948:	8084d83a 	srl	r2,r16,r2
 180794c:	01006074 	movhi	r4,385
 1807950:	2102b804 	addi	r4,r4,2784
 1807954:	01800804 	movi	r6,32
 1807958:	1105883a 	add	r2,r2,r4
 180795c:	10c00003 	ldbu	r3,0(r2)
 1807960:	28c7883a 	add	r3,r5,r3
 1807964:	30edc83a 	sub	r22,r6,r3
 1807968:	b000ee1e 	bne	r22,zero,1807d24 <__udivdi3+0x440>
 180796c:	802ad43a 	srli	r21,r16,16
 1807970:	00800044 	movi	r2,1
 1807974:	a423c83a 	sub	r17,r20,r16
 1807978:	85ffffcc 	andi	r23,r16,65535
 180797c:	d8800315 	stw	r2,12(sp)
 1807980:	8809883a 	mov	r4,r17
 1807984:	a80b883a 	mov	r5,r21
 1807988:	18096d80 	call	18096d8 <__udivsi3>
 180798c:	8809883a 	mov	r4,r17
 1807990:	a80b883a 	mov	r5,r21
 1807994:	102d883a 	mov	r22,r2
 1807998:	18096e00 	call	18096e0 <__umodsi3>
 180799c:	1004943a 	slli	r2,r2,16
 18079a0:	e006d43a 	srli	r3,fp,16
 18079a4:	bda3383a 	mul	r17,r23,r22
 18079a8:	10c4b03a 	or	r2,r2,r3
 18079ac:	1440042e 	bgeu	r2,r17,18079c0 <__udivdi3+0xdc>
 18079b0:	1405883a 	add	r2,r2,r16
 18079b4:	b5bfffc4 	addi	r22,r22,-1
 18079b8:	14000136 	bltu	r2,r16,18079c0 <__udivdi3+0xdc>
 18079bc:	14413d36 	bltu	r2,r17,1807eb4 <__udivdi3+0x5d0>
 18079c0:	1463c83a 	sub	r17,r2,r17
 18079c4:	8809883a 	mov	r4,r17
 18079c8:	a80b883a 	mov	r5,r21
 18079cc:	18096d80 	call	18096d8 <__udivsi3>
 18079d0:	8809883a 	mov	r4,r17
 18079d4:	a80b883a 	mov	r5,r21
 18079d8:	1029883a 	mov	r20,r2
 18079dc:	18096e00 	call	18096e0 <__umodsi3>
 18079e0:	1004943a 	slli	r2,r2,16
 18079e4:	bd09383a 	mul	r4,r23,r20
 18079e8:	e0ffffcc 	andi	r3,fp,65535
 18079ec:	10c4b03a 	or	r2,r2,r3
 18079f0:	1100042e 	bgeu	r2,r4,1807a04 <__udivdi3+0x120>
 18079f4:	8085883a 	add	r2,r16,r2
 18079f8:	a53fffc4 	addi	r20,r20,-1
 18079fc:	14000136 	bltu	r2,r16,1807a04 <__udivdi3+0x120>
 1807a00:	11012036 	bltu	r2,r4,1807e84 <__udivdi3+0x5a0>
 1807a04:	b004943a 	slli	r2,r22,16
 1807a08:	d9000317 	ldw	r4,12(sp)
 1807a0c:	a084b03a 	or	r2,r20,r2
 1807a10:	00001506 	br	1807a68 <__udivdi3+0x184>
 1807a14:	380d883a 	mov	r6,r7
 1807a18:	29c06236 	bltu	r5,r7,1807ba4 <__udivdi3+0x2c0>
 1807a1c:	00bfffd4 	movui	r2,65535
 1807a20:	11c05a36 	bltu	r2,r7,1807b8c <__udivdi3+0x2a8>
 1807a24:	00803fc4 	movi	r2,255
 1807a28:	11c0fc36 	bltu	r2,r7,1807e1c <__udivdi3+0x538>
 1807a2c:	000b883a 	mov	r5,zero
 1807a30:	0005883a 	mov	r2,zero
 1807a34:	3084d83a 	srl	r2,r6,r2
 1807a38:	01006074 	movhi	r4,385
 1807a3c:	2102b804 	addi	r4,r4,2784
 1807a40:	01c00804 	movi	r7,32
 1807a44:	1105883a 	add	r2,r2,r4
 1807a48:	10c00003 	ldbu	r3,0(r2)
 1807a4c:	28c7883a 	add	r3,r5,r3
 1807a50:	38efc83a 	sub	r23,r7,r3
 1807a54:	b800691e 	bne	r23,zero,1807bfc <__udivdi3+0x318>
 1807a58:	35000136 	bltu	r6,r20,1807a60 <__udivdi3+0x17c>
 1807a5c:	e4005136 	bltu	fp,r16,1807ba4 <__udivdi3+0x2c0>
 1807a60:	00800044 	movi	r2,1
 1807a64:	0009883a 	mov	r4,zero
 1807a68:	2007883a 	mov	r3,r4
 1807a6c:	dfc00f17 	ldw	ra,60(sp)
 1807a70:	df000e17 	ldw	fp,56(sp)
 1807a74:	ddc00d17 	ldw	r23,52(sp)
 1807a78:	dd800c17 	ldw	r22,48(sp)
 1807a7c:	dd400b17 	ldw	r21,44(sp)
 1807a80:	dd000a17 	ldw	r20,40(sp)
 1807a84:	dcc00917 	ldw	r19,36(sp)
 1807a88:	dc800817 	ldw	r18,32(sp)
 1807a8c:	dc400717 	ldw	r17,28(sp)
 1807a90:	dc000617 	ldw	r16,24(sp)
 1807a94:	dec01004 	addi	sp,sp,64
 1807a98:	f800283a 	ret
 1807a9c:	00bfffd4 	movui	r2,65535
 1807aa0:	12005036 	bltu	r2,r8,1807be4 <__udivdi3+0x300>
 1807aa4:	00803fc4 	movi	r2,255
 1807aa8:	1200e836 	bltu	r2,r8,1807e4c <__udivdi3+0x568>
 1807aac:	000b883a 	mov	r5,zero
 1807ab0:	0005883a 	mov	r2,zero
 1807ab4:	8084d83a 	srl	r2,r16,r2
 1807ab8:	01006074 	movhi	r4,385
 1807abc:	2102b804 	addi	r4,r4,2784
 1807ac0:	01800804 	movi	r6,32
 1807ac4:	1105883a 	add	r2,r2,r4
 1807ac8:	10c00003 	ldbu	r3,0(r2)
 1807acc:	28c7883a 	add	r3,r5,r3
 1807ad0:	30cbc83a 	sub	r5,r6,r3
 1807ad4:	28000626 	beq	r5,zero,1807af0 <__udivdi3+0x20c>
 1807ad8:	3145c83a 	sub	r2,r6,r5
 1807adc:	e084d83a 	srl	r2,fp,r2
 1807ae0:	a146983a 	sll	r3,r20,r5
 1807ae4:	e178983a 	sll	fp,fp,r5
 1807ae8:	8160983a 	sll	r16,r16,r5
 1807aec:	18a8b03a 	or	r20,r3,r2
 1807af0:	802ad43a 	srli	r21,r16,16
 1807af4:	a009883a 	mov	r4,r20
 1807af8:	85ffffcc 	andi	r23,r16,65535
 1807afc:	a80b883a 	mov	r5,r21
 1807b00:	18096d80 	call	18096d8 <__udivsi3>
 1807b04:	a009883a 	mov	r4,r20
 1807b08:	a80b883a 	mov	r5,r21
 1807b0c:	102d883a 	mov	r22,r2
 1807b10:	18096e00 	call	18096e0 <__umodsi3>
 1807b14:	1004943a 	slli	r2,r2,16
 1807b18:	e006d43a 	srli	r3,fp,16
 1807b1c:	bda3383a 	mul	r17,r23,r22
 1807b20:	10c4b03a 	or	r2,r2,r3
 1807b24:	1440042e 	bgeu	r2,r17,1807b38 <__udivdi3+0x254>
 1807b28:	1405883a 	add	r2,r2,r16
 1807b2c:	b5bfffc4 	addi	r22,r22,-1
 1807b30:	14000136 	bltu	r2,r16,1807b38 <__udivdi3+0x254>
 1807b34:	1440d536 	bltu	r2,r17,1807e8c <__udivdi3+0x5a8>
 1807b38:	1463c83a 	sub	r17,r2,r17
 1807b3c:	8809883a 	mov	r4,r17
 1807b40:	a80b883a 	mov	r5,r21
 1807b44:	18096d80 	call	18096d8 <__udivsi3>
 1807b48:	8809883a 	mov	r4,r17
 1807b4c:	a80b883a 	mov	r5,r21
 1807b50:	1029883a 	mov	r20,r2
 1807b54:	18096e00 	call	18096e0 <__umodsi3>
 1807b58:	1004943a 	slli	r2,r2,16
 1807b5c:	bd09383a 	mul	r4,r23,r20
 1807b60:	e0ffffcc 	andi	r3,fp,65535
 1807b64:	10c4b03a 	or	r2,r2,r3
 1807b68:	1100042e 	bgeu	r2,r4,1807b7c <__udivdi3+0x298>
 1807b6c:	8085883a 	add	r2,r16,r2
 1807b70:	a53fffc4 	addi	r20,r20,-1
 1807b74:	14000136 	bltu	r2,r16,1807b7c <__udivdi3+0x298>
 1807b78:	1100c736 	bltu	r2,r4,1807e98 <__udivdi3+0x5b4>
 1807b7c:	b004943a 	slli	r2,r22,16
 1807b80:	0009883a 	mov	r4,zero
 1807b84:	a084b03a 	or	r2,r20,r2
 1807b88:	003fb706 	br	1807a68 <__udivdi3+0x184>
 1807b8c:	00804034 	movhi	r2,256
 1807b90:	10bfffc4 	addi	r2,r2,-1
 1807b94:	11c0a436 	bltu	r2,r7,1807e28 <__udivdi3+0x544>
 1807b98:	01400404 	movi	r5,16
 1807b9c:	2805883a 	mov	r2,r5
 1807ba0:	003fa406 	br	1807a34 <__udivdi3+0x150>
 1807ba4:	0005883a 	mov	r2,zero
 1807ba8:	0009883a 	mov	r4,zero
 1807bac:	003fae06 	br	1807a68 <__udivdi3+0x184>
 1807bb0:	00804034 	movhi	r2,256
 1807bb4:	10bfffc4 	addi	r2,r2,-1
 1807bb8:	1400a136 	bltu	r2,r16,1807e40 <__udivdi3+0x55c>
 1807bbc:	01400404 	movi	r5,16
 1807bc0:	2805883a 	mov	r2,r5
 1807bc4:	003f6006 	br	1807948 <__udivdi3+0x64>
 1807bc8:	01000044 	movi	r4,1
 1807bcc:	000b883a 	mov	r5,zero
 1807bd0:	18096d80 	call	18096d8 <__udivsi3>
 1807bd4:	1021883a 	mov	r16,r2
 1807bd8:	00bfffd4 	movui	r2,65535
 1807bdc:	143ff436 	bltu	r2,r16,1807bb0 <__udivdi3+0x2cc>
 1807be0:	003f5506 	br	1807938 <__udivdi3+0x54>
 1807be4:	00804034 	movhi	r2,256
 1807be8:	10bfffc4 	addi	r2,r2,-1
 1807bec:	12009a36 	bltu	r2,r8,1807e58 <__udivdi3+0x574>
 1807bf0:	01400404 	movi	r5,16
 1807bf4:	2805883a 	mov	r2,r5
 1807bf8:	003fae06 	br	1807ab4 <__udivdi3+0x1d0>
 1807bfc:	3dc5c83a 	sub	r2,r7,r23
 1807c00:	35c8983a 	sll	r4,r6,r23
 1807c04:	8086d83a 	srl	r3,r16,r2
 1807c08:	a0a2d83a 	srl	r17,r20,r2
 1807c0c:	e084d83a 	srl	r2,fp,r2
 1807c10:	20eab03a 	or	r21,r4,r3
 1807c14:	a82cd43a 	srli	r22,r21,16
 1807c18:	a5c6983a 	sll	r3,r20,r23
 1807c1c:	8809883a 	mov	r4,r17
 1807c20:	b00b883a 	mov	r5,r22
 1807c24:	1886b03a 	or	r3,r3,r2
 1807c28:	d8c00215 	stw	r3,8(sp)
 1807c2c:	18096d80 	call	18096d8 <__udivsi3>
 1807c30:	8809883a 	mov	r4,r17
 1807c34:	b00b883a 	mov	r5,r22
 1807c38:	1029883a 	mov	r20,r2
 1807c3c:	18096e00 	call	18096e0 <__umodsi3>
 1807c40:	a8ffffcc 	andi	r3,r21,65535
 1807c44:	d8c00515 	stw	r3,20(sp)
 1807c48:	d9000217 	ldw	r4,8(sp)
 1807c4c:	d9400517 	ldw	r5,20(sp)
 1807c50:	1004943a 	slli	r2,r2,16
 1807c54:	2006d43a 	srli	r3,r4,16
 1807c58:	85e0983a 	sll	r16,r16,r23
 1807c5c:	2d23383a 	mul	r17,r5,r20
 1807c60:	10c4b03a 	or	r2,r2,r3
 1807c64:	dc000015 	stw	r16,0(sp)
 1807c68:	1440032e 	bgeu	r2,r17,1807c78 <__udivdi3+0x394>
 1807c6c:	1545883a 	add	r2,r2,r21
 1807c70:	a53fffc4 	addi	r20,r20,-1
 1807c74:	15407f2e 	bgeu	r2,r21,1807e74 <__udivdi3+0x590>
 1807c78:	1463c83a 	sub	r17,r2,r17
 1807c7c:	8809883a 	mov	r4,r17
 1807c80:	b00b883a 	mov	r5,r22
 1807c84:	18096d80 	call	18096d8 <__udivsi3>
 1807c88:	8809883a 	mov	r4,r17
 1807c8c:	b00b883a 	mov	r5,r22
 1807c90:	1021883a 	mov	r16,r2
 1807c94:	18096e00 	call	18096e0 <__umodsi3>
 1807c98:	d8c00517 	ldw	r3,20(sp)
 1807c9c:	d9000217 	ldw	r4,8(sp)
 1807ca0:	1004943a 	slli	r2,r2,16
 1807ca4:	1c0f383a 	mul	r7,r3,r16
 1807ca8:	20ffffcc 	andi	r3,r4,65535
 1807cac:	10e2b03a 	or	r17,r2,r3
 1807cb0:	89c0032e 	bgeu	r17,r7,1807cc0 <__udivdi3+0x3dc>
 1807cb4:	8d63883a 	add	r17,r17,r21
 1807cb8:	843fffc4 	addi	r16,r16,-1
 1807cbc:	8d40692e 	bgeu	r17,r21,1807e64 <__udivdi3+0x580>
 1807cc0:	a008943a 	slli	r4,r20,16
 1807cc4:	d9400017 	ldw	r5,0(sp)
 1807cc8:	89e3c83a 	sub	r17,r17,r7
 1807ccc:	8110b03a 	or	r8,r16,r4
 1807cd0:	280cd43a 	srli	r6,r5,16
 1807cd4:	28ffffcc 	andi	r3,r5,65535
 1807cd8:	40bfffcc 	andi	r2,r8,65535
 1807cdc:	400ad43a 	srli	r5,r8,16
 1807ce0:	10d3383a 	mul	r9,r2,r3
 1807ce4:	1185383a 	mul	r2,r2,r6
 1807ce8:	28c7383a 	mul	r3,r5,r3
 1807cec:	4808d43a 	srli	r4,r9,16
 1807cf0:	298b383a 	mul	r5,r5,r6
 1807cf4:	10c5883a 	add	r2,r2,r3
 1807cf8:	2089883a 	add	r4,r4,r2
 1807cfc:	20c0022e 	bgeu	r4,r3,1807d08 <__udivdi3+0x424>
 1807d00:	00800074 	movhi	r2,1
 1807d04:	288b883a 	add	r5,r5,r2
 1807d08:	2004d43a 	srli	r2,r4,16
 1807d0c:	288b883a 	add	r5,r5,r2
 1807d10:	89403f36 	bltu	r17,r5,1807e10 <__udivdi3+0x52c>
 1807d14:	89403926 	beq	r17,r5,1807dfc <__udivdi3+0x518>
 1807d18:	4005883a 	mov	r2,r8
 1807d1c:	0009883a 	mov	r4,zero
 1807d20:	003f5106 	br	1807a68 <__udivdi3+0x184>
 1807d24:	85a0983a 	sll	r16,r16,r22
 1807d28:	3585c83a 	sub	r2,r6,r22
 1807d2c:	a0a2d83a 	srl	r17,r20,r2
 1807d30:	802ad43a 	srli	r21,r16,16
 1807d34:	e084d83a 	srl	r2,fp,r2
 1807d38:	a586983a 	sll	r3,r20,r22
 1807d3c:	8809883a 	mov	r4,r17
 1807d40:	a80b883a 	mov	r5,r21
 1807d44:	1886b03a 	or	r3,r3,r2
 1807d48:	d8c00115 	stw	r3,4(sp)
 1807d4c:	18096d80 	call	18096d8 <__udivsi3>
 1807d50:	8809883a 	mov	r4,r17
 1807d54:	a80b883a 	mov	r5,r21
 1807d58:	d8800415 	stw	r2,16(sp)
 1807d5c:	18096e00 	call	18096e0 <__umodsi3>
 1807d60:	d9000117 	ldw	r4,4(sp)
 1807d64:	d9400417 	ldw	r5,16(sp)
 1807d68:	1004943a 	slli	r2,r2,16
 1807d6c:	85ffffcc 	andi	r23,r16,65535
 1807d70:	2006d43a 	srli	r3,r4,16
 1807d74:	b963383a 	mul	r17,r23,r5
 1807d78:	10c4b03a 	or	r2,r2,r3
 1807d7c:	1440042e 	bgeu	r2,r17,1807d90 <__udivdi3+0x4ac>
 1807d80:	297fffc4 	addi	r5,r5,-1
 1807d84:	1405883a 	add	r2,r2,r16
 1807d88:	d9400415 	stw	r5,16(sp)
 1807d8c:	1400442e 	bgeu	r2,r16,1807ea0 <__udivdi3+0x5bc>
 1807d90:	1463c83a 	sub	r17,r2,r17
 1807d94:	8809883a 	mov	r4,r17
 1807d98:	a80b883a 	mov	r5,r21
 1807d9c:	18096d80 	call	18096d8 <__udivsi3>
 1807da0:	8809883a 	mov	r4,r17
 1807da4:	a80b883a 	mov	r5,r21
 1807da8:	1029883a 	mov	r20,r2
 1807dac:	18096e00 	call	18096e0 <__umodsi3>
 1807db0:	d9400117 	ldw	r5,4(sp)
 1807db4:	1004943a 	slli	r2,r2,16
 1807db8:	bd09383a 	mul	r4,r23,r20
 1807dbc:	28ffffcc 	andi	r3,r5,65535
 1807dc0:	10c6b03a 	or	r3,r2,r3
 1807dc4:	1900062e 	bgeu	r3,r4,1807de0 <__udivdi3+0x4fc>
 1807dc8:	1c07883a 	add	r3,r3,r16
 1807dcc:	a53fffc4 	addi	r20,r20,-1
 1807dd0:	1c000336 	bltu	r3,r16,1807de0 <__udivdi3+0x4fc>
 1807dd4:	1900022e 	bgeu	r3,r4,1807de0 <__udivdi3+0x4fc>
 1807dd8:	a53fffc4 	addi	r20,r20,-1
 1807ddc:	1c07883a 	add	r3,r3,r16
 1807de0:	d9400417 	ldw	r5,16(sp)
 1807de4:	e5b8983a 	sll	fp,fp,r22
 1807de8:	1923c83a 	sub	r17,r3,r4
 1807dec:	2804943a 	slli	r2,r5,16
 1807df0:	a0a8b03a 	or	r20,r20,r2
 1807df4:	dd000315 	stw	r20,12(sp)
 1807df8:	003ee106 	br	1807980 <__udivdi3+0x9c>
 1807dfc:	2004943a 	slli	r2,r4,16
 1807e00:	e5c8983a 	sll	r4,fp,r23
 1807e04:	48ffffcc 	andi	r3,r9,65535
 1807e08:	10c5883a 	add	r2,r2,r3
 1807e0c:	20bfc22e 	bgeu	r4,r2,1807d18 <__udivdi3+0x434>
 1807e10:	40bfffc4 	addi	r2,r8,-1
 1807e14:	0009883a 	mov	r4,zero
 1807e18:	003f1306 	br	1807a68 <__udivdi3+0x184>
 1807e1c:	01400204 	movi	r5,8
 1807e20:	2805883a 	mov	r2,r5
 1807e24:	003f0306 	br	1807a34 <__udivdi3+0x150>
 1807e28:	01400604 	movi	r5,24
 1807e2c:	2805883a 	mov	r2,r5
 1807e30:	003f0006 	br	1807a34 <__udivdi3+0x150>
 1807e34:	01400204 	movi	r5,8
 1807e38:	2805883a 	mov	r2,r5
 1807e3c:	003ec206 	br	1807948 <__udivdi3+0x64>
 1807e40:	01400604 	movi	r5,24
 1807e44:	2805883a 	mov	r2,r5
 1807e48:	003ebf06 	br	1807948 <__udivdi3+0x64>
 1807e4c:	01400204 	movi	r5,8
 1807e50:	2805883a 	mov	r2,r5
 1807e54:	003f1706 	br	1807ab4 <__udivdi3+0x1d0>
 1807e58:	01400604 	movi	r5,24
 1807e5c:	2805883a 	mov	r2,r5
 1807e60:	003f1406 	br	1807ab4 <__udivdi3+0x1d0>
 1807e64:	89ff962e 	bgeu	r17,r7,1807cc0 <__udivdi3+0x3dc>
 1807e68:	8d63883a 	add	r17,r17,r21
 1807e6c:	843fffc4 	addi	r16,r16,-1
 1807e70:	003f9306 	br	1807cc0 <__udivdi3+0x3dc>
 1807e74:	147f802e 	bgeu	r2,r17,1807c78 <__udivdi3+0x394>
 1807e78:	a53fffc4 	addi	r20,r20,-1
 1807e7c:	1545883a 	add	r2,r2,r21
 1807e80:	003f7d06 	br	1807c78 <__udivdi3+0x394>
 1807e84:	a53fffc4 	addi	r20,r20,-1
 1807e88:	003ede06 	br	1807a04 <__udivdi3+0x120>
 1807e8c:	b5bfffc4 	addi	r22,r22,-1
 1807e90:	1405883a 	add	r2,r2,r16
 1807e94:	003f2806 	br	1807b38 <__udivdi3+0x254>
 1807e98:	a53fffc4 	addi	r20,r20,-1
 1807e9c:	003f3706 	br	1807b7c <__udivdi3+0x298>
 1807ea0:	147fbb2e 	bgeu	r2,r17,1807d90 <__udivdi3+0x4ac>
 1807ea4:	297fffc4 	addi	r5,r5,-1
 1807ea8:	1405883a 	add	r2,r2,r16
 1807eac:	d9400415 	stw	r5,16(sp)
 1807eb0:	003fb706 	br	1807d90 <__udivdi3+0x4ac>
 1807eb4:	b5bfffc4 	addi	r22,r22,-1
 1807eb8:	1405883a 	add	r2,r2,r16
 1807ebc:	003ec006 	br	18079c0 <__udivdi3+0xdc>

01807ec0 <__umoddi3>:
 1807ec0:	defff104 	addi	sp,sp,-60
 1807ec4:	dd800b15 	stw	r22,44(sp)
 1807ec8:	dd000915 	stw	r20,36(sp)
 1807ecc:	dc000515 	stw	r16,20(sp)
 1807ed0:	dfc00e15 	stw	ra,56(sp)
 1807ed4:	df000d15 	stw	fp,52(sp)
 1807ed8:	ddc00c15 	stw	r23,48(sp)
 1807edc:	dd400a15 	stw	r21,40(sp)
 1807ee0:	dcc00815 	stw	r19,32(sp)
 1807ee4:	dc800715 	stw	r18,28(sp)
 1807ee8:	dc400615 	stw	r17,24(sp)
 1807eec:	3021883a 	mov	r16,r6
 1807ef0:	202d883a 	mov	r22,r4
 1807ef4:	2829883a 	mov	r20,r5
 1807ef8:	38002b1e 	bne	r7,zero,1807fa8 <__umoddi3+0xe8>
 1807efc:	29805036 	bltu	r5,r6,1808040 <__umoddi3+0x180>
 1807f00:	30008a26 	beq	r6,zero,180812c <__umoddi3+0x26c>
 1807f04:	00bfffd4 	movui	r2,65535
 1807f08:	14008236 	bltu	r2,r16,1808114 <__umoddi3+0x254>
 1807f0c:	00803fc4 	movi	r2,255
 1807f10:	14013636 	bltu	r2,r16,18083ec <__umoddi3+0x52c>
 1807f14:	000b883a 	mov	r5,zero
 1807f18:	0005883a 	mov	r2,zero
 1807f1c:	8084d83a 	srl	r2,r16,r2
 1807f20:	01006074 	movhi	r4,385
 1807f24:	2102b804 	addi	r4,r4,2784
 1807f28:	01800804 	movi	r6,32
 1807f2c:	1105883a 	add	r2,r2,r4
 1807f30:	10c00003 	ldbu	r3,0(r2)
 1807f34:	28c7883a 	add	r3,r5,r3
 1807f38:	30efc83a 	sub	r23,r6,r3
 1807f3c:	b800941e 	bne	r23,zero,1808190 <__umoddi3+0x2d0>
 1807f40:	802ad43a 	srli	r21,r16,16
 1807f44:	a423c83a 	sub	r17,r20,r16
 1807f48:	0039883a 	mov	fp,zero
 1807f4c:	853fffcc 	andi	r20,r16,65535
 1807f50:	8809883a 	mov	r4,r17
 1807f54:	a80b883a 	mov	r5,r21
 1807f58:	18096d80 	call	18096d8 <__udivsi3>
 1807f5c:	8809883a 	mov	r4,r17
 1807f60:	a80b883a 	mov	r5,r21
 1807f64:	a0a3383a 	mul	r17,r20,r2
 1807f68:	18096e00 	call	18096e0 <__umodsi3>
 1807f6c:	1004943a 	slli	r2,r2,16
 1807f70:	b006d43a 	srli	r3,r22,16
 1807f74:	10c4b03a 	or	r2,r2,r3
 1807f78:	1440032e 	bgeu	r2,r17,1807f88 <__umoddi3+0xc8>
 1807f7c:	1405883a 	add	r2,r2,r16
 1807f80:	14000136 	bltu	r2,r16,1807f88 <__umoddi3+0xc8>
 1807f84:	14413536 	bltu	r2,r17,180845c <__umoddi3+0x59c>
 1807f88:	1463c83a 	sub	r17,r2,r17
 1807f8c:	8809883a 	mov	r4,r17
 1807f90:	a80b883a 	mov	r5,r21
 1807f94:	18096d80 	call	18096d8 <__udivsi3>
 1807f98:	8809883a 	mov	r4,r17
 1807f9c:	a0a3383a 	mul	r17,r20,r2
 1807fa0:	a80b883a 	mov	r5,r21
 1807fa4:	00004d06 	br	18080dc <__umoddi3+0x21c>
 1807fa8:	380d883a 	mov	r6,r7
 1807fac:	29c0102e 	bgeu	r5,r7,1807ff0 <__umoddi3+0x130>
 1807fb0:	2011883a 	mov	r8,r4
 1807fb4:	2813883a 	mov	r9,r5
 1807fb8:	4005883a 	mov	r2,r8
 1807fbc:	4807883a 	mov	r3,r9
 1807fc0:	dfc00e17 	ldw	ra,56(sp)
 1807fc4:	df000d17 	ldw	fp,52(sp)
 1807fc8:	ddc00c17 	ldw	r23,48(sp)
 1807fcc:	dd800b17 	ldw	r22,44(sp)
 1807fd0:	dd400a17 	ldw	r21,40(sp)
 1807fd4:	dd000917 	ldw	r20,36(sp)
 1807fd8:	dcc00817 	ldw	r19,32(sp)
 1807fdc:	dc800717 	ldw	r18,28(sp)
 1807fe0:	dc400617 	ldw	r17,24(sp)
 1807fe4:	dc000517 	ldw	r16,20(sp)
 1807fe8:	dec00f04 	addi	sp,sp,60
 1807fec:	f800283a 	ret
 1807ff0:	00bfffd4 	movui	r2,65535
 1807ff4:	11c05a36 	bltu	r2,r7,1808160 <__umoddi3+0x2a0>
 1807ff8:	00803fc4 	movi	r2,255
 1807ffc:	11c0fe36 	bltu	r2,r7,18083f8 <__umoddi3+0x538>
 1808000:	000b883a 	mov	r5,zero
 1808004:	0005883a 	mov	r2,zero
 1808008:	3084d83a 	srl	r2,r6,r2
 180800c:	01006074 	movhi	r4,385
 1808010:	2102b804 	addi	r4,r4,2784
 1808014:	01c00804 	movi	r7,32
 1808018:	1105883a 	add	r2,r2,r4
 180801c:	10c00003 	ldbu	r3,0(r2)
 1808020:	28c7883a 	add	r3,r5,r3
 1808024:	38ebc83a 	sub	r21,r7,r3
 1808028:	a800851e 	bne	r21,zero,1808240 <__umoddi3+0x380>
 180802c:	35005236 	bltu	r6,r20,1808178 <__umoddi3+0x2b8>
 1808030:	b400512e 	bgeu	r22,r16,1808178 <__umoddi3+0x2b8>
 1808034:	b011883a 	mov	r8,r22
 1808038:	a013883a 	mov	r9,r20
 180803c:	003fde06 	br	1807fb8 <__umoddi3+0xf8>
 1808040:	00bfffd4 	movui	r2,65535
 1808044:	11804036 	bltu	r2,r6,1808148 <__umoddi3+0x288>
 1808048:	00803fc4 	movi	r2,255
 180804c:	1180ed36 	bltu	r2,r6,1808404 <__umoddi3+0x544>
 1808050:	000b883a 	mov	r5,zero
 1808054:	0005883a 	mov	r2,zero
 1808058:	8084d83a 	srl	r2,r16,r2
 180805c:	01006074 	movhi	r4,385
 1808060:	2102b804 	addi	r4,r4,2784
 1808064:	01800804 	movi	r6,32
 1808068:	1105883a 	add	r2,r2,r4
 180806c:	10c00003 	ldbu	r3,0(r2)
 1808070:	28c7883a 	add	r3,r5,r3
 1808074:	30c7c83a 	sub	r3,r6,r3
 1808078:	1800bf1e 	bne	r3,zero,1808378 <__umoddi3+0x4b8>
 180807c:	0039883a 	mov	fp,zero
 1808080:	802ad43a 	srli	r21,r16,16
 1808084:	a009883a 	mov	r4,r20
 1808088:	85ffffcc 	andi	r23,r16,65535
 180808c:	a80b883a 	mov	r5,r21
 1808090:	18096d80 	call	18096d8 <__udivsi3>
 1808094:	a009883a 	mov	r4,r20
 1808098:	a80b883a 	mov	r5,r21
 180809c:	b8a3383a 	mul	r17,r23,r2
 18080a0:	18096e00 	call	18096e0 <__umodsi3>
 18080a4:	1004943a 	slli	r2,r2,16
 18080a8:	b006d43a 	srli	r3,r22,16
 18080ac:	10c4b03a 	or	r2,r2,r3
 18080b0:	1440032e 	bgeu	r2,r17,18080c0 <__umoddi3+0x200>
 18080b4:	1405883a 	add	r2,r2,r16
 18080b8:	14000136 	bltu	r2,r16,18080c0 <__umoddi3+0x200>
 18080bc:	1440e536 	bltu	r2,r17,1808454 <__umoddi3+0x594>
 18080c0:	1463c83a 	sub	r17,r2,r17
 18080c4:	8809883a 	mov	r4,r17
 18080c8:	a80b883a 	mov	r5,r21
 18080cc:	18096d80 	call	18096d8 <__udivsi3>
 18080d0:	8809883a 	mov	r4,r17
 18080d4:	b8a3383a 	mul	r17,r23,r2
 18080d8:	a80b883a 	mov	r5,r21
 18080dc:	18096e00 	call	18096e0 <__umodsi3>
 18080e0:	1004943a 	slli	r2,r2,16
 18080e4:	b0ffffcc 	andi	r3,r22,65535
 18080e8:	10c4b03a 	or	r2,r2,r3
 18080ec:	1440042e 	bgeu	r2,r17,1808100 <__umoddi3+0x240>
 18080f0:	1405883a 	add	r2,r2,r16
 18080f4:	14000236 	bltu	r2,r16,1808100 <__umoddi3+0x240>
 18080f8:	1440012e 	bgeu	r2,r17,1808100 <__umoddi3+0x240>
 18080fc:	1405883a 	add	r2,r2,r16
 1808100:	1445c83a 	sub	r2,r2,r17
 1808104:	1724d83a 	srl	r18,r2,fp
 1808108:	0013883a 	mov	r9,zero
 180810c:	9011883a 	mov	r8,r18
 1808110:	003fa906 	br	1807fb8 <__umoddi3+0xf8>
 1808114:	00804034 	movhi	r2,256
 1808118:	10bfffc4 	addi	r2,r2,-1
 180811c:	1400b036 	bltu	r2,r16,18083e0 <__umoddi3+0x520>
 1808120:	01400404 	movi	r5,16
 1808124:	2805883a 	mov	r2,r5
 1808128:	003f7c06 	br	1807f1c <__umoddi3+0x5c>
 180812c:	01000044 	movi	r4,1
 1808130:	000b883a 	mov	r5,zero
 1808134:	18096d80 	call	18096d8 <__udivsi3>
 1808138:	1021883a 	mov	r16,r2
 180813c:	00bfffd4 	movui	r2,65535
 1808140:	143ff436 	bltu	r2,r16,1808114 <__umoddi3+0x254>
 1808144:	003f7106 	br	1807f0c <__umoddi3+0x4c>
 1808148:	00804034 	movhi	r2,256
 180814c:	10bfffc4 	addi	r2,r2,-1
 1808150:	1180af36 	bltu	r2,r6,1808410 <__umoddi3+0x550>
 1808154:	01400404 	movi	r5,16
 1808158:	2805883a 	mov	r2,r5
 180815c:	003fbe06 	br	1808058 <__umoddi3+0x198>
 1808160:	00804034 	movhi	r2,256
 1808164:	10bfffc4 	addi	r2,r2,-1
 1808168:	11c0ac36 	bltu	r2,r7,180841c <__umoddi3+0x55c>
 180816c:	01400404 	movi	r5,16
 1808170:	2805883a 	mov	r2,r5
 1808174:	003fa406 	br	1808008 <__umoddi3+0x148>
 1808178:	b409c83a 	sub	r4,r22,r16
 180817c:	b105803a 	cmpltu	r2,r22,r4
 1808180:	a187c83a 	sub	r3,r20,r6
 1808184:	18a9c83a 	sub	r20,r3,r2
 1808188:	202d883a 	mov	r22,r4
 180818c:	003fa906 	br	1808034 <__umoddi3+0x174>
 1808190:	85e0983a 	sll	r16,r16,r23
 1808194:	35c5c83a 	sub	r2,r6,r23
 1808198:	a0a2d83a 	srl	r17,r20,r2
 180819c:	802ad43a 	srli	r21,r16,16
 18081a0:	b084d83a 	srl	r2,r22,r2
 18081a4:	a5c6983a 	sll	r3,r20,r23
 18081a8:	8809883a 	mov	r4,r17
 18081ac:	a80b883a 	mov	r5,r21
 18081b0:	1886b03a 	or	r3,r3,r2
 18081b4:	d8c00115 	stw	r3,4(sp)
 18081b8:	853fffcc 	andi	r20,r16,65535
 18081bc:	18096d80 	call	18096d8 <__udivsi3>
 18081c0:	8809883a 	mov	r4,r17
 18081c4:	a80b883a 	mov	r5,r21
 18081c8:	a0a3383a 	mul	r17,r20,r2
 18081cc:	18096e00 	call	18096e0 <__umodsi3>
 18081d0:	d9000117 	ldw	r4,4(sp)
 18081d4:	1004943a 	slli	r2,r2,16
 18081d8:	b839883a 	mov	fp,r23
 18081dc:	2006d43a 	srli	r3,r4,16
 18081e0:	10c4b03a 	or	r2,r2,r3
 18081e4:	1440022e 	bgeu	r2,r17,18081f0 <__umoddi3+0x330>
 18081e8:	1405883a 	add	r2,r2,r16
 18081ec:	1400962e 	bgeu	r2,r16,1808448 <__umoddi3+0x588>
 18081f0:	1463c83a 	sub	r17,r2,r17
 18081f4:	8809883a 	mov	r4,r17
 18081f8:	a80b883a 	mov	r5,r21
 18081fc:	18096d80 	call	18096d8 <__udivsi3>
 1808200:	8809883a 	mov	r4,r17
 1808204:	a80b883a 	mov	r5,r21
 1808208:	a0a3383a 	mul	r17,r20,r2
 180820c:	18096e00 	call	18096e0 <__umodsi3>
 1808210:	d9400117 	ldw	r5,4(sp)
 1808214:	1004943a 	slli	r2,r2,16
 1808218:	28ffffcc 	andi	r3,r5,65535
 180821c:	10c4b03a 	or	r2,r2,r3
 1808220:	1440042e 	bgeu	r2,r17,1808234 <__umoddi3+0x374>
 1808224:	1405883a 	add	r2,r2,r16
 1808228:	14000236 	bltu	r2,r16,1808234 <__umoddi3+0x374>
 180822c:	1440012e 	bgeu	r2,r17,1808234 <__umoddi3+0x374>
 1808230:	1405883a 	add	r2,r2,r16
 1808234:	b5ec983a 	sll	r22,r22,r23
 1808238:	1463c83a 	sub	r17,r2,r17
 180823c:	003f4406 	br	1807f50 <__umoddi3+0x90>
 1808240:	3d4fc83a 	sub	r7,r7,r21
 1808244:	3546983a 	sll	r3,r6,r21
 1808248:	81c4d83a 	srl	r2,r16,r7
 180824c:	a1e2d83a 	srl	r17,r20,r7
 1808250:	a54c983a 	sll	r6,r20,r21
 1808254:	18aeb03a 	or	r23,r3,r2
 1808258:	b828d43a 	srli	r20,r23,16
 180825c:	b1c4d83a 	srl	r2,r22,r7
 1808260:	8809883a 	mov	r4,r17
 1808264:	a00b883a 	mov	r5,r20
 1808268:	308cb03a 	or	r6,r6,r2
 180826c:	d9c00315 	stw	r7,12(sp)
 1808270:	d9800215 	stw	r6,8(sp)
 1808274:	18096d80 	call	18096d8 <__udivsi3>
 1808278:	8809883a 	mov	r4,r17
 180827c:	a00b883a 	mov	r5,r20
 1808280:	1039883a 	mov	fp,r2
 1808284:	18096e00 	call	18096e0 <__umodsi3>
 1808288:	b8ffffcc 	andi	r3,r23,65535
 180828c:	d8c00415 	stw	r3,16(sp)
 1808290:	d9000217 	ldw	r4,8(sp)
 1808294:	d9400417 	ldw	r5,16(sp)
 1808298:	1004943a 	slli	r2,r2,16
 180829c:	2006d43a 	srli	r3,r4,16
 18082a0:	8560983a 	sll	r16,r16,r21
 18082a4:	2f23383a 	mul	r17,r5,fp
 18082a8:	10c4b03a 	or	r2,r2,r3
 18082ac:	dc000015 	stw	r16,0(sp)
 18082b0:	b56c983a 	sll	r22,r22,r21
 18082b4:	1440032e 	bgeu	r2,r17,18082c4 <__umoddi3+0x404>
 18082b8:	15c5883a 	add	r2,r2,r23
 18082bc:	e73fffc4 	addi	fp,fp,-1
 18082c0:	15c05d2e 	bgeu	r2,r23,1808438 <__umoddi3+0x578>
 18082c4:	1463c83a 	sub	r17,r2,r17
 18082c8:	8809883a 	mov	r4,r17
 18082cc:	a00b883a 	mov	r5,r20
 18082d0:	18096d80 	call	18096d8 <__udivsi3>
 18082d4:	8809883a 	mov	r4,r17
 18082d8:	a00b883a 	mov	r5,r20
 18082dc:	1021883a 	mov	r16,r2
 18082e0:	18096e00 	call	18096e0 <__umodsi3>
 18082e4:	d8c00417 	ldw	r3,16(sp)
 18082e8:	d9000217 	ldw	r4,8(sp)
 18082ec:	1004943a 	slli	r2,r2,16
 18082f0:	1c23383a 	mul	r17,r3,r16
 18082f4:	20ffffcc 	andi	r3,r4,65535
 18082f8:	10ceb03a 	or	r7,r2,r3
 18082fc:	3c40032e 	bgeu	r7,r17,180830c <__umoddi3+0x44c>
 1808300:	3dcf883a 	add	r7,r7,r23
 1808304:	843fffc4 	addi	r16,r16,-1
 1808308:	3dc0472e 	bgeu	r7,r23,1808428 <__umoddi3+0x568>
 180830c:	e004943a 	slli	r2,fp,16
 1808310:	d9400017 	ldw	r5,0(sp)
 1808314:	3c4fc83a 	sub	r7,r7,r17
 1808318:	8084b03a 	or	r2,r16,r2
 180831c:	28ffffcc 	andi	r3,r5,65535
 1808320:	280cd43a 	srli	r6,r5,16
 1808324:	100ad43a 	srli	r5,r2,16
 1808328:	10bfffcc 	andi	r2,r2,65535
 180832c:	10d1383a 	mul	r8,r2,r3
 1808330:	28c7383a 	mul	r3,r5,r3
 1808334:	1185383a 	mul	r2,r2,r6
 1808338:	4008d43a 	srli	r4,r8,16
 180833c:	298b383a 	mul	r5,r5,r6
 1808340:	10c5883a 	add	r2,r2,r3
 1808344:	2089883a 	add	r4,r4,r2
 1808348:	20c0022e 	bgeu	r4,r3,1808354 <__umoddi3+0x494>
 180834c:	00800074 	movhi	r2,1
 1808350:	288b883a 	add	r5,r5,r2
 1808354:	2004d43a 	srli	r2,r4,16
 1808358:	2008943a 	slli	r4,r4,16
 180835c:	40ffffcc 	andi	r3,r8,65535
 1808360:	288b883a 	add	r5,r5,r2
 1808364:	20c9883a 	add	r4,r4,r3
 1808368:	39400b36 	bltu	r7,r5,1808398 <__umoddi3+0x4d8>
 180836c:	39403d26 	beq	r7,r5,1808464 <__umoddi3+0x5a4>
 1808370:	394bc83a 	sub	r5,r7,r5
 1808374:	00000f06 	br	18083b4 <__umoddi3+0x4f4>
 1808378:	30c5c83a 	sub	r2,r6,r3
 180837c:	1839883a 	mov	fp,r3
 1808380:	b084d83a 	srl	r2,r22,r2
 1808384:	a0c6983a 	sll	r3,r20,r3
 1808388:	8720983a 	sll	r16,r16,fp
 180838c:	b72c983a 	sll	r22,r22,fp
 1808390:	18a8b03a 	or	r20,r3,r2
 1808394:	003f3a06 	br	1808080 <__umoddi3+0x1c0>
 1808398:	d8c00017 	ldw	r3,0(sp)
 180839c:	20c5c83a 	sub	r2,r4,r3
 18083a0:	2089803a 	cmpltu	r4,r4,r2
 18083a4:	2dc7c83a 	sub	r3,r5,r23
 18083a8:	1907c83a 	sub	r3,r3,r4
 18083ac:	38cbc83a 	sub	r5,r7,r3
 18083b0:	1009883a 	mov	r4,r2
 18083b4:	b105c83a 	sub	r2,r22,r4
 18083b8:	b087803a 	cmpltu	r3,r22,r2
 18083bc:	28c7c83a 	sub	r3,r5,r3
 18083c0:	d9400317 	ldw	r5,12(sp)
 18083c4:	1544d83a 	srl	r2,r2,r21
 18083c8:	1948983a 	sll	r4,r3,r5
 18083cc:	1d46d83a 	srl	r3,r3,r21
 18083d0:	20a4b03a 	or	r18,r4,r2
 18083d4:	9011883a 	mov	r8,r18
 18083d8:	1813883a 	mov	r9,r3
 18083dc:	003ef606 	br	1807fb8 <__umoddi3+0xf8>
 18083e0:	01400604 	movi	r5,24
 18083e4:	2805883a 	mov	r2,r5
 18083e8:	003ecc06 	br	1807f1c <__umoddi3+0x5c>
 18083ec:	01400204 	movi	r5,8
 18083f0:	2805883a 	mov	r2,r5
 18083f4:	003ec906 	br	1807f1c <__umoddi3+0x5c>
 18083f8:	01400204 	movi	r5,8
 18083fc:	2805883a 	mov	r2,r5
 1808400:	003f0106 	br	1808008 <__umoddi3+0x148>
 1808404:	01400204 	movi	r5,8
 1808408:	2805883a 	mov	r2,r5
 180840c:	003f1206 	br	1808058 <__umoddi3+0x198>
 1808410:	01400604 	movi	r5,24
 1808414:	2805883a 	mov	r2,r5
 1808418:	003f0f06 	br	1808058 <__umoddi3+0x198>
 180841c:	01400604 	movi	r5,24
 1808420:	2805883a 	mov	r2,r5
 1808424:	003ef806 	br	1808008 <__umoddi3+0x148>
 1808428:	3c7fb82e 	bgeu	r7,r17,180830c <__umoddi3+0x44c>
 180842c:	843fffc4 	addi	r16,r16,-1
 1808430:	3dcf883a 	add	r7,r7,r23
 1808434:	003fb506 	br	180830c <__umoddi3+0x44c>
 1808438:	147fa22e 	bgeu	r2,r17,18082c4 <__umoddi3+0x404>
 180843c:	e73fffc4 	addi	fp,fp,-1
 1808440:	15c5883a 	add	r2,r2,r23
 1808444:	003f9f06 	br	18082c4 <__umoddi3+0x404>
 1808448:	147f692e 	bgeu	r2,r17,18081f0 <__umoddi3+0x330>
 180844c:	1405883a 	add	r2,r2,r16
 1808450:	003f6706 	br	18081f0 <__umoddi3+0x330>
 1808454:	1405883a 	add	r2,r2,r16
 1808458:	003f1906 	br	18080c0 <__umoddi3+0x200>
 180845c:	1405883a 	add	r2,r2,r16
 1808460:	003ec906 	br	1807f88 <__umoddi3+0xc8>
 1808464:	b13fcc36 	bltu	r22,r4,1808398 <__umoddi3+0x4d8>
 1808468:	000b883a 	mov	r5,zero
 180846c:	003fd106 	br	18083b4 <__umoddi3+0x4f4>

01808470 <_fpadd_parts>:
 1808470:	defff804 	addi	sp,sp,-32
 1808474:	dcc00315 	stw	r19,12(sp)
 1808478:	2027883a 	mov	r19,r4
 180847c:	21000017 	ldw	r4,0(r4)
 1808480:	00c00044 	movi	r3,1
 1808484:	dd400515 	stw	r21,20(sp)
 1808488:	dd000415 	stw	r20,16(sp)
 180848c:	ddc00715 	stw	r23,28(sp)
 1808490:	dd800615 	stw	r22,24(sp)
 1808494:	dc800215 	stw	r18,8(sp)
 1808498:	dc400115 	stw	r17,4(sp)
 180849c:	dc000015 	stw	r16,0(sp)
 18084a0:	282b883a 	mov	r21,r5
 18084a4:	3029883a 	mov	r20,r6
 18084a8:	1900632e 	bgeu	r3,r4,1808638 <_fpadd_parts+0x1c8>
 18084ac:	28800017 	ldw	r2,0(r5)
 18084b0:	1880812e 	bgeu	r3,r2,18086b8 <_fpadd_parts+0x248>
 18084b4:	00c00104 	movi	r3,4
 18084b8:	20c0dc26 	beq	r4,r3,180882c <_fpadd_parts+0x3bc>
 18084bc:	10c07e26 	beq	r2,r3,18086b8 <_fpadd_parts+0x248>
 18084c0:	00c00084 	movi	r3,2
 18084c4:	10c06726 	beq	r2,r3,1808664 <_fpadd_parts+0x1f4>
 18084c8:	20c07b26 	beq	r4,r3,18086b8 <_fpadd_parts+0x248>
 18084cc:	9dc00217 	ldw	r23,8(r19)
 18084d0:	28c00217 	ldw	r3,8(r5)
 18084d4:	9c400317 	ldw	r17,12(r19)
 18084d8:	2bc00317 	ldw	r15,12(r5)
 18084dc:	b8cdc83a 	sub	r6,r23,r3
 18084e0:	9c800417 	ldw	r18,16(r19)
 18084e4:	2c000417 	ldw	r16,16(r5)
 18084e8:	3009883a 	mov	r4,r6
 18084ec:	30009716 	blt	r6,zero,180874c <_fpadd_parts+0x2dc>
 18084f0:	00800fc4 	movi	r2,63
 18084f4:	11806b16 	blt	r2,r6,18086a4 <_fpadd_parts+0x234>
 18084f8:	0100a40e 	bge	zero,r4,180878c <_fpadd_parts+0x31c>
 18084fc:	35bff804 	addi	r22,r6,-32
 1808500:	b000bc16 	blt	r22,zero,18087f4 <_fpadd_parts+0x384>
 1808504:	8596d83a 	srl	r11,r16,r22
 1808508:	0019883a 	mov	r12,zero
 180850c:	0013883a 	mov	r9,zero
 1808510:	01000044 	movi	r4,1
 1808514:	0015883a 	mov	r10,zero
 1808518:	b000be16 	blt	r22,zero,1808814 <_fpadd_parts+0x3a4>
 180851c:	2590983a 	sll	r8,r4,r22
 1808520:	000f883a 	mov	r7,zero
 1808524:	00bfffc4 	movi	r2,-1
 1808528:	3889883a 	add	r4,r7,r2
 180852c:	408b883a 	add	r5,r8,r2
 1808530:	21cd803a 	cmpltu	r6,r4,r7
 1808534:	314b883a 	add	r5,r6,r5
 1808538:	7904703a 	and	r2,r15,r4
 180853c:	8146703a 	and	r3,r16,r5
 1808540:	10c4b03a 	or	r2,r2,r3
 1808544:	10000226 	beq	r2,zero,1808550 <_fpadd_parts+0xe0>
 1808548:	02400044 	movi	r9,1
 180854c:	0015883a 	mov	r10,zero
 1808550:	5a5eb03a 	or	r15,r11,r9
 1808554:	62a0b03a 	or	r16,r12,r10
 1808558:	99400117 	ldw	r5,4(r19)
 180855c:	a8800117 	ldw	r2,4(r21)
 1808560:	28806e26 	beq	r5,r2,180871c <_fpadd_parts+0x2ac>
 1808564:	28006626 	beq	r5,zero,1808700 <_fpadd_parts+0x290>
 1808568:	7c45c83a 	sub	r2,r15,r17
 180856c:	7889803a 	cmpltu	r4,r15,r2
 1808570:	8487c83a 	sub	r3,r16,r18
 1808574:	1909c83a 	sub	r4,r3,r4
 1808578:	100d883a 	mov	r6,r2
 180857c:	200f883a 	mov	r7,r4
 1808580:	38007716 	blt	r7,zero,1808760 <_fpadd_parts+0x2f0>
 1808584:	a5c00215 	stw	r23,8(r20)
 1808588:	a1c00415 	stw	r7,16(r20)
 180858c:	a0000115 	stw	zero,4(r20)
 1808590:	a1800315 	stw	r6,12(r20)
 1808594:	a2000317 	ldw	r8,12(r20)
 1808598:	a2400417 	ldw	r9,16(r20)
 180859c:	00bfffc4 	movi	r2,-1
 18085a0:	408b883a 	add	r5,r8,r2
 18085a4:	2a09803a 	cmpltu	r4,r5,r8
 18085a8:	488d883a 	add	r6,r9,r2
 18085ac:	01c40034 	movhi	r7,4096
 18085b0:	39ffffc4 	addi	r7,r7,-1
 18085b4:	218d883a 	add	r6,r4,r6
 18085b8:	39801736 	bltu	r7,r6,1808618 <_fpadd_parts+0x1a8>
 18085bc:	31c06526 	beq	r6,r7,1808754 <_fpadd_parts+0x2e4>
 18085c0:	a3000217 	ldw	r12,8(r20)
 18085c4:	4209883a 	add	r4,r8,r8
 18085c8:	00bfffc4 	movi	r2,-1
 18085cc:	220f803a 	cmpltu	r7,r4,r8
 18085d0:	4a4b883a 	add	r5,r9,r9
 18085d4:	394f883a 	add	r7,r7,r5
 18085d8:	2095883a 	add	r10,r4,r2
 18085dc:	3897883a 	add	r11,r7,r2
 18085e0:	510d803a 	cmpltu	r6,r10,r4
 18085e4:	6099883a 	add	r12,r12,r2
 18085e8:	32d7883a 	add	r11,r6,r11
 18085ec:	00840034 	movhi	r2,4096
 18085f0:	10bfffc4 	addi	r2,r2,-1
 18085f4:	2011883a 	mov	r8,r4
 18085f8:	3813883a 	mov	r9,r7
 18085fc:	a1000315 	stw	r4,12(r20)
 1808600:	a1c00415 	stw	r7,16(r20)
 1808604:	a3000215 	stw	r12,8(r20)
 1808608:	12c00336 	bltu	r2,r11,1808618 <_fpadd_parts+0x1a8>
 180860c:	58bfed1e 	bne	r11,r2,18085c4 <_fpadd_parts+0x154>
 1808610:	00bfff84 	movi	r2,-2
 1808614:	12bfeb2e 	bgeu	r2,r10,18085c4 <_fpadd_parts+0x154>
 1808618:	a2800417 	ldw	r10,16(r20)
 180861c:	008000c4 	movi	r2,3
 1808620:	00c80034 	movhi	r3,8192
 1808624:	18ffffc4 	addi	r3,r3,-1
 1808628:	a2400317 	ldw	r9,12(r20)
 180862c:	a0800015 	stw	r2,0(r20)
 1808630:	1a802336 	bltu	r3,r10,18086c0 <_fpadd_parts+0x250>
 1808634:	a027883a 	mov	r19,r20
 1808638:	9805883a 	mov	r2,r19
 180863c:	ddc00717 	ldw	r23,28(sp)
 1808640:	dd800617 	ldw	r22,24(sp)
 1808644:	dd400517 	ldw	r21,20(sp)
 1808648:	dd000417 	ldw	r20,16(sp)
 180864c:	dcc00317 	ldw	r19,12(sp)
 1808650:	dc800217 	ldw	r18,8(sp)
 1808654:	dc400117 	ldw	r17,4(sp)
 1808658:	dc000017 	ldw	r16,0(sp)
 180865c:	dec00804 	addi	sp,sp,32
 1808660:	f800283a 	ret
 1808664:	20fff41e 	bne	r4,r3,1808638 <_fpadd_parts+0x1c8>
 1808668:	31000015 	stw	r4,0(r6)
 180866c:	98800117 	ldw	r2,4(r19)
 1808670:	30800115 	stw	r2,4(r6)
 1808674:	98c00217 	ldw	r3,8(r19)
 1808678:	30c00215 	stw	r3,8(r6)
 180867c:	98800317 	ldw	r2,12(r19)
 1808680:	30800315 	stw	r2,12(r6)
 1808684:	98c00417 	ldw	r3,16(r19)
 1808688:	30c00415 	stw	r3,16(r6)
 180868c:	98800117 	ldw	r2,4(r19)
 1808690:	28c00117 	ldw	r3,4(r5)
 1808694:	3027883a 	mov	r19,r6
 1808698:	10c4703a 	and	r2,r2,r3
 180869c:	30800115 	stw	r2,4(r6)
 18086a0:	003fe506 	br	1808638 <_fpadd_parts+0x1c8>
 18086a4:	1dc02616 	blt	r3,r23,1808740 <_fpadd_parts+0x2d0>
 18086a8:	0023883a 	mov	r17,zero
 18086ac:	182f883a 	mov	r23,r3
 18086b0:	0025883a 	mov	r18,zero
 18086b4:	003fa806 	br	1808558 <_fpadd_parts+0xe8>
 18086b8:	a827883a 	mov	r19,r21
 18086bc:	003fde06 	br	1808638 <_fpadd_parts+0x1c8>
 18086c0:	01800044 	movi	r6,1
 18086c4:	500497fa 	slli	r2,r10,31
 18086c8:	4808d07a 	srli	r4,r9,1
 18086cc:	518ad83a 	srl	r5,r10,r6
 18086d0:	a2000217 	ldw	r8,8(r20)
 18086d4:	1108b03a 	or	r4,r2,r4
 18086d8:	0007883a 	mov	r3,zero
 18086dc:	4984703a 	and	r2,r9,r6
 18086e0:	208cb03a 	or	r6,r4,r2
 18086e4:	28ceb03a 	or	r7,r5,r3
 18086e8:	42000044 	addi	r8,r8,1
 18086ec:	a027883a 	mov	r19,r20
 18086f0:	a1c00415 	stw	r7,16(r20)
 18086f4:	a2000215 	stw	r8,8(r20)
 18086f8:	a1800315 	stw	r6,12(r20)
 18086fc:	003fce06 	br	1808638 <_fpadd_parts+0x1c8>
 1808700:	8bc5c83a 	sub	r2,r17,r15
 1808704:	8889803a 	cmpltu	r4,r17,r2
 1808708:	9407c83a 	sub	r3,r18,r16
 180870c:	1909c83a 	sub	r4,r3,r4
 1808710:	100d883a 	mov	r6,r2
 1808714:	200f883a 	mov	r7,r4
 1808718:	003f9906 	br	1808580 <_fpadd_parts+0x110>
 180871c:	7c45883a 	add	r2,r15,r17
 1808720:	13c9803a 	cmpltu	r4,r2,r15
 1808724:	8487883a 	add	r3,r16,r18
 1808728:	20c9883a 	add	r4,r4,r3
 180872c:	a1400115 	stw	r5,4(r20)
 1808730:	a5c00215 	stw	r23,8(r20)
 1808734:	a0800315 	stw	r2,12(r20)
 1808738:	a1000415 	stw	r4,16(r20)
 180873c:	003fb606 	br	1808618 <_fpadd_parts+0x1a8>
 1808740:	001f883a 	mov	r15,zero
 1808744:	0021883a 	mov	r16,zero
 1808748:	003f8306 	br	1808558 <_fpadd_parts+0xe8>
 180874c:	018dc83a 	sub	r6,zero,r6
 1808750:	003f6706 	br	18084f0 <_fpadd_parts+0x80>
 1808754:	00bfff84 	movi	r2,-2
 1808758:	117faf36 	bltu	r2,r5,1808618 <_fpadd_parts+0x1a8>
 180875c:	003f9806 	br	18085c0 <_fpadd_parts+0x150>
 1808760:	0005883a 	mov	r2,zero
 1808764:	1189c83a 	sub	r4,r2,r6
 1808768:	1105803a 	cmpltu	r2,r2,r4
 180876c:	01cbc83a 	sub	r5,zero,r7
 1808770:	2885c83a 	sub	r2,r5,r2
 1808774:	01800044 	movi	r6,1
 1808778:	a1800115 	stw	r6,4(r20)
 180877c:	a5c00215 	stw	r23,8(r20)
 1808780:	a1000315 	stw	r4,12(r20)
 1808784:	a0800415 	stw	r2,16(r20)
 1808788:	003f8206 	br	1808594 <_fpadd_parts+0x124>
 180878c:	203f7226 	beq	r4,zero,1808558 <_fpadd_parts+0xe8>
 1808790:	35bff804 	addi	r22,r6,-32
 1808794:	b9af883a 	add	r23,r23,r6
 1808798:	b0003116 	blt	r22,zero,1808860 <_fpadd_parts+0x3f0>
 180879c:	959ad83a 	srl	r13,r18,r22
 18087a0:	001d883a 	mov	r14,zero
 18087a4:	000f883a 	mov	r7,zero
 18087a8:	01000044 	movi	r4,1
 18087ac:	0011883a 	mov	r8,zero
 18087b0:	b0002516 	blt	r22,zero,1808848 <_fpadd_parts+0x3d8>
 18087b4:	2594983a 	sll	r10,r4,r22
 18087b8:	0013883a 	mov	r9,zero
 18087bc:	00bfffc4 	movi	r2,-1
 18087c0:	4889883a 	add	r4,r9,r2
 18087c4:	508b883a 	add	r5,r10,r2
 18087c8:	224d803a 	cmpltu	r6,r4,r9
 18087cc:	314b883a 	add	r5,r6,r5
 18087d0:	8904703a 	and	r2,r17,r4
 18087d4:	9146703a 	and	r3,r18,r5
 18087d8:	10c4b03a 	or	r2,r2,r3
 18087dc:	10000226 	beq	r2,zero,18087e8 <_fpadd_parts+0x378>
 18087e0:	01c00044 	movi	r7,1
 18087e4:	0011883a 	mov	r8,zero
 18087e8:	69e2b03a 	or	r17,r13,r7
 18087ec:	7224b03a 	or	r18,r14,r8
 18087f0:	003f5906 	br	1808558 <_fpadd_parts+0xe8>
 18087f4:	8407883a 	add	r3,r16,r16
 18087f8:	008007c4 	movi	r2,31
 18087fc:	1185c83a 	sub	r2,r2,r6
 1808800:	1886983a 	sll	r3,r3,r2
 1808804:	7996d83a 	srl	r11,r15,r6
 1808808:	8198d83a 	srl	r12,r16,r6
 180880c:	1ad6b03a 	or	r11,r3,r11
 1808810:	003f3e06 	br	180850c <_fpadd_parts+0x9c>
 1808814:	2006d07a 	srli	r3,r4,1
 1808818:	008007c4 	movi	r2,31
 180881c:	1185c83a 	sub	r2,r2,r6
 1808820:	1890d83a 	srl	r8,r3,r2
 1808824:	218e983a 	sll	r7,r4,r6
 1808828:	003f3e06 	br	1808524 <_fpadd_parts+0xb4>
 180882c:	113f821e 	bne	r2,r4,1808638 <_fpadd_parts+0x1c8>
 1808830:	28c00117 	ldw	r3,4(r5)
 1808834:	98800117 	ldw	r2,4(r19)
 1808838:	10ff7f26 	beq	r2,r3,1808638 <_fpadd_parts+0x1c8>
 180883c:	04c06074 	movhi	r19,385
 1808840:	9cc2b304 	addi	r19,r19,2764
 1808844:	003f7c06 	br	1808638 <_fpadd_parts+0x1c8>
 1808848:	2006d07a 	srli	r3,r4,1
 180884c:	008007c4 	movi	r2,31
 1808850:	1185c83a 	sub	r2,r2,r6
 1808854:	1894d83a 	srl	r10,r3,r2
 1808858:	2192983a 	sll	r9,r4,r6
 180885c:	003fd706 	br	18087bc <_fpadd_parts+0x34c>
 1808860:	9487883a 	add	r3,r18,r18
 1808864:	008007c4 	movi	r2,31
 1808868:	1185c83a 	sub	r2,r2,r6
 180886c:	1886983a 	sll	r3,r3,r2
 1808870:	899ad83a 	srl	r13,r17,r6
 1808874:	919cd83a 	srl	r14,r18,r6
 1808878:	1b5ab03a 	or	r13,r3,r13
 180887c:	003fc906 	br	18087a4 <_fpadd_parts+0x334>

01808880 <__subdf3>:
 1808880:	deffea04 	addi	sp,sp,-88
 1808884:	dcc01415 	stw	r19,80(sp)
 1808888:	dcc00404 	addi	r19,sp,16
 180888c:	2011883a 	mov	r8,r4
 1808890:	2813883a 	mov	r9,r5
 1808894:	dc401315 	stw	r17,76(sp)
 1808898:	d809883a 	mov	r4,sp
 180889c:	980b883a 	mov	r5,r19
 18088a0:	dc400904 	addi	r17,sp,36
 18088a4:	dfc01515 	stw	ra,84(sp)
 18088a8:	da400115 	stw	r9,4(sp)
 18088ac:	d9c00315 	stw	r7,12(sp)
 18088b0:	da000015 	stw	r8,0(sp)
 18088b4:	d9800215 	stw	r6,8(sp)
 18088b8:	1809b140 	call	1809b14 <__unpack_d>
 18088bc:	d9000204 	addi	r4,sp,8
 18088c0:	880b883a 	mov	r5,r17
 18088c4:	1809b140 	call	1809b14 <__unpack_d>
 18088c8:	d8800a17 	ldw	r2,40(sp)
 18088cc:	880b883a 	mov	r5,r17
 18088d0:	9809883a 	mov	r4,r19
 18088d4:	d9800e04 	addi	r6,sp,56
 18088d8:	1080005c 	xori	r2,r2,1
 18088dc:	d8800a15 	stw	r2,40(sp)
 18088e0:	18084700 	call	1808470 <_fpadd_parts>
 18088e4:	1009883a 	mov	r4,r2
 18088e8:	18098000 	call	1809800 <__pack_d>
 18088ec:	dfc01517 	ldw	ra,84(sp)
 18088f0:	dcc01417 	ldw	r19,80(sp)
 18088f4:	dc401317 	ldw	r17,76(sp)
 18088f8:	dec01604 	addi	sp,sp,88
 18088fc:	f800283a 	ret

01808900 <__adddf3>:
 1808900:	deffea04 	addi	sp,sp,-88
 1808904:	dcc01415 	stw	r19,80(sp)
 1808908:	dcc00404 	addi	r19,sp,16
 180890c:	2011883a 	mov	r8,r4
 1808910:	2813883a 	mov	r9,r5
 1808914:	dc401315 	stw	r17,76(sp)
 1808918:	d809883a 	mov	r4,sp
 180891c:	980b883a 	mov	r5,r19
 1808920:	dc400904 	addi	r17,sp,36
 1808924:	dfc01515 	stw	ra,84(sp)
 1808928:	da400115 	stw	r9,4(sp)
 180892c:	d9c00315 	stw	r7,12(sp)
 1808930:	da000015 	stw	r8,0(sp)
 1808934:	d9800215 	stw	r6,8(sp)
 1808938:	1809b140 	call	1809b14 <__unpack_d>
 180893c:	d9000204 	addi	r4,sp,8
 1808940:	880b883a 	mov	r5,r17
 1808944:	1809b140 	call	1809b14 <__unpack_d>
 1808948:	d9800e04 	addi	r6,sp,56
 180894c:	9809883a 	mov	r4,r19
 1808950:	880b883a 	mov	r5,r17
 1808954:	18084700 	call	1808470 <_fpadd_parts>
 1808958:	1009883a 	mov	r4,r2
 180895c:	18098000 	call	1809800 <__pack_d>
 1808960:	dfc01517 	ldw	ra,84(sp)
 1808964:	dcc01417 	ldw	r19,80(sp)
 1808968:	dc401317 	ldw	r17,76(sp)
 180896c:	dec01604 	addi	sp,sp,88
 1808970:	f800283a 	ret

01808974 <__muldf3>:
 1808974:	deffe004 	addi	sp,sp,-128
 1808978:	dc401815 	stw	r17,96(sp)
 180897c:	dc400404 	addi	r17,sp,16
 1808980:	2011883a 	mov	r8,r4
 1808984:	2813883a 	mov	r9,r5
 1808988:	dc001715 	stw	r16,92(sp)
 180898c:	d809883a 	mov	r4,sp
 1808990:	880b883a 	mov	r5,r17
 1808994:	dc000904 	addi	r16,sp,36
 1808998:	dfc01f15 	stw	ra,124(sp)
 180899c:	da400115 	stw	r9,4(sp)
 18089a0:	d9c00315 	stw	r7,12(sp)
 18089a4:	da000015 	stw	r8,0(sp)
 18089a8:	d9800215 	stw	r6,8(sp)
 18089ac:	ddc01e15 	stw	r23,120(sp)
 18089b0:	dd801d15 	stw	r22,116(sp)
 18089b4:	dd401c15 	stw	r21,112(sp)
 18089b8:	dd001b15 	stw	r20,108(sp)
 18089bc:	dcc01a15 	stw	r19,104(sp)
 18089c0:	dc801915 	stw	r18,100(sp)
 18089c4:	1809b140 	call	1809b14 <__unpack_d>
 18089c8:	d9000204 	addi	r4,sp,8
 18089cc:	800b883a 	mov	r5,r16
 18089d0:	1809b140 	call	1809b14 <__unpack_d>
 18089d4:	d9000417 	ldw	r4,16(sp)
 18089d8:	00800044 	movi	r2,1
 18089dc:	1100102e 	bgeu	r2,r4,1808a20 <__muldf3+0xac>
 18089e0:	d8c00917 	ldw	r3,36(sp)
 18089e4:	10c0062e 	bgeu	r2,r3,1808a00 <__muldf3+0x8c>
 18089e8:	00800104 	movi	r2,4
 18089ec:	20800a26 	beq	r4,r2,1808a18 <__muldf3+0xa4>
 18089f0:	1880cc26 	beq	r3,r2,1808d24 <__muldf3+0x3b0>
 18089f4:	00800084 	movi	r2,2
 18089f8:	20800926 	beq	r4,r2,1808a20 <__muldf3+0xac>
 18089fc:	1880191e 	bne	r3,r2,1808a64 <__muldf3+0xf0>
 1808a00:	d8c00a17 	ldw	r3,40(sp)
 1808a04:	d8800517 	ldw	r2,20(sp)
 1808a08:	8009883a 	mov	r4,r16
 1808a0c:	10c4c03a 	cmpne	r2,r2,r3
 1808a10:	d8800a15 	stw	r2,40(sp)
 1808a14:	00000706 	br	1808a34 <__muldf3+0xc0>
 1808a18:	00800084 	movi	r2,2
 1808a1c:	1880c326 	beq	r3,r2,1808d2c <__muldf3+0x3b8>
 1808a20:	d8800517 	ldw	r2,20(sp)
 1808a24:	d8c00a17 	ldw	r3,40(sp)
 1808a28:	8809883a 	mov	r4,r17
 1808a2c:	10c4c03a 	cmpne	r2,r2,r3
 1808a30:	d8800515 	stw	r2,20(sp)
 1808a34:	18098000 	call	1809800 <__pack_d>
 1808a38:	dfc01f17 	ldw	ra,124(sp)
 1808a3c:	ddc01e17 	ldw	r23,120(sp)
 1808a40:	dd801d17 	ldw	r22,116(sp)
 1808a44:	dd401c17 	ldw	r21,112(sp)
 1808a48:	dd001b17 	ldw	r20,108(sp)
 1808a4c:	dcc01a17 	ldw	r19,104(sp)
 1808a50:	dc801917 	ldw	r18,100(sp)
 1808a54:	dc401817 	ldw	r17,96(sp)
 1808a58:	dc001717 	ldw	r16,92(sp)
 1808a5c:	dec02004 	addi	sp,sp,128
 1808a60:	f800283a 	ret
 1808a64:	dd800717 	ldw	r22,28(sp)
 1808a68:	dc800c17 	ldw	r18,48(sp)
 1808a6c:	002b883a 	mov	r21,zero
 1808a70:	0023883a 	mov	r17,zero
 1808a74:	a80b883a 	mov	r5,r21
 1808a78:	b00d883a 	mov	r6,r22
 1808a7c:	880f883a 	mov	r7,r17
 1808a80:	ddc00817 	ldw	r23,32(sp)
 1808a84:	dcc00d17 	ldw	r19,52(sp)
 1808a88:	9009883a 	mov	r4,r18
 1808a8c:	18096e80 	call	18096e8 <__muldi3>
 1808a90:	001b883a 	mov	r13,zero
 1808a94:	680f883a 	mov	r7,r13
 1808a98:	b009883a 	mov	r4,r22
 1808a9c:	000b883a 	mov	r5,zero
 1808aa0:	980d883a 	mov	r6,r19
 1808aa4:	b82d883a 	mov	r22,r23
 1808aa8:	002f883a 	mov	r23,zero
 1808aac:	db401615 	stw	r13,88(sp)
 1808ab0:	d8801315 	stw	r2,76(sp)
 1808ab4:	d8c01415 	stw	r3,80(sp)
 1808ab8:	dcc01515 	stw	r19,84(sp)
 1808abc:	18096e80 	call	18096e8 <__muldi3>
 1808ac0:	b00d883a 	mov	r6,r22
 1808ac4:	000b883a 	mov	r5,zero
 1808ac8:	9009883a 	mov	r4,r18
 1808acc:	b80f883a 	mov	r7,r23
 1808ad0:	1021883a 	mov	r16,r2
 1808ad4:	1823883a 	mov	r17,r3
 1808ad8:	18096e80 	call	18096e8 <__muldi3>
 1808adc:	8085883a 	add	r2,r16,r2
 1808ae0:	140d803a 	cmpltu	r6,r2,r16
 1808ae4:	88c7883a 	add	r3,r17,r3
 1808ae8:	30cd883a 	add	r6,r6,r3
 1808aec:	1029883a 	mov	r20,r2
 1808af0:	302b883a 	mov	r21,r6
 1808af4:	da801317 	ldw	r10,76(sp)
 1808af8:	dac01417 	ldw	r11,80(sp)
 1808afc:	db001517 	ldw	r12,84(sp)
 1808b00:	db401617 	ldw	r13,88(sp)
 1808b04:	3440612e 	bgeu	r6,r17,1808c8c <__muldf3+0x318>
 1808b08:	0009883a 	mov	r4,zero
 1808b0c:	5105883a 	add	r2,r10,r4
 1808b10:	128d803a 	cmpltu	r6,r2,r10
 1808b14:	5d07883a 	add	r3,r11,r20
 1808b18:	30cd883a 	add	r6,r6,r3
 1808b1c:	0021883a 	mov	r16,zero
 1808b20:	04400044 	movi	r17,1
 1808b24:	1025883a 	mov	r18,r2
 1808b28:	3027883a 	mov	r19,r6
 1808b2c:	32c06236 	bltu	r6,r11,1808cb8 <__muldf3+0x344>
 1808b30:	59807a26 	beq	r11,r6,1808d1c <__muldf3+0x3a8>
 1808b34:	680b883a 	mov	r5,r13
 1808b38:	b80f883a 	mov	r7,r23
 1808b3c:	6009883a 	mov	r4,r12
 1808b40:	b00d883a 	mov	r6,r22
 1808b44:	18096e80 	call	18096e8 <__muldi3>
 1808b48:	1009883a 	mov	r4,r2
 1808b4c:	000f883a 	mov	r7,zero
 1808b50:	1545883a 	add	r2,r2,r21
 1808b54:	1111803a 	cmpltu	r8,r2,r4
 1808b58:	19c7883a 	add	r3,r3,r7
 1808b5c:	40c7883a 	add	r3,r8,r3
 1808b60:	88cb883a 	add	r5,r17,r3
 1808b64:	d8c00617 	ldw	r3,24(sp)
 1808b68:	8089883a 	add	r4,r16,r2
 1808b6c:	d8800b17 	ldw	r2,44(sp)
 1808b70:	18c00104 	addi	r3,r3,4
 1808b74:	240d803a 	cmpltu	r6,r4,r16
 1808b78:	10c7883a 	add	r3,r2,r3
 1808b7c:	2013883a 	mov	r9,r4
 1808b80:	d8800a17 	ldw	r2,40(sp)
 1808b84:	d9000517 	ldw	r4,20(sp)
 1808b88:	314d883a 	add	r6,r6,r5
 1808b8c:	3015883a 	mov	r10,r6
 1808b90:	2088c03a 	cmpne	r4,r4,r2
 1808b94:	00880034 	movhi	r2,8192
 1808b98:	10bfffc4 	addi	r2,r2,-1
 1808b9c:	d9000f15 	stw	r4,60(sp)
 1808ba0:	d8c01015 	stw	r3,64(sp)
 1808ba4:	1180162e 	bgeu	r2,r6,1808c00 <__muldf3+0x28c>
 1808ba8:	1811883a 	mov	r8,r3
 1808bac:	101f883a 	mov	r15,r2
 1808bb0:	980497fa 	slli	r2,r19,31
 1808bb4:	9016d07a 	srli	r11,r18,1
 1808bb8:	500697fa 	slli	r3,r10,31
 1808bbc:	480cd07a 	srli	r6,r9,1
 1808bc0:	500ed07a 	srli	r7,r10,1
 1808bc4:	12d6b03a 	or	r11,r2,r11
 1808bc8:	00800044 	movi	r2,1
 1808bcc:	198cb03a 	or	r6,r3,r6
 1808bd0:	4888703a 	and	r4,r9,r2
 1808bd4:	9818d07a 	srli	r12,r19,1
 1808bd8:	001b883a 	mov	r13,zero
 1808bdc:	03a00034 	movhi	r14,32768
 1808be0:	3013883a 	mov	r9,r6
 1808be4:	3815883a 	mov	r10,r7
 1808be8:	4091883a 	add	r8,r8,r2
 1808bec:	20000226 	beq	r4,zero,1808bf8 <__muldf3+0x284>
 1808bf0:	5b64b03a 	or	r18,r11,r13
 1808bf4:	63a6b03a 	or	r19,r12,r14
 1808bf8:	7abfed36 	bltu	r15,r10,1808bb0 <__muldf3+0x23c>
 1808bfc:	da001015 	stw	r8,64(sp)
 1808c00:	00840034 	movhi	r2,4096
 1808c04:	10bfffc4 	addi	r2,r2,-1
 1808c08:	12801436 	bltu	r2,r10,1808c5c <__muldf3+0x2e8>
 1808c0c:	da001017 	ldw	r8,64(sp)
 1808c10:	101f883a 	mov	r15,r2
 1808c14:	4a45883a 	add	r2,r9,r9
 1808c18:	124d803a 	cmpltu	r6,r2,r9
 1808c1c:	5287883a 	add	r3,r10,r10
 1808c20:	9497883a 	add	r11,r18,r18
 1808c24:	5c8f803a 	cmpltu	r7,r11,r18
 1808c28:	9cd9883a 	add	r12,r19,r19
 1808c2c:	01000044 	movi	r4,1
 1808c30:	30cd883a 	add	r6,r6,r3
 1808c34:	3b0f883a 	add	r7,r7,r12
 1808c38:	423fffc4 	addi	r8,r8,-1
 1808c3c:	1013883a 	mov	r9,r2
 1808c40:	3015883a 	mov	r10,r6
 1808c44:	111ab03a 	or	r13,r2,r4
 1808c48:	98003016 	blt	r19,zero,1808d0c <__muldf3+0x398>
 1808c4c:	5825883a 	mov	r18,r11
 1808c50:	3827883a 	mov	r19,r7
 1808c54:	7abfef2e 	bgeu	r15,r10,1808c14 <__muldf3+0x2a0>
 1808c58:	da001015 	stw	r8,64(sp)
 1808c5c:	00803fc4 	movi	r2,255
 1808c60:	488e703a 	and	r7,r9,r2
 1808c64:	00802004 	movi	r2,128
 1808c68:	0007883a 	mov	r3,zero
 1808c6c:	0011883a 	mov	r8,zero
 1808c70:	38801826 	beq	r7,r2,1808cd4 <__muldf3+0x360>
 1808c74:	008000c4 	movi	r2,3
 1808c78:	d9000e04 	addi	r4,sp,56
 1808c7c:	da801215 	stw	r10,72(sp)
 1808c80:	d8800e15 	stw	r2,56(sp)
 1808c84:	da401115 	stw	r9,68(sp)
 1808c88:	003f6a06 	br	1808a34 <__muldf3+0xc0>
 1808c8c:	89802126 	beq	r17,r6,1808d14 <__muldf3+0x3a0>
 1808c90:	0009883a 	mov	r4,zero
 1808c94:	5105883a 	add	r2,r10,r4
 1808c98:	128d803a 	cmpltu	r6,r2,r10
 1808c9c:	5d07883a 	add	r3,r11,r20
 1808ca0:	30cd883a 	add	r6,r6,r3
 1808ca4:	0021883a 	mov	r16,zero
 1808ca8:	0023883a 	mov	r17,zero
 1808cac:	1025883a 	mov	r18,r2
 1808cb0:	3027883a 	mov	r19,r6
 1808cb4:	32ff9e2e 	bgeu	r6,r11,1808b30 <__muldf3+0x1bc>
 1808cb8:	00800044 	movi	r2,1
 1808cbc:	8089883a 	add	r4,r16,r2
 1808cc0:	240d803a 	cmpltu	r6,r4,r16
 1808cc4:	344d883a 	add	r6,r6,r17
 1808cc8:	2021883a 	mov	r16,r4
 1808ccc:	3023883a 	mov	r17,r6
 1808cd0:	003f9806 	br	1808b34 <__muldf3+0x1c0>
 1808cd4:	403fe71e 	bne	r8,zero,1808c74 <__muldf3+0x300>
 1808cd8:	01004004 	movi	r4,256
 1808cdc:	4904703a 	and	r2,r9,r4
 1808ce0:	10c4b03a 	or	r2,r2,r3
 1808ce4:	103fe31e 	bne	r2,zero,1808c74 <__muldf3+0x300>
 1808ce8:	94c4b03a 	or	r2,r18,r19
 1808cec:	103fe126 	beq	r2,zero,1808c74 <__muldf3+0x300>
 1808cf0:	49c5883a 	add	r2,r9,r7
 1808cf4:	1251803a 	cmpltu	r8,r2,r9
 1808cf8:	4291883a 	add	r8,r8,r10
 1808cfc:	013fc004 	movi	r4,-256
 1808d00:	1112703a 	and	r9,r2,r4
 1808d04:	4015883a 	mov	r10,r8
 1808d08:	003fda06 	br	1808c74 <__muldf3+0x300>
 1808d0c:	6813883a 	mov	r9,r13
 1808d10:	003fce06 	br	1808c4c <__muldf3+0x2d8>
 1808d14:	143f7c36 	bltu	r2,r16,1808b08 <__muldf3+0x194>
 1808d18:	003fdd06 	br	1808c90 <__muldf3+0x31c>
 1808d1c:	12bf852e 	bgeu	r2,r10,1808b34 <__muldf3+0x1c0>
 1808d20:	003fe506 	br	1808cb8 <__muldf3+0x344>
 1808d24:	00800084 	movi	r2,2
 1808d28:	20bf351e 	bne	r4,r2,1808a00 <__muldf3+0x8c>
 1808d2c:	01006074 	movhi	r4,385
 1808d30:	2102b304 	addi	r4,r4,2764
 1808d34:	003f3f06 	br	1808a34 <__muldf3+0xc0>

01808d38 <__divdf3>:
 1808d38:	deffed04 	addi	sp,sp,-76
 1808d3c:	dcc01115 	stw	r19,68(sp)
 1808d40:	dcc00404 	addi	r19,sp,16
 1808d44:	2011883a 	mov	r8,r4
 1808d48:	2813883a 	mov	r9,r5
 1808d4c:	dc000e15 	stw	r16,56(sp)
 1808d50:	d809883a 	mov	r4,sp
 1808d54:	980b883a 	mov	r5,r19
 1808d58:	dc000904 	addi	r16,sp,36
 1808d5c:	dfc01215 	stw	ra,72(sp)
 1808d60:	da400115 	stw	r9,4(sp)
 1808d64:	d9c00315 	stw	r7,12(sp)
 1808d68:	da000015 	stw	r8,0(sp)
 1808d6c:	d9800215 	stw	r6,8(sp)
 1808d70:	dc801015 	stw	r18,64(sp)
 1808d74:	dc400f15 	stw	r17,60(sp)
 1808d78:	1809b140 	call	1809b14 <__unpack_d>
 1808d7c:	d9000204 	addi	r4,sp,8
 1808d80:	800b883a 	mov	r5,r16
 1808d84:	1809b140 	call	1809b14 <__unpack_d>
 1808d88:	d9000417 	ldw	r4,16(sp)
 1808d8c:	00800044 	movi	r2,1
 1808d90:	11000b2e 	bgeu	r2,r4,1808dc0 <__divdf3+0x88>
 1808d94:	d9400917 	ldw	r5,36(sp)
 1808d98:	1140762e 	bgeu	r2,r5,1808f74 <__divdf3+0x23c>
 1808d9c:	d8800517 	ldw	r2,20(sp)
 1808da0:	d8c00a17 	ldw	r3,40(sp)
 1808da4:	01800104 	movi	r6,4
 1808da8:	10c4f03a 	xor	r2,r2,r3
 1808dac:	d8800515 	stw	r2,20(sp)
 1808db0:	21800226 	beq	r4,r6,1808dbc <__divdf3+0x84>
 1808db4:	00800084 	movi	r2,2
 1808db8:	2080141e 	bne	r4,r2,1808e0c <__divdf3+0xd4>
 1808dbc:	29000926 	beq	r5,r4,1808de4 <__divdf3+0xac>
 1808dc0:	9809883a 	mov	r4,r19
 1808dc4:	18098000 	call	1809800 <__pack_d>
 1808dc8:	dfc01217 	ldw	ra,72(sp)
 1808dcc:	dcc01117 	ldw	r19,68(sp)
 1808dd0:	dc801017 	ldw	r18,64(sp)
 1808dd4:	dc400f17 	ldw	r17,60(sp)
 1808dd8:	dc000e17 	ldw	r16,56(sp)
 1808ddc:	dec01304 	addi	sp,sp,76
 1808de0:	f800283a 	ret
 1808de4:	01006074 	movhi	r4,385
 1808de8:	2102b304 	addi	r4,r4,2764
 1808dec:	18098000 	call	1809800 <__pack_d>
 1808df0:	dfc01217 	ldw	ra,72(sp)
 1808df4:	dcc01117 	ldw	r19,68(sp)
 1808df8:	dc801017 	ldw	r18,64(sp)
 1808dfc:	dc400f17 	ldw	r17,60(sp)
 1808e00:	dc000e17 	ldw	r16,56(sp)
 1808e04:	dec01304 	addi	sp,sp,76
 1808e08:	f800283a 	ret
 1808e0c:	29805b26 	beq	r5,r6,1808f7c <__divdf3+0x244>
 1808e10:	28802d26 	beq	r5,r2,1808ec8 <__divdf3+0x190>
 1808e14:	d8c00617 	ldw	r3,24(sp)
 1808e18:	d8800b17 	ldw	r2,44(sp)
 1808e1c:	d9c00817 	ldw	r7,32(sp)
 1808e20:	dc400d17 	ldw	r17,52(sp)
 1808e24:	188bc83a 	sub	r5,r3,r2
 1808e28:	d9800717 	ldw	r6,28(sp)
 1808e2c:	dc000c17 	ldw	r16,48(sp)
 1808e30:	d9400615 	stw	r5,24(sp)
 1808e34:	3c403836 	bltu	r7,r17,1808f18 <__divdf3+0x1e0>
 1808e38:	89c03626 	beq	r17,r7,1808f14 <__divdf3+0x1dc>
 1808e3c:	0015883a 	mov	r10,zero
 1808e40:	001d883a 	mov	r14,zero
 1808e44:	02c40034 	movhi	r11,4096
 1808e48:	001f883a 	mov	r15,zero
 1808e4c:	003f883a 	mov	ra,zero
 1808e50:	04800f44 	movi	r18,61
 1808e54:	00000f06 	br	1808e94 <__divdf3+0x15c>
 1808e58:	601d883a 	mov	r14,r12
 1808e5c:	681f883a 	mov	r15,r13
 1808e60:	400d883a 	mov	r6,r8
 1808e64:	100f883a 	mov	r7,r2
 1808e68:	3191883a 	add	r8,r6,r6
 1808e6c:	5808d07a 	srli	r4,r11,1
 1808e70:	4185803a 	cmpltu	r2,r8,r6
 1808e74:	39d3883a 	add	r9,r7,r7
 1808e78:	28c6b03a 	or	r3,r5,r3
 1808e7c:	1245883a 	add	r2,r2,r9
 1808e80:	1815883a 	mov	r10,r3
 1808e84:	2017883a 	mov	r11,r4
 1808e88:	400d883a 	mov	r6,r8
 1808e8c:	100f883a 	mov	r7,r2
 1808e90:	fc801726 	beq	ra,r18,1808ef0 <__divdf3+0x1b8>
 1808e94:	580a97fa 	slli	r5,r11,31
 1808e98:	5006d07a 	srli	r3,r10,1
 1808e9c:	ffc00044 	addi	ra,ra,1
 1808ea0:	3c7ff136 	bltu	r7,r17,1808e68 <__divdf3+0x130>
 1808ea4:	3411c83a 	sub	r8,r6,r16
 1808ea8:	3205803a 	cmpltu	r2,r6,r8
 1808eac:	3c53c83a 	sub	r9,r7,r17
 1808eb0:	7298b03a 	or	r12,r14,r10
 1808eb4:	7adab03a 	or	r13,r15,r11
 1808eb8:	4885c83a 	sub	r2,r9,r2
 1808ebc:	89ffe61e 	bne	r17,r7,1808e58 <__divdf3+0x120>
 1808ec0:	343fe936 	bltu	r6,r16,1808e68 <__divdf3+0x130>
 1808ec4:	003fe406 	br	1808e58 <__divdf3+0x120>
 1808ec8:	9809883a 	mov	r4,r19
 1808ecc:	d9800415 	stw	r6,16(sp)
 1808ed0:	18098000 	call	1809800 <__pack_d>
 1808ed4:	dfc01217 	ldw	ra,72(sp)
 1808ed8:	dcc01117 	ldw	r19,68(sp)
 1808edc:	dc801017 	ldw	r18,64(sp)
 1808ee0:	dc400f17 	ldw	r17,60(sp)
 1808ee4:	dc000e17 	ldw	r16,56(sp)
 1808ee8:	dec01304 	addi	sp,sp,76
 1808eec:	f800283a 	ret
 1808ef0:	00803fc4 	movi	r2,255
 1808ef4:	7090703a 	and	r8,r14,r2
 1808ef8:	00802004 	movi	r2,128
 1808efc:	0007883a 	mov	r3,zero
 1808f00:	0013883a 	mov	r9,zero
 1808f04:	40800d26 	beq	r8,r2,1808f3c <__divdf3+0x204>
 1808f08:	dbc00815 	stw	r15,32(sp)
 1808f0c:	db800715 	stw	r14,28(sp)
 1808f10:	003fab06 	br	1808dc0 <__divdf3+0x88>
 1808f14:	343fc92e 	bgeu	r6,r16,1808e3c <__divdf3+0x104>
 1808f18:	3185883a 	add	r2,r6,r6
 1808f1c:	1189803a 	cmpltu	r4,r2,r6
 1808f20:	39c7883a 	add	r3,r7,r7
 1808f24:	20c9883a 	add	r4,r4,r3
 1808f28:	297fffc4 	addi	r5,r5,-1
 1808f2c:	100d883a 	mov	r6,r2
 1808f30:	200f883a 	mov	r7,r4
 1808f34:	d9400615 	stw	r5,24(sp)
 1808f38:	003fc006 	br	1808e3c <__divdf3+0x104>
 1808f3c:	483ff21e 	bne	r9,zero,1808f08 <__divdf3+0x1d0>
 1808f40:	01004004 	movi	r4,256
 1808f44:	7104703a 	and	r2,r14,r4
 1808f48:	10c4b03a 	or	r2,r2,r3
 1808f4c:	103fee1e 	bne	r2,zero,1808f08 <__divdf3+0x1d0>
 1808f50:	31c4b03a 	or	r2,r6,r7
 1808f54:	103fec26 	beq	r2,zero,1808f08 <__divdf3+0x1d0>
 1808f58:	7205883a 	add	r2,r14,r8
 1808f5c:	1391803a 	cmpltu	r8,r2,r14
 1808f60:	43d1883a 	add	r8,r8,r15
 1808f64:	013fc004 	movi	r4,-256
 1808f68:	111c703a 	and	r14,r2,r4
 1808f6c:	401f883a 	mov	r15,r8
 1808f70:	003fe506 	br	1808f08 <__divdf3+0x1d0>
 1808f74:	8009883a 	mov	r4,r16
 1808f78:	003f9206 	br	1808dc4 <__divdf3+0x8c>
 1808f7c:	9809883a 	mov	r4,r19
 1808f80:	d8000715 	stw	zero,28(sp)
 1808f84:	d8000815 	stw	zero,32(sp)
 1808f88:	d8000615 	stw	zero,24(sp)
 1808f8c:	003f8d06 	br	1808dc4 <__divdf3+0x8c>

01808f90 <__eqdf2>:
 1808f90:	deffef04 	addi	sp,sp,-68
 1808f94:	dc400f15 	stw	r17,60(sp)
 1808f98:	dc400404 	addi	r17,sp,16
 1808f9c:	2005883a 	mov	r2,r4
 1808fa0:	2807883a 	mov	r3,r5
 1808fa4:	dc000e15 	stw	r16,56(sp)
 1808fa8:	d809883a 	mov	r4,sp
 1808fac:	880b883a 	mov	r5,r17
 1808fb0:	dc000904 	addi	r16,sp,36
 1808fb4:	d8c00115 	stw	r3,4(sp)
 1808fb8:	d8800015 	stw	r2,0(sp)
 1808fbc:	d9800215 	stw	r6,8(sp)
 1808fc0:	dfc01015 	stw	ra,64(sp)
 1808fc4:	d9c00315 	stw	r7,12(sp)
 1808fc8:	1809b140 	call	1809b14 <__unpack_d>
 1808fcc:	d9000204 	addi	r4,sp,8
 1808fd0:	800b883a 	mov	r5,r16
 1808fd4:	1809b140 	call	1809b14 <__unpack_d>
 1808fd8:	d8800417 	ldw	r2,16(sp)
 1808fdc:	00c00044 	movi	r3,1
 1808fe0:	180d883a 	mov	r6,r3
 1808fe4:	1880062e 	bgeu	r3,r2,1809000 <__eqdf2+0x70>
 1808fe8:	d8800917 	ldw	r2,36(sp)
 1808fec:	8809883a 	mov	r4,r17
 1808ff0:	800b883a 	mov	r5,r16
 1808ff4:	1880022e 	bgeu	r3,r2,1809000 <__eqdf2+0x70>
 1808ff8:	1809c4c0 	call	1809c4c <__fpcmp_parts_d>
 1808ffc:	100d883a 	mov	r6,r2
 1809000:	3005883a 	mov	r2,r6
 1809004:	dfc01017 	ldw	ra,64(sp)
 1809008:	dc400f17 	ldw	r17,60(sp)
 180900c:	dc000e17 	ldw	r16,56(sp)
 1809010:	dec01104 	addi	sp,sp,68
 1809014:	f800283a 	ret

01809018 <__nedf2>:
 1809018:	deffef04 	addi	sp,sp,-68
 180901c:	dc400f15 	stw	r17,60(sp)
 1809020:	dc400404 	addi	r17,sp,16
 1809024:	2005883a 	mov	r2,r4
 1809028:	2807883a 	mov	r3,r5
 180902c:	dc000e15 	stw	r16,56(sp)
 1809030:	d809883a 	mov	r4,sp
 1809034:	880b883a 	mov	r5,r17
 1809038:	dc000904 	addi	r16,sp,36
 180903c:	d8c00115 	stw	r3,4(sp)
 1809040:	d8800015 	stw	r2,0(sp)
 1809044:	d9800215 	stw	r6,8(sp)
 1809048:	dfc01015 	stw	ra,64(sp)
 180904c:	d9c00315 	stw	r7,12(sp)
 1809050:	1809b140 	call	1809b14 <__unpack_d>
 1809054:	d9000204 	addi	r4,sp,8
 1809058:	800b883a 	mov	r5,r16
 180905c:	1809b140 	call	1809b14 <__unpack_d>
 1809060:	d8800417 	ldw	r2,16(sp)
 1809064:	00c00044 	movi	r3,1
 1809068:	180d883a 	mov	r6,r3
 180906c:	1880062e 	bgeu	r3,r2,1809088 <__nedf2+0x70>
 1809070:	d8800917 	ldw	r2,36(sp)
 1809074:	8809883a 	mov	r4,r17
 1809078:	800b883a 	mov	r5,r16
 180907c:	1880022e 	bgeu	r3,r2,1809088 <__nedf2+0x70>
 1809080:	1809c4c0 	call	1809c4c <__fpcmp_parts_d>
 1809084:	100d883a 	mov	r6,r2
 1809088:	3005883a 	mov	r2,r6
 180908c:	dfc01017 	ldw	ra,64(sp)
 1809090:	dc400f17 	ldw	r17,60(sp)
 1809094:	dc000e17 	ldw	r16,56(sp)
 1809098:	dec01104 	addi	sp,sp,68
 180909c:	f800283a 	ret

018090a0 <__gtdf2>:
 18090a0:	deffef04 	addi	sp,sp,-68
 18090a4:	dc400f15 	stw	r17,60(sp)
 18090a8:	dc400404 	addi	r17,sp,16
 18090ac:	2005883a 	mov	r2,r4
 18090b0:	2807883a 	mov	r3,r5
 18090b4:	dc000e15 	stw	r16,56(sp)
 18090b8:	d809883a 	mov	r4,sp
 18090bc:	880b883a 	mov	r5,r17
 18090c0:	dc000904 	addi	r16,sp,36
 18090c4:	d8c00115 	stw	r3,4(sp)
 18090c8:	d8800015 	stw	r2,0(sp)
 18090cc:	d9800215 	stw	r6,8(sp)
 18090d0:	dfc01015 	stw	ra,64(sp)
 18090d4:	d9c00315 	stw	r7,12(sp)
 18090d8:	1809b140 	call	1809b14 <__unpack_d>
 18090dc:	d9000204 	addi	r4,sp,8
 18090e0:	800b883a 	mov	r5,r16
 18090e4:	1809b140 	call	1809b14 <__unpack_d>
 18090e8:	d8800417 	ldw	r2,16(sp)
 18090ec:	00c00044 	movi	r3,1
 18090f0:	01bfffc4 	movi	r6,-1
 18090f4:	1880062e 	bgeu	r3,r2,1809110 <__gtdf2+0x70>
 18090f8:	d8800917 	ldw	r2,36(sp)
 18090fc:	8809883a 	mov	r4,r17
 1809100:	800b883a 	mov	r5,r16
 1809104:	1880022e 	bgeu	r3,r2,1809110 <__gtdf2+0x70>
 1809108:	1809c4c0 	call	1809c4c <__fpcmp_parts_d>
 180910c:	100d883a 	mov	r6,r2
 1809110:	3005883a 	mov	r2,r6
 1809114:	dfc01017 	ldw	ra,64(sp)
 1809118:	dc400f17 	ldw	r17,60(sp)
 180911c:	dc000e17 	ldw	r16,56(sp)
 1809120:	dec01104 	addi	sp,sp,68
 1809124:	f800283a 	ret

01809128 <__gedf2>:
 1809128:	deffef04 	addi	sp,sp,-68
 180912c:	dc400f15 	stw	r17,60(sp)
 1809130:	dc400404 	addi	r17,sp,16
 1809134:	2005883a 	mov	r2,r4
 1809138:	2807883a 	mov	r3,r5
 180913c:	dc000e15 	stw	r16,56(sp)
 1809140:	d809883a 	mov	r4,sp
 1809144:	880b883a 	mov	r5,r17
 1809148:	dc000904 	addi	r16,sp,36
 180914c:	d8c00115 	stw	r3,4(sp)
 1809150:	d8800015 	stw	r2,0(sp)
 1809154:	d9800215 	stw	r6,8(sp)
 1809158:	dfc01015 	stw	ra,64(sp)
 180915c:	d9c00315 	stw	r7,12(sp)
 1809160:	1809b140 	call	1809b14 <__unpack_d>
 1809164:	d9000204 	addi	r4,sp,8
 1809168:	800b883a 	mov	r5,r16
 180916c:	1809b140 	call	1809b14 <__unpack_d>
 1809170:	d8800417 	ldw	r2,16(sp)
 1809174:	00c00044 	movi	r3,1
 1809178:	01bfffc4 	movi	r6,-1
 180917c:	1880062e 	bgeu	r3,r2,1809198 <__gedf2+0x70>
 1809180:	d8800917 	ldw	r2,36(sp)
 1809184:	8809883a 	mov	r4,r17
 1809188:	800b883a 	mov	r5,r16
 180918c:	1880022e 	bgeu	r3,r2,1809198 <__gedf2+0x70>
 1809190:	1809c4c0 	call	1809c4c <__fpcmp_parts_d>
 1809194:	100d883a 	mov	r6,r2
 1809198:	3005883a 	mov	r2,r6
 180919c:	dfc01017 	ldw	ra,64(sp)
 18091a0:	dc400f17 	ldw	r17,60(sp)
 18091a4:	dc000e17 	ldw	r16,56(sp)
 18091a8:	dec01104 	addi	sp,sp,68
 18091ac:	f800283a 	ret

018091b0 <__ltdf2>:
 18091b0:	deffef04 	addi	sp,sp,-68
 18091b4:	dc400f15 	stw	r17,60(sp)
 18091b8:	dc400404 	addi	r17,sp,16
 18091bc:	2005883a 	mov	r2,r4
 18091c0:	2807883a 	mov	r3,r5
 18091c4:	dc000e15 	stw	r16,56(sp)
 18091c8:	d809883a 	mov	r4,sp
 18091cc:	880b883a 	mov	r5,r17
 18091d0:	dc000904 	addi	r16,sp,36
 18091d4:	d8c00115 	stw	r3,4(sp)
 18091d8:	d8800015 	stw	r2,0(sp)
 18091dc:	d9800215 	stw	r6,8(sp)
 18091e0:	dfc01015 	stw	ra,64(sp)
 18091e4:	d9c00315 	stw	r7,12(sp)
 18091e8:	1809b140 	call	1809b14 <__unpack_d>
 18091ec:	d9000204 	addi	r4,sp,8
 18091f0:	800b883a 	mov	r5,r16
 18091f4:	1809b140 	call	1809b14 <__unpack_d>
 18091f8:	d8800417 	ldw	r2,16(sp)
 18091fc:	00c00044 	movi	r3,1
 1809200:	180d883a 	mov	r6,r3
 1809204:	1880062e 	bgeu	r3,r2,1809220 <__ltdf2+0x70>
 1809208:	d8800917 	ldw	r2,36(sp)
 180920c:	8809883a 	mov	r4,r17
 1809210:	800b883a 	mov	r5,r16
 1809214:	1880022e 	bgeu	r3,r2,1809220 <__ltdf2+0x70>
 1809218:	1809c4c0 	call	1809c4c <__fpcmp_parts_d>
 180921c:	100d883a 	mov	r6,r2
 1809220:	3005883a 	mov	r2,r6
 1809224:	dfc01017 	ldw	ra,64(sp)
 1809228:	dc400f17 	ldw	r17,60(sp)
 180922c:	dc000e17 	ldw	r16,56(sp)
 1809230:	dec01104 	addi	sp,sp,68
 1809234:	f800283a 	ret

01809238 <__floatsidf>:
 1809238:	2006d7fa 	srli	r3,r4,31
 180923c:	defff604 	addi	sp,sp,-40
 1809240:	008000c4 	movi	r2,3
 1809244:	dfc00915 	stw	ra,36(sp)
 1809248:	dcc00815 	stw	r19,32(sp)
 180924c:	dc800715 	stw	r18,28(sp)
 1809250:	dc400615 	stw	r17,24(sp)
 1809254:	dc000515 	stw	r16,20(sp)
 1809258:	d8800015 	stw	r2,0(sp)
 180925c:	d8c00115 	stw	r3,4(sp)
 1809260:	20000f1e 	bne	r4,zero,18092a0 <__floatsidf+0x68>
 1809264:	00800084 	movi	r2,2
 1809268:	d8800015 	stw	r2,0(sp)
 180926c:	d809883a 	mov	r4,sp
 1809270:	18098000 	call	1809800 <__pack_d>
 1809274:	1009883a 	mov	r4,r2
 1809278:	180b883a 	mov	r5,r3
 180927c:	2005883a 	mov	r2,r4
 1809280:	2807883a 	mov	r3,r5
 1809284:	dfc00917 	ldw	ra,36(sp)
 1809288:	dcc00817 	ldw	r19,32(sp)
 180928c:	dc800717 	ldw	r18,28(sp)
 1809290:	dc400617 	ldw	r17,24(sp)
 1809294:	dc000517 	ldw	r16,20(sp)
 1809298:	dec00a04 	addi	sp,sp,40
 180929c:	f800283a 	ret
 18092a0:	00800f04 	movi	r2,60
 18092a4:	1807003a 	cmpeq	r3,r3,zero
 18092a8:	d8800215 	stw	r2,8(sp)
 18092ac:	18001126 	beq	r3,zero,18092f4 <__floatsidf+0xbc>
 18092b0:	0027883a 	mov	r19,zero
 18092b4:	2025883a 	mov	r18,r4
 18092b8:	d9000315 	stw	r4,12(sp)
 18092bc:	dcc00415 	stw	r19,16(sp)
 18092c0:	18097800 	call	1809780 <__clzsi2>
 18092c4:	11000744 	addi	r4,r2,29
 18092c8:	013fe80e 	bge	zero,r4,180926c <__floatsidf+0x34>
 18092cc:	10bfff44 	addi	r2,r2,-3
 18092d0:	10000c16 	blt	r2,zero,1809304 <__floatsidf+0xcc>
 18092d4:	90a2983a 	sll	r17,r18,r2
 18092d8:	0021883a 	mov	r16,zero
 18092dc:	d8800217 	ldw	r2,8(sp)
 18092e0:	dc400415 	stw	r17,16(sp)
 18092e4:	dc000315 	stw	r16,12(sp)
 18092e8:	1105c83a 	sub	r2,r2,r4
 18092ec:	d8800215 	stw	r2,8(sp)
 18092f0:	003fde06 	br	180926c <__floatsidf+0x34>
 18092f4:	00a00034 	movhi	r2,32768
 18092f8:	20800a26 	beq	r4,r2,1809324 <__floatsidf+0xec>
 18092fc:	0109c83a 	sub	r4,zero,r4
 1809300:	003feb06 	br	18092b0 <__floatsidf+0x78>
 1809304:	9006d07a 	srli	r3,r18,1
 1809308:	008007c4 	movi	r2,31
 180930c:	1105c83a 	sub	r2,r2,r4
 1809310:	1886d83a 	srl	r3,r3,r2
 1809314:	9922983a 	sll	r17,r19,r4
 1809318:	9120983a 	sll	r16,r18,r4
 180931c:	1c62b03a 	or	r17,r3,r17
 1809320:	003fee06 	br	18092dc <__floatsidf+0xa4>
 1809324:	0009883a 	mov	r4,zero
 1809328:	01707834 	movhi	r5,49632
 180932c:	003fd306 	br	180927c <__floatsidf+0x44>

01809330 <__fixdfsi>:
 1809330:	defff804 	addi	sp,sp,-32
 1809334:	2005883a 	mov	r2,r4
 1809338:	2807883a 	mov	r3,r5
 180933c:	d809883a 	mov	r4,sp
 1809340:	d9400204 	addi	r5,sp,8
 1809344:	d8c00115 	stw	r3,4(sp)
 1809348:	d8800015 	stw	r2,0(sp)
 180934c:	dfc00715 	stw	ra,28(sp)
 1809350:	1809b140 	call	1809b14 <__unpack_d>
 1809354:	d8c00217 	ldw	r3,8(sp)
 1809358:	00800084 	movi	r2,2
 180935c:	1880051e 	bne	r3,r2,1809374 <__fixdfsi+0x44>
 1809360:	0007883a 	mov	r3,zero
 1809364:	1805883a 	mov	r2,r3
 1809368:	dfc00717 	ldw	ra,28(sp)
 180936c:	dec00804 	addi	sp,sp,32
 1809370:	f800283a 	ret
 1809374:	00800044 	movi	r2,1
 1809378:	10fff92e 	bgeu	r2,r3,1809360 <__fixdfsi+0x30>
 180937c:	00800104 	movi	r2,4
 1809380:	18800426 	beq	r3,r2,1809394 <__fixdfsi+0x64>
 1809384:	d8c00417 	ldw	r3,16(sp)
 1809388:	183ff516 	blt	r3,zero,1809360 <__fixdfsi+0x30>
 180938c:	00800784 	movi	r2,30
 1809390:	10c0080e 	bge	r2,r3,18093b4 <__fixdfsi+0x84>
 1809394:	d8800317 	ldw	r2,12(sp)
 1809398:	1000121e 	bne	r2,zero,18093e4 <__fixdfsi+0xb4>
 180939c:	00e00034 	movhi	r3,32768
 18093a0:	18ffffc4 	addi	r3,r3,-1
 18093a4:	1805883a 	mov	r2,r3
 18093a8:	dfc00717 	ldw	ra,28(sp)
 18093ac:	dec00804 	addi	sp,sp,32
 18093b0:	f800283a 	ret
 18093b4:	00800f04 	movi	r2,60
 18093b8:	10d1c83a 	sub	r8,r2,r3
 18093bc:	40bff804 	addi	r2,r8,-32
 18093c0:	d9800517 	ldw	r6,20(sp)
 18093c4:	d9c00617 	ldw	r7,24(sp)
 18093c8:	10000816 	blt	r2,zero,18093ec <__fixdfsi+0xbc>
 18093cc:	3888d83a 	srl	r4,r7,r2
 18093d0:	d8800317 	ldw	r2,12(sp)
 18093d4:	2007883a 	mov	r3,r4
 18093d8:	103fe226 	beq	r2,zero,1809364 <__fixdfsi+0x34>
 18093dc:	0107c83a 	sub	r3,zero,r4
 18093e0:	003fe006 	br	1809364 <__fixdfsi+0x34>
 18093e4:	00e00034 	movhi	r3,32768
 18093e8:	003fde06 	br	1809364 <__fixdfsi+0x34>
 18093ec:	39c7883a 	add	r3,r7,r7
 18093f0:	008007c4 	movi	r2,31
 18093f4:	1205c83a 	sub	r2,r2,r8
 18093f8:	1886983a 	sll	r3,r3,r2
 18093fc:	3208d83a 	srl	r4,r6,r8
 1809400:	1908b03a 	or	r4,r3,r4
 1809404:	003ff206 	br	18093d0 <__fixdfsi+0xa0>

01809408 <__floatunsidf>:
 1809408:	defff204 	addi	sp,sp,-56
 180940c:	dfc00d15 	stw	ra,52(sp)
 1809410:	ddc00c15 	stw	r23,48(sp)
 1809414:	dd800b15 	stw	r22,44(sp)
 1809418:	dd400a15 	stw	r21,40(sp)
 180941c:	dd000915 	stw	r20,36(sp)
 1809420:	dcc00815 	stw	r19,32(sp)
 1809424:	dc800715 	stw	r18,28(sp)
 1809428:	dc400615 	stw	r17,24(sp)
 180942c:	dc000515 	stw	r16,20(sp)
 1809430:	d8000115 	stw	zero,4(sp)
 1809434:	20000f1e 	bne	r4,zero,1809474 <__floatunsidf+0x6c>
 1809438:	00800084 	movi	r2,2
 180943c:	d8800015 	stw	r2,0(sp)
 1809440:	d809883a 	mov	r4,sp
 1809444:	18098000 	call	1809800 <__pack_d>
 1809448:	dfc00d17 	ldw	ra,52(sp)
 180944c:	ddc00c17 	ldw	r23,48(sp)
 1809450:	dd800b17 	ldw	r22,44(sp)
 1809454:	dd400a17 	ldw	r21,40(sp)
 1809458:	dd000917 	ldw	r20,36(sp)
 180945c:	dcc00817 	ldw	r19,32(sp)
 1809460:	dc800717 	ldw	r18,28(sp)
 1809464:	dc400617 	ldw	r17,24(sp)
 1809468:	dc000517 	ldw	r16,20(sp)
 180946c:	dec00e04 	addi	sp,sp,56
 1809470:	f800283a 	ret
 1809474:	008000c4 	movi	r2,3
 1809478:	00c00f04 	movi	r3,60
 180947c:	002f883a 	mov	r23,zero
 1809480:	202d883a 	mov	r22,r4
 1809484:	d8800015 	stw	r2,0(sp)
 1809488:	d8c00215 	stw	r3,8(sp)
 180948c:	d9000315 	stw	r4,12(sp)
 1809490:	ddc00415 	stw	r23,16(sp)
 1809494:	18097800 	call	1809780 <__clzsi2>
 1809498:	12400744 	addi	r9,r2,29
 180949c:	48000b16 	blt	r9,zero,18094cc <__floatunsidf+0xc4>
 18094a0:	483fe726 	beq	r9,zero,1809440 <__floatunsidf+0x38>
 18094a4:	10bfff44 	addi	r2,r2,-3
 18094a8:	10002e16 	blt	r2,zero,1809564 <__floatunsidf+0x15c>
 18094ac:	b0a2983a 	sll	r17,r22,r2
 18094b0:	0021883a 	mov	r16,zero
 18094b4:	d8800217 	ldw	r2,8(sp)
 18094b8:	dc400415 	stw	r17,16(sp)
 18094bc:	dc000315 	stw	r16,12(sp)
 18094c0:	1245c83a 	sub	r2,r2,r9
 18094c4:	d8800215 	stw	r2,8(sp)
 18094c8:	003fdd06 	br	1809440 <__floatunsidf+0x38>
 18094cc:	0255c83a 	sub	r10,zero,r9
 18094d0:	51bff804 	addi	r6,r10,-32
 18094d4:	30001b16 	blt	r6,zero,1809544 <__floatunsidf+0x13c>
 18094d8:	b9a8d83a 	srl	r20,r23,r6
 18094dc:	002b883a 	mov	r21,zero
 18094e0:	000f883a 	mov	r7,zero
 18094e4:	01000044 	movi	r4,1
 18094e8:	0011883a 	mov	r8,zero
 18094ec:	30002516 	blt	r6,zero,1809584 <__floatunsidf+0x17c>
 18094f0:	21a6983a 	sll	r19,r4,r6
 18094f4:	0025883a 	mov	r18,zero
 18094f8:	00bfffc4 	movi	r2,-1
 18094fc:	9089883a 	add	r4,r18,r2
 1809500:	988b883a 	add	r5,r19,r2
 1809504:	248d803a 	cmpltu	r6,r4,r18
 1809508:	314b883a 	add	r5,r6,r5
 180950c:	b104703a 	and	r2,r22,r4
 1809510:	b946703a 	and	r3,r23,r5
 1809514:	10c4b03a 	or	r2,r2,r3
 1809518:	10000226 	beq	r2,zero,1809524 <__floatunsidf+0x11c>
 180951c:	01c00044 	movi	r7,1
 1809520:	0011883a 	mov	r8,zero
 1809524:	d9000217 	ldw	r4,8(sp)
 1809528:	a1c4b03a 	or	r2,r20,r7
 180952c:	aa06b03a 	or	r3,r21,r8
 1809530:	2249c83a 	sub	r4,r4,r9
 1809534:	d8c00415 	stw	r3,16(sp)
 1809538:	d9000215 	stw	r4,8(sp)
 180953c:	d8800315 	stw	r2,12(sp)
 1809540:	003fbf06 	br	1809440 <__floatunsidf+0x38>
 1809544:	bdc7883a 	add	r3,r23,r23
 1809548:	008007c4 	movi	r2,31
 180954c:	1285c83a 	sub	r2,r2,r10
 1809550:	1886983a 	sll	r3,r3,r2
 1809554:	b2a8d83a 	srl	r20,r22,r10
 1809558:	baaad83a 	srl	r21,r23,r10
 180955c:	1d28b03a 	or	r20,r3,r20
 1809560:	003fdf06 	br	18094e0 <__floatunsidf+0xd8>
 1809564:	b006d07a 	srli	r3,r22,1
 1809568:	008007c4 	movi	r2,31
 180956c:	1245c83a 	sub	r2,r2,r9
 1809570:	1886d83a 	srl	r3,r3,r2
 1809574:	ba62983a 	sll	r17,r23,r9
 1809578:	b260983a 	sll	r16,r22,r9
 180957c:	1c62b03a 	or	r17,r3,r17
 1809580:	003fcc06 	br	18094b4 <__floatunsidf+0xac>
 1809584:	2006d07a 	srli	r3,r4,1
 1809588:	008007c4 	movi	r2,31
 180958c:	1285c83a 	sub	r2,r2,r10
 1809590:	18a6d83a 	srl	r19,r3,r2
 1809594:	22a4983a 	sll	r18,r4,r10
 1809598:	003fd706 	br	18094f8 <__floatunsidf+0xf0>

0180959c <udivmodsi4>:
 180959c:	29001b2e 	bgeu	r5,r4,180960c <udivmodsi4+0x70>
 18095a0:	28001a16 	blt	r5,zero,180960c <udivmodsi4+0x70>
 18095a4:	00800044 	movi	r2,1
 18095a8:	0007883a 	mov	r3,zero
 18095ac:	01c007c4 	movi	r7,31
 18095b0:	00000306 	br	18095c0 <udivmodsi4+0x24>
 18095b4:	19c01326 	beq	r3,r7,1809604 <udivmodsi4+0x68>
 18095b8:	18c00044 	addi	r3,r3,1
 18095bc:	28000416 	blt	r5,zero,18095d0 <udivmodsi4+0x34>
 18095c0:	294b883a 	add	r5,r5,r5
 18095c4:	1085883a 	add	r2,r2,r2
 18095c8:	293ffa36 	bltu	r5,r4,18095b4 <udivmodsi4+0x18>
 18095cc:	10000d26 	beq	r2,zero,1809604 <udivmodsi4+0x68>
 18095d0:	0007883a 	mov	r3,zero
 18095d4:	21400236 	bltu	r4,r5,18095e0 <udivmodsi4+0x44>
 18095d8:	2149c83a 	sub	r4,r4,r5
 18095dc:	1886b03a 	or	r3,r3,r2
 18095e0:	1004d07a 	srli	r2,r2,1
 18095e4:	280ad07a 	srli	r5,r5,1
 18095e8:	103ffa1e 	bne	r2,zero,18095d4 <udivmodsi4+0x38>
 18095ec:	30000226 	beq	r6,zero,18095f8 <udivmodsi4+0x5c>
 18095f0:	2005883a 	mov	r2,r4
 18095f4:	f800283a 	ret
 18095f8:	1809883a 	mov	r4,r3
 18095fc:	2005883a 	mov	r2,r4
 1809600:	f800283a 	ret
 1809604:	0007883a 	mov	r3,zero
 1809608:	003ff806 	br	18095ec <udivmodsi4+0x50>
 180960c:	00800044 	movi	r2,1
 1809610:	0007883a 	mov	r3,zero
 1809614:	003fef06 	br	18095d4 <udivmodsi4+0x38>

01809618 <__divsi3>:
 1809618:	defffe04 	addi	sp,sp,-8
 180961c:	dc000015 	stw	r16,0(sp)
 1809620:	dfc00115 	stw	ra,4(sp)
 1809624:	0021883a 	mov	r16,zero
 1809628:	20000c16 	blt	r4,zero,180965c <__divsi3+0x44>
 180962c:	000d883a 	mov	r6,zero
 1809630:	28000e16 	blt	r5,zero,180966c <__divsi3+0x54>
 1809634:	180959c0 	call	180959c <udivmodsi4>
 1809638:	1007883a 	mov	r3,r2
 180963c:	8005003a 	cmpeq	r2,r16,zero
 1809640:	1000011e 	bne	r2,zero,1809648 <__divsi3+0x30>
 1809644:	00c7c83a 	sub	r3,zero,r3
 1809648:	1805883a 	mov	r2,r3
 180964c:	dfc00117 	ldw	ra,4(sp)
 1809650:	dc000017 	ldw	r16,0(sp)
 1809654:	dec00204 	addi	sp,sp,8
 1809658:	f800283a 	ret
 180965c:	0109c83a 	sub	r4,zero,r4
 1809660:	04000044 	movi	r16,1
 1809664:	000d883a 	mov	r6,zero
 1809668:	283ff20e 	bge	r5,zero,1809634 <__divsi3+0x1c>
 180966c:	014bc83a 	sub	r5,zero,r5
 1809670:	8021003a 	cmpeq	r16,r16,zero
 1809674:	003fef06 	br	1809634 <__divsi3+0x1c>

01809678 <__modsi3>:
 1809678:	deffff04 	addi	sp,sp,-4
 180967c:	dfc00015 	stw	ra,0(sp)
 1809680:	01800044 	movi	r6,1
 1809684:	2807883a 	mov	r3,r5
 1809688:	20000416 	blt	r4,zero,180969c <__modsi3+0x24>
 180968c:	28000c16 	blt	r5,zero,18096c0 <__modsi3+0x48>
 1809690:	dfc00017 	ldw	ra,0(sp)
 1809694:	dec00104 	addi	sp,sp,4
 1809698:	180959c1 	jmpi	180959c <udivmodsi4>
 180969c:	0109c83a 	sub	r4,zero,r4
 18096a0:	28000b16 	blt	r5,zero,18096d0 <__modsi3+0x58>
 18096a4:	180b883a 	mov	r5,r3
 18096a8:	01800044 	movi	r6,1
 18096ac:	180959c0 	call	180959c <udivmodsi4>
 18096b0:	0085c83a 	sub	r2,zero,r2
 18096b4:	dfc00017 	ldw	ra,0(sp)
 18096b8:	dec00104 	addi	sp,sp,4
 18096bc:	f800283a 	ret
 18096c0:	014bc83a 	sub	r5,zero,r5
 18096c4:	dfc00017 	ldw	ra,0(sp)
 18096c8:	dec00104 	addi	sp,sp,4
 18096cc:	180959c1 	jmpi	180959c <udivmodsi4>
 18096d0:	0147c83a 	sub	r3,zero,r5
 18096d4:	003ff306 	br	18096a4 <__modsi3+0x2c>

018096d8 <__udivsi3>:
 18096d8:	000d883a 	mov	r6,zero
 18096dc:	180959c1 	jmpi	180959c <udivmodsi4>

018096e0 <__umodsi3>:
 18096e0:	01800044 	movi	r6,1
 18096e4:	180959c1 	jmpi	180959c <udivmodsi4>

018096e8 <__muldi3>:
 18096e8:	2011883a 	mov	r8,r4
 18096ec:	427fffcc 	andi	r9,r8,65535
 18096f0:	4018d43a 	srli	r12,r8,16
 18096f4:	32bfffcc 	andi	r10,r6,65535
 18096f8:	3016d43a 	srli	r11,r6,16
 18096fc:	4a85383a 	mul	r2,r9,r10
 1809700:	6295383a 	mul	r10,r12,r10
 1809704:	4ad3383a 	mul	r9,r9,r11
 1809708:	113fffcc 	andi	r4,r2,65535
 180970c:	1004d43a 	srli	r2,r2,16
 1809710:	4a93883a 	add	r9,r9,r10
 1809714:	3807883a 	mov	r3,r7
 1809718:	1245883a 	add	r2,r2,r9
 180971c:	280f883a 	mov	r7,r5
 1809720:	180b883a 	mov	r5,r3
 1809724:	1006943a 	slli	r3,r2,16
 1809728:	defffd04 	addi	sp,sp,-12
 180972c:	dc800215 	stw	r18,8(sp)
 1809730:	1907883a 	add	r3,r3,r4
 1809734:	dc400115 	stw	r17,4(sp)
 1809738:	dc000015 	stw	r16,0(sp)
 180973c:	4165383a 	mul	r18,r8,r5
 1809740:	31e3383a 	mul	r17,r6,r7
 1809744:	1012d43a 	srli	r9,r2,16
 1809748:	62d9383a 	mul	r12,r12,r11
 180974c:	181f883a 	mov	r15,r3
 1809750:	1280022e 	bgeu	r2,r10,180975c <__muldi3+0x74>
 1809754:	00800074 	movhi	r2,1
 1809758:	6099883a 	add	r12,r12,r2
 180975c:	624d883a 	add	r6,r12,r9
 1809760:	9187883a 	add	r3,r18,r6
 1809764:	88c7883a 	add	r3,r17,r3
 1809768:	7805883a 	mov	r2,r15
 180976c:	dc800217 	ldw	r18,8(sp)
 1809770:	dc400117 	ldw	r17,4(sp)
 1809774:	dc000017 	ldw	r16,0(sp)
 1809778:	dec00304 	addi	sp,sp,12
 180977c:	f800283a 	ret

01809780 <__clzsi2>:
 1809780:	00bfffd4 	movui	r2,65535
 1809784:	11000e36 	bltu	r2,r4,18097c0 <__clzsi2+0x40>
 1809788:	00803fc4 	movi	r2,255
 180978c:	01400204 	movi	r5,8
 1809790:	0007883a 	mov	r3,zero
 1809794:	11001036 	bltu	r2,r4,18097d8 <__clzsi2+0x58>
 1809798:	000b883a 	mov	r5,zero
 180979c:	20c6d83a 	srl	r3,r4,r3
 18097a0:	00806074 	movhi	r2,385
 18097a4:	1082b804 	addi	r2,r2,2784
 18097a8:	1887883a 	add	r3,r3,r2
 18097ac:	18800003 	ldbu	r2,0(r3)
 18097b0:	00c00804 	movi	r3,32
 18097b4:	2885883a 	add	r2,r5,r2
 18097b8:	1885c83a 	sub	r2,r3,r2
 18097bc:	f800283a 	ret
 18097c0:	01400404 	movi	r5,16
 18097c4:	00804034 	movhi	r2,256
 18097c8:	10bfffc4 	addi	r2,r2,-1
 18097cc:	2807883a 	mov	r3,r5
 18097d0:	113ff22e 	bgeu	r2,r4,180979c <__clzsi2+0x1c>
 18097d4:	01400604 	movi	r5,24
 18097d8:	2807883a 	mov	r3,r5
 18097dc:	20c6d83a 	srl	r3,r4,r3
 18097e0:	00806074 	movhi	r2,385
 18097e4:	1082b804 	addi	r2,r2,2784
 18097e8:	1887883a 	add	r3,r3,r2
 18097ec:	18800003 	ldbu	r2,0(r3)
 18097f0:	00c00804 	movi	r3,32
 18097f4:	2885883a 	add	r2,r5,r2
 18097f8:	1885c83a 	sub	r2,r3,r2
 18097fc:	f800283a 	ret

01809800 <__pack_d>:
 1809800:	20c00017 	ldw	r3,0(r4)
 1809804:	defffd04 	addi	sp,sp,-12
 1809808:	dc000015 	stw	r16,0(sp)
 180980c:	dc800215 	stw	r18,8(sp)
 1809810:	dc400115 	stw	r17,4(sp)
 1809814:	00800044 	movi	r2,1
 1809818:	22000317 	ldw	r8,12(r4)
 180981c:	001f883a 	mov	r15,zero
 1809820:	22400417 	ldw	r9,16(r4)
 1809824:	24000117 	ldw	r16,4(r4)
 1809828:	10c0552e 	bgeu	r2,r3,1809980 <__pack_d+0x180>
 180982c:	00800104 	movi	r2,4
 1809830:	18804f26 	beq	r3,r2,1809970 <__pack_d+0x170>
 1809834:	00800084 	movi	r2,2
 1809838:	18800226 	beq	r3,r2,1809844 <__pack_d+0x44>
 180983c:	4244b03a 	or	r2,r8,r9
 1809840:	10001a1e 	bne	r2,zero,18098ac <__pack_d+0xac>
 1809844:	000d883a 	mov	r6,zero
 1809848:	000f883a 	mov	r7,zero
 180984c:	0011883a 	mov	r8,zero
 1809850:	00800434 	movhi	r2,16
 1809854:	10bfffc4 	addi	r2,r2,-1
 1809858:	301d883a 	mov	r14,r6
 180985c:	3884703a 	and	r2,r7,r2
 1809860:	400a953a 	slli	r5,r8,20
 1809864:	79bffc2c 	andhi	r6,r15,65520
 1809868:	308cb03a 	or	r6,r6,r2
 180986c:	00e00434 	movhi	r3,32784
 1809870:	18ffffc4 	addi	r3,r3,-1
 1809874:	800497fa 	slli	r2,r16,31
 1809878:	30c6703a 	and	r3,r6,r3
 180987c:	1946b03a 	or	r3,r3,r5
 1809880:	01600034 	movhi	r5,32768
 1809884:	297fffc4 	addi	r5,r5,-1
 1809888:	194a703a 	and	r5,r3,r5
 180988c:	288ab03a 	or	r5,r5,r2
 1809890:	2807883a 	mov	r3,r5
 1809894:	7005883a 	mov	r2,r14
 1809898:	dc800217 	ldw	r18,8(sp)
 180989c:	dc400117 	ldw	r17,4(sp)
 18098a0:	dc000017 	ldw	r16,0(sp)
 18098a4:	dec00304 	addi	sp,sp,12
 18098a8:	f800283a 	ret
 18098ac:	21000217 	ldw	r4,8(r4)
 18098b0:	00bf0084 	movi	r2,-1022
 18098b4:	20803f16 	blt	r4,r2,18099b4 <__pack_d+0x1b4>
 18098b8:	0080ffc4 	movi	r2,1023
 18098bc:	11002c16 	blt	r2,r4,1809970 <__pack_d+0x170>
 18098c0:	00803fc4 	movi	r2,255
 18098c4:	408c703a 	and	r6,r8,r2
 18098c8:	00802004 	movi	r2,128
 18098cc:	0007883a 	mov	r3,zero
 18098d0:	000f883a 	mov	r7,zero
 18098d4:	2280ffc4 	addi	r10,r4,1023
 18098d8:	30801e26 	beq	r6,r2,1809954 <__pack_d+0x154>
 18098dc:	00801fc4 	movi	r2,127
 18098e0:	4089883a 	add	r4,r8,r2
 18098e4:	220d803a 	cmpltu	r6,r4,r8
 18098e8:	324d883a 	add	r6,r6,r9
 18098ec:	2011883a 	mov	r8,r4
 18098f0:	3013883a 	mov	r9,r6
 18098f4:	00880034 	movhi	r2,8192
 18098f8:	10bfffc4 	addi	r2,r2,-1
 18098fc:	12400d36 	bltu	r2,r9,1809934 <__pack_d+0x134>
 1809900:	4804963a 	slli	r2,r9,24
 1809904:	400cd23a 	srli	r6,r8,8
 1809908:	480ed23a 	srli	r7,r9,8
 180990c:	013fffc4 	movi	r4,-1
 1809910:	118cb03a 	or	r6,r2,r6
 1809914:	01400434 	movhi	r5,16
 1809918:	297fffc4 	addi	r5,r5,-1
 180991c:	3104703a 	and	r2,r6,r4
 1809920:	3946703a 	and	r3,r7,r5
 1809924:	5201ffcc 	andi	r8,r10,2047
 1809928:	100d883a 	mov	r6,r2
 180992c:	180f883a 	mov	r7,r3
 1809930:	003fc706 	br	1809850 <__pack_d+0x50>
 1809934:	480897fa 	slli	r4,r9,31
 1809938:	4004d07a 	srli	r2,r8,1
 180993c:	4806d07a 	srli	r3,r9,1
 1809940:	52800044 	addi	r10,r10,1
 1809944:	2084b03a 	or	r2,r4,r2
 1809948:	1011883a 	mov	r8,r2
 180994c:	1813883a 	mov	r9,r3
 1809950:	003feb06 	br	1809900 <__pack_d+0x100>
 1809954:	383fe11e 	bne	r7,zero,18098dc <__pack_d+0xdc>
 1809958:	01004004 	movi	r4,256
 180995c:	4104703a 	and	r2,r8,r4
 1809960:	10c4b03a 	or	r2,r2,r3
 1809964:	103fe326 	beq	r2,zero,18098f4 <__pack_d+0xf4>
 1809968:	3005883a 	mov	r2,r6
 180996c:	003fdc06 	br	18098e0 <__pack_d+0xe0>
 1809970:	000d883a 	mov	r6,zero
 1809974:	000f883a 	mov	r7,zero
 1809978:	0201ffc4 	movi	r8,2047
 180997c:	003fb406 	br	1809850 <__pack_d+0x50>
 1809980:	0005883a 	mov	r2,zero
 1809984:	00c00234 	movhi	r3,8
 1809988:	408cb03a 	or	r6,r8,r2
 180998c:	48ceb03a 	or	r7,r9,r3
 1809990:	013fffc4 	movi	r4,-1
 1809994:	01400434 	movhi	r5,16
 1809998:	297fffc4 	addi	r5,r5,-1
 180999c:	3104703a 	and	r2,r6,r4
 18099a0:	3946703a 	and	r3,r7,r5
 18099a4:	100d883a 	mov	r6,r2
 18099a8:	180f883a 	mov	r7,r3
 18099ac:	0201ffc4 	movi	r8,2047
 18099b0:	003fa706 	br	1809850 <__pack_d+0x50>
 18099b4:	1109c83a 	sub	r4,r2,r4
 18099b8:	00800e04 	movi	r2,56
 18099bc:	11004316 	blt	r2,r4,1809acc <__pack_d+0x2cc>
 18099c0:	21fff804 	addi	r7,r4,-32
 18099c4:	38004516 	blt	r7,zero,1809adc <__pack_d+0x2dc>
 18099c8:	49d8d83a 	srl	r12,r9,r7
 18099cc:	001b883a 	mov	r13,zero
 18099d0:	0023883a 	mov	r17,zero
 18099d4:	01400044 	movi	r5,1
 18099d8:	0025883a 	mov	r18,zero
 18099dc:	38004716 	blt	r7,zero,1809afc <__pack_d+0x2fc>
 18099e0:	29d6983a 	sll	r11,r5,r7
 18099e4:	0015883a 	mov	r10,zero
 18099e8:	00bfffc4 	movi	r2,-1
 18099ec:	5089883a 	add	r4,r10,r2
 18099f0:	588b883a 	add	r5,r11,r2
 18099f4:	228d803a 	cmpltu	r6,r4,r10
 18099f8:	314b883a 	add	r5,r6,r5
 18099fc:	4104703a 	and	r2,r8,r4
 1809a00:	4946703a 	and	r3,r9,r5
 1809a04:	10c4b03a 	or	r2,r2,r3
 1809a08:	10000226 	beq	r2,zero,1809a14 <__pack_d+0x214>
 1809a0c:	04400044 	movi	r17,1
 1809a10:	0025883a 	mov	r18,zero
 1809a14:	00803fc4 	movi	r2,255
 1809a18:	644eb03a 	or	r7,r12,r17
 1809a1c:	3892703a 	and	r9,r7,r2
 1809a20:	00802004 	movi	r2,128
 1809a24:	6c90b03a 	or	r8,r13,r18
 1809a28:	0015883a 	mov	r10,zero
 1809a2c:	48801626 	beq	r9,r2,1809a88 <__pack_d+0x288>
 1809a30:	01001fc4 	movi	r4,127
 1809a34:	3905883a 	add	r2,r7,r4
 1809a38:	11cd803a 	cmpltu	r6,r2,r7
 1809a3c:	320d883a 	add	r6,r6,r8
 1809a40:	100f883a 	mov	r7,r2
 1809a44:	00840034 	movhi	r2,4096
 1809a48:	10bfffc4 	addi	r2,r2,-1
 1809a4c:	3011883a 	mov	r8,r6
 1809a50:	0007883a 	mov	r3,zero
 1809a54:	11801b36 	bltu	r2,r6,1809ac4 <__pack_d+0x2c4>
 1809a58:	4004963a 	slli	r2,r8,24
 1809a5c:	3808d23a 	srli	r4,r7,8
 1809a60:	400ad23a 	srli	r5,r8,8
 1809a64:	1813883a 	mov	r9,r3
 1809a68:	1108b03a 	or	r4,r2,r4
 1809a6c:	00bfffc4 	movi	r2,-1
 1809a70:	00c00434 	movhi	r3,16
 1809a74:	18ffffc4 	addi	r3,r3,-1
 1809a78:	208c703a 	and	r6,r4,r2
 1809a7c:	28ce703a 	and	r7,r5,r3
 1809a80:	4a01ffcc 	andi	r8,r9,2047
 1809a84:	003f7206 	br	1809850 <__pack_d+0x50>
 1809a88:	503fe91e 	bne	r10,zero,1809a30 <__pack_d+0x230>
 1809a8c:	01004004 	movi	r4,256
 1809a90:	3904703a 	and	r2,r7,r4
 1809a94:	0007883a 	mov	r3,zero
 1809a98:	10c4b03a 	or	r2,r2,r3
 1809a9c:	10000626 	beq	r2,zero,1809ab8 <__pack_d+0x2b8>
 1809aa0:	3a45883a 	add	r2,r7,r9
 1809aa4:	11cd803a 	cmpltu	r6,r2,r7
 1809aa8:	320d883a 	add	r6,r6,r8
 1809aac:	100f883a 	mov	r7,r2
 1809ab0:	3011883a 	mov	r8,r6
 1809ab4:	0007883a 	mov	r3,zero
 1809ab8:	00840034 	movhi	r2,4096
 1809abc:	10bfffc4 	addi	r2,r2,-1
 1809ac0:	123fe52e 	bgeu	r2,r8,1809a58 <__pack_d+0x258>
 1809ac4:	00c00044 	movi	r3,1
 1809ac8:	003fe306 	br	1809a58 <__pack_d+0x258>
 1809acc:	0009883a 	mov	r4,zero
 1809ad0:	0013883a 	mov	r9,zero
 1809ad4:	000b883a 	mov	r5,zero
 1809ad8:	003fe406 	br	1809a6c <__pack_d+0x26c>
 1809adc:	4a47883a 	add	r3,r9,r9
 1809ae0:	008007c4 	movi	r2,31
 1809ae4:	1105c83a 	sub	r2,r2,r4
 1809ae8:	1886983a 	sll	r3,r3,r2
 1809aec:	4118d83a 	srl	r12,r8,r4
 1809af0:	491ad83a 	srl	r13,r9,r4
 1809af4:	1b18b03a 	or	r12,r3,r12
 1809af8:	003fb506 	br	18099d0 <__pack_d+0x1d0>
 1809afc:	2806d07a 	srli	r3,r5,1
 1809b00:	008007c4 	movi	r2,31
 1809b04:	1105c83a 	sub	r2,r2,r4
 1809b08:	1896d83a 	srl	r11,r3,r2
 1809b0c:	2914983a 	sll	r10,r5,r4
 1809b10:	003fb506 	br	18099e8 <__pack_d+0x1e8>

01809b14 <__unpack_d>:
 1809b14:	20c00117 	ldw	r3,4(r4)
 1809b18:	22400017 	ldw	r9,0(r4)
 1809b1c:	00800434 	movhi	r2,16
 1809b20:	10bfffc4 	addi	r2,r2,-1
 1809b24:	1808d53a 	srli	r4,r3,20
 1809b28:	180cd7fa 	srli	r6,r3,31
 1809b2c:	1894703a 	and	r10,r3,r2
 1809b30:	2201ffcc 	andi	r8,r4,2047
 1809b34:	281b883a 	mov	r13,r5
 1809b38:	4817883a 	mov	r11,r9
 1809b3c:	29800115 	stw	r6,4(r5)
 1809b40:	5019883a 	mov	r12,r10
 1809b44:	40001e1e 	bne	r8,zero,1809bc0 <__unpack_d+0xac>
 1809b48:	4a84b03a 	or	r2,r9,r10
 1809b4c:	10001926 	beq	r2,zero,1809bb4 <__unpack_d+0xa0>
 1809b50:	4804d63a 	srli	r2,r9,24
 1809b54:	500c923a 	slli	r6,r10,8
 1809b58:	013f0084 	movi	r4,-1022
 1809b5c:	00c40034 	movhi	r3,4096
 1809b60:	18ffffc4 	addi	r3,r3,-1
 1809b64:	118cb03a 	or	r6,r2,r6
 1809b68:	008000c4 	movi	r2,3
 1809b6c:	480a923a 	slli	r5,r9,8
 1809b70:	68800015 	stw	r2,0(r13)
 1809b74:	69000215 	stw	r4,8(r13)
 1809b78:	19800b36 	bltu	r3,r6,1809ba8 <__unpack_d+0x94>
 1809b7c:	200f883a 	mov	r7,r4
 1809b80:	1811883a 	mov	r8,r3
 1809b84:	2945883a 	add	r2,r5,r5
 1809b88:	1149803a 	cmpltu	r4,r2,r5
 1809b8c:	3187883a 	add	r3,r6,r6
 1809b90:	20c9883a 	add	r4,r4,r3
 1809b94:	100b883a 	mov	r5,r2
 1809b98:	200d883a 	mov	r6,r4
 1809b9c:	39ffffc4 	addi	r7,r7,-1
 1809ba0:	413ff82e 	bgeu	r8,r4,1809b84 <__unpack_d+0x70>
 1809ba4:	69c00215 	stw	r7,8(r13)
 1809ba8:	69800415 	stw	r6,16(r13)
 1809bac:	69400315 	stw	r5,12(r13)
 1809bb0:	f800283a 	ret
 1809bb4:	00800084 	movi	r2,2
 1809bb8:	28800015 	stw	r2,0(r5)
 1809bbc:	f800283a 	ret
 1809bc0:	0081ffc4 	movi	r2,2047
 1809bc4:	40800f26 	beq	r8,r2,1809c04 <__unpack_d+0xf0>
 1809bc8:	480cd63a 	srli	r6,r9,24
 1809bcc:	5006923a 	slli	r3,r10,8
 1809bd0:	4804923a 	slli	r2,r9,8
 1809bd4:	0009883a 	mov	r4,zero
 1809bd8:	30c6b03a 	or	r3,r6,r3
 1809bdc:	01440034 	movhi	r5,4096
 1809be0:	110cb03a 	or	r6,r2,r4
 1809be4:	423f0044 	addi	r8,r8,-1023
 1809be8:	194eb03a 	or	r7,r3,r5
 1809bec:	008000c4 	movi	r2,3
 1809bf0:	69c00415 	stw	r7,16(r13)
 1809bf4:	6a000215 	stw	r8,8(r13)
 1809bf8:	68800015 	stw	r2,0(r13)
 1809bfc:	69800315 	stw	r6,12(r13)
 1809c00:	f800283a 	ret
 1809c04:	4a84b03a 	or	r2,r9,r10
 1809c08:	1000031e 	bne	r2,zero,1809c18 <__unpack_d+0x104>
 1809c0c:	00800104 	movi	r2,4
 1809c10:	28800015 	stw	r2,0(r5)
 1809c14:	f800283a 	ret
 1809c18:	0009883a 	mov	r4,zero
 1809c1c:	01400234 	movhi	r5,8
 1809c20:	4904703a 	and	r2,r9,r4
 1809c24:	5146703a 	and	r3,r10,r5
 1809c28:	10c4b03a 	or	r2,r2,r3
 1809c2c:	10000526 	beq	r2,zero,1809c44 <__unpack_d+0x130>
 1809c30:	00800044 	movi	r2,1
 1809c34:	68800015 	stw	r2,0(r13)
 1809c38:	6b000415 	stw	r12,16(r13)
 1809c3c:	6ac00315 	stw	r11,12(r13)
 1809c40:	f800283a 	ret
 1809c44:	68000015 	stw	zero,0(r13)
 1809c48:	003ffb06 	br	1809c38 <__unpack_d+0x124>

01809c4c <__fpcmp_parts_d>:
 1809c4c:	21800017 	ldw	r6,0(r4)
 1809c50:	00c00044 	movi	r3,1
 1809c54:	19800a2e 	bgeu	r3,r6,1809c80 <__fpcmp_parts_d+0x34>
 1809c58:	28800017 	ldw	r2,0(r5)
 1809c5c:	1880082e 	bgeu	r3,r2,1809c80 <__fpcmp_parts_d+0x34>
 1809c60:	00c00104 	movi	r3,4
 1809c64:	30c02626 	beq	r6,r3,1809d00 <__fpcmp_parts_d+0xb4>
 1809c68:	10c02226 	beq	r2,r3,1809cf4 <__fpcmp_parts_d+0xa8>
 1809c6c:	00c00084 	movi	r3,2
 1809c70:	30c00526 	beq	r6,r3,1809c88 <__fpcmp_parts_d+0x3c>
 1809c74:	10c0071e 	bne	r2,r3,1809c94 <__fpcmp_parts_d+0x48>
 1809c78:	20800117 	ldw	r2,4(r4)
 1809c7c:	1000091e 	bne	r2,zero,1809ca4 <__fpcmp_parts_d+0x58>
 1809c80:	00800044 	movi	r2,1
 1809c84:	f800283a 	ret
 1809c88:	10c01a1e 	bne	r2,r3,1809cf4 <__fpcmp_parts_d+0xa8>
 1809c8c:	0005883a 	mov	r2,zero
 1809c90:	f800283a 	ret
 1809c94:	22000117 	ldw	r8,4(r4)
 1809c98:	28800117 	ldw	r2,4(r5)
 1809c9c:	40800326 	beq	r8,r2,1809cac <__fpcmp_parts_d+0x60>
 1809ca0:	403ff726 	beq	r8,zero,1809c80 <__fpcmp_parts_d+0x34>
 1809ca4:	00bfffc4 	movi	r2,-1
 1809ca8:	f800283a 	ret
 1809cac:	20c00217 	ldw	r3,8(r4)
 1809cb0:	28800217 	ldw	r2,8(r5)
 1809cb4:	10fffa16 	blt	r2,r3,1809ca0 <__fpcmp_parts_d+0x54>
 1809cb8:	18800916 	blt	r3,r2,1809ce0 <__fpcmp_parts_d+0x94>
 1809cbc:	21c00417 	ldw	r7,16(r4)
 1809cc0:	28c00417 	ldw	r3,16(r5)
 1809cc4:	21800317 	ldw	r6,12(r4)
 1809cc8:	28800317 	ldw	r2,12(r5)
 1809ccc:	19fff436 	bltu	r3,r7,1809ca0 <__fpcmp_parts_d+0x54>
 1809cd0:	38c00526 	beq	r7,r3,1809ce8 <__fpcmp_parts_d+0x9c>
 1809cd4:	38c00236 	bltu	r7,r3,1809ce0 <__fpcmp_parts_d+0x94>
 1809cd8:	19ffec1e 	bne	r3,r7,1809c8c <__fpcmp_parts_d+0x40>
 1809cdc:	30bfeb2e 	bgeu	r6,r2,1809c8c <__fpcmp_parts_d+0x40>
 1809ce0:	403fe71e 	bne	r8,zero,1809c80 <__fpcmp_parts_d+0x34>
 1809ce4:	003fef06 	br	1809ca4 <__fpcmp_parts_d+0x58>
 1809ce8:	11bffa2e 	bgeu	r2,r6,1809cd4 <__fpcmp_parts_d+0x88>
 1809cec:	403fe426 	beq	r8,zero,1809c80 <__fpcmp_parts_d+0x34>
 1809cf0:	003fec06 	br	1809ca4 <__fpcmp_parts_d+0x58>
 1809cf4:	28800117 	ldw	r2,4(r5)
 1809cf8:	103fe11e 	bne	r2,zero,1809c80 <__fpcmp_parts_d+0x34>
 1809cfc:	003fe906 	br	1809ca4 <__fpcmp_parts_d+0x58>
 1809d00:	11bfdd1e 	bne	r2,r6,1809c78 <__fpcmp_parts_d+0x2c>
 1809d04:	28c00117 	ldw	r3,4(r5)
 1809d08:	20800117 	ldw	r2,4(r4)
 1809d0c:	1885c83a 	sub	r2,r3,r2
 1809d10:	f800283a 	ret

01809d14 <close>:
 *
 * ALT_CLOSE is mapped onto the close() system call in alt_syscall.h
 */
 
int ALT_CLOSE (int fildes)
{
 1809d14:	defff804 	addi	sp,sp,-32
 1809d18:	dfc00715 	stw	ra,28(sp)
 1809d1c:	df000615 	stw	fp,24(sp)
 1809d20:	df000604 	addi	fp,sp,24
 1809d24:	e13ffc15 	stw	r4,-16(fp)
   * A common error case is that when the file descriptor was created, the call
   * to open() failed resulting in a negative file descriptor. This is trapped
   * below so that we don't try and process an invalid file descriptor.
   */

  fd = (fildes < 0) ? NULL : &alt_fd_list[fildes];
 1809d28:	e0bffc17 	ldw	r2,-16(fp)
 1809d2c:	1004803a 	cmplt	r2,r2,zero
 1809d30:	1000081e 	bne	r2,zero,1809d54 <close+0x40>
 1809d34:	e0bffc17 	ldw	r2,-16(fp)
 1809d38:	10800324 	muli	r2,r2,12
 1809d3c:	1007883a 	mov	r3,r2
 1809d40:	00806074 	movhi	r2,385
 1809d44:	1085bd04 	addi	r2,r2,5876
 1809d48:	1887883a 	add	r3,r3,r2
 1809d4c:	e0ffff15 	stw	r3,-4(fp)
 1809d50:	00000106 	br	1809d58 <close+0x44>
 1809d54:	e03fff15 	stw	zero,-4(fp)
 1809d58:	e0bfff17 	ldw	r2,-4(fp)
 1809d5c:	e0bffb15 	stw	r2,-20(fp)

  if (fd)
 1809d60:	e0bffb17 	ldw	r2,-20(fp)
 1809d64:	1005003a 	cmpeq	r2,r2,zero
 1809d68:	10001d1e 	bne	r2,zero,1809de0 <close+0xcc>
    /*
     * If the associated file system/device has a close function, call it so 
     * that any necessary cleanup code can run.
     */

    rval = (fd->dev->close) ? fd->dev->close(fd) : 0;
 1809d6c:	e0bffb17 	ldw	r2,-20(fp)
 1809d70:	10800017 	ldw	r2,0(r2)
 1809d74:	10800417 	ldw	r2,16(r2)
 1809d78:	1005003a 	cmpeq	r2,r2,zero
 1809d7c:	1000071e 	bne	r2,zero,1809d9c <close+0x88>
 1809d80:	e0bffb17 	ldw	r2,-20(fp)
 1809d84:	10800017 	ldw	r2,0(r2)
 1809d88:	10800417 	ldw	r2,16(r2)
 1809d8c:	e13ffb17 	ldw	r4,-20(fp)
 1809d90:	103ee83a 	callr	r2
 1809d94:	e0bffe15 	stw	r2,-8(fp)
 1809d98:	00000106 	br	1809da0 <close+0x8c>
 1809d9c:	e03ffe15 	stw	zero,-8(fp)
 1809da0:	e0bffe17 	ldw	r2,-8(fp)
 1809da4:	e0bffa15 	stw	r2,-24(fp)

    /* Free the file descriptor structure and return. */

    alt_release_fd (fildes);
 1809da8:	e13ffc17 	ldw	r4,-16(fp)
 1809dac:	180a46c0 	call	180a46c <alt_release_fd>
    if (rval < 0)
 1809db0:	e0bffa17 	ldw	r2,-24(fp)
 1809db4:	1004403a 	cmpge	r2,r2,zero
 1809db8:	1000071e 	bne	r2,zero,1809dd8 <close+0xc4>
    {
      ALT_ERRNO = -rval;
 1809dbc:	1809e100 	call	1809e10 <alt_get_errno>
 1809dc0:	e0fffa17 	ldw	r3,-24(fp)
 1809dc4:	00c7c83a 	sub	r3,zero,r3
 1809dc8:	10c00015 	stw	r3,0(r2)
      return -1;
 1809dcc:	00bfffc4 	movi	r2,-1
 1809dd0:	e0bffd15 	stw	r2,-12(fp)
 1809dd4:	00000806 	br	1809df8 <close+0xe4>
    }
    return 0;
 1809dd8:	e03ffd15 	stw	zero,-12(fp)
 1809ddc:	00000606 	br	1809df8 <close+0xe4>
  }
  else
  {
    ALT_ERRNO = EBADFD;
 1809de0:	1809e100 	call	1809e10 <alt_get_errno>
 1809de4:	1007883a 	mov	r3,r2
 1809de8:	00801444 	movi	r2,81
 1809dec:	18800015 	stw	r2,0(r3)
    return -1;
 1809df0:	00bfffc4 	movi	r2,-1
 1809df4:	e0bffd15 	stw	r2,-12(fp)
 1809df8:	e0bffd17 	ldw	r2,-12(fp)
  }
}
 1809dfc:	e037883a 	mov	sp,fp
 1809e00:	dfc00117 	ldw	ra,4(sp)
 1809e04:	df000017 	ldw	fp,0(sp)
 1809e08:	dec00204 	addi	sp,sp,8
 1809e0c:	f800283a 	ret

01809e10 <alt_get_errno>:
#undef errno

extern int errno;

static ALT_INLINE int* alt_get_errno(void)
{
 1809e10:	defffd04 	addi	sp,sp,-12
 1809e14:	dfc00215 	stw	ra,8(sp)
 1809e18:	df000115 	stw	fp,4(sp)
 1809e1c:	df000104 	addi	fp,sp,4
  return ((alt_errno) ? alt_errno() : &errno);
 1809e20:	00806074 	movhi	r2,385
 1809e24:	108aef04 	addi	r2,r2,11196
 1809e28:	10800017 	ldw	r2,0(r2)
 1809e2c:	1005003a 	cmpeq	r2,r2,zero
 1809e30:	1000061e 	bne	r2,zero,1809e4c <alt_get_errno+0x3c>
 1809e34:	00806074 	movhi	r2,385
 1809e38:	108aef04 	addi	r2,r2,11196
 1809e3c:	10800017 	ldw	r2,0(r2)
 1809e40:	103ee83a 	callr	r2
 1809e44:	e0bfff15 	stw	r2,-4(fp)
 1809e48:	00000306 	br	1809e58 <alt_get_errno+0x48>
 1809e4c:	00806074 	movhi	r2,385
 1809e50:	108afe04 	addi	r2,r2,11256
 1809e54:	e0bfff15 	stw	r2,-4(fp)
 1809e58:	e0bfff17 	ldw	r2,-4(fp)
}
 1809e5c:	e037883a 	mov	sp,fp
 1809e60:	dfc00117 	ldw	ra,4(sp)
 1809e64:	df000017 	ldw	fp,0(sp)
 1809e68:	dec00204 	addi	sp,sp,8
 1809e6c:	f800283a 	ret

01809e70 <alt_dev_null_write>:
 * by the alt_dev_null device. It simple discards all data passed to it, and
 * indicates that the data has been successfully transmitted.
 */

static int alt_dev_null_write (alt_fd* fd, const char* ptr, int len)
{
 1809e70:	defffc04 	addi	sp,sp,-16
 1809e74:	df000315 	stw	fp,12(sp)
 1809e78:	df000304 	addi	fp,sp,12
 1809e7c:	e13ffd15 	stw	r4,-12(fp)
 1809e80:	e17ffe15 	stw	r5,-8(fp)
 1809e84:	e1bfff15 	stw	r6,-4(fp)
  return len;
 1809e88:	e0bfff17 	ldw	r2,-4(fp)
}
 1809e8c:	e037883a 	mov	sp,fp
 1809e90:	df000017 	ldw	fp,0(sp)
 1809e94:	dec00104 	addi	sp,sp,4
 1809e98:	f800283a 	ret

01809e9c <fstat>:
}

#else /* !ALT_USE_DIRECT_DRIVERS */

int ALT_FSTAT (int file, struct stat *st)
{
 1809e9c:	defff904 	addi	sp,sp,-28
 1809ea0:	dfc00615 	stw	ra,24(sp)
 1809ea4:	df000515 	stw	fp,20(sp)
 1809ea8:	df000504 	addi	fp,sp,20
 1809eac:	e13ffc15 	stw	r4,-16(fp)
 1809eb0:	e17ffd15 	stw	r5,-12(fp)
   * A common error case is that when the file descriptor was created, the call
   * to open() failed resulting in a negative file descriptor. This is trapped
   * below so that we don't try and process an invalid file descriptor.
   */

  fd = (file < 0) ? NULL : &alt_fd_list[file];
 1809eb4:	e0bffc17 	ldw	r2,-16(fp)
 1809eb8:	1004803a 	cmplt	r2,r2,zero
 1809ebc:	1000081e 	bne	r2,zero,1809ee0 <fstat+0x44>
 1809ec0:	e0bffc17 	ldw	r2,-16(fp)
 1809ec4:	10800324 	muli	r2,r2,12
 1809ec8:	1007883a 	mov	r3,r2
 1809ecc:	00806074 	movhi	r2,385
 1809ed0:	1085bd04 	addi	r2,r2,5876
 1809ed4:	1887883a 	add	r3,r3,r2
 1809ed8:	e0ffff15 	stw	r3,-4(fp)
 1809edc:	00000106 	br	1809ee4 <fstat+0x48>
 1809ee0:	e03fff15 	stw	zero,-4(fp)
 1809ee4:	e0bfff17 	ldw	r2,-4(fp)
 1809ee8:	e0bffb15 	stw	r2,-20(fp)
  
  if (fd)
 1809eec:	e0bffb17 	ldw	r2,-20(fp)
 1809ef0:	1005003a 	cmpeq	r2,r2,zero
 1809ef4:	1000121e 	bne	r2,zero,1809f40 <fstat+0xa4>
  {
    /* Call the drivers fstat() function to fill out the "st" structure. */

    if (fd->dev->fstat)
 1809ef8:	e0bffb17 	ldw	r2,-20(fp)
 1809efc:	10800017 	ldw	r2,0(r2)
 1809f00:	10800817 	ldw	r2,32(r2)
 1809f04:	1005003a 	cmpeq	r2,r2,zero
 1809f08:	1000081e 	bne	r2,zero,1809f2c <fstat+0x90>
    {
      return fd->dev->fstat(fd, st);
 1809f0c:	e0bffb17 	ldw	r2,-20(fp)
 1809f10:	10800017 	ldw	r2,0(r2)
 1809f14:	10800817 	ldw	r2,32(r2)
 1809f18:	e13ffb17 	ldw	r4,-20(fp)
 1809f1c:	e17ffd17 	ldw	r5,-12(fp)
 1809f20:	103ee83a 	callr	r2
 1809f24:	e0bffe15 	stw	r2,-8(fp)
 1809f28:	00000b06 	br	1809f58 <fstat+0xbc>
     * device.
     */
 
    else
    {
      st->st_mode = _IFCHR;
 1809f2c:	e0fffd17 	ldw	r3,-12(fp)
 1809f30:	00880004 	movi	r2,8192
 1809f34:	18800115 	stw	r2,4(r3)
      return 0;
 1809f38:	e03ffe15 	stw	zero,-8(fp)
 1809f3c:	00000606 	br	1809f58 <fstat+0xbc>
    }
  }
  else
  {
    ALT_ERRNO = EBADFD;
 1809f40:	1809f700 	call	1809f70 <alt_get_errno>
 1809f44:	1007883a 	mov	r3,r2
 1809f48:	00801444 	movi	r2,81
 1809f4c:	18800015 	stw	r2,0(r3)
    return -1;
 1809f50:	00bfffc4 	movi	r2,-1
 1809f54:	e0bffe15 	stw	r2,-8(fp)
 1809f58:	e0bffe17 	ldw	r2,-8(fp)
  }
}
 1809f5c:	e037883a 	mov	sp,fp
 1809f60:	dfc00117 	ldw	ra,4(sp)
 1809f64:	df000017 	ldw	fp,0(sp)
 1809f68:	dec00204 	addi	sp,sp,8
 1809f6c:	f800283a 	ret

01809f70 <alt_get_errno>:
#undef errno

extern int errno;

static ALT_INLINE int* alt_get_errno(void)
{
 1809f70:	defffd04 	addi	sp,sp,-12
 1809f74:	dfc00215 	stw	ra,8(sp)
 1809f78:	df000115 	stw	fp,4(sp)
 1809f7c:	df000104 	addi	fp,sp,4
  return ((alt_errno) ? alt_errno() : &errno);
 1809f80:	00806074 	movhi	r2,385
 1809f84:	108aef04 	addi	r2,r2,11196
 1809f88:	10800017 	ldw	r2,0(r2)
 1809f8c:	1005003a 	cmpeq	r2,r2,zero
 1809f90:	1000061e 	bne	r2,zero,1809fac <alt_get_errno+0x3c>
 1809f94:	00806074 	movhi	r2,385
 1809f98:	108aef04 	addi	r2,r2,11196
 1809f9c:	10800017 	ldw	r2,0(r2)
 1809fa0:	103ee83a 	callr	r2
 1809fa4:	e0bfff15 	stw	r2,-4(fp)
 1809fa8:	00000306 	br	1809fb8 <alt_get_errno+0x48>
 1809fac:	00806074 	movhi	r2,385
 1809fb0:	108afe04 	addi	r2,r2,11256
 1809fb4:	e0bfff15 	stw	r2,-4(fp)
 1809fb8:	e0bfff17 	ldw	r2,-4(fp)
}
 1809fbc:	e037883a 	mov	sp,fp
 1809fc0:	dfc00117 	ldw	ra,4(sp)
 1809fc4:	df000017 	ldw	fp,0(sp)
 1809fc8:	dec00204 	addi	sp,sp,8
 1809fcc:	f800283a 	ret

01809fd0 <isatty>:
 *
 * ALT_ISATTY is mapped onto the isatty() system call in alt_syscall.h
 */
 
int ALT_ISATTY (int file)
{
 1809fd0:	deffeb04 	addi	sp,sp,-84
 1809fd4:	dfc01415 	stw	ra,80(sp)
 1809fd8:	df001315 	stw	fp,76(sp)
 1809fdc:	df001304 	addi	fp,sp,76
 1809fe0:	e13ffd15 	stw	r4,-12(fp)
   * A common error case is that when the file descriptor was created, the call
   * to open() failed resulting in a negative file descriptor. This is trapped
   * below so that we don't try and process an invalid file descriptor.
   */

  fd = (file < 0) ? NULL : &alt_fd_list[file];
 1809fe4:	e0bffd17 	ldw	r2,-12(fp)
 1809fe8:	1004803a 	cmplt	r2,r2,zero
 1809fec:	1000081e 	bne	r2,zero,180a010 <isatty+0x40>
 1809ff0:	e0bffd17 	ldw	r2,-12(fp)
 1809ff4:	10800324 	muli	r2,r2,12
 1809ff8:	1007883a 	mov	r3,r2
 1809ffc:	00806074 	movhi	r2,385
 180a000:	1085bd04 	addi	r2,r2,5876
 180a004:	1887883a 	add	r3,r3,r2
 180a008:	e0ffff15 	stw	r3,-4(fp)
 180a00c:	00000106 	br	180a014 <isatty+0x44>
 180a010:	e03fff15 	stw	zero,-4(fp)
 180a014:	e0bfff17 	ldw	r2,-4(fp)
 180a018:	e0bfed15 	stw	r2,-76(fp)
  
  if (fd)
 180a01c:	e0bfed17 	ldw	r2,-76(fp)
 180a020:	1005003a 	cmpeq	r2,r2,zero
 180a024:	10000f1e 	bne	r2,zero,180a064 <isatty+0x94>
    /*
     * If a device driver does not provide an fstat() function, then it is 
     * treated as a terminal device by default.
     */

    if (!fd->dev->fstat)
 180a028:	e0bfed17 	ldw	r2,-76(fp)
 180a02c:	10800017 	ldw	r2,0(r2)
 180a030:	10800817 	ldw	r2,32(r2)
 180a034:	1004c03a 	cmpne	r2,r2,zero
 180a038:	1000031e 	bne	r2,zero,180a048 <isatty+0x78>
    {
      return 1;
 180a03c:	00800044 	movi	r2,1
 180a040:	e0bffe15 	stw	r2,-8(fp)
 180a044:	00000c06 	br	180a078 <isatty+0xa8>
     * this is called so that the device can identify itself.
     */ 

    else
    {
      fstat (file, &stat);
 180a048:	e17fee04 	addi	r5,fp,-72
 180a04c:	e13ffd17 	ldw	r4,-12(fp)
 180a050:	1809e9c0 	call	1809e9c <fstat>
      return (stat.st_mode == _IFCHR) ? 1 : 0;
 180a054:	e0bfef17 	ldw	r2,-68(fp)
 180a058:	10880020 	cmpeqi	r2,r2,8192
 180a05c:	e0bffe15 	stw	r2,-8(fp)
 180a060:	00000506 	br	180a078 <isatty+0xa8>
    }
  }
  else
  {
    ALT_ERRNO = EBADFD;
 180a064:	180a0900 	call	180a090 <alt_get_errno>
 180a068:	1007883a 	mov	r3,r2
 180a06c:	00801444 	movi	r2,81
 180a070:	18800015 	stw	r2,0(r3)
    return 0;
 180a074:	e03ffe15 	stw	zero,-8(fp)
 180a078:	e0bffe17 	ldw	r2,-8(fp)
  }
}
 180a07c:	e037883a 	mov	sp,fp
 180a080:	dfc00117 	ldw	ra,4(sp)
 180a084:	df000017 	ldw	fp,0(sp)
 180a088:	dec00204 	addi	sp,sp,8
 180a08c:	f800283a 	ret

0180a090 <alt_get_errno>:
#undef errno

extern int errno;

static ALT_INLINE int* alt_get_errno(void)
{
 180a090:	defffd04 	addi	sp,sp,-12
 180a094:	dfc00215 	stw	ra,8(sp)
 180a098:	df000115 	stw	fp,4(sp)
 180a09c:	df000104 	addi	fp,sp,4
  return ((alt_errno) ? alt_errno() : &errno);
 180a0a0:	00806074 	movhi	r2,385
 180a0a4:	108aef04 	addi	r2,r2,11196
 180a0a8:	10800017 	ldw	r2,0(r2)
 180a0ac:	1005003a 	cmpeq	r2,r2,zero
 180a0b0:	1000061e 	bne	r2,zero,180a0cc <alt_get_errno+0x3c>
 180a0b4:	00806074 	movhi	r2,385
 180a0b8:	108aef04 	addi	r2,r2,11196
 180a0bc:	10800017 	ldw	r2,0(r2)
 180a0c0:	103ee83a 	callr	r2
 180a0c4:	e0bfff15 	stw	r2,-4(fp)
 180a0c8:	00000306 	br	180a0d8 <alt_get_errno+0x48>
 180a0cc:	00806074 	movhi	r2,385
 180a0d0:	108afe04 	addi	r2,r2,11256
 180a0d4:	e0bfff15 	stw	r2,-4(fp)
 180a0d8:	e0bfff17 	ldw	r2,-4(fp)
}
 180a0dc:	e037883a 	mov	sp,fp
 180a0e0:	dfc00117 	ldw	ra,4(sp)
 180a0e4:	df000017 	ldw	fp,0(sp)
 180a0e8:	dec00204 	addi	sp,sp,8
 180a0ec:	f800283a 	ret

0180a0f0 <lseek>:
 * ALT_LSEEK is mapped onto the lseek() system call in alt_syscall.h
 *
 */

off_t ALT_LSEEK (int file, off_t ptr, int dir)
{
 180a0f0:	defff804 	addi	sp,sp,-32
 180a0f4:	dfc00715 	stw	ra,28(sp)
 180a0f8:	df000615 	stw	fp,24(sp)
 180a0fc:	df000604 	addi	fp,sp,24
 180a100:	e13ffc15 	stw	r4,-16(fp)
 180a104:	e17ffd15 	stw	r5,-12(fp)
 180a108:	e1bffe15 	stw	r6,-8(fp)
  alt_fd* fd;
  off_t   rc = 0; 
 180a10c:	e03ffa15 	stw	zero,-24(fp)
   * A common error case is that when the file descriptor was created, the call
   * to open() failed resulting in a negative file descriptor. This is trapped
   * below so that we don't try and process an invalid file descriptor.
   */

  fd = (file < 0) ? NULL : &alt_fd_list[file];
 180a110:	e0bffc17 	ldw	r2,-16(fp)
 180a114:	1004803a 	cmplt	r2,r2,zero
 180a118:	1000081e 	bne	r2,zero,180a13c <lseek+0x4c>
 180a11c:	e0bffc17 	ldw	r2,-16(fp)
 180a120:	10800324 	muli	r2,r2,12
 180a124:	1007883a 	mov	r3,r2
 180a128:	00806074 	movhi	r2,385
 180a12c:	1085bd04 	addi	r2,r2,5876
 180a130:	1887883a 	add	r3,r3,r2
 180a134:	e0ffff15 	stw	r3,-4(fp)
 180a138:	00000106 	br	180a140 <lseek+0x50>
 180a13c:	e03fff15 	stw	zero,-4(fp)
 180a140:	e0bfff17 	ldw	r2,-4(fp)
 180a144:	e0bffb15 	stw	r2,-20(fp)
  
  if (fd) 
 180a148:	e0bffb17 	ldw	r2,-20(fp)
 180a14c:	1005003a 	cmpeq	r2,r2,zero
 180a150:	1000111e 	bne	r2,zero,180a198 <lseek+0xa8>
    /*
     * If the device driver provides an implementation of the lseek() function,
     * then call that to process the request.
     */
 
    if (fd->dev->lseek)
 180a154:	e0bffb17 	ldw	r2,-20(fp)
 180a158:	10800017 	ldw	r2,0(r2)
 180a15c:	10800717 	ldw	r2,28(r2)
 180a160:	1005003a 	cmpeq	r2,r2,zero
 180a164:	1000091e 	bne	r2,zero,180a18c <lseek+0x9c>
    {
      rc = fd->dev->lseek(fd, ptr, dir);
 180a168:	e0bffb17 	ldw	r2,-20(fp)
 180a16c:	10800017 	ldw	r2,0(r2)
 180a170:	10800717 	ldw	r2,28(r2)
 180a174:	e13ffb17 	ldw	r4,-20(fp)
 180a178:	e17ffd17 	ldw	r5,-12(fp)
 180a17c:	e1bffe17 	ldw	r6,-8(fp)
 180a180:	103ee83a 	callr	r2
 180a184:	e0bffa15 	stw	r2,-24(fp)
 180a188:	00000506 	br	180a1a0 <lseek+0xb0>
     * Otherwise return an error.
     */

    else
    {
      rc = -ENOTSUP;
 180a18c:	00bfde84 	movi	r2,-134
 180a190:	e0bffa15 	stw	r2,-24(fp)
 180a194:	00000206 	br	180a1a0 <lseek+0xb0>
    }
  }
  else  
  {
    rc = -EBADFD;
 180a198:	00bfebc4 	movi	r2,-81
 180a19c:	e0bffa15 	stw	r2,-24(fp)
  }

  if (rc < 0)
 180a1a0:	e0bffa17 	ldw	r2,-24(fp)
 180a1a4:	1004403a 	cmpge	r2,r2,zero
 180a1a8:	1000071e 	bne	r2,zero,180a1c8 <lseek+0xd8>
  {
    ALT_ERRNO = -rc;
 180a1ac:	180a1e00 	call	180a1e0 <alt_get_errno>
 180a1b0:	1007883a 	mov	r3,r2
 180a1b4:	e0bffa17 	ldw	r2,-24(fp)
 180a1b8:	0085c83a 	sub	r2,zero,r2
 180a1bc:	18800015 	stw	r2,0(r3)
    rc = -1;
 180a1c0:	00bfffc4 	movi	r2,-1
 180a1c4:	e0bffa15 	stw	r2,-24(fp)
  }

  return rc;
 180a1c8:	e0bffa17 	ldw	r2,-24(fp)
}
 180a1cc:	e037883a 	mov	sp,fp
 180a1d0:	dfc00117 	ldw	ra,4(sp)
 180a1d4:	df000017 	ldw	fp,0(sp)
 180a1d8:	dec00204 	addi	sp,sp,8
 180a1dc:	f800283a 	ret

0180a1e0 <alt_get_errno>:
#undef errno

extern int errno;

static ALT_INLINE int* alt_get_errno(void)
{
 180a1e0:	defffd04 	addi	sp,sp,-12
 180a1e4:	dfc00215 	stw	ra,8(sp)
 180a1e8:	df000115 	stw	fp,4(sp)
 180a1ec:	df000104 	addi	fp,sp,4
  return ((alt_errno) ? alt_errno() : &errno);
 180a1f0:	00806074 	movhi	r2,385
 180a1f4:	108aef04 	addi	r2,r2,11196
 180a1f8:	10800017 	ldw	r2,0(r2)
 180a1fc:	1005003a 	cmpeq	r2,r2,zero
 180a200:	1000061e 	bne	r2,zero,180a21c <alt_get_errno+0x3c>
 180a204:	00806074 	movhi	r2,385
 180a208:	108aef04 	addi	r2,r2,11196
 180a20c:	10800017 	ldw	r2,0(r2)
 180a210:	103ee83a 	callr	r2
 180a214:	e0bfff15 	stw	r2,-4(fp)
 180a218:	00000306 	br	180a228 <alt_get_errno+0x48>
 180a21c:	00806074 	movhi	r2,385
 180a220:	108afe04 	addi	r2,r2,11256
 180a224:	e0bfff15 	stw	r2,-4(fp)
 180a228:	e0bfff17 	ldw	r2,-4(fp)
}
 180a22c:	e037883a 	mov	sp,fp
 180a230:	dfc00117 	ldw	ra,4(sp)
 180a234:	df000017 	ldw	fp,0(sp)
 180a238:	dec00204 	addi	sp,sp,8
 180a23c:	f800283a 	ret

0180a240 <alt_main>:
 * devices/filesystems/components in the system; and call the entry point for
 * the users application, i.e. main().
 */

void alt_main (void)
{
 180a240:	defffd04 	addi	sp,sp,-12
 180a244:	dfc00215 	stw	ra,8(sp)
 180a248:	df000115 	stw	fp,4(sp)
 180a24c:	df000104 	addi	fp,sp,4
#endif

  /* ALT LOG - please see HAL/sys/alt_log_printf.h for details */
  ALT_LOG_PRINT_BOOT("[alt_main.c] Entering alt_main, calling alt_irq_init.\r\n");
  /* Initialize the interrupt controller. */
  alt_irq_init (NULL);
 180a250:	0009883a 	mov	r4,zero
 180a254:	180a7380 	call	180a738 <alt_irq_init>
  ALT_LOG_PRINT_BOOT("[alt_main.c] Done OS Init, calling alt_sem_create.\r\n");
  ALT_SEM_CREATE (&alt_fd_list_lock, 1);

  /* Initialize the device drivers/software components. */
  ALT_LOG_PRINT_BOOT("[alt_main.c] Calling alt_sys_init.\r\n");
  alt_sys_init();
 180a258:	180a76c0 	call	180a76c <alt_sys_init>
   * devices be present (not equal to /dev/null) and if direct drivers
   * aren't being used.
   */

    ALT_LOG_PRINT_BOOT("[alt_main.c] Redirecting IO.\r\n");
    alt_io_redirect(ALT_STDOUT, ALT_STDIN, ALT_STDERR);
 180a25c:	01006074 	movhi	r4,385
 180a260:	2102fb04 	addi	r4,r4,3052
 180a264:	01406074 	movhi	r5,385
 180a268:	2942fb04 	addi	r5,r5,3052
 180a26c:	01806074 	movhi	r6,385
 180a270:	3182fb04 	addi	r6,r6,3052
 180a274:	180f3280 	call	180f328 <alt_io_redirect>
  /* 
   * Call the C++ constructors 
   */

  ALT_LOG_PRINT_BOOT("[alt_main.c] Calling C++ constructors.\r\n");
  _do_ctors ();
 180a278:	180ee000 	call	180ee00 <_do_ctors>
   * redefined as _exit()). This is in the interest of reducing code footprint,
   * in that the atexit() overhead is removed when it's not needed.
   */

  ALT_LOG_PRINT_BOOT("[alt_main.c] Calling atexit.\r\n");
  atexit (_do_dtors);
 180a27c:	01006074 	movhi	r4,385
 180a280:	213b9904 	addi	r4,r4,-4508
 180a284:	18104300 	call	1810430 <atexit>
  ALT_LOG_PRINT_BOOT("[alt_main.c] Calling main.\r\n");

#ifdef ALT_NO_EXIT
  main (alt_argc, alt_argv, alt_envp);
#else
  result = main (alt_argc, alt_argv, alt_envp);
 180a288:	d1201b17 	ldw	r4,-32660(gp)
 180a28c:	d1601c17 	ldw	r5,-32656(gp)
 180a290:	d1a01d17 	ldw	r6,-32652(gp)
 180a294:	18000480 	call	1800048 <main>
 180a298:	e0bfff15 	stw	r2,-4(fp)
  close(STDOUT_FILENO);
 180a29c:	01000044 	movi	r4,1
 180a2a0:	1809d140 	call	1809d14 <close>
  exit (result);
 180a2a4:	e13fff17 	ldw	r4,-4(fp)
 180a2a8:	18104440 	call	1810444 <exit>

0180a2ac <__malloc_lock>:
 * configuration is single threaded, so there is nothing to do here. Note that 
 * this requires that malloc is never called by an interrupt service routine.
 */

void __malloc_lock ( struct _reent *_r )
{
 180a2ac:	defffe04 	addi	sp,sp,-8
 180a2b0:	df000115 	stw	fp,4(sp)
 180a2b4:	df000104 	addi	fp,sp,4
 180a2b8:	e13fff15 	stw	r4,-4(fp)
}
 180a2bc:	e037883a 	mov	sp,fp
 180a2c0:	df000017 	ldw	fp,0(sp)
 180a2c4:	dec00104 	addi	sp,sp,4
 180a2c8:	f800283a 	ret

0180a2cc <__malloc_unlock>:
/*
 *
 */

void __malloc_unlock ( struct _reent *_r )
{
 180a2cc:	defffe04 	addi	sp,sp,-8
 180a2d0:	df000115 	stw	fp,4(sp)
 180a2d4:	df000104 	addi	fp,sp,4
 180a2d8:	e13fff15 	stw	r4,-4(fp)
}
 180a2dc:	e037883a 	mov	sp,fp
 180a2e0:	df000017 	ldw	fp,0(sp)
 180a2e4:	dec00104 	addi	sp,sp,4
 180a2e8:	f800283a 	ret

0180a2ec <read>:
}

#else /* !ALT_USE_DIRECT_DRIVERS */

int ALT_READ (int file, void *ptr, size_t len)
{
 180a2ec:	defff704 	addi	sp,sp,-36
 180a2f0:	dfc00815 	stw	ra,32(sp)
 180a2f4:	df000715 	stw	fp,28(sp)
 180a2f8:	df000704 	addi	fp,sp,28
 180a2fc:	e13ffb15 	stw	r4,-20(fp)
 180a300:	e17ffc15 	stw	r5,-16(fp)
 180a304:	e1bffd15 	stw	r6,-12(fp)
   * A common error case is that when the file descriptor was created, the call
   * to open() failed resulting in a negative file descriptor. This is trapped
   * below so that we don't try and process an invalid file descriptor.
   */

  fd = (file < 0) ? NULL : &alt_fd_list[file];
 180a308:	e0bffb17 	ldw	r2,-20(fp)
 180a30c:	1004803a 	cmplt	r2,r2,zero
 180a310:	1000081e 	bne	r2,zero,180a334 <read+0x48>
 180a314:	e0bffb17 	ldw	r2,-20(fp)
 180a318:	10800324 	muli	r2,r2,12
 180a31c:	1007883a 	mov	r3,r2
 180a320:	00806074 	movhi	r2,385
 180a324:	1085bd04 	addi	r2,r2,5876
 180a328:	1887883a 	add	r3,r3,r2
 180a32c:	e0ffff15 	stw	r3,-4(fp)
 180a330:	00000106 	br	180a338 <read+0x4c>
 180a334:	e03fff15 	stw	zero,-4(fp)
 180a338:	e0bfff17 	ldw	r2,-4(fp)
 180a33c:	e0bffa15 	stw	r2,-24(fp)
  
  if (fd)
 180a340:	e0bffa17 	ldw	r2,-24(fp)
 180a344:	1005003a 	cmpeq	r2,r2,zero
 180a348:	1000241e 	bne	r2,zero,180a3dc <read+0xf0>
     * If the file has not been opened with read access, or if the driver does
     * not provide an implementation of read(), generate an error. Otherwise
     * call the drivers read() function to process the request.
     */

    if (((fd->fd_flags & O_ACCMODE) != O_WRONLY) && 
 180a34c:	e0bffa17 	ldw	r2,-24(fp)
 180a350:	10800217 	ldw	r2,8(r2)
 180a354:	108000cc 	andi	r2,r2,3
 180a358:	10800060 	cmpeqi	r2,r2,1
 180a35c:	10001a1e 	bne	r2,zero,180a3c8 <read+0xdc>
 180a360:	e0bffa17 	ldw	r2,-24(fp)
 180a364:	10800017 	ldw	r2,0(r2)
 180a368:	10800517 	ldw	r2,20(r2)
 180a36c:	1005003a 	cmpeq	r2,r2,zero
 180a370:	1000151e 	bne	r2,zero,180a3c8 <read+0xdc>
        (fd->dev->read))
      {
        if ((rval = fd->dev->read(fd, ptr, len)) < 0)
 180a374:	e0bffa17 	ldw	r2,-24(fp)
 180a378:	10800017 	ldw	r2,0(r2)
 180a37c:	10800517 	ldw	r2,20(r2)
 180a380:	e17ffc17 	ldw	r5,-16(fp)
 180a384:	e1bffd17 	ldw	r6,-12(fp)
 180a388:	e13ffa17 	ldw	r4,-24(fp)
 180a38c:	103ee83a 	callr	r2
 180a390:	e0bff915 	stw	r2,-28(fp)
 180a394:	e0bff917 	ldw	r2,-28(fp)
 180a398:	1004403a 	cmpge	r2,r2,zero
 180a39c:	1000071e 	bne	r2,zero,180a3bc <read+0xd0>
        {
          ALT_ERRNO = -rval;
 180a3a0:	180a40c0 	call	180a40c <alt_get_errno>
 180a3a4:	e0fff917 	ldw	r3,-28(fp)
 180a3a8:	00c7c83a 	sub	r3,zero,r3
 180a3ac:	10c00015 	stw	r3,0(r2)
          return -1;
 180a3b0:	00bfffc4 	movi	r2,-1
 180a3b4:	e0bffe15 	stw	r2,-8(fp)
 180a3b8:	00000e06 	br	180a3f4 <read+0x108>
        }
        return rval;
 180a3bc:	e0bff917 	ldw	r2,-28(fp)
 180a3c0:	e0bffe15 	stw	r2,-8(fp)
 180a3c4:	00000b06 	br	180a3f4 <read+0x108>
      }
      else
      {
        ALT_ERRNO = EACCES;
 180a3c8:	180a40c0 	call	180a40c <alt_get_errno>
 180a3cc:	1007883a 	mov	r3,r2
 180a3d0:	00800344 	movi	r2,13
 180a3d4:	18800015 	stw	r2,0(r3)
 180a3d8:	00000406 	br	180a3ec <read+0x100>
      }
    }
  else
  {
    ALT_ERRNO = EBADFD;
 180a3dc:	180a40c0 	call	180a40c <alt_get_errno>
 180a3e0:	1007883a 	mov	r3,r2
 180a3e4:	00801444 	movi	r2,81
 180a3e8:	18800015 	stw	r2,0(r3)
  }
  return -1;
 180a3ec:	00bfffc4 	movi	r2,-1
 180a3f0:	e0bffe15 	stw	r2,-8(fp)
 180a3f4:	e0bffe17 	ldw	r2,-8(fp)
}
 180a3f8:	e037883a 	mov	sp,fp
 180a3fc:	dfc00117 	ldw	ra,4(sp)
 180a400:	df000017 	ldw	fp,0(sp)
 180a404:	dec00204 	addi	sp,sp,8
 180a408:	f800283a 	ret

0180a40c <alt_get_errno>:
#undef errno

extern int errno;

static ALT_INLINE int* alt_get_errno(void)
{
 180a40c:	defffd04 	addi	sp,sp,-12
 180a410:	dfc00215 	stw	ra,8(sp)
 180a414:	df000115 	stw	fp,4(sp)
 180a418:	df000104 	addi	fp,sp,4
  return ((alt_errno) ? alt_errno() : &errno);
 180a41c:	00806074 	movhi	r2,385
 180a420:	108aef04 	addi	r2,r2,11196
 180a424:	10800017 	ldw	r2,0(r2)
 180a428:	1005003a 	cmpeq	r2,r2,zero
 180a42c:	1000061e 	bne	r2,zero,180a448 <alt_get_errno+0x3c>
 180a430:	00806074 	movhi	r2,385
 180a434:	108aef04 	addi	r2,r2,11196
 180a438:	10800017 	ldw	r2,0(r2)
 180a43c:	103ee83a 	callr	r2
 180a440:	e0bfff15 	stw	r2,-4(fp)
 180a444:	00000306 	br	180a454 <alt_get_errno+0x48>
 180a448:	00806074 	movhi	r2,385
 180a44c:	108afe04 	addi	r2,r2,11256
 180a450:	e0bfff15 	stw	r2,-4(fp)
 180a454:	e0bfff17 	ldw	r2,-4(fp)
}
 180a458:	e037883a 	mov	sp,fp
 180a45c:	dfc00117 	ldw	ra,4(sp)
 180a460:	df000017 	ldw	fp,0(sp)
 180a464:	dec00204 	addi	sp,sp,8
 180a468:	f800283a 	ret

0180a46c <alt_release_fd>:
 * File descriptors correcponding to standard in, standard out and standard 
 * error cannont be released backed to the pool. They are always reserved.
 */

void alt_release_fd (int fd)
{
 180a46c:	defffe04 	addi	sp,sp,-8
 180a470:	df000115 	stw	fp,4(sp)
 180a474:	df000104 	addi	fp,sp,4
 180a478:	e13fff15 	stw	r4,-4(fp)
  if (fd > 2)
 180a47c:	e0bfff17 	ldw	r2,-4(fp)
 180a480:	108000d0 	cmplti	r2,r2,3
 180a484:	10000d1e 	bne	r2,zero,180a4bc <alt_release_fd+0x50>
  {
    alt_fd_list[fd].fd_flags = 0;
 180a488:	e0bfff17 	ldw	r2,-4(fp)
 180a48c:	00c06074 	movhi	r3,385
 180a490:	18c5bd04 	addi	r3,r3,5876
 180a494:	10800324 	muli	r2,r2,12
 180a498:	10c5883a 	add	r2,r2,r3
 180a49c:	10800204 	addi	r2,r2,8
 180a4a0:	10000015 	stw	zero,0(r2)
    alt_fd_list[fd].dev      = 0;
 180a4a4:	e0bfff17 	ldw	r2,-4(fp)
 180a4a8:	00c06074 	movhi	r3,385
 180a4ac:	18c5bd04 	addi	r3,r3,5876
 180a4b0:	10800324 	muli	r2,r2,12
 180a4b4:	10c5883a 	add	r2,r2,r3
 180a4b8:	10000015 	stw	zero,0(r2)
  }
}
 180a4bc:	e037883a 	mov	sp,fp
 180a4c0:	df000017 	ldw	fp,0(sp)
 180a4c4:	dec00104 	addi	sp,sp,4
 180a4c8:	f800283a 	ret

0180a4cc <sbrk>:
#endif
 
caddr_t ALT_SBRK (int incr) __attribute__ ((no_instrument_function ));

caddr_t ALT_SBRK (int incr)
{ 
 180a4cc:	defff804 	addi	sp,sp,-32
 180a4d0:	df000715 	stw	fp,28(sp)
 180a4d4:	df000704 	addi	fp,sp,28
 180a4d8:	e13ffe15 	stw	r4,-8(fp)
static ALT_INLINE alt_irq_context ALT_ALWAYS_INLINE 
       alt_irq_disable_all (void)
{
  alt_irq_context context;

  NIOS2_READ_STATUS (context);
 180a4dc:	0005303a 	rdctl	r2,status
 180a4e0:	e0bffb15 	stw	r2,-20(fp)

  NIOS2_WRITE_STATUS (context & ~NIOS2_STATUS_PIE_MSK);
 180a4e4:	e0fffb17 	ldw	r3,-20(fp)
 180a4e8:	00bfff84 	movi	r2,-2
 180a4ec:	1884703a 	and	r2,r3,r2
 180a4f0:	1001703a 	wrctl	status,r2
  
  return context;
 180a4f4:	e0bffb17 	ldw	r2,-20(fp)
  alt_irq_context context;
  char *prev_heap_end; 

  context = alt_irq_disable_all();
 180a4f8:	e0bffd15 	stw	r2,-12(fp)

  /* Always return data aligned on a word boundary */
  heap_end = (char *)(((unsigned int)heap_end + 3) & ~3);
 180a4fc:	d0a00c17 	ldw	r2,-32720(gp)
 180a500:	10c000c4 	addi	r3,r2,3
 180a504:	00bfff04 	movi	r2,-4
 180a508:	1884703a 	and	r2,r3,r2
 180a50c:	d0a00c15 	stw	r2,-32720(gp)
  if (((heap_end + incr) - __alt_heap_start) > ALT_MAX_HEAP_BYTES) {
    alt_irq_enable_all(context);
    return (caddr_t)-1;
  }
#else
  if ((heap_end + incr) > __alt_heap_limit) {
 180a510:	d0e00c17 	ldw	r3,-32720(gp)
 180a514:	e0bffe17 	ldw	r2,-8(fp)
 180a518:	1887883a 	add	r3,r3,r2
 180a51c:	00808034 	movhi	r2,512
 180a520:	10800004 	addi	r2,r2,0
 180a524:	10c0072e 	bgeu	r2,r3,180a544 <sbrk+0x78>
 180a528:	e0bffd17 	ldw	r2,-12(fp)
 180a52c:	e0bffa15 	stw	r2,-24(fp)
  status &= ~NIOS2_STATUS_PIE_MSK;
  status |= (context & NIOS2_STATUS_PIE_MSK);
  
  NIOS2_WRITE_STATUS (status);
#else
  NIOS2_WRITE_STATUS (context);
 180a530:	e0bffa17 	ldw	r2,-24(fp)
 180a534:	1001703a 	wrctl	status,r2
    alt_irq_enable_all(context);
    return (caddr_t)-1;
 180a538:	00bfffc4 	movi	r2,-1
 180a53c:	e0bfff15 	stw	r2,-4(fp)
 180a540:	00000c06 	br	180a574 <sbrk+0xa8>
  }
#endif

  prev_heap_end = heap_end; 
 180a544:	d0a00c17 	ldw	r2,-32720(gp)
 180a548:	e0bffc15 	stw	r2,-16(fp)
  heap_end += incr; 
 180a54c:	d0e00c17 	ldw	r3,-32720(gp)
 180a550:	e0bffe17 	ldw	r2,-8(fp)
 180a554:	1885883a 	add	r2,r3,r2
 180a558:	d0a00c15 	stw	r2,-32720(gp)
 180a55c:	e0bffd17 	ldw	r2,-12(fp)
 180a560:	e0bff915 	stw	r2,-28(fp)
 180a564:	e0bff917 	ldw	r2,-28(fp)
 180a568:	1001703a 	wrctl	status,r2

#endif

  alt_irq_enable_all(context);

  return (caddr_t) prev_heap_end; 
 180a56c:	e0bffc17 	ldw	r2,-16(fp)
 180a570:	e0bfff15 	stw	r2,-4(fp)
 180a574:	e0bfff17 	ldw	r2,-4(fp)
} 
 180a578:	e037883a 	mov	sp,fp
 180a57c:	df000017 	ldw	fp,0(sp)
 180a580:	dec00104 	addi	sp,sp,4
 180a584:	f800283a 	ret

0180a588 <usleep>:
#if defined (__GNUC__) && __GNUC__ >= 4
int ALT_USLEEP (useconds_t us)
#else
unsigned int ALT_USLEEP (unsigned int us)
#endif
{
 180a588:	defffd04 	addi	sp,sp,-12
 180a58c:	dfc00215 	stw	ra,8(sp)
 180a590:	df000115 	stw	fp,4(sp)
 180a594:	df000104 	addi	fp,sp,4
 180a598:	e13fff15 	stw	r4,-4(fp)
  return alt_busy_sleep(us);
 180a59c:	e13fff17 	ldw	r4,-4(fp)
 180a5a0:	180eb480 	call	180eb48 <alt_busy_sleep>
}
 180a5a4:	e037883a 	mov	sp,fp
 180a5a8:	dfc00117 	ldw	ra,4(sp)
 180a5ac:	df000017 	ldw	fp,0(sp)
 180a5b0:	dec00204 	addi	sp,sp,8
 180a5b4:	f800283a 	ret

0180a5b8 <write>:
}

#else /* !ALT_USE_DIRECT_DRIVERS */

int ALT_WRITE (int file, const void *ptr, size_t len)
{
 180a5b8:	defff704 	addi	sp,sp,-36
 180a5bc:	dfc00815 	stw	ra,32(sp)
 180a5c0:	df000715 	stw	fp,28(sp)
 180a5c4:	df000704 	addi	fp,sp,28
 180a5c8:	e13ffb15 	stw	r4,-20(fp)
 180a5cc:	e17ffc15 	stw	r5,-16(fp)
 180a5d0:	e1bffd15 	stw	r6,-12(fp)
   * A common error case is that when the file descriptor was created, the call
   * to open() failed resulting in a negative file descriptor. This is trapped
   * below so that we don't try and process an invalid file descriptor.
   */

  fd = (file < 0) ? NULL : &alt_fd_list[file];
 180a5d4:	e0bffb17 	ldw	r2,-20(fp)
 180a5d8:	1004803a 	cmplt	r2,r2,zero
 180a5dc:	1000081e 	bne	r2,zero,180a600 <write+0x48>
 180a5e0:	e0bffb17 	ldw	r2,-20(fp)
 180a5e4:	10800324 	muli	r2,r2,12
 180a5e8:	1007883a 	mov	r3,r2
 180a5ec:	00806074 	movhi	r2,385
 180a5f0:	1085bd04 	addi	r2,r2,5876
 180a5f4:	1887883a 	add	r3,r3,r2
 180a5f8:	e0ffff15 	stw	r3,-4(fp)
 180a5fc:	00000106 	br	180a604 <write+0x4c>
 180a600:	e03fff15 	stw	zero,-4(fp)
 180a604:	e0bfff17 	ldw	r2,-4(fp)
 180a608:	e0bffa15 	stw	r2,-24(fp)
  
  if (fd)
 180a60c:	e0bffa17 	ldw	r2,-24(fp)
 180a610:	1005003a 	cmpeq	r2,r2,zero
 180a614:	1000241e 	bne	r2,zero,180a6a8 <write+0xf0>
     * If the file has not been opened with write access, or if the driver does
     * not provide an implementation of write(), generate an error. Otherwise
     * call the drivers write() function to process the request.
     */

    if (((fd->fd_flags & O_ACCMODE) != O_RDONLY) && fd->dev->write)
 180a618:	e0bffa17 	ldw	r2,-24(fp)
 180a61c:	10800217 	ldw	r2,8(r2)
 180a620:	108000cc 	andi	r2,r2,3
 180a624:	1005003a 	cmpeq	r2,r2,zero
 180a628:	10001a1e 	bne	r2,zero,180a694 <write+0xdc>
 180a62c:	e0bffa17 	ldw	r2,-24(fp)
 180a630:	10800017 	ldw	r2,0(r2)
 180a634:	10800617 	ldw	r2,24(r2)
 180a638:	1005003a 	cmpeq	r2,r2,zero
 180a63c:	1000151e 	bne	r2,zero,180a694 <write+0xdc>
    {
      
      /* ALT_LOG - see altera_hal/HAL/inc/sys/alt_log_printf.h */
      ALT_LOG_WRITE_FUNCTION(ptr,len);

      if ((rval = fd->dev->write(fd, ptr, len)) < 0)
 180a640:	e0bffa17 	ldw	r2,-24(fp)
 180a644:	10800017 	ldw	r2,0(r2)
 180a648:	10800617 	ldw	r2,24(r2)
 180a64c:	e17ffc17 	ldw	r5,-16(fp)
 180a650:	e1bffd17 	ldw	r6,-12(fp)
 180a654:	e13ffa17 	ldw	r4,-24(fp)
 180a658:	103ee83a 	callr	r2
 180a65c:	e0bff915 	stw	r2,-28(fp)
 180a660:	e0bff917 	ldw	r2,-28(fp)
 180a664:	1004403a 	cmpge	r2,r2,zero
 180a668:	1000071e 	bne	r2,zero,180a688 <write+0xd0>
      {
        ALT_ERRNO = -rval;
 180a66c:	180a6d80 	call	180a6d8 <alt_get_errno>
 180a670:	e0fff917 	ldw	r3,-28(fp)
 180a674:	00c7c83a 	sub	r3,zero,r3
 180a678:	10c00015 	stw	r3,0(r2)
        return -1;
 180a67c:	00bfffc4 	movi	r2,-1
 180a680:	e0bffe15 	stw	r2,-8(fp)
 180a684:	00000e06 	br	180a6c0 <write+0x108>
      }
      return rval;
 180a688:	e0bff917 	ldw	r2,-28(fp)
 180a68c:	e0bffe15 	stw	r2,-8(fp)
 180a690:	00000b06 	br	180a6c0 <write+0x108>
    }
    else
    {
      ALT_ERRNO = EACCES;
 180a694:	180a6d80 	call	180a6d8 <alt_get_errno>
 180a698:	1007883a 	mov	r3,r2
 180a69c:	00800344 	movi	r2,13
 180a6a0:	18800015 	stw	r2,0(r3)
 180a6a4:	00000406 	br	180a6b8 <write+0x100>
    }
  }
  else  
  {
    ALT_ERRNO = EBADFD;
 180a6a8:	180a6d80 	call	180a6d8 <alt_get_errno>
 180a6ac:	1007883a 	mov	r3,r2
 180a6b0:	00801444 	movi	r2,81
 180a6b4:	18800015 	stw	r2,0(r3)
  }
  return -1;
 180a6b8:	00bfffc4 	movi	r2,-1
 180a6bc:	e0bffe15 	stw	r2,-8(fp)
 180a6c0:	e0bffe17 	ldw	r2,-8(fp)
}
 180a6c4:	e037883a 	mov	sp,fp
 180a6c8:	dfc00117 	ldw	ra,4(sp)
 180a6cc:	df000017 	ldw	fp,0(sp)
 180a6d0:	dec00204 	addi	sp,sp,8
 180a6d4:	f800283a 	ret

0180a6d8 <alt_get_errno>:
#undef errno

extern int errno;

static ALT_INLINE int* alt_get_errno(void)
{
 180a6d8:	defffd04 	addi	sp,sp,-12
 180a6dc:	dfc00215 	stw	ra,8(sp)
 180a6e0:	df000115 	stw	fp,4(sp)
 180a6e4:	df000104 	addi	fp,sp,4
  return ((alt_errno) ? alt_errno() : &errno);
 180a6e8:	00806074 	movhi	r2,385
 180a6ec:	108aef04 	addi	r2,r2,11196
 180a6f0:	10800017 	ldw	r2,0(r2)
 180a6f4:	1005003a 	cmpeq	r2,r2,zero
 180a6f8:	1000061e 	bne	r2,zero,180a714 <alt_get_errno+0x3c>
 180a6fc:	00806074 	movhi	r2,385
 180a700:	108aef04 	addi	r2,r2,11196
 180a704:	10800017 	ldw	r2,0(r2)
 180a708:	103ee83a 	callr	r2
 180a70c:	e0bfff15 	stw	r2,-4(fp)
 180a710:	00000306 	br	180a720 <alt_get_errno+0x48>
 180a714:	00806074 	movhi	r2,385
 180a718:	108afe04 	addi	r2,r2,11256
 180a71c:	e0bfff15 	stw	r2,-4(fp)
 180a720:	e0bfff17 	ldw	r2,-4(fp)
}
 180a724:	e037883a 	mov	sp,fp
 180a728:	dfc00117 	ldw	ra,4(sp)
 180a72c:	df000017 	ldw	fp,0(sp)
 180a730:	dec00204 	addi	sp,sp,8
 180a734:	f800283a 	ret

0180a738 <alt_irq_init>:
 * The "base" parameter is ignored and only
 * present for backwards-compatibility.
 */

void alt_irq_init ( const void* base )
{
 180a738:	defffd04 	addi	sp,sp,-12
 180a73c:	dfc00215 	stw	ra,8(sp)
 180a740:	df000115 	stw	fp,4(sp)
 180a744:	df000104 	addi	fp,sp,4
 180a748:	e13fff15 	stw	r4,-4(fp)
    ALTERA_NIOS2_IRQ_INIT ( CPU, cpu);
 180a74c:	180f8080 	call	180f808 <altera_nios2_irq_init>
 * alt_irq_cpu_enable_interrupts() enables the CPU to start taking interrupts.
 */
static ALT_INLINE void ALT_ALWAYS_INLINE 
       alt_irq_cpu_enable_interrupts ()
{
    NIOS2_WRITE_STATUS(NIOS2_STATUS_PIE_MSK
 180a750:	00800044 	movi	r2,1
 180a754:	1001703a 	wrctl	status,r2
    alt_irq_cpu_enable_interrupts();
}
 180a758:	e037883a 	mov	sp,fp
 180a75c:	dfc00117 	ldw	ra,4(sp)
 180a760:	df000017 	ldw	fp,0(sp)
 180a764:	dec00204 	addi	sp,sp,8
 180a768:	f800283a 	ret

0180a76c <alt_sys_init>:
 * Initialize the non-interrupt controller devices.
 * Called after alt_irq_init().
 */

void alt_sys_init( void )
{
 180a76c:	defffe04 	addi	sp,sp,-8
 180a770:	dfc00115 	stw	ra,4(sp)
 180a774:	df000015 	stw	fp,0(sp)
 180a778:	d839883a 	mov	fp,sp
    ALTERA_AVALON_TIMER_INIT ( PROFILE_TIMER, profile_timer);
 180a77c:	0009883a 	mov	r4,zero
 180a780:	000b883a 	mov	r5,zero
 180a784:	01800144 	movi	r6,5
 180a788:	01d38804 	movi	r7,20000
 180a78c:	180dfb40 	call	180dfb4 <alt_avalon_timer_sc_init>
    ALTERA_AVALON_TIMER_INIT ( TIMER, timer);
    ALTERA_AVALON_TIMER_INIT ( USER_TIMER, user_timer);
    ALTERA_AVALON_CFI_FLASH_INIT ( CFI_FLASH, cfi_flash);
 180a790:	01006074 	movhi	r4,385
 180a794:	21061d04 	addi	r4,r4,6260
 180a798:	180a8400 	call	180a840 <alt_flash_cfi_init>
    ALTERA_AVALON_JTAG_UART_INIT ( JTAG_UART, jtag_uart);
 180a79c:	01006074 	movhi	r4,385
 180a7a0:	21065d04 	addi	r4,r4,6516
 180a7a4:	000b883a 	mov	r5,zero
 180a7a8:	000d883a 	mov	r6,zero
 180a7ac:	180c6a80 	call	180c6a8 <altera_avalon_jtag_uart_init>
 180a7b0:	01006074 	movhi	r4,385
 180a7b4:	21065304 	addi	r4,r4,6476
 180a7b8:	180a8080 	call	180a808 <alt_dev_reg>
    ALTERA_AVALON_LCD_16207_INIT ( LCD, lcd);
 180a7bc:	01006074 	movhi	r4,385
 180a7c0:	210a7504 	addi	r4,r4,10708
 180a7c4:	180ddb00 	call	180ddb0 <altera_avalon_lcd_16207_init>
 180a7c8:	01006074 	movhi	r4,385
 180a7cc:	210a6b04 	addi	r4,r4,10668
 180a7d0:	180a8080 	call	180a808 <alt_dev_reg>
    ALTERA_AVALON_SYSID_INIT ( SYSID, sysid);
    ALTERA_AVALON_UART_INIT ( UART, uart);
 180a7d4:	01006074 	movhi	r4,385
 180a7d8:	210abd04 	addi	r4,r4,10996
 180a7dc:	000b883a 	mov	r5,zero
 180a7e0:	01800044 	movi	r6,1
 180a7e4:	180e13c0 	call	180e13c <altera_avalon_uart_init>
 180a7e8:	01006074 	movhi	r4,385
 180a7ec:	210ab304 	addi	r4,r4,10956
 180a7f0:	180a8080 	call	180a808 <alt_dev_reg>
}
 180a7f4:	e037883a 	mov	sp,fp
 180a7f8:	dfc00117 	ldw	ra,4(sp)
 180a7fc:	df000017 	ldw	fp,0(sp)
 180a800:	dec00204 	addi	sp,sp,8
 180a804:	f800283a 	ret

0180a808 <alt_dev_reg>:
 */

extern int alt_fs_reg  (alt_dev* dev); 

static ALT_INLINE int alt_dev_reg (alt_dev* dev)
{
 180a808:	defffd04 	addi	sp,sp,-12
 180a80c:	dfc00215 	stw	ra,8(sp)
 180a810:	df000115 	stw	fp,4(sp)
 180a814:	df000104 	addi	fp,sp,4
 180a818:	e13fff15 	stw	r4,-4(fp)
  extern alt_llist alt_dev_list;

  return alt_dev_llist_insert ((alt_dev_llist*) dev, &alt_dev_list);
 180a81c:	e13fff17 	ldw	r4,-4(fp)
 180a820:	01406074 	movhi	r5,385
 180a824:	294aec04 	addi	r5,r5,11184
 180a828:	180ecec0 	call	180ecec <alt_dev_llist_insert>
}
 180a82c:	e037883a 	mov	sp,fp
 180a830:	dfc00117 	ldw	ra,4(sp)
 180a834:	df000017 	ldw	fp,0(sp)
 180a838:	dec00204 	addi	sp,sp,8
 180a83c:	f800283a 	ret

0180a840 <alt_flash_cfi_init>:
 * Read the CFI table and fill out the alt_flash_cfi_dev structure with all the 
 * information we need to program the flash.
 * 
 */
int alt_flash_cfi_init( alt_flash_cfi_dev* flash  )
{
 180a840:	defffc04 	addi	sp,sp,-16
 180a844:	dfc00315 	stw	ra,12(sp)
 180a848:	df000215 	stw	fp,8(sp)
 180a84c:	df000204 	addi	fp,sp,8
 180a850:	e13fff15 	stw	r4,-4(fp)
  int ret_code = 0;
 180a854:	e03ffe15 	stw	zero,-8(fp)
 
  ret_code = alt_read_cfi_width( flash );
 180a858:	e13fff17 	ldw	r4,-4(fp)
 180a85c:	180bcd80 	call	180bcd8 <alt_read_cfi_width>
 180a860:	e0bffe15 	stw	r2,-8(fp)
  
  if (!ret_code)
 180a864:	e0bffe17 	ldw	r2,-8(fp)
 180a868:	1004c03a 	cmpne	r2,r2,zero
 180a86c:	1000031e 	bne	r2,zero,180a87c <alt_flash_cfi_init+0x3c>
    ret_code = alt_set_flash_width_func( flash );
 180a870:	e13fff17 	ldw	r4,-4(fp)
 180a874:	180b4500 	call	180b450 <alt_set_flash_width_func>
 180a878:	e0bffe15 	stw	r2,-8(fp)
  
  if (!ret_code)
 180a87c:	e0bffe17 	ldw	r2,-8(fp)
 180a880:	1004c03a 	cmpne	r2,r2,zero
 180a884:	1000031e 	bne	r2,zero,180a894 <alt_flash_cfi_init+0x54>
    ret_code = alt_read_cfi_table( flash );
 180a888:	e13fff17 	ldw	r4,-4(fp)
 180a88c:	180b7580 	call	180b758 <alt_read_cfi_table>
 180a890:	e0bffe15 	stw	r2,-8(fp)

  if (!ret_code) 
 180a894:	e0bffe17 	ldw	r2,-8(fp)
 180a898:	1004c03a 	cmpne	r2,r2,zero
 180a89c:	1000031e 	bne	r2,zero,180a8ac <alt_flash_cfi_init+0x6c>
    ret_code = alt_set_flash_algorithm_func( flash);
 180a8a0:	e13fff17 	ldw	r4,-4(fp)
 180a8a4:	180b6300 	call	180b630 <alt_set_flash_algorithm_func>
 180a8a8:	e0bffe15 	stw	r2,-8(fp)

  /*
  *  Register this device as a valid flash device type
  */ 
  if (!ret_code)
 180a8ac:	e0bffe17 	ldw	r2,-8(fp)
 180a8b0:	1004c03a 	cmpne	r2,r2,zero
 180a8b4:	1000031e 	bne	r2,zero,180a8c4 <alt_flash_cfi_init+0x84>
    ret_code = alt_flash_device_register(&(flash->dev));
 180a8b8:	e13fff17 	ldw	r4,-4(fp)
 180a8bc:	180a8dc0 	call	180a8dc <alt_flash_device_register>
 180a8c0:	e0bffe15 	stw	r2,-8(fp)
 
  return ret_code;
 180a8c4:	e0bffe17 	ldw	r2,-8(fp)
}
 180a8c8:	e037883a 	mov	sp,fp
 180a8cc:	dfc00117 	ldw	ra,4(sp)
 180a8d0:	df000017 	ldw	fp,0(sp)
 180a8d4:	dec00204 	addi	sp,sp,8
 180a8d8:	f800283a 	ret

0180a8dc <alt_flash_device_register>:

typedef struct alt_flash_dev alt_flash_dev; 
typedef alt_flash_dev alt_flash_fd;

static ALT_INLINE int alt_flash_device_register( alt_flash_fd* fd)
{
 180a8dc:	defffd04 	addi	sp,sp,-12
 180a8e0:	dfc00215 	stw	ra,8(sp)
 180a8e4:	df000115 	stw	fp,4(sp)
 180a8e8:	df000104 	addi	fp,sp,4
 180a8ec:	e13fff15 	stw	r4,-4(fp)
  extern alt_llist alt_flash_dev_list;

  return alt_dev_llist_insert ((alt_dev_llist*) fd, &alt_flash_dev_list);
 180a8f0:	e13fff17 	ldw	r4,-4(fp)
 180a8f4:	01406074 	movhi	r5,385
 180a8f8:	294af204 	addi	r5,r5,11208
 180a8fc:	180ecec0 	call	180ecec <alt_dev_llist_insert>
}
 180a900:	e037883a 	mov	sp,fp
 180a904:	dfc00117 	ldw	ra,4(sp)
 180a908:	df000017 	ldw	fp,0(sp)
 180a90c:	dec00204 	addi	sp,sp,8
 180a910:	f800283a 	ret

0180a914 <alt_flash_cfi_write>:
 * large buffer to tie up in our programming library, when not all users will 
 * want that functionality.
 */
 int alt_flash_cfi_write( alt_flash_dev* flash_info, int offset, 
                          const void* src_addr, int length )
 {
 180a914:	deffef04 	addi	sp,sp,-68
 180a918:	dfc01015 	stw	ra,64(sp)
 180a91c:	df000f15 	stw	fp,60(sp)
 180a920:	df000f04 	addi	fp,sp,60
 180a924:	e13ffa15 	stw	r4,-24(fp)
 180a928:	e17ffb15 	stw	r5,-20(fp)
 180a92c:	e1bffc15 	stw	r6,-16(fp)
 180a930:	e1fffd15 	stw	r7,-12(fp)
  int         ret_code = 0;
 180a934:	e03ff915 	stw	zero,-28(fp)
  int         i,j;
  int         data_to_write;
  int         full_length = length;
 180a938:	e0bffd17 	ldw	r2,-12(fp)
 180a93c:	e0bff515 	stw	r2,-44(fp)
  int         current_offset;
  int         start_offset = offset;
 180a940:	e0bffb17 	ldw	r2,-20(fp)
 180a944:	e0bff315 	stw	r2,-52(fp)
  alt_flash_cfi_dev* flash = (alt_flash_cfi_dev*)flash_info;
 180a948:	e0bffa17 	ldw	r2,-24(fp)
 180a94c:	e0bff215 	stw	r2,-56(fp)

  /*
   * First and foremost which sectors are affected?
   */   
  for(i=0;i<flash->dev.number_of_regions;i++)
 180a950:	e03ff815 	stw	zero,-32(fp)
 180a954:	00008e06 	br	180ab90 <alt_flash_cfi_write+0x27c>
  {
    /* Is it in this erase block region?*/
    if((offset >= flash->dev.region_info[i].offset) &&
 180a958:	e0bff817 	ldw	r2,-32(fp)
 180a95c:	e0fff217 	ldw	r3,-56(fp)
 180a960:	1004913a 	slli	r2,r2,4
 180a964:	10c5883a 	add	r2,r2,r3
 180a968:	10800d04 	addi	r2,r2,52
 180a96c:	10c00017 	ldw	r3,0(r2)
 180a970:	e0bffb17 	ldw	r2,-20(fp)
 180a974:	10c08316 	blt	r2,r3,180ab84 <alt_flash_cfi_write+0x270>
 180a978:	e0bff817 	ldw	r2,-32(fp)
 180a97c:	e0fff217 	ldw	r3,-56(fp)
 180a980:	1004913a 	slli	r2,r2,4
 180a984:	10c5883a 	add	r2,r2,r3
 180a988:	10800d04 	addi	r2,r2,52
 180a98c:	11000017 	ldw	r4,0(r2)
 180a990:	e0bff817 	ldw	r2,-32(fp)
 180a994:	e0fff217 	ldw	r3,-56(fp)
 180a998:	1004913a 	slli	r2,r2,4
 180a99c:	10c5883a 	add	r2,r2,r3
 180a9a0:	10800e04 	addi	r2,r2,56
 180a9a4:	10800017 	ldw	r2,0(r2)
 180a9a8:	2087883a 	add	r3,r4,r2
 180a9ac:	e0bffb17 	ldw	r2,-20(fp)
 180a9b0:	10c0740e 	bge	r2,r3,180ab84 <alt_flash_cfi_write+0x270>
      (offset < (flash->dev.region_info[i].offset + 
      flash->dev.region_info[i].region_size)))
    {
      current_offset = flash->dev.region_info[i].offset;
 180a9b4:	e0bff817 	ldw	r2,-32(fp)
 180a9b8:	e0fff217 	ldw	r3,-56(fp)
 180a9bc:	1004913a 	slli	r2,r2,4
 180a9c0:	10c5883a 	add	r2,r2,r3
 180a9c4:	10800d04 	addi	r2,r2,52
 180a9c8:	10800017 	ldw	r2,0(r2)
 180a9cc:	e0bff415 	stw	r2,-48(fp)

      for(j=0;j<flash->dev.region_info[i].number_of_blocks;j++)
 180a9d0:	e03ff715 	stw	zero,-36(fp)
 180a9d4:	00006306 	br	180ab64 <alt_flash_cfi_write+0x250>
      {
        if ((offset >= current_offset ) && 
 180a9d8:	e0fffb17 	ldw	r3,-20(fp)
 180a9dc:	e0bff417 	ldw	r2,-48(fp)
 180a9e0:	18805416 	blt	r3,r2,180ab34 <alt_flash_cfi_write+0x220>
 180a9e4:	e0bff817 	ldw	r2,-32(fp)
 180a9e8:	e0fff217 	ldw	r3,-56(fp)
 180a9ec:	1004913a 	slli	r2,r2,4
 180a9f0:	10c5883a 	add	r2,r2,r3
 180a9f4:	10801004 	addi	r2,r2,64
 180a9f8:	10c00017 	ldw	r3,0(r2)
 180a9fc:	e0bff417 	ldw	r2,-48(fp)
 180aa00:	1887883a 	add	r3,r3,r2
 180aa04:	e0bffb17 	ldw	r2,-20(fp)
 180aa08:	10c04a0e 	bge	r2,r3,180ab34 <alt_flash_cfi_write+0x220>
        {
          /*
           * Check if the contents of the block are different
           * from the data we wish to put there
           */
          data_to_write = ( current_offset + flash->dev.region_info[i].block_size 
 180aa0c:	e0bff817 	ldw	r2,-32(fp)
 180aa10:	e0fff217 	ldw	r3,-56(fp)
 180aa14:	1004913a 	slli	r2,r2,4
 180aa18:	10c5883a 	add	r2,r2,r3
 180aa1c:	10801004 	addi	r2,r2,64
 180aa20:	10c00017 	ldw	r3,0(r2)
 180aa24:	e0bff417 	ldw	r2,-48(fp)
 180aa28:	1887883a 	add	r3,r3,r2
 180aa2c:	e0bffb17 	ldw	r2,-20(fp)
 180aa30:	1885c83a 	sub	r2,r3,r2
 180aa34:	e0bff615 	stw	r2,-40(fp)
                            - offset); 
          data_to_write = MIN(data_to_write, length);
 180aa38:	e0bff617 	ldw	r2,-40(fp)
 180aa3c:	e0bfff15 	stw	r2,-4(fp)
 180aa40:	e0fffd17 	ldw	r3,-12(fp)
 180aa44:	e0fffe15 	stw	r3,-8(fp)
 180aa48:	e0bfff17 	ldw	r2,-4(fp)
 180aa4c:	e0fffe17 	ldw	r3,-8(fp)
 180aa50:	10c0020e 	bge	r2,r3,180aa5c <alt_flash_cfi_write+0x148>
 180aa54:	e0bfff17 	ldw	r2,-4(fp)
 180aa58:	e0bffe15 	stw	r2,-8(fp)
 180aa5c:	e0fffe17 	ldw	r3,-8(fp)
 180aa60:	e0fff615 	stw	r3,-40(fp)
          if(memcmp(src_addr, 
 180aa64:	e0bff217 	ldw	r2,-56(fp)
 180aa68:	10800a17 	ldw	r2,40(r2)
 180aa6c:	1007883a 	mov	r3,r2
 180aa70:	e0bffb17 	ldw	r2,-20(fp)
 180aa74:	188b883a 	add	r5,r3,r2
 180aa78:	e1bff617 	ldw	r6,-40(fp)
 180aa7c:	e13ffc17 	ldw	r4,-16(fp)
 180aa80:	181047c0 	call	181047c <memcmp>
 180aa84:	1005003a 	cmpeq	r2,r2,zero
 180aa88:	1000131e 	bne	r2,zero,180aad8 <alt_flash_cfi_write+0x1c4>
                    (alt_u8*)flash->dev.base_addr+offset,
                    data_to_write))
          {
            ret_code = (*flash->dev.erase_block)( &flash->dev, current_offset);
 180aa8c:	e0bff217 	ldw	r2,-56(fp)
 180aa90:	10800817 	ldw	r2,32(r2)
 180aa94:	e13ff217 	ldw	r4,-56(fp)
 180aa98:	e17ff417 	ldw	r5,-48(fp)
 180aa9c:	103ee83a 	callr	r2
 180aaa0:	e0bff915 	stw	r2,-28(fp)

            if (!ret_code)
 180aaa4:	e0bff917 	ldw	r2,-28(fp)
 180aaa8:	1004c03a 	cmpne	r2,r2,zero
 180aaac:	10000a1e 	bne	r2,zero,180aad8 <alt_flash_cfi_write+0x1c4>
            {
              ret_code = (*flash->dev.write_block)( 
 180aab0:	e0bff217 	ldw	r2,-56(fp)
 180aab4:	10c00917 	ldw	r3,36(r2)
 180aab8:	e13ff217 	ldw	r4,-56(fp)
 180aabc:	e0bff617 	ldw	r2,-40(fp)
 180aac0:	d8800015 	stw	r2,0(sp)
 180aac4:	e17ff417 	ldw	r5,-48(fp)
 180aac8:	e1bffb17 	ldw	r6,-20(fp)
 180aacc:	e1fffc17 	ldw	r7,-16(fp)
 180aad0:	183ee83a 	callr	r3
 180aad4:	e0bff915 	stw	r2,-28(fp)
                                                  data_to_write);
            }
          }    
    
          /* Was this the last block? */    
          if ((length == data_to_write) || ret_code)
 180aad8:	e0fffd17 	ldw	r3,-12(fp)
 180aadc:	e0bff617 	ldw	r2,-40(fp)
 180aae0:	18802f26 	beq	r3,r2,180aba0 <alt_flash_cfi_write+0x28c>
 180aae4:	e0bff917 	ldw	r2,-28(fp)
 180aae8:	1004c03a 	cmpne	r2,r2,zero
 180aaec:	10002c1e 	bne	r2,zero,180aba0 <alt_flash_cfi_write+0x28c>
          {
            goto finished;
          }
          
          length -= data_to_write;
 180aaf0:	e0fffd17 	ldw	r3,-12(fp)
 180aaf4:	e0bff617 	ldw	r2,-40(fp)
 180aaf8:	1885c83a 	sub	r2,r3,r2
 180aafc:	e0bffd15 	stw	r2,-12(fp)
          offset = current_offset + flash->dev.region_info[i].block_size;
 180ab00:	e0bff817 	ldw	r2,-32(fp)
 180ab04:	e0fff217 	ldw	r3,-56(fp)
 180ab08:	1004913a 	slli	r2,r2,4
 180ab0c:	10c5883a 	add	r2,r2,r3
 180ab10:	10801004 	addi	r2,r2,64
 180ab14:	10c00017 	ldw	r3,0(r2)
 180ab18:	e0bff417 	ldw	r2,-48(fp)
 180ab1c:	1885883a 	add	r2,r3,r2
 180ab20:	e0bffb15 	stw	r2,-20(fp)
          src_addr = (alt_u8*)src_addr + data_to_write;
 180ab24:	e0fffc17 	ldw	r3,-16(fp)
 180ab28:	e0bff617 	ldw	r2,-40(fp)
 180ab2c:	1885883a 	add	r2,r3,r2
 180ab30:	e0bffc15 	stw	r2,-16(fp)
        }
        current_offset += flash->dev.region_info[i].block_size;
 180ab34:	e0bff817 	ldw	r2,-32(fp)
 180ab38:	e0fff217 	ldw	r3,-56(fp)
 180ab3c:	1004913a 	slli	r2,r2,4
 180ab40:	10c5883a 	add	r2,r2,r3
 180ab44:	10801004 	addi	r2,r2,64
 180ab48:	10c00017 	ldw	r3,0(r2)
 180ab4c:	e0bff417 	ldw	r2,-48(fp)
 180ab50:	10c5883a 	add	r2,r2,r3
 180ab54:	e0bff415 	stw	r2,-48(fp)
      (offset < (flash->dev.region_info[i].offset + 
      flash->dev.region_info[i].region_size)))
    {
      current_offset = flash->dev.region_info[i].offset;

      for(j=0;j<flash->dev.region_info[i].number_of_blocks;j++)
 180ab58:	e0bff717 	ldw	r2,-36(fp)
 180ab5c:	10800044 	addi	r2,r2,1
 180ab60:	e0bff715 	stw	r2,-36(fp)
 180ab64:	e0bff817 	ldw	r2,-32(fp)
 180ab68:	e0fff217 	ldw	r3,-56(fp)
 180ab6c:	1004913a 	slli	r2,r2,4
 180ab70:	10c5883a 	add	r2,r2,r3
 180ab74:	10800f04 	addi	r2,r2,60
 180ab78:	10c00017 	ldw	r3,0(r2)
 180ab7c:	e0bff717 	ldw	r2,-36(fp)
 180ab80:	10ff9516 	blt	r2,r3,180a9d8 <alt_flash_cfi_write+0xc4>
  alt_flash_cfi_dev* flash = (alt_flash_cfi_dev*)flash_info;

  /*
   * First and foremost which sectors are affected?
   */   
  for(i=0;i<flash->dev.number_of_regions;i++)
 180ab84:	e0bff817 	ldw	r2,-32(fp)
 180ab88:	10800044 	addi	r2,r2,1
 180ab8c:	e0bff815 	stw	r2,-32(fp)
 180ab90:	e0bff217 	ldw	r2,-56(fp)
 180ab94:	10c00c17 	ldw	r3,48(r2)
 180ab98:	e0bff817 	ldw	r2,-32(fp)
 180ab9c:	10ff6e16 	blt	r2,r3,180a958 <alt_flash_cfi_write+0x44>
      }     
    } 
  }
finished:    

  alt_dcache_flush((alt_u8*)flash->dev.base_addr+start_offset, full_length);
 180aba0:	e0bff217 	ldw	r2,-56(fp)
 180aba4:	10800a17 	ldw	r2,40(r2)
 180aba8:	1007883a 	mov	r3,r2
 180abac:	e0bff317 	ldw	r2,-52(fp)
 180abb0:	1889883a 	add	r4,r3,r2
 180abb4:	e17ff517 	ldw	r5,-44(fp)
 180abb8:	180ec740 	call	180ec74 <alt_dcache_flush>
  return ret_code;
 180abbc:	e0bff917 	ldw	r2,-28(fp)
}
 180abc0:	e037883a 	mov	sp,fp
 180abc4:	dfc00117 	ldw	ra,4(sp)
 180abc8:	df000017 	ldw	fp,0(sp)
 180abcc:	dec00204 	addi	sp,sp,8
 180abd0:	f800283a 	ret

0180abd4 <alt_flash_cfi_get_info>:
 * 
 *  Pass the table of erase blocks to the user
 */
int alt_flash_cfi_get_info( alt_flash_fd* fd, flash_region** info, 
                            int* number_of_regions)
{
 180abd4:	defffa04 	addi	sp,sp,-24
 180abd8:	df000515 	stw	fp,20(sp)
 180abdc:	df000504 	addi	fp,sp,20
 180abe0:	e13ffd15 	stw	r4,-12(fp)
 180abe4:	e17ffe15 	stw	r5,-8(fp)
 180abe8:	e1bfff15 	stw	r6,-4(fp)
  int ret_code = 0;
 180abec:	e03ffc15 	stw	zero,-16(fp)
  alt_flash_dev* flash = (alt_flash_dev*)fd;
 180abf0:	e0bffd17 	ldw	r2,-12(fp)
 180abf4:	e0bffb15 	stw	r2,-20(fp)

  *number_of_regions = flash->number_of_regions;
 180abf8:	e0bffb17 	ldw	r2,-20(fp)
 180abfc:	10c00c17 	ldw	r3,48(r2)
 180ac00:	e0bfff17 	ldw	r2,-4(fp)
 180ac04:	10c00015 	stw	r3,0(r2)

  if (!flash->number_of_regions)
 180ac08:	e0bffb17 	ldw	r2,-20(fp)
 180ac0c:	10800c17 	ldw	r2,48(r2)
 180ac10:	1004c03a 	cmpne	r2,r2,zero
 180ac14:	1000031e 	bne	r2,zero,180ac24 <alt_flash_cfi_get_info+0x50>
  {
    ret_code = -EIO;
 180ac18:	00bffec4 	movi	r2,-5
 180ac1c:	e0bffc15 	stw	r2,-16(fp)
 180ac20:	00000b06 	br	180ac50 <alt_flash_cfi_get_info+0x7c>
  }
  else if (flash->number_of_regions > ALT_MAX_NUMBER_OF_FLASH_REGIONS)
 180ac24:	e0bffb17 	ldw	r2,-20(fp)
 180ac28:	10800c17 	ldw	r2,48(r2)
 180ac2c:	10800250 	cmplti	r2,r2,9
 180ac30:	1000031e 	bne	r2,zero,180ac40 <alt_flash_cfi_get_info+0x6c>
  {
    ret_code = -ENOMEM;
 180ac34:	00bffd04 	movi	r2,-12
 180ac38:	e0bffc15 	stw	r2,-16(fp)
 180ac3c:	00000406 	br	180ac50 <alt_flash_cfi_get_info+0x7c>
  }
  else
  {
    *info = &flash->region_info[0];
 180ac40:	e0bffb17 	ldw	r2,-20(fp)
 180ac44:	10c00d04 	addi	r3,r2,52
 180ac48:	e0bffe17 	ldw	r2,-8(fp)
 180ac4c:	10c00015 	stw	r3,0(r2)
  }

  return ret_code;
 180ac50:	e0bffc17 	ldw	r2,-16(fp)
}
 180ac54:	e037883a 	mov	sp,fp
 180ac58:	df000017 	ldw	fp,0(sp)
 180ac5c:	dec00104 	addi	sp,sp,4
 180ac60:	f800283a 	ret

0180ac64 <alt_flash_cfi_read>:
 *  Read from an area in flash, you could use memcopy yourself
 *  for these flash types, but we're trying to be generic and future proof
 */
int alt_flash_cfi_read( alt_flash_dev* flash_info, int offset, 
                        void* dest_addr, int length )
{
 180ac64:	defff904 	addi	sp,sp,-28
 180ac68:	dfc00615 	stw	ra,24(sp)
 180ac6c:	df000515 	stw	fp,20(sp)
 180ac70:	df000504 	addi	fp,sp,20
 180ac74:	e13ffc15 	stw	r4,-16(fp)
 180ac78:	e17ffd15 	stw	r5,-12(fp)
 180ac7c:	e1bffe15 	stw	r6,-8(fp)
 180ac80:	e1ffff15 	stw	r7,-4(fp)
  alt_flash_cfi_dev* flash = (alt_flash_cfi_dev*)flash_info;
 180ac84:	e0bffc17 	ldw	r2,-16(fp)
 180ac88:	e0bffb15 	stw	r2,-20(fp)
  memcpy(dest_addr, (alt_u8*)flash->dev.base_addr+offset, length);
 180ac8c:	e0bffb17 	ldw	r2,-20(fp)
 180ac90:	10800a17 	ldw	r2,40(r2)
 180ac94:	1007883a 	mov	r3,r2
 180ac98:	e0bffd17 	ldw	r2,-12(fp)
 180ac9c:	1887883a 	add	r3,r3,r2
 180aca0:	e1bfff17 	ldw	r6,-4(fp)
 180aca4:	e0bffe17 	ldw	r2,-8(fp)
 180aca8:	1009883a 	mov	r4,r2
 180acac:	180b883a 	mov	r5,r3
 180acb0:	18059680 	call	1805968 <memcpy>
  return 0;
 180acb4:	0005883a 	mov	r2,zero
}
 180acb8:	e037883a 	mov	sp,fp
 180acbc:	dfc00117 	ldw	ra,4(sp)
 180acc0:	df000017 	ldw	fp,0(sp)
 180acc4:	dec00204 	addi	sp,sp,8
 180acc8:	f800283a 	ret

0180accc <alt_write_value_to_flash>:
* It writes the largest word size that the flash can support
* so if it's an 8 bit flash it writes bytes
* 16 bit half word etc.
*/
void alt_write_value_to_flash(alt_flash_cfi_dev* flash, int offset, const alt_u8* src_addr)
{
 180accc:	defffa04 	addi	sp,sp,-24
 180acd0:	df000515 	stw	fp,20(sp)
 180acd4:	df000504 	addi	fp,sp,20
 180acd8:	e13ffd15 	stw	r4,-12(fp)
 180acdc:	e17ffe15 	stw	r5,-8(fp)
 180ace0:	e1bfff15 	stw	r6,-4(fp)
  alt_u16 half_word_value;
  alt_u32 word_value;

  if (flash->mode_width == 1)
 180ace4:	e0bffd17 	ldw	r2,-12(fp)
 180ace8:	10802e17 	ldw	r2,184(r2)
 180acec:	10800058 	cmpnei	r2,r2,1
 180acf0:	10000b1e 	bne	r2,zero,180ad20 <alt_write_value_to_flash+0x54>
  {
    IOWR_8DIRECT(flash->dev.base_addr, offset, *src_addr);
 180acf4:	e0bffd17 	ldw	r2,-12(fp)
 180acf8:	10800a17 	ldw	r2,40(r2)
 180acfc:	1007883a 	mov	r3,r2
 180ad00:	e0bffe17 	ldw	r2,-8(fp)
 180ad04:	1889883a 	add	r4,r3,r2
 180ad08:	e0bfff17 	ldw	r2,-4(fp)
 180ad0c:	10800003 	ldbu	r2,0(r2)
 180ad10:	10c03fcc 	andi	r3,r2,255
 180ad14:	2005883a 	mov	r2,r4
 180ad18:	10c00025 	stbio	r3,0(r2)
 180ad1c:	00004006 	br	180ae20 <alt_write_value_to_flash+0x154>
  }
  else if (flash->mode_width == 2)
 180ad20:	e0bffd17 	ldw	r2,-12(fp)
 180ad24:	10802e17 	ldw	r2,184(r2)
 180ad28:	10800098 	cmpnei	r2,r2,2
 180ad2c:	1000151e 	bne	r2,zero,180ad84 <alt_write_value_to_flash+0xb8>
  {
    half_word_value = (alt_u16)(*src_addr);
 180ad30:	e0bfff17 	ldw	r2,-4(fp)
 180ad34:	10800003 	ldbu	r2,0(r2)
 180ad38:	10803fcc 	andi	r2,r2,255
 180ad3c:	e0bffc0d 	sth	r2,-16(fp)
    half_word_value |= (alt_u16)(*(src_addr + 1)) << 8;
 180ad40:	e0bfff17 	ldw	r2,-4(fp)
 180ad44:	10800044 	addi	r2,r2,1
 180ad48:	10800003 	ldbu	r2,0(r2)
 180ad4c:	10803fcc 	andi	r2,r2,255
 180ad50:	1004923a 	slli	r2,r2,8
 180ad54:	1007883a 	mov	r3,r2
 180ad58:	e0bffc0b 	ldhu	r2,-16(fp)
 180ad5c:	1884b03a 	or	r2,r3,r2
 180ad60:	e0bffc0d 	sth	r2,-16(fp)
    IOWR_16DIRECT(flash->dev.base_addr, offset, half_word_value);
 180ad64:	e0bffd17 	ldw	r2,-12(fp)
 180ad68:	10800a17 	ldw	r2,40(r2)
 180ad6c:	1007883a 	mov	r3,r2
 180ad70:	e0bffe17 	ldw	r2,-8(fp)
 180ad74:	1885883a 	add	r2,r3,r2
 180ad78:	e0fffc0b 	ldhu	r3,-16(fp)
 180ad7c:	10c0002d 	sthio	r3,0(r2)
 180ad80:	00002706 	br	180ae20 <alt_write_value_to_flash+0x154>
  }
  else if (flash->mode_width == 4)
 180ad84:	e0bffd17 	ldw	r2,-12(fp)
 180ad88:	10802e17 	ldw	r2,184(r2)
 180ad8c:	10800118 	cmpnei	r2,r2,4
 180ad90:	1000231e 	bne	r2,zero,180ae20 <alt_write_value_to_flash+0x154>
  {
    word_value = (alt_u32)(*src_addr);
 180ad94:	e0bfff17 	ldw	r2,-4(fp)
 180ad98:	10800003 	ldbu	r2,0(r2)
 180ad9c:	10803fcc 	andi	r2,r2,255
 180ada0:	e0bffb15 	stw	r2,-20(fp)
    word_value |= ((alt_u32)(*(src_addr + 1)) << 8);
 180ada4:	e0bfff17 	ldw	r2,-4(fp)
 180ada8:	10800044 	addi	r2,r2,1
 180adac:	10800003 	ldbu	r2,0(r2)
 180adb0:	10803fcc 	andi	r2,r2,255
 180adb4:	1006923a 	slli	r3,r2,8
 180adb8:	e0bffb17 	ldw	r2,-20(fp)
 180adbc:	10c4b03a 	or	r2,r2,r3
 180adc0:	e0bffb15 	stw	r2,-20(fp)
    word_value |= ((alt_u32)(*(src_addr + 2)) << 16);
 180adc4:	e0bfff17 	ldw	r2,-4(fp)
 180adc8:	10800084 	addi	r2,r2,2
 180adcc:	10800003 	ldbu	r2,0(r2)
 180add0:	10803fcc 	andi	r2,r2,255
 180add4:	1006943a 	slli	r3,r2,16
 180add8:	e0bffb17 	ldw	r2,-20(fp)
 180addc:	10c4b03a 	or	r2,r2,r3
 180ade0:	e0bffb15 	stw	r2,-20(fp)
    word_value |= ((alt_u32)(*(src_addr + 3)) << 24);
 180ade4:	e0bfff17 	ldw	r2,-4(fp)
 180ade8:	108000c4 	addi	r2,r2,3
 180adec:	10800003 	ldbu	r2,0(r2)
 180adf0:	10803fcc 	andi	r2,r2,255
 180adf4:	1006963a 	slli	r3,r2,24
 180adf8:	e0bffb17 	ldw	r2,-20(fp)
 180adfc:	10c4b03a 	or	r2,r2,r3
 180ae00:	e0bffb15 	stw	r2,-20(fp)
    IOWR_32DIRECT(flash->dev.base_addr, offset, word_value);
 180ae04:	e0bffd17 	ldw	r2,-12(fp)
 180ae08:	10800a17 	ldw	r2,40(r2)
 180ae0c:	1007883a 	mov	r3,r2
 180ae10:	e0bffe17 	ldw	r2,-8(fp)
 180ae14:	1885883a 	add	r2,r3,r2
 180ae18:	e0fffb17 	ldw	r3,-20(fp)
 180ae1c:	10c00035 	stwio	r3,0(r2)
  }

  return;
}
 180ae20:	e037883a 	mov	sp,fp
 180ae24:	df000017 	ldw	fp,0(sp)
 180ae28:	dec00104 	addi	sp,sp,4
 180ae2c:	f800283a 	ret

0180ae30 <alt_flash_program_block>:
*/
int alt_flash_program_block(  alt_flash_cfi_dev* flash, const int offset, 
                        const alt_u8* src_addr, 
                        const int length,
                        alt_program_word_fn program_word_func)
{
 180ae30:	defff304 	addi	sp,sp,-52
 180ae34:	dfc00c15 	stw	ra,48(sp)
 180ae38:	df000b15 	stw	fp,44(sp)
 180ae3c:	df000b04 	addi	fp,sp,44
 180ae40:	e13ffc15 	stw	r4,-16(fp)
 180ae44:	e17ffd15 	stw	r5,-12(fp)
 180ae48:	e1bffe15 	stw	r6,-8(fp)
 180ae4c:	e1ffff15 	stw	r7,-4(fp)
  int     ret_code = 0;
 180ae50:	e03ffa15 	stw	zero,-24(fp)

  /*
   * First take care of any writes which are on none native boundaries
   * as far as the flash is concerned.
   */
  bytes_to_preserve = ((int)((alt_u8*)flash->dev.base_addr + offset) % 
 180ae54:	e0bffc17 	ldw	r2,-16(fp)
 180ae58:	10800a17 	ldw	r2,40(r2)
 180ae5c:	1007883a 	mov	r3,r2
 180ae60:	e0bffd17 	ldw	r2,-12(fp)
 180ae64:	1885883a 	add	r2,r3,r2
 180ae68:	1009883a 	mov	r4,r2
 180ae6c:	e0bffc17 	ldw	r2,-16(fp)
 180ae70:	10c02e17 	ldw	r3,184(r2)
 180ae74:	20c5283a 	div	r2,r4,r3
 180ae78:	10c5383a 	mul	r2,r2,r3
 180ae7c:	2085c83a 	sub	r2,r4,r2
 180ae80:	e0bff915 	stw	r2,-28(fp)
                      flash->mode_width);
  if ( bytes_to_preserve != 0)
 180ae84:	e0bff917 	ldw	r2,-28(fp)
 180ae88:	1005003a 	cmpeq	r2,r2,zero
 180ae8c:	10003a1e 	bne	r2,zero,180af78 <alt_flash_program_block+0x148>
  {
    unaligned_bytes = flash->mode_width - bytes_to_preserve;
 180ae90:	e0bffc17 	ldw	r2,-16(fp)
 180ae94:	10c02e17 	ldw	r3,184(r2)
 180ae98:	e0bff917 	ldw	r2,-28(fp)
 180ae9c:	1885c83a 	sub	r2,r3,r2
 180aea0:	e0bff815 	stw	r2,-32(fp)
    /*
     * Read the bytes we wish to preserve out of flash
     */
    for (i=0;i<bytes_to_preserve;i++)
 180aea4:	e03ff615 	stw	zero,-40(fp)
 180aea8:	00001206 	br	180aef4 <alt_flash_program_block+0xc4>
    {
      unaligned[i] = IORD_8DIRECT(flash->dev.base_addr, 
 180aeac:	e17ff617 	ldw	r5,-40(fp)
 180aeb0:	e0bffc17 	ldw	r2,-16(fp)
 180aeb4:	10800a17 	ldw	r2,40(r2)
 180aeb8:	1009883a 	mov	r4,r2
 180aebc:	e0fffd17 	ldw	r3,-12(fp)
 180aec0:	e0bff917 	ldw	r2,-28(fp)
 180aec4:	1887c83a 	sub	r3,r3,r2
 180aec8:	e0bff617 	ldw	r2,-40(fp)
 180aecc:	1885883a 	add	r2,r3,r2
 180aed0:	2085883a 	add	r2,r4,r2
 180aed4:	10800023 	ldbuio	r2,0(r2)
 180aed8:	1007883a 	mov	r3,r2
 180aedc:	e0bffb04 	addi	r2,fp,-20
 180aee0:	1145883a 	add	r2,r2,r5
 180aee4:	10c00005 	stb	r3,0(r2)
  {
    unaligned_bytes = flash->mode_width - bytes_to_preserve;
    /*
     * Read the bytes we wish to preserve out of flash
     */
    for (i=0;i<bytes_to_preserve;i++)
 180aee8:	e0bff617 	ldw	r2,-40(fp)
 180aeec:	10800044 	addi	r2,r2,1
 180aef0:	e0bff615 	stw	r2,-40(fp)
 180aef4:	e0fff617 	ldw	r3,-40(fp)
 180aef8:	e0bff917 	ldw	r2,-28(fp)
 180aefc:	18bfeb16 	blt	r3,r2,180aeac <alt_flash_program_block+0x7c>
    {
      unaligned[i] = IORD_8DIRECT(flash->dev.base_addr, 
                                offset-bytes_to_preserve+i);
    }

    for (i=0;i<unaligned_bytes;i++)
 180af00:	e03ff615 	stw	zero,-40(fp)
 180af04:	00000e06 	br	180af40 <alt_flash_program_block+0x110>
    {
      unaligned[bytes_to_preserve + i] = *(alt_u8*)(src_addr + i);
 180af08:	e0fff917 	ldw	r3,-28(fp)
 180af0c:	e0bff617 	ldw	r2,-40(fp)
 180af10:	1889883a 	add	r4,r3,r2
 180af14:	e0bff617 	ldw	r2,-40(fp)
 180af18:	1007883a 	mov	r3,r2
 180af1c:	e0bffe17 	ldw	r2,-8(fp)
 180af20:	1885883a 	add	r2,r3,r2
 180af24:	10c00003 	ldbu	r3,0(r2)
 180af28:	e0bffb04 	addi	r2,fp,-20
 180af2c:	1105883a 	add	r2,r2,r4
 180af30:	10c00005 	stb	r3,0(r2)
    {
      unaligned[i] = IORD_8DIRECT(flash->dev.base_addr, 
                                offset-bytes_to_preserve+i);
    }

    for (i=0;i<unaligned_bytes;i++)
 180af34:	e0bff617 	ldw	r2,-40(fp)
 180af38:	10800044 	addi	r2,r2,1
 180af3c:	e0bff615 	stw	r2,-40(fp)
 180af40:	e0fff617 	ldw	r3,-40(fp)
 180af44:	e0bff817 	ldw	r2,-32(fp)
 180af48:	18bfef16 	blt	r3,r2,180af08 <alt_flash_program_block+0xd8>
    {
      unaligned[bytes_to_preserve + i] = *(alt_u8*)(src_addr + i);
    }
    
    ret_code = (*program_word_func)(flash, offset-bytes_to_preserve, unaligned);
 180af4c:	e0fffd17 	ldw	r3,-12(fp)
 180af50:	e0bff917 	ldw	r2,-28(fp)
 180af54:	188bc83a 	sub	r5,r3,r2
 180af58:	e1bffb04 	addi	r6,fp,-20
 180af5c:	e0800217 	ldw	r2,8(fp)
 180af60:	e13ffc17 	ldw	r4,-16(fp)
 180af64:	103ee83a 	callr	r2
 180af68:	e0bffa15 	stw	r2,-24(fp)
    i = unaligned_bytes;
 180af6c:	e0bff817 	ldw	r2,-32(fp)
 180af70:	e0bff615 	stw	r2,-40(fp)
 180af74:	00000106 	br	180af7c <alt_flash_program_block+0x14c>
  }
  else
  {
    i = 0;
 180af78:	e03ff615 	stw	zero,-40(fp)
  }

  unaligned_end_bytes = (offset+length) % flash->mode_width;
 180af7c:	e0fffd17 	ldw	r3,-12(fp)
 180af80:	e0bfff17 	ldw	r2,-4(fp)
 180af84:	1889883a 	add	r4,r3,r2
 180af88:	e0bffc17 	ldw	r2,-16(fp)
 180af8c:	10c02e17 	ldw	r3,184(r2)
 180af90:	20c5283a 	div	r2,r4,r3
 180af94:	10c5383a 	mul	r2,r2,r3
 180af98:	2085c83a 	sub	r2,r4,r2
 180af9c:	e0bff715 	stw	r2,-36(fp)
  while ((ret_code == 0) && (i < (length-unaligned_end_bytes)))
 180afa0:	00001006 	br	180afe4 <alt_flash_program_block+0x1b4>
  {
    ret_code = (*program_word_func)(flash, offset+i, src_addr+i);
 180afa4:	e0fffd17 	ldw	r3,-12(fp)
 180afa8:	e0bff617 	ldw	r2,-40(fp)
 180afac:	188b883a 	add	r5,r3,r2
 180afb0:	e0bff617 	ldw	r2,-40(fp)
 180afb4:	1007883a 	mov	r3,r2
 180afb8:	e0bffe17 	ldw	r2,-8(fp)
 180afbc:	188d883a 	add	r6,r3,r2
 180afc0:	e0800217 	ldw	r2,8(fp)
 180afc4:	e13ffc17 	ldw	r4,-16(fp)
 180afc8:	103ee83a 	callr	r2
 180afcc:	e0bffa15 	stw	r2,-24(fp)
    i += flash->mode_width;     
 180afd0:	e0bffc17 	ldw	r2,-16(fp)
 180afd4:	10c02e17 	ldw	r3,184(r2)
 180afd8:	e0bff617 	ldw	r2,-40(fp)
 180afdc:	10c5883a 	add	r2,r2,r3
 180afe0:	e0bff615 	stw	r2,-40(fp)
  {
    i = 0;
  }

  unaligned_end_bytes = (offset+length) % flash->mode_width;
  while ((ret_code == 0) && (i < (length-unaligned_end_bytes)))
 180afe4:	e0bffa17 	ldw	r2,-24(fp)
 180afe8:	1004c03a 	cmpne	r2,r2,zero
 180afec:	1000051e 	bne	r2,zero,180b004 <alt_flash_program_block+0x1d4>
 180aff0:	e0ffff17 	ldw	r3,-4(fp)
 180aff4:	e0bff717 	ldw	r2,-36(fp)
 180aff8:	1887c83a 	sub	r3,r3,r2
 180affc:	e0bff617 	ldw	r2,-40(fp)
 180b000:	10ffe816 	blt	r2,r3,180afa4 <alt_flash_program_block+0x174>

  /*
   * Now take care of any writes at the end of the buffer which are on none 
   * native boundaries as far as the flash is concerned.
   */
  if (unaligned_end_bytes && !ret_code)
 180b004:	e0bff717 	ldw	r2,-36(fp)
 180b008:	1005003a 	cmpeq	r2,r2,zero
 180b00c:	10003c1e 	bne	r2,zero,180b100 <alt_flash_program_block+0x2d0>
 180b010:	e0bffa17 	ldw	r2,-24(fp)
 180b014:	1004c03a 	cmpne	r2,r2,zero
 180b018:	1000391e 	bne	r2,zero,180b100 <alt_flash_program_block+0x2d0>
  {
    bytes_to_preserve = flash->mode_width - unaligned_end_bytes;
 180b01c:	e0bffc17 	ldw	r2,-16(fp)
 180b020:	10c02e17 	ldw	r3,184(r2)
 180b024:	e0bff717 	ldw	r2,-36(fp)
 180b028:	1885c83a 	sub	r2,r3,r2
 180b02c:	e0bff915 	stw	r2,-28(fp)
    
    for (j=0;j<unaligned_end_bytes;j++)
 180b030:	e03ff515 	stw	zero,-44(fp)
 180b034:	00000e06 	br	180b070 <alt_flash_program_block+0x240>
    {
      unaligned[j] = *(alt_u8*)(src_addr+i+j);
 180b038:	e13ff517 	ldw	r4,-44(fp)
 180b03c:	e0bff617 	ldw	r2,-40(fp)
 180b040:	1007883a 	mov	r3,r2
 180b044:	e0bffe17 	ldw	r2,-8(fp)
 180b048:	1887883a 	add	r3,r3,r2
 180b04c:	e0bff517 	ldw	r2,-44(fp)
 180b050:	1885883a 	add	r2,r3,r2
 180b054:	10c00003 	ldbu	r3,0(r2)
 180b058:	e0bffb04 	addi	r2,fp,-20
 180b05c:	1105883a 	add	r2,r2,r4
 180b060:	10c00005 	stb	r3,0(r2)
   */
  if (unaligned_end_bytes && !ret_code)
  {
    bytes_to_preserve = flash->mode_width - unaligned_end_bytes;
    
    for (j=0;j<unaligned_end_bytes;j++)
 180b064:	e0bff517 	ldw	r2,-44(fp)
 180b068:	10800044 	addi	r2,r2,1
 180b06c:	e0bff515 	stw	r2,-44(fp)
 180b070:	e0fff517 	ldw	r3,-44(fp)
 180b074:	e0bff717 	ldw	r2,-36(fp)
 180b078:	18bfef16 	blt	r3,r2,180b038 <alt_flash_program_block+0x208>
    {
      unaligned[j] = *(alt_u8*)(src_addr+i+j);
    }
    
    for (j=0;j<bytes_to_preserve;j++)
 180b07c:	e03ff515 	stw	zero,-44(fp)
 180b080:	00001406 	br	180b0d4 <alt_flash_program_block+0x2a4>
    {
      unaligned[unaligned_end_bytes+j] = IORD_8DIRECT(flash->dev.base_addr, 
 180b084:	e0fff717 	ldw	r3,-36(fp)
 180b088:	e0bff517 	ldw	r2,-44(fp)
 180b08c:	188b883a 	add	r5,r3,r2
 180b090:	e0bffc17 	ldw	r2,-16(fp)
 180b094:	10800a17 	ldw	r2,40(r2)
 180b098:	1009883a 	mov	r4,r2
 180b09c:	e0fffd17 	ldw	r3,-12(fp)
 180b0a0:	e0bfff17 	ldw	r2,-4(fp)
 180b0a4:	1887883a 	add	r3,r3,r2
 180b0a8:	e0bff517 	ldw	r2,-44(fp)
 180b0ac:	1885883a 	add	r2,r3,r2
 180b0b0:	2085883a 	add	r2,r4,r2
 180b0b4:	10800023 	ldbuio	r2,0(r2)
 180b0b8:	1007883a 	mov	r3,r2
 180b0bc:	e0bffb04 	addi	r2,fp,-20
 180b0c0:	1145883a 	add	r2,r2,r5
 180b0c4:	10c00005 	stb	r3,0(r2)
    for (j=0;j<unaligned_end_bytes;j++)
    {
      unaligned[j] = *(alt_u8*)(src_addr+i+j);
    }
    
    for (j=0;j<bytes_to_preserve;j++)
 180b0c8:	e0bff517 	ldw	r2,-44(fp)
 180b0cc:	10800044 	addi	r2,r2,1
 180b0d0:	e0bff515 	stw	r2,-44(fp)
 180b0d4:	e0fff517 	ldw	r3,-44(fp)
 180b0d8:	e0bff917 	ldw	r2,-28(fp)
 180b0dc:	18bfe916 	blt	r3,r2,180b084 <alt_flash_program_block+0x254>
    {
      unaligned[unaligned_end_bytes+j] = IORD_8DIRECT(flash->dev.base_addr, 
                                                      offset+length+j);
    }

    ret_code = (*program_word_func)(flash, offset+i, unaligned);      
 180b0e0:	e0fffd17 	ldw	r3,-12(fp)
 180b0e4:	e0bff617 	ldw	r2,-40(fp)
 180b0e8:	188b883a 	add	r5,r3,r2
 180b0ec:	e1bffb04 	addi	r6,fp,-20
 180b0f0:	e0800217 	ldw	r2,8(fp)
 180b0f4:	e13ffc17 	ldw	r4,-16(fp)
 180b0f8:	103ee83a 	callr	r2
 180b0fc:	e0bffa15 	stw	r2,-24(fp)
  }

  return ret_code;
 180b100:	e0bffa17 	ldw	r2,-24(fp)
}
 180b104:	e037883a 	mov	sp,fp
 180b108:	dfc00117 	ldw	ra,4(sp)
 180b10c:	df000017 	ldw	fp,0(sp)
 180b110:	dec00204 	addi	sp,sp,8
 180b114:	f800283a 	ret

0180b118 <alt_read_query_entry_8bit>:

/*
 *  Read an 8 bit value from the CFI query table in flash
 */
alt_u8 alt_read_query_entry_8bit( alt_flash_cfi_dev* flash, int address)
{
 180b118:	defffd04 	addi	sp,sp,-12
 180b11c:	df000215 	stw	fp,8(sp)
 180b120:	df000204 	addi	fp,sp,8
 180b124:	e13ffe15 	stw	r4,-8(fp)
 180b128:	e17fff15 	stw	r5,-4(fp)
  return IORD_8DIRECT((alt_u8*)flash->dev.base_addr, address);
 180b12c:	e0bffe17 	ldw	r2,-8(fp)
 180b130:	10800a17 	ldw	r2,40(r2)
 180b134:	1007883a 	mov	r3,r2
 180b138:	e0bfff17 	ldw	r2,-4(fp)
 180b13c:	1885883a 	add	r2,r3,r2
 180b140:	10800023 	ldbuio	r2,0(r2)
 180b144:	10803fcc 	andi	r2,r2,255
}
 180b148:	e037883a 	mov	sp,fp
 180b14c:	df000017 	ldw	fp,0(sp)
 180b150:	dec00104 	addi	sp,sp,4
 180b154:	f800283a 	ret

0180b158 <alt_read_query_entry_16bit>:

alt_u8 alt_read_query_entry_16bit( alt_flash_cfi_dev* flash, int address)
{
 180b158:	defffd04 	addi	sp,sp,-12
 180b15c:	df000215 	stw	fp,8(sp)
 180b160:	df000204 	addi	fp,sp,8
 180b164:	e13ffe15 	stw	r4,-8(fp)
 180b168:	e17fff15 	stw	r5,-4(fp)
  return (IORD_16DIRECT((alt_u8*)flash->dev.base_addr, address*2) & 0xff);
 180b16c:	e0bffe17 	ldw	r2,-8(fp)
 180b170:	10800a17 	ldw	r2,40(r2)
 180b174:	1007883a 	mov	r3,r2
 180b178:	e0bfff17 	ldw	r2,-4(fp)
 180b17c:	1085883a 	add	r2,r2,r2
 180b180:	1885883a 	add	r2,r3,r2
 180b184:	1080002b 	ldhuio	r2,0(r2)
 180b188:	10803fcc 	andi	r2,r2,255
}
 180b18c:	e037883a 	mov	sp,fp
 180b190:	df000017 	ldw	fp,0(sp)
 180b194:	dec00104 	addi	sp,sp,4
 180b198:	f800283a 	ret

0180b19c <alt_read_query_entry_32bit>:

alt_u8 alt_read_query_entry_32bit( alt_flash_cfi_dev* flash, int address)
{
 180b19c:	defffd04 	addi	sp,sp,-12
 180b1a0:	df000215 	stw	fp,8(sp)
 180b1a4:	df000204 	addi	fp,sp,8
 180b1a8:	e13ffe15 	stw	r4,-8(fp)
 180b1ac:	e17fff15 	stw	r5,-4(fp)
  return (IORD_32DIRECT((alt_u8*)flash->dev.base_addr, address*4) & 0xff);
 180b1b0:	e0bffe17 	ldw	r2,-8(fp)
 180b1b4:	10800a17 	ldw	r2,40(r2)
 180b1b8:	1007883a 	mov	r3,r2
 180b1bc:	e0bfff17 	ldw	r2,-4(fp)
 180b1c0:	1085883a 	add	r2,r2,r2
 180b1c4:	1085883a 	add	r2,r2,r2
 180b1c8:	1885883a 	add	r2,r3,r2
 180b1cc:	10800037 	ldwio	r2,0(r2)
 180b1d0:	10803fcc 	andi	r2,r2,255
}
 180b1d4:	e037883a 	mov	sp,fp
 180b1d8:	df000017 	ldw	fp,0(sp)
 180b1dc:	dec00104 	addi	sp,sp,4
 180b1e0:	f800283a 	ret

0180b1e4 <alt_write_flash_command_8bit_device_8bit_mode>:

/*
 * Write an 8 bit command to a flash
 */
void alt_write_flash_command_8bit_device_8bit_mode( void* base_addr, int offset, alt_u8 value)
{
 180b1e4:	defffc04 	addi	sp,sp,-16
 180b1e8:	df000315 	stw	fp,12(sp)
 180b1ec:	df000304 	addi	fp,sp,12
 180b1f0:	e13ffd15 	stw	r4,-12(fp)
 180b1f4:	e17ffe15 	stw	r5,-8(fp)
 180b1f8:	e1bfff05 	stb	r6,-4(fp)
  IOWR_8DIRECT(base_addr, offset, value);
 180b1fc:	e0fffd17 	ldw	r3,-12(fp)
 180b200:	e0bffe17 	ldw	r2,-8(fp)
 180b204:	1885883a 	add	r2,r3,r2
 180b208:	e0ffff03 	ldbu	r3,-4(fp)
 180b20c:	10c00025 	stbio	r3,0(r2)
  return;
}
 180b210:	e037883a 	mov	sp,fp
 180b214:	df000017 	ldw	fp,0(sp)
 180b218:	dec00104 	addi	sp,sp,4
 180b21c:	f800283a 	ret

0180b220 <alt_write_flash_command_16bit_device_8bit_mode>:

void alt_write_flash_command_16bit_device_8bit_mode( void* base_addr, int offset, alt_u8 value)
{
 180b220:	defffc04 	addi	sp,sp,-16
 180b224:	df000315 	stw	fp,12(sp)
 180b228:	df000304 	addi	fp,sp,12
 180b22c:	e13ffd15 	stw	r4,-12(fp)
 180b230:	e17ffe15 	stw	r5,-8(fp)
 180b234:	e1bfff05 	stb	r6,-4(fp)
  if (offset % 2)
 180b238:	e0bffe17 	ldw	r2,-8(fp)
 180b23c:	1080004c 	andi	r2,r2,1
 180b240:	10803fcc 	andi	r2,r2,255
 180b244:	1005003a 	cmpeq	r2,r2,zero
 180b248:	1000081e 	bne	r2,zero,180b26c <alt_write_flash_command_16bit_device_8bit_mode+0x4c>
  {
    IOWR_8DIRECT(base_addr, offset*2, value);
 180b24c:	e0bffe17 	ldw	r2,-8(fp)
 180b250:	1085883a 	add	r2,r2,r2
 180b254:	1007883a 	mov	r3,r2
 180b258:	e0bffd17 	ldw	r2,-12(fp)
 180b25c:	1885883a 	add	r2,r3,r2
 180b260:	e0ffff03 	ldbu	r3,-4(fp)
 180b264:	10c00025 	stbio	r3,0(r2)
 180b268:	00000806 	br	180b28c <alt_write_flash_command_16bit_device_8bit_mode+0x6c>
  }
  else
  {
    IOWR_8DIRECT(base_addr, (offset*2)+1, value);
 180b26c:	e0bffe17 	ldw	r2,-8(fp)
 180b270:	1085883a 	add	r2,r2,r2
 180b274:	1007883a 	mov	r3,r2
 180b278:	e0bffd17 	ldw	r2,-12(fp)
 180b27c:	1885883a 	add	r2,r3,r2
 180b280:	10800044 	addi	r2,r2,1
 180b284:	e0ffff03 	ldbu	r3,-4(fp)
 180b288:	10c00025 	stbio	r3,0(r2)
  }
  return;
}
 180b28c:	e037883a 	mov	sp,fp
 180b290:	df000017 	ldw	fp,0(sp)
 180b294:	dec00104 	addi	sp,sp,4
 180b298:	f800283a 	ret

0180b29c <alt_write_flash_command_32bit_device_8bit_mode>:

void alt_write_flash_command_32bit_device_8bit_mode( void* base_addr, int offset, alt_u8 value)
{
 180b29c:	defffc04 	addi	sp,sp,-16
 180b2a0:	df000315 	stw	fp,12(sp)
 180b2a4:	df000304 	addi	fp,sp,12
 180b2a8:	e13ffd15 	stw	r4,-12(fp)
 180b2ac:	e17ffe15 	stw	r5,-8(fp)
 180b2b0:	e1bfff05 	stb	r6,-4(fp)
  IOWR_8DIRECT(base_addr, offset*4, value);
 180b2b4:	e0bffe17 	ldw	r2,-8(fp)
 180b2b8:	1085883a 	add	r2,r2,r2
 180b2bc:	1085883a 	add	r2,r2,r2
 180b2c0:	1007883a 	mov	r3,r2
 180b2c4:	e0bffd17 	ldw	r2,-12(fp)
 180b2c8:	1885883a 	add	r2,r3,r2
 180b2cc:	e0ffff03 	ldbu	r3,-4(fp)
 180b2d0:	10c00025 	stbio	r3,0(r2)
  return;
}
 180b2d4:	e037883a 	mov	sp,fp
 180b2d8:	df000017 	ldw	fp,0(sp)
 180b2dc:	dec00104 	addi	sp,sp,4
 180b2e0:	f800283a 	ret

0180b2e4 <alt_write_flash_command_16bit_device_16bit_mode>:

void alt_write_flash_command_16bit_device_16bit_mode( void* base_addr, int offset, alt_u8 value)
{
 180b2e4:	defffc04 	addi	sp,sp,-16
 180b2e8:	df000315 	stw	fp,12(sp)
 180b2ec:	df000304 	addi	fp,sp,12
 180b2f0:	e13ffd15 	stw	r4,-12(fp)
 180b2f4:	e17ffe15 	stw	r5,-8(fp)
 180b2f8:	e1bfff05 	stb	r6,-4(fp)
  IOWR_16DIRECT(base_addr, offset*2, ((alt_u16)value)& 0x00ff);
 180b2fc:	e0bffe17 	ldw	r2,-8(fp)
 180b300:	1085883a 	add	r2,r2,r2
 180b304:	1007883a 	mov	r3,r2
 180b308:	e0bffd17 	ldw	r2,-12(fp)
 180b30c:	1885883a 	add	r2,r3,r2
 180b310:	e0ffff03 	ldbu	r3,-4(fp)
 180b314:	10c0002d 	sthio	r3,0(r2)
  return;
}
 180b318:	e037883a 	mov	sp,fp
 180b31c:	df000017 	ldw	fp,0(sp)
 180b320:	dec00104 	addi	sp,sp,4
 180b324:	f800283a 	ret

0180b328 <alt_write_flash_command_32bit_device_16bit_mode>:

void alt_write_flash_command_32bit_device_16bit_mode( void* base_addr, int offset, alt_u8 value)
{
 180b328:	defffc04 	addi	sp,sp,-16
 180b32c:	df000315 	stw	fp,12(sp)
 180b330:	df000304 	addi	fp,sp,12
 180b334:	e13ffd15 	stw	r4,-12(fp)
 180b338:	e17ffe15 	stw	r5,-8(fp)
 180b33c:	e1bfff05 	stb	r6,-4(fp)
  IOWR_16DIRECT(base_addr, offset*4, ((alt_u16)value)& 0x00ff);
 180b340:	e0bffe17 	ldw	r2,-8(fp)
 180b344:	1085883a 	add	r2,r2,r2
 180b348:	1085883a 	add	r2,r2,r2
 180b34c:	1007883a 	mov	r3,r2
 180b350:	e0bffd17 	ldw	r2,-12(fp)
 180b354:	1885883a 	add	r2,r3,r2
 180b358:	e0ffff03 	ldbu	r3,-4(fp)
 180b35c:	10c0002d 	sthio	r3,0(r2)
  return;
}
 180b360:	e037883a 	mov	sp,fp
 180b364:	df000017 	ldw	fp,0(sp)
 180b368:	dec00104 	addi	sp,sp,4
 180b36c:	f800283a 	ret

0180b370 <alt_write_flash_command_32bit_device_32bit_mode>:

void alt_write_flash_command_32bit_device_32bit_mode( void* base_addr, int offset, alt_u8 value)
{
 180b370:	defffc04 	addi	sp,sp,-16
 180b374:	df000315 	stw	fp,12(sp)
 180b378:	df000304 	addi	fp,sp,12
 180b37c:	e13ffd15 	stw	r4,-12(fp)
 180b380:	e17ffe15 	stw	r5,-8(fp)
 180b384:	e1bfff05 	stb	r6,-4(fp)
  IOWR_32DIRECT(base_addr, offset*4, ((alt_u32)value)& 0x000000ff);
 180b388:	e0bffe17 	ldw	r2,-8(fp)
 180b38c:	1085883a 	add	r2,r2,r2
 180b390:	1085883a 	add	r2,r2,r2
 180b394:	1007883a 	mov	r3,r2
 180b398:	e0bffd17 	ldw	r2,-12(fp)
 180b39c:	1885883a 	add	r2,r3,r2
 180b3a0:	e0ffff03 	ldbu	r3,-4(fp)
 180b3a4:	10c00035 	stwio	r3,0(r2)
  return;
}
 180b3a8:	e037883a 	mov	sp,fp
 180b3ac:	df000017 	ldw	fp,0(sp)
 180b3b0:	dec00104 	addi	sp,sp,4
 180b3b4:	f800283a 	ret

0180b3b8 <alt_write_native_8bit>:

/*
 * Write the value passed to the flash
 */
void alt_write_native_8bit( void* address, alt_u32 value)
{
 180b3b8:	defffd04 	addi	sp,sp,-12
 180b3bc:	df000215 	stw	fp,8(sp)
 180b3c0:	df000204 	addi	fp,sp,8
 180b3c4:	e13ffe15 	stw	r4,-8(fp)
 180b3c8:	e17fff15 	stw	r5,-4(fp)
  IOWR_8DIRECT(address, 0, (alt_u8)(value&0xff));
 180b3cc:	e0bfff17 	ldw	r2,-4(fp)
 180b3d0:	10c03fcc 	andi	r3,r2,255
 180b3d4:	e0bffe17 	ldw	r2,-8(fp)
 180b3d8:	10c00025 	stbio	r3,0(r2)
  return;
}
 180b3dc:	e037883a 	mov	sp,fp
 180b3e0:	df000017 	ldw	fp,0(sp)
 180b3e4:	dec00104 	addi	sp,sp,4
 180b3e8:	f800283a 	ret

0180b3ec <alt_write_native_16bit>:

void alt_write_native_16bit( void* address, alt_u32 value)
{
 180b3ec:	defffd04 	addi	sp,sp,-12
 180b3f0:	df000215 	stw	fp,8(sp)
 180b3f4:	df000204 	addi	fp,sp,8
 180b3f8:	e13ffe15 	stw	r4,-8(fp)
 180b3fc:	e17fff15 	stw	r5,-4(fp)
  IOWR_16DIRECT(address, 0, ((alt_u16)value)& 0xffff);
 180b400:	e0bfff17 	ldw	r2,-4(fp)
 180b404:	10ffffcc 	andi	r3,r2,65535
 180b408:	e0bffe17 	ldw	r2,-8(fp)
 180b40c:	10c0002d 	sthio	r3,0(r2)
  return;
}
 180b410:	e037883a 	mov	sp,fp
 180b414:	df000017 	ldw	fp,0(sp)
 180b418:	dec00104 	addi	sp,sp,4
 180b41c:	f800283a 	ret

0180b420 <alt_write_native_32bit>:

void alt_write_native_32bit( void* address, alt_u32 value)
{
 180b420:	defffd04 	addi	sp,sp,-12
 180b424:	df000215 	stw	fp,8(sp)
 180b428:	df000204 	addi	fp,sp,8
 180b42c:	e13ffe15 	stw	r4,-8(fp)
 180b430:	e17fff15 	stw	r5,-4(fp)
  IOWR_32DIRECT(address, 0, value);
 180b434:	e0ffff17 	ldw	r3,-4(fp)
 180b438:	e0bffe17 	ldw	r2,-8(fp)
 180b43c:	10c00035 	stwio	r3,0(r2)
  return;
}
 180b440:	e037883a 	mov	sp,fp
 180b444:	df000017 	ldw	fp,0(sp)
 180b448:	dec00104 	addi	sp,sp,4
 180b44c:	f800283a 	ret

0180b450 <alt_set_flash_width_func>:
 * 
 * Setup the function pointers for writing a byte to the flash for the width
 * of the device
 */
int alt_set_flash_width_func( alt_flash_cfi_dev* flash)
{ 
 180b450:	defffb04 	addi	sp,sp,-20
 180b454:	df000415 	stw	fp,16(sp)
 180b458:	df000404 	addi	fp,sp,16
 180b45c:	e13ffd15 	stw	r4,-12(fp)
  int ret_code = 0;
 180b460:	e03ffc15 	stw	zero,-16(fp)
  
  switch(flash->mode_width)
 180b464:	e0bffd17 	ldw	r2,-12(fp)
 180b468:	10802e17 	ldw	r2,184(r2)
 180b46c:	e0bfff15 	stw	r2,-4(fp)
 180b470:	e0ffff17 	ldw	r3,-4(fp)
 180b474:	188000a0 	cmpeqi	r2,r3,2
 180b478:	1000261e 	bne	r2,zero,180b514 <alt_set_flash_width_func+0xc4>
 180b47c:	e0ffff17 	ldw	r3,-4(fp)
 180b480:	18800120 	cmpeqi	r2,r3,4
 180b484:	1000391e 	bne	r2,zero,180b56c <alt_set_flash_width_func+0x11c>
 180b488:	e0ffff17 	ldw	r3,-4(fp)
 180b48c:	18800060 	cmpeqi	r2,r3,1
 180b490:	1000011e 	bne	r2,zero,180b498 <alt_set_flash_width_func+0x48>
 180b494:	00003e06 	br	180b590 <alt_set_flash_width_func+0x140>
  {
    case 1:
    {
      flash->write_native = alt_write_native_8bit;
 180b498:	e0fffd17 	ldw	r3,-12(fp)
 180b49c:	00806074 	movhi	r2,385
 180b4a0:	10acee04 	addi	r2,r2,-19528
 180b4a4:	18803515 	stw	r2,212(r3)

      if (flash->device_width == 1)
 180b4a8:	e0bffd17 	ldw	r2,-12(fp)
 180b4ac:	10802f17 	ldw	r2,188(r2)
 180b4b0:	10800058 	cmpnei	r2,r2,1
 180b4b4:	1000051e 	bne	r2,zero,180b4cc <alt_set_flash_width_func+0x7c>
      {
        flash->write_command = alt_write_flash_command_8bit_device_8bit_mode;
 180b4b8:	e0fffd17 	ldw	r3,-12(fp)
 180b4bc:	00806074 	movhi	r2,385
 180b4c0:	10ac7904 	addi	r2,r2,-19996
 180b4c4:	18803315 	stw	r2,204(r3)
 180b4c8:	00003306 	br	180b598 <alt_set_flash_width_func+0x148>
      }
      else if (flash->device_width == 2)
 180b4cc:	e0bffd17 	ldw	r2,-12(fp)
 180b4d0:	10802f17 	ldw	r2,188(r2)
 180b4d4:	10800098 	cmpnei	r2,r2,2
 180b4d8:	1000051e 	bne	r2,zero,180b4f0 <alt_set_flash_width_func+0xa0>
      {
        flash->write_command = alt_write_flash_command_16bit_device_8bit_mode;
 180b4dc:	e0fffd17 	ldw	r3,-12(fp)
 180b4e0:	00806074 	movhi	r2,385
 180b4e4:	10ac8804 	addi	r2,r2,-19936
 180b4e8:	18803315 	stw	r2,204(r3)
 180b4ec:	00002a06 	br	180b598 <alt_set_flash_width_func+0x148>
      }
      else if (flash->device_width == 4)
 180b4f0:	e0bffd17 	ldw	r2,-12(fp)
 180b4f4:	10802f17 	ldw	r2,188(r2)
 180b4f8:	10800118 	cmpnei	r2,r2,4
 180b4fc:	1000261e 	bne	r2,zero,180b598 <alt_set_flash_width_func+0x148>
      {
        flash->write_command = alt_write_flash_command_32bit_device_8bit_mode;
 180b500:	e0fffd17 	ldw	r3,-12(fp)
 180b504:	00806074 	movhi	r2,385
 180b508:	10aca704 	addi	r2,r2,-19812
 180b50c:	18803315 	stw	r2,204(r3)
      }
      break;
 180b510:	00002106 	br	180b598 <alt_set_flash_width_func+0x148>
    }
    case 2:
    {
      flash->write_native = alt_write_native_16bit;
 180b514:	e0fffd17 	ldw	r3,-12(fp)
 180b518:	00806074 	movhi	r2,385
 180b51c:	10acfb04 	addi	r2,r2,-19476
 180b520:	18803515 	stw	r2,212(r3)

      if (flash->device_width == 2)
 180b524:	e0bffd17 	ldw	r2,-12(fp)
 180b528:	10802f17 	ldw	r2,188(r2)
 180b52c:	10800098 	cmpnei	r2,r2,2
 180b530:	1000051e 	bne	r2,zero,180b548 <alt_set_flash_width_func+0xf8>
      {
        flash->write_command = alt_write_flash_command_16bit_device_16bit_mode;
 180b534:	e0fffd17 	ldw	r3,-12(fp)
 180b538:	00806074 	movhi	r2,385
 180b53c:	10acb904 	addi	r2,r2,-19740
 180b540:	18803315 	stw	r2,204(r3)
 180b544:	00001406 	br	180b598 <alt_set_flash_width_func+0x148>
      }
      else if (flash->device_width == 4)
 180b548:	e0bffd17 	ldw	r2,-12(fp)
 180b54c:	10802f17 	ldw	r2,188(r2)
 180b550:	10800118 	cmpnei	r2,r2,4
 180b554:	1000101e 	bne	r2,zero,180b598 <alt_set_flash_width_func+0x148>
      {
        flash->write_command = alt_write_flash_command_32bit_device_16bit_mode;
 180b558:	e0fffd17 	ldw	r3,-12(fp)
 180b55c:	00806074 	movhi	r2,385
 180b560:	10acca04 	addi	r2,r2,-19672
 180b564:	18803315 	stw	r2,204(r3)
      }

      break;
 180b568:	00000b06 	br	180b598 <alt_set_flash_width_func+0x148>
    }
    case 4:
    {
      flash->write_native = alt_write_native_32bit;
 180b56c:	e0fffd17 	ldw	r3,-12(fp)
 180b570:	00806074 	movhi	r2,385
 180b574:	10ad0804 	addi	r2,r2,-19424
 180b578:	18803515 	stw	r2,212(r3)
      flash->write_command = alt_write_flash_command_32bit_device_32bit_mode;
 180b57c:	e0fffd17 	ldw	r3,-12(fp)
 180b580:	00806074 	movhi	r2,385
 180b584:	10acdc04 	addi	r2,r2,-19600
 180b588:	18803315 	stw	r2,204(r3)
      break;
 180b58c:	00000206 	br	180b598 <alt_set_flash_width_func+0x148>
    }
    default:
    {
      ret_code = -EACCES;
 180b590:	00bffcc4 	movi	r2,-13
 180b594:	e0bffc15 	stw	r2,-16(fp)
    }
  }

  if (!ret_code)
 180b598:	e0bffc17 	ldw	r2,-16(fp)
 180b59c:	1004c03a 	cmpne	r2,r2,zero
 180b5a0:	10001e1e 	bne	r2,zero,180b61c <alt_set_flash_width_func+0x1cc>
  {
    switch(flash->device_width)
 180b5a4:	e0bffd17 	ldw	r2,-12(fp)
 180b5a8:	10802f17 	ldw	r2,188(r2)
 180b5ac:	e0bffe15 	stw	r2,-8(fp)
 180b5b0:	e0fffe17 	ldw	r3,-8(fp)
 180b5b4:	188000a0 	cmpeqi	r2,r3,2
 180b5b8:	10000c1e 	bne	r2,zero,180b5ec <alt_set_flash_width_func+0x19c>
 180b5bc:	e0fffe17 	ldw	r3,-8(fp)
 180b5c0:	18800120 	cmpeqi	r2,r3,4
 180b5c4:	10000e1e 	bne	r2,zero,180b600 <alt_set_flash_width_func+0x1b0>
 180b5c8:	e0fffe17 	ldw	r3,-8(fp)
 180b5cc:	18800060 	cmpeqi	r2,r3,1
 180b5d0:	1000011e 	bne	r2,zero,180b5d8 <alt_set_flash_width_func+0x188>
 180b5d4:	00000f06 	br	180b614 <alt_set_flash_width_func+0x1c4>
    {
      case 1:
      {
        flash->read_query = alt_read_query_entry_8bit;
 180b5d8:	e0fffd17 	ldw	r3,-12(fp)
 180b5dc:	00806074 	movhi	r2,385
 180b5e0:	10ac4604 	addi	r2,r2,-20200
 180b5e4:	18803415 	stw	r2,208(r3)
        break;
 180b5e8:	00000c06 	br	180b61c <alt_set_flash_width_func+0x1cc>
      }
      case 2:
      {
        flash->read_query = alt_read_query_entry_16bit;
 180b5ec:	e0fffd17 	ldw	r3,-12(fp)
 180b5f0:	00806074 	movhi	r2,385
 180b5f4:	10ac5604 	addi	r2,r2,-20136
 180b5f8:	18803415 	stw	r2,208(r3)
        break;
 180b5fc:	00000706 	br	180b61c <alt_set_flash_width_func+0x1cc>
      }
      case 4:
      {
        flash->read_query = alt_read_query_entry_32bit;
 180b600:	e0fffd17 	ldw	r3,-12(fp)
 180b604:	00806074 	movhi	r2,385
 180b608:	10ac6704 	addi	r2,r2,-20068
 180b60c:	18803415 	stw	r2,208(r3)
        break;
 180b610:	00000206 	br	180b61c <alt_set_flash_width_func+0x1cc>
      }
      default:
      {
        ret_code = -EACCES;
 180b614:	00bffcc4 	movi	r2,-13
 180b618:	e0bffc15 	stw	r2,-16(fp)
      }
    }
  }

  return ret_code;
 180b61c:	e0bffc17 	ldw	r2,-16(fp)
}
 180b620:	e037883a 	mov	sp,fp
 180b624:	df000017 	ldw	fp,0(sp)
 180b628:	dec00104 	addi	sp,sp,4
 180b62c:	f800283a 	ret

0180b630 <alt_set_flash_algorithm_func>:
 * 
 * Setup the function pointers to the functions for this algorithm
 * 
 */
int alt_set_flash_algorithm_func( alt_flash_cfi_dev* flash)
{
 180b630:	defffc04 	addi	sp,sp,-16
 180b634:	df000315 	stw	fp,12(sp)
 180b638:	df000304 	addi	fp,sp,12
 180b63c:	e13ffe15 	stw	r4,-8(fp)
  int ret_code = 0;
 180b640:	e03ffd15 	stw	zero,-12(fp)
 
  switch(flash->algorithm)
 180b644:	e0bffe17 	ldw	r2,-8(fp)
 180b648:	10802d17 	ldw	r2,180(r2)
 180b64c:	e0bfff15 	stw	r2,-4(fp)
 180b650:	e0ffff17 	ldw	r3,-4(fp)
 180b654:	188000a0 	cmpeqi	r2,r3,2
 180b658:	1000071e 	bne	r2,zero,180b678 <alt_set_flash_algorithm_func+0x48>
 180b65c:	e0ffff17 	ldw	r3,-4(fp)
 180b660:	188000e0 	cmpeqi	r2,r3,3
 180b664:	10000d1e 	bne	r2,zero,180b69c <alt_set_flash_algorithm_func+0x6c>
 180b668:	e0ffff17 	ldw	r3,-4(fp)
 180b66c:	18800060 	cmpeqi	r2,r3,1
 180b670:	10000a1e 	bne	r2,zero,180b69c <alt_set_flash_algorithm_func+0x6c>
 180b674:	00001206 	br	180b6c0 <alt_set_flash_algorithm_func+0x90>
  {
    case CFI_ALG_AMD:
    {
      flash->dev.erase_block = alt_erase_block_amd;
 180b678:	e0fffe17 	ldw	r3,-8(fp)
 180b67c:	00806074 	movhi	r2,385
 180b680:	10be2404 	addi	r2,r2,-1904
 180b684:	18800815 	stw	r2,32(r3)
      flash->dev.write_block = alt_program_amd;
 180b688:	e0fffe17 	ldw	r3,-8(fp)
 180b68c:	00806074 	movhi	r2,385
 180b690:	10be0a04 	addi	r2,r2,-2008
 180b694:	18800915 	stw	r2,36(r3)
      break;
 180b698:	00000b06 	br	180b6c8 <alt_set_flash_algorithm_func+0x98>
    }
    case CFI_ALG_INTEL:
    case CFI_ALG_INTEL_STRATA:
    {
      flash->dev.erase_block = alt_erase_block_intel;
 180b69c:	e0fffe17 	ldw	r3,-8(fp)
 180b6a0:	00806074 	movhi	r2,385
 180b6a4:	10bf4304 	addi	r2,r2,-756
 180b6a8:	18800815 	stw	r2,32(r3)
      flash->dev.write_block = alt_program_intel;
 180b6ac:	e0fffe17 	ldw	r3,-8(fp)
 180b6b0:	00806074 	movhi	r2,385
 180b6b4:	10bf2204 	addi	r2,r2,-888
 180b6b8:	18800915 	stw	r2,36(r3)
      break;
 180b6bc:	00000206 	br	180b6c8 <alt_set_flash_algorithm_func+0x98>
    }
    default:
    {
      ret_code = -EIO;
 180b6c0:	00bffec4 	movi	r2,-5
 180b6c4:	e0bffd15 	stw	r2,-12(fp)
    }
  } 
  return ret_code;  
 180b6c8:	e0bffd17 	ldw	r2,-12(fp)
}
 180b6cc:	e037883a 	mov	sp,fp
 180b6d0:	df000017 	ldw	fp,0(sp)
 180b6d4:	dec00104 	addi	sp,sp,4
 180b6d8:	f800283a 	ret

0180b6dc <alt_read_16bit_query_entry>:
 * read_16bit_query_entry
 * 
 * Read a 16 bit entry from the CFI Query table
 */
static alt_u16 alt_read_16bit_query_entry(alt_flash_cfi_dev* flash, int address)
{
 180b6dc:	defffb04 	addi	sp,sp,-20
 180b6e0:	dfc00415 	stw	ra,16(sp)
 180b6e4:	df000315 	stw	fp,12(sp)
 180b6e8:	df000304 	addi	fp,sp,12
 180b6ec:	e13ffe15 	stw	r4,-8(fp)
 180b6f0:	e17fff15 	stw	r5,-4(fp)
  alt_u16 ret_code;

  ret_code = (*flash->read_query)( flash, address);
 180b6f4:	e0bffe17 	ldw	r2,-8(fp)
 180b6f8:	10803417 	ldw	r2,208(r2)
 180b6fc:	e13ffe17 	ldw	r4,-8(fp)
 180b700:	e17fff17 	ldw	r5,-4(fp)
 180b704:	103ee83a 	callr	r2
 180b708:	10803fcc 	andi	r2,r2,255
 180b70c:	e0bffd0d 	sth	r2,-12(fp)
  ret_code |= (((int)(*flash->read_query)(flash, address+1)) << 8);                   
 180b710:	e0bffe17 	ldw	r2,-8(fp)
 180b714:	10c03417 	ldw	r3,208(r2)
 180b718:	e0bfff17 	ldw	r2,-4(fp)
 180b71c:	11400044 	addi	r5,r2,1
 180b720:	e13ffe17 	ldw	r4,-8(fp)
 180b724:	183ee83a 	callr	r3
 180b728:	10803fcc 	andi	r2,r2,255
 180b72c:	1004923a 	slli	r2,r2,8
 180b730:	1007883a 	mov	r3,r2
 180b734:	e0bffd0b 	ldhu	r2,-12(fp)
 180b738:	1884b03a 	or	r2,r3,r2
 180b73c:	e0bffd0d 	sth	r2,-12(fp)

  return ret_code;
 180b740:	e0bffd0b 	ldhu	r2,-12(fp)
}
 180b744:	e037883a 	mov	sp,fp
 180b748:	dfc00117 	ldw	ra,4(sp)
 180b74c:	df000017 	ldw	fp,0(sp)
 180b750:	dec00204 	addi	sp,sp,8
 180b754:	f800283a 	ret

0180b758 <alt_read_cfi_table>:
 * read_cfi_table
 * 
 * Read the CFI Table
 */
int alt_read_cfi_table(alt_flash_cfi_dev* flash)
{
 180b758:	defff204 	addi	sp,sp,-56
 180b75c:	dfc00d15 	stw	ra,52(sp)
 180b760:	df000c15 	stw	fp,48(sp)
 180b764:	dc000b15 	stw	r16,44(sp)
 180b768:	df000b04 	addi	fp,sp,44
 180b76c:	e13fff15 	stw	r4,-4(fp)
  int   i,j;
  int   device_size;
  int   ret_code = 0;
 180b770:	e03ffb15 	stw	zero,-20(fp)
  int   size = 0;
 180b774:	e03ffa15 	stw	zero,-24(fp)
  int   swap;
  int   typical_timeout;
  int   max_timeout;
  int   offset = 0;
 180b778:	e03ff615 	stw	zero,-40(fp)
   
  /*
  * Check that the Primary Vendor Specific table
  * starts with the letters PRI                                                         
  */
  ret_code = alt_check_primary_table(flash);
 180b77c:	e13fff17 	ldw	r4,-4(fp)
 180b780:	180c4840 	call	180c484 <alt_check_primary_table>
 180b784:	e0bffb15 	stw	r2,-20(fp)

  if (!ret_code)
 180b788:	e0bffb17 	ldw	r2,-20(fp)
 180b78c:	1004c03a 	cmpne	r2,r2,zero
 180b790:	10014a1e 	bne	r2,zero,180bcbc <alt_read_cfi_table+0x564>
  {
    flash->algorithm = (*flash->read_query)(flash, 0x13);
 180b794:	e0bfff17 	ldw	r2,-4(fp)
 180b798:	10803417 	ldw	r2,208(r2)
 180b79c:	e13fff17 	ldw	r4,-4(fp)
 180b7a0:	014004c4 	movi	r5,19
 180b7a4:	103ee83a 	callr	r2
 180b7a8:	10c03fcc 	andi	r3,r2,255
 180b7ac:	e0bfff17 	ldw	r2,-4(fp)
 180b7b0:	10c02d15 	stw	r3,180(r2)
  
    /* 
     * Let's read the write timeout values from the flash 
     * 
     */
    typical_timeout = (*flash->read_query)( flash, 0x1f);
 180b7b4:	e0bfff17 	ldw	r2,-4(fp)
 180b7b8:	10803417 	ldw	r2,208(r2)
 180b7bc:	e13fff17 	ldw	r4,-4(fp)
 180b7c0:	014007c4 	movi	r5,31
 180b7c4:	103ee83a 	callr	r2
 180b7c8:	10803fcc 	andi	r2,r2,255
 180b7cc:	e0bff815 	stw	r2,-32(fp)
    max_timeout = (*flash->read_query)( flash, 0x23);
 180b7d0:	e0bfff17 	ldw	r2,-4(fp)
 180b7d4:	10803417 	ldw	r2,208(r2)
 180b7d8:	e13fff17 	ldw	r4,-4(fp)
 180b7dc:	014008c4 	movi	r5,35
 180b7e0:	103ee83a 	callr	r2
 180b7e4:	10803fcc 	andi	r2,r2,255
 180b7e8:	e0bff715 	stw	r2,-36(fp)
    
    if ((typical_timeout == 0 ) || (max_timeout == 0))
 180b7ec:	e0bff817 	ldw	r2,-32(fp)
 180b7f0:	1005003a 	cmpeq	r2,r2,zero
 180b7f4:	1000031e 	bne	r2,zero,180b804 <alt_read_cfi_table+0xac>
 180b7f8:	e0bff717 	ldw	r2,-36(fp)
 180b7fc:	1004c03a 	cmpne	r2,r2,zero
 180b800:	1000041e 	bne	r2,zero,180b814 <alt_read_cfi_table+0xbc>
    {
      flash->write_timeout = 1000; /* 1ms should be more than enough */
 180b804:	e0ffff17 	ldw	r3,-4(fp)
 180b808:	0080fa04 	movi	r2,1000
 180b80c:	18803015 	stw	r2,192(r3)
     * 
     */
    typical_timeout = (*flash->read_query)( flash, 0x1f);
    max_timeout = (*flash->read_query)( flash, 0x23);
    
    if ((typical_timeout == 0 ) || (max_timeout == 0))
 180b810:	00000706 	br	180b830 <alt_read_cfi_table+0xd8>
    {
      flash->write_timeout = 1000; /* 1ms should be more than enough */
    }
    else
    {
      flash->write_timeout = (1 << typical_timeout) * (1 << max_timeout);
 180b814:	00c00044 	movi	r3,1
 180b818:	e0bff817 	ldw	r2,-32(fp)
 180b81c:	1886983a 	sll	r3,r3,r2
 180b820:	e0bff717 	ldw	r2,-36(fp)
 180b824:	1886983a 	sll	r3,r3,r2
 180b828:	e0bfff17 	ldw	r2,-4(fp)
 180b82c:	10c03015 	stw	r3,192(r2)
    }
   
    /* Let's read the block erase timeout values from the flash */
    typical_timeout = (*flash->read_query)( flash, 0x21);
 180b830:	e0bfff17 	ldw	r2,-4(fp)
 180b834:	10803417 	ldw	r2,208(r2)
 180b838:	e13fff17 	ldw	r4,-4(fp)
 180b83c:	01400844 	movi	r5,33
 180b840:	103ee83a 	callr	r2
 180b844:	10803fcc 	andi	r2,r2,255
 180b848:	e0bff815 	stw	r2,-32(fp)
    max_timeout = (*flash->read_query)( flash, 0x25);
 180b84c:	e0bfff17 	ldw	r2,-4(fp)
 180b850:	10803417 	ldw	r2,208(r2)
 180b854:	e13fff17 	ldw	r4,-4(fp)
 180b858:	01400944 	movi	r5,37
 180b85c:	103ee83a 	callr	r2
 180b860:	10803fcc 	andi	r2,r2,255
 180b864:	e0bff715 	stw	r2,-36(fp)
    
    if ((typical_timeout == 0 ) || (max_timeout == 0))
 180b868:	e0bff817 	ldw	r2,-32(fp)
 180b86c:	1005003a 	cmpeq	r2,r2,zero
 180b870:	1000031e 	bne	r2,zero,180b880 <alt_read_cfi_table+0x128>
 180b874:	e0bff717 	ldw	r2,-36(fp)
 180b878:	1004c03a 	cmpne	r2,r2,zero
 180b87c:	1000051e 	bne	r2,zero,180b894 <alt_read_cfi_table+0x13c>
    {
      flash->erase_timeout = 20000000; /* 20s should be more than enough */
 180b880:	e0ffff17 	ldw	r3,-4(fp)
 180b884:	00804c74 	movhi	r2,305
 180b888:	108b4004 	addi	r2,r2,11520
 180b88c:	18803115 	stw	r2,196(r3)
   
    /* Let's read the block erase timeout values from the flash */
    typical_timeout = (*flash->read_query)( flash, 0x21);
    max_timeout = (*flash->read_query)( flash, 0x25);
    
    if ((typical_timeout == 0 ) || (max_timeout == 0))
 180b890:	00000806 	br	180b8b4 <alt_read_cfi_table+0x15c>
    {
      flash->erase_timeout = 20000000; /* 20s should be more than enough */
    }
    else
    {
      flash->erase_timeout = (1 << typical_timeout) * (1 << max_timeout) * 1000;
 180b894:	00c00044 	movi	r3,1
 180b898:	e0bff817 	ldw	r2,-32(fp)
 180b89c:	1886983a 	sll	r3,r3,r2
 180b8a0:	e0bff717 	ldw	r2,-36(fp)
 180b8a4:	1884983a 	sll	r2,r3,r2
 180b8a8:	10c0fa24 	muli	r3,r2,1000
 180b8ac:	e0bfff17 	ldw	r2,-4(fp)
 180b8b0:	10c03115 	stw	r3,196(r2)
    }
   
    device_size = 0x1 << (*flash->read_query)( flash, 0x27);
 180b8b4:	e0bfff17 	ldw	r2,-4(fp)
 180b8b8:	10803417 	ldw	r2,208(r2)
 180b8bc:	e13fff17 	ldw	r4,-4(fp)
 180b8c0:	014009c4 	movi	r5,39
 180b8c4:	103ee83a 	callr	r2
 180b8c8:	10c03fcc 	andi	r3,r2,255
 180b8cc:	00800044 	movi	r2,1
 180b8d0:	10c4983a 	sll	r2,r2,r3
 180b8d4:	e0bffc15 	stw	r2,-16(fp)
  
    flash->dev.number_of_regions = (*flash->read_query)(flash, 0x2c);
 180b8d8:	e0bfff17 	ldw	r2,-4(fp)
 180b8dc:	10803417 	ldw	r2,208(r2)
 180b8e0:	e13fff17 	ldw	r4,-4(fp)
 180b8e4:	01400b04 	movi	r5,44
 180b8e8:	103ee83a 	callr	r2
 180b8ec:	10c03fcc 	andi	r3,r2,255
 180b8f0:	e0bfff17 	ldw	r2,-4(fp)
 180b8f4:	10c00c15 	stw	r3,48(r2)
    
    if (flash->dev.number_of_regions > ALT_MAX_NUMBER_OF_FLASH_REGIONS)
 180b8f8:	e0bfff17 	ldw	r2,-4(fp)
 180b8fc:	10800c17 	ldw	r2,48(r2)
 180b900:	10800250 	cmplti	r2,r2,9
 180b904:	1000031e 	bne	r2,zero,180b914 <alt_read_cfi_table+0x1bc>
    {
      ret_code = -ENOMEM;
 180b908:	00bffd04 	movi	r2,-12
 180b90c:	e0bffb15 	stw	r2,-20(fp)
 180b910:	00005e06 	br	180ba8c <alt_read_cfi_table+0x334>
    }
    else
    {
      for(i=0;i<flash->dev.number_of_regions;i++)
 180b914:	e03ffe15 	stw	zero,-8(fp)
 180b918:	00005306 	br	180ba68 <alt_read_cfi_table+0x310>
      {
        flash->dev.region_info[i].number_of_blocks =  alt_read_16bit_query_entry( 
 180b91c:	e43ffe17 	ldw	r16,-8(fp)
 180b920:	e0bffe17 	ldw	r2,-8(fp)
 180b924:	1085883a 	add	r2,r2,r2
 180b928:	1085883a 	add	r2,r2,r2
 180b92c:	11400b44 	addi	r5,r2,45
 180b930:	e13fff17 	ldw	r4,-4(fp)
 180b934:	180b6dc0 	call	180b6dc <alt_read_16bit_query_entry>
 180b938:	113fffcc 	andi	r4,r2,65535
 180b93c:	e0ffff17 	ldw	r3,-4(fp)
 180b940:	8004913a 	slli	r2,r16,4
 180b944:	10c5883a 	add	r2,r2,r3
 180b948:	10800f04 	addi	r2,r2,60
 180b94c:	11000015 	stw	r4,0(r2)
                                                            flash,
                                                            (0x2D+i*4));
        flash->dev.region_info[i].number_of_blocks += 1; 
 180b950:	e17ffe17 	ldw	r5,-8(fp)
 180b954:	e0bffe17 	ldw	r2,-8(fp)
 180b958:	e0ffff17 	ldw	r3,-4(fp)
 180b95c:	1004913a 	slli	r2,r2,4
 180b960:	10c5883a 	add	r2,r2,r3
 180b964:	10800f04 	addi	r2,r2,60
 180b968:	10800017 	ldw	r2,0(r2)
 180b96c:	11000044 	addi	r4,r2,1
 180b970:	e0ffff17 	ldw	r3,-4(fp)
 180b974:	2804913a 	slli	r2,r5,4
 180b978:	10c5883a 	add	r2,r2,r3
 180b97c:	10800f04 	addi	r2,r2,60
 180b980:	11000015 	stw	r4,0(r2)
        flash->dev.region_info[i].block_size =  alt_read_16bit_query_entry( flash, 
 180b984:	e43ffe17 	ldw	r16,-8(fp)
 180b988:	e0bffe17 	ldw	r2,-8(fp)
 180b98c:	1085883a 	add	r2,r2,r2
 180b990:	1085883a 	add	r2,r2,r2
 180b994:	11400bc4 	addi	r5,r2,47
 180b998:	e13fff17 	ldw	r4,-4(fp)
 180b99c:	180b6dc0 	call	180b6dc <alt_read_16bit_query_entry>
 180b9a0:	113fffcc 	andi	r4,r2,65535
 180b9a4:	e0ffff17 	ldw	r3,-4(fp)
 180b9a8:	8004913a 	slli	r2,r16,4
 180b9ac:	10c5883a 	add	r2,r2,r3
 180b9b0:	10801004 	addi	r2,r2,64
 180b9b4:	11000015 	stw	r4,0(r2)
                                                              (0x2F+i*4));
        flash->dev.region_info[i].block_size *= 256;
 180b9b8:	e17ffe17 	ldw	r5,-8(fp)
 180b9bc:	e0bffe17 	ldw	r2,-8(fp)
 180b9c0:	e0ffff17 	ldw	r3,-4(fp)
 180b9c4:	1004913a 	slli	r2,r2,4
 180b9c8:	10c5883a 	add	r2,r2,r3
 180b9cc:	10801004 	addi	r2,r2,64
 180b9d0:	10800017 	ldw	r2,0(r2)
 180b9d4:	1008923a 	slli	r4,r2,8
 180b9d8:	e0ffff17 	ldw	r3,-4(fp)
 180b9dc:	2804913a 	slli	r2,r5,4
 180b9e0:	10c5883a 	add	r2,r2,r3
 180b9e4:	10801004 	addi	r2,r2,64
 180b9e8:	11000015 	stw	r4,0(r2)
        flash->dev.region_info[i].region_size = 
 180b9ec:	e17ffe17 	ldw	r5,-8(fp)
 180b9f0:	e0bffe17 	ldw	r2,-8(fp)
 180b9f4:	e0ffff17 	ldw	r3,-4(fp)
 180b9f8:	1004913a 	slli	r2,r2,4
 180b9fc:	10c5883a 	add	r2,r2,r3
 180ba00:	10800f04 	addi	r2,r2,60
 180ba04:	11000017 	ldw	r4,0(r2)
 180ba08:	e0bffe17 	ldw	r2,-8(fp)
 180ba0c:	e0ffff17 	ldw	r3,-4(fp)
 180ba10:	1004913a 	slli	r2,r2,4
 180ba14:	10c5883a 	add	r2,r2,r3
 180ba18:	10801004 	addi	r2,r2,64
 180ba1c:	10800017 	ldw	r2,0(r2)
 180ba20:	2089383a 	mul	r4,r4,r2
 180ba24:	e0ffff17 	ldw	r3,-4(fp)
 180ba28:	2804913a 	slli	r2,r5,4
 180ba2c:	10c5883a 	add	r2,r2,r3
 180ba30:	10800e04 	addi	r2,r2,56
 180ba34:	11000015 	stw	r4,0(r2)
                                    flash->dev.region_info[i].number_of_blocks 
                                    * flash->dev.region_info[i].block_size;
        size += flash->dev.region_info[i].region_size;
 180ba38:	e0bffe17 	ldw	r2,-8(fp)
 180ba3c:	e0ffff17 	ldw	r3,-4(fp)
 180ba40:	1004913a 	slli	r2,r2,4
 180ba44:	10c5883a 	add	r2,r2,r3
 180ba48:	10800e04 	addi	r2,r2,56
 180ba4c:	10c00017 	ldw	r3,0(r2)
 180ba50:	e0bffa17 	ldw	r2,-24(fp)
 180ba54:	10c5883a 	add	r2,r2,r3
 180ba58:	e0bffa15 	stw	r2,-24(fp)
    {
      ret_code = -ENOMEM;
    }
    else
    {
      for(i=0;i<flash->dev.number_of_regions;i++)
 180ba5c:	e0bffe17 	ldw	r2,-8(fp)
 180ba60:	10800044 	addi	r2,r2,1
 180ba64:	e0bffe15 	stw	r2,-8(fp)
 180ba68:	e0bfff17 	ldw	r2,-4(fp)
 180ba6c:	10c00c17 	ldw	r3,48(r2)
 180ba70:	e0bffe17 	ldw	r2,-8(fp)
 180ba74:	10ffa916 	blt	r2,r3,180b91c <alt_read_cfi_table+0x1c4>
                                    flash->dev.region_info[i].number_of_blocks 
                                    * flash->dev.region_info[i].block_size;
        size += flash->dev.region_info[i].region_size;
      }
       
      if (size != device_size)
 180ba78:	e0fffa17 	ldw	r3,-24(fp)
 180ba7c:	e0bffc17 	ldw	r2,-16(fp)
 180ba80:	18800226 	beq	r3,r2,180ba8c <alt_read_cfi_table+0x334>
      {
        ret_code = -ENODEV;
 180ba84:	00bffb44 	movi	r2,-19
 180ba88:	e0bffb15 	stw	r2,-20(fp)
      }
    }
    
    boot_mode = (*flash->read_query)( flash, flash->primary_address + 0xf);
 180ba8c:	e0bfff17 	ldw	r2,-4(fp)
 180ba90:	10c03417 	ldw	r3,208(r2)
 180ba94:	e0bfff17 	ldw	r2,-4(fp)
 180ba98:	10803217 	ldw	r2,200(r2)
 180ba9c:	114003c4 	addi	r5,r2,15
 180baa0:	e13fff17 	ldw	r4,-4(fp)
 180baa4:	183ee83a 	callr	r3
 180baa8:	e0bff505 	stb	r2,-44(fp)
     * Intel Flash parts describe the sections in the order they appear
     * for AMD they just put all the small ones first then the bigger ones
     * So if it's a top boot part we have to reverse the order of the sectors
     * so they're in the correct order
     */
    if ((flash->algorithm == CFI_ALG_AMD) && (boot_mode == TOP_BOOT_DEVICE))
 180baac:	e0bfff17 	ldw	r2,-4(fp)
 180bab0:	10802d17 	ldw	r2,180(r2)
 180bab4:	10800098 	cmpnei	r2,r2,2
 180bab8:	1000601e 	bne	r2,zero,180bc3c <alt_read_cfi_table+0x4e4>
 180babc:	e0bff503 	ldbu	r2,-44(fp)
 180bac0:	108000d8 	cmpnei	r2,r2,3
 180bac4:	10005d1e 	bne	r2,zero,180bc3c <alt_read_cfi_table+0x4e4>
    {
      for(i=flash->dev.number_of_regions-1, j=0;
 180bac8:	e0bfff17 	ldw	r2,-4(fp)
 180bacc:	10800c17 	ldw	r2,48(r2)
 180bad0:	10bfffc4 	addi	r2,r2,-1
 180bad4:	e0bffe15 	stw	r2,-8(fp)
 180bad8:	e03ffd15 	stw	zero,-12(fp)
          j<=i;i--,j++)
 180badc:	00005406 	br	180bc30 <alt_read_cfi_table+0x4d8>
      {
        swap = flash->dev.region_info[i].region_size;
 180bae0:	e0bffe17 	ldw	r2,-8(fp)
 180bae4:	e0ffff17 	ldw	r3,-4(fp)
 180bae8:	1004913a 	slli	r2,r2,4
 180baec:	10c5883a 	add	r2,r2,r3
 180baf0:	10800e04 	addi	r2,r2,56
 180baf4:	10800017 	ldw	r2,0(r2)
 180baf8:	e0bff915 	stw	r2,-28(fp)
        flash->dev.region_info[i].region_size =  
 180bafc:	e17ffe17 	ldw	r5,-8(fp)
 180bb00:	e0bffd17 	ldw	r2,-12(fp)
 180bb04:	e0ffff17 	ldw	r3,-4(fp)
 180bb08:	1004913a 	slli	r2,r2,4
 180bb0c:	10c5883a 	add	r2,r2,r3
 180bb10:	10800e04 	addi	r2,r2,56
 180bb14:	11000017 	ldw	r4,0(r2)
 180bb18:	e0ffff17 	ldw	r3,-4(fp)
 180bb1c:	2804913a 	slli	r2,r5,4
 180bb20:	10c5883a 	add	r2,r2,r3
 180bb24:	10800e04 	addi	r2,r2,56
 180bb28:	11000015 	stw	r4,0(r2)
                                flash->dev.region_info[j].region_size;
        flash->dev.region_info[j].region_size = swap;
 180bb2c:	e0bffd17 	ldw	r2,-12(fp)
 180bb30:	e0ffff17 	ldw	r3,-4(fp)
 180bb34:	1004913a 	slli	r2,r2,4
 180bb38:	10c5883a 	add	r2,r2,r3
 180bb3c:	10c00e04 	addi	r3,r2,56
 180bb40:	e0bff917 	ldw	r2,-28(fp)
 180bb44:	18800015 	stw	r2,0(r3)

        swap = flash->dev.region_info[i].block_size;
 180bb48:	e0bffe17 	ldw	r2,-8(fp)
 180bb4c:	e0ffff17 	ldw	r3,-4(fp)
 180bb50:	1004913a 	slli	r2,r2,4
 180bb54:	10c5883a 	add	r2,r2,r3
 180bb58:	10801004 	addi	r2,r2,64
 180bb5c:	10800017 	ldw	r2,0(r2)
 180bb60:	e0bff915 	stw	r2,-28(fp)
        flash->dev.region_info[i].block_size =  
 180bb64:	e17ffe17 	ldw	r5,-8(fp)
 180bb68:	e0bffd17 	ldw	r2,-12(fp)
 180bb6c:	e0ffff17 	ldw	r3,-4(fp)
 180bb70:	1004913a 	slli	r2,r2,4
 180bb74:	10c5883a 	add	r2,r2,r3
 180bb78:	10801004 	addi	r2,r2,64
 180bb7c:	11000017 	ldw	r4,0(r2)
 180bb80:	e0ffff17 	ldw	r3,-4(fp)
 180bb84:	2804913a 	slli	r2,r5,4
 180bb88:	10c5883a 	add	r2,r2,r3
 180bb8c:	10801004 	addi	r2,r2,64
 180bb90:	11000015 	stw	r4,0(r2)
                                flash->dev.region_info[j].block_size;
        flash->dev.region_info[j].block_size = swap;
 180bb94:	e0bffd17 	ldw	r2,-12(fp)
 180bb98:	e0ffff17 	ldw	r3,-4(fp)
 180bb9c:	1004913a 	slli	r2,r2,4
 180bba0:	10c5883a 	add	r2,r2,r3
 180bba4:	10c01004 	addi	r3,r2,64
 180bba8:	e0bff917 	ldw	r2,-28(fp)
 180bbac:	18800015 	stw	r2,0(r3)
 
        swap = flash->dev.region_info[i].number_of_blocks;
 180bbb0:	e0bffe17 	ldw	r2,-8(fp)
 180bbb4:	e0ffff17 	ldw	r3,-4(fp)
 180bbb8:	1004913a 	slli	r2,r2,4
 180bbbc:	10c5883a 	add	r2,r2,r3
 180bbc0:	10800f04 	addi	r2,r2,60
 180bbc4:	10800017 	ldw	r2,0(r2)
 180bbc8:	e0bff915 	stw	r2,-28(fp)
        flash->dev.region_info[i].number_of_blocks =  
 180bbcc:	e17ffe17 	ldw	r5,-8(fp)
 180bbd0:	e0bffd17 	ldw	r2,-12(fp)
 180bbd4:	e0ffff17 	ldw	r3,-4(fp)
 180bbd8:	1004913a 	slli	r2,r2,4
 180bbdc:	10c5883a 	add	r2,r2,r3
 180bbe0:	10800f04 	addi	r2,r2,60
 180bbe4:	11000017 	ldw	r4,0(r2)
 180bbe8:	e0ffff17 	ldw	r3,-4(fp)
 180bbec:	2804913a 	slli	r2,r5,4
 180bbf0:	10c5883a 	add	r2,r2,r3
 180bbf4:	10800f04 	addi	r2,r2,60
 180bbf8:	11000015 	stw	r4,0(r2)
                                flash->dev.region_info[j].number_of_blocks;
        flash->dev.region_info[j].number_of_blocks = swap;
 180bbfc:	e0bffd17 	ldw	r2,-12(fp)
 180bc00:	e0ffff17 	ldw	r3,-4(fp)
 180bc04:	1004913a 	slli	r2,r2,4
 180bc08:	10c5883a 	add	r2,r2,r3
 180bc0c:	10c00f04 	addi	r3,r2,60
 180bc10:	e0bff917 	ldw	r2,-28(fp)
 180bc14:	18800015 	stw	r2,0(r3)
     * so they're in the correct order
     */
    if ((flash->algorithm == CFI_ALG_AMD) && (boot_mode == TOP_BOOT_DEVICE))
    {
      for(i=flash->dev.number_of_regions-1, j=0;
          j<=i;i--,j++)
 180bc18:	e0bffe17 	ldw	r2,-8(fp)
 180bc1c:	10bfffc4 	addi	r2,r2,-1
 180bc20:	e0bffe15 	stw	r2,-8(fp)
 180bc24:	e0bffd17 	ldw	r2,-12(fp)
 180bc28:	10800044 	addi	r2,r2,1
 180bc2c:	e0bffd15 	stw	r2,-12(fp)
 180bc30:	e0fffd17 	ldw	r3,-12(fp)
 180bc34:	e0bffe17 	ldw	r2,-8(fp)
 180bc38:	10ffa90e 	bge	r2,r3,180bae0 <alt_read_cfi_table+0x388>
        flash->dev.region_info[j].number_of_blocks = swap;

      } 
    }
    
    for(i=0;i<flash->dev.number_of_regions;i++)
 180bc3c:	e03ffe15 	stw	zero,-8(fp)
 180bc40:	00001306 	br	180bc90 <alt_read_cfi_table+0x538>
    {
      flash->dev.region_info[i].offset = offset;
 180bc44:	e0bffe17 	ldw	r2,-8(fp)
 180bc48:	e0ffff17 	ldw	r3,-4(fp)
 180bc4c:	1004913a 	slli	r2,r2,4
 180bc50:	10c5883a 	add	r2,r2,r3
 180bc54:	10c00d04 	addi	r3,r2,52
 180bc58:	e0bff617 	ldw	r2,-40(fp)
 180bc5c:	18800015 	stw	r2,0(r3)
      offset += flash->dev.region_info[i].region_size;
 180bc60:	e0bffe17 	ldw	r2,-8(fp)
 180bc64:	e0ffff17 	ldw	r3,-4(fp)
 180bc68:	1004913a 	slli	r2,r2,4
 180bc6c:	10c5883a 	add	r2,r2,r3
 180bc70:	10800e04 	addi	r2,r2,56
 180bc74:	10c00017 	ldw	r3,0(r2)
 180bc78:	e0bff617 	ldw	r2,-40(fp)
 180bc7c:	10c5883a 	add	r2,r2,r3
 180bc80:	e0bff615 	stw	r2,-40(fp)
        flash->dev.region_info[j].number_of_blocks = swap;

      } 
    }
    
    for(i=0;i<flash->dev.number_of_regions;i++)
 180bc84:	e0bffe17 	ldw	r2,-8(fp)
 180bc88:	10800044 	addi	r2,r2,1
 180bc8c:	e0bffe15 	stw	r2,-8(fp)
 180bc90:	e0bfff17 	ldw	r2,-4(fp)
 180bc94:	10c00c17 	ldw	r3,48(r2)
 180bc98:	e0bffe17 	ldw	r2,-8(fp)
 180bc9c:	10ffe916 	blt	r2,r3,180bc44 <alt_read_cfi_table+0x4ec>
    {
      flash->dev.region_info[i].offset = offset;
      offset += flash->dev.region_info[i].region_size;
    }
    
    (*flash->write_command)(flash->dev.base_addr, 
 180bca0:	e0bfff17 	ldw	r2,-4(fp)
 180bca4:	10c03317 	ldw	r3,204(r2)
 180bca8:	e0bfff17 	ldw	r2,-4(fp)
 180bcac:	11000a17 	ldw	r4,40(r2)
 180bcb0:	01401544 	movi	r5,85
 180bcb4:	01803fc4 	movi	r6,255
 180bcb8:	183ee83a 	callr	r3
                            0x55, 
                            READ_ARRAY_MODE);
  }  

  return ret_code;
 180bcbc:	e0bffb17 	ldw	r2,-20(fp)
}
 180bcc0:	e037883a 	mov	sp,fp
 180bcc4:	dfc00217 	ldw	ra,8(sp)
 180bcc8:	df000117 	ldw	fp,4(sp)
 180bccc:	dc000017 	ldw	r16,0(sp)
 180bcd0:	dec00304 	addi	sp,sp,12
 180bcd4:	f800283a 	ret

0180bcd8 <alt_read_cfi_width>:
 * 
 * Work out the width of the device we're talking to and sanity check that we  
 * can read the CFI and the Primary Vendor specific Table
 */
int alt_read_cfi_width(alt_flash_cfi_dev* flash)
{
 180bcd8:	defff704 	addi	sp,sp,-36
 180bcdc:	dfc00815 	stw	ra,32(sp)
 180bce0:	df000715 	stw	fp,28(sp)
 180bce4:	df000704 	addi	fp,sp,28
 180bce8:	e13fff15 	stw	r4,-4(fp)
  int i;
  alt_u8 byte_id[12];
  alt_u16 iface;
  int ret_code = 0;
 180bcec:	e03ff915 	stw	zero,-28(fp)

  /*
  * Check for 8 bit wide flash
  */
  alt_write_flash_command_8bit_device_8bit_mode(flash->dev.base_addr, 0x55, QUERY_MODE);
 180bcf0:	e0bfff17 	ldw	r2,-4(fp)
 180bcf4:	11000a17 	ldw	r4,40(r2)
 180bcf8:	01401544 	movi	r5,85
 180bcfc:	01802604 	movi	r6,152
 180bd00:	180b1e40 	call	180b1e4 <alt_write_flash_command_8bit_device_8bit_mode>

  for(i=0;i<3;i++)
 180bd04:	e03ffb15 	stw	zero,-20(fp)
 180bd08:	00000f06 	br	180bd48 <alt_read_cfi_width+0x70>
  {
    byte_id[i] = IORD_8DIRECT(flash->dev.base_addr, QUERY_ADDR+i);
 180bd0c:	e13ffb17 	ldw	r4,-20(fp)
 180bd10:	e0bfff17 	ldw	r2,-4(fp)
 180bd14:	10800a17 	ldw	r2,40(r2)
 180bd18:	1007883a 	mov	r3,r2
 180bd1c:	e0bffb17 	ldw	r2,-20(fp)
 180bd20:	1885883a 	add	r2,r3,r2
 180bd24:	10800404 	addi	r2,r2,16
 180bd28:	10800023 	ldbuio	r2,0(r2)
 180bd2c:	1007883a 	mov	r3,r2
 180bd30:	e0bffc04 	addi	r2,fp,-16
 180bd34:	1105883a 	add	r2,r2,r4
 180bd38:	10c00005 	stb	r3,0(r2)
  /*
  * Check for 8 bit wide flash
  */
  alt_write_flash_command_8bit_device_8bit_mode(flash->dev.base_addr, 0x55, QUERY_MODE);

  for(i=0;i<3;i++)
 180bd3c:	e0bffb17 	ldw	r2,-20(fp)
 180bd40:	10800044 	addi	r2,r2,1
 180bd44:	e0bffb15 	stw	r2,-20(fp)
 180bd48:	e0bffb17 	ldw	r2,-20(fp)
 180bd4c:	108000d0 	cmplti	r2,r2,3
 180bd50:	103fee1e 	bne	r2,zero,180bd0c <alt_read_cfi_width+0x34>
  {
    byte_id[i] = IORD_8DIRECT(flash->dev.base_addr, QUERY_ADDR+i);
  }

  if ((byte_id[0] == 'Q') &&
 180bd54:	e0bffc03 	ldbu	r2,-16(fp)
 180bd58:	10803fcc 	andi	r2,r2,255
 180bd5c:	10801458 	cmpnei	r2,r2,81
 180bd60:	10001d1e 	bne	r2,zero,180bdd8 <alt_read_cfi_width+0x100>
 180bd64:	e0bffc43 	ldbu	r2,-15(fp)
 180bd68:	10803fcc 	andi	r2,r2,255
 180bd6c:	10801498 	cmpnei	r2,r2,82
 180bd70:	1000191e 	bne	r2,zero,180bdd8 <alt_read_cfi_width+0x100>
 180bd74:	e0bffc83 	ldbu	r2,-14(fp)
 180bd78:	10803fcc 	andi	r2,r2,255
 180bd7c:	10801658 	cmpnei	r2,r2,89
 180bd80:	1000151e 	bne	r2,zero,180bdd8 <alt_read_cfi_width+0x100>
      (byte_id[1] == 'R') &&
      (byte_id[2] == 'Y'))
  {
    flash->mode_width = 1;
 180bd84:	e0ffff17 	ldw	r3,-4(fp)
 180bd88:	00800044 	movi	r2,1
 180bd8c:	18802e15 	stw	r2,184(r3)
    flash->device_width = 1; 
 180bd90:	e0ffff17 	ldw	r3,-4(fp)
 180bd94:	00800044 	movi	r2,1
 180bd98:	18802f15 	stw	r2,188(r3)
    iface = IORD_16DIRECT(flash->dev.base_addr, INTERFACE_ADDR);
 180bd9c:	e0bfff17 	ldw	r2,-4(fp)
 180bda0:	10800a17 	ldw	r2,40(r2)
 180bda4:	10800a04 	addi	r2,r2,40
 180bda8:	1080002b 	ldhuio	r2,0(r2)
 180bdac:	e0bffa0d 	sth	r2,-24(fp)
    iface += 1;
 180bdb0:	e0bffa0b 	ldhu	r2,-24(fp)
 180bdb4:	10800044 	addi	r2,r2,1
 180bdb8:	e0bffa0d 	sth	r2,-24(fp)
    if (!(iface & 0x1))
 180bdbc:	e0bffa0b 	ldhu	r2,-24(fp)
 180bdc0:	1080004c 	andi	r2,r2,1
 180bdc4:	1004c03a 	cmpne	r2,r2,zero
 180bdc8:	1001a81e 	bne	r2,zero,180c46c <alt_read_cfi_width+0x794>
    {
      ret_code = -ENODEV;
 180bdcc:	00bffb44 	movi	r2,-19
 180bdd0:	e0bff915 	stw	r2,-28(fp)
  for(i=0;i<3;i++)
  {
    byte_id[i] = IORD_8DIRECT(flash->dev.base_addr, QUERY_ADDR+i);
  }

  if ((byte_id[0] == 'Q') &&
 180bdd4:	0001a506 	br	180c46c <alt_read_cfi_width+0x794>
  else
  {
    /*
    * Check for 8/16 bit in byte wide mode
    */
    alt_write_flash_command_16bit_device_8bit_mode(flash->dev.base_addr, 0x55, QUERY_MODE);
 180bdd8:	e0bfff17 	ldw	r2,-4(fp)
 180bddc:	11000a17 	ldw	r4,40(r2)
 180bde0:	01401544 	movi	r5,85
 180bde4:	01802604 	movi	r6,152
 180bde8:	180b2200 	call	180b220 <alt_write_flash_command_16bit_device_8bit_mode>
    for(i=0;i<6;i++)
 180bdec:	e03ffb15 	stw	zero,-20(fp)
 180bdf0:	00000f06 	br	180be30 <alt_read_cfi_width+0x158>
    {
      byte_id[i] = IORD_8DIRECT(flash->dev.base_addr, (QUERY_ADDR*2)+i);
 180bdf4:	e13ffb17 	ldw	r4,-20(fp)
 180bdf8:	e0bfff17 	ldw	r2,-4(fp)
 180bdfc:	10800a17 	ldw	r2,40(r2)
 180be00:	1007883a 	mov	r3,r2
 180be04:	e0bffb17 	ldw	r2,-20(fp)
 180be08:	1885883a 	add	r2,r3,r2
 180be0c:	10800804 	addi	r2,r2,32
 180be10:	10800023 	ldbuio	r2,0(r2)
 180be14:	1007883a 	mov	r3,r2
 180be18:	e0bffc04 	addi	r2,fp,-16
 180be1c:	1105883a 	add	r2,r2,r4
 180be20:	10c00005 	stb	r3,0(r2)
  {
    /*
    * Check for 8/16 bit in byte wide mode
    */
    alt_write_flash_command_16bit_device_8bit_mode(flash->dev.base_addr, 0x55, QUERY_MODE);
    for(i=0;i<6;i++)
 180be24:	e0bffb17 	ldw	r2,-20(fp)
 180be28:	10800044 	addi	r2,r2,1
 180be2c:	e0bffb15 	stw	r2,-20(fp)
 180be30:	e0bffb17 	ldw	r2,-20(fp)
 180be34:	10800190 	cmplti	r2,r2,6
 180be38:	103fee1e 	bne	r2,zero,180bdf4 <alt_read_cfi_width+0x11c>
    {
      byte_id[i] = IORD_8DIRECT(flash->dev.base_addr, (QUERY_ADDR*2)+i);
    }

    if ((byte_id[0] == 'Q') && 
 180be3c:	e0bffc03 	ldbu	r2,-16(fp)
 180be40:	10803fcc 	andi	r2,r2,255
 180be44:	10801458 	cmpnei	r2,r2,81
 180be48:	1000291e 	bne	r2,zero,180bef0 <alt_read_cfi_width+0x218>
 180be4c:	e0bffc43 	ldbu	r2,-15(fp)
 180be50:	10803fcc 	andi	r2,r2,255
 180be54:	10801458 	cmpnei	r2,r2,81
 180be58:	1000251e 	bne	r2,zero,180bef0 <alt_read_cfi_width+0x218>
 180be5c:	e0bffc83 	ldbu	r2,-14(fp)
 180be60:	10803fcc 	andi	r2,r2,255
 180be64:	10801498 	cmpnei	r2,r2,82
 180be68:	1000211e 	bne	r2,zero,180bef0 <alt_read_cfi_width+0x218>
 180be6c:	e0bffcc3 	ldbu	r2,-13(fp)
 180be70:	10803fcc 	andi	r2,r2,255
 180be74:	10801498 	cmpnei	r2,r2,82
 180be78:	10001d1e 	bne	r2,zero,180bef0 <alt_read_cfi_width+0x218>
 180be7c:	e0bffd03 	ldbu	r2,-12(fp)
 180be80:	10803fcc 	andi	r2,r2,255
 180be84:	10801658 	cmpnei	r2,r2,89
 180be88:	1000191e 	bne	r2,zero,180bef0 <alt_read_cfi_width+0x218>
 180be8c:	e0bffd43 	ldbu	r2,-11(fp)
 180be90:	10803fcc 	andi	r2,r2,255
 180be94:	10801658 	cmpnei	r2,r2,89
 180be98:	1000151e 	bne	r2,zero,180bef0 <alt_read_cfi_width+0x218>
        (byte_id[2] == 'R') &&
        (byte_id[3] == 'R') && 
        (byte_id[4] == 'Y') && 
        (byte_id[5] == 'Y'))
    {
      flash->mode_width = 1;
 180be9c:	e0ffff17 	ldw	r3,-4(fp)
 180bea0:	00800044 	movi	r2,1
 180bea4:	18802e15 	stw	r2,184(r3)
      flash->device_width = 2; 
 180bea8:	e0ffff17 	ldw	r3,-4(fp)
 180beac:	00800084 	movi	r2,2
 180beb0:	18802f15 	stw	r2,188(r3)
      iface = IORD_16DIRECT(flash->dev.base_addr, INTERFACE_ADDR*2);
 180beb4:	e0bfff17 	ldw	r2,-4(fp)
 180beb8:	10800a17 	ldw	r2,40(r2)
 180bebc:	10801404 	addi	r2,r2,80
 180bec0:	1080002b 	ldhuio	r2,0(r2)
 180bec4:	e0bffa0d 	sth	r2,-24(fp)
      iface += 1;
 180bec8:	e0bffa0b 	ldhu	r2,-24(fp)
 180becc:	10800044 	addi	r2,r2,1
 180bed0:	e0bffa0d 	sth	r2,-24(fp)
      if (!(iface & 0x1))
 180bed4:	e0bffa0b 	ldhu	r2,-24(fp)
 180bed8:	1080004c 	andi	r2,r2,1
 180bedc:	1004c03a 	cmpne	r2,r2,zero
 180bee0:	1001621e 	bne	r2,zero,180c46c <alt_read_cfi_width+0x794>
      {
        ret_code = -ENODEV;
 180bee4:	00bffb44 	movi	r2,-19
 180bee8:	e0bff915 	stw	r2,-28(fp)
    for(i=0;i<6;i++)
    {
      byte_id[i] = IORD_8DIRECT(flash->dev.base_addr, (QUERY_ADDR*2)+i);
    }

    if ((byte_id[0] == 'Q') && 
 180beec:	00015f06 	br	180c46c <alt_read_cfi_width+0x794>
    else
    {
      /*
      * Check for 16 bit flash in word mode
      */
      alt_write_flash_command_16bit_device_16bit_mode(flash->dev.base_addr, 0x55, QUERY_MODE);
 180bef0:	e0bfff17 	ldw	r2,-4(fp)
 180bef4:	11000a17 	ldw	r4,40(r2)
 180bef8:	01401544 	movi	r5,85
 180befc:	01802604 	movi	r6,152
 180bf00:	180b2e40 	call	180b2e4 <alt_write_flash_command_16bit_device_16bit_mode>
      for(i=0;i<6;i++)
 180bf04:	e03ffb15 	stw	zero,-20(fp)
 180bf08:	00000f06 	br	180bf48 <alt_read_cfi_width+0x270>
      {
        byte_id[i] = IORD_8DIRECT(flash->dev.base_addr, (QUERY_ADDR*2)+i);
 180bf0c:	e13ffb17 	ldw	r4,-20(fp)
 180bf10:	e0bfff17 	ldw	r2,-4(fp)
 180bf14:	10800a17 	ldw	r2,40(r2)
 180bf18:	1007883a 	mov	r3,r2
 180bf1c:	e0bffb17 	ldw	r2,-20(fp)
 180bf20:	1885883a 	add	r2,r3,r2
 180bf24:	10800804 	addi	r2,r2,32
 180bf28:	10800023 	ldbuio	r2,0(r2)
 180bf2c:	1007883a 	mov	r3,r2
 180bf30:	e0bffc04 	addi	r2,fp,-16
 180bf34:	1105883a 	add	r2,r2,r4
 180bf38:	10c00005 	stb	r3,0(r2)
    {
      /*
      * Check for 16 bit flash in word mode
      */
      alt_write_flash_command_16bit_device_16bit_mode(flash->dev.base_addr, 0x55, QUERY_MODE);
      for(i=0;i<6;i++)
 180bf3c:	e0bffb17 	ldw	r2,-20(fp)
 180bf40:	10800044 	addi	r2,r2,1
 180bf44:	e0bffb15 	stw	r2,-20(fp)
 180bf48:	e0bffb17 	ldw	r2,-20(fp)
 180bf4c:	10800190 	cmplti	r2,r2,6
 180bf50:	103fee1e 	bne	r2,zero,180bf0c <alt_read_cfi_width+0x234>
      {
        byte_id[i] = IORD_8DIRECT(flash->dev.base_addr, (QUERY_ADDR*2)+i);
      }

      if ((byte_id[0] == 'Q') && 
 180bf54:	e0bffc03 	ldbu	r2,-16(fp)
 180bf58:	10803fcc 	andi	r2,r2,255
 180bf5c:	10801458 	cmpnei	r2,r2,81
 180bf60:	1000291e 	bne	r2,zero,180c008 <alt_read_cfi_width+0x330>
 180bf64:	e0bffc43 	ldbu	r2,-15(fp)
 180bf68:	10803fcc 	andi	r2,r2,255
 180bf6c:	1004c03a 	cmpne	r2,r2,zero
 180bf70:	1000251e 	bne	r2,zero,180c008 <alt_read_cfi_width+0x330>
 180bf74:	e0bffc83 	ldbu	r2,-14(fp)
 180bf78:	10803fcc 	andi	r2,r2,255
 180bf7c:	10801498 	cmpnei	r2,r2,82
 180bf80:	1000211e 	bne	r2,zero,180c008 <alt_read_cfi_width+0x330>
 180bf84:	e0bffcc3 	ldbu	r2,-13(fp)
 180bf88:	10803fcc 	andi	r2,r2,255
 180bf8c:	1004c03a 	cmpne	r2,r2,zero
 180bf90:	10001d1e 	bne	r2,zero,180c008 <alt_read_cfi_width+0x330>
 180bf94:	e0bffd03 	ldbu	r2,-12(fp)
 180bf98:	10803fcc 	andi	r2,r2,255
 180bf9c:	10801658 	cmpnei	r2,r2,89
 180bfa0:	1000191e 	bne	r2,zero,180c008 <alt_read_cfi_width+0x330>
 180bfa4:	e0bffd43 	ldbu	r2,-11(fp)
 180bfa8:	10803fcc 	andi	r2,r2,255
 180bfac:	1004c03a 	cmpne	r2,r2,zero
 180bfb0:	1000151e 	bne	r2,zero,180c008 <alt_read_cfi_width+0x330>
          (byte_id[2] == 'R') && 
          (byte_id[3] == '\0') && 
          (byte_id[4] == 'Y') && 
          (byte_id[5] == '\0'))
      {
        flash->mode_width = 2;
 180bfb4:	e0ffff17 	ldw	r3,-4(fp)
 180bfb8:	00800084 	movi	r2,2
 180bfbc:	18802e15 	stw	r2,184(r3)
        flash->device_width = 2; 
 180bfc0:	e0ffff17 	ldw	r3,-4(fp)
 180bfc4:	00800084 	movi	r2,2
 180bfc8:	18802f15 	stw	r2,188(r3)
        iface = IORD_16DIRECT(flash->dev.base_addr, INTERFACE_ADDR*2);
 180bfcc:	e0bfff17 	ldw	r2,-4(fp)
 180bfd0:	10800a17 	ldw	r2,40(r2)
 180bfd4:	10801404 	addi	r2,r2,80
 180bfd8:	1080002b 	ldhuio	r2,0(r2)
 180bfdc:	e0bffa0d 	sth	r2,-24(fp)
        iface += 1;
 180bfe0:	e0bffa0b 	ldhu	r2,-24(fp)
 180bfe4:	10800044 	addi	r2,r2,1
 180bfe8:	e0bffa0d 	sth	r2,-24(fp)
        if (!(iface & 0x2))
 180bfec:	e0bffa0b 	ldhu	r2,-24(fp)
 180bff0:	1080008c 	andi	r2,r2,2
 180bff4:	1004c03a 	cmpne	r2,r2,zero
 180bff8:	10011c1e 	bne	r2,zero,180c46c <alt_read_cfi_width+0x794>
        {
          ret_code = -ENODEV;
 180bffc:	00bffb44 	movi	r2,-19
 180c000:	e0bff915 	stw	r2,-28(fp)
      for(i=0;i<6;i++)
      {
        byte_id[i] = IORD_8DIRECT(flash->dev.base_addr, (QUERY_ADDR*2)+i);
      }

      if ((byte_id[0] == 'Q') && 
 180c004:	00011906 	br	180c46c <alt_read_cfi_width+0x794>
      else
      {
        /*
        * Check for 32bit wide flash in 32 bit mode
        */
        alt_write_flash_command_32bit_device_32bit_mode(flash->dev.base_addr, 0x55, QUERY_MODE);
 180c008:	e0bfff17 	ldw	r2,-4(fp)
 180c00c:	11000a17 	ldw	r4,40(r2)
 180c010:	01401544 	movi	r5,85
 180c014:	01802604 	movi	r6,152
 180c018:	180b3700 	call	180b370 <alt_write_flash_command_32bit_device_32bit_mode>
        for(i=0;i<12;i++)
 180c01c:	e03ffb15 	stw	zero,-20(fp)
 180c020:	00000f06 	br	180c060 <alt_read_cfi_width+0x388>
        {
          byte_id[i] = IORD_8DIRECT(flash->dev.base_addr, (QUERY_ADDR*4)+i);
 180c024:	e13ffb17 	ldw	r4,-20(fp)
 180c028:	e0bfff17 	ldw	r2,-4(fp)
 180c02c:	10800a17 	ldw	r2,40(r2)
 180c030:	1007883a 	mov	r3,r2
 180c034:	e0bffb17 	ldw	r2,-20(fp)
 180c038:	1885883a 	add	r2,r3,r2
 180c03c:	10801004 	addi	r2,r2,64
 180c040:	10800023 	ldbuio	r2,0(r2)
 180c044:	1007883a 	mov	r3,r2
 180c048:	e0bffc04 	addi	r2,fp,-16
 180c04c:	1105883a 	add	r2,r2,r4
 180c050:	10c00005 	stb	r3,0(r2)
      {
        /*
        * Check for 32bit wide flash in 32 bit mode
        */
        alt_write_flash_command_32bit_device_32bit_mode(flash->dev.base_addr, 0x55, QUERY_MODE);
        for(i=0;i<12;i++)
 180c054:	e0bffb17 	ldw	r2,-20(fp)
 180c058:	10800044 	addi	r2,r2,1
 180c05c:	e0bffb15 	stw	r2,-20(fp)
 180c060:	e0bffb17 	ldw	r2,-20(fp)
 180c064:	10800310 	cmplti	r2,r2,12
 180c068:	103fee1e 	bne	r2,zero,180c024 <alt_read_cfi_width+0x34c>
        {
          byte_id[i] = IORD_8DIRECT(flash->dev.base_addr, (QUERY_ADDR*4)+i);
        }

        if ((byte_id[0] == 'Q') &&
 180c06c:	e0bffc03 	ldbu	r2,-16(fp)
 180c070:	10803fcc 	andi	r2,r2,255
 180c074:	10801458 	cmpnei	r2,r2,81
 180c078:	1000411e 	bne	r2,zero,180c180 <alt_read_cfi_width+0x4a8>
 180c07c:	e0bffc43 	ldbu	r2,-15(fp)
 180c080:	10803fcc 	andi	r2,r2,255
 180c084:	1004c03a 	cmpne	r2,r2,zero
 180c088:	10003d1e 	bne	r2,zero,180c180 <alt_read_cfi_width+0x4a8>
 180c08c:	e0bffc83 	ldbu	r2,-14(fp)
 180c090:	10803fcc 	andi	r2,r2,255
 180c094:	1004c03a 	cmpne	r2,r2,zero
 180c098:	1000391e 	bne	r2,zero,180c180 <alt_read_cfi_width+0x4a8>
 180c09c:	e0bffcc3 	ldbu	r2,-13(fp)
 180c0a0:	10803fcc 	andi	r2,r2,255
 180c0a4:	1004c03a 	cmpne	r2,r2,zero
 180c0a8:	1000351e 	bne	r2,zero,180c180 <alt_read_cfi_width+0x4a8>
 180c0ac:	e0bffd03 	ldbu	r2,-12(fp)
 180c0b0:	10803fcc 	andi	r2,r2,255
 180c0b4:	10801498 	cmpnei	r2,r2,82
 180c0b8:	1000311e 	bne	r2,zero,180c180 <alt_read_cfi_width+0x4a8>
 180c0bc:	e0bffd43 	ldbu	r2,-11(fp)
 180c0c0:	10803fcc 	andi	r2,r2,255
 180c0c4:	1004c03a 	cmpne	r2,r2,zero
 180c0c8:	10002d1e 	bne	r2,zero,180c180 <alt_read_cfi_width+0x4a8>
 180c0cc:	e0bffd83 	ldbu	r2,-10(fp)
 180c0d0:	10803fcc 	andi	r2,r2,255
 180c0d4:	1004c03a 	cmpne	r2,r2,zero
 180c0d8:	1000291e 	bne	r2,zero,180c180 <alt_read_cfi_width+0x4a8>
 180c0dc:	e0bffdc3 	ldbu	r2,-9(fp)
 180c0e0:	10803fcc 	andi	r2,r2,255
 180c0e4:	1004c03a 	cmpne	r2,r2,zero
 180c0e8:	1000251e 	bne	r2,zero,180c180 <alt_read_cfi_width+0x4a8>
 180c0ec:	e0bffe03 	ldbu	r2,-8(fp)
 180c0f0:	10803fcc 	andi	r2,r2,255
 180c0f4:	10801658 	cmpnei	r2,r2,89
 180c0f8:	1000211e 	bne	r2,zero,180c180 <alt_read_cfi_width+0x4a8>
 180c0fc:	e0bffe43 	ldbu	r2,-7(fp)
 180c100:	10803fcc 	andi	r2,r2,255
 180c104:	1004c03a 	cmpne	r2,r2,zero
 180c108:	10001d1e 	bne	r2,zero,180c180 <alt_read_cfi_width+0x4a8>
 180c10c:	e0bffe83 	ldbu	r2,-6(fp)
 180c110:	10803fcc 	andi	r2,r2,255
 180c114:	1004c03a 	cmpne	r2,r2,zero
 180c118:	1000191e 	bne	r2,zero,180c180 <alt_read_cfi_width+0x4a8>
 180c11c:	e0bffec3 	ldbu	r2,-5(fp)
 180c120:	10803fcc 	andi	r2,r2,255
 180c124:	1004c03a 	cmpne	r2,r2,zero
 180c128:	1000151e 	bne	r2,zero,180c180 <alt_read_cfi_width+0x4a8>
          (byte_id[8] == 'Y') && 
          (byte_id[9] == '\0') && 
          (byte_id[10] == '\0') && 
          (byte_id[11] == '\0'))
        {
          flash->mode_width = 4;
 180c12c:	e0ffff17 	ldw	r3,-4(fp)
 180c130:	00800104 	movi	r2,4
 180c134:	18802e15 	stw	r2,184(r3)
          flash->device_width = 4; 
 180c138:	e0ffff17 	ldw	r3,-4(fp)
 180c13c:	00800104 	movi	r2,4
 180c140:	18802f15 	stw	r2,188(r3)
          iface = IORD_32DIRECT(flash->dev.base_addr, INTERFACE_ADDR*4);
 180c144:	e0bfff17 	ldw	r2,-4(fp)
 180c148:	10800a17 	ldw	r2,40(r2)
 180c14c:	10802804 	addi	r2,r2,160
 180c150:	10800037 	ldwio	r2,0(r2)
 180c154:	e0bffa0d 	sth	r2,-24(fp)
          iface += 1;
 180c158:	e0bffa0b 	ldhu	r2,-24(fp)
 180c15c:	10800044 	addi	r2,r2,1
 180c160:	e0bffa0d 	sth	r2,-24(fp)
          if (!(iface & 0x4))
 180c164:	e0bffa0b 	ldhu	r2,-24(fp)
 180c168:	1080010c 	andi	r2,r2,4
 180c16c:	1004c03a 	cmpne	r2,r2,zero
 180c170:	1000be1e 	bne	r2,zero,180c46c <alt_read_cfi_width+0x794>
          {
            ret_code = -ENODEV;
 180c174:	00bffb44 	movi	r2,-19
 180c178:	e0bff915 	stw	r2,-28(fp)
        for(i=0;i<12;i++)
        {
          byte_id[i] = IORD_8DIRECT(flash->dev.base_addr, (QUERY_ADDR*4)+i);
        }

        if ((byte_id[0] == 'Q') &&
 180c17c:	0000bb06 	br	180c46c <alt_read_cfi_width+0x794>
        else
        {
          /*
          * Check for 32 bit wide in 16 bit mode
          */
          alt_write_flash_command_32bit_device_16bit_mode(flash->dev.base_addr, 0x55, QUERY_MODE);
 180c180:	e0bfff17 	ldw	r2,-4(fp)
 180c184:	11000a17 	ldw	r4,40(r2)
 180c188:	01401544 	movi	r5,85
 180c18c:	01802604 	movi	r6,152
 180c190:	180b3280 	call	180b328 <alt_write_flash_command_32bit_device_16bit_mode>
          for(i=0;i<12;i++)
 180c194:	e03ffb15 	stw	zero,-20(fp)
 180c198:	00000f06 	br	180c1d8 <alt_read_cfi_width+0x500>
          {
            byte_id[i] = IORD_8DIRECT(flash->dev.base_addr, (QUERY_ADDR*4)+i);
 180c19c:	e13ffb17 	ldw	r4,-20(fp)
 180c1a0:	e0bfff17 	ldw	r2,-4(fp)
 180c1a4:	10800a17 	ldw	r2,40(r2)
 180c1a8:	1007883a 	mov	r3,r2
 180c1ac:	e0bffb17 	ldw	r2,-20(fp)
 180c1b0:	1885883a 	add	r2,r3,r2
 180c1b4:	10801004 	addi	r2,r2,64
 180c1b8:	10800023 	ldbuio	r2,0(r2)
 180c1bc:	1007883a 	mov	r3,r2
 180c1c0:	e0bffc04 	addi	r2,fp,-16
 180c1c4:	1105883a 	add	r2,r2,r4
 180c1c8:	10c00005 	stb	r3,0(r2)
        {
          /*
          * Check for 32 bit wide in 16 bit mode
          */
          alt_write_flash_command_32bit_device_16bit_mode(flash->dev.base_addr, 0x55, QUERY_MODE);
          for(i=0;i<12;i++)
 180c1cc:	e0bffb17 	ldw	r2,-20(fp)
 180c1d0:	10800044 	addi	r2,r2,1
 180c1d4:	e0bffb15 	stw	r2,-20(fp)
 180c1d8:	e0bffb17 	ldw	r2,-20(fp)
 180c1dc:	10800310 	cmplti	r2,r2,12
 180c1e0:	103fee1e 	bne	r2,zero,180c19c <alt_read_cfi_width+0x4c4>
          {
            byte_id[i] = IORD_8DIRECT(flash->dev.base_addr, (QUERY_ADDR*4)+i);
          }

          if ((byte_id[0] == 'Q') &&
 180c1e4:	e0bffc03 	ldbu	r2,-16(fp)
 180c1e8:	10803fcc 	andi	r2,r2,255
 180c1ec:	10801458 	cmpnei	r2,r2,81
 180c1f0:	1000411e 	bne	r2,zero,180c2f8 <alt_read_cfi_width+0x620>
 180c1f4:	e0bffc43 	ldbu	r2,-15(fp)
 180c1f8:	10803fcc 	andi	r2,r2,255
 180c1fc:	1004c03a 	cmpne	r2,r2,zero
 180c200:	10003d1e 	bne	r2,zero,180c2f8 <alt_read_cfi_width+0x620>
 180c204:	e0bffc83 	ldbu	r2,-14(fp)
 180c208:	10803fcc 	andi	r2,r2,255
 180c20c:	10801458 	cmpnei	r2,r2,81
 180c210:	1000391e 	bne	r2,zero,180c2f8 <alt_read_cfi_width+0x620>
 180c214:	e0bffcc3 	ldbu	r2,-13(fp)
 180c218:	10803fcc 	andi	r2,r2,255
 180c21c:	1004c03a 	cmpne	r2,r2,zero
 180c220:	1000351e 	bne	r2,zero,180c2f8 <alt_read_cfi_width+0x620>
 180c224:	e0bffd03 	ldbu	r2,-12(fp)
 180c228:	10803fcc 	andi	r2,r2,255
 180c22c:	10801498 	cmpnei	r2,r2,82
 180c230:	1000311e 	bne	r2,zero,180c2f8 <alt_read_cfi_width+0x620>
 180c234:	e0bffd43 	ldbu	r2,-11(fp)
 180c238:	10803fcc 	andi	r2,r2,255
 180c23c:	1004c03a 	cmpne	r2,r2,zero
 180c240:	10002d1e 	bne	r2,zero,180c2f8 <alt_read_cfi_width+0x620>
 180c244:	e0bffd83 	ldbu	r2,-10(fp)
 180c248:	10803fcc 	andi	r2,r2,255
 180c24c:	10801498 	cmpnei	r2,r2,82
 180c250:	1000291e 	bne	r2,zero,180c2f8 <alt_read_cfi_width+0x620>
 180c254:	e0bffdc3 	ldbu	r2,-9(fp)
 180c258:	10803fcc 	andi	r2,r2,255
 180c25c:	1004c03a 	cmpne	r2,r2,zero
 180c260:	1000251e 	bne	r2,zero,180c2f8 <alt_read_cfi_width+0x620>
 180c264:	e0bffe03 	ldbu	r2,-8(fp)
 180c268:	10803fcc 	andi	r2,r2,255
 180c26c:	10801658 	cmpnei	r2,r2,89
 180c270:	1000211e 	bne	r2,zero,180c2f8 <alt_read_cfi_width+0x620>
 180c274:	e0bffe43 	ldbu	r2,-7(fp)
 180c278:	10803fcc 	andi	r2,r2,255
 180c27c:	1004c03a 	cmpne	r2,r2,zero
 180c280:	10001d1e 	bne	r2,zero,180c2f8 <alt_read_cfi_width+0x620>
 180c284:	e0bffe83 	ldbu	r2,-6(fp)
 180c288:	10803fcc 	andi	r2,r2,255
 180c28c:	10801658 	cmpnei	r2,r2,89
 180c290:	1000191e 	bne	r2,zero,180c2f8 <alt_read_cfi_width+0x620>
 180c294:	e0bffec3 	ldbu	r2,-5(fp)
 180c298:	10803fcc 	andi	r2,r2,255
 180c29c:	1004c03a 	cmpne	r2,r2,zero
 180c2a0:	1000151e 	bne	r2,zero,180c2f8 <alt_read_cfi_width+0x620>
              (byte_id[8] == 'Y') &&
              (byte_id[9] == '\0') &&
              (byte_id[10] == 'Y') &&
              (byte_id[11] == '\0'))
          {
            flash->mode_width = 2;
 180c2a4:	e0ffff17 	ldw	r3,-4(fp)
 180c2a8:	00800084 	movi	r2,2
 180c2ac:	18802e15 	stw	r2,184(r3)
            flash->device_width = 4; 
 180c2b0:	e0ffff17 	ldw	r3,-4(fp)
 180c2b4:	00800104 	movi	r2,4
 180c2b8:	18802f15 	stw	r2,188(r3)
            iface = IORD_32DIRECT(flash->dev.base_addr, INTERFACE_ADDR*4);
 180c2bc:	e0bfff17 	ldw	r2,-4(fp)
 180c2c0:	10800a17 	ldw	r2,40(r2)
 180c2c4:	10802804 	addi	r2,r2,160
 180c2c8:	10800037 	ldwio	r2,0(r2)
 180c2cc:	e0bffa0d 	sth	r2,-24(fp)
            iface += 1;
 180c2d0:	e0bffa0b 	ldhu	r2,-24(fp)
 180c2d4:	10800044 	addi	r2,r2,1
 180c2d8:	e0bffa0d 	sth	r2,-24(fp)
            if (!(iface & 0x4))
 180c2dc:	e0bffa0b 	ldhu	r2,-24(fp)
 180c2e0:	1080010c 	andi	r2,r2,4
 180c2e4:	1004c03a 	cmpne	r2,r2,zero
 180c2e8:	1000601e 	bne	r2,zero,180c46c <alt_read_cfi_width+0x794>
            {
              ret_code = -ENODEV;
 180c2ec:	00bffb44 	movi	r2,-19
 180c2f0:	e0bff915 	stw	r2,-28(fp)
          for(i=0;i<12;i++)
          {
            byte_id[i] = IORD_8DIRECT(flash->dev.base_addr, (QUERY_ADDR*4)+i);
          }

          if ((byte_id[0] == 'Q') &&
 180c2f4:	00005d06 	br	180c46c <alt_read_cfi_width+0x794>
          else
          {
            /*
            * 32 Bit wide flash in byte mode
            */
            alt_write_flash_command_32bit_device_8bit_mode(flash->dev.base_addr, 0x55, QUERY_MODE);
 180c2f8:	e0bfff17 	ldw	r2,-4(fp)
 180c2fc:	11000a17 	ldw	r4,40(r2)
 180c300:	01401544 	movi	r5,85
 180c304:	01802604 	movi	r6,152
 180c308:	180b29c0 	call	180b29c <alt_write_flash_command_32bit_device_8bit_mode>
            for(i=0;i<12;i++)
 180c30c:	e03ffb15 	stw	zero,-20(fp)
 180c310:	00000f06 	br	180c350 <alt_read_cfi_width+0x678>
            {
              byte_id[i] = IORD_8DIRECT(flash->dev.base_addr, (QUERY_ADDR*4)+i);
 180c314:	e13ffb17 	ldw	r4,-20(fp)
 180c318:	e0bfff17 	ldw	r2,-4(fp)
 180c31c:	10800a17 	ldw	r2,40(r2)
 180c320:	1007883a 	mov	r3,r2
 180c324:	e0bffb17 	ldw	r2,-20(fp)
 180c328:	1885883a 	add	r2,r3,r2
 180c32c:	10801004 	addi	r2,r2,64
 180c330:	10800023 	ldbuio	r2,0(r2)
 180c334:	1007883a 	mov	r3,r2
 180c338:	e0bffc04 	addi	r2,fp,-16
 180c33c:	1105883a 	add	r2,r2,r4
 180c340:	10c00005 	stb	r3,0(r2)
          {
            /*
            * 32 Bit wide flash in byte mode
            */
            alt_write_flash_command_32bit_device_8bit_mode(flash->dev.base_addr, 0x55, QUERY_MODE);
            for(i=0;i<12;i++)
 180c344:	e0bffb17 	ldw	r2,-20(fp)
 180c348:	10800044 	addi	r2,r2,1
 180c34c:	e0bffb15 	stw	r2,-20(fp)
 180c350:	e0bffb17 	ldw	r2,-20(fp)
 180c354:	10800310 	cmplti	r2,r2,12
 180c358:	103fee1e 	bne	r2,zero,180c314 <alt_read_cfi_width+0x63c>
            {
              byte_id[i] = IORD_8DIRECT(flash->dev.base_addr, (QUERY_ADDR*4)+i);
            }

            if ((byte_id[0] == 'Q') &&
 180c35c:	e0bffc03 	ldbu	r2,-16(fp)
 180c360:	10803fcc 	andi	r2,r2,255
 180c364:	10801458 	cmpnei	r2,r2,81
 180c368:	1000401e 	bne	r2,zero,180c46c <alt_read_cfi_width+0x794>
 180c36c:	e0bffc43 	ldbu	r2,-15(fp)
 180c370:	10803fcc 	andi	r2,r2,255
 180c374:	10801458 	cmpnei	r2,r2,81
 180c378:	10003c1e 	bne	r2,zero,180c46c <alt_read_cfi_width+0x794>
 180c37c:	e0bffc83 	ldbu	r2,-14(fp)
 180c380:	10803fcc 	andi	r2,r2,255
 180c384:	10801458 	cmpnei	r2,r2,81
 180c388:	1000381e 	bne	r2,zero,180c46c <alt_read_cfi_width+0x794>
 180c38c:	e0bffcc3 	ldbu	r2,-13(fp)
 180c390:	10803fcc 	andi	r2,r2,255
 180c394:	10801458 	cmpnei	r2,r2,81
 180c398:	1000341e 	bne	r2,zero,180c46c <alt_read_cfi_width+0x794>
 180c39c:	e0bffd03 	ldbu	r2,-12(fp)
 180c3a0:	10803fcc 	andi	r2,r2,255
 180c3a4:	10801498 	cmpnei	r2,r2,82
 180c3a8:	1000301e 	bne	r2,zero,180c46c <alt_read_cfi_width+0x794>
 180c3ac:	e0bffd43 	ldbu	r2,-11(fp)
 180c3b0:	10803fcc 	andi	r2,r2,255
 180c3b4:	10801498 	cmpnei	r2,r2,82
 180c3b8:	10002c1e 	bne	r2,zero,180c46c <alt_read_cfi_width+0x794>
 180c3bc:	e0bffd83 	ldbu	r2,-10(fp)
 180c3c0:	10803fcc 	andi	r2,r2,255
 180c3c4:	10801498 	cmpnei	r2,r2,82
 180c3c8:	1000281e 	bne	r2,zero,180c46c <alt_read_cfi_width+0x794>
 180c3cc:	e0bffdc3 	ldbu	r2,-9(fp)
 180c3d0:	10803fcc 	andi	r2,r2,255
 180c3d4:	10801498 	cmpnei	r2,r2,82
 180c3d8:	1000241e 	bne	r2,zero,180c46c <alt_read_cfi_width+0x794>
 180c3dc:	e0bffe03 	ldbu	r2,-8(fp)
 180c3e0:	10803fcc 	andi	r2,r2,255
 180c3e4:	10801658 	cmpnei	r2,r2,89
 180c3e8:	1000201e 	bne	r2,zero,180c46c <alt_read_cfi_width+0x794>
 180c3ec:	e0bffe43 	ldbu	r2,-7(fp)
 180c3f0:	10803fcc 	andi	r2,r2,255
 180c3f4:	10801658 	cmpnei	r2,r2,89
 180c3f8:	10001c1e 	bne	r2,zero,180c46c <alt_read_cfi_width+0x794>
 180c3fc:	e0bffe83 	ldbu	r2,-6(fp)
 180c400:	10803fcc 	andi	r2,r2,255
 180c404:	10801658 	cmpnei	r2,r2,89
 180c408:	1000181e 	bne	r2,zero,180c46c <alt_read_cfi_width+0x794>
 180c40c:	e0bffec3 	ldbu	r2,-5(fp)
 180c410:	10803fcc 	andi	r2,r2,255
 180c414:	10801658 	cmpnei	r2,r2,89
 180c418:	1000141e 	bne	r2,zero,180c46c <alt_read_cfi_width+0x794>
                (byte_id[8] == 'Y') && 
                (byte_id[9] == 'Y') && 
                (byte_id[10] == 'Y') && 
                (byte_id[11] == 'Y'))
            {
              flash->mode_width = 1;
 180c41c:	e0ffff17 	ldw	r3,-4(fp)
 180c420:	00800044 	movi	r2,1
 180c424:	18802e15 	stw	r2,184(r3)
              flash->device_width = 4; 
 180c428:	e0ffff17 	ldw	r3,-4(fp)
 180c42c:	00800104 	movi	r2,4
 180c430:	18802f15 	stw	r2,188(r3)
              iface = IORD_32DIRECT(flash->dev.base_addr, INTERFACE_ADDR*4);
 180c434:	e0bfff17 	ldw	r2,-4(fp)
 180c438:	10800a17 	ldw	r2,40(r2)
 180c43c:	10802804 	addi	r2,r2,160
 180c440:	10800037 	ldwio	r2,0(r2)
 180c444:	e0bffa0d 	sth	r2,-24(fp)
              iface += 1;
 180c448:	e0bffa0b 	ldhu	r2,-24(fp)
 180c44c:	10800044 	addi	r2,r2,1
 180c450:	e0bffa0d 	sth	r2,-24(fp)
              if (!(iface & 0x4))
 180c454:	e0bffa0b 	ldhu	r2,-24(fp)
 180c458:	1080010c 	andi	r2,r2,4
 180c45c:	1004c03a 	cmpne	r2,r2,zero
 180c460:	1000021e 	bne	r2,zero,180c46c <alt_read_cfi_width+0x794>
              {
                ret_code = -ENODEV;
 180c464:	00bffb44 	movi	r2,-19
 180c468:	e0bff915 	stw	r2,-28(fp)
        }
      }
    }
  }
  
  return ret_code;
 180c46c:	e0bff917 	ldw	r2,-28(fp)
}
 180c470:	e037883a 	mov	sp,fp
 180c474:	dfc00117 	ldw	ra,4(sp)
 180c478:	df000017 	ldw	fp,0(sp)
 180c47c:	dec00204 	addi	sp,sp,8
 180c480:	f800283a 	ret

0180c484 <alt_check_primary_table>:
 * 
 * Check that the primary Vendor table starts with the 
 * correct pattern
 */
int alt_check_primary_table(alt_flash_cfi_dev* flash)
{
 180c484:	defff904 	addi	sp,sp,-28
 180c488:	dfc00615 	stw	ra,24(sp)
 180c48c:	df000515 	stw	fp,20(sp)
 180c490:	dc000415 	stw	r16,16(sp)
 180c494:	df000404 	addi	fp,sp,16
 180c498:	e13fff15 	stw	r4,-4(fp)
  int i;
  int ret_code = 0;
 180c49c:	e03ffc15 	stw	zero,-16(fp)
  alt_u8 primary_query_string[3];
  
  flash->primary_address = alt_read_16bit_query_entry( flash, 
 180c4a0:	e13fff17 	ldw	r4,-4(fp)
 180c4a4:	01400544 	movi	r5,21
 180c4a8:	180b6dc0 	call	180b6dc <alt_read_16bit_query_entry>
 180c4ac:	10ffffcc 	andi	r3,r2,65535
 180c4b0:	e0bfff17 	ldw	r2,-4(fp)
 180c4b4:	10c03215 	stw	r3,200(r2)
                            PRIMARY_ADDR);
  
  for(i=0;i<3;i++)
 180c4b8:	e03ffd15 	stw	zero,-12(fp)
 180c4bc:	00001006 	br	180c500 <alt_check_primary_table+0x7c>
  {
    primary_query_string[i] = 
 180c4c0:	e43ffd17 	ldw	r16,-12(fp)
 180c4c4:	e0bfff17 	ldw	r2,-4(fp)
 180c4c8:	11803417 	ldw	r6,208(r2)
 180c4cc:	e0bfff17 	ldw	r2,-4(fp)
 180c4d0:	10c03217 	ldw	r3,200(r2)
 180c4d4:	e0bffd17 	ldw	r2,-12(fp)
 180c4d8:	188b883a 	add	r5,r3,r2
 180c4dc:	e13fff17 	ldw	r4,-4(fp)
 180c4e0:	303ee83a 	callr	r6
 180c4e4:	1007883a 	mov	r3,r2
 180c4e8:	e0bffe04 	addi	r2,fp,-8
 180c4ec:	1405883a 	add	r2,r2,r16
 180c4f0:	10c00005 	stb	r3,0(r2)
  alt_u8 primary_query_string[3];
  
  flash->primary_address = alt_read_16bit_query_entry( flash, 
                            PRIMARY_ADDR);
  
  for(i=0;i<3;i++)
 180c4f4:	e0bffd17 	ldw	r2,-12(fp)
 180c4f8:	10800044 	addi	r2,r2,1
 180c4fc:	e0bffd15 	stw	r2,-12(fp)
 180c500:	e0bffd17 	ldw	r2,-12(fp)
 180c504:	108000d0 	cmplti	r2,r2,3
 180c508:	103fed1e 	bne	r2,zero,180c4c0 <alt_check_primary_table+0x3c>
  {
    primary_query_string[i] = 
          (*flash->read_query)( flash,(flash->primary_address + i));
  }
    
  if ((primary_query_string[0] != 'P') ||
 180c50c:	e0bffe03 	ldbu	r2,-8(fp)
 180c510:	10803fcc 	andi	r2,r2,255
 180c514:	10801418 	cmpnei	r2,r2,80
 180c518:	1000081e 	bne	r2,zero,180c53c <alt_check_primary_table+0xb8>
 180c51c:	e0bffe43 	ldbu	r2,-7(fp)
 180c520:	10803fcc 	andi	r2,r2,255
 180c524:	10801498 	cmpnei	r2,r2,82
 180c528:	1000041e 	bne	r2,zero,180c53c <alt_check_primary_table+0xb8>
 180c52c:	e0bffe83 	ldbu	r2,-6(fp)
 180c530:	10803fcc 	andi	r2,r2,255
 180c534:	10801260 	cmpeqi	r2,r2,73
 180c538:	1000021e 	bne	r2,zero,180c544 <alt_check_primary_table+0xc0>
      (primary_query_string[1] != 'R') ||
      (primary_query_string[2] != 'I'))
  {
    ret_code = -ENODEV;
 180c53c:	00bffb44 	movi	r2,-19
 180c540:	e0bffc15 	stw	r2,-16(fp)
  }
  
  return ret_code;
 180c544:	e0bffc17 	ldw	r2,-16(fp)
}
 180c548:	e037883a 	mov	sp,fp
 180c54c:	dfc00217 	ldw	ra,8(sp)
 180c550:	df000117 	ldw	fp,4(sp)
 180c554:	dc000017 	ldw	r16,0(sp)
 180c558:	dec00304 	addi	sp,sp,12
 180c55c:	f800283a 	ret

0180c560 <altera_avalon_jtag_uart_read_fd>:
 *
 */

int 
altera_avalon_jtag_uart_read_fd(alt_fd* fd, char* buffer, int space)
{
 180c560:	defffa04 	addi	sp,sp,-24
 180c564:	dfc00515 	stw	ra,20(sp)
 180c568:	df000415 	stw	fp,16(sp)
 180c56c:	df000404 	addi	fp,sp,16
 180c570:	e13ffd15 	stw	r4,-12(fp)
 180c574:	e17ffe15 	stw	r5,-8(fp)
 180c578:	e1bfff15 	stw	r6,-4(fp)
    altera_avalon_jtag_uart_dev* dev = (altera_avalon_jtag_uart_dev*) fd->dev; 
 180c57c:	e0bffd17 	ldw	r2,-12(fp)
 180c580:	10800017 	ldw	r2,0(r2)
 180c584:	e0bffc15 	stw	r2,-16(fp)

    return altera_avalon_jtag_uart_read(&dev->state, buffer, space,
 180c588:	e0bffc17 	ldw	r2,-16(fp)
 180c58c:	11000a04 	addi	r4,r2,40
 180c590:	e0bffd17 	ldw	r2,-12(fp)
 180c594:	11c00217 	ldw	r7,8(r2)
 180c598:	e17ffe17 	ldw	r5,-8(fp)
 180c59c:	e1bfff17 	ldw	r6,-4(fp)
 180c5a0:	180cba80 	call	180cba8 <altera_avalon_jtag_uart_read>
      fd->fd_flags);
}
 180c5a4:	e037883a 	mov	sp,fp
 180c5a8:	dfc00117 	ldw	ra,4(sp)
 180c5ac:	df000017 	ldw	fp,0(sp)
 180c5b0:	dec00204 	addi	sp,sp,8
 180c5b4:	f800283a 	ret

0180c5b8 <altera_avalon_jtag_uart_write_fd>:

int 
altera_avalon_jtag_uart_write_fd(alt_fd* fd, const char* buffer, int space)
{
 180c5b8:	defffa04 	addi	sp,sp,-24
 180c5bc:	dfc00515 	stw	ra,20(sp)
 180c5c0:	df000415 	stw	fp,16(sp)
 180c5c4:	df000404 	addi	fp,sp,16
 180c5c8:	e13ffd15 	stw	r4,-12(fp)
 180c5cc:	e17ffe15 	stw	r5,-8(fp)
 180c5d0:	e1bfff15 	stw	r6,-4(fp)
    altera_avalon_jtag_uart_dev* dev = (altera_avalon_jtag_uart_dev*) fd->dev; 
 180c5d4:	e0bffd17 	ldw	r2,-12(fp)
 180c5d8:	10800017 	ldw	r2,0(r2)
 180c5dc:	e0bffc15 	stw	r2,-16(fp)

    return altera_avalon_jtag_uart_write(&dev->state, buffer, space,
 180c5e0:	e0bffc17 	ldw	r2,-16(fp)
 180c5e4:	11000a04 	addi	r4,r2,40
 180c5e8:	e0bffd17 	ldw	r2,-12(fp)
 180c5ec:	11c00217 	ldw	r7,8(r2)
 180c5f0:	e17ffe17 	ldw	r5,-8(fp)
 180c5f4:	e1bfff17 	ldw	r6,-4(fp)
 180c5f8:	180cdcc0 	call	180cdcc <altera_avalon_jtag_uart_write>
      fd->fd_flags);
}
 180c5fc:	e037883a 	mov	sp,fp
 180c600:	dfc00117 	ldw	ra,4(sp)
 180c604:	df000017 	ldw	fp,0(sp)
 180c608:	dec00204 	addi	sp,sp,8
 180c60c:	f800283a 	ret

0180c610 <altera_avalon_jtag_uart_close_fd>:

#ifndef ALTERA_AVALON_JTAG_UART_SMALL

int 
altera_avalon_jtag_uart_close_fd(alt_fd* fd)
{
 180c610:	defffc04 	addi	sp,sp,-16
 180c614:	dfc00315 	stw	ra,12(sp)
 180c618:	df000215 	stw	fp,8(sp)
 180c61c:	df000204 	addi	fp,sp,8
 180c620:	e13fff15 	stw	r4,-4(fp)
    altera_avalon_jtag_uart_dev* dev = (altera_avalon_jtag_uart_dev*) fd->dev; 
 180c624:	e0bfff17 	ldw	r2,-4(fp)
 180c628:	10800017 	ldw	r2,0(r2)
 180c62c:	e0bffe15 	stw	r2,-8(fp)

    return altera_avalon_jtag_uart_close(&dev->state, fd->fd_flags);
 180c630:	e0bffe17 	ldw	r2,-8(fp)
 180c634:	11000a04 	addi	r4,r2,40
 180c638:	e0bfff17 	ldw	r2,-4(fp)
 180c63c:	11400217 	ldw	r5,8(r2)
 180c640:	180ca400 	call	180ca40 <altera_avalon_jtag_uart_close>
}
 180c644:	e037883a 	mov	sp,fp
 180c648:	dfc00117 	ldw	ra,4(sp)
 180c64c:	df000017 	ldw	fp,0(sp)
 180c650:	dec00204 	addi	sp,sp,8
 180c654:	f800283a 	ret

0180c658 <altera_avalon_jtag_uart_ioctl_fd>:

int 
altera_avalon_jtag_uart_ioctl_fd(alt_fd* fd, int req, void* arg)
{
 180c658:	defffa04 	addi	sp,sp,-24
 180c65c:	dfc00515 	stw	ra,20(sp)
 180c660:	df000415 	stw	fp,16(sp)
 180c664:	df000404 	addi	fp,sp,16
 180c668:	e13ffd15 	stw	r4,-12(fp)
 180c66c:	e17ffe15 	stw	r5,-8(fp)
 180c670:	e1bfff15 	stw	r6,-4(fp)
    altera_avalon_jtag_uart_dev* dev = (altera_avalon_jtag_uart_dev*) fd->dev;
 180c674:	e0bffd17 	ldw	r2,-12(fp)
 180c678:	10800017 	ldw	r2,0(r2)
 180c67c:	e0bffc15 	stw	r2,-16(fp)

    return altera_avalon_jtag_uart_ioctl(&dev->state, req, arg);
 180c680:	e0bffc17 	ldw	r2,-16(fp)
 180c684:	11000a04 	addi	r4,r2,40
 180c688:	e17ffe17 	ldw	r5,-8(fp)
 180c68c:	e1bfff17 	ldw	r6,-4(fp)
 180c690:	180cab40 	call	180cab4 <altera_avalon_jtag_uart_ioctl>
}
 180c694:	e037883a 	mov	sp,fp
 180c698:	dfc00117 	ldw	ra,4(sp)
 180c69c:	df000017 	ldw	fp,0(sp)
 180c6a0:	dec00204 	addi	sp,sp,8
 180c6a4:	f800283a 	ret

0180c6a8 <altera_avalon_jtag_uart_init>:
 * Return 1 on sucessful IRQ register and 0 on failure.
 */

void altera_avalon_jtag_uart_init(altera_avalon_jtag_uart_state* sp, 
                                  int irq_controller_id, int irq)
{
 180c6a8:	defffa04 	addi	sp,sp,-24
 180c6ac:	dfc00515 	stw	ra,20(sp)
 180c6b0:	df000415 	stw	fp,16(sp)
 180c6b4:	df000404 	addi	fp,sp,16
 180c6b8:	e13ffd15 	stw	r4,-12(fp)
 180c6bc:	e17ffe15 	stw	r5,-8(fp)
 180c6c0:	e1bfff15 	stw	r6,-4(fp)
  ALT_FLAG_CREATE(&sp->events, 0);
  ALT_SEM_CREATE(&sp->read_lock, 1);
  ALT_SEM_CREATE(&sp->write_lock, 1);

  /* enable read interrupts at the device */
  sp->irq_enable = ALTERA_AVALON_JTAG_UART_CONTROL_RE_MSK;
 180c6c4:	e0fffd17 	ldw	r3,-12(fp)
 180c6c8:	00800044 	movi	r2,1
 180c6cc:	18800815 	stw	r2,32(r3)

  IOWR_ALTERA_AVALON_JTAG_UART_CONTROL(sp->base, sp->irq_enable); 
 180c6d0:	e0bffd17 	ldw	r2,-12(fp)
 180c6d4:	10800017 	ldw	r2,0(r2)
 180c6d8:	11000104 	addi	r4,r2,4
 180c6dc:	e0bffd17 	ldw	r2,-12(fp)
 180c6e0:	10800817 	ldw	r2,32(r2)
 180c6e4:	1007883a 	mov	r3,r2
 180c6e8:	2005883a 	mov	r2,r4
 180c6ec:	10c00035 	stwio	r3,0(r2)
  
  /* register the interrupt handler */
#ifdef ALT_ENHANCED_INTERRUPT_API_PRESENT
  alt_ic_isr_register(irq_controller_id, irq, altera_avalon_jtag_uart_irq, 
 180c6f0:	e13ffe17 	ldw	r4,-8(fp)
 180c6f4:	e17fff17 	ldw	r5,-4(fp)
 180c6f8:	d8000015 	stw	zero,0(sp)
 180c6fc:	01806074 	movhi	r6,385
 180c700:	31b1da04 	addi	r6,r6,-14488
 180c704:	e1fffd17 	ldw	r7,-12(fp)
 180c708:	180ef980 	call	180ef98 <alt_ic_isr_register>
#else
  alt_irq_register(irq, sp, altera_avalon_jtag_uart_irq);
#endif  

  /* Register an alarm to go off every second to check for presence of host */
  sp->host_inactive = 0;
 180c70c:	e0bffd17 	ldw	r2,-12(fp)
 180c710:	10000915 	stw	zero,36(r2)

  if (alt_alarm_start(&sp->alarm, alt_ticks_per_second(), 
 180c714:	e0bffd17 	ldw	r2,-12(fp)
 180c718:	11000204 	addi	r4,r2,8
 * Obtain the system clock rate in ticks/s. 
 */

static ALT_INLINE alt_u32 ALT_ALWAYS_INLINE alt_ticks_per_second (void)
{
  return _alt_tick_rate;
 180c71c:	00806074 	movhi	r2,385
 180c720:	108b0304 	addi	r2,r2,11276
 180c724:	10800017 	ldw	r2,0(r2)
 180c728:	100b883a 	mov	r5,r2
 180c72c:	01806074 	movhi	r6,385
 180c730:	31b26404 	addi	r6,r6,-13936
 180c734:	e1fffd17 	ldw	r7,-12(fp)
 180c738:	180e9f40 	call	180e9f4 <alt_alarm_start>
 180c73c:	1004403a 	cmpge	r2,r2,zero
 180c740:	1000041e 	bne	r2,zero,180c754 <altera_avalon_jtag_uart_init+0xac>
    &altera_avalon_jtag_uart_timeout, sp) < 0)
  {
    /* If we can't set the alarm then record "don't know if host present" 
     * and behave as though the host is present.
     */
    sp->timeout = INT_MAX;
 180c744:	e0fffd17 	ldw	r3,-12(fp)
 180c748:	00a00034 	movhi	r2,32768
 180c74c:	10bfffc4 	addi	r2,r2,-1
 180c750:	18800115 	stw	r2,4(r3)
  }

  /* ALT_LOG - see altera_hal/HAL/inc/sys/alt_log_printf.h */ 
  ALT_LOG_JTAG_UART_ALARM_REGISTER(sp, sp->base);
}
 180c754:	e037883a 	mov	sp,fp
 180c758:	dfc00117 	ldw	ra,4(sp)
 180c75c:	df000017 	ldw	fp,0(sp)
 180c760:	dec00204 	addi	sp,sp,8
 180c764:	f800283a 	ret

0180c768 <altera_avalon_jtag_uart_irq>:
#ifdef ALT_ENHANCED_INTERRUPT_API_PRESENT
static void altera_avalon_jtag_uart_irq(void* context)
#else
static void altera_avalon_jtag_uart_irq(void* context, alt_u32 id)
#endif
{
 180c768:	defff804 	addi	sp,sp,-32
 180c76c:	df000715 	stw	fp,28(sp)
 180c770:	df000704 	addi	fp,sp,28
 180c774:	e13fff15 	stw	r4,-4(fp)
  altera_avalon_jtag_uart_state* sp = (altera_avalon_jtag_uart_state*) context;
 180c778:	e0bfff17 	ldw	r2,-4(fp)
 180c77c:	e0bffe15 	stw	r2,-8(fp)
  unsigned int base = sp->base;
 180c780:	e0bffe17 	ldw	r2,-8(fp)
 180c784:	10800017 	ldw	r2,0(r2)
 180c788:	e0bffd15 	stw	r2,-12(fp)
 180c78c:	00000006 	br	180c790 <altera_avalon_jtag_uart_irq+0x28>
  /* ALT_LOG - see altera_hal/HAL/inc/sys/alt_log_printf.h */ 
  ALT_LOG_JTAG_UART_ISR_FUNCTION(base, sp);

  for ( ; ; )
  {
    unsigned int control = IORD_ALTERA_AVALON_JTAG_UART_CONTROL(base);
 180c790:	e0bffd17 	ldw	r2,-12(fp)
 180c794:	10800104 	addi	r2,r2,4
 180c798:	10800037 	ldwio	r2,0(r2)
 180c79c:	e0bffc15 	stw	r2,-16(fp)

    /* Return once nothing more to do */
    if ((control & (ALTERA_AVALON_JTAG_UART_CONTROL_RI_MSK | ALTERA_AVALON_JTAG_UART_CONTROL_WI_MSK)) == 0)
 180c7a0:	e0bffc17 	ldw	r2,-16(fp)
 180c7a4:	1080c00c 	andi	r2,r2,768
 180c7a8:	1005003a 	cmpeq	r2,r2,zero
 180c7ac:	1000741e 	bne	r2,zero,180c980 <altera_avalon_jtag_uart_irq+0x218>
      break;

    if (control & ALTERA_AVALON_JTAG_UART_CONTROL_RI_MSK)
 180c7b0:	e0bffc17 	ldw	r2,-16(fp)
 180c7b4:	1080400c 	andi	r2,r2,256
 180c7b8:	1005003a 	cmpeq	r2,r2,zero
 180c7bc:	1000351e 	bne	r2,zero,180c894 <altera_avalon_jtag_uart_irq+0x12c>
    {
      /* process a read irq.  Start by assuming that there is data in the
       * receive FIFO (otherwise why would we have been interrupted?)
       */
      unsigned int data = 1 << ALTERA_AVALON_JTAG_UART_DATA_RAVAIL_OFST;
 180c7c0:	00800074 	movhi	r2,1
 180c7c4:	e0bffb15 	stw	r2,-20(fp)
      for ( ; ; )
      {
        /* Check whether there is space in the buffer.  If not then we must not
         * read any characters from the buffer as they will be lost.
         */
        unsigned int next = (sp->rx_in + 1) % ALTERA_AVALON_JTAG_UART_BUF_LEN;
 180c7c8:	e0bffe17 	ldw	r2,-8(fp)
 180c7cc:	10800a17 	ldw	r2,40(r2)
 180c7d0:	10800044 	addi	r2,r2,1
 180c7d4:	1081ffcc 	andi	r2,r2,2047
 180c7d8:	e0bffa15 	stw	r2,-24(fp)
        if (next == sp->rx_out)
 180c7dc:	e0bffe17 	ldw	r2,-8(fp)
 180c7e0:	10c00b17 	ldw	r3,44(r2)
 180c7e4:	e0bffa17 	ldw	r2,-24(fp)
 180c7e8:	18801626 	beq	r3,r2,180c844 <altera_avalon_jtag_uart_irq+0xdc>
          break;

        /* Try to remove a character from the FIFO and find out whether there
         * are any more characters remaining.
         */
        data = IORD_ALTERA_AVALON_JTAG_UART_DATA(base);
 180c7ec:	e0bffd17 	ldw	r2,-12(fp)
 180c7f0:	10800037 	ldwio	r2,0(r2)
 180c7f4:	e0bffb15 	stw	r2,-20(fp)
        
        if ((data & ALTERA_AVALON_JTAG_UART_DATA_RVALID_MSK) == 0)
 180c7f8:	e0bffb17 	ldw	r2,-20(fp)
 180c7fc:	10a0000c 	andi	r2,r2,32768
 180c800:	1005003a 	cmpeq	r2,r2,zero
 180c804:	10000f1e 	bne	r2,zero,180c844 <altera_avalon_jtag_uart_irq+0xdc>
          break;

        sp->rx_buf[sp->rx_in] = (data & ALTERA_AVALON_JTAG_UART_DATA_DATA_MSK) >> ALTERA_AVALON_JTAG_UART_DATA_DATA_OFST;
 180c808:	e0bffe17 	ldw	r2,-8(fp)
 180c80c:	10c00a17 	ldw	r3,40(r2)
 180c810:	e0bffb17 	ldw	r2,-20(fp)
 180c814:	1009883a 	mov	r4,r2
 180c818:	e0bffe17 	ldw	r2,-8(fp)
 180c81c:	1885883a 	add	r2,r3,r2
 180c820:	10800e04 	addi	r2,r2,56
 180c824:	11000005 	stb	r4,0(r2)
        sp->rx_in = (sp->rx_in + 1) % ALTERA_AVALON_JTAG_UART_BUF_LEN;
 180c828:	e0bffe17 	ldw	r2,-8(fp)
 180c82c:	10800a17 	ldw	r2,40(r2)
 180c830:	10800044 	addi	r2,r2,1
 180c834:	10c1ffcc 	andi	r3,r2,2047
 180c838:	e0bffe17 	ldw	r2,-8(fp)
 180c83c:	10c00a15 	stw	r3,40(r2)

        /* Post an event to notify jtag_uart_read that a character has been read */
        ALT_FLAG_POST (sp->events, ALT_JTAG_UART_READ_RDY, OS_FLAG_SET);
      }
 180c840:	003fe106 	br	180c7c8 <altera_avalon_jtag_uart_irq+0x60>

      if (data & ALTERA_AVALON_JTAG_UART_DATA_RAVAIL_MSK)
 180c844:	e0bffb17 	ldw	r2,-20(fp)
 180c848:	10bfffec 	andhi	r2,r2,65535
 180c84c:	1005003a 	cmpeq	r2,r2,zero
 180c850:	1000101e 	bne	r2,zero,180c894 <altera_avalon_jtag_uart_irq+0x12c>
      {
        /* If there is still data available here then the buffer is full 
         * so turn off receive interrupts until some space becomes available.
         */
        sp->irq_enable &= ~ALTERA_AVALON_JTAG_UART_CONTROL_RE_MSK;
 180c854:	e0bffe17 	ldw	r2,-8(fp)
 180c858:	10c00817 	ldw	r3,32(r2)
 180c85c:	00bfff84 	movi	r2,-2
 180c860:	1886703a 	and	r3,r3,r2
 180c864:	e0bffe17 	ldw	r2,-8(fp)
 180c868:	10c00815 	stw	r3,32(r2)
        IOWR_ALTERA_AVALON_JTAG_UART_CONTROL(base, sp->irq_enable);
 180c86c:	e0bffd17 	ldw	r2,-12(fp)
 180c870:	11000104 	addi	r4,r2,4
 180c874:	e0bffe17 	ldw	r2,-8(fp)
 180c878:	10800817 	ldw	r2,32(r2)
 180c87c:	1007883a 	mov	r3,r2
 180c880:	2005883a 	mov	r2,r4
 180c884:	10c00035 	stwio	r3,0(r2)
        
        /* Dummy read to ensure IRQ is cleared prior to ISR completion */
        IORD_ALTERA_AVALON_JTAG_UART_CONTROL(base);
 180c888:	e0bffd17 	ldw	r2,-12(fp)
 180c88c:	10800104 	addi	r2,r2,4
 180c890:	10800037 	ldwio	r2,0(r2)
      }
    }

    if (control & ALTERA_AVALON_JTAG_UART_CONTROL_WI_MSK)
 180c894:	e0bffc17 	ldw	r2,-16(fp)
 180c898:	1080800c 	andi	r2,r2,512
 180c89c:	1005003a 	cmpeq	r2,r2,zero
 180c8a0:	103fbb1e 	bne	r2,zero,180c790 <altera_avalon_jtag_uart_irq+0x28>
    {
      /* process a write irq */
      unsigned int space = (control & ALTERA_AVALON_JTAG_UART_CONTROL_WSPACE_MSK) >> ALTERA_AVALON_JTAG_UART_CONTROL_WSPACE_OFST;
 180c8a4:	e0bffc17 	ldw	r2,-16(fp)
 180c8a8:	10bfffec 	andhi	r2,r2,65535
 180c8ac:	1004d43a 	srli	r2,r2,16
 180c8b0:	e0bff915 	stw	r2,-28(fp)

      while (space > 0 && sp->tx_out != sp->tx_in)
 180c8b4:	00001506 	br	180c90c <altera_avalon_jtag_uart_irq+0x1a4>
      {
        IOWR_ALTERA_AVALON_JTAG_UART_DATA(base, sp->tx_buf[sp->tx_out]);
 180c8b8:	e13ffd17 	ldw	r4,-12(fp)
 180c8bc:	e0bffe17 	ldw	r2,-8(fp)
 180c8c0:	10c00d17 	ldw	r3,52(r2)
 180c8c4:	e0bffe17 	ldw	r2,-8(fp)
 180c8c8:	1885883a 	add	r2,r3,r2
 180c8cc:	10820e04 	addi	r2,r2,2104
 180c8d0:	10800003 	ldbu	r2,0(r2)
 180c8d4:	10c03fcc 	andi	r3,r2,255
 180c8d8:	18c0201c 	xori	r3,r3,128
 180c8dc:	18ffe004 	addi	r3,r3,-128
 180c8e0:	2005883a 	mov	r2,r4
 180c8e4:	10c00035 	stwio	r3,0(r2)

        sp->tx_out = (sp->tx_out + 1) % ALTERA_AVALON_JTAG_UART_BUF_LEN;
 180c8e8:	e0bffe17 	ldw	r2,-8(fp)
 180c8ec:	10800d17 	ldw	r2,52(r2)
 180c8f0:	10800044 	addi	r2,r2,1
 180c8f4:	10c1ffcc 	andi	r3,r2,2047
 180c8f8:	e0bffe17 	ldw	r2,-8(fp)
 180c8fc:	10c00d15 	stw	r3,52(r2)

        /* Post an event to notify jtag_uart_write that a character has been written */
        ALT_FLAG_POST (sp->events, ALT_JTAG_UART_WRITE_RDY, OS_FLAG_SET);

        space--;
 180c900:	e0bff917 	ldw	r2,-28(fp)
 180c904:	10bfffc4 	addi	r2,r2,-1
 180c908:	e0bff915 	stw	r2,-28(fp)
    if (control & ALTERA_AVALON_JTAG_UART_CONTROL_WI_MSK)
    {
      /* process a write irq */
      unsigned int space = (control & ALTERA_AVALON_JTAG_UART_CONTROL_WSPACE_MSK) >> ALTERA_AVALON_JTAG_UART_CONTROL_WSPACE_OFST;

      while (space > 0 && sp->tx_out != sp->tx_in)
 180c90c:	e0bff917 	ldw	r2,-28(fp)
 180c910:	1005003a 	cmpeq	r2,r2,zero
 180c914:	1000051e 	bne	r2,zero,180c92c <altera_avalon_jtag_uart_irq+0x1c4>
 180c918:	e0bffe17 	ldw	r2,-8(fp)
 180c91c:	10c00d17 	ldw	r3,52(r2)
 180c920:	e0bffe17 	ldw	r2,-8(fp)
 180c924:	10800c17 	ldw	r2,48(r2)
 180c928:	18bfe31e 	bne	r3,r2,180c8b8 <altera_avalon_jtag_uart_irq+0x150>
        ALT_FLAG_POST (sp->events, ALT_JTAG_UART_WRITE_RDY, OS_FLAG_SET);

        space--;
      }

      if (space > 0)
 180c92c:	e0bff917 	ldw	r2,-28(fp)
 180c930:	1005003a 	cmpeq	r2,r2,zero
 180c934:	103f961e 	bne	r2,zero,180c790 <altera_avalon_jtag_uart_irq+0x28>
      {
        /* If we don't have any more data available then turn off the TX interrupt */
        sp->irq_enable &= ~ALTERA_AVALON_JTAG_UART_CONTROL_WE_MSK;
 180c938:	e0bffe17 	ldw	r2,-8(fp)
 180c93c:	10c00817 	ldw	r3,32(r2)
 180c940:	00bfff44 	movi	r2,-3
 180c944:	1886703a 	and	r3,r3,r2
 180c948:	e0bffe17 	ldw	r2,-8(fp)
 180c94c:	10c00815 	stw	r3,32(r2)
        IOWR_ALTERA_AVALON_JTAG_UART_CONTROL(sp->base, sp->irq_enable);
 180c950:	e0bffe17 	ldw	r2,-8(fp)
 180c954:	10800017 	ldw	r2,0(r2)
 180c958:	11000104 	addi	r4,r2,4
 180c95c:	e0bffe17 	ldw	r2,-8(fp)
 180c960:	10800817 	ldw	r2,32(r2)
 180c964:	1007883a 	mov	r3,r2
 180c968:	2005883a 	mov	r2,r4
 180c96c:	10c00035 	stwio	r3,0(r2)
        
        /* Dummy read to ensure IRQ is cleared prior to ISR completion */
        IORD_ALTERA_AVALON_JTAG_UART_CONTROL(base);
 180c970:	e0bffd17 	ldw	r2,-12(fp)
 180c974:	10800104 	addi	r2,r2,4
 180c978:	10800037 	ldwio	r2,0(r2)
      }
    }
  }
 180c97c:	003f8406 	br	180c790 <altera_avalon_jtag_uart_irq+0x28>
}
 180c980:	e037883a 	mov	sp,fp
 180c984:	df000017 	ldw	fp,0(sp)
 180c988:	dec00104 	addi	sp,sp,4
 180c98c:	f800283a 	ret

0180c990 <altera_avalon_jtag_uart_timeout>:
 * Timeout routine is called every second
 */

static alt_u32 
altera_avalon_jtag_uart_timeout(void* context) 
{
 180c990:	defffc04 	addi	sp,sp,-16
 180c994:	df000315 	stw	fp,12(sp)
 180c998:	df000304 	addi	fp,sp,12
 180c99c:	e13fff15 	stw	r4,-4(fp)
  altera_avalon_jtag_uart_state* sp = (altera_avalon_jtag_uart_state *) context;
 180c9a0:	e0bfff17 	ldw	r2,-4(fp)
 180c9a4:	e0bffe15 	stw	r2,-8(fp)

  unsigned int control = IORD_ALTERA_AVALON_JTAG_UART_CONTROL(sp->base);
 180c9a8:	e0bffe17 	ldw	r2,-8(fp)
 180c9ac:	10800017 	ldw	r2,0(r2)
 180c9b0:	10800104 	addi	r2,r2,4
 180c9b4:	10800037 	ldwio	r2,0(r2)
 180c9b8:	e0bffd15 	stw	r2,-12(fp)

  if (control & ALTERA_AVALON_JTAG_UART_CONTROL_AC_MSK)
 180c9bc:	e0bffd17 	ldw	r2,-12(fp)
 180c9c0:	1081000c 	andi	r2,r2,1024
 180c9c4:	1005003a 	cmpeq	r2,r2,zero
 180c9c8:	10000c1e 	bne	r2,zero,180c9fc <altera_avalon_jtag_uart_timeout+0x6c>
  {
    IOWR_ALTERA_AVALON_JTAG_UART_CONTROL(sp->base, sp->irq_enable | ALTERA_AVALON_JTAG_UART_CONTROL_AC_MSK);
 180c9cc:	e0bffe17 	ldw	r2,-8(fp)
 180c9d0:	10800017 	ldw	r2,0(r2)
 180c9d4:	11000104 	addi	r4,r2,4
 180c9d8:	e0bffe17 	ldw	r2,-8(fp)
 180c9dc:	10800817 	ldw	r2,32(r2)
 180c9e0:	10810014 	ori	r2,r2,1024
 180c9e4:	1007883a 	mov	r3,r2
 180c9e8:	2005883a 	mov	r2,r4
 180c9ec:	10c00035 	stwio	r3,0(r2)
    sp->host_inactive = 0;
 180c9f0:	e0bffe17 	ldw	r2,-8(fp)
 180c9f4:	10000915 	stw	zero,36(r2)
 180c9f8:	00000a06 	br	180ca24 <altera_avalon_jtag_uart_timeout+0x94>
  }
  else if (sp->host_inactive < INT_MAX - 2) {
 180c9fc:	e0bffe17 	ldw	r2,-8(fp)
 180ca00:	10c00917 	ldw	r3,36(r2)
 180ca04:	00a00034 	movhi	r2,32768
 180ca08:	10bfff04 	addi	r2,r2,-4
 180ca0c:	10c00536 	bltu	r2,r3,180ca24 <altera_avalon_jtag_uart_timeout+0x94>
    sp->host_inactive++;
 180ca10:	e0bffe17 	ldw	r2,-8(fp)
 180ca14:	10800917 	ldw	r2,36(r2)
 180ca18:	10c00044 	addi	r3,r2,1
 180ca1c:	e0bffe17 	ldw	r2,-8(fp)
 180ca20:	10c00915 	stw	r3,36(r2)
 180ca24:	00806074 	movhi	r2,385
 180ca28:	108b0304 	addi	r2,r2,11276
 180ca2c:	10800017 	ldw	r2,0(r2)
      ALT_FLAG_POST (sp->events, ALT_JTAG_UART_TIMEOUT, OS_FLAG_SET);
    }
  }

  return alt_ticks_per_second();
}
 180ca30:	e037883a 	mov	sp,fp
 180ca34:	df000017 	ldw	fp,0(sp)
 180ca38:	dec00104 	addi	sp,sp,4
 180ca3c:	f800283a 	ret

0180ca40 <altera_avalon_jtag_uart_close>:
 * The close routine is not implemented for the small driver; instead it will
 * map to null. This is because the small driver simply waits while characters
 * are transmitted; there is no interrupt-serviced buffer to empty 
 */
int altera_avalon_jtag_uart_close(altera_avalon_jtag_uart_state* sp, int flags)
{
 180ca40:	defffc04 	addi	sp,sp,-16
 180ca44:	df000315 	stw	fp,12(sp)
 180ca48:	df000304 	addi	fp,sp,12
 180ca4c:	e13ffd15 	stw	r4,-12(fp)
 180ca50:	e17ffe15 	stw	r5,-8(fp)
  /* 
   * Wait for all transmit data to be emptied by the JTAG UART ISR, or
   * for a host-inactivity timeout, in which case transmit data will be lost
   */
  while ( (sp->tx_out != sp->tx_in) && (sp->host_inactive < sp->timeout) ) {
 180ca54:	00000706 	br	180ca74 <altera_avalon_jtag_uart_close+0x34>
    if (flags & O_NONBLOCK) {
 180ca58:	e0bffe17 	ldw	r2,-8(fp)
 180ca5c:	1090000c 	andi	r2,r2,16384
 180ca60:	1005003a 	cmpeq	r2,r2,zero
 180ca64:	1000031e 	bne	r2,zero,180ca74 <altera_avalon_jtag_uart_close+0x34>
      return -EWOULDBLOCK; 
 180ca68:	00bffd44 	movi	r2,-11
 180ca6c:	e0bfff15 	stw	r2,-4(fp)
 180ca70:	00000b06 	br	180caa0 <altera_avalon_jtag_uart_close+0x60>
{
  /* 
   * Wait for all transmit data to be emptied by the JTAG UART ISR, or
   * for a host-inactivity timeout, in which case transmit data will be lost
   */
  while ( (sp->tx_out != sp->tx_in) && (sp->host_inactive < sp->timeout) ) {
 180ca74:	e0bffd17 	ldw	r2,-12(fp)
 180ca78:	10c00d17 	ldw	r3,52(r2)
 180ca7c:	e0bffd17 	ldw	r2,-12(fp)
 180ca80:	10800c17 	ldw	r2,48(r2)
 180ca84:	18800526 	beq	r3,r2,180ca9c <altera_avalon_jtag_uart_close+0x5c>
 180ca88:	e0bffd17 	ldw	r2,-12(fp)
 180ca8c:	10c00917 	ldw	r3,36(r2)
 180ca90:	e0bffd17 	ldw	r2,-12(fp)
 180ca94:	10800117 	ldw	r2,4(r2)
 180ca98:	18bfef36 	bltu	r3,r2,180ca58 <altera_avalon_jtag_uart_close+0x18>
    if (flags & O_NONBLOCK) {
      return -EWOULDBLOCK; 
    }
  }

  return 0;
 180ca9c:	e03fff15 	stw	zero,-4(fp)
 180caa0:	e0bfff17 	ldw	r2,-4(fp)
}
 180caa4:	e037883a 	mov	sp,fp
 180caa8:	df000017 	ldw	fp,0(sp)
 180caac:	dec00104 	addi	sp,sp,4
 180cab0:	f800283a 	ret

0180cab4 <altera_avalon_jtag_uart_ioctl>:
/* ----------------------------------------------------------- */

int 
altera_avalon_jtag_uart_ioctl(altera_avalon_jtag_uart_state* sp, int req,
  void* arg)
{
 180cab4:	defff804 	addi	sp,sp,-32
 180cab8:	df000715 	stw	fp,28(sp)
 180cabc:	df000704 	addi	fp,sp,28
 180cac0:	e13ffb15 	stw	r4,-20(fp)
 180cac4:	e17ffc15 	stw	r5,-16(fp)
 180cac8:	e1bffd15 	stw	r6,-12(fp)
  int rc = -ENOTTY;
 180cacc:	00bff9c4 	movi	r2,-25
 180cad0:	e0bffa15 	stw	r2,-24(fp)

  switch (req)
 180cad4:	e0bffc17 	ldw	r2,-16(fp)
 180cad8:	e0bfff15 	stw	r2,-4(fp)
 180cadc:	e0ffff17 	ldw	r3,-4(fp)
 180cae0:	189a8060 	cmpeqi	r2,r3,27137
 180cae4:	1000041e 	bne	r2,zero,180caf8 <altera_avalon_jtag_uart_ioctl+0x44>
 180cae8:	e0ffff17 	ldw	r3,-4(fp)
 180caec:	189a80a0 	cmpeqi	r2,r3,27138
 180caf0:	10001b1e 	bne	r2,zero,180cb60 <altera_avalon_jtag_uart_ioctl+0xac>
 180caf4:	00002706 	br	180cb94 <altera_avalon_jtag_uart_ioctl+0xe0>
  {
  case TIOCSTIMEOUT:
    /* Set the time to wait until assuming host is not connected */
    if (sp->timeout != INT_MAX)
 180caf8:	e0bffb17 	ldw	r2,-20(fp)
 180cafc:	10c00117 	ldw	r3,4(r2)
 180cb00:	00a00034 	movhi	r2,32768
 180cb04:	10bfffc4 	addi	r2,r2,-1
 180cb08:	18802226 	beq	r3,r2,180cb94 <altera_avalon_jtag_uart_ioctl+0xe0>
    {
      int timeout = *((int *)arg);
 180cb0c:	e0bffd17 	ldw	r2,-12(fp)
 180cb10:	10800017 	ldw	r2,0(r2)
 180cb14:	e0bff915 	stw	r2,-28(fp)
      sp->timeout = (timeout >= 2 && timeout < INT_MAX) ? timeout : INT_MAX - 1;
 180cb18:	e0bff917 	ldw	r2,-28(fp)
 180cb1c:	10800090 	cmplti	r2,r2,2
 180cb20:	1000071e 	bne	r2,zero,180cb40 <altera_avalon_jtag_uart_ioctl+0x8c>
 180cb24:	e0fff917 	ldw	r3,-28(fp)
 180cb28:	00a00034 	movhi	r2,32768
 180cb2c:	10bfffc4 	addi	r2,r2,-1
 180cb30:	18800326 	beq	r3,r2,180cb40 <altera_avalon_jtag_uart_ioctl+0x8c>
 180cb34:	e0bff917 	ldw	r2,-28(fp)
 180cb38:	e0bffe15 	stw	r2,-8(fp)
 180cb3c:	00000306 	br	180cb4c <altera_avalon_jtag_uart_ioctl+0x98>
 180cb40:	00e00034 	movhi	r3,32768
 180cb44:	18ffff84 	addi	r3,r3,-2
 180cb48:	e0fffe15 	stw	r3,-8(fp)
 180cb4c:	e0bffb17 	ldw	r2,-20(fp)
 180cb50:	e0fffe17 	ldw	r3,-8(fp)
 180cb54:	10c00115 	stw	r3,4(r2)
      rc = 0;
 180cb58:	e03ffa15 	stw	zero,-24(fp)
    }
    break;
 180cb5c:	00000d06 	br	180cb94 <altera_avalon_jtag_uart_ioctl+0xe0>

  case TIOCGCONNECTED:
    /* Find out whether host is connected */
    if (sp->timeout != INT_MAX)
 180cb60:	e0bffb17 	ldw	r2,-20(fp)
 180cb64:	10c00117 	ldw	r3,4(r2)
 180cb68:	00a00034 	movhi	r2,32768
 180cb6c:	10bfffc4 	addi	r2,r2,-1
 180cb70:	18800826 	beq	r3,r2,180cb94 <altera_avalon_jtag_uart_ioctl+0xe0>
    {
      *((int *)arg) = (sp->host_inactive < sp->timeout) ? 1 : 0;
 180cb74:	e13ffd17 	ldw	r4,-12(fp)
 180cb78:	e0bffb17 	ldw	r2,-20(fp)
 180cb7c:	10c00917 	ldw	r3,36(r2)
 180cb80:	e0bffb17 	ldw	r2,-20(fp)
 180cb84:	10800117 	ldw	r2,4(r2)
 180cb88:	1885803a 	cmpltu	r2,r3,r2
 180cb8c:	20800015 	stw	r2,0(r4)
      rc = 0;
 180cb90:	e03ffa15 	stw	zero,-24(fp)

  default:
    break;
  }

  return rc;
 180cb94:	e0bffa17 	ldw	r2,-24(fp)
}
 180cb98:	e037883a 	mov	sp,fp
 180cb9c:	df000017 	ldw	fp,0(sp)
 180cba0:	dec00104 	addi	sp,sp,4
 180cba4:	f800283a 	ret

0180cba8 <altera_avalon_jtag_uart_read>:
/* ----------------------------------------------------------- */

int 
altera_avalon_jtag_uart_read(altera_avalon_jtag_uart_state* sp, 
  char * buffer, int space, int flags)
{
 180cba8:	defff204 	addi	sp,sp,-56
 180cbac:	dfc00d15 	stw	ra,52(sp)
 180cbb0:	df000c15 	stw	fp,48(sp)
 180cbb4:	df000c04 	addi	fp,sp,48
 180cbb8:	e13ffb15 	stw	r4,-20(fp)
 180cbbc:	e17ffc15 	stw	r5,-16(fp)
 180cbc0:	e1bffd15 	stw	r6,-12(fp)
 180cbc4:	e1fffe15 	stw	r7,-8(fp)
  char * ptr = buffer;
 180cbc8:	e0bffc17 	ldw	r2,-16(fp)
 180cbcc:	e0bffa15 	stw	r2,-24(fp)
   * When running in a multi threaded environment, obtain the "read_lock"
   * semaphore. This ensures that reading from the device is thread-safe.
   */
  ALT_SEM_PEND (sp->read_lock, 0);

  while (space > 0)
 180cbd0:	00004806 	br	180ccf4 <altera_avalon_jtag_uart_read+0x14c>
    unsigned int in, out;

    /* Read as much data as possible */
    do
    {
      in  = sp->rx_in;
 180cbd4:	e0bffb17 	ldw	r2,-20(fp)
 180cbd8:	10800a17 	ldw	r2,40(r2)
 180cbdc:	e0bff715 	stw	r2,-36(fp)
      out = sp->rx_out;
 180cbe0:	e0bffb17 	ldw	r2,-20(fp)
 180cbe4:	10800b17 	ldw	r2,44(r2)
 180cbe8:	e0bff615 	stw	r2,-40(fp)

      if (in >= out)
 180cbec:	e0fff717 	ldw	r3,-36(fp)
 180cbf0:	e0bff617 	ldw	r2,-40(fp)
 180cbf4:	18800536 	bltu	r3,r2,180cc0c <altera_avalon_jtag_uart_read+0x64>
        n = in - out;
 180cbf8:	e0bff717 	ldw	r2,-36(fp)
 180cbfc:	e0fff617 	ldw	r3,-40(fp)
 180cc00:	10c5c83a 	sub	r2,r2,r3
 180cc04:	e0bff815 	stw	r2,-32(fp)
 180cc08:	00000406 	br	180cc1c <altera_avalon_jtag_uart_read+0x74>
      else
        n = ALTERA_AVALON_JTAG_UART_BUF_LEN - out;
 180cc0c:	00820004 	movi	r2,2048
 180cc10:	e0fff617 	ldw	r3,-40(fp)
 180cc14:	10c5c83a 	sub	r2,r2,r3
 180cc18:	e0bff815 	stw	r2,-32(fp)

      if (n == 0)
 180cc1c:	e0bff817 	ldw	r2,-32(fp)
 180cc20:	1005003a 	cmpeq	r2,r2,zero
 180cc24:	10001f1e 	bne	r2,zero,180cca4 <altera_avalon_jtag_uart_read+0xfc>
        break; /* No more data available */

      if (n > space)
 180cc28:	e0fffd17 	ldw	r3,-12(fp)
 180cc2c:	e0bff817 	ldw	r2,-32(fp)
 180cc30:	1880022e 	bgeu	r3,r2,180cc3c <altera_avalon_jtag_uart_read+0x94>
        n = space;
 180cc34:	e0bffd17 	ldw	r2,-12(fp)
 180cc38:	e0bff815 	stw	r2,-32(fp)

      memcpy(ptr, sp->rx_buf + out, n);
 180cc3c:	e0bffb17 	ldw	r2,-20(fp)
 180cc40:	10c00e04 	addi	r3,r2,56
 180cc44:	e0bff617 	ldw	r2,-40(fp)
 180cc48:	1887883a 	add	r3,r3,r2
 180cc4c:	e0bffa17 	ldw	r2,-24(fp)
 180cc50:	1009883a 	mov	r4,r2
 180cc54:	180b883a 	mov	r5,r3
 180cc58:	e1bff817 	ldw	r6,-32(fp)
 180cc5c:	18059680 	call	1805968 <memcpy>
      ptr   += n;
 180cc60:	e0fff817 	ldw	r3,-32(fp)
 180cc64:	e0bffa17 	ldw	r2,-24(fp)
 180cc68:	10c5883a 	add	r2,r2,r3
 180cc6c:	e0bffa15 	stw	r2,-24(fp)
      space -= n;
 180cc70:	e0fffd17 	ldw	r3,-12(fp)
 180cc74:	e0bff817 	ldw	r2,-32(fp)
 180cc78:	1885c83a 	sub	r2,r3,r2
 180cc7c:	e0bffd15 	stw	r2,-12(fp)

      sp->rx_out = (out + n) % ALTERA_AVALON_JTAG_UART_BUF_LEN;
 180cc80:	e0fff617 	ldw	r3,-40(fp)
 180cc84:	e0bff817 	ldw	r2,-32(fp)
 180cc88:	1885883a 	add	r2,r3,r2
 180cc8c:	10c1ffcc 	andi	r3,r2,2047
 180cc90:	e0bffb17 	ldw	r2,-20(fp)
 180cc94:	10c00b15 	stw	r3,44(r2)
    }
    while (space > 0);
 180cc98:	e0bffd17 	ldw	r2,-12(fp)
 180cc9c:	10800048 	cmpgei	r2,r2,1
 180cca0:	103fcc1e 	bne	r2,zero,180cbd4 <altera_avalon_jtag_uart_read+0x2c>

    /* If we read any data then return it */
    if (ptr != buffer)
 180cca4:	e0fffa17 	ldw	r3,-24(fp)
 180cca8:	e0bffc17 	ldw	r2,-16(fp)
 180ccac:	1880141e 	bne	r3,r2,180cd00 <altera_avalon_jtag_uart_read+0x158>
      break;

    /* If in non-blocking mode then return error */
    if (flags & O_NONBLOCK)
 180ccb0:	e0bffe17 	ldw	r2,-8(fp)
 180ccb4:	1090000c 	andi	r2,r2,16384
 180ccb8:	1004c03a 	cmpne	r2,r2,zero
 180ccbc:	1000101e 	bne	r2,zero,180cd00 <altera_avalon_jtag_uart_read+0x158>
      while (in == sp->rx_in && sp->host_inactive < sp->timeout)
        ;
    }
#else
    /* No OS: Always spin */
    while (in == sp->rx_in && sp->host_inactive < sp->timeout)
 180ccc0:	e0bffb17 	ldw	r2,-20(fp)
 180ccc4:	10c00a17 	ldw	r3,40(r2)
 180ccc8:	e0bff717 	ldw	r2,-36(fp)
 180cccc:	1880051e 	bne	r3,r2,180cce4 <altera_avalon_jtag_uart_read+0x13c>
 180ccd0:	e0bffb17 	ldw	r2,-20(fp)
 180ccd4:	10c00917 	ldw	r3,36(r2)
 180ccd8:	e0bffb17 	ldw	r2,-20(fp)
 180ccdc:	10800117 	ldw	r2,4(r2)
 180cce0:	18bff736 	bltu	r3,r2,180ccc0 <altera_avalon_jtag_uart_read+0x118>
      ;
#endif /* __ucosii__ */

    if (in == sp->rx_in)
 180cce4:	e0bffb17 	ldw	r2,-20(fp)
 180cce8:	10c00a17 	ldw	r3,40(r2)
 180ccec:	e0bff717 	ldw	r2,-36(fp)
 180ccf0:	18800326 	beq	r3,r2,180cd00 <altera_avalon_jtag_uart_read+0x158>
   * When running in a multi threaded environment, obtain the "read_lock"
   * semaphore. This ensures that reading from the device is thread-safe.
   */
  ALT_SEM_PEND (sp->read_lock, 0);

  while (space > 0)
 180ccf4:	e0bffd17 	ldw	r2,-12(fp)
 180ccf8:	10800048 	cmpgei	r2,r2,1
 180ccfc:	103fb51e 	bne	r2,zero,180cbd4 <altera_avalon_jtag_uart_read+0x2c>
   * semaphore so that other threads can access the buffer.
   */

  ALT_SEM_POST (sp->read_lock);

  if (ptr != buffer)
 180cd00:	e0fffa17 	ldw	r3,-24(fp)
 180cd04:	e0bffc17 	ldw	r2,-16(fp)
 180cd08:	18801926 	beq	r3,r2,180cd70 <altera_avalon_jtag_uart_read+0x1c8>
static ALT_INLINE alt_irq_context ALT_ALWAYS_INLINE 
       alt_irq_disable_all (void)
{
  alt_irq_context context;

  NIOS2_READ_STATUS (context);
 180cd0c:	0005303a 	rdctl	r2,status
 180cd10:	e0bff515 	stw	r2,-44(fp)

  NIOS2_WRITE_STATUS (context & ~NIOS2_STATUS_PIE_MSK);
 180cd14:	e0fff517 	ldw	r3,-44(fp)
 180cd18:	00bfff84 	movi	r2,-2
 180cd1c:	1884703a 	and	r2,r3,r2
 180cd20:	1001703a 	wrctl	status,r2
  
  return context;
 180cd24:	e0bff517 	ldw	r2,-44(fp)
  {
    /* If we read any data then there is space in the buffer so enable interrupts */
    context = alt_irq_disable_all();
 180cd28:	e0bff915 	stw	r2,-28(fp)
    sp->irq_enable |= ALTERA_AVALON_JTAG_UART_CONTROL_RE_MSK;
 180cd2c:	e0bffb17 	ldw	r2,-20(fp)
 180cd30:	10800817 	ldw	r2,32(r2)
 180cd34:	10c00054 	ori	r3,r2,1
 180cd38:	e0bffb17 	ldw	r2,-20(fp)
 180cd3c:	10c00815 	stw	r3,32(r2)
    IOWR_ALTERA_AVALON_JTAG_UART_CONTROL(sp->base, sp->irq_enable);
 180cd40:	e0bffb17 	ldw	r2,-20(fp)
 180cd44:	10800017 	ldw	r2,0(r2)
 180cd48:	11000104 	addi	r4,r2,4
 180cd4c:	e0bffb17 	ldw	r2,-20(fp)
 180cd50:	10800817 	ldw	r2,32(r2)
 180cd54:	1007883a 	mov	r3,r2
 180cd58:	2005883a 	mov	r2,r4
 180cd5c:	10c00035 	stwio	r3,0(r2)
 180cd60:	e0bff917 	ldw	r2,-28(fp)
 180cd64:	e0bff415 	stw	r2,-48(fp)
  status &= ~NIOS2_STATUS_PIE_MSK;
  status |= (context & NIOS2_STATUS_PIE_MSK);
  
  NIOS2_WRITE_STATUS (status);
#else
  NIOS2_WRITE_STATUS (context);
 180cd68:	e0bff417 	ldw	r2,-48(fp)
 180cd6c:	1001703a 	wrctl	status,r2
    alt_irq_enable_all(context);
  }

  if (ptr != buffer)
 180cd70:	e0fffa17 	ldw	r3,-24(fp)
 180cd74:	e0bffc17 	ldw	r2,-16(fp)
 180cd78:	18800526 	beq	r3,r2,180cd90 <altera_avalon_jtag_uart_read+0x1e8>
    return ptr - buffer;
 180cd7c:	e0fffa17 	ldw	r3,-24(fp)
 180cd80:	e0bffc17 	ldw	r2,-16(fp)
 180cd84:	1887c83a 	sub	r3,r3,r2
 180cd88:	e0ffff15 	stw	r3,-4(fp)
 180cd8c:	00000906 	br	180cdb4 <altera_avalon_jtag_uart_read+0x20c>
  else if (flags & O_NONBLOCK)
 180cd90:	e0bffe17 	ldw	r2,-8(fp)
 180cd94:	1090000c 	andi	r2,r2,16384
 180cd98:	1005003a 	cmpeq	r2,r2,zero
 180cd9c:	1000031e 	bne	r2,zero,180cdac <altera_avalon_jtag_uart_read+0x204>
    return -EWOULDBLOCK;
 180cda0:	00bffd44 	movi	r2,-11
 180cda4:	e0bfff15 	stw	r2,-4(fp)
 180cda8:	00000206 	br	180cdb4 <altera_avalon_jtag_uart_read+0x20c>
  else
    return -EIO;
 180cdac:	00bffec4 	movi	r2,-5
 180cdb0:	e0bfff15 	stw	r2,-4(fp)
 180cdb4:	e0bfff17 	ldw	r2,-4(fp)
}
 180cdb8:	e037883a 	mov	sp,fp
 180cdbc:	dfc00117 	ldw	ra,4(sp)
 180cdc0:	df000017 	ldw	fp,0(sp)
 180cdc4:	dec00204 	addi	sp,sp,8
 180cdc8:	f800283a 	ret

0180cdcc <altera_avalon_jtag_uart_write>:
/* ----------------------------------------------------------- */

int 
altera_avalon_jtag_uart_write(altera_avalon_jtag_uart_state* sp, 
  const char * ptr, int count, int flags)
{
 180cdcc:	defff204 	addi	sp,sp,-56
 180cdd0:	dfc00d15 	stw	ra,52(sp)
 180cdd4:	df000c15 	stw	fp,48(sp)
 180cdd8:	df000c04 	addi	fp,sp,48
 180cddc:	e13ffb15 	stw	r4,-20(fp)
 180cde0:	e17ffc15 	stw	r5,-16(fp)
 180cde4:	e1bffd15 	stw	r6,-12(fp)
 180cde8:	e1fffe15 	stw	r7,-8(fp)
  /* Remove warning at optimisation level 03 by seting out to 0 */
  unsigned int in, out=0;
 180cdec:	e03ff915 	stw	zero,-28(fp)
  unsigned int n;
  alt_irq_context context;

  const char * start = ptr;
 180cdf0:	e0bffc17 	ldw	r2,-16(fp)
 180cdf4:	e0bff615 	stw	r2,-40(fp)
  ALT_SEM_PEND (sp->write_lock, 0);

  do
  {
    /* Copy as much as we can into the transmit buffer */
    while (count > 0)
 180cdf8:	00003a06 	br	180cee4 <altera_avalon_jtag_uart_write+0x118>
    {
      /* We need a stable value of the out pointer to calculate the space available */
      in  = sp->tx_in;
 180cdfc:	e0bffb17 	ldw	r2,-20(fp)
 180ce00:	10800c17 	ldw	r2,48(r2)
 180ce04:	e0bffa15 	stw	r2,-24(fp)
      out = sp->tx_out;
 180ce08:	e0bffb17 	ldw	r2,-20(fp)
 180ce0c:	10800d17 	ldw	r2,52(r2)
 180ce10:	e0bff915 	stw	r2,-28(fp)

      if (in < out)
 180ce14:	e0fffa17 	ldw	r3,-24(fp)
 180ce18:	e0bff917 	ldw	r2,-28(fp)
 180ce1c:	1880062e 	bgeu	r3,r2,180ce38 <altera_avalon_jtag_uart_write+0x6c>
        n = out - 1 - in;
 180ce20:	e0fff917 	ldw	r3,-28(fp)
 180ce24:	e0bffa17 	ldw	r2,-24(fp)
 180ce28:	1885c83a 	sub	r2,r3,r2
 180ce2c:	10bfffc4 	addi	r2,r2,-1
 180ce30:	e0bff815 	stw	r2,-32(fp)
 180ce34:	00000c06 	br	180ce68 <altera_avalon_jtag_uart_write+0x9c>
      else if (out > 0)
 180ce38:	e0bff917 	ldw	r2,-28(fp)
 180ce3c:	1005003a 	cmpeq	r2,r2,zero
 180ce40:	1000051e 	bne	r2,zero,180ce58 <altera_avalon_jtag_uart_write+0x8c>
        n = ALTERA_AVALON_JTAG_UART_BUF_LEN - in;
 180ce44:	00820004 	movi	r2,2048
 180ce48:	e0fffa17 	ldw	r3,-24(fp)
 180ce4c:	10c5c83a 	sub	r2,r2,r3
 180ce50:	e0bff815 	stw	r2,-32(fp)
 180ce54:	00000406 	br	180ce68 <altera_avalon_jtag_uart_write+0x9c>
      else
        n = ALTERA_AVALON_JTAG_UART_BUF_LEN - 1 - in;
 180ce58:	0081ffc4 	movi	r2,2047
 180ce5c:	e0fffa17 	ldw	r3,-24(fp)
 180ce60:	10c5c83a 	sub	r2,r2,r3
 180ce64:	e0bff815 	stw	r2,-32(fp)

      if (n == 0)
 180ce68:	e0bff817 	ldw	r2,-32(fp)
 180ce6c:	1005003a 	cmpeq	r2,r2,zero
 180ce70:	10001f1e 	bne	r2,zero,180cef0 <altera_avalon_jtag_uart_write+0x124>
        break;

      if (n > count)
 180ce74:	e0fffd17 	ldw	r3,-12(fp)
 180ce78:	e0bff817 	ldw	r2,-32(fp)
 180ce7c:	1880022e 	bgeu	r3,r2,180ce88 <altera_avalon_jtag_uart_write+0xbc>
        n = count;
 180ce80:	e0bffd17 	ldw	r2,-12(fp)
 180ce84:	e0bff815 	stw	r2,-32(fp)

      memcpy(sp->tx_buf + in, ptr, n);
 180ce88:	e0bffb17 	ldw	r2,-20(fp)
 180ce8c:	10c20e04 	addi	r3,r2,2104
 180ce90:	e0bffa17 	ldw	r2,-24(fp)
 180ce94:	1885883a 	add	r2,r3,r2
 180ce98:	e0fffc17 	ldw	r3,-16(fp)
 180ce9c:	1009883a 	mov	r4,r2
 180cea0:	180b883a 	mov	r5,r3
 180cea4:	e1bff817 	ldw	r6,-32(fp)
 180cea8:	18059680 	call	1805968 <memcpy>
      ptr   += n;
 180ceac:	e0fff817 	ldw	r3,-32(fp)
 180ceb0:	e0bffc17 	ldw	r2,-16(fp)
 180ceb4:	10c5883a 	add	r2,r2,r3
 180ceb8:	e0bffc15 	stw	r2,-16(fp)
      count -= n;
 180cebc:	e0fffd17 	ldw	r3,-12(fp)
 180cec0:	e0bff817 	ldw	r2,-32(fp)
 180cec4:	1885c83a 	sub	r2,r3,r2
 180cec8:	e0bffd15 	stw	r2,-12(fp)

      sp->tx_in = (in + n) % ALTERA_AVALON_JTAG_UART_BUF_LEN;
 180cecc:	e0fffa17 	ldw	r3,-24(fp)
 180ced0:	e0bff817 	ldw	r2,-32(fp)
 180ced4:	1885883a 	add	r2,r3,r2
 180ced8:	10c1ffcc 	andi	r3,r2,2047
 180cedc:	e0bffb17 	ldw	r2,-20(fp)
 180cee0:	10c00c15 	stw	r3,48(r2)
  ALT_SEM_PEND (sp->write_lock, 0);

  do
  {
    /* Copy as much as we can into the transmit buffer */
    while (count > 0)
 180cee4:	e0bffd17 	ldw	r2,-12(fp)
 180cee8:	10800048 	cmpgei	r2,r2,1
 180ceec:	103fc31e 	bne	r2,zero,180cdfc <altera_avalon_jtag_uart_write+0x30>
static ALT_INLINE alt_irq_context ALT_ALWAYS_INLINE 
       alt_irq_disable_all (void)
{
  alt_irq_context context;

  NIOS2_READ_STATUS (context);
 180cef0:	0005303a 	rdctl	r2,status
 180cef4:	e0bff515 	stw	r2,-44(fp)

  NIOS2_WRITE_STATUS (context & ~NIOS2_STATUS_PIE_MSK);
 180cef8:	e0fff517 	ldw	r3,-44(fp)
 180cefc:	00bfff84 	movi	r2,-2
 180cf00:	1884703a 	and	r2,r3,r2
 180cf04:	1001703a 	wrctl	status,r2
  
  return context;
 180cf08:	e0bff517 	ldw	r2,-44(fp)
     * to enable interrupts if there is no space left in the FIFO
     *
     * For now kick the interrupt routine every time to make it transmit 
     * the data 
     */
    context = alt_irq_disable_all();
 180cf0c:	e0bff715 	stw	r2,-36(fp)
    sp->irq_enable |= ALTERA_AVALON_JTAG_UART_CONTROL_WE_MSK;
 180cf10:	e0bffb17 	ldw	r2,-20(fp)
 180cf14:	10800817 	ldw	r2,32(r2)
 180cf18:	10c00094 	ori	r3,r2,2
 180cf1c:	e0bffb17 	ldw	r2,-20(fp)
 180cf20:	10c00815 	stw	r3,32(r2)
    IOWR_ALTERA_AVALON_JTAG_UART_CONTROL(sp->base, sp->irq_enable);
 180cf24:	e0bffb17 	ldw	r2,-20(fp)
 180cf28:	10800017 	ldw	r2,0(r2)
 180cf2c:	11000104 	addi	r4,r2,4
 180cf30:	e0bffb17 	ldw	r2,-20(fp)
 180cf34:	10800817 	ldw	r2,32(r2)
 180cf38:	1007883a 	mov	r3,r2
 180cf3c:	2005883a 	mov	r2,r4
 180cf40:	10c00035 	stwio	r3,0(r2)
 180cf44:	e0bff717 	ldw	r2,-36(fp)
 180cf48:	e0bff415 	stw	r2,-48(fp)
  status &= ~NIOS2_STATUS_PIE_MSK;
  status |= (context & NIOS2_STATUS_PIE_MSK);
  
  NIOS2_WRITE_STATUS (status);
#else
  NIOS2_WRITE_STATUS (context);
 180cf4c:	e0bff417 	ldw	r2,-48(fp)
 180cf50:	1001703a 	wrctl	status,r2
    /* 
     * If there is any data left then either return now or block until 
     * some has been sent 
     */
    /* consider: test whether there is anything there while doing this and delay for at most 2s. */
    if (count > 0)
 180cf54:	e0bffd17 	ldw	r2,-12(fp)
 180cf58:	10800050 	cmplti	r2,r2,1
 180cf5c:	1000111e 	bne	r2,zero,180cfa4 <altera_avalon_jtag_uart_write+0x1d8>
    {
      if (flags & O_NONBLOCK)
 180cf60:	e0bffe17 	ldw	r2,-8(fp)
 180cf64:	1090000c 	andi	r2,r2,16384
 180cf68:	1004c03a 	cmpne	r2,r2,zero
 180cf6c:	1000101e 	bne	r2,zero,180cfb0 <altera_avalon_jtag_uart_write+0x1e4>
      /*
       * No OS present: Always wait for data to be removed from buffer.  Once
       * the interrupt routine has removed some data then we will be able to
       * insert some more.
       */
      while (out == sp->tx_out && sp->host_inactive < sp->timeout)
 180cf70:	e0bffb17 	ldw	r2,-20(fp)
 180cf74:	10c00d17 	ldw	r3,52(r2)
 180cf78:	e0bff917 	ldw	r2,-28(fp)
 180cf7c:	1880051e 	bne	r3,r2,180cf94 <altera_avalon_jtag_uart_write+0x1c8>
 180cf80:	e0bffb17 	ldw	r2,-20(fp)
 180cf84:	10c00917 	ldw	r3,36(r2)
 180cf88:	e0bffb17 	ldw	r2,-20(fp)
 180cf8c:	10800117 	ldw	r2,4(r2)
 180cf90:	18bff736 	bltu	r3,r2,180cf70 <altera_avalon_jtag_uart_write+0x1a4>
        ;
#endif /* __ucosii__ */

      if (out == sp->tx_out)
 180cf94:	e0bffb17 	ldw	r2,-20(fp)
 180cf98:	10c00d17 	ldw	r3,52(r2)
 180cf9c:	e0bff917 	ldw	r2,-28(fp)
 180cfa0:	18800326 	beq	r3,r2,180cfb0 <altera_avalon_jtag_uart_write+0x1e4>
        break;
    }
  }
  while (count > 0);
 180cfa4:	e0bffd17 	ldw	r2,-12(fp)
 180cfa8:	10800048 	cmpgei	r2,r2,1
 180cfac:	103fcd1e 	bne	r2,zero,180cee4 <altera_avalon_jtag_uart_write+0x118>
   * Now that access to the circular buffer is complete, release the write
   * semaphore so that other threads can access the buffer.
   */
  ALT_SEM_POST (sp->write_lock);

  if (ptr != start)
 180cfb0:	e0fffc17 	ldw	r3,-16(fp)
 180cfb4:	e0bff617 	ldw	r2,-40(fp)
 180cfb8:	18800526 	beq	r3,r2,180cfd0 <altera_avalon_jtag_uart_write+0x204>
    return ptr - start;
 180cfbc:	e0fffc17 	ldw	r3,-16(fp)
 180cfc0:	e0bff617 	ldw	r2,-40(fp)
 180cfc4:	1887c83a 	sub	r3,r3,r2
 180cfc8:	e0ffff15 	stw	r3,-4(fp)
 180cfcc:	00000906 	br	180cff4 <altera_avalon_jtag_uart_write+0x228>
  else if (flags & O_NONBLOCK)
 180cfd0:	e0bffe17 	ldw	r2,-8(fp)
 180cfd4:	1090000c 	andi	r2,r2,16384
 180cfd8:	1005003a 	cmpeq	r2,r2,zero
 180cfdc:	1000031e 	bne	r2,zero,180cfec <altera_avalon_jtag_uart_write+0x220>
    return -EWOULDBLOCK;
 180cfe0:	00bffd44 	movi	r2,-11
 180cfe4:	e0bfff15 	stw	r2,-4(fp)
 180cfe8:	00000206 	br	180cff4 <altera_avalon_jtag_uart_write+0x228>
  else
    return -EIO; /* Host not connected */
 180cfec:	00bffec4 	movi	r2,-5
 180cff0:	e0bfff15 	stw	r2,-4(fp)
 180cff4:	e0bfff17 	ldw	r2,-4(fp)
}
 180cff8:	e037883a 	mov	sp,fp
 180cffc:	dfc00117 	ldw	ra,4(sp)
 180d000:	df000017 	ldw	fp,0(sp)
 180d004:	dec00204 	addi	sp,sp,8
 180d008:	f800283a 	ret

0180d00c <lcd_write_command>:

/* --------------------------------------------------------------------- */

static void lcd_write_command(altera_avalon_lcd_16207_state* sp, 
  unsigned char command)
{
 180d00c:	defffa04 	addi	sp,sp,-24
 180d010:	dfc00515 	stw	ra,20(sp)
 180d014:	df000415 	stw	fp,16(sp)
 180d018:	df000404 	addi	fp,sp,16
 180d01c:	e13ffe15 	stw	r4,-8(fp)
 180d020:	e17fff05 	stb	r5,-4(fp)
  unsigned int base = sp->base;
 180d024:	e0bffe17 	ldw	r2,-8(fp)
 180d028:	10800017 	ldw	r2,0(r2)
 180d02c:	e0bffd15 	stw	r2,-12(fp)
  /* We impose a timeout on the driver in case the LCD panel isn't connected.
   * The first time we call this function the timeout is approx 25ms 
   * (assuming 5 cycles per loop and a 200MHz clock).  Obviously systems
   * with slower clocks, or debug builds, or slower memory will take longer.
   */
  int i = 1000000;
 180d030:	008003f4 	movhi	r2,15
 180d034:	10909004 	addi	r2,r2,16960
 180d038:	e0bffc15 	stw	r2,-16(fp)

  /* Don't bother if the LCD panel didn't work before */
  if (sp->broken)
 180d03c:	e0bffe17 	ldw	r2,-8(fp)
 180d040:	10800803 	ldbu	r2,32(r2)
 180d044:	10803fcc 	andi	r2,r2,255
 180d048:	1080201c 	xori	r2,r2,128
 180d04c:	10bfe004 	addi	r2,r2,-128
 180d050:	1004c03a 	cmpne	r2,r2,zero
 180d054:	1000161e 	bne	r2,zero,180d0b0 <lcd_write_command+0xa4>
    return;

  /* Wait until LCD isn't busy. */
  while (IORD_ALTERA_AVALON_LCD_16207_STATUS(base) & ALTERA_AVALON_LCD_16207_STATUS_BUSY_MSK)
 180d058:	00000a06 	br	180d084 <lcd_write_command+0x78>
    if (--i == 0)
 180d05c:	e0bffc17 	ldw	r2,-16(fp)
 180d060:	10bfffc4 	addi	r2,r2,-1
 180d064:	e0bffc15 	stw	r2,-16(fp)
 180d068:	e0bffc17 	ldw	r2,-16(fp)
 180d06c:	1004c03a 	cmpne	r2,r2,zero
 180d070:	1000041e 	bne	r2,zero,180d084 <lcd_write_command+0x78>
    {
      sp->broken = 1;
 180d074:	e0fffe17 	ldw	r3,-8(fp)
 180d078:	00800044 	movi	r2,1
 180d07c:	18800805 	stb	r2,32(r3)
      return;
 180d080:	00000b06 	br	180d0b0 <lcd_write_command+0xa4>
  /* Don't bother if the LCD panel didn't work before */
  if (sp->broken)
    return;

  /* Wait until LCD isn't busy. */
  while (IORD_ALTERA_AVALON_LCD_16207_STATUS(base) & ALTERA_AVALON_LCD_16207_STATUS_BUSY_MSK)
 180d084:	e0bffd17 	ldw	r2,-12(fp)
 180d088:	10800104 	addi	r2,r2,4
 180d08c:	10800037 	ldwio	r2,0(r2)
 180d090:	1080200c 	andi	r2,r2,128
 180d094:	1004c03a 	cmpne	r2,r2,zero
 180d098:	103ff01e 	bne	r2,zero,180d05c <lcd_write_command+0x50>
    }

  /* Despite what it says in the datasheet, the LCD isn't ready to accept
   * a write immediately after it returns BUSY=0.  Wait for 100us more.
   */
  usleep(100);
 180d09c:	01001904 	movi	r4,100
 180d0a0:	180a5880 	call	180a588 <usleep>

  IOWR_ALTERA_AVALON_LCD_16207_COMMAND(base, command);
 180d0a4:	e0bffd17 	ldw	r2,-12(fp)
 180d0a8:	e0ffff03 	ldbu	r3,-4(fp)
 180d0ac:	10c00035 	stwio	r3,0(r2)
}
 180d0b0:	e037883a 	mov	sp,fp
 180d0b4:	dfc00117 	ldw	ra,4(sp)
 180d0b8:	df000017 	ldw	fp,0(sp)
 180d0bc:	dec00204 	addi	sp,sp,8
 180d0c0:	f800283a 	ret

0180d0c4 <lcd_write_data>:

/* --------------------------------------------------------------------- */

static void lcd_write_data(altera_avalon_lcd_16207_state* sp, 
  unsigned char data)
{
 180d0c4:	defffa04 	addi	sp,sp,-24
 180d0c8:	dfc00515 	stw	ra,20(sp)
 180d0cc:	df000415 	stw	fp,16(sp)
 180d0d0:	df000404 	addi	fp,sp,16
 180d0d4:	e13ffe15 	stw	r4,-8(fp)
 180d0d8:	e17fff05 	stb	r5,-4(fp)
  unsigned int base = sp->base;
 180d0dc:	e0bffe17 	ldw	r2,-8(fp)
 180d0e0:	10800017 	ldw	r2,0(r2)
 180d0e4:	e0bffd15 	stw	r2,-12(fp)
  /* We impose a timeout on the driver in case the LCD panel isn't connected.
   * The first time we call this function the timeout is approx 25ms 
   * (assuming 5 cycles per loop and a 200MHz clock).  Obviously systems
   * with slower clocks, or debug builds, or slower memory will take longer.
   */
  int i = 1000000;
 180d0e8:	008003f4 	movhi	r2,15
 180d0ec:	10909004 	addi	r2,r2,16960
 180d0f0:	e0bffc15 	stw	r2,-16(fp)

  /* Don't bother if the LCD panel didn't work before */
  if (sp->broken)
 180d0f4:	e0bffe17 	ldw	r2,-8(fp)
 180d0f8:	10800803 	ldbu	r2,32(r2)
 180d0fc:	10803fcc 	andi	r2,r2,255
 180d100:	1080201c 	xori	r2,r2,128
 180d104:	10bfe004 	addi	r2,r2,-128
 180d108:	1004c03a 	cmpne	r2,r2,zero
 180d10c:	10001d1e 	bne	r2,zero,180d184 <lcd_write_data+0xc0>
    return;

  /* Wait until LCD isn't busy. */
  while (IORD_ALTERA_AVALON_LCD_16207_STATUS(base) & ALTERA_AVALON_LCD_16207_STATUS_BUSY_MSK)
 180d110:	00000a06 	br	180d13c <lcd_write_data+0x78>
    if (--i == 0)
 180d114:	e0bffc17 	ldw	r2,-16(fp)
 180d118:	10bfffc4 	addi	r2,r2,-1
 180d11c:	e0bffc15 	stw	r2,-16(fp)
 180d120:	e0bffc17 	ldw	r2,-16(fp)
 180d124:	1004c03a 	cmpne	r2,r2,zero
 180d128:	1000041e 	bne	r2,zero,180d13c <lcd_write_data+0x78>
    {
      sp->broken = 1;
 180d12c:	e0fffe17 	ldw	r3,-8(fp)
 180d130:	00800044 	movi	r2,1
 180d134:	18800805 	stb	r2,32(r3)
      return;
 180d138:	00001206 	br	180d184 <lcd_write_data+0xc0>
  /* Don't bother if the LCD panel didn't work before */
  if (sp->broken)
    return;

  /* Wait until LCD isn't busy. */
  while (IORD_ALTERA_AVALON_LCD_16207_STATUS(base) & ALTERA_AVALON_LCD_16207_STATUS_BUSY_MSK)
 180d13c:	e0bffd17 	ldw	r2,-12(fp)
 180d140:	10800104 	addi	r2,r2,4
 180d144:	10800037 	ldwio	r2,0(r2)
 180d148:	1080200c 	andi	r2,r2,128
 180d14c:	1004c03a 	cmpne	r2,r2,zero
 180d150:	103ff01e 	bne	r2,zero,180d114 <lcd_write_data+0x50>
    }

  /* Despite what it says in the datasheet, the LCD isn't ready to accept
   * a write immediately after it returns BUSY=0.  Wait for 100us more.
   */
  usleep(100);
 180d154:	01001904 	movi	r4,100
 180d158:	180a5880 	call	180a588 <usleep>

  IOWR_ALTERA_AVALON_LCD_16207_DATA(base, data);
 180d15c:	e0bffd17 	ldw	r2,-12(fp)
 180d160:	10800204 	addi	r2,r2,8
 180d164:	e0ffff03 	ldbu	r3,-4(fp)
 180d168:	10c00035 	stwio	r3,0(r2)

  sp->address++;
 180d16c:	e0bffe17 	ldw	r2,-8(fp)
 180d170:	108008c3 	ldbu	r2,35(r2)
 180d174:	10800044 	addi	r2,r2,1
 180d178:	1007883a 	mov	r3,r2
 180d17c:	e0bffe17 	ldw	r2,-8(fp)
 180d180:	10c008c5 	stb	r3,35(r2)
}
 180d184:	e037883a 	mov	sp,fp
 180d188:	dfc00117 	ldw	ra,4(sp)
 180d18c:	df000017 	ldw	fp,0(sp)
 180d190:	dec00204 	addi	sp,sp,8
 180d194:	f800283a 	ret

0180d198 <lcd_clear_screen>:

/* --------------------------------------------------------------------- */

static void lcd_clear_screen(altera_avalon_lcd_16207_state* sp)
{
 180d198:	defffc04 	addi	sp,sp,-16
 180d19c:	dfc00315 	stw	ra,12(sp)
 180d1a0:	df000215 	stw	fp,8(sp)
 180d1a4:	df000204 	addi	fp,sp,8
 180d1a8:	e13fff15 	stw	r4,-4(fp)
  int y;

  lcd_write_command(sp, LCD_CMD_CLEAR);
 180d1ac:	e13fff17 	ldw	r4,-4(fp)
 180d1b0:	01400044 	movi	r5,1
 180d1b4:	180d00c0 	call	180d00c <lcd_write_command>

  sp->x = 0;
 180d1b8:	e0bfff17 	ldw	r2,-4(fp)
 180d1bc:	10000845 	stb	zero,33(r2)
  sp->y = 0;
 180d1c0:	e0bfff17 	ldw	r2,-4(fp)
 180d1c4:	10000885 	stb	zero,34(r2)
  sp->address = 0;
 180d1c8:	e0bfff17 	ldw	r2,-4(fp)
 180d1cc:	100008c5 	stb	zero,35(r2)

  for (y = 0 ; y < ALT_LCD_HEIGHT ; y++)
 180d1d0:	e03ffe15 	stw	zero,-8(fp)
 180d1d4:	00001906 	br	180d23c <lcd_clear_screen+0xa4>
  {
    memset(sp->line[y].data, ' ', sizeof(sp->line[0].data));
 180d1d8:	e0bffe17 	ldw	r2,-8(fp)
 180d1dc:	108018e4 	muli	r2,r2,99
 180d1e0:	10c01004 	addi	r3,r2,64
 180d1e4:	e0bfff17 	ldw	r2,-4(fp)
 180d1e8:	1889883a 	add	r4,r3,r2
 180d1ec:	01400804 	movi	r5,32
 180d1f0:	01801444 	movi	r6,81
 180d1f4:	1805ae80 	call	1805ae8 <memset>
    memset(sp->line[y].visible, ' ', sizeof(sp->line[0].visible));
 180d1f8:	e0bffe17 	ldw	r2,-8(fp)
 180d1fc:	108018e4 	muli	r2,r2,99
 180d200:	10c00c04 	addi	r3,r2,48
 180d204:	e0bfff17 	ldw	r2,-4(fp)
 180d208:	1889883a 	add	r4,r3,r2
 180d20c:	01400804 	movi	r5,32
 180d210:	01800404 	movi	r6,16
 180d214:	1805ae80 	call	1805ae8 <memset>
    sp->line[y].width = 0;
 180d218:	e0bffe17 	ldw	r2,-8(fp)
 180d21c:	e0ffff17 	ldw	r3,-4(fp)
 180d220:	108018e4 	muli	r2,r2,99
 180d224:	10c5883a 	add	r2,r2,r3
 180d228:	10802404 	addi	r2,r2,144
 180d22c:	10000045 	stb	zero,1(r2)

  sp->x = 0;
  sp->y = 0;
  sp->address = 0;

  for (y = 0 ; y < ALT_LCD_HEIGHT ; y++)
 180d230:	e0bffe17 	ldw	r2,-8(fp)
 180d234:	10800044 	addi	r2,r2,1
 180d238:	e0bffe15 	stw	r2,-8(fp)
 180d23c:	e0bffe17 	ldw	r2,-8(fp)
 180d240:	10800090 	cmplti	r2,r2,2
 180d244:	103fe41e 	bne	r2,zero,180d1d8 <lcd_clear_screen+0x40>
  {
    memset(sp->line[y].data, ' ', sizeof(sp->line[0].data));
    memset(sp->line[y].visible, ' ', sizeof(sp->line[0].visible));
    sp->line[y].width = 0;
  }
}
 180d248:	e037883a 	mov	sp,fp
 180d24c:	dfc00117 	ldw	ra,4(sp)
 180d250:	df000017 	ldw	fp,0(sp)
 180d254:	dec00204 	addi	sp,sp,8
 180d258:	f800283a 	ret

0180d25c <lcd_repaint_screen>:

/* --------------------------------------------------------------------- */

static void lcd_repaint_screen(altera_avalon_lcd_16207_state* sp)
{
 180d25c:	defff704 	addi	sp,sp,-36
 180d260:	dfc00815 	stw	ra,32(sp)
 180d264:	df000715 	stw	fp,28(sp)
 180d268:	df000704 	addi	fp,sp,28
 180d26c:	e13fff15 	stw	r4,-4(fp)
  /* scrollpos controls how much the lines have scrolled round.  The speed
   * each line scrolls at is controlled by its speed variable - while
   * scrolline lines will wrap at the position set by width
   */

  int scrollpos = sp->scrollpos;
 180d270:	e0bfff17 	ldw	r2,-4(fp)
 180d274:	10800943 	ldbu	r2,37(r2)
 180d278:	10803fcc 	andi	r2,r2,255
 180d27c:	1080201c 	xori	r2,r2,128
 180d280:	10bfe004 	addi	r2,r2,-128
 180d284:	e0bffc15 	stw	r2,-16(fp)

  for (y = 0 ; y < ALT_LCD_HEIGHT ; y++)
 180d288:	e03ffe15 	stw	zero,-8(fp)
 180d28c:	00006606 	br	180d428 <lcd_repaint_screen+0x1cc>
  {
    int width  = sp->line[y].width;
 180d290:	e0bffe17 	ldw	r2,-8(fp)
 180d294:	e0ffff17 	ldw	r3,-4(fp)
 180d298:	108018e4 	muli	r2,r2,99
 180d29c:	10c5883a 	add	r2,r2,r3
 180d2a0:	10802404 	addi	r2,r2,144
 180d2a4:	10800043 	ldbu	r2,1(r2)
 180d2a8:	10803fcc 	andi	r2,r2,255
 180d2ac:	1080201c 	xori	r2,r2,128
 180d2b0:	10bfe004 	addi	r2,r2,-128
 180d2b4:	e0bffb15 	stw	r2,-20(fp)
    int offset = (scrollpos * sp->line[y].speed) >> 8;
 180d2b8:	e0bffe17 	ldw	r2,-8(fp)
 180d2bc:	e0ffff17 	ldw	r3,-4(fp)
 180d2c0:	108018e4 	muli	r2,r2,99
 180d2c4:	10c5883a 	add	r2,r2,r3
 180d2c8:	10802404 	addi	r2,r2,144
 180d2cc:	10800083 	ldbu	r2,2(r2)
 180d2d0:	10c03fcc 	andi	r3,r2,255
 180d2d4:	e0bffc17 	ldw	r2,-16(fp)
 180d2d8:	1885383a 	mul	r2,r3,r2
 180d2dc:	1005d23a 	srai	r2,r2,8
 180d2e0:	e0bffa15 	stw	r2,-24(fp)
    if (offset >= width)
 180d2e4:	e0fffa17 	ldw	r3,-24(fp)
 180d2e8:	e0bffb17 	ldw	r2,-20(fp)
 180d2ec:	18800116 	blt	r3,r2,180d2f4 <lcd_repaint_screen+0x98>
      offset = 0;
 180d2f0:	e03ffa15 	stw	zero,-24(fp)

    for (x = 0 ; x < ALT_LCD_WIDTH ; x++)
 180d2f4:	e03ffd15 	stw	zero,-12(fp)
 180d2f8:	00004506 	br	180d410 <lcd_repaint_screen+0x1b4>
    {
      char c = sp->line[y].data[(x + offset) % width];
 180d2fc:	e17ffe17 	ldw	r5,-8(fp)
 180d300:	e0fffd17 	ldw	r3,-12(fp)
 180d304:	e0bffa17 	ldw	r2,-24(fp)
 180d308:	1889883a 	add	r4,r3,r2
 180d30c:	e0bffb17 	ldw	r2,-20(fp)
 180d310:	2087283a 	div	r3,r4,r2
 180d314:	e0bffb17 	ldw	r2,-20(fp)
 180d318:	1885383a 	mul	r2,r3,r2
 180d31c:	2089c83a 	sub	r4,r4,r2
 180d320:	e0ffff17 	ldw	r3,-4(fp)
 180d324:	288018e4 	muli	r2,r5,99
 180d328:	10c5883a 	add	r2,r2,r3
 180d32c:	1105883a 	add	r2,r2,r4
 180d330:	10801004 	addi	r2,r2,64
 180d334:	10800003 	ldbu	r2,0(r2)
 180d338:	e0bff945 	stb	r2,-27(fp)

      /* Writing data takes 40us, so don't do it unless required */
      if (sp->line[y].visible[x] != c)
 180d33c:	e0bffe17 	ldw	r2,-8(fp)
 180d340:	e13ffd17 	ldw	r4,-12(fp)
 180d344:	e0ffff17 	ldw	r3,-4(fp)
 180d348:	108018e4 	muli	r2,r2,99
 180d34c:	10c5883a 	add	r2,r2,r3
 180d350:	1105883a 	add	r2,r2,r4
 180d354:	10800c04 	addi	r2,r2,48
 180d358:	10800003 	ldbu	r2,0(r2)
 180d35c:	10c03fcc 	andi	r3,r2,255
 180d360:	18c0201c 	xori	r3,r3,128
 180d364:	18ffe004 	addi	r3,r3,-128
 180d368:	e0bff947 	ldb	r2,-27(fp)
 180d36c:	18802526 	beq	r3,r2,180d404 <lcd_repaint_screen+0x1a8>
      {
        unsigned char address = x + colstart[y];
 180d370:	e0fffe17 	ldw	r3,-8(fp)
 180d374:	d0a00d04 	addi	r2,gp,-32716
 180d378:	1885883a 	add	r2,r3,r2
 180d37c:	10800003 	ldbu	r2,0(r2)
 180d380:	1007883a 	mov	r3,r2
 180d384:	e0bffd17 	ldw	r2,-12(fp)
 180d388:	1885883a 	add	r2,r3,r2
 180d38c:	e0bff905 	stb	r2,-28(fp)

        if (address != sp->address)
 180d390:	e0fff903 	ldbu	r3,-28(fp)
 180d394:	e0bfff17 	ldw	r2,-4(fp)
 180d398:	108008c3 	ldbu	r2,35(r2)
 180d39c:	10803fcc 	andi	r2,r2,255
 180d3a0:	1080201c 	xori	r2,r2,128
 180d3a4:	10bfe004 	addi	r2,r2,-128
 180d3a8:	18800926 	beq	r3,r2,180d3d0 <lcd_repaint_screen+0x174>
        {
          lcd_write_command(sp, LCD_CMD_WRITE_DATA | address);
 180d3ac:	e0fff903 	ldbu	r3,-28(fp)
 180d3b0:	00bfe004 	movi	r2,-128
 180d3b4:	1884b03a 	or	r2,r3,r2
 180d3b8:	11403fcc 	andi	r5,r2,255
 180d3bc:	e13fff17 	ldw	r4,-4(fp)
 180d3c0:	180d00c0 	call	180d00c <lcd_write_command>
          sp->address = address;
 180d3c4:	e0fff903 	ldbu	r3,-28(fp)
 180d3c8:	e0bfff17 	ldw	r2,-4(fp)
 180d3cc:	10c008c5 	stb	r3,35(r2)
        }

        lcd_write_data(sp, c);
 180d3d0:	e0bff943 	ldbu	r2,-27(fp)
 180d3d4:	11403fcc 	andi	r5,r2,255
 180d3d8:	e13fff17 	ldw	r4,-4(fp)
 180d3dc:	180d0c40 	call	180d0c4 <lcd_write_data>
        sp->line[y].visible[x] = c;
 180d3e0:	e0bffe17 	ldw	r2,-8(fp)
 180d3e4:	e13ffd17 	ldw	r4,-12(fp)
 180d3e8:	e0ffff17 	ldw	r3,-4(fp)
 180d3ec:	108018e4 	muli	r2,r2,99
 180d3f0:	10c5883a 	add	r2,r2,r3
 180d3f4:	1105883a 	add	r2,r2,r4
 180d3f8:	10c00c04 	addi	r3,r2,48
 180d3fc:	e0bff943 	ldbu	r2,-27(fp)
 180d400:	18800005 	stb	r2,0(r3)
    int width  = sp->line[y].width;
    int offset = (scrollpos * sp->line[y].speed) >> 8;
    if (offset >= width)
      offset = 0;

    for (x = 0 ; x < ALT_LCD_WIDTH ; x++)
 180d404:	e0bffd17 	ldw	r2,-12(fp)
 180d408:	10800044 	addi	r2,r2,1
 180d40c:	e0bffd15 	stw	r2,-12(fp)
 180d410:	e0bffd17 	ldw	r2,-12(fp)
 180d414:	10800410 	cmplti	r2,r2,16
 180d418:	103fb81e 	bne	r2,zero,180d2fc <lcd_repaint_screen+0xa0>
   * scrolline lines will wrap at the position set by width
   */

  int scrollpos = sp->scrollpos;

  for (y = 0 ; y < ALT_LCD_HEIGHT ; y++)
 180d41c:	e0bffe17 	ldw	r2,-8(fp)
 180d420:	10800044 	addi	r2,r2,1
 180d424:	e0bffe15 	stw	r2,-8(fp)
 180d428:	e0bffe17 	ldw	r2,-8(fp)
 180d42c:	10800090 	cmplti	r2,r2,2
 180d430:	103f971e 	bne	r2,zero,180d290 <lcd_repaint_screen+0x34>
        lcd_write_data(sp, c);
        sp->line[y].visible[x] = c;
      }
    }
  }
}
 180d434:	e037883a 	mov	sp,fp
 180d438:	dfc00117 	ldw	ra,4(sp)
 180d43c:	df000017 	ldw	fp,0(sp)
 180d440:	dec00204 	addi	sp,sp,8
 180d444:	f800283a 	ret

0180d448 <lcd_scroll_up>:

/* --------------------------------------------------------------------- */

static void lcd_scroll_up(altera_avalon_lcd_16207_state* sp)
{
 180d448:	defffc04 	addi	sp,sp,-16
 180d44c:	dfc00315 	stw	ra,12(sp)
 180d450:	df000215 	stw	fp,8(sp)
 180d454:	df000204 	addi	fp,sp,8
 180d458:	e13fff15 	stw	r4,-4(fp)
  int y;

  for (y = 0 ; y < ALT_LCD_HEIGHT ; y++)
 180d45c:	e03ffe15 	stw	zero,-8(fp)
 180d460:	00001d06 	br	180d4d8 <lcd_scroll_up+0x90>
  {
    if (y < ALT_LCD_HEIGHT-1)
 180d464:	e0bffe17 	ldw	r2,-8(fp)
 180d468:	10800048 	cmpgei	r2,r2,1
 180d46c:	10000f1e 	bne	r2,zero,180d4ac <lcd_scroll_up+0x64>
      memcpy(sp->line[y].data, sp->line[y+1].data, ALT_LCD_VIRTUAL_WIDTH);
 180d470:	e0bffe17 	ldw	r2,-8(fp)
 180d474:	108018e4 	muli	r2,r2,99
 180d478:	10c01004 	addi	r3,r2,64
 180d47c:	e0bfff17 	ldw	r2,-4(fp)
 180d480:	1889883a 	add	r4,r3,r2
 180d484:	e0bffe17 	ldw	r2,-8(fp)
 180d488:	10800044 	addi	r2,r2,1
 180d48c:	108018e4 	muli	r2,r2,99
 180d490:	10c01004 	addi	r3,r2,64
 180d494:	e0bfff17 	ldw	r2,-4(fp)
 180d498:	1885883a 	add	r2,r3,r2
 180d49c:	100b883a 	mov	r5,r2
 180d4a0:	01801404 	movi	r6,80
 180d4a4:	18059680 	call	1805968 <memcpy>
 180d4a8:	00000806 	br	180d4cc <lcd_scroll_up+0x84>
    else
      memset(sp->line[y].data, ' ', ALT_LCD_VIRTUAL_WIDTH);
 180d4ac:	e0bffe17 	ldw	r2,-8(fp)
 180d4b0:	108018e4 	muli	r2,r2,99
 180d4b4:	10c01004 	addi	r3,r2,64
 180d4b8:	e0bfff17 	ldw	r2,-4(fp)
 180d4bc:	1889883a 	add	r4,r3,r2
 180d4c0:	01400804 	movi	r5,32
 180d4c4:	01801404 	movi	r6,80
 180d4c8:	1805ae80 	call	1805ae8 <memset>

static void lcd_scroll_up(altera_avalon_lcd_16207_state* sp)
{
  int y;

  for (y = 0 ; y < ALT_LCD_HEIGHT ; y++)
 180d4cc:	e0bffe17 	ldw	r2,-8(fp)
 180d4d0:	10800044 	addi	r2,r2,1
 180d4d4:	e0bffe15 	stw	r2,-8(fp)
 180d4d8:	e0bffe17 	ldw	r2,-8(fp)
 180d4dc:	10800090 	cmplti	r2,r2,2
 180d4e0:	103fe01e 	bne	r2,zero,180d464 <lcd_scroll_up+0x1c>
      memcpy(sp->line[y].data, sp->line[y+1].data, ALT_LCD_VIRTUAL_WIDTH);
    else
      memset(sp->line[y].data, ' ', ALT_LCD_VIRTUAL_WIDTH);
  }

  sp->y--;
 180d4e4:	e0bfff17 	ldw	r2,-4(fp)
 180d4e8:	10800883 	ldbu	r2,34(r2)
 180d4ec:	10bfffc4 	addi	r2,r2,-1
 180d4f0:	1007883a 	mov	r3,r2
 180d4f4:	e0bfff17 	ldw	r2,-4(fp)
 180d4f8:	10c00885 	stb	r3,34(r2)
}
 180d4fc:	e037883a 	mov	sp,fp
 180d500:	dfc00117 	ldw	ra,4(sp)
 180d504:	df000017 	ldw	fp,0(sp)
 180d508:	dec00204 	addi	sp,sp,8
 180d50c:	f800283a 	ret

0180d510 <lcd_handle_escape>:

/* --------------------------------------------------------------------- */

static void lcd_handle_escape(altera_avalon_lcd_16207_state* sp, char c)
{
 180d510:	defff804 	addi	sp,sp,-32
 180d514:	dfc00715 	stw	ra,28(sp)
 180d518:	df000615 	stw	fp,24(sp)
 180d51c:	df000604 	addi	fp,sp,24
 180d520:	e13ffd15 	stw	r4,-12(fp)
 180d524:	e17ffe05 	stb	r5,-8(fp)
  int parm1 = 0, parm2 = 0;
 180d528:	e03ffc15 	stw	zero,-16(fp)
 180d52c:	e03ffb15 	stw	zero,-20(fp)

  if (sp->escape[0] == '[')
 180d530:	e0bffd17 	ldw	r2,-12(fp)
 180d534:	10800a03 	ldbu	r2,40(r2)
 180d538:	10803fcc 	andi	r2,r2,255
 180d53c:	1080201c 	xori	r2,r2,128
 180d540:	10bfe004 	addi	r2,r2,-128
 180d544:	108016d8 	cmpnei	r2,r2,91
 180d548:	1000491e 	bne	r2,zero,180d670 <lcd_handle_escape+0x160>
  {
    char * ptr = sp->escape+1;
 180d54c:	e0bffd17 	ldw	r2,-12(fp)
 180d550:	10800a04 	addi	r2,r2,40
 180d554:	10800044 	addi	r2,r2,1
 180d558:	e0bffa15 	stw	r2,-24(fp)
    while (isdigit(*ptr))
 180d55c:	00000d06 	br	180d594 <lcd_handle_escape+0x84>
      parm1 = (parm1 * 10) + (*ptr++ - '0');
 180d560:	e0bffc17 	ldw	r2,-16(fp)
 180d564:	10c002a4 	muli	r3,r2,10
 180d568:	e0bffa17 	ldw	r2,-24(fp)
 180d56c:	10800003 	ldbu	r2,0(r2)
 180d570:	10803fcc 	andi	r2,r2,255
 180d574:	1080201c 	xori	r2,r2,128
 180d578:	10bfe004 	addi	r2,r2,-128
 180d57c:	1885883a 	add	r2,r3,r2
 180d580:	10bff404 	addi	r2,r2,-48
 180d584:	e0bffc15 	stw	r2,-16(fp)
 180d588:	e0bffa17 	ldw	r2,-24(fp)
 180d58c:	10800044 	addi	r2,r2,1
 180d590:	e0bffa15 	stw	r2,-24(fp)
  int parm1 = 0, parm2 = 0;

  if (sp->escape[0] == '[')
  {
    char * ptr = sp->escape+1;
    while (isdigit(*ptr))
 180d594:	e0bffa17 	ldw	r2,-24(fp)
 180d598:	10800003 	ldbu	r2,0(r2)
 180d59c:	10803fcc 	andi	r2,r2,255
 180d5a0:	1080201c 	xori	r2,r2,128
 180d5a4:	10bfe004 	addi	r2,r2,-128
 180d5a8:	1007883a 	mov	r3,r2
 180d5ac:	00806074 	movhi	r2,385
 180d5b0:	108af704 	addi	r2,r2,11228
 180d5b4:	10800017 	ldw	r2,0(r2)
 180d5b8:	1885883a 	add	r2,r3,r2
 180d5bc:	10800003 	ldbu	r2,0(r2)
 180d5c0:	10803fcc 	andi	r2,r2,255
 180d5c4:	1080010c 	andi	r2,r2,4
 180d5c8:	1004c03a 	cmpne	r2,r2,zero
 180d5cc:	103fe41e 	bne	r2,zero,180d560 <lcd_handle_escape+0x50>
      parm1 = (parm1 * 10) + (*ptr++ - '0');

    if (*ptr == ';')
 180d5d0:	e0bffa17 	ldw	r2,-24(fp)
 180d5d4:	10800003 	ldbu	r2,0(r2)
 180d5d8:	10803fcc 	andi	r2,r2,255
 180d5dc:	1080201c 	xori	r2,r2,128
 180d5e0:	10bfe004 	addi	r2,r2,-128
 180d5e4:	10800ed8 	cmpnei	r2,r2,59
 180d5e8:	1000231e 	bne	r2,zero,180d678 <lcd_handle_escape+0x168>
    {
      ptr++;
 180d5ec:	e0bffa17 	ldw	r2,-24(fp)
 180d5f0:	10800044 	addi	r2,r2,1
 180d5f4:	e0bffa15 	stw	r2,-24(fp)
      while (isdigit(*ptr))
 180d5f8:	00000d06 	br	180d630 <lcd_handle_escape+0x120>
        parm2 = (parm2 * 10) + (*ptr++ - '0');
 180d5fc:	e0bffb17 	ldw	r2,-20(fp)
 180d600:	10c002a4 	muli	r3,r2,10
 180d604:	e0bffa17 	ldw	r2,-24(fp)
 180d608:	10800003 	ldbu	r2,0(r2)
 180d60c:	10803fcc 	andi	r2,r2,255
 180d610:	1080201c 	xori	r2,r2,128
 180d614:	10bfe004 	addi	r2,r2,-128
 180d618:	1885883a 	add	r2,r3,r2
 180d61c:	10bff404 	addi	r2,r2,-48
 180d620:	e0bffb15 	stw	r2,-20(fp)
 180d624:	e0bffa17 	ldw	r2,-24(fp)
 180d628:	10800044 	addi	r2,r2,1
 180d62c:	e0bffa15 	stw	r2,-24(fp)
      parm1 = (parm1 * 10) + (*ptr++ - '0');

    if (*ptr == ';')
    {
      ptr++;
      while (isdigit(*ptr))
 180d630:	e0bffa17 	ldw	r2,-24(fp)
 180d634:	10800003 	ldbu	r2,0(r2)
 180d638:	10803fcc 	andi	r2,r2,255
 180d63c:	1080201c 	xori	r2,r2,128
 180d640:	10bfe004 	addi	r2,r2,-128
 180d644:	1007883a 	mov	r3,r2
 180d648:	00806074 	movhi	r2,385
 180d64c:	108af704 	addi	r2,r2,11228
 180d650:	10800017 	ldw	r2,0(r2)
 180d654:	1885883a 	add	r2,r3,r2
 180d658:	10800003 	ldbu	r2,0(r2)
 180d65c:	10803fcc 	andi	r2,r2,255
 180d660:	1080010c 	andi	r2,r2,4
 180d664:	1004c03a 	cmpne	r2,r2,zero
 180d668:	103fe41e 	bne	r2,zero,180d5fc <lcd_handle_escape+0xec>
 180d66c:	00000206 	br	180d678 <lcd_handle_escape+0x168>
        parm2 = (parm2 * 10) + (*ptr++ - '0');
    }
  }
  else
    parm1 = -1;
 180d670:	00bfffc4 	movi	r2,-1
 180d674:	e0bffc15 	stw	r2,-16(fp)

  switch (c)
 180d678:	e0bffe07 	ldb	r2,-8(fp)
 180d67c:	e0bfff15 	stw	r2,-4(fp)
 180d680:	e0ffff17 	ldw	r3,-4(fp)
 180d684:	188012a0 	cmpeqi	r2,r3,74
 180d688:	10002f1e 	bne	r2,zero,180d748 <lcd_handle_escape+0x238>
 180d68c:	e0ffff17 	ldw	r3,-4(fp)
 180d690:	188012c8 	cmpgei	r2,r3,75
 180d694:	1000041e 	bne	r2,zero,180d6a8 <lcd_handle_escape+0x198>
 180d698:	e0ffff17 	ldw	r3,-4(fp)
 180d69c:	18801220 	cmpeqi	r2,r3,72
 180d6a0:	1000081e 	bne	r2,zero,180d6c4 <lcd_handle_escape+0x1b4>
 180d6a4:	00004906 	br	180d7cc <lcd_handle_escape+0x2bc>
 180d6a8:	e0ffff17 	ldw	r3,-4(fp)
 180d6ac:	188012e0 	cmpeqi	r2,r3,75
 180d6b0:	10002b1e 	bne	r2,zero,180d760 <lcd_handle_escape+0x250>
 180d6b4:	e0ffff17 	ldw	r3,-4(fp)
 180d6b8:	188019a0 	cmpeqi	r2,r3,102
 180d6bc:	1000011e 	bne	r2,zero,180d6c4 <lcd_handle_escape+0x1b4>
 180d6c0:	00004206 	br	180d7cc <lcd_handle_escape+0x2bc>
  {
  case 'H': /* ESC '[' <y> ';' <x> 'H'  : Move cursor to location */
  case 'f': /* Same as above */
    if (parm2 > 0)
 180d6c4:	e0bffb17 	ldw	r2,-20(fp)
 180d6c8:	10800050 	cmplti	r2,r2,1
 180d6cc:	1000051e 	bne	r2,zero,180d6e4 <lcd_handle_escape+0x1d4>
      sp->x = parm2 - 1;
 180d6d0:	e0bffb17 	ldw	r2,-20(fp)
 180d6d4:	10bfffc4 	addi	r2,r2,-1
 180d6d8:	1007883a 	mov	r3,r2
 180d6dc:	e0bffd17 	ldw	r2,-12(fp)
 180d6e0:	10c00845 	stb	r3,33(r2)
    if (parm1 > 0)
 180d6e4:	e0bffc17 	ldw	r2,-16(fp)
 180d6e8:	10800050 	cmplti	r2,r2,1
 180d6ec:	1000371e 	bne	r2,zero,180d7cc <lcd_handle_escape+0x2bc>
    {
      sp->y = parm1 - 1;
 180d6f0:	e0bffc17 	ldw	r2,-16(fp)
 180d6f4:	10bfffc4 	addi	r2,r2,-1
 180d6f8:	1007883a 	mov	r3,r2
 180d6fc:	e0bffd17 	ldw	r2,-12(fp)
 180d700:	10c00885 	stb	r3,34(r2)
      if (sp->y > ALT_LCD_HEIGHT * 2)
 180d704:	e0bffd17 	ldw	r2,-12(fp)
 180d708:	10800883 	ldbu	r2,34(r2)
 180d70c:	10803fcc 	andi	r2,r2,255
 180d710:	10800170 	cmpltui	r2,r2,5
 180d714:	1000061e 	bne	r2,zero,180d730 <lcd_handle_escape+0x220>
        sp->y = ALT_LCD_HEIGHT * 2;
 180d718:	e0fffd17 	ldw	r3,-12(fp)
 180d71c:	00800104 	movi	r2,4
 180d720:	18800885 	stb	r2,34(r3)
      while (sp->y > ALT_LCD_HEIGHT)
 180d724:	00000206 	br	180d730 <lcd_handle_escape+0x220>
        lcd_scroll_up(sp);
 180d728:	e13ffd17 	ldw	r4,-12(fp)
 180d72c:	180d4480 	call	180d448 <lcd_scroll_up>
    if (parm1 > 0)
    {
      sp->y = parm1 - 1;
      if (sp->y > ALT_LCD_HEIGHT * 2)
        sp->y = ALT_LCD_HEIGHT * 2;
      while (sp->y > ALT_LCD_HEIGHT)
 180d730:	e0bffd17 	ldw	r2,-12(fp)
 180d734:	10800883 	ldbu	r2,34(r2)
 180d738:	10803fcc 	andi	r2,r2,255
 180d73c:	108000e8 	cmpgeui	r2,r2,3
 180d740:	103ff91e 	bne	r2,zero,180d728 <lcd_handle_escape+0x218>
        lcd_scroll_up(sp);
    }
    break;
 180d744:	00002106 	br	180d7cc <lcd_handle_escape+0x2bc>
    /*   ESC J      is clear to beginning of line    [unimplemented]
     *   ESC [ 0 J  is clear to bottom of screen     [unimplemented]
     *   ESC [ 1 J  is clear to beginning of screen  [unimplemented]
     *   ESC [ 2 J  is clear screen
     */
    if (parm1 == 2)
 180d748:	e0bffc17 	ldw	r2,-16(fp)
 180d74c:	10800098 	cmpnei	r2,r2,2
 180d750:	10001e1e 	bne	r2,zero,180d7cc <lcd_handle_escape+0x2bc>
      lcd_clear_screen(sp);
 180d754:	e13ffd17 	ldw	r4,-12(fp)
 180d758:	180d1980 	call	180d198 <lcd_clear_screen>
    break;
 180d75c:	00001b06 	br	180d7cc <lcd_handle_escape+0x2bc>
    /*   ESC K      is clear to end of line
     *   ESC [ 0 K  is clear to end of line
     *   ESC [ 1 K  is clear to beginning of line    [unimplemented]
     *   ESC [ 2 K  is clear line                    [unimplemented]
     */
    if (parm1 < 1)
 180d760:	e0bffc17 	ldw	r2,-16(fp)
 180d764:	10800048 	cmpgei	r2,r2,1
 180d768:	1000181e 	bne	r2,zero,180d7cc <lcd_handle_escape+0x2bc>
    {
      if (sp->x < ALT_LCD_VIRTUAL_WIDTH)
 180d76c:	e0bffd17 	ldw	r2,-12(fp)
 180d770:	10800843 	ldbu	r2,33(r2)
 180d774:	10803fcc 	andi	r2,r2,255
 180d778:	10801428 	cmpgeui	r2,r2,80
 180d77c:	1000131e 	bne	r2,zero,180d7cc <lcd_handle_escape+0x2bc>
        memset(sp->line[sp->y].data + sp->x, ' ', ALT_LCD_VIRTUAL_WIDTH - sp->x);
 180d780:	e0bffd17 	ldw	r2,-12(fp)
 180d784:	10800883 	ldbu	r2,34(r2)
 180d788:	10803fcc 	andi	r2,r2,255
 180d78c:	108018e4 	muli	r2,r2,99
 180d790:	10c01004 	addi	r3,r2,64
 180d794:	e0bffd17 	ldw	r2,-12(fp)
 180d798:	1887883a 	add	r3,r3,r2
 180d79c:	e0bffd17 	ldw	r2,-12(fp)
 180d7a0:	10800843 	ldbu	r2,33(r2)
 180d7a4:	10803fcc 	andi	r2,r2,255
 180d7a8:	1889883a 	add	r4,r3,r2
 180d7ac:	e0bffd17 	ldw	r2,-12(fp)
 180d7b0:	10800843 	ldbu	r2,33(r2)
 180d7b4:	10c03fcc 	andi	r3,r2,255
 180d7b8:	00801404 	movi	r2,80
 180d7bc:	10c5c83a 	sub	r2,r2,r3
 180d7c0:	100d883a 	mov	r6,r2
 180d7c4:	01400804 	movi	r5,32
 180d7c8:	1805ae80 	call	1805ae8 <memset>
    }
    break;
  }
}
 180d7cc:	e037883a 	mov	sp,fp
 180d7d0:	dfc00117 	ldw	ra,4(sp)
 180d7d4:	df000017 	ldw	fp,0(sp)
 180d7d8:	dec00204 	addi	sp,sp,8
 180d7dc:	f800283a 	ret

0180d7e0 <altera_avalon_lcd_16207_write>:

/* --------------------------------------------------------------------- */

int altera_avalon_lcd_16207_write(altera_avalon_lcd_16207_state* sp, 
  const char* ptr, int len, int flags)
{
 180d7e0:	defff304 	addi	sp,sp,-52
 180d7e4:	dfc00c15 	stw	ra,48(sp)
 180d7e8:	df000b15 	stw	fp,44(sp)
 180d7ec:	df000b04 	addi	fp,sp,44
 180d7f0:	e13ffc15 	stw	r4,-16(fp)
 180d7f4:	e17ffd15 	stw	r5,-12(fp)
 180d7f8:	e1bffe15 	stw	r6,-8(fp)
 180d7fc:	e1ffff15 	stw	r7,-4(fp)
  const char* end = ptr + len;
 180d800:	e0bffe17 	ldw	r2,-8(fp)
 180d804:	1007883a 	mov	r3,r2
 180d808:	e0bffd17 	ldw	r2,-12(fp)
 180d80c:	10c5883a 	add	r2,r2,r3
 180d810:	e0bffb15 	stw	r2,-20(fp)

  ALT_SEM_PEND (sp->write_lock, 0);

  /* Tell the routine which is called off the timer interrupt that the
   * foreground routines are active so it must not repaint the display. */
  sp->active = 1;
 180d814:	e0fffc17 	ldw	r3,-16(fp)
 180d818:	00800044 	movi	r2,1
 180d81c:	188009c5 	stb	r2,39(r3)

  for ( ; ptr < end ; ptr++)
 180d820:	0000a206 	br	180daac <altera_avalon_lcd_16207_write+0x2cc>
  {
    char c = *ptr;
 180d824:	e0bffd17 	ldw	r2,-12(fp)
 180d828:	10800003 	ldbu	r2,0(r2)
 180d82c:	e0bff805 	stb	r2,-32(fp)

    if (sp->esccount >= 0)
 180d830:	e0bffc17 	ldw	r2,-16(fp)
 180d834:	10800903 	ldbu	r2,36(r2)
 180d838:	10803fcc 	andi	r2,r2,255
 180d83c:	1080201c 	xori	r2,r2,128
 180d840:	10bfe004 	addi	r2,r2,-128
 180d844:	1004803a 	cmplt	r2,r2,zero
 180d848:	10003b1e 	bne	r2,zero,180d938 <altera_avalon_lcd_16207_write+0x158>
    {
      unsigned int esccount = sp->esccount;
 180d84c:	e0bffc17 	ldw	r2,-16(fp)
 180d850:	10800903 	ldbu	r2,36(r2)
 180d854:	10803fcc 	andi	r2,r2,255
 180d858:	1080201c 	xori	r2,r2,128
 180d85c:	10bfe004 	addi	r2,r2,-128
 180d860:	e0bff715 	stw	r2,-36(fp)

      /* Single character escape sequences can end with any character
       * Multi character escape sequences start with '[' and contain
       * digits and semicolons before terminating
       */
      if ((esccount == 0 && c != '[') ||
 180d864:	e0bff717 	ldw	r2,-36(fp)
 180d868:	1004c03a 	cmpne	r2,r2,zero
 180d86c:	1000031e 	bne	r2,zero,180d87c <altera_avalon_lcd_16207_write+0x9c>
 180d870:	e0bff807 	ldb	r2,-32(fp)
 180d874:	108016d8 	cmpnei	r2,r2,91
 180d878:	1000111e 	bne	r2,zero,180d8c0 <altera_avalon_lcd_16207_write+0xe0>
 180d87c:	e0bff717 	ldw	r2,-36(fp)
 180d880:	1005003a 	cmpeq	r2,r2,zero
 180d884:	10001a1e 	bne	r2,zero,180d8f0 <altera_avalon_lcd_16207_write+0x110>
 180d888:	e0bff807 	ldb	r2,-32(fp)
 180d88c:	1007883a 	mov	r3,r2
 180d890:	00806074 	movhi	r2,385
 180d894:	108af704 	addi	r2,r2,11228
 180d898:	10800017 	ldw	r2,0(r2)
 180d89c:	1885883a 	add	r2,r3,r2
 180d8a0:	10800003 	ldbu	r2,0(r2)
 180d8a4:	10803fcc 	andi	r2,r2,255
 180d8a8:	1080010c 	andi	r2,r2,4
 180d8ac:	1004c03a 	cmpne	r2,r2,zero
 180d8b0:	10000f1e 	bne	r2,zero,180d8f0 <altera_avalon_lcd_16207_write+0x110>
 180d8b4:	e0bff807 	ldb	r2,-32(fp)
 180d8b8:	10800ee0 	cmpeqi	r2,r2,59
 180d8bc:	10000c1e 	bne	r2,zero,180d8f0 <altera_avalon_lcd_16207_write+0x110>
          (esccount > 0 && !isdigit(c) && c != ';'))
      {
        sp->escape[esccount] = 0;
 180d8c0:	e0fff717 	ldw	r3,-36(fp)
 180d8c4:	e0bffc17 	ldw	r2,-16(fp)
 180d8c8:	1885883a 	add	r2,r3,r2
 180d8cc:	10800a04 	addi	r2,r2,40
 180d8d0:	10000005 	stb	zero,0(r2)

        lcd_handle_escape(sp, c);
 180d8d4:	e17ff807 	ldb	r5,-32(fp)
 180d8d8:	e13ffc17 	ldw	r4,-16(fp)
 180d8dc:	180d5100 	call	180d510 <lcd_handle_escape>

        sp->esccount = -1;
 180d8e0:	e0fffc17 	ldw	r3,-16(fp)
 180d8e4:	00bfffc4 	movi	r2,-1
 180d8e8:	18800905 	stb	r2,36(r3)

      /* Single character escape sequences can end with any character
       * Multi character escape sequences start with '[' and contain
       * digits and semicolons before terminating
       */
      if ((esccount == 0 && c != '[') ||
 180d8ec:	00006c06 	br	180daa0 <altera_avalon_lcd_16207_write+0x2c0>

        lcd_handle_escape(sp, c);

        sp->esccount = -1;
      }
      else if (sp->esccount < sizeof(sp->escape)-1)
 180d8f0:	e0bffc17 	ldw	r2,-16(fp)
 180d8f4:	10800903 	ldbu	r2,36(r2)
 180d8f8:	10803fcc 	andi	r2,r2,255
 180d8fc:	108001e8 	cmpgeui	r2,r2,7
 180d900:	1000671e 	bne	r2,zero,180daa0 <altera_avalon_lcd_16207_write+0x2c0>
      {
        sp->escape[esccount] = c;
 180d904:	e0fff717 	ldw	r3,-36(fp)
 180d908:	e0bffc17 	ldw	r2,-16(fp)
 180d90c:	1885883a 	add	r2,r3,r2
 180d910:	10c00a04 	addi	r3,r2,40
 180d914:	e0bff803 	ldbu	r2,-32(fp)
 180d918:	18800005 	stb	r2,0(r3)
        sp->esccount++;
 180d91c:	e0bffc17 	ldw	r2,-16(fp)
 180d920:	10800903 	ldbu	r2,36(r2)
 180d924:	10800044 	addi	r2,r2,1
 180d928:	1007883a 	mov	r3,r2
 180d92c:	e0bffc17 	ldw	r2,-16(fp)
 180d930:	10c00905 	stb	r3,36(r2)
 180d934:	00005a06 	br	180daa0 <altera_avalon_lcd_16207_write+0x2c0>
      }
    }
    else if (c == 27) /* ESC */
 180d938:	e0bff807 	ldb	r2,-32(fp)
 180d93c:	108006d8 	cmpnei	r2,r2,27
 180d940:	1000031e 	bne	r2,zero,180d950 <altera_avalon_lcd_16207_write+0x170>
    {
      sp->esccount = 0;
 180d944:	e0bffc17 	ldw	r2,-16(fp)
 180d948:	10000905 	stb	zero,36(r2)
 180d94c:	00005406 	br	180daa0 <altera_avalon_lcd_16207_write+0x2c0>
    }
    else if (c == '\r')
 180d950:	e0bff807 	ldb	r2,-32(fp)
 180d954:	10800358 	cmpnei	r2,r2,13
 180d958:	1000031e 	bne	r2,zero,180d968 <altera_avalon_lcd_16207_write+0x188>
    {
      sp->x = 0;
 180d95c:	e0bffc17 	ldw	r2,-16(fp)
 180d960:	10000845 	stb	zero,33(r2)
 180d964:	00004e06 	br	180daa0 <altera_avalon_lcd_16207_write+0x2c0>
    }
    else if (c == '\n')
 180d968:	e0bff807 	ldb	r2,-32(fp)
 180d96c:	10800298 	cmpnei	r2,r2,10
 180d970:	1000101e 	bne	r2,zero,180d9b4 <altera_avalon_lcd_16207_write+0x1d4>
    {
      sp->x = 0;
 180d974:	e0bffc17 	ldw	r2,-16(fp)
 180d978:	10000845 	stb	zero,33(r2)
      sp->y++;
 180d97c:	e0bffc17 	ldw	r2,-16(fp)
 180d980:	10800883 	ldbu	r2,34(r2)
 180d984:	10800044 	addi	r2,r2,1
 180d988:	1007883a 	mov	r3,r2
 180d98c:	e0bffc17 	ldw	r2,-16(fp)
 180d990:	10c00885 	stb	r3,34(r2)

      /* Let the cursor sit at X=0, Y=HEIGHT without scrolling so the user
       * can print two lines of data without losing one.
       */
      if (sp->y > ALT_LCD_HEIGHT)
 180d994:	e0bffc17 	ldw	r2,-16(fp)
 180d998:	10800883 	ldbu	r2,34(r2)
 180d99c:	10803fcc 	andi	r2,r2,255
 180d9a0:	108000f0 	cmpltui	r2,r2,3
 180d9a4:	10003e1e 	bne	r2,zero,180daa0 <altera_avalon_lcd_16207_write+0x2c0>
        lcd_scroll_up(sp);
 180d9a8:	e13ffc17 	ldw	r4,-16(fp)
 180d9ac:	180d4480 	call	180d448 <lcd_scroll_up>
 180d9b0:	00003b06 	br	180daa0 <altera_avalon_lcd_16207_write+0x2c0>
    }
    else if (c == '\b')
 180d9b4:	e0bff807 	ldb	r2,-32(fp)
 180d9b8:	10800218 	cmpnei	r2,r2,8
 180d9bc:	10000c1e 	bne	r2,zero,180d9f0 <altera_avalon_lcd_16207_write+0x210>
    {
      if (sp->x > 0)
 180d9c0:	e0bffc17 	ldw	r2,-16(fp)
 180d9c4:	10800843 	ldbu	r2,33(r2)
 180d9c8:	10803fcc 	andi	r2,r2,255
 180d9cc:	1005003a 	cmpeq	r2,r2,zero
 180d9d0:	1000331e 	bne	r2,zero,180daa0 <altera_avalon_lcd_16207_write+0x2c0>
        sp->x--;
 180d9d4:	e0bffc17 	ldw	r2,-16(fp)
 180d9d8:	10800843 	ldbu	r2,33(r2)
 180d9dc:	10bfffc4 	addi	r2,r2,-1
 180d9e0:	1007883a 	mov	r3,r2
 180d9e4:	e0bffc17 	ldw	r2,-16(fp)
 180d9e8:	10c00845 	stb	r3,33(r2)
 180d9ec:	00002c06 	br	180daa0 <altera_avalon_lcd_16207_write+0x2c0>
    }
    else if (isprint(c))
 180d9f0:	e0bff807 	ldb	r2,-32(fp)
 180d9f4:	1007883a 	mov	r3,r2
 180d9f8:	00806074 	movhi	r2,385
 180d9fc:	108af704 	addi	r2,r2,11228
 180da00:	10800017 	ldw	r2,0(r2)
 180da04:	1885883a 	add	r2,r3,r2
 180da08:	10800003 	ldbu	r2,0(r2)
 180da0c:	10803fcc 	andi	r2,r2,255
 180da10:	1080201c 	xori	r2,r2,128
 180da14:	10bfe004 	addi	r2,r2,-128
 180da18:	108025cc 	andi	r2,r2,151
 180da1c:	1005003a 	cmpeq	r2,r2,zero
 180da20:	10001f1e 	bne	r2,zero,180daa0 <altera_avalon_lcd_16207_write+0x2c0>
    {
      /* If we didn't scroll on the last linefeed then we might need to do
       * it now. */
      if (sp->y >= ALT_LCD_HEIGHT)
 180da24:	e0bffc17 	ldw	r2,-16(fp)
 180da28:	10800883 	ldbu	r2,34(r2)
 180da2c:	10803fcc 	andi	r2,r2,255
 180da30:	108000b0 	cmpltui	r2,r2,2
 180da34:	1000021e 	bne	r2,zero,180da40 <altera_avalon_lcd_16207_write+0x260>
        lcd_scroll_up(sp);
 180da38:	e13ffc17 	ldw	r4,-16(fp)
 180da3c:	180d4480 	call	180d448 <lcd_scroll_up>

      if (sp->x < ALT_LCD_VIRTUAL_WIDTH)
 180da40:	e0bffc17 	ldw	r2,-16(fp)
 180da44:	10800843 	ldbu	r2,33(r2)
 180da48:	10803fcc 	andi	r2,r2,255
 180da4c:	10801428 	cmpgeui	r2,r2,80
 180da50:	10000d1e 	bne	r2,zero,180da88 <altera_avalon_lcd_16207_write+0x2a8>
        sp->line[sp->y].data[sp->x] = c;
 180da54:	e0bffc17 	ldw	r2,-16(fp)
 180da58:	10800883 	ldbu	r2,34(r2)
 180da5c:	11003fcc 	andi	r4,r2,255
 180da60:	e0bffc17 	ldw	r2,-16(fp)
 180da64:	10800843 	ldbu	r2,33(r2)
 180da68:	11403fcc 	andi	r5,r2,255
 180da6c:	e0fffc17 	ldw	r3,-16(fp)
 180da70:	208018e4 	muli	r2,r4,99
 180da74:	10c5883a 	add	r2,r2,r3
 180da78:	1145883a 	add	r2,r2,r5
 180da7c:	10c01004 	addi	r3,r2,64
 180da80:	e0bff803 	ldbu	r2,-32(fp)
 180da84:	18800005 	stb	r2,0(r3)

      sp->x++;
 180da88:	e0bffc17 	ldw	r2,-16(fp)
 180da8c:	10800843 	ldbu	r2,33(r2)
 180da90:	10800044 	addi	r2,r2,1
 180da94:	1007883a 	mov	r3,r2
 180da98:	e0bffc17 	ldw	r2,-16(fp)
 180da9c:	10c00845 	stb	r3,33(r2)

  /* Tell the routine which is called off the timer interrupt that the
   * foreground routines are active so it must not repaint the display. */
  sp->active = 1;

  for ( ; ptr < end ; ptr++)
 180daa0:	e0bffd17 	ldw	r2,-12(fp)
 180daa4:	10800044 	addi	r2,r2,1
 180daa8:	e0bffd15 	stw	r2,-12(fp)
 180daac:	e0fffd17 	ldw	r3,-12(fp)
 180dab0:	e0bffb17 	ldw	r2,-20(fp)
 180dab4:	18bf5b36 	bltu	r3,r2,180d824 <altera_avalon_lcd_16207_write+0x44>
      sp->x++;
    }
  }

  /* Recalculate the scrolling parameters */
  widthmax = ALT_LCD_WIDTH;
 180dab8:	00800404 	movi	r2,16
 180dabc:	e0bff915 	stw	r2,-28(fp)
  for (y = 0 ; y < ALT_LCD_HEIGHT ; y++)
 180dac0:	e03ffa15 	stw	zero,-24(fp)
 180dac4:	00003606 	br	180dba0 <altera_avalon_lcd_16207_write+0x3c0>
  {
    int width;
    for (width = ALT_LCD_VIRTUAL_WIDTH ; width > 0 ; width--)
 180dac8:	00801404 	movi	r2,80
 180dacc:	e0bff615 	stw	r2,-40(fp)
 180dad0:	00001106 	br	180db18 <altera_avalon_lcd_16207_write+0x338>
      if (sp->line[y].data[width-1] != ' ')
 180dad4:	e13ffa17 	ldw	r4,-24(fp)
 180dad8:	e0bff617 	ldw	r2,-40(fp)
 180dadc:	117fffc4 	addi	r5,r2,-1
 180dae0:	e0fffc17 	ldw	r3,-16(fp)
 180dae4:	208018e4 	muli	r2,r4,99
 180dae8:	10c5883a 	add	r2,r2,r3
 180daec:	1145883a 	add	r2,r2,r5
 180daf0:	10801004 	addi	r2,r2,64
 180daf4:	10800003 	ldbu	r2,0(r2)
 180daf8:	10803fcc 	andi	r2,r2,255
 180dafc:	1080201c 	xori	r2,r2,128
 180db00:	10bfe004 	addi	r2,r2,-128
 180db04:	10800818 	cmpnei	r2,r2,32
 180db08:	1000061e 	bne	r2,zero,180db24 <altera_avalon_lcd_16207_write+0x344>
  /* Recalculate the scrolling parameters */
  widthmax = ALT_LCD_WIDTH;
  for (y = 0 ; y < ALT_LCD_HEIGHT ; y++)
  {
    int width;
    for (width = ALT_LCD_VIRTUAL_WIDTH ; width > 0 ; width--)
 180db0c:	e0bff617 	ldw	r2,-40(fp)
 180db10:	10bfffc4 	addi	r2,r2,-1
 180db14:	e0bff615 	stw	r2,-40(fp)
 180db18:	e0bff617 	ldw	r2,-40(fp)
 180db1c:	10800048 	cmpgei	r2,r2,1
 180db20:	103fec1e 	bne	r2,zero,180dad4 <altera_avalon_lcd_16207_write+0x2f4>

    /* The minimum width is the size of the LCD panel.  If the real width
     * is long enough to require scrolling then add an extra space so the
     * end of the message doesn't run into the beginning of it.
     */
    if (width <= ALT_LCD_WIDTH)
 180db24:	e0bff617 	ldw	r2,-40(fp)
 180db28:	10800448 	cmpgei	r2,r2,17
 180db2c:	1000031e 	bne	r2,zero,180db3c <altera_avalon_lcd_16207_write+0x35c>
      width = ALT_LCD_WIDTH;
 180db30:	00800404 	movi	r2,16
 180db34:	e0bff615 	stw	r2,-40(fp)
 180db38:	00000306 	br	180db48 <altera_avalon_lcd_16207_write+0x368>
    else
      width++;
 180db3c:	e0bff617 	ldw	r2,-40(fp)
 180db40:	10800044 	addi	r2,r2,1
 180db44:	e0bff615 	stw	r2,-40(fp)

    sp->line[y].width = width;
 180db48:	e13ffa17 	ldw	r4,-24(fp)
 180db4c:	e0bff617 	ldw	r2,-40(fp)
 180db50:	100b883a 	mov	r5,r2
 180db54:	e0fffc17 	ldw	r3,-16(fp)
 180db58:	208018e4 	muli	r2,r4,99
 180db5c:	10c5883a 	add	r2,r2,r3
 180db60:	10802404 	addi	r2,r2,144
 180db64:	11400045 	stb	r5,1(r2)
    if (widthmax < width)
 180db68:	e0fff917 	ldw	r3,-28(fp)
 180db6c:	e0bff617 	ldw	r2,-40(fp)
 180db70:	1880020e 	bge	r3,r2,180db7c <altera_avalon_lcd_16207_write+0x39c>
      widthmax = width;
 180db74:	e0bff617 	ldw	r2,-40(fp)
 180db78:	e0bff915 	stw	r2,-28(fp)
    sp->line[y].speed = 0; /* By default lines don't scroll */
 180db7c:	e0bffa17 	ldw	r2,-24(fp)
 180db80:	e0fffc17 	ldw	r3,-16(fp)
 180db84:	108018e4 	muli	r2,r2,99
 180db88:	10c5883a 	add	r2,r2,r3
 180db8c:	10802404 	addi	r2,r2,144
 180db90:	10000085 	stb	zero,2(r2)
    }
  }

  /* Recalculate the scrolling parameters */
  widthmax = ALT_LCD_WIDTH;
  for (y = 0 ; y < ALT_LCD_HEIGHT ; y++)
 180db94:	e0bffa17 	ldw	r2,-24(fp)
 180db98:	10800044 	addi	r2,r2,1
 180db9c:	e0bffa15 	stw	r2,-24(fp)
 180dba0:	e0bffa17 	ldw	r2,-24(fp)
 180dba4:	10800090 	cmplti	r2,r2,2
 180dba8:	103fc71e 	bne	r2,zero,180dac8 <altera_avalon_lcd_16207_write+0x2e8>
    if (widthmax < width)
      widthmax = width;
    sp->line[y].speed = 0; /* By default lines don't scroll */
  }

  if (widthmax <= ALT_LCD_WIDTH)
 180dbac:	e0bff917 	ldw	r2,-28(fp)
 180dbb0:	10800448 	cmpgei	r2,r2,17
 180dbb4:	1000031e 	bne	r2,zero,180dbc4 <altera_avalon_lcd_16207_write+0x3e4>
    sp->scrollmax = 0;
 180dbb8:	e0bffc17 	ldw	r2,-16(fp)
 180dbbc:	10000985 	stb	zero,38(r2)
 180dbc0:	00002d06 	br	180dc78 <altera_avalon_lcd_16207_write+0x498>
  else
  {
    widthmax *= 2;
 180dbc4:	e0bff917 	ldw	r2,-28(fp)
 180dbc8:	1085883a 	add	r2,r2,r2
 180dbcc:	e0bff915 	stw	r2,-28(fp)
    sp->scrollmax = widthmax;
 180dbd0:	e0bff917 	ldw	r2,-28(fp)
 180dbd4:	1007883a 	mov	r3,r2
 180dbd8:	e0bffc17 	ldw	r2,-16(fp)
 180dbdc:	10c00985 	stb	r3,38(r2)

    /* Now calculate how fast each of the other lines should go */
    for (y = 0 ; y < ALT_LCD_HEIGHT ; y++)
 180dbe0:	e03ffa15 	stw	zero,-24(fp)
 180dbe4:	00002106 	br	180dc6c <altera_avalon_lcd_16207_write+0x48c>
      if (sp->line[y].width > ALT_LCD_WIDTH)
 180dbe8:	e0bffa17 	ldw	r2,-24(fp)
 180dbec:	e0fffc17 	ldw	r3,-16(fp)
 180dbf0:	108018e4 	muli	r2,r2,99
 180dbf4:	10c5883a 	add	r2,r2,r3
 180dbf8:	10802404 	addi	r2,r2,144
 180dbfc:	10800043 	ldbu	r2,1(r2)
 180dc00:	10803fcc 	andi	r2,r2,255
 180dc04:	1080201c 	xori	r2,r2,128
 180dc08:	10bfe004 	addi	r2,r2,-128
 180dc0c:	10800450 	cmplti	r2,r2,17
 180dc10:	1000131e 	bne	r2,zero,180dc60 <altera_avalon_lcd_16207_write+0x480>
         */
#if 1
        /* This option makes all the lines scroll round at different speeds
         * which are chosen so that all the scrolls finish at the same time.
         */
        sp->line[y].speed = 256 * sp->line[y].width / widthmax;
 180dc14:	e17ffa17 	ldw	r5,-24(fp)
 180dc18:	e0bffa17 	ldw	r2,-24(fp)
 180dc1c:	e0fffc17 	ldw	r3,-16(fp)
 180dc20:	108018e4 	muli	r2,r2,99
 180dc24:	10c5883a 	add	r2,r2,r3
 180dc28:	10802404 	addi	r2,r2,144
 180dc2c:	10800043 	ldbu	r2,1(r2)
 180dc30:	10803fcc 	andi	r2,r2,255
 180dc34:	1080201c 	xori	r2,r2,128
 180dc38:	10bfe004 	addi	r2,r2,-128
 180dc3c:	1006923a 	slli	r3,r2,8
 180dc40:	e0bff917 	ldw	r2,-28(fp)
 180dc44:	1885283a 	div	r2,r3,r2
 180dc48:	1009883a 	mov	r4,r2
 180dc4c:	e0fffc17 	ldw	r3,-16(fp)
 180dc50:	288018e4 	muli	r2,r5,99
 180dc54:	10c5883a 	add	r2,r2,r3
 180dc58:	10802404 	addi	r2,r2,144
 180dc5c:	11000085 	stb	r4,2(r2)
  {
    widthmax *= 2;
    sp->scrollmax = widthmax;

    /* Now calculate how fast each of the other lines should go */
    for (y = 0 ; y < ALT_LCD_HEIGHT ; y++)
 180dc60:	e0bffa17 	ldw	r2,-24(fp)
 180dc64:	10800044 	addi	r2,r2,1
 180dc68:	e0bffa15 	stw	r2,-24(fp)
 180dc6c:	e0bffa17 	ldw	r2,-24(fp)
 180dc70:	10800090 	cmplti	r2,r2,2
 180dc74:	103fdc1e 	bne	r2,zero,180dbe8 <altera_avalon_lcd_16207_write+0x408>
   * (because active was set when the timer interrupt occurred).  If there
   * has been a missed repaint then paint again.  And again.  etc.
   */
  for ( ; ; )
  {
    int old_scrollpos = sp->scrollpos;
 180dc78:	e0bffc17 	ldw	r2,-16(fp)
 180dc7c:	10800943 	ldbu	r2,37(r2)
 180dc80:	10803fcc 	andi	r2,r2,255
 180dc84:	1080201c 	xori	r2,r2,128
 180dc88:	10bfe004 	addi	r2,r2,-128
 180dc8c:	e0bff515 	stw	r2,-44(fp)

    lcd_repaint_screen(sp);
 180dc90:	e13ffc17 	ldw	r4,-16(fp)
 180dc94:	180d25c0 	call	180d25c <lcd_repaint_screen>

    /* Let the timer routines repaint the display again */
    sp->active = 0;
 180dc98:	e0bffc17 	ldw	r2,-16(fp)
 180dc9c:	100009c5 	stb	zero,39(r2)

    /* Have the timer routines tried to scroll while we were painting?
     * If not then we can exit */
    if (sp->scrollpos == old_scrollpos)
 180dca0:	e0bffc17 	ldw	r2,-16(fp)
 180dca4:	10800943 	ldbu	r2,37(r2)
 180dca8:	10c03fcc 	andi	r3,r2,255
 180dcac:	18c0201c 	xori	r3,r3,128
 180dcb0:	18ffe004 	addi	r3,r3,-128
 180dcb4:	e0bff517 	ldw	r2,-44(fp)
 180dcb8:	18800426 	beq	r3,r2,180dccc <altera_avalon_lcd_16207_write+0x4ec>
      break;

    /* We need to repaint again since the display scrolled while we were
     * painting last time */
    sp->active = 1;
 180dcbc:	e0fffc17 	ldw	r3,-16(fp)
 180dcc0:	00800044 	movi	r2,1
 180dcc4:	188009c5 	stb	r2,39(r3)
  }
 180dcc8:	003feb06 	br	180dc78 <altera_avalon_lcd_16207_write+0x498>
   * semaphore so that other threads can access the buffer.
   */

  ALT_SEM_POST (sp->write_lock);

  return len;
 180dccc:	e0bffe17 	ldw	r2,-8(fp)
}
 180dcd0:	e037883a 	mov	sp,fp
 180dcd4:	dfc00117 	ldw	ra,4(sp)
 180dcd8:	df000017 	ldw	fp,0(sp)
 180dcdc:	dec00204 	addi	sp,sp,8
 180dce0:	f800283a 	ret

0180dce4 <alt_lcd_16207_timeout>:
/*
 * Timeout routine is called every second
 */

static alt_u32 alt_lcd_16207_timeout(void* context) 
{
 180dce4:	defffc04 	addi	sp,sp,-16
 180dce8:	dfc00315 	stw	ra,12(sp)
 180dcec:	df000215 	stw	fp,8(sp)
 180dcf0:	df000204 	addi	fp,sp,8
 180dcf4:	e13fff15 	stw	r4,-4(fp)
  altera_avalon_lcd_16207_state* sp = (altera_avalon_lcd_16207_state*)context;
 180dcf8:	e0bfff17 	ldw	r2,-4(fp)
 180dcfc:	e0bffe15 	stw	r2,-8(fp)

  /* Update the scrolling position */
  if (sp->scrollpos + 1 >= sp->scrollmax)
 180dd00:	e0bffe17 	ldw	r2,-8(fp)
 180dd04:	10800943 	ldbu	r2,37(r2)
 180dd08:	10803fcc 	andi	r2,r2,255
 180dd0c:	1080201c 	xori	r2,r2,128
 180dd10:	10bfe004 	addi	r2,r2,-128
 180dd14:	10c00044 	addi	r3,r2,1
 180dd18:	e0bffe17 	ldw	r2,-8(fp)
 180dd1c:	10800983 	ldbu	r2,38(r2)
 180dd20:	10803fcc 	andi	r2,r2,255
 180dd24:	1080201c 	xori	r2,r2,128
 180dd28:	10bfe004 	addi	r2,r2,-128
 180dd2c:	18800316 	blt	r3,r2,180dd3c <alt_lcd_16207_timeout+0x58>
    sp->scrollpos = 0;
 180dd30:	e0bffe17 	ldw	r2,-8(fp)
 180dd34:	10000945 	stb	zero,37(r2)
 180dd38:	00000606 	br	180dd54 <alt_lcd_16207_timeout+0x70>
  else
    sp->scrollpos = sp->scrollpos + 1;
 180dd3c:	e0bffe17 	ldw	r2,-8(fp)
 180dd40:	10800943 	ldbu	r2,37(r2)
 180dd44:	10800044 	addi	r2,r2,1
 180dd48:	1007883a 	mov	r3,r2
 180dd4c:	e0bffe17 	ldw	r2,-8(fp)
 180dd50:	10c00945 	stb	r3,37(r2)

  /* Repaint the panel unless the foreground will do it again soon */
  if (sp->scrollmax > 0 && !sp->active)
 180dd54:	e0bffe17 	ldw	r2,-8(fp)
 180dd58:	10800983 	ldbu	r2,38(r2)
 180dd5c:	10803fcc 	andi	r2,r2,255
 180dd60:	1080201c 	xori	r2,r2,128
 180dd64:	10bfe004 	addi	r2,r2,-128
 180dd68:	10800050 	cmplti	r2,r2,1
 180dd6c:	1000091e 	bne	r2,zero,180dd94 <alt_lcd_16207_timeout+0xb0>
 180dd70:	e0bffe17 	ldw	r2,-8(fp)
 180dd74:	108009c3 	ldbu	r2,39(r2)
 180dd78:	10803fcc 	andi	r2,r2,255
 180dd7c:	1080201c 	xori	r2,r2,128
 180dd80:	10bfe004 	addi	r2,r2,-128
 180dd84:	1004c03a 	cmpne	r2,r2,zero
 180dd88:	1000021e 	bne	r2,zero,180dd94 <alt_lcd_16207_timeout+0xb0>
    lcd_repaint_screen(sp);
 180dd8c:	e13ffe17 	ldw	r4,-8(fp)
 180dd90:	180d25c0 	call	180d25c <lcd_repaint_screen>

  return sp->period;
 180dd94:	e0bffe17 	ldw	r2,-8(fp)
 180dd98:	10800717 	ldw	r2,28(r2)
}
 180dd9c:	e037883a 	mov	sp,fp
 180dda0:	dfc00117 	ldw	ra,4(sp)
 180dda4:	df000017 	ldw	fp,0(sp)
 180dda8:	dec00204 	addi	sp,sp,8
 180ddac:	f800283a 	ret

0180ddb0 <altera_avalon_lcd_16207_init>:

/*
 * Called at boot time to initialise the LCD driver
 */
void altera_avalon_lcd_16207_init(altera_avalon_lcd_16207_state* sp)
{
 180ddb0:	defffc04 	addi	sp,sp,-16
 180ddb4:	dfc00315 	stw	ra,12(sp)
 180ddb8:	df000215 	stw	fp,8(sp)
 180ddbc:	df000204 	addi	fp,sp,8
 180ddc0:	e13fff15 	stw	r4,-4(fp)
  unsigned int base = sp->base;
 180ddc4:	e0bfff17 	ldw	r2,-4(fp)
 180ddc8:	10800017 	ldw	r2,0(r2)
 180ddcc:	e0bffe15 	stw	r2,-8(fp)

  /* Mark the device as functional */
  sp->broken = 0;
 180ddd0:	e0bfff17 	ldw	r2,-4(fp)
 180ddd4:	10000805 	stb	zero,32(r2)
   * the BUSY bit in the status register doesn't work until the display
   * has been reset three times.
   */

  /* Wait for 15 ms then reset */
  usleep(15000);
 180ddd8:	010ea604 	movi	r4,15000
 180dddc:	180a5880 	call	180a588 <usleep>
  IOWR_ALTERA_AVALON_LCD_16207_COMMAND(base, LCD_CMD_FUNCTION_SET | LCD_CMD_8BIT);
 180dde0:	e0bffe17 	ldw	r2,-8(fp)
 180dde4:	1007883a 	mov	r3,r2
 180dde8:	00800c04 	movi	r2,48
 180ddec:	18800035 	stwio	r2,0(r3)

  /* Wait for another 4.1ms and reset again */
  usleep(4100);  
 180ddf0:	01040104 	movi	r4,4100
 180ddf4:	180a5880 	call	180a588 <usleep>
  IOWR_ALTERA_AVALON_LCD_16207_COMMAND(base, LCD_CMD_FUNCTION_SET | LCD_CMD_8BIT);
 180ddf8:	e0bffe17 	ldw	r2,-8(fp)
 180ddfc:	1007883a 	mov	r3,r2
 180de00:	00800c04 	movi	r2,48
 180de04:	18800035 	stwio	r2,0(r3)

  /* Wait a further 1 ms and reset a third time */
  usleep(1000);
 180de08:	0100fa04 	movi	r4,1000
 180de0c:	180a5880 	call	180a588 <usleep>
  IOWR_ALTERA_AVALON_LCD_16207_COMMAND(base, LCD_CMD_FUNCTION_SET | LCD_CMD_8BIT);
 180de10:	e0bffe17 	ldw	r2,-8(fp)
 180de14:	1007883a 	mov	r3,r2
 180de18:	00800c04 	movi	r2,48
 180de1c:	18800035 	stwio	r2,0(r3)

  /* Setup interface parameters: 8 bit bus, 2 rows, 5x7 font */
  lcd_write_command(sp, LCD_CMD_FUNCTION_SET | LCD_CMD_8BIT | LCD_CMD_TWO_LINE);
 180de20:	e13fff17 	ldw	r4,-4(fp)
 180de24:	01400e04 	movi	r5,56
 180de28:	180d00c0 	call	180d00c <lcd_write_command>
  
  /* Turn display off */
  lcd_write_command(sp, LCD_CMD_ONOFF);
 180de2c:	e13fff17 	ldw	r4,-4(fp)
 180de30:	01400204 	movi	r5,8
 180de34:	180d00c0 	call	180d00c <lcd_write_command>

  /* Clear display */
  lcd_clear_screen(sp);
 180de38:	e13fff17 	ldw	r4,-4(fp)
 180de3c:	180d1980 	call	180d198 <lcd_clear_screen>
  
  /* Set mode: increment after writing, don't shift display */
  lcd_write_command(sp, LCD_CMD_MODES | LCD_CMD_MODE_INC);
 180de40:	e13fff17 	ldw	r4,-4(fp)
 180de44:	01400184 	movi	r5,6
 180de48:	180d00c0 	call	180d00c <lcd_write_command>

  /* Turn display on */
  lcd_write_command(sp, LCD_CMD_ONOFF | LCD_CMD_ENABLE_DISP);
 180de4c:	e13fff17 	ldw	r4,-4(fp)
 180de50:	01400304 	movi	r5,12
 180de54:	180d00c0 	call	180d00c <lcd_write_command>

  sp->esccount = -1;
 180de58:	e0ffff17 	ldw	r3,-4(fp)
 180de5c:	00bfffc4 	movi	r2,-1
 180de60:	18800905 	stb	r2,36(r3)
  memset(sp->escape, 0, sizeof(sp->escape));
 180de64:	e0bfff17 	ldw	r2,-4(fp)
 180de68:	11000a04 	addi	r4,r2,40
 180de6c:	000b883a 	mov	r5,zero
 180de70:	01800204 	movi	r6,8
 180de74:	1805ae80 	call	1805ae8 <memset>

  sp->scrollpos = 0;
 180de78:	e0bfff17 	ldw	r2,-4(fp)
 180de7c:	10000945 	stb	zero,37(r2)
  sp->scrollmax = 0;
 180de80:	e0bfff17 	ldw	r2,-4(fp)
 180de84:	10000985 	stb	zero,38(r2)
  sp->active = 0;
 180de88:	e0bfff17 	ldw	r2,-4(fp)
 180de8c:	100009c5 	stb	zero,39(r2)
 180de90:	00806074 	movhi	r2,385
 180de94:	108b0304 	addi	r2,r2,11276
 180de98:	10800017 	ldw	r2,0(r2)
 180de9c:	1007883a 	mov	r3,r2

  sp->period = alt_ticks_per_second() / 10; /* Call every 100ms */
 180dea0:	00800284 	movi	r2,10
 180dea4:	1885203a 	divu	r2,r3,r2
 180dea8:	1007883a 	mov	r3,r2
 180deac:	e0bfff17 	ldw	r2,-4(fp)
 180deb0:	10c00715 	stw	r3,28(r2)

  alt_alarm_start(&sp->alarm, sp->period, &alt_lcd_16207_timeout, sp);
 180deb4:	e0bfff17 	ldw	r2,-4(fp)
 180deb8:	11000104 	addi	r4,r2,4
 180debc:	e0bfff17 	ldw	r2,-4(fp)
 180dec0:	10800717 	ldw	r2,28(r2)
 180dec4:	100b883a 	mov	r5,r2
 180dec8:	01806074 	movhi	r6,385
 180decc:	31b73904 	addi	r6,r6,-8988
 180ded0:	e1ffff17 	ldw	r7,-4(fp)
 180ded4:	180e9f40 	call	180e9f4 <alt_alarm_start>
}
 180ded8:	e037883a 	mov	sp,fp
 180dedc:	dfc00117 	ldw	ra,4(sp)
 180dee0:	df000017 	ldw	fp,0(sp)
 180dee4:	dec00204 	addi	sp,sp,8
 180dee8:	f800283a 	ret

0180deec <altera_avalon_lcd_16207_write_fd>:
extern int altera_avalon_lcd_16207_write(altera_avalon_lcd_16207_state* sp,
  const char* ptr, int count, int flags);

int 
altera_avalon_lcd_16207_write_fd(alt_fd* fd, const char* buffer, int space)
{
 180deec:	defffa04 	addi	sp,sp,-24
 180def0:	dfc00515 	stw	ra,20(sp)
 180def4:	df000415 	stw	fp,16(sp)
 180def8:	df000404 	addi	fp,sp,16
 180defc:	e13ffd15 	stw	r4,-12(fp)
 180df00:	e17ffe15 	stw	r5,-8(fp)
 180df04:	e1bfff15 	stw	r6,-4(fp)
    altera_avalon_lcd_16207_dev* dev = (altera_avalon_lcd_16207_dev*) fd->dev; 
 180df08:	e0bffd17 	ldw	r2,-12(fp)
 180df0c:	10800017 	ldw	r2,0(r2)
 180df10:	e0bffc15 	stw	r2,-16(fp)

    return altera_avalon_lcd_16207_write(&dev->state, buffer, space,
 180df14:	e0bffc17 	ldw	r2,-16(fp)
 180df18:	11000a04 	addi	r4,r2,40
 180df1c:	e0bffd17 	ldw	r2,-12(fp)
 180df20:	11c00217 	ldw	r7,8(r2)
 180df24:	e17ffe17 	ldw	r5,-8(fp)
 180df28:	e1bfff17 	ldw	r6,-4(fp)
 180df2c:	180d7e00 	call	180d7e0 <altera_avalon_lcd_16207_write>
      fd->fd_flags);
}
 180df30:	e037883a 	mov	sp,fp
 180df34:	dfc00117 	ldw	ra,4(sp)
 180df38:	df000017 	ldw	fp,0(sp)
 180df3c:	dec00204 	addi	sp,sp,8
 180df40:	f800283a 	ret

0180df44 <alt_avalon_timer_sc_irq>:
#ifdef ALT_ENHANCED_INTERRUPT_API_PRESENT
static void alt_avalon_timer_sc_irq (void* base)
#else
static void alt_avalon_timer_sc_irq (void* base, alt_u32 id)
#endif
{
 180df44:	defffa04 	addi	sp,sp,-24
 180df48:	dfc00515 	stw	ra,20(sp)
 180df4c:	df000415 	stw	fp,16(sp)
 180df50:	df000404 	addi	fp,sp,16
 180df54:	e13fff15 	stw	r4,-4(fp)
  alt_irq_context cpu_sr;
  
  /* clear the interrupt */
  IOWR_ALTERA_AVALON_TIMER_STATUS (base, 0);
 180df58:	e0bfff17 	ldw	r2,-4(fp)
 180df5c:	10000035 	stwio	zero,0(r2)
  /* 
   * Dummy read to ensure IRQ is negated before the ISR returns.
   * The control register is read because reading the status
   * register has side-effects per the register map documentation.
   */
  IORD_ALTERA_AVALON_TIMER_CONTROL (base);
 180df60:	e0bfff17 	ldw	r2,-4(fp)
 180df64:	10800104 	addi	r2,r2,4
 180df68:	10800037 	ldwio	r2,0(r2)
static ALT_INLINE alt_irq_context ALT_ALWAYS_INLINE 
       alt_irq_disable_all (void)
{
  alt_irq_context context;

  NIOS2_READ_STATUS (context);
 180df6c:	0005303a 	rdctl	r2,status
 180df70:	e0bffd15 	stw	r2,-12(fp)

  NIOS2_WRITE_STATUS (context & ~NIOS2_STATUS_PIE_MSK);
 180df74:	e0fffd17 	ldw	r3,-12(fp)
 180df78:	00bfff84 	movi	r2,-2
 180df7c:	1884703a 	and	r2,r3,r2
 180df80:	1001703a 	wrctl	status,r2
  
  return context;
 180df84:	e0bffd17 	ldw	r2,-12(fp)

  /* 
   * Notify the system of a clock tick. disable interrupts 
   * during this time to safely support ISR preemption
   */
  cpu_sr = alt_irq_disable_all();
 180df88:	e0bffe15 	stw	r2,-8(fp)
  alt_tick ();
 180df8c:	180f6fc0 	call	180f6fc <alt_tick>
 180df90:	e0bffe17 	ldw	r2,-8(fp)
 180df94:	e0bffc15 	stw	r2,-16(fp)
  status &= ~NIOS2_STATUS_PIE_MSK;
  status |= (context & NIOS2_STATUS_PIE_MSK);
  
  NIOS2_WRITE_STATUS (status);
#else
  NIOS2_WRITE_STATUS (context);
 180df98:	e0bffc17 	ldw	r2,-16(fp)
 180df9c:	1001703a 	wrctl	status,r2
  alt_irq_enable_all(cpu_sr);
}
 180dfa0:	e037883a 	mov	sp,fp
 180dfa4:	dfc00117 	ldw	ra,4(sp)
 180dfa8:	df000017 	ldw	fp,0(sp)
 180dfac:	dec00204 	addi	sp,sp,8
 180dfb0:	f800283a 	ret

0180dfb4 <alt_avalon_timer_sc_init>:
 * auto-generated alt_sys_init() function.
 */

void alt_avalon_timer_sc_init (void* base, alt_u32 irq_controller_id, 
                                alt_u32 irq, alt_u32 freq)
{
 180dfb4:	defff804 	addi	sp,sp,-32
 180dfb8:	dfc00715 	stw	ra,28(sp)
 180dfbc:	df000615 	stw	fp,24(sp)
 180dfc0:	df000604 	addi	fp,sp,24
 180dfc4:	e13ffc15 	stw	r4,-16(fp)
 180dfc8:	e17ffd15 	stw	r5,-12(fp)
 180dfcc:	e1bffe15 	stw	r6,-8(fp)
 180dfd0:	e1ffff15 	stw	r7,-4(fp)
 180dfd4:	e0bfff17 	ldw	r2,-4(fp)
 180dfd8:	e0bffb15 	stw	r2,-20(fp)
 * in order to initialise the value of the clock frequency.
 */

static ALT_INLINE int ALT_ALWAYS_INLINE alt_sysclk_init (alt_u32 nticks)
{
  if (! _alt_tick_rate)
 180dfdc:	00806074 	movhi	r2,385
 180dfe0:	108b0304 	addi	r2,r2,11276
 180dfe4:	10800017 	ldw	r2,0(r2)
 180dfe8:	1004c03a 	cmpne	r2,r2,zero
 180dfec:	1000041e 	bne	r2,zero,180e000 <alt_avalon_timer_sc_init+0x4c>
  {
    _alt_tick_rate = nticks;
 180dff0:	00c06074 	movhi	r3,385
 180dff4:	18cb0304 	addi	r3,r3,11276
 180dff8:	e0bffb17 	ldw	r2,-20(fp)
 180dffc:	18800015 	stw	r2,0(r3)
  
  alt_sysclk_init (freq);
  
  /* set to free running mode */
  
  IOWR_ALTERA_AVALON_TIMER_CONTROL (base, 
 180e000:	e0bffc17 	ldw	r2,-16(fp)
 180e004:	10800104 	addi	r2,r2,4
 180e008:	1007883a 	mov	r3,r2
 180e00c:	008001c4 	movi	r2,7
 180e010:	18800035 	stwio	r2,0(r3)
            ALTERA_AVALON_TIMER_CONTROL_CONT_MSK |
            ALTERA_AVALON_TIMER_CONTROL_START_MSK);

  /* register the interrupt handler, and enable the interrupt */
#ifdef ALT_ENHANCED_INTERRUPT_API_PRESENT
  alt_ic_isr_register(irq_controller_id, irq, alt_avalon_timer_sc_irq, 
 180e014:	d8000015 	stw	zero,0(sp)
 180e018:	e13ffd17 	ldw	r4,-12(fp)
 180e01c:	e17ffe17 	ldw	r5,-8(fp)
 180e020:	01806074 	movhi	r6,385
 180e024:	31b7d104 	addi	r6,r6,-8380
 180e028:	e1fffc17 	ldw	r7,-16(fp)
 180e02c:	180ef980 	call	180ef98 <alt_ic_isr_register>
                      base, NULL);
#else
  alt_irq_register (irq, base, alt_avalon_timer_sc_irq);
#endif  
}
 180e030:	e037883a 	mov	sp,fp
 180e034:	dfc00117 	ldw	ra,4(sp)
 180e038:	df000017 	ldw	fp,0(sp)
 180e03c:	dec00204 	addi	sp,sp,8
 180e040:	f800283a 	ret

0180e044 <altera_avalon_uart_read_fd>:
 *
 */

int 
altera_avalon_uart_read_fd(alt_fd* fd, char* buffer, int space)
{
 180e044:	defffa04 	addi	sp,sp,-24
 180e048:	dfc00515 	stw	ra,20(sp)
 180e04c:	df000415 	stw	fp,16(sp)
 180e050:	df000404 	addi	fp,sp,16
 180e054:	e13ffd15 	stw	r4,-12(fp)
 180e058:	e17ffe15 	stw	r5,-8(fp)
 180e05c:	e1bfff15 	stw	r6,-4(fp)
    altera_avalon_uart_dev* dev = (altera_avalon_uart_dev*) fd->dev; 
 180e060:	e0bffd17 	ldw	r2,-12(fp)
 180e064:	10800017 	ldw	r2,0(r2)
 180e068:	e0bffc15 	stw	r2,-16(fp)

    return altera_avalon_uart_read(&dev->state, buffer, space,
 180e06c:	e0bffc17 	ldw	r2,-16(fp)
 180e070:	11000a04 	addi	r4,r2,40
 180e074:	e0bffd17 	ldw	r2,-12(fp)
 180e078:	11c00217 	ldw	r7,8(r2)
 180e07c:	e17ffe17 	ldw	r5,-8(fp)
 180e080:	e1bfff17 	ldw	r6,-4(fp)
 180e084:	180e53c0 	call	180e53c <altera_avalon_uart_read>
      fd->fd_flags);
}
 180e088:	e037883a 	mov	sp,fp
 180e08c:	dfc00117 	ldw	ra,4(sp)
 180e090:	df000017 	ldw	fp,0(sp)
 180e094:	dec00204 	addi	sp,sp,8
 180e098:	f800283a 	ret

0180e09c <altera_avalon_uart_write_fd>:

int 
altera_avalon_uart_write_fd(alt_fd* fd, const char* buffer, int space)
{
 180e09c:	defffa04 	addi	sp,sp,-24
 180e0a0:	dfc00515 	stw	ra,20(sp)
 180e0a4:	df000415 	stw	fp,16(sp)
 180e0a8:	df000404 	addi	fp,sp,16
 180e0ac:	e13ffd15 	stw	r4,-12(fp)
 180e0b0:	e17ffe15 	stw	r5,-8(fp)
 180e0b4:	e1bfff15 	stw	r6,-4(fp)
    altera_avalon_uart_dev* dev = (altera_avalon_uart_dev*) fd->dev; 
 180e0b8:	e0bffd17 	ldw	r2,-12(fp)
 180e0bc:	10800017 	ldw	r2,0(r2)
 180e0c0:	e0bffc15 	stw	r2,-16(fp)

    return altera_avalon_uart_write(&dev->state, buffer, space,
 180e0c4:	e0bffc17 	ldw	r2,-16(fp)
 180e0c8:	11000a04 	addi	r4,r2,40
 180e0cc:	e0bffd17 	ldw	r2,-12(fp)
 180e0d0:	11c00217 	ldw	r7,8(r2)
 180e0d4:	e17ffe17 	ldw	r5,-8(fp)
 180e0d8:	e1bfff17 	ldw	r6,-4(fp)
 180e0dc:	180e7cc0 	call	180e7cc <altera_avalon_uart_write>
      fd->fd_flags);
}
 180e0e0:	e037883a 	mov	sp,fp
 180e0e4:	dfc00117 	ldw	ra,4(sp)
 180e0e8:	df000017 	ldw	fp,0(sp)
 180e0ec:	dec00204 	addi	sp,sp,8
 180e0f0:	f800283a 	ret

0180e0f4 <altera_avalon_uart_close_fd>:

#endif /* ALTERA_AVALON_UART_USE_IOCTL */

int 
altera_avalon_uart_close_fd(alt_fd* fd)
{
 180e0f4:	defffc04 	addi	sp,sp,-16
 180e0f8:	dfc00315 	stw	ra,12(sp)
 180e0fc:	df000215 	stw	fp,8(sp)
 180e100:	df000204 	addi	fp,sp,8
 180e104:	e13fff15 	stw	r4,-4(fp)
    altera_avalon_uart_dev* dev = (altera_avalon_uart_dev*) fd->dev; 
 180e108:	e0bfff17 	ldw	r2,-4(fp)
 180e10c:	10800017 	ldw	r2,0(r2)
 180e110:	e0bffe15 	stw	r2,-8(fp)

    return altera_avalon_uart_close(&dev->state, fd->fd_flags);
 180e114:	e0bffe17 	ldw	r2,-8(fp)
 180e118:	11000a04 	addi	r4,r2,40
 180e11c:	e0bfff17 	ldw	r2,-4(fp)
 180e120:	11400217 	ldw	r5,8(r2)
 180e124:	180e4dc0 	call	180e4dc <altera_avalon_uart_close>
}
 180e128:	e037883a 	mov	sp,fp
 180e12c:	dfc00117 	ldw	ra,4(sp)
 180e130:	df000017 	ldw	fp,0(sp)
 180e134:	dec00204 	addi	sp,sp,8
 180e138:	f800283a 	ret

0180e13c <altera_avalon_uart_init>:
  alt_u32 status);

void 
altera_avalon_uart_init(altera_avalon_uart_state* sp, 
  alt_u32 irq_controller_id,  alt_u32 irq)
{
 180e13c:	defff704 	addi	sp,sp,-36
 180e140:	dfc00815 	stw	ra,32(sp)
 180e144:	df000715 	stw	fp,28(sp)
 180e148:	df000704 	addi	fp,sp,28
 180e14c:	e13ffc15 	stw	r4,-16(fp)
 180e150:	e17ffd15 	stw	r5,-12(fp)
 180e154:	e1bffe15 	stw	r6,-8(fp)
  void* base = sp->base;
 180e158:	e0bffc17 	ldw	r2,-16(fp)
 180e15c:	10800017 	ldw	r2,0(r2)
 180e160:	e0bffb15 	stw	r2,-20(fp)
 * HAL.
 */

static ALT_INLINE int ALT_ALWAYS_INLINE alt_no_error (void)
{
  return 0;
 180e164:	0005883a 	mov	r2,zero
  /* 
   * Initialise the read and write flags and the semaphores used to 
   * protect access to the circular buffers when running in a multi-threaded
   * environment.
   */
  error = ALT_FLAG_CREATE (&sp->events, 0)    || 
 180e168:	1004c03a 	cmpne	r2,r2,zero
 180e16c:	1000061e 	bne	r2,zero,180e188 <altera_avalon_uart_init+0x4c>
 180e170:	0005883a 	mov	r2,zero
 180e174:	1004c03a 	cmpne	r2,r2,zero
 180e178:	1000031e 	bne	r2,zero,180e188 <altera_avalon_uart_init+0x4c>
 180e17c:	0005883a 	mov	r2,zero
 180e180:	1005003a 	cmpeq	r2,r2,zero
 180e184:	1000031e 	bne	r2,zero,180e194 <altera_avalon_uart_init+0x58>
 180e188:	00800044 	movi	r2,1
 180e18c:	e0bfff15 	stw	r2,-4(fp)
 180e190:	00000106 	br	180e198 <altera_avalon_uart_init+0x5c>
 180e194:	e03fff15 	stw	zero,-4(fp)
 180e198:	e0bfff17 	ldw	r2,-4(fp)
 180e19c:	e0bffa15 	stw	r2,-24(fp)
          ALT_SEM_CREATE (&sp->read_lock, 1)  ||
          ALT_SEM_CREATE (&sp->write_lock, 1);

  if (!error)
 180e1a0:	e0bffa17 	ldw	r2,-24(fp)
 180e1a4:	1004c03a 	cmpne	r2,r2,zero
 180e1a8:	1000111e 	bne	r2,zero,180e1f0 <altera_avalon_uart_init+0xb4>
  {
    /* enable interrupts at the device */
    sp->ctrl = ALTERA_AVALON_UART_CONTROL_RTS_MSK  |
 180e1ac:	e0fffc17 	ldw	r3,-16(fp)
 180e1b0:	00832004 	movi	r2,3200
 180e1b4:	18800115 	stw	r2,4(r3)
                ALTERA_AVALON_UART_CONTROL_RRDY_MSK |
                ALTERA_AVALON_UART_CONTROL_DCTS_MSK;

    IOWR_ALTERA_AVALON_UART_CONTROL(base, sp->ctrl); 
 180e1b8:	e0bffb17 	ldw	r2,-20(fp)
 180e1bc:	11000304 	addi	r4,r2,12
 180e1c0:	e0bffc17 	ldw	r2,-16(fp)
 180e1c4:	10800117 	ldw	r2,4(r2)
 180e1c8:	1007883a 	mov	r3,r2
 180e1cc:	2005883a 	mov	r2,r4
 180e1d0:	10c00035 	stwio	r3,0(r2)
  
    /* register the interrupt handler */
#ifdef ALT_ENHANCED_INTERRUPT_API_PRESENT
    alt_ic_isr_register(irq_controller_id, irq, altera_avalon_uart_irq, sp, 
 180e1d4:	d8000015 	stw	zero,0(sp)
 180e1d8:	e13ffd17 	ldw	r4,-12(fp)
 180e1dc:	e17ffe17 	ldw	r5,-8(fp)
 180e1e0:	01806074 	movhi	r6,385
 180e1e4:	31b88104 	addi	r6,r6,-7676
 180e1e8:	e1fffc17 	ldw	r7,-16(fp)
 180e1ec:	180ef980 	call	180ef98 <alt_ic_isr_register>
      0x0);
#else
    alt_irq_register (irq, sp, altera_avalon_uart_irq);
#endif  
  }
}
 180e1f0:	e037883a 	mov	sp,fp
 180e1f4:	dfc00117 	ldw	ra,4(sp)
 180e1f8:	df000017 	ldw	fp,0(sp)
 180e1fc:	dec00204 	addi	sp,sp,8
 180e200:	f800283a 	ret

0180e204 <altera_avalon_uart_irq>:
#ifdef ALT_ENHANCED_INTERRUPT_API_PRESENT
static void altera_avalon_uart_irq(void* context)
#else
static void altera_avalon_uart_irq(void* context, alt_u32 id)
#endif
{
 180e204:	defffa04 	addi	sp,sp,-24
 180e208:	dfc00515 	stw	ra,20(sp)
 180e20c:	df000415 	stw	fp,16(sp)
 180e210:	df000404 	addi	fp,sp,16
 180e214:	e13fff15 	stw	r4,-4(fp)
  alt_u32 status;

  altera_avalon_uart_state* sp = (altera_avalon_uart_state*) context;
 180e218:	e0bfff17 	ldw	r2,-4(fp)
 180e21c:	e0bffd15 	stw	r2,-12(fp)
  void* base               = sp->base;
 180e220:	e0bffd17 	ldw	r2,-12(fp)
 180e224:	10800017 	ldw	r2,0(r2)
 180e228:	e0bffc15 	stw	r2,-16(fp)
  /*
   * Read the status register in order to determine the cause of the
   * interrupt.
   */

  status = IORD_ALTERA_AVALON_UART_STATUS(base);
 180e22c:	e0bffc17 	ldw	r2,-16(fp)
 180e230:	10800204 	addi	r2,r2,8
 180e234:	10800037 	ldwio	r2,0(r2)
 180e238:	e0bffe15 	stw	r2,-8(fp)

  /* Clear any error flags set at the device */
  IOWR_ALTERA_AVALON_UART_STATUS(base, 0);
 180e23c:	e0bffc17 	ldw	r2,-16(fp)
 180e240:	10800204 	addi	r2,r2,8
 180e244:	10000035 	stwio	zero,0(r2)

  /* Dummy read to ensure IRQ is negated before ISR returns */
  IORD_ALTERA_AVALON_UART_STATUS(base);
 180e248:	e0bffc17 	ldw	r2,-16(fp)
 180e24c:	10800204 	addi	r2,r2,8
 180e250:	10800037 	ldwio	r2,0(r2)
  
  /* process a read irq */
  if (status & ALTERA_AVALON_UART_STATUS_RRDY_MSK)
 180e254:	e0bffe17 	ldw	r2,-8(fp)
 180e258:	1080200c 	andi	r2,r2,128
 180e25c:	1005003a 	cmpeq	r2,r2,zero
 180e260:	1000031e 	bne	r2,zero,180e270 <altera_avalon_uart_irq+0x6c>
  {
    altera_avalon_uart_rxirq(sp, status);
 180e264:	e13ffd17 	ldw	r4,-12(fp)
 180e268:	e17ffe17 	ldw	r5,-8(fp)
 180e26c:	180e2a00 	call	180e2a0 <altera_avalon_uart_rxirq>
  }

  /* process a write irq */
  if (status & (ALTERA_AVALON_UART_STATUS_TRDY_MSK | 
 180e270:	e0bffe17 	ldw	r2,-8(fp)
 180e274:	1081100c 	andi	r2,r2,1088
 180e278:	1005003a 	cmpeq	r2,r2,zero
 180e27c:	1000031e 	bne	r2,zero,180e28c <altera_avalon_uart_irq+0x88>
                  ALTERA_AVALON_UART_STATUS_DCTS_MSK))
  {
    altera_avalon_uart_txirq(sp, status);
 180e280:	e13ffd17 	ldw	r4,-12(fp)
 180e284:	e17ffe17 	ldw	r5,-8(fp)
 180e288:	180e3800 	call	180e380 <altera_avalon_uart_txirq>
  }
  

}
 180e28c:	e037883a 	mov	sp,fp
 180e290:	dfc00117 	ldw	ra,4(sp)
 180e294:	df000017 	ldw	fp,0(sp)
 180e298:	dec00204 	addi	sp,sp,8
 180e29c:	f800283a 	ret

0180e2a0 <altera_avalon_uart_rxirq>:
 * the receive circular buffer, and sets the apropriate flags to indicate 
 * that there is data ready to be processed.
 */
static void 
altera_avalon_uart_rxirq(altera_avalon_uart_state* sp, alt_u32 status)
{
 180e2a0:	defffc04 	addi	sp,sp,-16
 180e2a4:	df000315 	stw	fp,12(sp)
 180e2a8:	df000304 	addi	fp,sp,12
 180e2ac:	e13ffe15 	stw	r4,-8(fp)
 180e2b0:	e17fff15 	stw	r5,-4(fp)
  alt_u32 next;
  
  /* If there was an error, discard the data */

  if (status & (ALTERA_AVALON_UART_STATUS_PE_MSK | 
 180e2b4:	e0bfff17 	ldw	r2,-4(fp)
 180e2b8:	108000cc 	andi	r2,r2,3
 180e2bc:	1004c03a 	cmpne	r2,r2,zero
 180e2c0:	10002b1e 	bne	r2,zero,180e370 <altera_avalon_uart_rxirq+0xd0>
   * In a multi-threaded environment, set the read event flag to indicate
   * that there is data ready. This is only done if the circular buffer was
   * previously empty.
   */

  if (sp->rx_end == sp->rx_start)
 180e2c4:	e0bffe17 	ldw	r2,-8(fp)
 180e2c8:	10800317 	ldw	r2,12(r2)
    ALT_FLAG_POST (sp->events, ALT_UART_READ_RDY, OS_FLAG_SET);
  }

  /* Determine which slot to use next in the circular buffer */

  next = (sp->rx_end + 1) & ALT_AVALON_UART_BUF_MSK;
 180e2cc:	e0bffe17 	ldw	r2,-8(fp)
 180e2d0:	10800317 	ldw	r2,12(r2)
 180e2d4:	10800044 	addi	r2,r2,1
 180e2d8:	10800fcc 	andi	r2,r2,63
 180e2dc:	e0bffd15 	stw	r2,-12(fp)

  /* Transfer data from the device to the circular buffer */

  sp->rx_buf[sp->rx_end] = IORD_ALTERA_AVALON_UART_RXDATA(sp->base);
 180e2e0:	e0bffe17 	ldw	r2,-8(fp)
 180e2e4:	11000317 	ldw	r4,12(r2)
 180e2e8:	e0bffe17 	ldw	r2,-8(fp)
 180e2ec:	10800017 	ldw	r2,0(r2)
 180e2f0:	10800037 	ldwio	r2,0(r2)
 180e2f4:	1007883a 	mov	r3,r2
 180e2f8:	e0bffe17 	ldw	r2,-8(fp)
 180e2fc:	2085883a 	add	r2,r4,r2
 180e300:	10800704 	addi	r2,r2,28
 180e304:	10c00005 	stb	r3,0(r2)

  sp->rx_end = next;
 180e308:	e0fffe17 	ldw	r3,-8(fp)
 180e30c:	e0bffd17 	ldw	r2,-12(fp)
 180e310:	18800315 	stw	r2,12(r3)

  next = (sp->rx_end + 1) & ALT_AVALON_UART_BUF_MSK;
 180e314:	e0bffe17 	ldw	r2,-8(fp)
 180e318:	10800317 	ldw	r2,12(r2)
 180e31c:	10800044 	addi	r2,r2,1
 180e320:	10800fcc 	andi	r2,r2,63
 180e324:	e0bffd15 	stw	r2,-12(fp)
  /*
   * If the cicular buffer was full, disable interrupts. Interrupts will be
   * re-enabled when data is removed from the buffer.
   */

  if (next == sp->rx_start)
 180e328:	e0bffe17 	ldw	r2,-8(fp)
 180e32c:	10c00217 	ldw	r3,8(r2)
 180e330:	e0bffd17 	ldw	r2,-12(fp)
 180e334:	18800e1e 	bne	r3,r2,180e370 <altera_avalon_uart_rxirq+0xd0>
  {
    sp->ctrl &= ~ALTERA_AVALON_UART_CONTROL_RRDY_MSK;
 180e338:	e0bffe17 	ldw	r2,-8(fp)
 180e33c:	10c00117 	ldw	r3,4(r2)
 180e340:	00bfdfc4 	movi	r2,-129
 180e344:	1886703a 	and	r3,r3,r2
 180e348:	e0bffe17 	ldw	r2,-8(fp)
 180e34c:	10c00115 	stw	r3,4(r2)
    IOWR_ALTERA_AVALON_UART_CONTROL(sp->base, sp->ctrl); 
 180e350:	e0bffe17 	ldw	r2,-8(fp)
 180e354:	10800017 	ldw	r2,0(r2)
 180e358:	11000304 	addi	r4,r2,12
 180e35c:	e0bffe17 	ldw	r2,-8(fp)
 180e360:	10800117 	ldw	r2,4(r2)
 180e364:	1007883a 	mov	r3,r2
 180e368:	2005883a 	mov	r2,r4
 180e36c:	10c00035 	stwio	r3,0(r2)
  }   
}
 180e370:	e037883a 	mov	sp,fp
 180e374:	df000017 	ldw	fp,0(sp)
 180e378:	dec00104 	addi	sp,sp,4
 180e37c:	f800283a 	ret

0180e380 <altera_avalon_uart_txirq>:
 * buffer to the device, and sets the apropriate flags to indicate that 
 * there is data ready to be processed.
 */
static void 
altera_avalon_uart_txirq(altera_avalon_uart_state* sp, alt_u32 status)
{
 180e380:	defffd04 	addi	sp,sp,-12
 180e384:	df000215 	stw	fp,8(sp)
 180e388:	df000204 	addi	fp,sp,8
 180e38c:	e13ffe15 	stw	r4,-8(fp)
 180e390:	e17fff15 	stw	r5,-4(fp)
  /* Transfer data if there is some ready to be transfered */

  if (sp->tx_start != sp->tx_end)
 180e394:	e0bffe17 	ldw	r2,-8(fp)
 180e398:	10c00417 	ldw	r3,16(r2)
 180e39c:	e0bffe17 	ldw	r2,-8(fp)
 180e3a0:	10800517 	ldw	r2,20(r2)
 180e3a4:	18803626 	beq	r3,r2,180e480 <altera_avalon_uart_txirq+0x100>
    /* 
     * If the device is using flow control (i.e. RTS/CTS), then the
     * transmitter is required to throttle if CTS is high.
     */

    if (!(sp->flags & ALT_AVALON_UART_FC) ||
 180e3a8:	e0bffe17 	ldw	r2,-8(fp)
 180e3ac:	10800617 	ldw	r2,24(r2)
 180e3b0:	1080008c 	andi	r2,r2,2
 180e3b4:	1005003a 	cmpeq	r2,r2,zero
 180e3b8:	1000041e 	bne	r2,zero,180e3cc <altera_avalon_uart_txirq+0x4c>
 180e3bc:	e0bfff17 	ldw	r2,-4(fp)
 180e3c0:	1082000c 	andi	r2,r2,2048
 180e3c4:	1005003a 	cmpeq	r2,r2,zero
 180e3c8:	10001e1e 	bne	r2,zero,180e444 <altera_avalon_uart_txirq+0xc4>
       * In a multi-threaded environment, set the write event flag to indicate
       * that there is space in the circular buffer. This is only done if the
       * buffer was previously empty.
       */

      if (sp->tx_start == ((sp->tx_end + 1) & ALT_AVALON_UART_BUF_MSK))
 180e3cc:	e0bffe17 	ldw	r2,-8(fp)
 180e3d0:	10800417 	ldw	r2,16(r2)
                       OS_FLAG_SET);
      }

      /* Write the data to the device */

      IOWR_ALTERA_AVALON_UART_TXDATA(sp->base, sp->tx_buf[sp->tx_start]);
 180e3d4:	e0bffe17 	ldw	r2,-8(fp)
 180e3d8:	10800017 	ldw	r2,0(r2)
 180e3dc:	11000104 	addi	r4,r2,4
 180e3e0:	e0bffe17 	ldw	r2,-8(fp)
 180e3e4:	10c00417 	ldw	r3,16(r2)
 180e3e8:	e0bffe17 	ldw	r2,-8(fp)
 180e3ec:	1885883a 	add	r2,r3,r2
 180e3f0:	10801704 	addi	r2,r2,92
 180e3f4:	10800003 	ldbu	r2,0(r2)
 180e3f8:	10c03fcc 	andi	r3,r2,255
 180e3fc:	2005883a 	mov	r2,r4
 180e400:	10c00035 	stwio	r3,0(r2)

      sp->tx_start = (++sp->tx_start) & ALT_AVALON_UART_BUF_MSK;
 180e404:	e0bffe17 	ldw	r2,-8(fp)
 180e408:	10800417 	ldw	r2,16(r2)
 180e40c:	10c00044 	addi	r3,r2,1
 180e410:	e0bffe17 	ldw	r2,-8(fp)
 180e414:	10c00415 	stw	r3,16(r2)
 180e418:	e0bffe17 	ldw	r2,-8(fp)
 180e41c:	10800417 	ldw	r2,16(r2)
 180e420:	10c00fcc 	andi	r3,r2,63
 180e424:	e0bffe17 	ldw	r2,-8(fp)
 180e428:	10c00415 	stw	r3,16(r2)
      /*
       * In case the tranmit interrupt had previously been disabled by 
       * detecting a low value on CTS, it is reenabled here.
       */ 

      sp->ctrl |= ALTERA_AVALON_UART_CONTROL_TRDY_MSK;
 180e42c:	e0bffe17 	ldw	r2,-8(fp)
 180e430:	10800117 	ldw	r2,4(r2)
 180e434:	10c01014 	ori	r3,r2,64
 180e438:	e0bffe17 	ldw	r2,-8(fp)
 180e43c:	10c00115 	stw	r3,4(r2)
    /* 
     * If the device is using flow control (i.e. RTS/CTS), then the
     * transmitter is required to throttle if CTS is high.
     */

    if (!(sp->flags & ALT_AVALON_UART_FC) ||
 180e440:	00000f06 	br	180e480 <altera_avalon_uart_txirq+0x100>
       * the last write to the status register. To avoid this resulting in
       * deadlock, it's necessary to re-check the status register here
       * before throttling.
       */
 
      status = IORD_ALTERA_AVALON_UART_STATUS(sp->base); 
 180e444:	e0bffe17 	ldw	r2,-8(fp)
 180e448:	10800017 	ldw	r2,0(r2)
 180e44c:	10800204 	addi	r2,r2,8
 180e450:	10800037 	ldwio	r2,0(r2)
 180e454:	e0bfff15 	stw	r2,-4(fp)

      if (!(status & ALTERA_AVALON_UART_STATUS_CTS_MSK))
 180e458:	e0bfff17 	ldw	r2,-4(fp)
 180e45c:	1082000c 	andi	r2,r2,2048
 180e460:	1004c03a 	cmpne	r2,r2,zero
 180e464:	1000061e 	bne	r2,zero,180e480 <altera_avalon_uart_txirq+0x100>
      {
        sp->ctrl &= ~ALTERA_AVALON_UART_CONTROL_TRDY_MSK;
 180e468:	e0bffe17 	ldw	r2,-8(fp)
 180e46c:	10c00117 	ldw	r3,4(r2)
 180e470:	00bfefc4 	movi	r2,-65
 180e474:	1886703a 	and	r3,r3,r2
 180e478:	e0bffe17 	ldw	r2,-8(fp)
 180e47c:	10c00115 	stw	r3,4(r2)
  /*
   * If the circular buffer is empty, disable the interrupt. This will be
   * re-enabled when new data is placed in the buffer.
   */

  if (sp->tx_start == sp->tx_end)
 180e480:	e0bffe17 	ldw	r2,-8(fp)
 180e484:	10c00417 	ldw	r3,16(r2)
 180e488:	e0bffe17 	ldw	r2,-8(fp)
 180e48c:	10800517 	ldw	r2,20(r2)
 180e490:	1880061e 	bne	r3,r2,180e4ac <altera_avalon_uart_txirq+0x12c>
  {
    sp->ctrl &= ~(ALTERA_AVALON_UART_CONTROL_TRDY_MSK |
 180e494:	e0bffe17 	ldw	r2,-8(fp)
 180e498:	10c00117 	ldw	r3,4(r2)
 180e49c:	00beefc4 	movi	r2,-1089
 180e4a0:	1886703a 	and	r3,r3,r2
 180e4a4:	e0bffe17 	ldw	r2,-8(fp)
 180e4a8:	10c00115 	stw	r3,4(r2)
                    ALTERA_AVALON_UART_CONTROL_DCTS_MSK);
  }

  IOWR_ALTERA_AVALON_UART_CONTROL(sp->base, sp->ctrl);
 180e4ac:	e0bffe17 	ldw	r2,-8(fp)
 180e4b0:	10800017 	ldw	r2,0(r2)
 180e4b4:	11000304 	addi	r4,r2,12
 180e4b8:	e0bffe17 	ldw	r2,-8(fp)
 180e4bc:	10800117 	ldw	r2,4(r2)
 180e4c0:	1007883a 	mov	r3,r2
 180e4c4:	2005883a 	mov	r2,r4
 180e4c8:	10c00035 	stwio	r3,0(r2)
}
 180e4cc:	e037883a 	mov	sp,fp
 180e4d0:	df000017 	ldw	fp,0(sp)
 180e4d4:	dec00104 	addi	sp,sp,4
 180e4d8:	f800283a 	ret

0180e4dc <altera_avalon_uart_close>:
 * The close routine is not implemented for the small driver; instead it will
 * map to null. This is because the small driver simply waits while characters
 * are transmitted; there is no interrupt-serviced buffer to empty 
 */
int altera_avalon_uart_close(altera_avalon_uart_state* sp, int flags)
{
 180e4dc:	defffc04 	addi	sp,sp,-16
 180e4e0:	df000315 	stw	fp,12(sp)
 180e4e4:	df000304 	addi	fp,sp,12
 180e4e8:	e13ffd15 	stw	r4,-12(fp)
 180e4ec:	e17ffe15 	stw	r5,-8(fp)
  /* 
   * Wait for all transmit data to be emptied by the UART ISR.
   */
  while (sp->tx_start != sp->tx_end) {
 180e4f0:	00000706 	br	180e510 <altera_avalon_uart_close+0x34>
    if (flags & O_NONBLOCK) {
 180e4f4:	e0bffe17 	ldw	r2,-8(fp)
 180e4f8:	1090000c 	andi	r2,r2,16384
 180e4fc:	1005003a 	cmpeq	r2,r2,zero
 180e500:	1000031e 	bne	r2,zero,180e510 <altera_avalon_uart_close+0x34>
      return -EWOULDBLOCK; 
 180e504:	00bffd44 	movi	r2,-11
 180e508:	e0bfff15 	stw	r2,-4(fp)
 180e50c:	00000606 	br	180e528 <altera_avalon_uart_close+0x4c>
int altera_avalon_uart_close(altera_avalon_uart_state* sp, int flags)
{
  /* 
   * Wait for all transmit data to be emptied by the UART ISR.
   */
  while (sp->tx_start != sp->tx_end) {
 180e510:	e0bffd17 	ldw	r2,-12(fp)
 180e514:	10c00417 	ldw	r3,16(r2)
 180e518:	e0bffd17 	ldw	r2,-12(fp)
 180e51c:	10800517 	ldw	r2,20(r2)
 180e520:	18bff41e 	bne	r3,r2,180e4f4 <altera_avalon_uart_close+0x18>
    if (flags & O_NONBLOCK) {
      return -EWOULDBLOCK; 
    }
  }

  return 0;
 180e524:	e03fff15 	stw	zero,-4(fp)
 180e528:	e0bfff17 	ldw	r2,-4(fp)
}
 180e52c:	e037883a 	mov	sp,fp
 180e530:	df000017 	ldw	fp,0(sp)
 180e534:	dec00104 	addi	sp,sp,4
 180e538:	f800283a 	ret

0180e53c <altera_avalon_uart_read>:
 */

int 
altera_avalon_uart_read(altera_avalon_uart_state* sp, char* ptr, int len,
  int flags)
{
 180e53c:	defff004 	addi	sp,sp,-64
 180e540:	dfc00f15 	stw	ra,60(sp)
 180e544:	df000e15 	stw	fp,56(sp)
 180e548:	df000e04 	addi	fp,sp,56
 180e54c:	e13ffb15 	stw	r4,-20(fp)
 180e550:	e17ffc15 	stw	r5,-16(fp)
 180e554:	e1bffd15 	stw	r6,-12(fp)
 180e558:	e1fffe15 	stw	r7,-8(fp)
  alt_irq_context context;
  int             block;
  alt_u32         next;
  alt_u8          read_would_block = 0;
 180e55c:	e03ff705 	stb	zero,-36(fp)
  int             count = 0;
 180e560:	e03ff615 	stw	zero,-40(fp)
  /* 
   * Construct a flag to indicate whether the device is being accessed in
   * blocking or non-blocking mode.
   */

  block = !(flags & O_NONBLOCK);
 180e564:	e0bffe17 	ldw	r2,-8(fp)
 180e568:	1090000c 	andi	r2,r2,16384
 180e56c:	1005003a 	cmpeq	r2,r2,zero
 180e570:	e0bff915 	stw	r2,-28(fp)
  /*
   * Calculate which slot in the circular buffer is the next one to read
   * data from.
   */

  next = (sp->rx_start + 1) & ALT_AVALON_UART_BUF_MSK;
 180e574:	e0bffb17 	ldw	r2,-20(fp)
 180e578:	10800217 	ldw	r2,8(r2)
 180e57c:	10800044 	addi	r2,r2,1
 180e580:	10800fcc 	andi	r2,r2,63
 180e584:	e0bff815 	stw	r2,-32(fp)
    /*
     * Read the required amount of data, until the circular buffer runs
     * empty
     */

    while ((count < len) && (sp->rx_start != sp->rx_end))
 180e588:	00001906 	br	180e5f0 <altera_avalon_uart_read+0xb4>
    {
      count++;
 180e58c:	e0bff617 	ldw	r2,-40(fp)
 180e590:	10800044 	addi	r2,r2,1
 180e594:	e0bff615 	stw	r2,-40(fp)
      *ptr++ = sp->rx_buf[sp->rx_start];
 180e598:	e0bffb17 	ldw	r2,-20(fp)
 180e59c:	10c00217 	ldw	r3,8(r2)
 180e5a0:	e0bffb17 	ldw	r2,-20(fp)
 180e5a4:	1885883a 	add	r2,r3,r2
 180e5a8:	10800704 	addi	r2,r2,28
 180e5ac:	10800003 	ldbu	r2,0(r2)
 180e5b0:	1007883a 	mov	r3,r2
 180e5b4:	e0bffc17 	ldw	r2,-16(fp)
 180e5b8:	10c00005 	stb	r3,0(r2)
 180e5bc:	e0bffc17 	ldw	r2,-16(fp)
 180e5c0:	10800044 	addi	r2,r2,1
 180e5c4:	e0bffc15 	stw	r2,-16(fp)
      
      sp->rx_start = (++sp->rx_start) & ALT_AVALON_UART_BUF_MSK;
 180e5c8:	e0bffb17 	ldw	r2,-20(fp)
 180e5cc:	10800217 	ldw	r2,8(r2)
 180e5d0:	10c00044 	addi	r3,r2,1
 180e5d4:	e0bffb17 	ldw	r2,-20(fp)
 180e5d8:	10c00215 	stw	r3,8(r2)
 180e5dc:	e0bffb17 	ldw	r2,-20(fp)
 180e5e0:	10800217 	ldw	r2,8(r2)
 180e5e4:	10c00fcc 	andi	r3,r2,63
 180e5e8:	e0bffb17 	ldw	r2,-20(fp)
 180e5ec:	10c00215 	stw	r3,8(r2)
    /*
     * Read the required amount of data, until the circular buffer runs
     * empty
     */

    while ((count < len) && (sp->rx_start != sp->rx_end))
 180e5f0:	e0fff617 	ldw	r3,-40(fp)
 180e5f4:	e0bffd17 	ldw	r2,-12(fp)
 180e5f8:	1880050e 	bge	r3,r2,180e610 <altera_avalon_uart_read+0xd4>
 180e5fc:	e0bffb17 	ldw	r2,-20(fp)
 180e600:	10c00217 	ldw	r3,8(r2)
 180e604:	e0bffb17 	ldw	r2,-20(fp)
 180e608:	10800317 	ldw	r2,12(r2)
 180e60c:	18bfdf1e 	bne	r3,r2,180e58c <altera_avalon_uart_read+0x50>
    /*
     * If no data has been transferred, the circular buffer is empty, and
     * this is not a non-blocking access, block waiting for data to arrive.
     */

    if (!count && (sp->rx_start == sp->rx_end))
 180e610:	e0bff617 	ldw	r2,-40(fp)
 180e614:	1004c03a 	cmpne	r2,r2,zero
 180e618:	1000271e 	bne	r2,zero,180e6b8 <altera_avalon_uart_read+0x17c>
 180e61c:	e0bffb17 	ldw	r2,-20(fp)
 180e620:	10c00217 	ldw	r3,8(r2)
 180e624:	e0bffb17 	ldw	r2,-20(fp)
 180e628:	10800317 	ldw	r2,12(r2)
 180e62c:	1880221e 	bne	r3,r2,180e6b8 <altera_avalon_uart_read+0x17c>
    {
      if (!block)
 180e630:	e0bff917 	ldw	r2,-28(fp)
 180e634:	1004c03a 	cmpne	r2,r2,zero
 180e638:	1000061e 	bne	r2,zero,180e654 <altera_avalon_uart_read+0x118>
      {
        /* Set errno to indicate the reason we're not returning any data */

        ALT_ERRNO = EWOULDBLOCK;
 180e63c:	180e76c0 	call	180e76c <alt_get_errno>
 180e640:	00c002c4 	movi	r3,11
 180e644:	10c00015 	stw	r3,0(r2)
        read_would_block = 1;
 180e648:	00800044 	movi	r2,1
 180e64c:	e0bff705 	stb	r2,-36(fp)
        break;
 180e650:	00001f06 	br	180e6d0 <altera_avalon_uart_read+0x194>
static ALT_INLINE alt_irq_context ALT_ALWAYS_INLINE 
       alt_irq_disable_all (void)
{
  alt_irq_context context;

  NIOS2_READ_STATUS (context);
 180e654:	0005303a 	rdctl	r2,status
 180e658:	e0bff515 	stw	r2,-44(fp)

  NIOS2_WRITE_STATUS (context & ~NIOS2_STATUS_PIE_MSK);
 180e65c:	e0fff517 	ldw	r3,-44(fp)
 180e660:	00bfff84 	movi	r2,-2
 180e664:	1884703a 	and	r2,r3,r2
 180e668:	1001703a 	wrctl	status,r2
  
  return context;
 180e66c:	e0bff517 	ldw	r2,-44(fp)
      {
       /* Block waiting for some data to arrive */

       /* First, ensure read interrupts are enabled to avoid deadlock */

       context = alt_irq_disable_all ();
 180e670:	e0bffa15 	stw	r2,-24(fp)
       sp->ctrl |= ALTERA_AVALON_UART_CONTROL_RRDY_MSK;
 180e674:	e0bffb17 	ldw	r2,-20(fp)
 180e678:	10800117 	ldw	r2,4(r2)
 180e67c:	10c02014 	ori	r3,r2,128
 180e680:	e0bffb17 	ldw	r2,-20(fp)
 180e684:	10c00115 	stw	r3,4(r2)
       IOWR_ALTERA_AVALON_UART_CONTROL(sp->base, sp->ctrl);
 180e688:	e0bffb17 	ldw	r2,-20(fp)
 180e68c:	10800017 	ldw	r2,0(r2)
 180e690:	11000304 	addi	r4,r2,12
 180e694:	e0bffb17 	ldw	r2,-20(fp)
 180e698:	10800117 	ldw	r2,4(r2)
 180e69c:	1007883a 	mov	r3,r2
 180e6a0:	2005883a 	mov	r2,r4
 180e6a4:	10c00035 	stwio	r3,0(r2)
 180e6a8:	e0bffa17 	ldw	r2,-24(fp)
 180e6ac:	e0bff415 	stw	r2,-48(fp)
  status &= ~NIOS2_STATUS_PIE_MSK;
  status |= (context & NIOS2_STATUS_PIE_MSK);
  
  NIOS2_WRITE_STATUS (status);
#else
  NIOS2_WRITE_STATUS (context);
 180e6b0:	e0bff417 	ldw	r2,-48(fp)
 180e6b4:	1001703a 	wrctl	status,r2
                      OS_FLAG_WAIT_SET_ANY + OS_FLAG_CONSUME,
                      0);
      }
    }
  }
  while (!count && len);
 180e6b8:	e0bff617 	ldw	r2,-40(fp)
 180e6bc:	1004c03a 	cmpne	r2,r2,zero
 180e6c0:	1000031e 	bne	r2,zero,180e6d0 <altera_avalon_uart_read+0x194>
 180e6c4:	e0bffd17 	ldw	r2,-12(fp)
 180e6c8:	1004c03a 	cmpne	r2,r2,zero
 180e6cc:	103fc81e 	bne	r2,zero,180e5f0 <altera_avalon_uart_read+0xb4>
static ALT_INLINE alt_irq_context ALT_ALWAYS_INLINE 
       alt_irq_disable_all (void)
{
  alt_irq_context context;

  NIOS2_READ_STATUS (context);
 180e6d0:	0005303a 	rdctl	r2,status
 180e6d4:	e0bff315 	stw	r2,-52(fp)

  NIOS2_WRITE_STATUS (context & ~NIOS2_STATUS_PIE_MSK);
 180e6d8:	e0fff317 	ldw	r3,-52(fp)
 180e6dc:	00bfff84 	movi	r2,-2
 180e6e0:	1884703a 	and	r2,r3,r2
 180e6e4:	1001703a 	wrctl	status,r2
  
  return context;
 180e6e8:	e0bff317 	ldw	r2,-52(fp)
  /*
   * Ensure that interrupts are enabled, so that the circular buffer can
   * re-fill.
   */

  context = alt_irq_disable_all ();
 180e6ec:	e0bffa15 	stw	r2,-24(fp)
  sp->ctrl |= ALTERA_AVALON_UART_CONTROL_RRDY_MSK;
 180e6f0:	e0bffb17 	ldw	r2,-20(fp)
 180e6f4:	10800117 	ldw	r2,4(r2)
 180e6f8:	10c02014 	ori	r3,r2,128
 180e6fc:	e0bffb17 	ldw	r2,-20(fp)
 180e700:	10c00115 	stw	r3,4(r2)
  IOWR_ALTERA_AVALON_UART_CONTROL(sp->base, sp->ctrl);
 180e704:	e0bffb17 	ldw	r2,-20(fp)
 180e708:	10800017 	ldw	r2,0(r2)
 180e70c:	11000304 	addi	r4,r2,12
 180e710:	e0bffb17 	ldw	r2,-20(fp)
 180e714:	10800117 	ldw	r2,4(r2)
 180e718:	1007883a 	mov	r3,r2
 180e71c:	2005883a 	mov	r2,r4
 180e720:	10c00035 	stwio	r3,0(r2)
 180e724:	e0bffa17 	ldw	r2,-24(fp)
 180e728:	e0bff215 	stw	r2,-56(fp)
  status &= ~NIOS2_STATUS_PIE_MSK;
  status |= (context & NIOS2_STATUS_PIE_MSK);
  
  NIOS2_WRITE_STATUS (status);
#else
  NIOS2_WRITE_STATUS (context);
 180e72c:	e0bff217 	ldw	r2,-56(fp)
 180e730:	1001703a 	wrctl	status,r2
  alt_irq_enable_all (context);

  /* Return the number of bytes read */
  if(read_would_block) {
 180e734:	e0bff703 	ldbu	r2,-36(fp)
 180e738:	1005003a 	cmpeq	r2,r2,zero
 180e73c:	1000031e 	bne	r2,zero,180e74c <altera_avalon_uart_read+0x210>
    return ~EWOULDBLOCK;
 180e740:	00bffd04 	movi	r2,-12
 180e744:	e0bfff15 	stw	r2,-4(fp)
 180e748:	00000206 	br	180e754 <altera_avalon_uart_read+0x218>
  }
  else {
    return count;
 180e74c:	e0bff617 	ldw	r2,-40(fp)
 180e750:	e0bfff15 	stw	r2,-4(fp)
 180e754:	e0bfff17 	ldw	r2,-4(fp)
  }
}
 180e758:	e037883a 	mov	sp,fp
 180e75c:	dfc00117 	ldw	ra,4(sp)
 180e760:	df000017 	ldw	fp,0(sp)
 180e764:	dec00204 	addi	sp,sp,8
 180e768:	f800283a 	ret

0180e76c <alt_get_errno>:
#undef errno

extern int errno;

static ALT_INLINE int* alt_get_errno(void)
{
 180e76c:	defffd04 	addi	sp,sp,-12
 180e770:	dfc00215 	stw	ra,8(sp)
 180e774:	df000115 	stw	fp,4(sp)
 180e778:	df000104 	addi	fp,sp,4
  return ((alt_errno) ? alt_errno() : &errno);
 180e77c:	00806074 	movhi	r2,385
 180e780:	108aef04 	addi	r2,r2,11196
 180e784:	10800017 	ldw	r2,0(r2)
 180e788:	1005003a 	cmpeq	r2,r2,zero
 180e78c:	1000061e 	bne	r2,zero,180e7a8 <alt_get_errno+0x3c>
 180e790:	00806074 	movhi	r2,385
 180e794:	108aef04 	addi	r2,r2,11196
 180e798:	10800017 	ldw	r2,0(r2)
 180e79c:	103ee83a 	callr	r2
 180e7a0:	e0bfff15 	stw	r2,-4(fp)
 180e7a4:	00000306 	br	180e7b4 <alt_get_errno+0x48>
 180e7a8:	00806074 	movhi	r2,385
 180e7ac:	108afe04 	addi	r2,r2,11256
 180e7b0:	e0bfff15 	stw	r2,-4(fp)
 180e7b4:	e0bfff17 	ldw	r2,-4(fp)
}
 180e7b8:	e037883a 	mov	sp,fp
 180e7bc:	dfc00117 	ldw	ra,4(sp)
 180e7c0:	df000017 	ldw	fp,0(sp)
 180e7c4:	dec00204 	addi	sp,sp,8
 180e7c8:	f800283a 	ret

0180e7cc <altera_avalon_uart_write>:
 */

int
altera_avalon_uart_write(altera_avalon_uart_state* sp, const char* ptr, int len,
  int flags)
{
 180e7cc:	defff204 	addi	sp,sp,-56
 180e7d0:	dfc00d15 	stw	ra,52(sp)
 180e7d4:	df000c15 	stw	fp,48(sp)
 180e7d8:	df000c04 	addi	fp,sp,48
 180e7dc:	e13ffc15 	stw	r4,-16(fp)
 180e7e0:	e17ffd15 	stw	r5,-12(fp)
 180e7e4:	e1bffe15 	stw	r6,-8(fp)
 180e7e8:	e1ffff15 	stw	r7,-4(fp)
  alt_irq_context context;
  int             no_block;
  alt_u32         next;
  int             count = len;
 180e7ec:	e0bffe17 	ldw	r2,-8(fp)
 180e7f0:	e0bff815 	stw	r2,-32(fp)
  /* 
   * Construct a flag to indicate whether the device is being accessed in
   * blocking or non-blocking mode.
   */

  no_block = (flags & O_NONBLOCK);
 180e7f4:	e0bfff17 	ldw	r2,-4(fp)
 180e7f8:	1090000c 	andi	r2,r2,16384
 180e7fc:	e0bffa15 	stw	r2,-24(fp)
   * Loop transferring data from the input buffer to the transmit circular
   * buffer. The loop is terminated once all the data has been transferred,
   * or, (if in non-blocking mode) the buffer becomes full.
   */

  while (count)
 180e800:	00004006 	br	180e904 <altera_avalon_uart_write+0x138>
  {
    /* Determine the next slot in the buffer to access */

    next = (sp->tx_end + 1) & ALT_AVALON_UART_BUF_MSK;
 180e804:	e0bffc17 	ldw	r2,-16(fp)
 180e808:	10800517 	ldw	r2,20(r2)
 180e80c:	10800044 	addi	r2,r2,1
 180e810:	10800fcc 	andi	r2,r2,63
 180e814:	e0bff915 	stw	r2,-28(fp)

    /* block waiting for space if necessary */

    if (next == sp->tx_start)
 180e818:	e0bffc17 	ldw	r2,-16(fp)
 180e81c:	10c00417 	ldw	r3,16(r2)
 180e820:	e0bff917 	ldw	r2,-28(fp)
 180e824:	1880251e 	bne	r3,r2,180e8bc <altera_avalon_uart_write+0xf0>
    {
      if (no_block)
 180e828:	e0bffa17 	ldw	r2,-24(fp)
 180e82c:	1005003a 	cmpeq	r2,r2,zero
 180e830:	1000051e 	bne	r2,zero,180e848 <altera_avalon_uart_write+0x7c>
      {
        /* Set errno to indicate why this function returned early */
 
        ALT_ERRNO = EWOULDBLOCK;
 180e834:	180e9940 	call	180e994 <alt_get_errno>
 180e838:	1007883a 	mov	r3,r2
 180e83c:	008002c4 	movi	r2,11
 180e840:	18800015 	stw	r2,0(r3)
        break;
 180e844:	00003206 	br	180e910 <altera_avalon_uart_write+0x144>
static ALT_INLINE alt_irq_context ALT_ALWAYS_INLINE 
       alt_irq_disable_all (void)
{
  alt_irq_context context;

  NIOS2_READ_STATUS (context);
 180e848:	0005303a 	rdctl	r2,status
 180e84c:	e0bff715 	stw	r2,-36(fp)

  NIOS2_WRITE_STATUS (context & ~NIOS2_STATUS_PIE_MSK);
 180e850:	e0fff717 	ldw	r3,-36(fp)
 180e854:	00bfff84 	movi	r2,-2
 180e858:	1884703a 	and	r2,r3,r2
 180e85c:	1001703a 	wrctl	status,r2
  
  return context;
 180e860:	e0bff717 	ldw	r2,-36(fp)
      {
        /* Block waiting for space in the circular buffer */

        /* First, ensure transmit interrupts are enabled to avoid deadlock */

        context = alt_irq_disable_all ();
 180e864:	e0bffb15 	stw	r2,-20(fp)
        sp->ctrl |= (ALTERA_AVALON_UART_CONTROL_TRDY_MSK |
 180e868:	e0bffc17 	ldw	r2,-16(fp)
 180e86c:	10800117 	ldw	r2,4(r2)
 180e870:	10c11014 	ori	r3,r2,1088
 180e874:	e0bffc17 	ldw	r2,-16(fp)
 180e878:	10c00115 	stw	r3,4(r2)
                        ALTERA_AVALON_UART_CONTROL_DCTS_MSK);
        IOWR_ALTERA_AVALON_UART_CONTROL(sp->base, sp->ctrl);
 180e87c:	e0bffc17 	ldw	r2,-16(fp)
 180e880:	10800017 	ldw	r2,0(r2)
 180e884:	11000304 	addi	r4,r2,12
 180e888:	e0bffc17 	ldw	r2,-16(fp)
 180e88c:	10800117 	ldw	r2,4(r2)
 180e890:	1007883a 	mov	r3,r2
 180e894:	2005883a 	mov	r2,r4
 180e898:	10c00035 	stwio	r3,0(r2)
 180e89c:	e0bffb17 	ldw	r2,-20(fp)
 180e8a0:	e0bff615 	stw	r2,-40(fp)
  status &= ~NIOS2_STATUS_PIE_MSK;
  status |= (context & NIOS2_STATUS_PIE_MSK);
  
  NIOS2_WRITE_STATUS (status);
#else
  NIOS2_WRITE_STATUS (context);
 180e8a4:	e0bff617 	ldw	r2,-40(fp)
 180e8a8:	1001703a 	wrctl	status,r2
          ALT_FLAG_PEND (sp->events, 
                         ALT_UART_WRITE_RDY,
                         OS_FLAG_WAIT_SET_ANY + OS_FLAG_CONSUME,
                         0);
        }
        while ((next == sp->tx_start));
 180e8ac:	e0bffc17 	ldw	r2,-16(fp)
 180e8b0:	10c00417 	ldw	r3,16(r2)
 180e8b4:	e0bff917 	ldw	r2,-28(fp)
 180e8b8:	18bffc26 	beq	r3,r2,180e8ac <altera_avalon_uart_write+0xe0>
      }
    }

    count--;
 180e8bc:	e0bff817 	ldw	r2,-32(fp)
 180e8c0:	10bfffc4 	addi	r2,r2,-1
 180e8c4:	e0bff815 	stw	r2,-32(fp)

    /* Add the next character to the transmit buffer */

    sp->tx_buf[sp->tx_end] = *ptr++;
 180e8c8:	e0bffc17 	ldw	r2,-16(fp)
 180e8cc:	10c00517 	ldw	r3,20(r2)
 180e8d0:	e0bffd17 	ldw	r2,-12(fp)
 180e8d4:	10800003 	ldbu	r2,0(r2)
 180e8d8:	1009883a 	mov	r4,r2
 180e8dc:	e0bffc17 	ldw	r2,-16(fp)
 180e8e0:	1885883a 	add	r2,r3,r2
 180e8e4:	10801704 	addi	r2,r2,92
 180e8e8:	11000005 	stb	r4,0(r2)
 180e8ec:	e0bffd17 	ldw	r2,-12(fp)
 180e8f0:	10800044 	addi	r2,r2,1
 180e8f4:	e0bffd15 	stw	r2,-12(fp)
    sp->tx_end = next;
 180e8f8:	e0fffc17 	ldw	r3,-16(fp)
 180e8fc:	e0bff917 	ldw	r2,-28(fp)
 180e900:	18800515 	stw	r2,20(r3)
   * Loop transferring data from the input buffer to the transmit circular
   * buffer. The loop is terminated once all the data has been transferred,
   * or, (if in non-blocking mode) the buffer becomes full.
   */

  while (count)
 180e904:	e0bff817 	ldw	r2,-32(fp)
 180e908:	1004c03a 	cmpne	r2,r2,zero
 180e90c:	103fbd1e 	bne	r2,zero,180e804 <altera_avalon_uart_write+0x38>
static ALT_INLINE alt_irq_context ALT_ALWAYS_INLINE 
       alt_irq_disable_all (void)
{
  alt_irq_context context;

  NIOS2_READ_STATUS (context);
 180e910:	0005303a 	rdctl	r2,status
 180e914:	e0bff515 	stw	r2,-44(fp)

  NIOS2_WRITE_STATUS (context & ~NIOS2_STATUS_PIE_MSK);
 180e918:	e0fff517 	ldw	r3,-44(fp)
 180e91c:	00bfff84 	movi	r2,-2
 180e920:	1884703a 	and	r2,r3,r2
 180e924:	1001703a 	wrctl	status,r2
  
  return context;
 180e928:	e0bff517 	ldw	r2,-44(fp)
  /* 
   * Ensure that interrupts are enabled, so that the circular buffer can 
   * drain.
   */

  context = alt_irq_disable_all ();
 180e92c:	e0bffb15 	stw	r2,-20(fp)
  sp->ctrl |= ALTERA_AVALON_UART_CONTROL_TRDY_MSK |
 180e930:	e0bffc17 	ldw	r2,-16(fp)
 180e934:	10800117 	ldw	r2,4(r2)
 180e938:	10c11014 	ori	r3,r2,1088
 180e93c:	e0bffc17 	ldw	r2,-16(fp)
 180e940:	10c00115 	stw	r3,4(r2)
                 ALTERA_AVALON_UART_CONTROL_DCTS_MSK;
  IOWR_ALTERA_AVALON_UART_CONTROL(sp->base, sp->ctrl);
 180e944:	e0bffc17 	ldw	r2,-16(fp)
 180e948:	10800017 	ldw	r2,0(r2)
 180e94c:	11000304 	addi	r4,r2,12
 180e950:	e0bffc17 	ldw	r2,-16(fp)
 180e954:	10800117 	ldw	r2,4(r2)
 180e958:	1007883a 	mov	r3,r2
 180e95c:	2005883a 	mov	r2,r4
 180e960:	10c00035 	stwio	r3,0(r2)
 180e964:	e0bffb17 	ldw	r2,-20(fp)
 180e968:	e0bff415 	stw	r2,-48(fp)
  status &= ~NIOS2_STATUS_PIE_MSK;
  status |= (context & NIOS2_STATUS_PIE_MSK);
  
  NIOS2_WRITE_STATUS (status);
#else
  NIOS2_WRITE_STATUS (context);
 180e96c:	e0bff417 	ldw	r2,-48(fp)
 180e970:	1001703a 	wrctl	status,r2
  alt_irq_enable_all (context);

  /* return the number of bytes written */

  return (len - count);
 180e974:	e0fffe17 	ldw	r3,-8(fp)
 180e978:	e0bff817 	ldw	r2,-32(fp)
 180e97c:	1885c83a 	sub	r2,r3,r2
}
 180e980:	e037883a 	mov	sp,fp
 180e984:	dfc00117 	ldw	ra,4(sp)
 180e988:	df000017 	ldw	fp,0(sp)
 180e98c:	dec00204 	addi	sp,sp,8
 180e990:	f800283a 	ret

0180e994 <alt_get_errno>:
#undef errno

extern int errno;

static ALT_INLINE int* alt_get_errno(void)
{
 180e994:	defffd04 	addi	sp,sp,-12
 180e998:	dfc00215 	stw	ra,8(sp)
 180e99c:	df000115 	stw	fp,4(sp)
 180e9a0:	df000104 	addi	fp,sp,4
  return ((alt_errno) ? alt_errno() : &errno);
 180e9a4:	00806074 	movhi	r2,385
 180e9a8:	108aef04 	addi	r2,r2,11196
 180e9ac:	10800017 	ldw	r2,0(r2)
 180e9b0:	1005003a 	cmpeq	r2,r2,zero
 180e9b4:	1000061e 	bne	r2,zero,180e9d0 <alt_get_errno+0x3c>
 180e9b8:	00806074 	movhi	r2,385
 180e9bc:	108aef04 	addi	r2,r2,11196
 180e9c0:	10800017 	ldw	r2,0(r2)
 180e9c4:	103ee83a 	callr	r2
 180e9c8:	e0bfff15 	stw	r2,-4(fp)
 180e9cc:	00000306 	br	180e9dc <alt_get_errno+0x48>
 180e9d0:	00806074 	movhi	r2,385
 180e9d4:	108afe04 	addi	r2,r2,11256
 180e9d8:	e0bfff15 	stw	r2,-4(fp)
 180e9dc:	e0bfff17 	ldw	r2,-4(fp)
}
 180e9e0:	e037883a 	mov	sp,fp
 180e9e4:	dfc00117 	ldw	ra,4(sp)
 180e9e8:	df000017 	ldw	fp,0(sp)
 180e9ec:	dec00204 	addi	sp,sp,8
 180e9f0:	f800283a 	ret

0180e9f4 <alt_alarm_start>:
 */ 

int alt_alarm_start (alt_alarm* alarm, alt_u32 nticks,
                     alt_u32 (*callback) (void* context),
                     void* context)
{
 180e9f4:	defff404 	addi	sp,sp,-48
 180e9f8:	df000b15 	stw	fp,44(sp)
 180e9fc:	df000b04 	addi	fp,sp,44
 180ea00:	e13ffb15 	stw	r4,-20(fp)
 180ea04:	e17ffc15 	stw	r5,-16(fp)
 180ea08:	e1bffd15 	stw	r6,-12(fp)
 180ea0c:	e1fffe15 	stw	r7,-8(fp)
  alt_irq_context irq_context;
  alt_u32 current_nticks = 0;
 180ea10:	e03ff915 	stw	zero,-28(fp)
 * Obtain the system clock rate in ticks/s. 
 */

static ALT_INLINE alt_u32 ALT_ALWAYS_INLINE alt_ticks_per_second (void)
{
  return _alt_tick_rate;
 180ea14:	00806074 	movhi	r2,385
 180ea18:	108b0304 	addi	r2,r2,11276
 180ea1c:	10800017 	ldw	r2,0(r2)
  
  if (alt_ticks_per_second ())
 180ea20:	1005003a 	cmpeq	r2,r2,zero
 180ea24:	1000411e 	bne	r2,zero,180eb2c <alt_alarm_start+0x138>
  {
    if (alarm)
 180ea28:	e0bffb17 	ldw	r2,-20(fp)
 180ea2c:	1005003a 	cmpeq	r2,r2,zero
 180ea30:	10003b1e 	bne	r2,zero,180eb20 <alt_alarm_start+0x12c>
    {
      alarm->callback = callback;
 180ea34:	e0fffb17 	ldw	r3,-20(fp)
 180ea38:	e0bffd17 	ldw	r2,-12(fp)
 180ea3c:	18800315 	stw	r2,12(r3)
      alarm->context  = context;
 180ea40:	e0fffb17 	ldw	r3,-20(fp)
 180ea44:	e0bffe17 	ldw	r2,-8(fp)
 180ea48:	18800515 	stw	r2,20(r3)
static ALT_INLINE alt_irq_context ALT_ALWAYS_INLINE 
       alt_irq_disable_all (void)
{
  alt_irq_context context;

  NIOS2_READ_STATUS (context);
 180ea4c:	0005303a 	rdctl	r2,status
 180ea50:	e0bff815 	stw	r2,-32(fp)

  NIOS2_WRITE_STATUS (context & ~NIOS2_STATUS_PIE_MSK);
 180ea54:	e0fff817 	ldw	r3,-32(fp)
 180ea58:	00bfff84 	movi	r2,-2
 180ea5c:	1884703a 	and	r2,r3,r2
 180ea60:	1001703a 	wrctl	status,r2
  
  return context;
 180ea64:	e0bff817 	ldw	r2,-32(fp)
 
      irq_context = alt_irq_disable_all ();
 180ea68:	e0bffa15 	stw	r2,-24(fp)
 * alt_nticks() returns the elapsed number of system clock ticks since reset.
 */

static ALT_INLINE alt_u32 ALT_ALWAYS_INLINE alt_nticks (void)
{
  return _alt_nticks;
 180ea6c:	00806074 	movhi	r2,385
 180ea70:	108b0404 	addi	r2,r2,11280
 180ea74:	10800017 	ldw	r2,0(r2)
      
      current_nticks = alt_nticks();
 180ea78:	e0bff915 	stw	r2,-28(fp)
      
      alarm->time = nticks + current_nticks + 1; 
 180ea7c:	e0fffc17 	ldw	r3,-16(fp)
 180ea80:	e0bff917 	ldw	r2,-28(fp)
 180ea84:	1885883a 	add	r2,r3,r2
 180ea88:	10c00044 	addi	r3,r2,1
 180ea8c:	e0bffb17 	ldw	r2,-20(fp)
 180ea90:	10c00215 	stw	r3,8(r2)
      /* 
       * If the desired alarm time causes a roll-over, set the rollover
       * flag. This will prevent the subsequent tick event from causing
       * an alarm too early.
       */
      if(alarm->time < current_nticks)
 180ea94:	e0bffb17 	ldw	r2,-20(fp)
 180ea98:	10c00217 	ldw	r3,8(r2)
 180ea9c:	e0bff917 	ldw	r2,-28(fp)
 180eaa0:	1880042e 	bgeu	r3,r2,180eab4 <alt_alarm_start+0xc0>
      {
        alarm->rollover = 1;
 180eaa4:	e0fffb17 	ldw	r3,-20(fp)
 180eaa8:	00800044 	movi	r2,1
 180eaac:	18800405 	stb	r2,16(r3)
 180eab0:	00000206 	br	180eabc <alt_alarm_start+0xc8>
      }
      else
      {
        alarm->rollover = 0;
 180eab4:	e0bffb17 	ldw	r2,-20(fp)
 180eab8:	10000405 	stb	zero,16(r2)
      }
    
      alt_llist_insert (&alt_alarm_list, &alarm->llist);
 180eabc:	e0fffb17 	ldw	r3,-20(fp)
 180eac0:	00806074 	movhi	r2,385
 180eac4:	108af504 	addi	r2,r2,11220
 180eac8:	e0bff615 	stw	r2,-40(fp)
 180eacc:	e0fff715 	stw	r3,-36(fp)
 */

static ALT_INLINE void ALT_ALWAYS_INLINE alt_llist_insert(alt_llist* list, 
                alt_llist* entry)
{
  entry->previous = list;
 180ead0:	e0fff717 	ldw	r3,-36(fp)
 180ead4:	e0bff617 	ldw	r2,-40(fp)
 180ead8:	18800115 	stw	r2,4(r3)
  entry->next     = list->next;
 180eadc:	e0bff617 	ldw	r2,-40(fp)
 180eae0:	10c00017 	ldw	r3,0(r2)
 180eae4:	e0bff717 	ldw	r2,-36(fp)
 180eae8:	10c00015 	stw	r3,0(r2)

  list->next->previous = entry;
 180eaec:	e0bff617 	ldw	r2,-40(fp)
 180eaf0:	10c00017 	ldw	r3,0(r2)
 180eaf4:	e0bff717 	ldw	r2,-36(fp)
 180eaf8:	18800115 	stw	r2,4(r3)
  list->next           = entry;
 180eafc:	e0fff617 	ldw	r3,-40(fp)
 180eb00:	e0bff717 	ldw	r2,-36(fp)
 180eb04:	18800015 	stw	r2,0(r3)
 180eb08:	e0bffa17 	ldw	r2,-24(fp)
 180eb0c:	e0bff515 	stw	r2,-44(fp)
  status &= ~NIOS2_STATUS_PIE_MSK;
  status |= (context & NIOS2_STATUS_PIE_MSK);
  
  NIOS2_WRITE_STATUS (status);
#else
  NIOS2_WRITE_STATUS (context);
 180eb10:	e0bff517 	ldw	r2,-44(fp)
 180eb14:	1001703a 	wrctl	status,r2
      alt_irq_enable_all (irq_context);

      return 0;
 180eb18:	e03fff15 	stw	zero,-4(fp)
 180eb1c:	00000506 	br	180eb34 <alt_alarm_start+0x140>
    }
    else
    {
      return -EINVAL;
 180eb20:	00bffa84 	movi	r2,-22
 180eb24:	e0bfff15 	stw	r2,-4(fp)
 180eb28:	00000206 	br	180eb34 <alt_alarm_start+0x140>
    }
  }
  else
  {
    return -ENOTSUP;
 180eb2c:	00bfde84 	movi	r2,-134
 180eb30:	e0bfff15 	stw	r2,-4(fp)
 180eb34:	e0bfff17 	ldw	r2,-4(fp)
  }
}
 180eb38:	e037883a 	mov	sp,fp
 180eb3c:	df000017 	ldw	fp,0(sp)
 180eb40:	dec00104 	addi	sp,sp,4
 180eb44:	f800283a 	ret

0180eb48 <alt_busy_sleep>:
#include "alt_types.h"

#include "priv/alt_busy_sleep.h"

unsigned int alt_busy_sleep (unsigned int us)
{
 180eb48:	defffb04 	addi	sp,sp,-20
 180eb4c:	df000415 	stw	fp,16(sp)
 180eb50:	df000404 	addi	fp,sp,16
 180eb54:	e13fff15 	stw	r4,-4(fp)
  {
    cycles_per_loop = 9;
  }
  else  
  {
    cycles_per_loop = 3;
 180eb58:	008000c4 	movi	r2,3
 180eb5c:	e0bffc15 	stw	r2,-16(fp)
  }
  

  big_loops = us / (INT_MAX/
 180eb60:	e0fffc17 	ldw	r3,-16(fp)
 180eb64:	008003f4 	movhi	r2,15
 180eb68:	10909004 	addi	r2,r2,16960
 180eb6c:	1887383a 	mul	r3,r3,r2
 180eb70:	0080bef4 	movhi	r2,763
 180eb74:	10bc2004 	addi	r2,r2,-3968
 180eb78:	10c7203a 	divu	r3,r2,r3
 180eb7c:	00a00034 	movhi	r2,32768
 180eb80:	10bfffc4 	addi	r2,r2,-1
 180eb84:	10c7203a 	divu	r3,r2,r3
 180eb88:	e0bfff17 	ldw	r2,-4(fp)
 180eb8c:	10c5203a 	divu	r2,r2,r3
 180eb90:	e0bffd15 	stw	r2,-12(fp)
  (ALT_CPU_FREQ/(cycles_per_loop * 1000000)));

  if (big_loops)
 180eb94:	e0bffd17 	ldw	r2,-12(fp)
 180eb98:	1005003a 	cmpeq	r2,r2,zero
 180eb9c:	1000251e 	bne	r2,zero,180ec34 <alt_busy_sleep+0xec>
  {
    for(i=0;i<big_loops;i++)
 180eba0:	e03ffe15 	stw	zero,-8(fp)
 180eba4:	00001406 	br	180ebf8 <alt_busy_sleep+0xb0>
      /*
      * Do NOT Try to single step the asm statement below 
      * (single step will never return)
      * Step out of this function or set a breakpoint after the asm statements
      */
      __asm__ volatile (
 180eba8:	00a00034 	movhi	r2,32768
 180ebac:	10bfffc4 	addi	r2,r2,-1
 180ebb0:	10bfffc4 	addi	r2,r2,-1
 180ebb4:	103ffe1e 	bne	r2,zero,180ebb0 <alt_busy_sleep+0x68>
        "\n1:"
        "\n\t.pushsection .debug_alt_sim_info"
        "\n\t.int 4, 0, 0b, 1b"
        "\n\t.popsection"
        :: "r" (INT_MAX));
      us -= (INT_MAX/(ALT_CPU_FREQ/
 180ebb8:	e0fffc17 	ldw	r3,-16(fp)
 180ebbc:	008003f4 	movhi	r2,15
 180ebc0:	10909004 	addi	r2,r2,16960
 180ebc4:	1887383a 	mul	r3,r3,r2
 180ebc8:	0080bef4 	movhi	r2,763
 180ebcc:	10bc2004 	addi	r2,r2,-3968
 180ebd0:	10c7203a 	divu	r3,r2,r3
 180ebd4:	00a00034 	movhi	r2,32768
 180ebd8:	10bfffc4 	addi	r2,r2,-1
 180ebdc:	10c7203a 	divu	r3,r2,r3
 180ebe0:	e0bfff17 	ldw	r2,-4(fp)
 180ebe4:	10c5c83a 	sub	r2,r2,r3
 180ebe8:	e0bfff15 	stw	r2,-4(fp)
  big_loops = us / (INT_MAX/
  (ALT_CPU_FREQ/(cycles_per_loop * 1000000)));

  if (big_loops)
  {
    for(i=0;i<big_loops;i++)
 180ebec:	e0bffe17 	ldw	r2,-8(fp)
 180ebf0:	10800044 	addi	r2,r2,1
 180ebf4:	e0bffe15 	stw	r2,-8(fp)
 180ebf8:	e0fffe17 	ldw	r3,-8(fp)
 180ebfc:	e0bffd17 	ldw	r2,-12(fp)
 180ec00:	18bfe916 	blt	r3,r2,180eba8 <alt_busy_sleep+0x60>
    /*
    * Do NOT Try to single step the asm statement below 
    * (single step will never return)
    * Step out of this function or set a breakpoint after the asm statements
    */
    __asm__ volatile (
 180ec04:	e0fffc17 	ldw	r3,-16(fp)
 180ec08:	008003f4 	movhi	r2,15
 180ec0c:	10909004 	addi	r2,r2,16960
 180ec10:	1887383a 	mul	r3,r3,r2
 180ec14:	0080bef4 	movhi	r2,763
 180ec18:	10bc2004 	addi	r2,r2,-3968
 180ec1c:	10c7203a 	divu	r3,r2,r3
 180ec20:	e0bfff17 	ldw	r2,-4(fp)
 180ec24:	1885383a 	mul	r2,r3,r2
 180ec28:	10bfffc4 	addi	r2,r2,-1
 180ec2c:	103ffe1e 	bne	r2,zero,180ec28 <alt_busy_sleep+0xe0>
 180ec30:	00000b06 	br	180ec60 <alt_busy_sleep+0x118>
    /*
    * Do NOT Try to single step the asm statement below 
    * (single step will never return)
    * Step out of this function or set a breakpoint after the asm statements
    */
    __asm__ volatile (
 180ec34:	e0fffc17 	ldw	r3,-16(fp)
 180ec38:	008003f4 	movhi	r2,15
 180ec3c:	10909004 	addi	r2,r2,16960
 180ec40:	1887383a 	mul	r3,r3,r2
 180ec44:	0080bef4 	movhi	r2,763
 180ec48:	10bc2004 	addi	r2,r2,-3968
 180ec4c:	10c7203a 	divu	r3,r2,r3
 180ec50:	e0bfff17 	ldw	r2,-4(fp)
 180ec54:	1885383a 	mul	r2,r3,r2
 180ec58:	10bfffc4 	addi	r2,r2,-1
 180ec5c:	00bffe16 	blt	zero,r2,180ec58 <alt_busy_sleep+0x110>
      "\n\t.int 4, 0, 0b, 1b"
      "\n\t.popsection"
      :: "r" (us*(ALT_CPU_FREQ/(cycles_per_loop * 1000000))));
  }
#endif /* #ifndef ALT_SIM_OPTIMIZE */
  return 0;
 180ec60:	0005883a 	mov	r2,zero
}
 180ec64:	e037883a 	mov	sp,fp
 180ec68:	df000017 	ldw	fp,0(sp)
 180ec6c:	dec00104 	addi	sp,sp,4
 180ec70:	f800283a 	ret

0180ec74 <alt_dcache_flush>:
 *
 * Any dirty lines in the data cache are written back to memory.
 */

void alt_dcache_flush (void* start, alt_u32 len)
{
 180ec74:	defffb04 	addi	sp,sp,-20
 180ec78:	df000415 	stw	fp,16(sp)
 180ec7c:	df000404 	addi	fp,sp,16
 180ec80:	e13ffe15 	stw	r4,-8(fp)
 180ec84:	e17fff15 	stw	r5,-4(fp)
  {
    len = NIOS2_DCACHE_SIZE;
  }
  #endif

  end = ((char*) start) + len; 
 180ec88:	e0fffe17 	ldw	r3,-8(fp)
 180ec8c:	e0bfff17 	ldw	r2,-4(fp)
 180ec90:	1885883a 	add	r2,r3,r2
 180ec94:	e0bffc15 	stw	r2,-16(fp)

  for (i = start; i < end; i+= NIOS2_DCACHE_LINE_SIZE)
 180ec98:	e0bffe17 	ldw	r2,-8(fp)
 180ec9c:	e0bffd15 	stw	r2,-12(fp)
 180eca0:	00000506 	br	180ecb8 <alt_dcache_flush+0x44>
  { 
    ALT_FLUSH_DATA(i); 
 180eca4:	e0bffd17 	ldw	r2,-12(fp)
 180eca8:	1000001b 	flushda	0(r2)
  }
  #endif

  end = ((char*) start) + len; 

  for (i = start; i < end; i+= NIOS2_DCACHE_LINE_SIZE)
 180ecac:	e0bffd17 	ldw	r2,-12(fp)
 180ecb0:	10800804 	addi	r2,r2,32
 180ecb4:	e0bffd15 	stw	r2,-12(fp)
 180ecb8:	e0fffd17 	ldw	r3,-12(fp)
 180ecbc:	e0bffc17 	ldw	r2,-16(fp)
 180ecc0:	18bff836 	bltu	r3,r2,180eca4 <alt_dcache_flush+0x30>
   * For an unaligned flush request, we've got one more line left.
   * Note that this is dependent on NIOS2_DCACHE_LINE_SIZE to be a 
   * multiple of 2 (which it always is).
   */

  if (((alt_u32) start) & (NIOS2_DCACHE_LINE_SIZE - 1))
 180ecc4:	e0bffe17 	ldw	r2,-8(fp)
 180ecc8:	108007cc 	andi	r2,r2,31
 180eccc:	1005003a 	cmpeq	r2,r2,zero
 180ecd0:	1000021e 	bne	r2,zero,180ecdc <alt_dcache_flush+0x68>
  {
    ALT_FLUSH_DATA(i);
 180ecd4:	e0bffd17 	ldw	r2,-12(fp)
 180ecd8:	1000001b 	flushda	0(r2)
  }

#endif /* NIOS2_DCACHE_SIZE > 0 */
}
 180ecdc:	e037883a 	mov	sp,fp
 180ece0:	df000017 	ldw	fp,0(sp)
 180ece4:	dec00104 	addi	sp,sp,4
 180ece8:	f800283a 	ret

0180ecec <alt_dev_llist_insert>:
/*
 *
 */

int alt_dev_llist_insert (alt_dev_llist* dev, alt_llist* list)
{
 180ecec:	defff904 	addi	sp,sp,-28
 180ecf0:	dfc00615 	stw	ra,24(sp)
 180ecf4:	df000515 	stw	fp,20(sp)
 180ecf8:	df000504 	addi	fp,sp,20
 180ecfc:	e13ffd15 	stw	r4,-12(fp)
 180ed00:	e17ffe15 	stw	r5,-8(fp)
  /*
   * check that the device exists, and that it has a valid name.
   */

  if (!dev || !dev->name)
 180ed04:	e0bffd17 	ldw	r2,-12(fp)
 180ed08:	1005003a 	cmpeq	r2,r2,zero
 180ed0c:	1000041e 	bne	r2,zero,180ed20 <alt_dev_llist_insert+0x34>
 180ed10:	e0bffd17 	ldw	r2,-12(fp)
 180ed14:	10800217 	ldw	r2,8(r2)
 180ed18:	1004c03a 	cmpne	r2,r2,zero
 180ed1c:	1000071e 	bne	r2,zero,180ed3c <alt_dev_llist_insert+0x50>
  {
    ALT_ERRNO = EINVAL;
 180ed20:	180eda00 	call	180eda0 <alt_get_errno>
 180ed24:	1007883a 	mov	r3,r2
 180ed28:	00800584 	movi	r2,22
 180ed2c:	18800015 	stw	r2,0(r3)
    return -EINVAL;
 180ed30:	00bffa84 	movi	r2,-22
 180ed34:	e0bfff15 	stw	r2,-4(fp)
 180ed38:	00001306 	br	180ed88 <alt_dev_llist_insert+0x9c>
  
  /*
   * register the device.
   */
  
  alt_llist_insert(list, &dev->llist);
 180ed3c:	e0fffd17 	ldw	r3,-12(fp)
 180ed40:	e0bffe17 	ldw	r2,-8(fp)
 180ed44:	e0bffb15 	stw	r2,-20(fp)
 180ed48:	e0fffc15 	stw	r3,-16(fp)
 */

static ALT_INLINE void ALT_ALWAYS_INLINE alt_llist_insert(alt_llist* list, 
                alt_llist* entry)
{
  entry->previous = list;
 180ed4c:	e0fffc17 	ldw	r3,-16(fp)
 180ed50:	e0bffb17 	ldw	r2,-20(fp)
 180ed54:	18800115 	stw	r2,4(r3)
  entry->next     = list->next;
 180ed58:	e0bffb17 	ldw	r2,-20(fp)
 180ed5c:	10c00017 	ldw	r3,0(r2)
 180ed60:	e0bffc17 	ldw	r2,-16(fp)
 180ed64:	10c00015 	stw	r3,0(r2)

  list->next->previous = entry;
 180ed68:	e0bffb17 	ldw	r2,-20(fp)
 180ed6c:	10c00017 	ldw	r3,0(r2)
 180ed70:	e0bffc17 	ldw	r2,-16(fp)
 180ed74:	18800115 	stw	r2,4(r3)
  list->next           = entry;
 180ed78:	e0fffb17 	ldw	r3,-20(fp)
 180ed7c:	e0bffc17 	ldw	r2,-16(fp)
 180ed80:	18800015 	stw	r2,0(r3)

  return 0;  
 180ed84:	e03fff15 	stw	zero,-4(fp)
 180ed88:	e0bfff17 	ldw	r2,-4(fp)
}
 180ed8c:	e037883a 	mov	sp,fp
 180ed90:	dfc00117 	ldw	ra,4(sp)
 180ed94:	df000017 	ldw	fp,0(sp)
 180ed98:	dec00204 	addi	sp,sp,8
 180ed9c:	f800283a 	ret

0180eda0 <alt_get_errno>:
#undef errno

extern int errno;

static ALT_INLINE int* alt_get_errno(void)
{
 180eda0:	defffd04 	addi	sp,sp,-12
 180eda4:	dfc00215 	stw	ra,8(sp)
 180eda8:	df000115 	stw	fp,4(sp)
 180edac:	df000104 	addi	fp,sp,4
  return ((alt_errno) ? alt_errno() : &errno);
 180edb0:	00806074 	movhi	r2,385
 180edb4:	108aef04 	addi	r2,r2,11196
 180edb8:	10800017 	ldw	r2,0(r2)
 180edbc:	1005003a 	cmpeq	r2,r2,zero
 180edc0:	1000061e 	bne	r2,zero,180eddc <alt_get_errno+0x3c>
 180edc4:	00806074 	movhi	r2,385
 180edc8:	108aef04 	addi	r2,r2,11196
 180edcc:	10800017 	ldw	r2,0(r2)
 180edd0:	103ee83a 	callr	r2
 180edd4:	e0bfff15 	stw	r2,-4(fp)
 180edd8:	00000306 	br	180ede8 <alt_get_errno+0x48>
 180eddc:	00806074 	movhi	r2,385
 180ede0:	108afe04 	addi	r2,r2,11256
 180ede4:	e0bfff15 	stw	r2,-4(fp)
 180ede8:	e0bfff17 	ldw	r2,-4(fp)
}
 180edec:	e037883a 	mov	sp,fp
 180edf0:	dfc00117 	ldw	ra,4(sp)
 180edf4:	df000017 	ldw	fp,0(sp)
 180edf8:	dec00204 	addi	sp,sp,8
 180edfc:	f800283a 	ret

0180ee00 <_do_ctors>:
/*
 * Run the C++ static constructors.
 */

void _do_ctors(void)
{
 180ee00:	defffd04 	addi	sp,sp,-12
 180ee04:	dfc00215 	stw	ra,8(sp)
 180ee08:	df000115 	stw	fp,4(sp)
 180ee0c:	df000104 	addi	fp,sp,4
  constructor* ctor;

  for (ctor = &__CTOR_END__[-1]; ctor >= __CTOR_LIST__; ctor--)
 180ee10:	00bfff04 	movi	r2,-4
 180ee14:	00c06074 	movhi	r3,385
 180ee18:	18c22a04 	addi	r3,r3,2216
 180ee1c:	1885883a 	add	r2,r3,r2
 180ee20:	e0bfff15 	stw	r2,-4(fp)
 180ee24:	00000606 	br	180ee40 <_do_ctors+0x40>
        (*ctor) (); 
 180ee28:	e0bfff17 	ldw	r2,-4(fp)
 180ee2c:	10800017 	ldw	r2,0(r2)
 180ee30:	103ee83a 	callr	r2

void _do_ctors(void)
{
  constructor* ctor;

  for (ctor = &__CTOR_END__[-1]; ctor >= __CTOR_LIST__; ctor--)
 180ee34:	e0bfff17 	ldw	r2,-4(fp)
 180ee38:	10bfff04 	addi	r2,r2,-4
 180ee3c:	e0bfff15 	stw	r2,-4(fp)
 180ee40:	e0ffff17 	ldw	r3,-4(fp)
 180ee44:	00806074 	movhi	r2,385
 180ee48:	10822904 	addi	r2,r2,2212
 180ee4c:	18bff62e 	bgeu	r3,r2,180ee28 <_do_ctors+0x28>
        (*ctor) (); 
}
 180ee50:	e037883a 	mov	sp,fp
 180ee54:	dfc00117 	ldw	ra,4(sp)
 180ee58:	df000017 	ldw	fp,0(sp)
 180ee5c:	dec00204 	addi	sp,sp,8
 180ee60:	f800283a 	ret

0180ee64 <_do_dtors>:
/*
 * Run the C++ static destructors.
 */

void _do_dtors(void)
{
 180ee64:	defffd04 	addi	sp,sp,-12
 180ee68:	dfc00215 	stw	ra,8(sp)
 180ee6c:	df000115 	stw	fp,4(sp)
 180ee70:	df000104 	addi	fp,sp,4
  destructor* dtor;

  for (dtor = &__DTOR_END__[-1]; dtor >= __DTOR_LIST__; dtor--)
 180ee74:	00bfff04 	movi	r2,-4
 180ee78:	00c06074 	movhi	r3,385
 180ee7c:	18c22a04 	addi	r3,r3,2216
 180ee80:	1885883a 	add	r2,r3,r2
 180ee84:	e0bfff15 	stw	r2,-4(fp)
 180ee88:	00000606 	br	180eea4 <_do_dtors+0x40>
        (*dtor) (); 
 180ee8c:	e0bfff17 	ldw	r2,-4(fp)
 180ee90:	10800017 	ldw	r2,0(r2)
 180ee94:	103ee83a 	callr	r2

void _do_dtors(void)
{
  destructor* dtor;

  for (dtor = &__DTOR_END__[-1]; dtor >= __DTOR_LIST__; dtor--)
 180ee98:	e0bfff17 	ldw	r2,-4(fp)
 180ee9c:	10bfff04 	addi	r2,r2,-4
 180eea0:	e0bfff15 	stw	r2,-4(fp)
 180eea4:	e0ffff17 	ldw	r3,-4(fp)
 180eea8:	00806074 	movhi	r2,385
 180eeac:	10822a04 	addi	r2,r2,2216
 180eeb0:	18bff62e 	bgeu	r3,r2,180ee8c <_do_dtors+0x28>
        (*dtor) (); 
}
 180eeb4:	e037883a 	mov	sp,fp
 180eeb8:	dfc00117 	ldw	ra,4(sp)
 180eebc:	df000017 	ldw	fp,0(sp)
 180eec0:	dec00204 	addi	sp,sp,8
 180eec4:	f800283a 	ret

0180eec8 <alt_flash_open_dev>:
#include "priv/alt_file.h"

ALT_LLIST_HEAD(alt_flash_dev_list);

alt_flash_fd* alt_flash_open_dev(const char* name)
{
 180eec8:	defffb04 	addi	sp,sp,-20
 180eecc:	dfc00415 	stw	ra,16(sp)
 180eed0:	df000315 	stw	fp,12(sp)
 180eed4:	df000304 	addi	fp,sp,12
 180eed8:	e13ffe15 	stw	r4,-8(fp)
  alt_flash_dev* dev = (alt_flash_dev*)alt_find_dev(name, &alt_flash_dev_list);
 180eedc:	e13ffe17 	ldw	r4,-8(fp)
 180eee0:	d1600e04 	addi	r5,gp,-32712
 180eee4:	18100e80 	call	18100e8 <alt_find_dev>
 180eee8:	e0bffd15 	stw	r2,-12(fp)

  if ((dev) && dev->open)
 180eeec:	e0bffd17 	ldw	r2,-12(fp)
 180eef0:	1005003a 	cmpeq	r2,r2,zero
 180eef4:	10000b1e 	bne	r2,zero,180ef24 <alt_flash_open_dev+0x5c>
 180eef8:	e0bffd17 	ldw	r2,-12(fp)
 180eefc:	10800317 	ldw	r2,12(r2)
 180ef00:	1005003a 	cmpeq	r2,r2,zero
 180ef04:	1000071e 	bne	r2,zero,180ef24 <alt_flash_open_dev+0x5c>
  {
    return dev->open(dev, name);
 180ef08:	e0bffd17 	ldw	r2,-12(fp)
 180ef0c:	10800317 	ldw	r2,12(r2)
 180ef10:	e13ffd17 	ldw	r4,-12(fp)
 180ef14:	e17ffe17 	ldw	r5,-8(fp)
 180ef18:	103ee83a 	callr	r2
 180ef1c:	e0bfff15 	stw	r2,-4(fp)
 180ef20:	00000206 	br	180ef2c <alt_flash_open_dev+0x64>
  }

  return dev;
 180ef24:	e0bffd17 	ldw	r2,-12(fp)
 180ef28:	e0bfff15 	stw	r2,-4(fp)
 180ef2c:	e0bfff17 	ldw	r2,-4(fp)
}
 180ef30:	e037883a 	mov	sp,fp
 180ef34:	dfc00117 	ldw	ra,4(sp)
 180ef38:	df000017 	ldw	fp,0(sp)
 180ef3c:	dec00204 	addi	sp,sp,8
 180ef40:	f800283a 	ret

0180ef44 <alt_flash_close_dev>:

void alt_flash_close_dev(alt_flash_fd* fd)
{
 180ef44:	defffd04 	addi	sp,sp,-12
 180ef48:	dfc00215 	stw	ra,8(sp)
 180ef4c:	df000115 	stw	fp,4(sp)
 180ef50:	df000104 	addi	fp,sp,4
 180ef54:	e13fff15 	stw	r4,-4(fp)
  if (fd && fd->close)
 180ef58:	e0bfff17 	ldw	r2,-4(fp)
 180ef5c:	1005003a 	cmpeq	r2,r2,zero
 180ef60:	1000081e 	bne	r2,zero,180ef84 <alt_flash_close_dev+0x40>
 180ef64:	e0bfff17 	ldw	r2,-4(fp)
 180ef68:	10800417 	ldw	r2,16(r2)
 180ef6c:	1005003a 	cmpeq	r2,r2,zero
 180ef70:	1000041e 	bne	r2,zero,180ef84 <alt_flash_close_dev+0x40>
  {
    fd->close(fd);
 180ef74:	e0bfff17 	ldw	r2,-4(fp)
 180ef78:	10800417 	ldw	r2,16(r2)
 180ef7c:	e13fff17 	ldw	r4,-4(fp)
 180ef80:	103ee83a 	callr	r2
  }
  return;
}
 180ef84:	e037883a 	mov	sp,fp
 180ef88:	dfc00117 	ldw	ra,4(sp)
 180ef8c:	df000017 	ldw	fp,0(sp)
 180ef90:	dec00204 	addi	sp,sp,8
 180ef94:	f800283a 	ret

0180ef98 <alt_ic_isr_register>:
  * @param irq              IRQ number
  * @return                 0 if successful, else error (-1)
  */
int alt_ic_isr_register(alt_u32 ic_id, alt_u32 irq, alt_isr_func isr, 
  void *isr_context, void *flags)
{
 180ef98:	defff904 	addi	sp,sp,-28
 180ef9c:	dfc00615 	stw	ra,24(sp)
 180efa0:	df000515 	stw	fp,20(sp)
 180efa4:	df000504 	addi	fp,sp,20
 180efa8:	e13ffc15 	stw	r4,-16(fp)
 180efac:	e17ffd15 	stw	r5,-12(fp)
 180efb0:	e1bffe15 	stw	r6,-8(fp)
 180efb4:	e1ffff15 	stw	r7,-4(fp)
    return alt_iic_isr_register(ic_id, irq, isr, isr_context, flags);
 180efb8:	e0800217 	ldw	r2,8(fp)
 180efbc:	d8800015 	stw	r2,0(sp)
 180efc0:	e13ffc17 	ldw	r4,-16(fp)
 180efc4:	e17ffd17 	ldw	r5,-12(fp)
 180efc8:	e1bffe17 	ldw	r6,-8(fp)
 180efcc:	e1ffff17 	ldw	r7,-4(fp)
 180efd0:	180f16c0 	call	180f16c <alt_iic_isr_register>
}  
 180efd4:	e037883a 	mov	sp,fp
 180efd8:	dfc00117 	ldw	ra,4(sp)
 180efdc:	df000017 	ldw	fp,0(sp)
 180efe0:	dec00204 	addi	sp,sp,8
 180efe4:	f800283a 	ret

0180efe8 <alt_ic_irq_enable>:
  * @param ic_id            Ignored.
  * @param irq              IRQ number
  * @return                 0 if successful, else error (-1)
  */
int alt_ic_irq_enable (alt_u32 ic_id, alt_u32 irq)
{
 180efe8:	defff904 	addi	sp,sp,-28
 180efec:	df000615 	stw	fp,24(sp)
 180eff0:	df000604 	addi	fp,sp,24
 180eff4:	e13ffe15 	stw	r4,-8(fp)
 180eff8:	e17fff15 	stw	r5,-4(fp)
 180effc:	e0bfff17 	ldw	r2,-4(fp)
 180f000:	e0bffc15 	stw	r2,-16(fp)
static ALT_INLINE alt_irq_context ALT_ALWAYS_INLINE 
       alt_irq_disable_all (void)
{
  alt_irq_context context;

  NIOS2_READ_STATUS (context);
 180f004:	0005303a 	rdctl	r2,status
 180f008:	e0bffb15 	stw	r2,-20(fp)

  NIOS2_WRITE_STATUS (context & ~NIOS2_STATUS_PIE_MSK);
 180f00c:	e0fffb17 	ldw	r3,-20(fp)
 180f010:	00bfff84 	movi	r2,-2
 180f014:	1884703a 	and	r2,r3,r2
 180f018:	1001703a 	wrctl	status,r2
  
  return context;
 180f01c:	e0bffb17 	ldw	r2,-20(fp)
static ALT_INLINE int ALT_ALWAYS_INLINE alt_irq_enable (alt_u32 id)
{
  alt_irq_context  status;
  extern volatile alt_u32 alt_irq_active;

  status = alt_irq_disable_all ();
 180f020:	e0bffd15 	stw	r2,-12(fp)

  alt_irq_active |= (1 << id);
 180f024:	e0fffc17 	ldw	r3,-16(fp)
 180f028:	00800044 	movi	r2,1
 180f02c:	10c4983a 	sll	r2,r2,r3
 180f030:	1007883a 	mov	r3,r2
 180f034:	00806074 	movhi	r2,385
 180f038:	108b0204 	addi	r2,r2,11272
 180f03c:	10800017 	ldw	r2,0(r2)
 180f040:	1886b03a 	or	r3,r3,r2
 180f044:	00806074 	movhi	r2,385
 180f048:	108b0204 	addi	r2,r2,11272
 180f04c:	10c00015 	stw	r3,0(r2)
  NIOS2_WRITE_IENABLE (alt_irq_active);
 180f050:	00806074 	movhi	r2,385
 180f054:	108b0204 	addi	r2,r2,11272
 180f058:	10800017 	ldw	r2,0(r2)
 180f05c:	100170fa 	wrctl	ienable,r2
 180f060:	e0bffd17 	ldw	r2,-12(fp)
 180f064:	e0bffa15 	stw	r2,-24(fp)
  status &= ~NIOS2_STATUS_PIE_MSK;
  status |= (context & NIOS2_STATUS_PIE_MSK);
  
  NIOS2_WRITE_STATUS (status);
#else
  NIOS2_WRITE_STATUS (context);
 180f068:	e0bffa17 	ldw	r2,-24(fp)
 180f06c:	1001703a 	wrctl	status,r2

  alt_irq_enable_all(status);

  return 0;
 180f070:	0005883a 	mov	r2,zero
    return alt_irq_enable(irq);
}
 180f074:	e037883a 	mov	sp,fp
 180f078:	df000017 	ldw	fp,0(sp)
 180f07c:	dec00104 	addi	sp,sp,4
 180f080:	f800283a 	ret

0180f084 <alt_ic_irq_disable>:
  * @param ic_id            Ignored.
  * @param irq              IRQ number
  * @return                 0 if successful, else error (-1)
  */
int alt_ic_irq_disable(alt_u32 ic_id, alt_u32 irq)
{
 180f084:	defff904 	addi	sp,sp,-28
 180f088:	df000615 	stw	fp,24(sp)
 180f08c:	df000604 	addi	fp,sp,24
 180f090:	e13ffe15 	stw	r4,-8(fp)
 180f094:	e17fff15 	stw	r5,-4(fp)
 180f098:	e0bfff17 	ldw	r2,-4(fp)
 180f09c:	e0bffc15 	stw	r2,-16(fp)
static ALT_INLINE alt_irq_context ALT_ALWAYS_INLINE 
       alt_irq_disable_all (void)
{
  alt_irq_context context;

  NIOS2_READ_STATUS (context);
 180f0a0:	0005303a 	rdctl	r2,status
 180f0a4:	e0bffb15 	stw	r2,-20(fp)

  NIOS2_WRITE_STATUS (context & ~NIOS2_STATUS_PIE_MSK);
 180f0a8:	e0fffb17 	ldw	r3,-20(fp)
 180f0ac:	00bfff84 	movi	r2,-2
 180f0b0:	1884703a 	and	r2,r3,r2
 180f0b4:	1001703a 	wrctl	status,r2
  
  return context;
 180f0b8:	e0bffb17 	ldw	r2,-20(fp)
static ALT_INLINE int ALT_ALWAYS_INLINE alt_irq_disable (alt_u32 id)
{
  alt_irq_context  status;
  extern volatile alt_u32 alt_irq_active;

  status = alt_irq_disable_all ();
 180f0bc:	e0bffd15 	stw	r2,-12(fp)

  alt_irq_active &= ~(1 << id);
 180f0c0:	e0fffc17 	ldw	r3,-16(fp)
 180f0c4:	00800044 	movi	r2,1
 180f0c8:	10c4983a 	sll	r2,r2,r3
 180f0cc:	0084303a 	nor	r2,zero,r2
 180f0d0:	1007883a 	mov	r3,r2
 180f0d4:	00806074 	movhi	r2,385
 180f0d8:	108b0204 	addi	r2,r2,11272
 180f0dc:	10800017 	ldw	r2,0(r2)
 180f0e0:	1886703a 	and	r3,r3,r2
 180f0e4:	00806074 	movhi	r2,385
 180f0e8:	108b0204 	addi	r2,r2,11272
 180f0ec:	10c00015 	stw	r3,0(r2)
  NIOS2_WRITE_IENABLE (alt_irq_active);
 180f0f0:	00806074 	movhi	r2,385
 180f0f4:	108b0204 	addi	r2,r2,11272
 180f0f8:	10800017 	ldw	r2,0(r2)
 180f0fc:	100170fa 	wrctl	ienable,r2
 180f100:	e0bffd17 	ldw	r2,-12(fp)
 180f104:	e0bffa15 	stw	r2,-24(fp)
  status &= ~NIOS2_STATUS_PIE_MSK;
  status |= (context & NIOS2_STATUS_PIE_MSK);
  
  NIOS2_WRITE_STATUS (status);
#else
  NIOS2_WRITE_STATUS (context);
 180f108:	e0bffa17 	ldw	r2,-24(fp)
 180f10c:	1001703a 	wrctl	status,r2

  alt_irq_enable_all(status);

  return 0;
 180f110:	0005883a 	mov	r2,zero
    return alt_irq_disable(irq);
}
 180f114:	e037883a 	mov	sp,fp
 180f118:	df000017 	ldw	fp,0(sp)
 180f11c:	dec00104 	addi	sp,sp,4
 180f120:	f800283a 	ret

0180f124 <alt_ic_irq_enabled>:
  * @param irq              IRQ number
  * @return                 Zero if corresponding interrupt is disabled and
  *                         non-zero otherwise.
  */
alt_u32 alt_ic_irq_enabled(alt_u32 ic_id, alt_u32 irq)
{
 180f124:	defffc04 	addi	sp,sp,-16
 180f128:	df000315 	stw	fp,12(sp)
 180f12c:	df000304 	addi	fp,sp,12
 180f130:	e13ffe15 	stw	r4,-8(fp)
 180f134:	e17fff15 	stw	r5,-4(fp)
    alt_u32 irq_enabled;

    NIOS2_READ_IENABLE(irq_enabled);
 180f138:	000530fa 	rdctl	r2,ienable
 180f13c:	e0bffd15 	stw	r2,-12(fp)

    return (irq_enabled & (1 << irq)) ? 1: 0;
 180f140:	e0ffff17 	ldw	r3,-4(fp)
 180f144:	00800044 	movi	r2,1
 180f148:	10c4983a 	sll	r2,r2,r3
 180f14c:	1007883a 	mov	r3,r2
 180f150:	e0bffd17 	ldw	r2,-12(fp)
 180f154:	1884703a 	and	r2,r3,r2
 180f158:	1004c03a 	cmpne	r2,r2,zero
}
 180f15c:	e037883a 	mov	sp,fp
 180f160:	df000017 	ldw	fp,0(sp)
 180f164:	dec00104 	addi	sp,sp,4
 180f168:	f800283a 	ret

0180f16c <alt_iic_isr_register>:
  * @param flags            
  * @return                 0 if successful, else error (-1)
  */
int alt_iic_isr_register(alt_u32 ic_id, alt_u32 irq, alt_isr_func isr, 
  void *isr_context, void *flags)
{
 180f16c:	defff404 	addi	sp,sp,-48
 180f170:	dfc00b15 	stw	ra,44(sp)
 180f174:	df000a15 	stw	fp,40(sp)
 180f178:	df000a04 	addi	fp,sp,40
 180f17c:	e13ffb15 	stw	r4,-20(fp)
 180f180:	e17ffc15 	stw	r5,-16(fp)
 180f184:	e1bffd15 	stw	r6,-12(fp)
 180f188:	e1fffe15 	stw	r7,-8(fp)
  int rc = -EINVAL;  
 180f18c:	00bffa84 	movi	r2,-22
 180f190:	e0bffa15 	stw	r2,-24(fp)
  int id = irq;             /* IRQ interpreted as the interrupt ID. */
 180f194:	e0bffc17 	ldw	r2,-16(fp)
 180f198:	e0bff915 	stw	r2,-28(fp)
  alt_irq_context status;

  if (id < ALT_NIRQ)
 180f19c:	e0bff917 	ldw	r2,-28(fp)
 180f1a0:	10800808 	cmpgei	r2,r2,32
 180f1a4:	1000291e 	bne	r2,zero,180f24c <alt_iic_isr_register+0xe0>
static ALT_INLINE alt_irq_context ALT_ALWAYS_INLINE 
       alt_irq_disable_all (void)
{
  alt_irq_context context;

  NIOS2_READ_STATUS (context);
 180f1a8:	0005303a 	rdctl	r2,status
 180f1ac:	e0bff715 	stw	r2,-36(fp)

  NIOS2_WRITE_STATUS (context & ~NIOS2_STATUS_PIE_MSK);
 180f1b0:	e0fff717 	ldw	r3,-36(fp)
 180f1b4:	00bfff84 	movi	r2,-2
 180f1b8:	1884703a 	and	r2,r3,r2
 180f1bc:	1001703a 	wrctl	status,r2
  
  return context;
 180f1c0:	e0bff717 	ldw	r2,-36(fp)
     * interrupts are disabled while the handler tables are updated to ensure
     * that an interrupt doesn't occur while the tables are in an inconsistant
     * state.
     */

    status = alt_irq_disable_all();
 180f1c4:	e0bff815 	stw	r2,-32(fp)

    alt_irq[id].handler = isr;
 180f1c8:	e0bff917 	ldw	r2,-28(fp)
 180f1cc:	00c06074 	movhi	r3,385
 180f1d0:	18cb1004 	addi	r3,r3,11328
 180f1d4:	100490fa 	slli	r2,r2,3
 180f1d8:	10c7883a 	add	r3,r2,r3
 180f1dc:	e0bffd17 	ldw	r2,-12(fp)
 180f1e0:	18800015 	stw	r2,0(r3)
    alt_irq[id].context = isr_context;
 180f1e4:	e0bff917 	ldw	r2,-28(fp)
 180f1e8:	00c06074 	movhi	r3,385
 180f1ec:	18cb1004 	addi	r3,r3,11328
 180f1f0:	100490fa 	slli	r2,r2,3
 180f1f4:	10c5883a 	add	r2,r2,r3
 180f1f8:	10c00104 	addi	r3,r2,4
 180f1fc:	e0bffe17 	ldw	r2,-8(fp)
 180f200:	18800015 	stw	r2,0(r3)

    rc = (isr) ? alt_ic_irq_enable(ic_id, id) : alt_ic_irq_disable(ic_id, id);
 180f204:	e0bffd17 	ldw	r2,-12(fp)
 180f208:	1005003a 	cmpeq	r2,r2,zero
 180f20c:	1000051e 	bne	r2,zero,180f224 <alt_iic_isr_register+0xb8>
 180f210:	e17ff917 	ldw	r5,-28(fp)
 180f214:	e13ffb17 	ldw	r4,-20(fp)
 180f218:	180efe80 	call	180efe8 <alt_ic_irq_enable>
 180f21c:	e0bfff15 	stw	r2,-4(fp)
 180f220:	00000406 	br	180f234 <alt_iic_isr_register+0xc8>
 180f224:	e17ff917 	ldw	r5,-28(fp)
 180f228:	e13ffb17 	ldw	r4,-20(fp)
 180f22c:	180f0840 	call	180f084 <alt_ic_irq_disable>
 180f230:	e0bfff15 	stw	r2,-4(fp)
 180f234:	e0bfff17 	ldw	r2,-4(fp)
 180f238:	e0bffa15 	stw	r2,-24(fp)
 180f23c:	e0bff817 	ldw	r2,-32(fp)
 180f240:	e0bff615 	stw	r2,-40(fp)
  status &= ~NIOS2_STATUS_PIE_MSK;
  status |= (context & NIOS2_STATUS_PIE_MSK);
  
  NIOS2_WRITE_STATUS (status);
#else
  NIOS2_WRITE_STATUS (context);
 180f244:	e0bff617 	ldw	r2,-40(fp)
 180f248:	1001703a 	wrctl	status,r2

    alt_irq_enable_all(status);
  }

  return rc; 
 180f24c:	e0bffa17 	ldw	r2,-24(fp)
}
 180f250:	e037883a 	mov	sp,fp
 180f254:	dfc00117 	ldw	ra,4(sp)
 180f258:	df000017 	ldw	fp,0(sp)
 180f25c:	dec00204 	addi	sp,sp,8
 180f260:	f800283a 	ret

0180f264 <alt_open_fd>:
 * If the device can not be succesfully opened, then the input file descriptor
 * remains unchanged.
 */

static void alt_open_fd(alt_fd* fd, const char* name, int flags, int mode)
{
 180f264:	defff904 	addi	sp,sp,-28
 180f268:	dfc00615 	stw	ra,24(sp)
 180f26c:	df000515 	stw	fp,20(sp)
 180f270:	df000504 	addi	fp,sp,20
 180f274:	e13ffc15 	stw	r4,-16(fp)
 180f278:	e17ffd15 	stw	r5,-12(fp)
 180f27c:	e1bffe15 	stw	r6,-8(fp)
 180f280:	e1ffff15 	stw	r7,-4(fp)
  int old;

  old = open (name, flags, mode);
 180f284:	e13ffd17 	ldw	r4,-12(fp)
 180f288:	e17ffe17 	ldw	r5,-8(fp)
 180f28c:	e1bfff17 	ldw	r6,-4(fp)
 180f290:	180f47c0 	call	180f47c <open>
 180f294:	e0bffb15 	stw	r2,-20(fp)

  if (old >= 0)
 180f298:	e0bffb17 	ldw	r2,-20(fp)
 180f29c:	1004803a 	cmplt	r2,r2,zero
 180f2a0:	10001c1e 	bne	r2,zero,180f314 <alt_open_fd+0xb0>
  {
    fd->dev      = alt_fd_list[old].dev;
 180f2a4:	e0bffb17 	ldw	r2,-20(fp)
 180f2a8:	00c06074 	movhi	r3,385
 180f2ac:	18c5bd04 	addi	r3,r3,5876
 180f2b0:	10800324 	muli	r2,r2,12
 180f2b4:	10c5883a 	add	r2,r2,r3
 180f2b8:	10c00017 	ldw	r3,0(r2)
 180f2bc:	e0bffc17 	ldw	r2,-16(fp)
 180f2c0:	10c00015 	stw	r3,0(r2)
    fd->priv     = alt_fd_list[old].priv;
 180f2c4:	e0bffb17 	ldw	r2,-20(fp)
 180f2c8:	00c06074 	movhi	r3,385
 180f2cc:	18c5bd04 	addi	r3,r3,5876
 180f2d0:	10800324 	muli	r2,r2,12
 180f2d4:	10c5883a 	add	r2,r2,r3
 180f2d8:	10800104 	addi	r2,r2,4
 180f2dc:	10c00017 	ldw	r3,0(r2)
 180f2e0:	e0bffc17 	ldw	r2,-16(fp)
 180f2e4:	10c00115 	stw	r3,4(r2)
    fd->fd_flags = alt_fd_list[old].fd_flags;
 180f2e8:	e0bffb17 	ldw	r2,-20(fp)
 180f2ec:	00c06074 	movhi	r3,385
 180f2f0:	18c5bd04 	addi	r3,r3,5876
 180f2f4:	10800324 	muli	r2,r2,12
 180f2f8:	10c5883a 	add	r2,r2,r3
 180f2fc:	10800204 	addi	r2,r2,8
 180f300:	10c00017 	ldw	r3,0(r2)
 180f304:	e0bffc17 	ldw	r2,-16(fp)
 180f308:	10c00215 	stw	r3,8(r2)

    alt_release_fd (old);
 180f30c:	e13ffb17 	ldw	r4,-20(fp)
 180f310:	180a46c0 	call	180a46c <alt_release_fd>
  }
} 
 180f314:	e037883a 	mov	sp,fp
 180f318:	dfc00117 	ldw	ra,4(sp)
 180f31c:	df000017 	ldw	fp,0(sp)
 180f320:	dec00204 	addi	sp,sp,8
 180f324:	f800283a 	ret

0180f328 <alt_io_redirect>:
 */
 
void alt_io_redirect(const char* stdout_dev, 
                     const char* stdin_dev, 
                     const char* stderr_dev)
{
 180f328:	defffb04 	addi	sp,sp,-20
 180f32c:	dfc00415 	stw	ra,16(sp)
 180f330:	df000315 	stw	fp,12(sp)
 180f334:	df000304 	addi	fp,sp,12
 180f338:	e13ffd15 	stw	r4,-12(fp)
 180f33c:	e17ffe15 	stw	r5,-8(fp)
 180f340:	e1bfff15 	stw	r6,-4(fp)
  /* Redirect the channels */

  alt_open_fd (&alt_fd_list[STDOUT_FILENO], stdout_dev, O_WRONLY, 0777);
 180f344:	01006074 	movhi	r4,385
 180f348:	2105c004 	addi	r4,r4,5888
 180f34c:	e17ffd17 	ldw	r5,-12(fp)
 180f350:	01800044 	movi	r6,1
 180f354:	01c07fc4 	movi	r7,511
 180f358:	180f2640 	call	180f264 <alt_open_fd>
  alt_open_fd (&alt_fd_list[STDIN_FILENO], stdin_dev, O_RDONLY, 0777);
 180f35c:	01006074 	movhi	r4,385
 180f360:	2105bd04 	addi	r4,r4,5876
 180f364:	e17ffe17 	ldw	r5,-8(fp)
 180f368:	000d883a 	mov	r6,zero
 180f36c:	01c07fc4 	movi	r7,511
 180f370:	180f2640 	call	180f264 <alt_open_fd>
  alt_open_fd (&alt_fd_list[STDERR_FILENO], stderr_dev, O_WRONLY, 0777);
 180f374:	01006074 	movhi	r4,385
 180f378:	2105c304 	addi	r4,r4,5900
 180f37c:	e17fff17 	ldw	r5,-4(fp)
 180f380:	01800044 	movi	r6,1
 180f384:	01c07fc4 	movi	r7,511
 180f388:	180f2640 	call	180f264 <alt_open_fd>
}  
 180f38c:	e037883a 	mov	sp,fp
 180f390:	dfc00117 	ldw	ra,4(sp)
 180f394:	df000017 	ldw	fp,0(sp)
 180f398:	dec00204 	addi	sp,sp,8
 180f39c:	f800283a 	ret

0180f3a0 <alt_file_locked>:
 * performed for devices. Filesystems are required to handle the ioctl() call
 * themselves, and report the error from the filesystems open() function. 
 */ 

static int alt_file_locked (alt_fd* fd)
{
 180f3a0:	defffc04 	addi	sp,sp,-16
 180f3a4:	df000315 	stw	fp,12(sp)
 180f3a8:	df000304 	addi	fp,sp,12
 180f3ac:	e13ffe15 	stw	r4,-8(fp)

  /*
   * Mark the file descriptor as belonging to a device.
   */

  fd->fd_flags |= ALT_FD_DEV;
 180f3b0:	e0bffe17 	ldw	r2,-8(fp)
 180f3b4:	10800217 	ldw	r2,8(r2)
 180f3b8:	10d00034 	orhi	r3,r2,16384
 180f3bc:	e0bffe17 	ldw	r2,-8(fp)
 180f3c0:	10c00215 	stw	r3,8(r2)
  /*
   * Loop through all current file descriptors searching for one that's locked
   * for exclusive access. If a match is found, generate an error.
   */

  for (i = 0; i <= alt_max_fd; i++)
 180f3c4:	e03ffd15 	stw	zero,-12(fp)
 180f3c8:	00002006 	br	180f44c <alt_file_locked+0xac>
  {
    if ((alt_fd_list[i].dev == fd->dev) &&
 180f3cc:	e0bffd17 	ldw	r2,-12(fp)
 180f3d0:	00c06074 	movhi	r3,385
 180f3d4:	18c5bd04 	addi	r3,r3,5876
 180f3d8:	10800324 	muli	r2,r2,12
 180f3dc:	10c5883a 	add	r2,r2,r3
 180f3e0:	10c00017 	ldw	r3,0(r2)
 180f3e4:	e0bffe17 	ldw	r2,-8(fp)
 180f3e8:	10800017 	ldw	r2,0(r2)
 180f3ec:	1880141e 	bne	r3,r2,180f440 <alt_file_locked+0xa0>
 180f3f0:	e0bffd17 	ldw	r2,-12(fp)
 180f3f4:	00c06074 	movhi	r3,385
 180f3f8:	18c5bd04 	addi	r3,r3,5876
 180f3fc:	10800324 	muli	r2,r2,12
 180f400:	10c5883a 	add	r2,r2,r3
 180f404:	10800204 	addi	r2,r2,8
 180f408:	10800017 	ldw	r2,0(r2)
 180f40c:	1004403a 	cmpge	r2,r2,zero
 180f410:	10000b1e 	bne	r2,zero,180f440 <alt_file_locked+0xa0>
 180f414:	e0bffd17 	ldw	r2,-12(fp)
 180f418:	10800324 	muli	r2,r2,12
 180f41c:	1007883a 	mov	r3,r2
 180f420:	00806074 	movhi	r2,385
 180f424:	1085bd04 	addi	r2,r2,5876
 180f428:	1887883a 	add	r3,r3,r2
 180f42c:	e0bffe17 	ldw	r2,-8(fp)
 180f430:	18800326 	beq	r3,r2,180f440 <alt_file_locked+0xa0>
        (alt_fd_list[i].fd_flags & ALT_FD_EXCL) &&
        (&alt_fd_list[i] != fd))
    {
      return -EACCES;
 180f434:	00bffcc4 	movi	r2,-13
 180f438:	e0bfff15 	stw	r2,-4(fp)
 180f43c:	00000a06 	br	180f468 <alt_file_locked+0xc8>
  /*
   * Loop through all current file descriptors searching for one that's locked
   * for exclusive access. If a match is found, generate an error.
   */

  for (i = 0; i <= alt_max_fd; i++)
 180f440:	e0bffd17 	ldw	r2,-12(fp)
 180f444:	10800044 	addi	r2,r2,1
 180f448:	e0bffd15 	stw	r2,-12(fp)
 180f44c:	00806074 	movhi	r2,385
 180f450:	108aee04 	addi	r2,r2,11192
 180f454:	10800017 	ldw	r2,0(r2)
 180f458:	1007883a 	mov	r3,r2
 180f45c:	e0bffd17 	ldw	r2,-12(fp)
 180f460:	18bfda2e 	bgeu	r3,r2,180f3cc <alt_file_locked+0x2c>
    }
  }
  
  /* The device is not locked */
 
  return 0;
 180f464:	e03fff15 	stw	zero,-4(fp)
 180f468:	e0bfff17 	ldw	r2,-4(fp)
}
 180f46c:	e037883a 	mov	sp,fp
 180f470:	df000017 	ldw	fp,0(sp)
 180f474:	dec00104 	addi	sp,sp,4
 180f478:	f800283a 	ret

0180f47c <open>:
 *
 * ALT_OPEN is mapped onto the open() system call in alt_syscall.h
 */
 
int ALT_OPEN (const char* file, int flags, int mode)
{ 
 180f47c:	defff404 	addi	sp,sp,-48
 180f480:	dfc00b15 	stw	ra,44(sp)
 180f484:	df000a15 	stw	fp,40(sp)
 180f488:	df000a04 	addi	fp,sp,40
 180f48c:	e13ffb15 	stw	r4,-20(fp)
 180f490:	e17ffc15 	stw	r5,-16(fp)
 180f494:	e1bffd15 	stw	r6,-12(fp)
  alt_dev* dev;
  alt_fd*  fd;
  int index  = -1;
 180f498:	00bfffc4 	movi	r2,-1
 180f49c:	e0bff815 	stw	r2,-32(fp)
  int status = -ENODEV;
 180f4a0:	00bffb44 	movi	r2,-19
 180f4a4:	e0bff715 	stw	r2,-36(fp)
  int isafs = 0;
 180f4a8:	e03ff615 	stw	zero,-40(fp)
  /* 
   * Check the device list, to see if a device with a matching name is 
   * registered.
   */
  
  if (!(dev = alt_find_dev (file, &alt_dev_list)))
 180f4ac:	e13ffb17 	ldw	r4,-20(fp)
 180f4b0:	01406074 	movhi	r5,385
 180f4b4:	294aec04 	addi	r5,r5,11184
 180f4b8:	18100e80 	call	18100e8 <alt_find_dev>
 180f4bc:	e0bffa15 	stw	r2,-24(fp)
 180f4c0:	e0bffa17 	ldw	r2,-24(fp)
 180f4c4:	1004c03a 	cmpne	r2,r2,zero
 180f4c8:	1000051e 	bne	r2,zero,180f4e0 <open+0x64>
  {
    /* No matching device, so try the filesystem list */

    dev   = alt_find_file (file);
 180f4cc:	e13ffb17 	ldw	r4,-20(fp)
 180f4d0:	181017c0 	call	181017c <alt_find_file>
 180f4d4:	e0bffa15 	stw	r2,-24(fp)
    isafs = 1;
 180f4d8:	00800044 	movi	r2,1
 180f4dc:	e0bff615 	stw	r2,-40(fp)

  /* 
   * If a matching device or filesystem is found, allocate a file descriptor. 
   */

  if (dev)
 180f4e0:	e0bffa17 	ldw	r2,-24(fp)
 180f4e4:	1005003a 	cmpeq	r2,r2,zero
 180f4e8:	1000301e 	bne	r2,zero,180f5ac <open+0x130>
  {
    if ((index = alt_get_fd (dev)) < 0)
 180f4ec:	e13ffa17 	ldw	r4,-24(fp)
 180f4f0:	181029c0 	call	181029c <alt_get_fd>
 180f4f4:	e0bff815 	stw	r2,-32(fp)
 180f4f8:	e0bff817 	ldw	r2,-32(fp)
 180f4fc:	1004403a 	cmpge	r2,r2,zero
 180f500:	1000031e 	bne	r2,zero,180f510 <open+0x94>
    {
      status = index;
 180f504:	e0bff817 	ldw	r2,-32(fp)
 180f508:	e0bff715 	stw	r2,-36(fp)
 180f50c:	00002906 	br	180f5b4 <open+0x138>
    }
    else
    {
      fd = &alt_fd_list[index];
 180f510:	e0bff817 	ldw	r2,-32(fp)
 180f514:	10800324 	muli	r2,r2,12
 180f518:	1007883a 	mov	r3,r2
 180f51c:	00806074 	movhi	r2,385
 180f520:	1085bd04 	addi	r2,r2,5876
 180f524:	1885883a 	add	r2,r3,r2
 180f528:	e0bff915 	stw	r2,-28(fp)
      fd->fd_flags = (flags & ~ALT_FD_FLAGS_MASK);
 180f52c:	e0fffc17 	ldw	r3,-16(fp)
 180f530:	00900034 	movhi	r2,16384
 180f534:	10bfffc4 	addi	r2,r2,-1
 180f538:	1886703a 	and	r3,r3,r2
 180f53c:	e0bff917 	ldw	r2,-28(fp)
 180f540:	10c00215 	stw	r3,8(r2)
      
      /* If this is a device, ensure it isn't already locked */

      if (isafs || ((status = alt_file_locked (fd)) >= 0))
 180f544:	e0bff617 	ldw	r2,-40(fp)
 180f548:	1004c03a 	cmpne	r2,r2,zero
 180f54c:	1000061e 	bne	r2,zero,180f568 <open+0xec>
 180f550:	e13ff917 	ldw	r4,-28(fp)
 180f554:	180f3a00 	call	180f3a0 <alt_file_locked>
 180f558:	e0bff715 	stw	r2,-36(fp)
 180f55c:	e0bff717 	ldw	r2,-36(fp)
 180f560:	1004803a 	cmplt	r2,r2,zero
 180f564:	1000131e 	bne	r2,zero,180f5b4 <open+0x138>
        /* 
         * If the device or filesystem provides an open() callback function,
         * call it now to perform any device/filesystem specific operations.
         */
    
        status = (dev->open) ? dev->open(fd, file, flags, mode): 0;
 180f568:	e0bffa17 	ldw	r2,-24(fp)
 180f56c:	10800317 	ldw	r2,12(r2)
 180f570:	1005003a 	cmpeq	r2,r2,zero
 180f574:	1000091e 	bne	r2,zero,180f59c <open+0x120>
 180f578:	e0bffa17 	ldw	r2,-24(fp)
 180f57c:	10800317 	ldw	r2,12(r2)
 180f580:	e13ff917 	ldw	r4,-28(fp)
 180f584:	e17ffb17 	ldw	r5,-20(fp)
 180f588:	e1bffc17 	ldw	r6,-16(fp)
 180f58c:	e1fffd17 	ldw	r7,-12(fp)
 180f590:	103ee83a 	callr	r2
 180f594:	e0bfff15 	stw	r2,-4(fp)
 180f598:	00000106 	br	180f5a0 <open+0x124>
 180f59c:	e03fff15 	stw	zero,-4(fp)
 180f5a0:	e0bfff17 	ldw	r2,-4(fp)
 180f5a4:	e0bff715 	stw	r2,-36(fp)
 180f5a8:	00000206 	br	180f5b4 <open+0x138>
      }
    }
  }
  else
  {
    status = -ENODEV;
 180f5ac:	00bffb44 	movi	r2,-19
 180f5b0:	e0bff715 	stw	r2,-36(fp)
  }

  /* Allocation failed, so clean up and return an error */ 

  if (status < 0)
 180f5b4:	e0bff717 	ldw	r2,-36(fp)
 180f5b8:	1004403a 	cmpge	r2,r2,zero
 180f5bc:	1000091e 	bne	r2,zero,180f5e4 <open+0x168>
  {
    alt_release_fd (index);  
 180f5c0:	e13ff817 	ldw	r4,-32(fp)
 180f5c4:	180a46c0 	call	180a46c <alt_release_fd>
    ALT_ERRNO = -status;
 180f5c8:	180f6040 	call	180f604 <alt_get_errno>
 180f5cc:	e0fff717 	ldw	r3,-36(fp)
 180f5d0:	00c7c83a 	sub	r3,zero,r3
 180f5d4:	10c00015 	stw	r3,0(r2)
    return -1;
 180f5d8:	00bfffc4 	movi	r2,-1
 180f5dc:	e0bffe15 	stw	r2,-8(fp)
 180f5e0:	00000206 	br	180f5ec <open+0x170>
  }
  
  /* return the reference upon success */

  return index;
 180f5e4:	e0bff817 	ldw	r2,-32(fp)
 180f5e8:	e0bffe15 	stw	r2,-8(fp)
 180f5ec:	e0bffe17 	ldw	r2,-8(fp)
}
 180f5f0:	e037883a 	mov	sp,fp
 180f5f4:	dfc00117 	ldw	ra,4(sp)
 180f5f8:	df000017 	ldw	fp,0(sp)
 180f5fc:	dec00204 	addi	sp,sp,8
 180f600:	f800283a 	ret

0180f604 <alt_get_errno>:
#undef errno

extern int errno;

static ALT_INLINE int* alt_get_errno(void)
{
 180f604:	defffd04 	addi	sp,sp,-12
 180f608:	dfc00215 	stw	ra,8(sp)
 180f60c:	df000115 	stw	fp,4(sp)
 180f610:	df000104 	addi	fp,sp,4
  return ((alt_errno) ? alt_errno() : &errno);
 180f614:	00806074 	movhi	r2,385
 180f618:	108aef04 	addi	r2,r2,11196
 180f61c:	10800017 	ldw	r2,0(r2)
 180f620:	1005003a 	cmpeq	r2,r2,zero
 180f624:	1000061e 	bne	r2,zero,180f640 <alt_get_errno+0x3c>
 180f628:	00806074 	movhi	r2,385
 180f62c:	108aef04 	addi	r2,r2,11196
 180f630:	10800017 	ldw	r2,0(r2)
 180f634:	103ee83a 	callr	r2
 180f638:	e0bfff15 	stw	r2,-4(fp)
 180f63c:	00000306 	br	180f64c <alt_get_errno+0x48>
 180f640:	00806074 	movhi	r2,385
 180f644:	108afe04 	addi	r2,r2,11256
 180f648:	e0bfff15 	stw	r2,-4(fp)
 180f64c:	e0bfff17 	ldw	r2,-4(fp)
}
 180f650:	e037883a 	mov	sp,fp
 180f654:	dfc00117 	ldw	ra,4(sp)
 180f658:	df000017 	ldw	fp,0(sp)
 180f65c:	dec00204 	addi	sp,sp,8
 180f660:	f800283a 	ret

0180f664 <alt_alarm_stop>:
 * alarms. Alternatively an alarm can unregister itself by returning zero when 
 * the alarm executes.
 */

void alt_alarm_stop (alt_alarm* alarm)
{
 180f664:	defffa04 	addi	sp,sp,-24
 180f668:	df000515 	stw	fp,20(sp)
 180f66c:	df000504 	addi	fp,sp,20
 180f670:	e13fff15 	stw	r4,-4(fp)
static ALT_INLINE alt_irq_context ALT_ALWAYS_INLINE 
       alt_irq_disable_all (void)
{
  alt_irq_context context;

  NIOS2_READ_STATUS (context);
 180f674:	0005303a 	rdctl	r2,status
 180f678:	e0bffd15 	stw	r2,-12(fp)

  NIOS2_WRITE_STATUS (context & ~NIOS2_STATUS_PIE_MSK);
 180f67c:	e0fffd17 	ldw	r3,-12(fp)
 180f680:	00bfff84 	movi	r2,-2
 180f684:	1884703a 	and	r2,r3,r2
 180f688:	1001703a 	wrctl	status,r2
  
  return context;
 180f68c:	e0bffd17 	ldw	r2,-12(fp)
  alt_irq_context irq_context;

  irq_context = alt_irq_disable_all();
 180f690:	e0bffe15 	stw	r2,-8(fp)
  alt_llist_remove (&alarm->llist);
 180f694:	e0bfff17 	ldw	r2,-4(fp)
 180f698:	e0bffc15 	stw	r2,-16(fp)
 * input argument is the element to remove.
 */
     
static ALT_INLINE void ALT_ALWAYS_INLINE alt_llist_remove(alt_llist* entry)
{
  entry->next->previous = entry->previous;
 180f69c:	e0bffc17 	ldw	r2,-16(fp)
 180f6a0:	10c00017 	ldw	r3,0(r2)
 180f6a4:	e0bffc17 	ldw	r2,-16(fp)
 180f6a8:	10800117 	ldw	r2,4(r2)
 180f6ac:	18800115 	stw	r2,4(r3)
  entry->previous->next = entry->next;
 180f6b0:	e0bffc17 	ldw	r2,-16(fp)
 180f6b4:	10c00117 	ldw	r3,4(r2)
 180f6b8:	e0bffc17 	ldw	r2,-16(fp)
 180f6bc:	10800017 	ldw	r2,0(r2)
 180f6c0:	18800015 	stw	r2,0(r3)
  /* 
   * Set the entry to point to itself, so that any further calls to
   * alt_llist_remove() are harmless.
   */

  entry->previous = entry;
 180f6c4:	e0fffc17 	ldw	r3,-16(fp)
 180f6c8:	e0bffc17 	ldw	r2,-16(fp)
 180f6cc:	18800115 	stw	r2,4(r3)
  entry->next     = entry;
 180f6d0:	e0fffc17 	ldw	r3,-16(fp)
 180f6d4:	e0bffc17 	ldw	r2,-16(fp)
 180f6d8:	18800015 	stw	r2,0(r3)
 180f6dc:	e0bffe17 	ldw	r2,-8(fp)
 180f6e0:	e0bffb15 	stw	r2,-20(fp)
  status &= ~NIOS2_STATUS_PIE_MSK;
  status |= (context & NIOS2_STATUS_PIE_MSK);
  
  NIOS2_WRITE_STATUS (status);
#else
  NIOS2_WRITE_STATUS (context);
 180f6e4:	e0bffb17 	ldw	r2,-20(fp)
 180f6e8:	1001703a 	wrctl	status,r2
  alt_irq_enable_all (irq_context);
}
 180f6ec:	e037883a 	mov	sp,fp
 180f6f0:	df000017 	ldw	fp,0(sp)
 180f6f4:	dec00104 	addi	sp,sp,4
 180f6f8:	f800283a 	ret

0180f6fc <alt_tick>:
 * 
 * alt_tick() is expected to run at interrupt level.
 */

void alt_tick (void)
{
 180f6fc:	defffb04 	addi	sp,sp,-20
 180f700:	dfc00415 	stw	ra,16(sp)
 180f704:	df000315 	stw	fp,12(sp)
 180f708:	df000304 	addi	fp,sp,12
  alt_alarm* next;
  alt_alarm* alarm = (alt_alarm*) alt_alarm_list.next;
 180f70c:	d0a01117 	ldw	r2,-32700(gp)
 180f710:	e0bffe15 	stw	r2,-8(fp)

  alt_u32    next_callback;

  /* update the tick counter */

  _alt_nticks++;
 180f714:	d0a02017 	ldw	r2,-32640(gp)
 180f718:	10800044 	addi	r2,r2,1
 180f71c:	d0a02015 	stw	r2,-32640(gp)

  /* process the registered callbacks */

  while (alarm != (alt_alarm*) &alt_alarm_list)
 180f720:	00003106 	br	180f7e8 <alt_tick+0xec>
  {
    next = (alt_alarm*) alarm->llist.next;
 180f724:	e0bffe17 	ldw	r2,-8(fp)
 180f728:	10800017 	ldw	r2,0(r2)
 180f72c:	e0bfff15 	stw	r2,-4(fp)
    /* 
     * Upon the tick-counter rolling over it is safe to clear the 
     * roll-over flag; once the flag is cleared this (or subsequnt)
     * tick events are enabled to generate an alarm event. 
     */
    if ((alarm->rollover) && (_alt_nticks == 0))
 180f730:	e0bffe17 	ldw	r2,-8(fp)
 180f734:	10800403 	ldbu	r2,16(r2)
 180f738:	10803fcc 	andi	r2,r2,255
 180f73c:	1005003a 	cmpeq	r2,r2,zero
 180f740:	1000051e 	bne	r2,zero,180f758 <alt_tick+0x5c>
 180f744:	d0a02017 	ldw	r2,-32640(gp)
 180f748:	1004c03a 	cmpne	r2,r2,zero
 180f74c:	1000021e 	bne	r2,zero,180f758 <alt_tick+0x5c>
    {
      alarm->rollover = 0;
 180f750:	e0bffe17 	ldw	r2,-8(fp)
 180f754:	10000405 	stb	zero,16(r2)
    }
    
    /* if the alarm period has expired, make the callback */    
    if ((alarm->time <= _alt_nticks) && (alarm->rollover == 0))
 180f758:	e0bffe17 	ldw	r2,-8(fp)
 180f75c:	10c00217 	ldw	r3,8(r2)
 180f760:	d0a02017 	ldw	r2,-32640(gp)
 180f764:	10c01e36 	bltu	r2,r3,180f7e0 <alt_tick+0xe4>
 180f768:	e0bffe17 	ldw	r2,-8(fp)
 180f76c:	10800403 	ldbu	r2,16(r2)
 180f770:	10803fcc 	andi	r2,r2,255
 180f774:	1004c03a 	cmpne	r2,r2,zero
 180f778:	1000191e 	bne	r2,zero,180f7e0 <alt_tick+0xe4>
    {
      next_callback = alarm->callback (alarm->context);
 180f77c:	e0bffe17 	ldw	r2,-8(fp)
 180f780:	10c00317 	ldw	r3,12(r2)
 180f784:	e0bffe17 	ldw	r2,-8(fp)
 180f788:	11000517 	ldw	r4,20(r2)
 180f78c:	183ee83a 	callr	r3
 180f790:	e0bffd15 	stw	r2,-12(fp)

      /* deactivate the alarm if the return value is zero */

      if (next_callback == 0)
 180f794:	e0bffd17 	ldw	r2,-12(fp)
 180f798:	1004c03a 	cmpne	r2,r2,zero
 180f79c:	1000031e 	bne	r2,zero,180f7ac <alt_tick+0xb0>
      {
        alt_alarm_stop (alarm);
 180f7a0:	e13ffe17 	ldw	r4,-8(fp)
 180f7a4:	180f6640 	call	180f664 <alt_alarm_stop>
 180f7a8:	00000d06 	br	180f7e0 <alt_tick+0xe4>
      }
      else
      {
        alarm->time += next_callback;
 180f7ac:	e0bffe17 	ldw	r2,-8(fp)
 180f7b0:	10c00217 	ldw	r3,8(r2)
 180f7b4:	e0bffd17 	ldw	r2,-12(fp)
 180f7b8:	1887883a 	add	r3,r3,r2
 180f7bc:	e0bffe17 	ldw	r2,-8(fp)
 180f7c0:	10c00215 	stw	r3,8(r2)
        /* 
         * If the desired alarm time causes a roll-over, set the rollover
         * flag. This will prevent the subsequent tick event from causing
         * an alarm too early.
         */
        if(alarm->time < _alt_nticks)
 180f7c4:	e0bffe17 	ldw	r2,-8(fp)
 180f7c8:	10c00217 	ldw	r3,8(r2)
 180f7cc:	d0a02017 	ldw	r2,-32640(gp)
 180f7d0:	1880032e 	bgeu	r3,r2,180f7e0 <alt_tick+0xe4>
        {
          alarm->rollover = 1;
 180f7d4:	e0fffe17 	ldw	r3,-8(fp)
 180f7d8:	00800044 	movi	r2,1
 180f7dc:	18800405 	stb	r2,16(r3)
        }
      }
    }
    alarm = next;
 180f7e0:	e0bfff17 	ldw	r2,-4(fp)
 180f7e4:	e0bffe15 	stw	r2,-8(fp)

  _alt_nticks++;

  /* process the registered callbacks */

  while (alarm != (alt_alarm*) &alt_alarm_list)
 180f7e8:	d0e01104 	addi	r3,gp,-32700
 180f7ec:	e0bffe17 	ldw	r2,-8(fp)
 180f7f0:	10ffcc1e 	bne	r2,r3,180f724 <alt_tick+0x28>
  /* 
   * Update the operating system specific timer facilities.
   */

  ALT_OS_TIME_TICK();
}
 180f7f4:	e037883a 	mov	sp,fp
 180f7f8:	dfc00117 	ldw	ra,4(sp)
 180f7fc:	df000017 	ldw	fp,0(sp)
 180f800:	dec00204 	addi	sp,sp,8
 180f804:	f800283a 	ret

0180f808 <altera_nios2_irq_init>:
/*
 * To initialize the internal interrupt controller, just clear the IENABLE
 * register so that all possible IRQs are disabled.
 */
void altera_nios2_irq_init(void) 
{
 180f808:	deffff04 	addi	sp,sp,-4
 180f80c:	df000015 	stw	fp,0(sp)
 180f810:	d839883a 	mov	fp,sp
    NIOS2_WRITE_IENABLE(0);
 180f814:	000170fa 	wrctl	ienable,zero
}
 180f818:	e037883a 	mov	sp,fp
 180f81c:	df000017 	ldw	fp,0(sp)
 180f820:	dec00104 	addi	sp,sp,4
 180f824:	f800283a 	ret

0180f828 <alt_program_amd>:
 * then writes Addr, Data Addr, Data etc.
 */
int alt_program_amd(alt_flash_dev* flash_info, int block_offset, 
                int offset, const void* src_addr, 
                int length)
{
 180f828:	defff704 	addi	sp,sp,-36
 180f82c:	dfc00815 	stw	ra,32(sp)
 180f830:	df000715 	stw	fp,28(sp)
 180f834:	df000704 	addi	fp,sp,28
 180f838:	e13ffc15 	stw	r4,-16(fp)
 180f83c:	e17ffd15 	stw	r5,-12(fp)
 180f840:	e1bffe15 	stw	r6,-8(fp)
 180f844:	e1ffff15 	stw	r7,-4(fp)
  int ret_code = 0;
 180f848:	e03ffb15 	stw	zero,-20(fp)
  alt_flash_cfi_dev* flash = (alt_flash_cfi_dev*)flash_info;
 180f84c:	e0bffc17 	ldw	r2,-16(fp)
 180f850:	e0bffa15 	stw	r2,-24(fp)
  
  
  ret_code = alt_flash_program_block( flash, offset, src_addr, length, 
 180f854:	e1bfff17 	ldw	r6,-4(fp)
 180f858:	00806074 	movhi	r2,385
 180f85c:	10bef304 	addi	r2,r2,-1076
 180f860:	d8800015 	stw	r2,0(sp)
 180f864:	e13ffa17 	ldw	r4,-24(fp)
 180f868:	e17ffe17 	ldw	r5,-8(fp)
 180f86c:	e1c00217 	ldw	r7,8(fp)
 180f870:	180ae300 	call	180ae30 <alt_flash_program_block>
 180f874:	e0bffb15 	stw	r2,-20(fp)
                                    alt_write_word_amd);
  return ret_code;
 180f878:	e0bffb17 	ldw	r2,-20(fp)
}
 180f87c:	e037883a 	mov	sp,fp
 180f880:	dfc00117 	ldw	ra,4(sp)
 180f884:	df000017 	ldw	fp,0(sp)
 180f888:	dec00204 	addi	sp,sp,8
 180f88c:	f800283a 	ret

0180f890 <alt_erase_block_amd>:
 * alt_erase_block_amd
 * 
 * Erase the selected erase block
 */
int alt_erase_block_amd(alt_flash_dev* flash_info, int block_offset)
{
 180f890:	defff804 	addi	sp,sp,-32
 180f894:	dfc00715 	stw	ra,28(sp)
 180f898:	df000615 	stw	fp,24(sp)
 180f89c:	df000604 	addi	fp,sp,24
 180f8a0:	e13ffe15 	stw	r4,-8(fp)
 180f8a4:	e17fff15 	stw	r5,-4(fp)
  int   ret_code = 0;
 180f8a8:	e03ffc15 	stw	zero,-16(fp)
  int   timeout;
  alt_flash_cfi_dev* flash = (alt_flash_cfi_dev*)flash_info;
 180f8ac:	e0bffe17 	ldw	r2,-8(fp)
 180f8b0:	e0bffa15 	stw	r2,-24(fp)
  volatile alt_u8  value;

  (*flash->write_command)(flash->dev.base_addr, 0x555, (alt_u8)0xAA);
 180f8b4:	e0bffa17 	ldw	r2,-24(fp)
 180f8b8:	10c03317 	ldw	r3,204(r2)
 180f8bc:	e0bffa17 	ldw	r2,-24(fp)
 180f8c0:	11000a17 	ldw	r4,40(r2)
 180f8c4:	01415544 	movi	r5,1365
 180f8c8:	01802a84 	movi	r6,170
 180f8cc:	183ee83a 	callr	r3
  (*flash->write_command)(flash->dev.base_addr, 0x2AA, (alt_u8)0x55);
 180f8d0:	e0bffa17 	ldw	r2,-24(fp)
 180f8d4:	10c03317 	ldw	r3,204(r2)
 180f8d8:	e0bffa17 	ldw	r2,-24(fp)
 180f8dc:	11000a17 	ldw	r4,40(r2)
 180f8e0:	0140aa84 	movi	r5,682
 180f8e4:	01801544 	movi	r6,85
 180f8e8:	183ee83a 	callr	r3
  (*flash->write_command)(flash->dev.base_addr, 0x555, (alt_u8)0x80);
 180f8ec:	e0bffa17 	ldw	r2,-24(fp)
 180f8f0:	10c03317 	ldw	r3,204(r2)
 180f8f4:	e0bffa17 	ldw	r2,-24(fp)
 180f8f8:	11000a17 	ldw	r4,40(r2)
 180f8fc:	01415544 	movi	r5,1365
 180f900:	01802004 	movi	r6,128
 180f904:	183ee83a 	callr	r3
  (*flash->write_command)(flash->dev.base_addr, 0x555, (alt_u8)0xAA);
 180f908:	e0bffa17 	ldw	r2,-24(fp)
 180f90c:	10c03317 	ldw	r3,204(r2)
 180f910:	e0bffa17 	ldw	r2,-24(fp)
 180f914:	11000a17 	ldw	r4,40(r2)
 180f918:	01415544 	movi	r5,1365
 180f91c:	01802a84 	movi	r6,170
 180f920:	183ee83a 	callr	r3
  (*flash->write_command)(flash->dev.base_addr, 0x2AA, (alt_u8)0x55);
 180f924:	e0bffa17 	ldw	r2,-24(fp)
 180f928:	10c03317 	ldw	r3,204(r2)
 180f92c:	e0bffa17 	ldw	r2,-24(fp)
 180f930:	11000a17 	ldw	r4,40(r2)
 180f934:	0140aa84 	movi	r5,682
 180f938:	01801544 	movi	r6,85
 180f93c:	183ee83a 	callr	r3

  (*flash->write_native)((alt_u8*)flash->dev.base_addr+block_offset, 0x30);
 180f940:	e0bffa17 	ldw	r2,-24(fp)
 180f944:	11803517 	ldw	r6,212(r2)
 180f948:	e0bffa17 	ldw	r2,-24(fp)
 180f94c:	10800a17 	ldw	r2,40(r2)
 180f950:	1007883a 	mov	r3,r2
 180f954:	e0bfff17 	ldw	r2,-4(fp)
 180f958:	1889883a 	add	r4,r3,r2
 180f95c:	01400c04 	movi	r5,48
 180f960:	303ee83a 	callr	r6

  /*
   * Delay to meet AM29LV065D timing requirements
   */
  usleep(10000);
 180f964:	0109c404 	movi	r4,10000
 180f968:	180a5880 	call	180a588 <usleep>
  
  /*
   * Bit 3 indicates that the erase command has been accepted
   * this last 50S
   */
  timeout = 50;   
 180f96c:	00800c84 	movi	r2,50
 180f970:	e0bffb15 	stw	r2,-20(fp)
  do 
  {
    value = IORD_8DIRECT((alt_u8*)flash->dev.base_addr + block_offset, 0);
 180f974:	e0bffa17 	ldw	r2,-24(fp)
 180f978:	10800a17 	ldw	r2,40(r2)
 180f97c:	1007883a 	mov	r3,r2
 180f980:	e0bfff17 	ldw	r2,-4(fp)
 180f984:	1885883a 	add	r2,r3,r2
 180f988:	10800023 	ldbuio	r2,0(r2)
 180f98c:	e0bffd05 	stb	r2,-12(fp)
    usleep(1000);
 180f990:	0100fa04 	movi	r4,1000
 180f994:	180a5880 	call	180a588 <usleep>
    timeout--;
 180f998:	e0bffb17 	ldw	r2,-20(fp)
 180f99c:	10bfffc4 	addi	r2,r2,-1
 180f9a0:	e0bffb15 	stw	r2,-20(fp)
  }while(!(value & 0x8) && (timeout > 0));
 180f9a4:	e0bffd03 	ldbu	r2,-12(fp)
 180f9a8:	10803fcc 	andi	r2,r2,255
 180f9ac:	1080020c 	andi	r2,r2,8
 180f9b0:	1004c03a 	cmpne	r2,r2,zero
 180f9b4:	1000031e 	bne	r2,zero,180f9c4 <alt_erase_block_amd+0x134>
 180f9b8:	e0bffb17 	ldw	r2,-20(fp)
 180f9bc:	10800048 	cmpgei	r2,r2,1
 180f9c0:	103fec1e 	bne	r2,zero,180f974 <alt_erase_block_amd+0xe4>


  timeout = flash->erase_timeout;
 180f9c4:	e0bffa17 	ldw	r2,-24(fp)
 180f9c8:	10803117 	ldw	r2,196(r2)
 180f9cc:	e0bffb15 	stw	r2,-20(fp)
  
  /*
   *  Bit 7 goes low until the block is erased if bit 5 goes to 
   *  1 it's an error
   */
  while (timeout > 0)
 180f9d0:	00001706 	br	180fa30 <alt_erase_block_amd+0x1a0>
  {
    value = IORD_8DIRECT((alt_u8*)flash->dev.base_addr + block_offset, 0);
 180f9d4:	e0bffa17 	ldw	r2,-24(fp)
 180f9d8:	10800a17 	ldw	r2,40(r2)
 180f9dc:	1007883a 	mov	r3,r2
 180f9e0:	e0bfff17 	ldw	r2,-4(fp)
 180f9e4:	1885883a 	add	r2,r3,r2
 180f9e8:	10800023 	ldbuio	r2,0(r2)
 180f9ec:	e0bffd05 	stb	r2,-12(fp)
    if ((value & 0x80) || (value &0x20))
 180f9f0:	e0bffd03 	ldbu	r2,-12(fp)
 180f9f4:	10803fcc 	andi	r2,r2,255
 180f9f8:	1080201c 	xori	r2,r2,128
 180f9fc:	10bfe004 	addi	r2,r2,-128
 180fa00:	1004803a 	cmplt	r2,r2,zero
 180fa04:	10000d1e 	bne	r2,zero,180fa3c <alt_erase_block_amd+0x1ac>
 180fa08:	e0bffd03 	ldbu	r2,-12(fp)
 180fa0c:	10803fcc 	andi	r2,r2,255
 180fa10:	1080080c 	andi	r2,r2,32
 180fa14:	1004c03a 	cmpne	r2,r2,zero
 180fa18:	1000081e 	bne	r2,zero,180fa3c <alt_erase_block_amd+0x1ac>
    {
      break;
    }
    usleep(1000);
 180fa1c:	0100fa04 	movi	r4,1000
 180fa20:	180a5880 	call	180a588 <usleep>
    timeout -= 1000;
 180fa24:	e0bffb17 	ldw	r2,-20(fp)
 180fa28:	10bf0604 	addi	r2,r2,-1000
 180fa2c:	e0bffb15 	stw	r2,-20(fp)
  
  /*
   *  Bit 7 goes low until the block is erased if bit 5 goes to 
   *  1 it's an error
   */
  while (timeout > 0)
 180fa30:	e0bffb17 	ldw	r2,-20(fp)
 180fa34:	10800048 	cmpgei	r2,r2,1
 180fa38:	103fe61e 	bne	r2,zero,180f9d4 <alt_erase_block_amd+0x144>
    }
    usleep(1000);
    timeout -= 1000;
  }
  
  if (timeout <= 0)
 180fa3c:	e0bffb17 	ldw	r2,-20(fp)
 180fa40:	10800048 	cmpgei	r2,r2,1
 180fa44:	1000031e 	bne	r2,zero,180fa54 <alt_erase_block_amd+0x1c4>
  {
    ret_code = -ETIMEDOUT;
 180fa48:	00bfe304 	movi	r2,-116
 180fa4c:	e0bffc15 	stw	r2,-16(fp)
 180fa50:	00000f06 	br	180fa90 <alt_erase_block_amd+0x200>
  }
  else
  {
    value = IORD_8DIRECT((alt_u8*)flash->dev.base_addr + block_offset, 0);
 180fa54:	e0bffa17 	ldw	r2,-24(fp)
 180fa58:	10800a17 	ldw	r2,40(r2)
 180fa5c:	1007883a 	mov	r3,r2
 180fa60:	e0bfff17 	ldw	r2,-4(fp)
 180fa64:	1885883a 	add	r2,r3,r2
 180fa68:	10800023 	ldbuio	r2,0(r2)
 180fa6c:	e0bffd05 	stb	r2,-12(fp)
    if (!(value & 0x80))
 180fa70:	e0bffd03 	ldbu	r2,-12(fp)
 180fa74:	10803fcc 	andi	r2,r2,255
 180fa78:	1080201c 	xori	r2,r2,128
 180fa7c:	10bfe004 	addi	r2,r2,-128
 180fa80:	1004803a 	cmplt	r2,r2,zero
 180fa84:	1000021e 	bne	r2,zero,180fa90 <alt_erase_block_amd+0x200>
    {
      ret_code = -EIO;
 180fa88:	00bffec4 	movi	r2,-5
 180fa8c:	e0bffc15 	stw	r2,-16(fp)
    }
  }    
  
  return ret_code;
 180fa90:	e0bffc17 	ldw	r2,-16(fp)
}
 180fa94:	e037883a 	mov	sp,fp
 180fa98:	dfc00117 	ldw	ra,4(sp)
 180fa9c:	df000017 	ldw	fp,0(sp)
 180faa0:	dec00204 	addi	sp,sp,8
 180faa4:	f800283a 	ret

0180faa8 <alt_wait_for_command_to_complete_amd>:
 */
 
int alt_wait_for_command_to_complete_amd(alt_flash_cfi_dev* flash,
                                         int offset, 
                                          alt_u8 data)
{
 180faa8:	defff804 	addi	sp,sp,-32
 180faac:	dfc00715 	stw	ra,28(sp)
 180fab0:	df000615 	stw	fp,24(sp)
 180fab4:	df000604 	addi	fp,sp,24
 180fab8:	e13ffd15 	stw	r4,-12(fp)
 180fabc:	e17ffe15 	stw	r5,-8(fp)
 180fac0:	e1bfff05 	stb	r6,-4(fp)
  volatile alt_u8  value;
  int timeout = flash->write_timeout * 100;
 180fac4:	e0bffd17 	ldw	r2,-12(fp)
 180fac8:	10803017 	ldw	r2,192(r2)
 180facc:	10801924 	muli	r2,r2,100
 180fad0:	e0bffb15 	stw	r2,-20(fp)
  int ret_code = 0;
 180fad4:	e03ffa15 	stw	zero,-24(fp)
  
  value = IORD_8DIRECT(flash->dev.base_addr, offset);
 180fad8:	e0bffd17 	ldw	r2,-12(fp)
 180fadc:	10800a17 	ldw	r2,40(r2)
 180fae0:	1007883a 	mov	r3,r2
 180fae4:	e0bffe17 	ldw	r2,-8(fp)
 180fae8:	1885883a 	add	r2,r3,r2
 180faec:	10800023 	ldbuio	r2,0(r2)
 180faf0:	e0bffc05 	stb	r2,-16(fp)
  while (timeout > 0)
 180faf4:	00001706 	br	180fb54 <alt_wait_for_command_to_complete_amd+0xac>
  {
    if (((value & 0x80 ) == (data &0x80)) ||
 180faf8:	e0bffc03 	ldbu	r2,-16(fp)
 180fafc:	10803fcc 	andi	r2,r2,255
 180fb00:	10c0200c 	andi	r3,r2,128
 180fb04:	e0bfff03 	ldbu	r2,-4(fp)
 180fb08:	1080200c 	andi	r2,r2,128
 180fb0c:	18801426 	beq	r3,r2,180fb60 <alt_wait_for_command_to_complete_amd+0xb8>
 180fb10:	e0bffc03 	ldbu	r2,-16(fp)
 180fb14:	10803fcc 	andi	r2,r2,255
 180fb18:	1080080c 	andi	r2,r2,32
 180fb1c:	1004c03a 	cmpne	r2,r2,zero
 180fb20:	10000f1e 	bne	r2,zero,180fb60 <alt_wait_for_command_to_complete_amd+0xb8>
        (value & 0x20))
    {
      break;
    }
    usleep (1);
 180fb24:	01000044 	movi	r4,1
 180fb28:	180a5880 	call	180a588 <usleep>
    timeout--;
 180fb2c:	e0bffb17 	ldw	r2,-20(fp)
 180fb30:	10bfffc4 	addi	r2,r2,-1
 180fb34:	e0bffb15 	stw	r2,-20(fp)
    value = IORD_8DIRECT(flash->dev.base_addr, offset);
 180fb38:	e0bffd17 	ldw	r2,-12(fp)
 180fb3c:	10800a17 	ldw	r2,40(r2)
 180fb40:	1007883a 	mov	r3,r2
 180fb44:	e0bffe17 	ldw	r2,-8(fp)
 180fb48:	1885883a 	add	r2,r3,r2
 180fb4c:	10800023 	ldbuio	r2,0(r2)
 180fb50:	e0bffc05 	stb	r2,-16(fp)
  volatile alt_u8  value;
  int timeout = flash->write_timeout * 100;
  int ret_code = 0;
  
  value = IORD_8DIRECT(flash->dev.base_addr, offset);
  while (timeout > 0)
 180fb54:	e0bffb17 	ldw	r2,-20(fp)
 180fb58:	10800048 	cmpgei	r2,r2,1
 180fb5c:	103fe61e 	bne	r2,zero,180faf8 <alt_wait_for_command_to_complete_amd+0x50>
    usleep (1);
    timeout--;
    value = IORD_8DIRECT(flash->dev.base_addr, offset);
  }
  
  if (timeout == 0)
 180fb60:	e0bffb17 	ldw	r2,-20(fp)
 180fb64:	1004c03a 	cmpne	r2,r2,zero
 180fb68:	1000031e 	bne	r2,zero,180fb78 <alt_wait_for_command_to_complete_amd+0xd0>
  {
    ret_code = -ETIMEDOUT;
 180fb6c:	00bfe304 	movi	r2,-116
 180fb70:	e0bffa15 	stw	r2,-24(fp)
 180fb74:	00000f06 	br	180fbb4 <alt_wait_for_command_to_complete_amd+0x10c>
  }
  else
  {
    value = IORD_8DIRECT(flash->dev.base_addr, offset);
 180fb78:	e0bffd17 	ldw	r2,-12(fp)
 180fb7c:	10800a17 	ldw	r2,40(r2)
 180fb80:	1007883a 	mov	r3,r2
 180fb84:	e0bffe17 	ldw	r2,-8(fp)
 180fb88:	1885883a 	add	r2,r3,r2
 180fb8c:	10800023 	ldbuio	r2,0(r2)
 180fb90:	e0bffc05 	stb	r2,-16(fp)
    if ((value & 0x80) != (data&0x80))
 180fb94:	e0bffc03 	ldbu	r2,-16(fp)
 180fb98:	10803fcc 	andi	r2,r2,255
 180fb9c:	10c0200c 	andi	r3,r2,128
 180fba0:	e0bfff03 	ldbu	r2,-4(fp)
 180fba4:	1080200c 	andi	r2,r2,128
 180fba8:	18800226 	beq	r3,r2,180fbb4 <alt_wait_for_command_to_complete_amd+0x10c>
    {
      ret_code = -EIO;
 180fbac:	00bffec4 	movi	r2,-5
 180fbb0:	e0bffa15 	stw	r2,-24(fp)
    }
  }    
  return ret_code;
 180fbb4:	e0bffa17 	ldw	r2,-24(fp)
}
 180fbb8:	e037883a 	mov	sp,fp
 180fbbc:	dfc00117 	ldw	ra,4(sp)
 180fbc0:	df000017 	ldw	fp,0(sp)
 180fbc4:	dec00204 	addi	sp,sp,8
 180fbc8:	f800283a 	ret

0180fbcc <alt_write_word_amd>:

static int alt_write_word_amd(  alt_flash_cfi_dev* flash, 
                                const int offset, 
                                const alt_u8* src_addr)
{
 180fbcc:	defff904 	addi	sp,sp,-28
 180fbd0:	dfc00615 	stw	ra,24(sp)
 180fbd4:	df000515 	stw	fp,20(sp)
 180fbd8:	df000504 	addi	fp,sp,20
 180fbdc:	e13ffd15 	stw	r4,-12(fp)
 180fbe0:	e17ffe15 	stw	r5,-8(fp)
 180fbe4:	e1bfff15 	stw	r6,-4(fp)
  int ret_code = 0;
 180fbe8:	e03ffc15 	stw	zero,-16(fp)
  alt_u8 value;
  (*flash->write_command)(flash->dev.base_addr, 0x555, (alt_u8)0xAA);
 180fbec:	e0bffd17 	ldw	r2,-12(fp)
 180fbf0:	10c03317 	ldw	r3,204(r2)
 180fbf4:	e0bffd17 	ldw	r2,-12(fp)
 180fbf8:	11000a17 	ldw	r4,40(r2)
 180fbfc:	01415544 	movi	r5,1365
 180fc00:	01802a84 	movi	r6,170
 180fc04:	183ee83a 	callr	r3
  (*flash->write_command)(flash->dev.base_addr, 0x2AA, (alt_u8)0x55);
 180fc08:	e0bffd17 	ldw	r2,-12(fp)
 180fc0c:	10c03317 	ldw	r3,204(r2)
 180fc10:	e0bffd17 	ldw	r2,-12(fp)
 180fc14:	11000a17 	ldw	r4,40(r2)
 180fc18:	0140aa84 	movi	r5,682
 180fc1c:	01801544 	movi	r6,85
 180fc20:	183ee83a 	callr	r3
  (*flash->write_command)(flash->dev.base_addr, 0x555, (alt_u8)0xA0);
 180fc24:	e0bffd17 	ldw	r2,-12(fp)
 180fc28:	10c03317 	ldw	r3,204(r2)
 180fc2c:	e0bffd17 	ldw	r2,-12(fp)
 180fc30:	11000a17 	ldw	r4,40(r2)
 180fc34:	01415544 	movi	r5,1365
 180fc38:	01802804 	movi	r6,160
 180fc3c:	183ee83a 	callr	r3
  
  value = *src_addr;
 180fc40:	e0bfff17 	ldw	r2,-4(fp)
 180fc44:	10800003 	ldbu	r2,0(r2)
 180fc48:	e0bffb05 	stb	r2,-20(fp)

  alt_write_value_to_flash(flash, offset, src_addr);
 180fc4c:	e13ffd17 	ldw	r4,-12(fp)
 180fc50:	e17ffe17 	ldw	r5,-8(fp)
 180fc54:	e1bfff17 	ldw	r6,-4(fp)
 180fc58:	180accc0 	call	180accc <alt_write_value_to_flash>
  
  ret_code = alt_wait_for_command_to_complete_amd(flash, 
 180fc5c:	e1bffb03 	ldbu	r6,-20(fp)
 180fc60:	e13ffd17 	ldw	r4,-12(fp)
 180fc64:	e17ffe17 	ldw	r5,-8(fp)
 180fc68:	180faa80 	call	180faa8 <alt_wait_for_command_to_complete_amd>
 180fc6c:	e0bffc15 	stw	r2,-16(fp)
                                                  offset,
                                                  value);
  return ret_code;
 180fc70:	e0bffc17 	ldw	r2,-16(fp)
  
}
 180fc74:	e037883a 	mov	sp,fp
 180fc78:	dfc00117 	ldw	ra,4(sp)
 180fc7c:	df000017 	ldw	fp,0(sp)
 180fc80:	dec00204 	addi	sp,sp,8
 180fc84:	f800283a 	ret

0180fc88 <alt_program_intel>:
 * Program a block (or part of one)
 */
int alt_program_intel(alt_flash_dev* flash_info, int block_offset, 
                int offset, const void* src_addr, 
                int length)
{
 180fc88:	defff704 	addi	sp,sp,-36
 180fc8c:	dfc00815 	stw	ra,32(sp)
 180fc90:	df000715 	stw	fp,28(sp)
 180fc94:	df000704 	addi	fp,sp,28
 180fc98:	e13ffc15 	stw	r4,-16(fp)
 180fc9c:	e17ffd15 	stw	r5,-12(fp)
 180fca0:	e1bffe15 	stw	r6,-8(fp)
 180fca4:	e1ffff15 	stw	r7,-4(fp)
  int ret_code = 0;
 180fca8:	e03ffb15 	stw	zero,-20(fp)
  alt_flash_cfi_dev* flash = (alt_flash_cfi_dev*)flash_info;
 180fcac:	e0bffc17 	ldw	r2,-16(fp)
 180fcb0:	e0bffa15 	stw	r2,-24(fp)
  
   /*
  * If this block is locked then unlock it
  */
  ret_code = alt_unlock_block_intel(flash, block_offset);
 180fcb4:	e13ffa17 	ldw	r4,-24(fp)
 180fcb8:	e17ffd17 	ldw	r5,-12(fp)
 180fcbc:	180fe800 	call	180fe80 <alt_unlock_block_intel>
 180fcc0:	e0bffb15 	stw	r2,-20(fp)

  if (!ret_code)
 180fcc4:	e0bffb17 	ldw	r2,-20(fp)
 180fcc8:	1004c03a 	cmpne	r2,r2,zero
 180fccc:	1000091e 	bne	r2,zero,180fcf4 <alt_program_intel+0x6c>
  {

    ret_code = alt_flash_program_block( flash, offset, src_addr, length, 
 180fcd0:	e1bfff17 	ldw	r6,-4(fp)
 180fcd4:	00806074 	movhi	r2,385
 180fcd8:	10800304 	addi	r2,r2,12
 180fcdc:	d8800015 	stw	r2,0(sp)
 180fce0:	e13ffa17 	ldw	r4,-24(fp)
 180fce4:	e17ffe17 	ldw	r5,-8(fp)
 180fce8:	e1c00217 	ldw	r7,8(fp)
 180fcec:	180ae300 	call	180ae30 <alt_flash_program_block>
 180fcf0:	e0bffb15 	stw	r2,-20(fp)
                                        alt_write_word_intel);
  }
  
  return ret_code;
 180fcf4:	e0bffb17 	ldw	r2,-20(fp)
}
 180fcf8:	e037883a 	mov	sp,fp
 180fcfc:	dfc00117 	ldw	ra,4(sp)
 180fd00:	df000017 	ldw	fp,0(sp)
 180fd04:	dec00204 	addi	sp,sp,8
 180fd08:	f800283a 	ret

0180fd0c <alt_erase_block_intel>:
 * alt_erase_block_intel
 * 
 * Erase the selected erase block
 */
int alt_erase_block_intel(alt_flash_dev* flash_info, int block_offset)
{
 180fd0c:	defff804 	addi	sp,sp,-32
 180fd10:	dfc00715 	stw	ra,28(sp)
 180fd14:	df000615 	stw	fp,24(sp)
 180fd18:	df000604 	addi	fp,sp,24
 180fd1c:	e13ffe15 	stw	r4,-8(fp)
 180fd20:	e17fff15 	stw	r5,-4(fp)
  int   ret_code = 0;
 180fd24:	e03ffc15 	stw	zero,-16(fp)
  alt_flash_cfi_dev* flash = (alt_flash_cfi_dev*)flash_info;
 180fd28:	e0bffe17 	ldw	r2,-8(fp)
 180fd2c:	e0bffb15 	stw	r2,-20(fp)
  volatile alt_u8  status;
  int   timeout = flash->erase_timeout;
 180fd30:	e0bffb17 	ldw	r2,-20(fp)
 180fd34:	10803117 	ldw	r2,196(r2)
 180fd38:	e0bffa15 	stw	r2,-24(fp)

  /*
  * If this block is locked then unlock it
  */
  ret_code = alt_unlock_block_intel(flash, block_offset);
 180fd3c:	e13ffb17 	ldw	r4,-20(fp)
 180fd40:	e17fff17 	ldw	r5,-4(fp)
 180fd44:	180fe800 	call	180fe80 <alt_unlock_block_intel>
 180fd48:	e0bffc15 	stw	r2,-16(fp)

  if (!ret_code)
 180fd4c:	e0bffc17 	ldw	r2,-16(fp)
 180fd50:	1004c03a 	cmpne	r2,r2,zero
 180fd54:	1000441e 	bne	r2,zero,180fe68 <alt_erase_block_intel+0x15c>
  {

    flash->write_native((alt_u8*)flash->dev.base_addr + block_offset, 0x20);
 180fd58:	e0bffb17 	ldw	r2,-20(fp)
 180fd5c:	11803517 	ldw	r6,212(r2)
 180fd60:	e0bffb17 	ldw	r2,-20(fp)
 180fd64:	10800a17 	ldw	r2,40(r2)
 180fd68:	1007883a 	mov	r3,r2
 180fd6c:	e0bfff17 	ldw	r2,-4(fp)
 180fd70:	1889883a 	add	r4,r3,r2
 180fd74:	01400804 	movi	r5,32
 180fd78:	303ee83a 	callr	r6
    flash->write_native((alt_u8*)flash->dev.base_addr + block_offset, 0xD0);
 180fd7c:	e0bffb17 	ldw	r2,-20(fp)
 180fd80:	11803517 	ldw	r6,212(r2)
 180fd84:	e0bffb17 	ldw	r2,-20(fp)
 180fd88:	10800a17 	ldw	r2,40(r2)
 180fd8c:	1007883a 	mov	r3,r2
 180fd90:	e0bfff17 	ldw	r2,-4(fp)
 180fd94:	1889883a 	add	r4,r3,r2
 180fd98:	01403404 	movi	r5,208
 180fd9c:	303ee83a 	callr	r6

    do
    {
      status = IORD_8DIRECT(flash->dev.base_addr, block_offset);
 180fda0:	e0bffb17 	ldw	r2,-20(fp)
 180fda4:	10800a17 	ldw	r2,40(r2)
 180fda8:	1007883a 	mov	r3,r2
 180fdac:	e0bfff17 	ldw	r2,-4(fp)
 180fdb0:	1885883a 	add	r2,r3,r2
 180fdb4:	10800023 	ldbuio	r2,0(r2)
 180fdb8:	e0bffd05 	stb	r2,-12(fp)
      if (status & 0x80)
 180fdbc:	e0bffd03 	ldbu	r2,-12(fp)
 180fdc0:	10803fcc 	andi	r2,r2,255
 180fdc4:	1080201c 	xori	r2,r2,128
 180fdc8:	10bfe004 	addi	r2,r2,-128
 180fdcc:	1004803a 	cmplt	r2,r2,zero
 180fdd0:	1000081e 	bne	r2,zero,180fdf4 <alt_erase_block_intel+0xe8>
      {
        break;
      }
      usleep(1000);
 180fdd4:	0100fa04 	movi	r4,1000
 180fdd8:	180a5880 	call	180a588 <usleep>
      timeout -= 1000;
 180fddc:	e0bffa17 	ldw	r2,-24(fp)
 180fde0:	10bf0604 	addi	r2,r2,-1000
 180fde4:	e0bffa15 	stw	r2,-24(fp)
    }while(timeout > 0);
 180fde8:	e0bffa17 	ldw	r2,-24(fp)
 180fdec:	10800048 	cmpgei	r2,r2,1
 180fdf0:	103feb1e 	bne	r2,zero,180fda0 <alt_erase_block_intel+0x94>
    
    if (timeout <= 0)
 180fdf4:	e0bffa17 	ldw	r2,-24(fp)
 180fdf8:	10800048 	cmpgei	r2,r2,1
 180fdfc:	1000031e 	bne	r2,zero,180fe0c <alt_erase_block_intel+0x100>
    {
      ret_code = -ETIMEDOUT;
 180fe00:	00bfe304 	movi	r2,-116
 180fe04:	e0bffc15 	stw	r2,-16(fp)
 180fe08:	00000e06 	br	180fe44 <alt_erase_block_intel+0x138>
    }
    else if (status & 0x7f)
 180fe0c:	e0bffd03 	ldbu	r2,-12(fp)
 180fe10:	10803fcc 	andi	r2,r2,255
 180fe14:	10801fcc 	andi	r2,r2,127
 180fe18:	1005003a 	cmpeq	r2,r2,zero
 180fe1c:	1000091e 	bne	r2,zero,180fe44 <alt_erase_block_intel+0x138>
    {
      /* If we have an error of some kind bomb out */
      ret_code = -EIO;
 180fe20:	00bffec4 	movi	r2,-5
 180fe24:	e0bffc15 	stw	r2,-16(fp)
      status = IORD_8DIRECT(flash->dev.base_addr, block_offset);
 180fe28:	e0bffb17 	ldw	r2,-20(fp)
 180fe2c:	10800a17 	ldw	r2,40(r2)
 180fe30:	1007883a 	mov	r3,r2
 180fe34:	e0bfff17 	ldw	r2,-4(fp)
 180fe38:	1885883a 	add	r2,r3,r2
 180fe3c:	10800023 	ldbuio	r2,0(r2)
 180fe40:	e0bffd05 	stb	r2,-12(fp)
    }

    /* Put the device back into read array mode */
    flash->write_native((alt_u8*)flash->dev.base_addr + block_offset, 0xFF);
 180fe44:	e0bffb17 	ldw	r2,-20(fp)
 180fe48:	11803517 	ldw	r6,212(r2)
 180fe4c:	e0bffb17 	ldw	r2,-20(fp)
 180fe50:	10800a17 	ldw	r2,40(r2)
 180fe54:	1007883a 	mov	r3,r2
 180fe58:	e0bfff17 	ldw	r2,-4(fp)
 180fe5c:	1889883a 	add	r4,r3,r2
 180fe60:	01403fc4 	movi	r5,255
 180fe64:	303ee83a 	callr	r6
  }
  
  return ret_code;
 180fe68:	e0bffc17 	ldw	r2,-16(fp)
}
 180fe6c:	e037883a 	mov	sp,fp
 180fe70:	dfc00117 	ldw	ra,4(sp)
 180fe74:	df000017 	ldw	fp,0(sp)
 180fe78:	dec00204 	addi	sp,sp,8
 180fe7c:	f800283a 	ret

0180fe80 <alt_unlock_block_intel>:
/*
* Private Intel specific functions
*/

static int alt_unlock_block_intel(alt_flash_cfi_dev* flash, int block_offset)
{
 180fe80:	defff904 	addi	sp,sp,-28
 180fe84:	dfc00615 	stw	ra,24(sp)
 180fe88:	df000515 	stw	fp,20(sp)
 180fe8c:	df000504 	addi	fp,sp,20
 180fe90:	e13ffe15 	stw	r4,-8(fp)
 180fe94:	e17fff15 	stw	r5,-4(fp)
  alt_u8  locked;
  alt_u8  status;
  int ret_code = 0;
 180fe98:	e03ffc15 	stw	zero,-16(fp)
  int timeout = flash->write_timeout * 100;
 180fe9c:	e0bffe17 	ldw	r2,-8(fp)
 180fea0:	10803017 	ldw	r2,192(r2)
 180fea4:	10801924 	muli	r2,r2,100
 180fea8:	e0bffb15 	stw	r2,-20(fp)


  /*
  * Is this block locked?
  */
  flash->write_native((alt_u8*)flash->dev.base_addr + block_offset, 0x90);
 180feac:	e0bffe17 	ldw	r2,-8(fp)
 180feb0:	11803517 	ldw	r6,212(r2)
 180feb4:	e0bffe17 	ldw	r2,-8(fp)
 180feb8:	10800a17 	ldw	r2,40(r2)
 180febc:	1007883a 	mov	r3,r2
 180fec0:	e0bfff17 	ldw	r2,-4(fp)
 180fec4:	1889883a 	add	r4,r3,r2
 180fec8:	01402404 	movi	r5,144
 180fecc:	303ee83a 	callr	r6
  locked = IORD_8DIRECT(flash->dev.base_addr, block_offset + 4);
 180fed0:	e0bffe17 	ldw	r2,-8(fp)
 180fed4:	10800a17 	ldw	r2,40(r2)
 180fed8:	1007883a 	mov	r3,r2
 180fedc:	e0bfff17 	ldw	r2,-4(fp)
 180fee0:	1885883a 	add	r2,r3,r2
 180fee4:	10800104 	addi	r2,r2,4
 180fee8:	10800023 	ldbuio	r2,0(r2)
 180feec:	e0bffd45 	stb	r2,-11(fp)
  if (locked & 0x1)
 180fef0:	e0bffd43 	ldbu	r2,-11(fp)
 180fef4:	1080004c 	andi	r2,r2,1
 180fef8:	10803fcc 	andi	r2,r2,255
 180fefc:	1005003a 	cmpeq	r2,r2,zero
 180ff00:	1000331e 	bne	r2,zero,180ffd0 <alt_unlock_block_intel+0x150>
  {
    flash->write_native((alt_u8*)flash->dev.base_addr + block_offset, 0x60);
 180ff04:	e0bffe17 	ldw	r2,-8(fp)
 180ff08:	11803517 	ldw	r6,212(r2)
 180ff0c:	e0bffe17 	ldw	r2,-8(fp)
 180ff10:	10800a17 	ldw	r2,40(r2)
 180ff14:	1007883a 	mov	r3,r2
 180ff18:	e0bfff17 	ldw	r2,-4(fp)
 180ff1c:	1889883a 	add	r4,r3,r2
 180ff20:	01401804 	movi	r5,96
 180ff24:	303ee83a 	callr	r6
    flash->write_native((alt_u8*)flash->dev.base_addr + block_offset, 0xD0);
 180ff28:	e0bffe17 	ldw	r2,-8(fp)
 180ff2c:	11803517 	ldw	r6,212(r2)
 180ff30:	e0bffe17 	ldw	r2,-8(fp)
 180ff34:	10800a17 	ldw	r2,40(r2)
 180ff38:	1007883a 	mov	r3,r2
 180ff3c:	e0bfff17 	ldw	r2,-4(fp)
 180ff40:	1889883a 	add	r4,r3,r2
 180ff44:	01403404 	movi	r5,208
 180ff48:	303ee83a 	callr	r6

    do
    {
      status = IORD_8DIRECT(flash->dev.base_addr, block_offset);
 180ff4c:	e0bffe17 	ldw	r2,-8(fp)
 180ff50:	10800a17 	ldw	r2,40(r2)
 180ff54:	1007883a 	mov	r3,r2
 180ff58:	e0bfff17 	ldw	r2,-4(fp)
 180ff5c:	1885883a 	add	r2,r3,r2
 180ff60:	10800023 	ldbuio	r2,0(r2)
 180ff64:	e0bffd05 	stb	r2,-12(fp)
      if (status & 0x80)
 180ff68:	e0bffd03 	ldbu	r2,-12(fp)
 180ff6c:	10803fcc 	andi	r2,r2,255
 180ff70:	1080201c 	xori	r2,r2,128
 180ff74:	10bfe004 	addi	r2,r2,-128
 180ff78:	1004803a 	cmplt	r2,r2,zero
 180ff7c:	1000081e 	bne	r2,zero,180ffa0 <alt_unlock_block_intel+0x120>
      {
        break;
      }
      timeout--;
 180ff80:	e0bffb17 	ldw	r2,-20(fp)
 180ff84:	10bfffc4 	addi	r2,r2,-1
 180ff88:	e0bffb15 	stw	r2,-20(fp)
      usleep(1);
 180ff8c:	01000044 	movi	r4,1
 180ff90:	180a5880 	call	180a588 <usleep>
    }while(timeout > 0);
 180ff94:	e0bffb17 	ldw	r2,-20(fp)
 180ff98:	10800048 	cmpgei	r2,r2,1
 180ff9c:	103feb1e 	bne	r2,zero,180ff4c <alt_unlock_block_intel+0xcc>

    if (timeout == 0)
 180ffa0:	e0bffb17 	ldw	r2,-20(fp)
 180ffa4:	1004c03a 	cmpne	r2,r2,zero
 180ffa8:	1000031e 	bne	r2,zero,180ffb8 <alt_unlock_block_intel+0x138>
    {
      ret_code = -ETIMEDOUT;
 180ffac:	00bfe304 	movi	r2,-116
 180ffb0:	e0bffc15 	stw	r2,-16(fp)
 180ffb4:	00000606 	br	180ffd0 <alt_unlock_block_intel+0x150>
    }
    else if (status & 0x7f)
 180ffb8:	e0bffd03 	ldbu	r2,-12(fp)
 180ffbc:	10801fcc 	andi	r2,r2,127
 180ffc0:	1005003a 	cmpeq	r2,r2,zero
 180ffc4:	1000021e 	bne	r2,zero,180ffd0 <alt_unlock_block_intel+0x150>
    {
      /* If we have an error of some kind bomb out */
      ret_code = -EIO;
 180ffc8:	00bffec4 	movi	r2,-5
 180ffcc:	e0bffc15 	stw	r2,-16(fp)
  }

  /*
  * Back to Read Array mode
  */
  flash->write_native((alt_u8*)flash->dev.base_addr + block_offset, 0xFF);
 180ffd0:	e0bffe17 	ldw	r2,-8(fp)
 180ffd4:	11803517 	ldw	r6,212(r2)
 180ffd8:	e0bffe17 	ldw	r2,-8(fp)
 180ffdc:	10800a17 	ldw	r2,40(r2)
 180ffe0:	1007883a 	mov	r3,r2
 180ffe4:	e0bfff17 	ldw	r2,-4(fp)
 180ffe8:	1889883a 	add	r4,r3,r2
 180ffec:	01403fc4 	movi	r5,255
 180fff0:	303ee83a 	callr	r6

  return ret_code;
 180fff4:	e0bffc17 	ldw	r2,-16(fp)
}
 180fff8:	e037883a 	mov	sp,fp
 180fffc:	dfc00117 	ldw	ra,4(sp)
 1810000:	df000017 	ldw	fp,0(sp)
 1810004:	dec00204 	addi	sp,sp,8
 1810008:	f800283a 	ret

0181000c <alt_write_word_intel>:
 * offset bytes into the flash
 */
 
int alt_write_word_intel( alt_flash_cfi_dev* flash, 
                                  const int offset, const alt_u8* src_addr)
{ 
 181000c:	defff904 	addi	sp,sp,-28
 1810010:	dfc00615 	stw	ra,24(sp)
 1810014:	df000515 	stw	fp,20(sp)
 1810018:	df000504 	addi	fp,sp,20
 181001c:	e13ffd15 	stw	r4,-12(fp)
 1810020:	e17ffe15 	stw	r5,-8(fp)
 1810024:	e1bfff15 	stw	r6,-4(fp)
  int ret_code = 0;
 1810028:	e03ffc15 	stw	zero,-16(fp)
  alt_u8 status;
  (*flash->write_native)((alt_u8*)flash->dev.base_addr+offset, 0x40);
 181002c:	e0bffd17 	ldw	r2,-12(fp)
 1810030:	11803517 	ldw	r6,212(r2)
 1810034:	e0bffd17 	ldw	r2,-12(fp)
 1810038:	10800a17 	ldw	r2,40(r2)
 181003c:	1007883a 	mov	r3,r2
 1810040:	e0bffe17 	ldw	r2,-8(fp)
 1810044:	1889883a 	add	r4,r3,r2
 1810048:	01401004 	movi	r5,64
 181004c:	303ee83a 	callr	r6
  alt_write_value_to_flash(flash, offset, src_addr);
 1810050:	e13ffd17 	ldw	r4,-12(fp)
 1810054:	e17ffe17 	ldw	r5,-8(fp)
 1810058:	e1bfff17 	ldw	r6,-4(fp)
 181005c:	180accc0 	call	180accc <alt_write_value_to_flash>

  do
  {
    status = IORD_8DIRECT(flash->dev.base_addr, offset);
 1810060:	e0bffd17 	ldw	r2,-12(fp)
 1810064:	10800a17 	ldw	r2,40(r2)
 1810068:	1007883a 	mov	r3,r2
 181006c:	e0bffe17 	ldw	r2,-8(fp)
 1810070:	1885883a 	add	r2,r3,r2
 1810074:	10800023 	ldbuio	r2,0(r2)
 1810078:	e0bffb05 	stb	r2,-20(fp)
  }while(!(status & 0x80));
 181007c:	e0bffb03 	ldbu	r2,-20(fp)
 1810080:	10803fcc 	andi	r2,r2,255
 1810084:	1080201c 	xori	r2,r2,128
 1810088:	10bfe004 	addi	r2,r2,-128
 181008c:	1004403a 	cmpge	r2,r2,zero
 1810090:	103ff31e 	bne	r2,zero,1810060 <alt_write_word_intel+0x54>

  /* If we have an error of some kind bomb out */
  if (status & 0x7f)
 1810094:	e0bffb03 	ldbu	r2,-20(fp)
 1810098:	10801fcc 	andi	r2,r2,127
 181009c:	1005003a 	cmpeq	r2,r2,zero
 18100a0:	1000021e 	bne	r2,zero,18100ac <alt_write_word_intel+0xa0>
  {
    ret_code = -EIO;
 18100a4:	00bffec4 	movi	r2,-5
 18100a8:	e0bffc15 	stw	r2,-16(fp)
  }

  /* Put the device back into read array mode */
  flash->write_native((alt_u8*)flash->dev.base_addr + offset, 0xFF);
 18100ac:	e0bffd17 	ldw	r2,-12(fp)
 18100b0:	11803517 	ldw	r6,212(r2)
 18100b4:	e0bffd17 	ldw	r2,-12(fp)
 18100b8:	10800a17 	ldw	r2,40(r2)
 18100bc:	1007883a 	mov	r3,r2
 18100c0:	e0bffe17 	ldw	r2,-8(fp)
 18100c4:	1889883a 	add	r4,r3,r2
 18100c8:	01403fc4 	movi	r5,255
 18100cc:	303ee83a 	callr	r6
  
  return ret_code;
 18100d0:	e0bffc17 	ldw	r2,-16(fp)
}
 18100d4:	e037883a 	mov	sp,fp
 18100d8:	dfc00117 	ldw	ra,4(sp)
 18100dc:	df000017 	ldw	fp,0(sp)
 18100e0:	dec00204 	addi	sp,sp,8
 18100e4:	f800283a 	ret

018100e8 <alt_find_dev>:
 * "name" must be an exact match for the devices registered name for a match to
 * be found.
 */
 
alt_dev* alt_find_dev(const char* name, alt_llist* llist)
{
 18100e8:	defff904 	addi	sp,sp,-28
 18100ec:	dfc00615 	stw	ra,24(sp)
 18100f0:	df000515 	stw	fp,20(sp)
 18100f4:	df000504 	addi	fp,sp,20
 18100f8:	e13ffd15 	stw	r4,-12(fp)
 18100fc:	e17ffe15 	stw	r5,-8(fp)
  alt_dev* next = (alt_dev*) llist->next;
 1810100:	e0bffe17 	ldw	r2,-8(fp)
 1810104:	10800017 	ldw	r2,0(r2)
 1810108:	e0bffc15 	stw	r2,-16(fp)
  alt_32 len;

  len  = strlen(name) + 1;
 181010c:	e13ffd17 	ldw	r4,-12(fp)
 1810110:	18006fc0 	call	18006fc <strlen>
 1810114:	10800044 	addi	r2,r2,1
 1810118:	e0bffb15 	stw	r2,-20(fp)
  /*
   * Check each list entry in turn, until a match is found, or we reach the
   * end of the list (i.e. next winds up pointing back to the list head).
   */ 

  while (next != (alt_dev*) llist)
 181011c:	00000d06 	br	1810154 <alt_find_dev+0x6c>
    /* 
     * memcmp() is used here rather than strcmp() in order to reduce the size
     * of the executable.
     */

    if (!memcmp (next->name, name, len))
 1810120:	e0bffc17 	ldw	r2,-16(fp)
 1810124:	11000217 	ldw	r4,8(r2)
 1810128:	e1bffb17 	ldw	r6,-20(fp)
 181012c:	e17ffd17 	ldw	r5,-12(fp)
 1810130:	181047c0 	call	181047c <memcmp>
 1810134:	1004c03a 	cmpne	r2,r2,zero
 1810138:	1000031e 	bne	r2,zero,1810148 <alt_find_dev+0x60>
    {
      /* match found */

      return next;
 181013c:	e0bffc17 	ldw	r2,-16(fp)
 1810140:	e0bfff15 	stw	r2,-4(fp)
 1810144:	00000706 	br	1810164 <alt_find_dev+0x7c>
    }
    next = (alt_dev*) next->llist.next;
 1810148:	e0bffc17 	ldw	r2,-16(fp)
 181014c:	10800017 	ldw	r2,0(r2)
 1810150:	e0bffc15 	stw	r2,-16(fp)
  /*
   * Check each list entry in turn, until a match is found, or we reach the
   * end of the list (i.e. next winds up pointing back to the list head).
   */ 

  while (next != (alt_dev*) llist)
 1810154:	e0fffe17 	ldw	r3,-8(fp)
 1810158:	e0bffc17 	ldw	r2,-16(fp)
 181015c:	10fff01e 	bne	r2,r3,1810120 <alt_find_dev+0x38>
    next = (alt_dev*) next->llist.next;
  }
  
  /* No match found */
  
  return NULL;
 1810160:	e03fff15 	stw	zero,-4(fp)
 1810164:	e0bfff17 	ldw	r2,-4(fp)
}
 1810168:	e037883a 	mov	sp,fp
 181016c:	dfc00117 	ldw	ra,4(sp)
 1810170:	df000017 	ldw	fp,0(sp)
 1810174:	dec00204 	addi	sp,sp,8
 1810178:	f800283a 	ret

0181017c <alt_find_file>:
 * either '/' or '\0' is the prefix of the filename. For example the filename:
 * "/myfilesystem/junk.txt" would match: "/myfilesystem", but not: "/myfile". 
 */
 
alt_dev* alt_find_file (const char* name)
{
 181017c:	defffa04 	addi	sp,sp,-24
 1810180:	dfc00515 	stw	ra,20(sp)
 1810184:	df000415 	stw	fp,16(sp)
 1810188:	df000404 	addi	fp,sp,16
 181018c:	e13ffe15 	stw	r4,-8(fp)
  alt_dev* next = (alt_dev*) alt_fs_list.next;   
 1810190:	00806074 	movhi	r2,385
 1810194:	108aea04 	addi	r2,r2,11176
 1810198:	10800017 	ldw	r2,0(r2)
 181019c:	e0bffd15 	stw	r2,-12(fp)
  /*
   * Check each list entry in turn, until a match is found, or we reach the
   * end of the list (i.e. next winds up pointing back to the list head).
   */ 
 
  while (next != (alt_dev*) &alt_fs_list)
 18101a0:	00003306 	br	1810270 <alt_find_file+0xf4>
  {
    len = strlen(next->name);
 18101a4:	e0bffd17 	ldw	r2,-12(fp)
 18101a8:	11000217 	ldw	r4,8(r2)
 18101ac:	18006fc0 	call	18006fc <strlen>
 18101b0:	e0bffc15 	stw	r2,-16(fp)
    
    if (next->name[len-1] == '/')
 18101b4:	e0bffd17 	ldw	r2,-12(fp)
 18101b8:	10c00217 	ldw	r3,8(r2)
 18101bc:	e0bffc17 	ldw	r2,-16(fp)
 18101c0:	1885883a 	add	r2,r3,r2
 18101c4:	10bfffc4 	addi	r2,r2,-1
 18101c8:	10800003 	ldbu	r2,0(r2)
 18101cc:	10803fcc 	andi	r2,r2,255
 18101d0:	1080201c 	xori	r2,r2,128
 18101d4:	10bfe004 	addi	r2,r2,-128
 18101d8:	10800bd8 	cmpnei	r2,r2,47
 18101dc:	1000031e 	bne	r2,zero,18101ec <alt_find_file+0x70>
    {
      len -= 1;
 18101e0:	e0bffc17 	ldw	r2,-16(fp)
 18101e4:	10bfffc4 	addi	r2,r2,-1
 18101e8:	e0bffc15 	stw	r2,-16(fp)
    }

    if (((name[len] == '/') || (name[len] == '\0')) && 
 18101ec:	e0bffc17 	ldw	r2,-16(fp)
 18101f0:	1007883a 	mov	r3,r2
 18101f4:	e0bffe17 	ldw	r2,-8(fp)
 18101f8:	1885883a 	add	r2,r3,r2
 18101fc:	10800003 	ldbu	r2,0(r2)
 1810200:	10803fcc 	andi	r2,r2,255
 1810204:	1080201c 	xori	r2,r2,128
 1810208:	10bfe004 	addi	r2,r2,-128
 181020c:	10800be0 	cmpeqi	r2,r2,47
 1810210:	10000a1e 	bne	r2,zero,181023c <alt_find_file+0xc0>
 1810214:	e0bffc17 	ldw	r2,-16(fp)
 1810218:	1007883a 	mov	r3,r2
 181021c:	e0bffe17 	ldw	r2,-8(fp)
 1810220:	1885883a 	add	r2,r3,r2
 1810224:	10800003 	ldbu	r2,0(r2)
 1810228:	10803fcc 	andi	r2,r2,255
 181022c:	1080201c 	xori	r2,r2,128
 1810230:	10bfe004 	addi	r2,r2,-128
 1810234:	1004c03a 	cmpne	r2,r2,zero
 1810238:	10000a1e 	bne	r2,zero,1810264 <alt_find_file+0xe8>
 181023c:	e0bffd17 	ldw	r2,-12(fp)
 1810240:	11000217 	ldw	r4,8(r2)
 1810244:	e1bffc17 	ldw	r6,-16(fp)
 1810248:	e17ffe17 	ldw	r5,-8(fp)
 181024c:	181047c0 	call	181047c <memcmp>
 1810250:	1004c03a 	cmpne	r2,r2,zero
 1810254:	1000031e 	bne	r2,zero,1810264 <alt_find_file+0xe8>
        !memcmp (next->name, name, len))
    {
      /* match found */

      return next;
 1810258:	e0bffd17 	ldw	r2,-12(fp)
 181025c:	e0bfff15 	stw	r2,-4(fp)
 1810260:	00000806 	br	1810284 <alt_find_file+0x108>
    }
    next = (alt_dev*) next->llist.next;
 1810264:	e0bffd17 	ldw	r2,-12(fp)
 1810268:	10800017 	ldw	r2,0(r2)
 181026c:	e0bffd15 	stw	r2,-12(fp)
  /*
   * Check each list entry in turn, until a match is found, or we reach the
   * end of the list (i.e. next winds up pointing back to the list head).
   */ 
 
  while (next != (alt_dev*) &alt_fs_list)
 1810270:	00c06074 	movhi	r3,385
 1810274:	18caea04 	addi	r3,r3,11176
 1810278:	e0bffd17 	ldw	r2,-12(fp)
 181027c:	10ffc91e 	bne	r2,r3,18101a4 <alt_find_file+0x28>
    next = (alt_dev*) next->llist.next;
  }
  
  /* No match found */
  
  return NULL;     
 1810280:	e03fff15 	stw	zero,-4(fp)
 1810284:	e0bfff17 	ldw	r2,-4(fp)
}
 1810288:	e037883a 	mov	sp,fp
 181028c:	dfc00117 	ldw	ra,4(sp)
 1810290:	df000017 	ldw	fp,0(sp)
 1810294:	dec00204 	addi	sp,sp,8
 1810298:	f800283a 	ret

0181029c <alt_get_fd>:
 * the offset of the file descriptor within the file descriptor array). A
 * negative value indicates failure.
 */

int alt_get_fd (alt_dev* dev)
{
 181029c:	defffc04 	addi	sp,sp,-16
 18102a0:	df000315 	stw	fp,12(sp)
 18102a4:	df000304 	addi	fp,sp,12
 18102a8:	e13fff15 	stw	r4,-4(fp)
  alt_32 i;
  int rc = -EMFILE;
 18102ac:	00bffa04 	movi	r2,-24
 18102b0:	e0bffd15 	stw	r2,-12(fp)
   * indicates the highest file descriptor ever allocated. This is used to
   * improve efficency when searching the file descriptor list, and 
   * therefore reduce contention on the alt_fd_list_lock semaphore. 
   */

  for (i = 0; i < ALT_MAX_FD; i++)
 18102b4:	e03ffe15 	stw	zero,-8(fp)
 18102b8:	00001e06 	br	1810334 <alt_get_fd+0x98>
  {
    if (!alt_fd_list[i].dev)
 18102bc:	e0bffe17 	ldw	r2,-8(fp)
 18102c0:	00c06074 	movhi	r3,385
 18102c4:	18c5bd04 	addi	r3,r3,5876
 18102c8:	10800324 	muli	r2,r2,12
 18102cc:	10c5883a 	add	r2,r2,r3
 18102d0:	10800017 	ldw	r2,0(r2)
 18102d4:	1004c03a 	cmpne	r2,r2,zero
 18102d8:	1000131e 	bne	r2,zero,1810328 <alt_get_fd+0x8c>
    {
      alt_fd_list[i].dev = dev;
 18102dc:	e0bffe17 	ldw	r2,-8(fp)
 18102e0:	00c06074 	movhi	r3,385
 18102e4:	18c5bd04 	addi	r3,r3,5876
 18102e8:	10800324 	muli	r2,r2,12
 18102ec:	10c7883a 	add	r3,r2,r3
 18102f0:	e0bfff17 	ldw	r2,-4(fp)
 18102f4:	18800015 	stw	r2,0(r3)
      if (i > alt_max_fd)
 18102f8:	00806074 	movhi	r2,385
 18102fc:	108aee04 	addi	r2,r2,11192
 1810300:	10c00017 	ldw	r3,0(r2)
 1810304:	e0bffe17 	ldw	r2,-8(fp)
 1810308:	1880040e 	bge	r3,r2,181031c <alt_get_fd+0x80>
      {
        alt_max_fd = i;
 181030c:	00c06074 	movhi	r3,385
 1810310:	18caee04 	addi	r3,r3,11192
 1810314:	e0bffe17 	ldw	r2,-8(fp)
 1810318:	18800015 	stw	r2,0(r3)
      }
      rc = i;
 181031c:	e0bffe17 	ldw	r2,-8(fp)
 1810320:	e0bffd15 	stw	r2,-12(fp)
      goto alt_get_fd_exit;
 1810324:	00000606 	br	1810340 <alt_get_fd+0xa4>
   * indicates the highest file descriptor ever allocated. This is used to
   * improve efficency when searching the file descriptor list, and 
   * therefore reduce contention on the alt_fd_list_lock semaphore. 
   */

  for (i = 0; i < ALT_MAX_FD; i++)
 1810328:	e0bffe17 	ldw	r2,-8(fp)
 181032c:	10800044 	addi	r2,r2,1
 1810330:	e0bffe15 	stw	r2,-8(fp)
 1810334:	e0bffe17 	ldw	r2,-8(fp)
 1810338:	10800810 	cmplti	r2,r2,32
 181033c:	103fdf1e 	bne	r2,zero,18102bc <alt_get_fd+0x20>
   * file descriptor pool.
   */

  ALT_SEM_POST(alt_fd_list_lock);

  return rc;
 1810340:	e0bffd17 	ldw	r2,-12(fp)
}
 1810344:	e037883a 	mov	sp,fp
 1810348:	df000017 	ldw	fp,0(sp)
 181034c:	dec00104 	addi	sp,sp,4
 1810350:	f800283a 	ret

01810354 <alt_exception_cause_generated_bad_addr>:
 *
 * Return: 1: BADADDR (bad_addr argument to handler) is valid
 *         0: BADADDR is not valid
 */
int alt_exception_cause_generated_bad_addr(alt_exception_cause cause)
{
 1810354:	defffc04 	addi	sp,sp,-16
 1810358:	df000315 	stw	fp,12(sp)
 181035c:	df000304 	addi	fp,sp,12
 1810360:	e13ffd15 	stw	r4,-12(fp)
  switch (cause) {
 1810364:	e0bffd17 	ldw	r2,-12(fp)
 1810368:	10bffe84 	addi	r2,r2,-6
 181036c:	e0bfff15 	stw	r2,-4(fp)
 1810370:	e0ffff17 	ldw	r3,-4(fp)
 1810374:	18800328 	cmpgeui	r2,r3,12
 1810378:	1000271e 	bne	r2,zero,1810418 <alt_exception_cause_generated_bad_addr+0xc4>
 181037c:	e13fff17 	ldw	r4,-4(fp)
 1810380:	e13fff17 	ldw	r4,-4(fp)
 1810384:	2105883a 	add	r2,r4,r4
 1810388:	1087883a 	add	r3,r2,r2
 181038c:	00806074 	movhi	r2,385
 1810390:	1080e804 	addi	r2,r2,928
 1810394:	1885883a 	add	r2,r3,r2
 1810398:	10800017 	ldw	r2,0(r2)
 181039c:	1000683a 	jmp	r2
 18103a0:	018103dc 	xori	r6,zero,1039
 18103a4:	018103e8 	cmpgeui	r6,zero,1039
 18103a8:	01810418 	cmpnei	r6,zero,1040
 18103ac:	01810418 	cmpnei	r6,zero,1040
 18103b0:	01810418 	cmpnei	r6,zero,1040
 18103b4:	018103d0 	cmplti	r6,zero,1039
 18103b8:	01810418 	cmpnei	r6,zero,1040
 18103bc:	01810418 	cmpnei	r6,zero,1040
 18103c0:	018103f4 	movhi	r6,1039
 18103c4:	01810400 	call	181040 <__alt_mem_sdram-0x167efc0>
 18103c8:	01810418 	cmpnei	r6,zero,1040
 18103cc:	0181040c 	andi	r6,zero,1040
  case NIOS2_EXCEPTION_SUPERVISOR_ONLY_DATA_ADDR:
    return 1;
 18103d0:	00800044 	movi	r2,1
 18103d4:	e0bffe15 	stw	r2,-8(fp)
 18103d8:	00001006 	br	181041c <alt_exception_cause_generated_bad_addr+0xc8>
  case NIOS2_EXCEPTION_MISALIGNED_DATA_ADDR:
    return 1;
 18103dc:	00c00044 	movi	r3,1
 18103e0:	e0fffe15 	stw	r3,-8(fp)
 18103e4:	00000d06 	br	181041c <alt_exception_cause_generated_bad_addr+0xc8>
  case NIOS2_EXCEPTION_MISALIGNED_TARGET_PC:
    return 1;
 18103e8:	01000044 	movi	r4,1
 18103ec:	e13ffe15 	stw	r4,-8(fp)
 18103f0:	00000a06 	br	181041c <alt_exception_cause_generated_bad_addr+0xc8>
  case NIOS2_EXCEPTION_TLB_READ_PERM_VIOLATION:
    return 1;
 18103f4:	00800044 	movi	r2,1
 18103f8:	e0bffe15 	stw	r2,-8(fp)
 18103fc:	00000706 	br	181041c <alt_exception_cause_generated_bad_addr+0xc8>
  case NIOS2_EXCEPTION_TLB_WRITE_PERM_VIOLATION:
    return 1;
 1810400:	00c00044 	movi	r3,1
 1810404:	e0fffe15 	stw	r3,-8(fp)
 1810408:	00000406 	br	181041c <alt_exception_cause_generated_bad_addr+0xc8>
  case NIOS2_EXCEPTION_MPU_DATA_REGION_VIOLATION:
    return 1;
 181040c:	01000044 	movi	r4,1
 1810410:	e13ffe15 	stw	r4,-8(fp)
 1810414:	00000106 	br	181041c <alt_exception_cause_generated_bad_addr+0xc8>
  default:
    return 0;
 1810418:	e03ffe15 	stw	zero,-8(fp)
 181041c:	e0bffe17 	ldw	r2,-8(fp)
  }
}
 1810420:	e037883a 	mov	sp,fp
 1810424:	df000017 	ldw	fp,0(sp)
 1810428:	dec00104 	addi	sp,sp,4
 181042c:	f800283a 	ret

01810430 <atexit>:
 1810430:	200b883a 	mov	r5,r4
 1810434:	000d883a 	mov	r6,zero
 1810438:	0009883a 	mov	r4,zero
 181043c:	000f883a 	mov	r7,zero
 1810440:	18104f01 	jmpi	18104f0 <__register_exitproc>

01810444 <exit>:
 1810444:	defffe04 	addi	sp,sp,-8
 1810448:	000b883a 	mov	r5,zero
 181044c:	dc000015 	stw	r16,0(sp)
 1810450:	dfc00115 	stw	ra,4(sp)
 1810454:	2021883a 	mov	r16,r4
 1810458:	18106280 	call	1810628 <__call_exitprocs>
 181045c:	00806074 	movhi	r2,385
 1810460:	108ae504 	addi	r2,r2,11156
 1810464:	11000017 	ldw	r4,0(r2)
 1810468:	20800f17 	ldw	r2,60(r4)
 181046c:	10000126 	beq	r2,zero,1810474 <exit+0x30>
 1810470:	103ee83a 	callr	r2
 1810474:	8009883a 	mov	r4,r16
 1810478:	18108180 	call	1810818 <_exit>

0181047c <memcmp>:
 181047c:	00c000c4 	movi	r3,3
 1810480:	1980032e 	bgeu	r3,r6,1810490 <memcmp+0x14>
 1810484:	2144b03a 	or	r2,r4,r5
 1810488:	10c4703a 	and	r2,r2,r3
 181048c:	10000f26 	beq	r2,zero,18104cc <memcmp+0x50>
 1810490:	31ffffc4 	addi	r7,r6,-1
 1810494:	3000061e 	bne	r6,zero,18104b0 <memcmp+0x34>
 1810498:	00000a06 	br	18104c4 <memcmp+0x48>
 181049c:	39ffffc4 	addi	r7,r7,-1
 18104a0:	00bfffc4 	movi	r2,-1
 18104a4:	21000044 	addi	r4,r4,1
 18104a8:	29400044 	addi	r5,r5,1
 18104ac:	38800526 	beq	r7,r2,18104c4 <memcmp+0x48>
 18104b0:	20c00003 	ldbu	r3,0(r4)
 18104b4:	28800003 	ldbu	r2,0(r5)
 18104b8:	18bff826 	beq	r3,r2,181049c <memcmp+0x20>
 18104bc:	1885c83a 	sub	r2,r3,r2
 18104c0:	f800283a 	ret
 18104c4:	0005883a 	mov	r2,zero
 18104c8:	f800283a 	ret
 18104cc:	180f883a 	mov	r7,r3
 18104d0:	20c00017 	ldw	r3,0(r4)
 18104d4:	28800017 	ldw	r2,0(r5)
 18104d8:	18bfed1e 	bne	r3,r2,1810490 <memcmp+0x14>
 18104dc:	31bfff04 	addi	r6,r6,-4
 18104e0:	21000104 	addi	r4,r4,4
 18104e4:	29400104 	addi	r5,r5,4
 18104e8:	39bff936 	bltu	r7,r6,18104d0 <memcmp+0x54>
 18104ec:	003fe806 	br	1810490 <memcmp+0x14>

018104f0 <__register_exitproc>:
 18104f0:	defffa04 	addi	sp,sp,-24
 18104f4:	00806074 	movhi	r2,385
 18104f8:	108ae504 	addi	r2,r2,11156
 18104fc:	dc000015 	stw	r16,0(sp)
 1810500:	14000017 	ldw	r16,0(r2)
 1810504:	dd000415 	stw	r20,16(sp)
 1810508:	2829883a 	mov	r20,r5
 181050c:	81405217 	ldw	r5,328(r16)
 1810510:	dcc00315 	stw	r19,12(sp)
 1810514:	dc800215 	stw	r18,8(sp)
 1810518:	dc400115 	stw	r17,4(sp)
 181051c:	dfc00515 	stw	ra,20(sp)
 1810520:	2023883a 	mov	r17,r4
 1810524:	3027883a 	mov	r19,r6
 1810528:	3825883a 	mov	r18,r7
 181052c:	28002526 	beq	r5,zero,18105c4 <__register_exitproc+0xd4>
 1810530:	29000117 	ldw	r4,4(r5)
 1810534:	008007c4 	movi	r2,31
 1810538:	11002716 	blt	r2,r4,18105d8 <__register_exitproc+0xe8>
 181053c:	8800101e 	bne	r17,zero,1810580 <__register_exitproc+0x90>
 1810540:	2105883a 	add	r2,r4,r4
 1810544:	1085883a 	add	r2,r2,r2
 1810548:	20c00044 	addi	r3,r4,1
 181054c:	1145883a 	add	r2,r2,r5
 1810550:	0009883a 	mov	r4,zero
 1810554:	15000215 	stw	r20,8(r2)
 1810558:	28c00115 	stw	r3,4(r5)
 181055c:	2005883a 	mov	r2,r4
 1810560:	dfc00517 	ldw	ra,20(sp)
 1810564:	dd000417 	ldw	r20,16(sp)
 1810568:	dcc00317 	ldw	r19,12(sp)
 181056c:	dc800217 	ldw	r18,8(sp)
 1810570:	dc400117 	ldw	r17,4(sp)
 1810574:	dc000017 	ldw	r16,0(sp)
 1810578:	dec00604 	addi	sp,sp,24
 181057c:	f800283a 	ret
 1810580:	29802204 	addi	r6,r5,136
 1810584:	00800044 	movi	r2,1
 1810588:	110e983a 	sll	r7,r2,r4
 181058c:	30c04017 	ldw	r3,256(r6)
 1810590:	2105883a 	add	r2,r4,r4
 1810594:	1085883a 	add	r2,r2,r2
 1810598:	1185883a 	add	r2,r2,r6
 181059c:	19c6b03a 	or	r3,r3,r7
 18105a0:	14802015 	stw	r18,128(r2)
 18105a4:	14c00015 	stw	r19,0(r2)
 18105a8:	00800084 	movi	r2,2
 18105ac:	30c04015 	stw	r3,256(r6)
 18105b0:	88bfe31e 	bne	r17,r2,1810540 <__register_exitproc+0x50>
 18105b4:	30804117 	ldw	r2,260(r6)
 18105b8:	11c4b03a 	or	r2,r2,r7
 18105bc:	30804115 	stw	r2,260(r6)
 18105c0:	003fdf06 	br	1810540 <__register_exitproc+0x50>
 18105c4:	00806074 	movhi	r2,385
 18105c8:	108b5004 	addi	r2,r2,11584
 18105cc:	100b883a 	mov	r5,r2
 18105d0:	80805215 	stw	r2,328(r16)
 18105d4:	003fd606 	br	1810530 <__register_exitproc+0x40>
 18105d8:	00800034 	movhi	r2,0
 18105dc:	10800004 	addi	r2,r2,0
 18105e0:	1000021e 	bne	r2,zero,18105ec <__register_exitproc+0xfc>
 18105e4:	013fffc4 	movi	r4,-1
 18105e8:	003fdc06 	br	181055c <__register_exitproc+0x6c>
 18105ec:	01006404 	movi	r4,400
 18105f0:	103ee83a 	callr	r2
 18105f4:	1007883a 	mov	r3,r2
 18105f8:	103ffa26 	beq	r2,zero,18105e4 <__register_exitproc+0xf4>
 18105fc:	80805217 	ldw	r2,328(r16)
 1810600:	180b883a 	mov	r5,r3
 1810604:	18000115 	stw	zero,4(r3)
 1810608:	18800015 	stw	r2,0(r3)
 181060c:	80c05215 	stw	r3,328(r16)
 1810610:	18006215 	stw	zero,392(r3)
 1810614:	18006315 	stw	zero,396(r3)
 1810618:	0009883a 	mov	r4,zero
 181061c:	883fc826 	beq	r17,zero,1810540 <__register_exitproc+0x50>
 1810620:	003fd706 	br	1810580 <__register_exitproc+0x90>

01810624 <register_fini>:
 1810624:	f800283a 	ret

01810628 <__call_exitprocs>:
 1810628:	00806074 	movhi	r2,385
 181062c:	108ae504 	addi	r2,r2,11156
 1810630:	10800017 	ldw	r2,0(r2)
 1810634:	defff304 	addi	sp,sp,-52
 1810638:	df000b15 	stw	fp,44(sp)
 181063c:	d8800115 	stw	r2,4(sp)
 1810640:	00800034 	movhi	r2,0
 1810644:	10800004 	addi	r2,r2,0
 1810648:	1005003a 	cmpeq	r2,r2,zero
 181064c:	d8800215 	stw	r2,8(sp)
 1810650:	d8800117 	ldw	r2,4(sp)
 1810654:	dd400815 	stw	r21,32(sp)
 1810658:	dd000715 	stw	r20,28(sp)
 181065c:	10805204 	addi	r2,r2,328
 1810660:	dfc00c15 	stw	ra,48(sp)
 1810664:	ddc00a15 	stw	r23,40(sp)
 1810668:	dd800915 	stw	r22,36(sp)
 181066c:	dcc00615 	stw	r19,24(sp)
 1810670:	dc800515 	stw	r18,20(sp)
 1810674:	dc400415 	stw	r17,16(sp)
 1810678:	dc000315 	stw	r16,12(sp)
 181067c:	282b883a 	mov	r21,r5
 1810680:	2039883a 	mov	fp,r4
 1810684:	d8800015 	stw	r2,0(sp)
 1810688:	2829003a 	cmpeq	r20,r5,zero
 181068c:	d8800117 	ldw	r2,4(sp)
 1810690:	14405217 	ldw	r17,328(r2)
 1810694:	88001026 	beq	r17,zero,18106d8 <__call_exitprocs+0xb0>
 1810698:	ddc00017 	ldw	r23,0(sp)
 181069c:	88800117 	ldw	r2,4(r17)
 18106a0:	8c802204 	addi	r18,r17,136
 18106a4:	143fffc4 	addi	r16,r2,-1
 18106a8:	80000916 	blt	r16,zero,18106d0 <__call_exitprocs+0xa8>
 18106ac:	05bfffc4 	movi	r22,-1
 18106b0:	a000151e 	bne	r20,zero,1810708 <__call_exitprocs+0xe0>
 18106b4:	8409883a 	add	r4,r16,r16
 18106b8:	2105883a 	add	r2,r4,r4
 18106bc:	1485883a 	add	r2,r2,r18
 18106c0:	10c02017 	ldw	r3,128(r2)
 18106c4:	a8c01126 	beq	r21,r3,181070c <__call_exitprocs+0xe4>
 18106c8:	843fffc4 	addi	r16,r16,-1
 18106cc:	85bff81e 	bne	r16,r22,18106b0 <__call_exitprocs+0x88>
 18106d0:	d8800217 	ldw	r2,8(sp)
 18106d4:	10003126 	beq	r2,zero,181079c <__call_exitprocs+0x174>
 18106d8:	dfc00c17 	ldw	ra,48(sp)
 18106dc:	df000b17 	ldw	fp,44(sp)
 18106e0:	ddc00a17 	ldw	r23,40(sp)
 18106e4:	dd800917 	ldw	r22,36(sp)
 18106e8:	dd400817 	ldw	r21,32(sp)
 18106ec:	dd000717 	ldw	r20,28(sp)
 18106f0:	dcc00617 	ldw	r19,24(sp)
 18106f4:	dc800517 	ldw	r18,20(sp)
 18106f8:	dc400417 	ldw	r17,16(sp)
 18106fc:	dc000317 	ldw	r16,12(sp)
 1810700:	dec00d04 	addi	sp,sp,52
 1810704:	f800283a 	ret
 1810708:	8409883a 	add	r4,r16,r16
 181070c:	88c00117 	ldw	r3,4(r17)
 1810710:	2105883a 	add	r2,r4,r4
 1810714:	1445883a 	add	r2,r2,r17
 1810718:	18ffffc4 	addi	r3,r3,-1
 181071c:	11800217 	ldw	r6,8(r2)
 1810720:	1c001526 	beq	r3,r16,1810778 <__call_exitprocs+0x150>
 1810724:	10000215 	stw	zero,8(r2)
 1810728:	303fe726 	beq	r6,zero,18106c8 <__call_exitprocs+0xa0>
 181072c:	00c00044 	movi	r3,1
 1810730:	1c06983a 	sll	r3,r3,r16
 1810734:	90804017 	ldw	r2,256(r18)
 1810738:	8cc00117 	ldw	r19,4(r17)
 181073c:	1884703a 	and	r2,r3,r2
 1810740:	10001426 	beq	r2,zero,1810794 <__call_exitprocs+0x16c>
 1810744:	90804117 	ldw	r2,260(r18)
 1810748:	1884703a 	and	r2,r3,r2
 181074c:	10000c1e 	bne	r2,zero,1810780 <__call_exitprocs+0x158>
 1810750:	2105883a 	add	r2,r4,r4
 1810754:	1485883a 	add	r2,r2,r18
 1810758:	11400017 	ldw	r5,0(r2)
 181075c:	e009883a 	mov	r4,fp
 1810760:	303ee83a 	callr	r6
 1810764:	88800117 	ldw	r2,4(r17)
 1810768:	98bfc81e 	bne	r19,r2,181068c <__call_exitprocs+0x64>
 181076c:	b8800017 	ldw	r2,0(r23)
 1810770:	147fd526 	beq	r2,r17,18106c8 <__call_exitprocs+0xa0>
 1810774:	003fc506 	br	181068c <__call_exitprocs+0x64>
 1810778:	8c000115 	stw	r16,4(r17)
 181077c:	003fea06 	br	1810728 <__call_exitprocs+0x100>
 1810780:	2105883a 	add	r2,r4,r4
 1810784:	1485883a 	add	r2,r2,r18
 1810788:	11000017 	ldw	r4,0(r2)
 181078c:	303ee83a 	callr	r6
 1810790:	003ff406 	br	1810764 <__call_exitprocs+0x13c>
 1810794:	303ee83a 	callr	r6
 1810798:	003ff206 	br	1810764 <__call_exitprocs+0x13c>
 181079c:	88800117 	ldw	r2,4(r17)
 18107a0:	1000081e 	bne	r2,zero,18107c4 <__call_exitprocs+0x19c>
 18107a4:	89000017 	ldw	r4,0(r17)
 18107a8:	20000726 	beq	r4,zero,18107c8 <__call_exitprocs+0x1a0>
 18107ac:	b9000015 	stw	r4,0(r23)
 18107b0:	8809883a 	mov	r4,r17
 18107b4:	00000000 	call	0 <__alt_mem_sdram-0x1800000>
 18107b8:	bc400017 	ldw	r17,0(r23)
 18107bc:	883fb71e 	bne	r17,zero,181069c <__call_exitprocs+0x74>
 18107c0:	003fc506 	br	18106d8 <__call_exitprocs+0xb0>
 18107c4:	89000017 	ldw	r4,0(r17)
 18107c8:	882f883a 	mov	r23,r17
 18107cc:	2023883a 	mov	r17,r4
 18107d0:	883fb21e 	bne	r17,zero,181069c <__call_exitprocs+0x74>
 18107d4:	003fc006 	br	18106d8 <__call_exitprocs+0xb0>

018107d8 <alt_sim_halt>:

/*
 * Routine called on exit.
 */
static ALT_ALWAYS_INLINE void alt_sim_halt(int exit_code)
{
 18107d8:	defffd04 	addi	sp,sp,-12
 18107dc:	df000215 	stw	fp,8(sp)
 18107e0:	df000204 	addi	fp,sp,8
 18107e4:	e13fff15 	stw	r4,-4(fp)
  int r2 = exit_code;
 18107e8:	e0bfff17 	ldw	r2,-4(fp)
 18107ec:	e0bffe15 	stw	r2,-8(fp)
  __asm__ volatile ("\n0:\n\taddi %0,%0, -1\n\tbgt %0,zero,0b" : : "r" (ALT_CPU_FREQ/100) ); /* Delay for >30ms */

  __asm__ volatile ("break 2" : : "D02"(r2), "D03"(r3) ALT_GMON_DATA );

#else /* !DEBUG_STUB */
  if (r2) {
 18107f0:	e0bffe17 	ldw	r2,-8(fp)
 18107f4:	1005003a 	cmpeq	r2,r2,zero
 18107f8:	1000021e 	bne	r2,zero,1810804 <alt_sim_halt+0x2c>
    ALT_SIM_FAIL();
 18107fc:	002af070 	cmpltui	zero,zero,43969
 1810800:	00000106 	br	1810808 <alt_sim_halt+0x30>
  } else {
    ALT_SIM_PASS();
 1810804:	002af0b0 	cmpltui	zero,zero,43970
  }
#endif /* DEBUG_STUB */
}
 1810808:	e037883a 	mov	sp,fp
 181080c:	df000017 	ldw	fp,0(sp)
 1810810:	dec00104 	addi	sp,sp,4
 1810814:	f800283a 	ret

01810818 <_exit>:
 *
 * ALT_EXIT is mapped onto the _exit() system call in alt_syscall.h
 */

void ALT_EXIT (int exit_code)
{
 1810818:	defffd04 	addi	sp,sp,-12
 181081c:	dfc00215 	stw	ra,8(sp)
 1810820:	df000115 	stw	fp,4(sp)
 1810824:	df000104 	addi	fp,sp,4
 1810828:	e13fff15 	stw	r4,-4(fp)
  ALT_OS_STOP();

  /* Provide notification to the simulator that we've stopped */

  ALT_LOG_PRINT_BOOT("[alt_exit.c] Calling ALT_SIM_HALT().\r\n");
  ALT_SIM_HALT(exit_code);
 181082c:	e13fff17 	ldw	r4,-4(fp)
 1810830:	18107d80 	call	18107d8 <alt_sim_halt>

  /* spin forever, since there's no where to go back to */

  ALT_LOG_PRINT_BOOT("[alt_exit.c] Spinning forever.\r\n");
  while (1);
 1810834:	003fff06 	br	1810834 <_exit+0x1c>
 1810838:	00000010 	cmplti	zero,zero,0
 181083c:	00000000 	call	0 <__alt_mem_sdram-0x1800000>
 1810840:	00527a01 	jmpi	527a0 <__alt_mem_sdram-0x17ad860>
 1810844:	011f7c01 	jmpi	11f7c0 <__alt_mem_sdram-0x16e0840>
 1810848:	001b0c0b 	ldhu	zero,27696(zero)
 181084c:	00000028 	cmpgeui	zero,zero,0
 1810850:	00000018 	cmpnei	zero,zero,0
 1810854:	018078e4 	muli	r6,zero,483
 1810858:	000005dc 	xori	zero,zero,23
 181085c:	400e4400 	call	400e440 <alt_instruction_exception_entry+0x180627c>
 1810860:	92099170 	cmpltui	r8,r18,9797
 1810864:	95079308 	cmpgei	r20,r18,7756
 1810868:	97049605 	stb	fp,4696(r18)
 181086c:	90019f03 	ldbu	zero,1660(r18)
 1810870:	9c06940a 	0x9c06940a
 1810874:	00000002 	0x2
 1810878:	00000028 	cmpgeui	zero,zero,0
 181087c:	00000044 	movi	zero,1
 1810880:	01807ec0 	call	1807ec <__alt_mem_sdram-0x167f814>
 1810884:	000005b0 	cmpltui	zero,zero,22
 1810888:	3c0e4400 	call	3c0e440 <alt_instruction_exception_entry+0x140627c>
 181088c:	92099168 	cmpgeui	r8,r18,9797
 1810890:	95079308 	cmpgei	r20,r18,7756
 1810894:	9c039705 	stb	r16,3676(r19)
 1810898:	90019f02 	0x90019f02
 181089c:	9606940a 	0x9606940a
 18108a0:	00000004 	movi	zero,0
 18108a4:	01810624 	muli	r6,zero,1048
