
HelloWorldnew.elf:     file format elf32-littlenios2
HelloWorldnew.elf
architecture: nios2, flags 0x00000112:
EXEC_P, HAS_SYMS, D_PAGED
start address 0x01800000

Program Header:
    LOAD off    0x00001000 vaddr 0x01800000 paddr 0x01800000 align 2**12
         filesz 0x00017b60 memsz 0x00017e58 flags rwx
    LOAD off    0x00019000 vaddr 0x02400000 paddr 0x02400000 align 2**12
         filesz 0x00000000 memsz 0x00000000 flags r-x
    LOAD off    0x00019020 vaddr 0x02808020 paddr 0x02808020 align 2**12
         filesz 0x0000020c memsz 0x0000020c flags r-x

Sections:
Idx Name          Size      VMA       LMA       File off  Algn
  0 .entry        00000000  02400000  02400000  00019000  2**5
                  CONTENTS, ALLOC, LOAD, READONLY, CODE
  1 .exceptions   0000020c  02808020  02808020  00019020  2**2
                  CONTENTS, ALLOC, LOAD, READONLY, CODE
  2 .text         000154c4  01800000  01800000  00001000  2**2
                  CONTENTS, ALLOC, LOAD, READONLY, CODE
  3 .rodata       00000970  018154c4  018154c4  000164c4  2**2
                  CONTENTS, ALLOC, LOAD, READONLY, DATA
  4 .rwdata       00001d2c  01815e34  01815e34  00016e34  2**2
                  CONTENTS, ALLOC, LOAD, DATA, SMALL_DATA
  5 .bss          000002f8  01817b60  01817b60  00018b60  2**2
                  ALLOC, SMALL_DATA
  6 .comment      00000026  00000000  00000000  0001922c  2**0
                  CONTENTS, READONLY
  7 .debug_aranges 00001178  00000000  00000000  00019258  2**3
                  CONTENTS, READONLY, DEBUGGING
  8 .debug_pubnames 00001da7  00000000  00000000  0001a3d0  2**0
                  CONTENTS, READONLY, DEBUGGING
  9 .debug_info   0002d773  00000000  00000000  0001c177  2**0
                  CONTENTS, READONLY, DEBUGGING
 10 .debug_abbrev 0000a5c7  00000000  00000000  000498ea  2**0
                  CONTENTS, READONLY, DEBUGGING
 11 .debug_line   0001bb81  00000000  00000000  00053eb1  2**0
                  CONTENTS, READONLY, DEBUGGING
 12 .debug_frame  00002438  00000000  00000000  0006fa34  2**2
                  CONTENTS, READONLY, DEBUGGING
 13 .debug_str    00002cfd  00000000  00000000  00071e6c  2**0
                  CONTENTS, READONLY, DEBUGGING
 14 .debug_loc    0000f034  00000000  00000000  00074b69  2**0
                  CONTENTS, READONLY, DEBUGGING
 15 .debug_alt_sim_info 00000050  00000000  00000000  00083ba0  2**2
                  CONTENTS, READONLY, DEBUGGING
 16 .debug_ranges 00000b10  00000000  00000000  00083bf0  2**3
                  CONTENTS, READONLY, DEBUGGING
 17 .thread_model 00000003  00000000  00000000  000887e1  2**0
                  CONTENTS, READONLY
 18 .cpu          00000003  00000000  00000000  000887e4  2**0
                  CONTENTS, READONLY
 19 .simulation_enabled 00000001  00000000  00000000  000887e7  2**0
                  CONTENTS, READONLY
 20 .sysid_hash   00000004  00000000  00000000  000887e8  2**0
                  CONTENTS, READONLY
 21 .sysid_base   00000004  00000000  00000000  000887ec  2**0
                  CONTENTS, READONLY
 22 .sysid_time   00000004  00000000  00000000  000887f0  2**0
                  CONTENTS, READONLY
 23 .stderr_dev   00000009  00000000  00000000  000887f4  2**0
                  CONTENTS, READONLY
 24 .stdin_dev    00000009  00000000  00000000  000887fd  2**0
                  CONTENTS, READONLY
 25 .stdout_dev   00000009  00000000  00000000  00088806  2**0
                  CONTENTS, READONLY
 26 .sopc_system_name 00000008  00000000  00000000  0008880f  2**0
                  CONTENTS, READONLY
 27 .quartus_project_dir 00000052  00000000  00000000  00088817  2**0
                  CONTENTS, READONLY
 28 .jdi          0000418b  00000000  00000000  00088869  2**0
                  CONTENTS, READONLY
 29 .sopcinfo     000c4d50  00000000  00000000  0008c9f4  2**0
                  CONTENTS, READONLY
SYMBOL TABLE:
02400000 l    d  .entry	00000000 .entry
02808020 l    d  .exceptions	00000000 .exceptions
01800000 l    d  .text	00000000 .text
018154c4 l    d  .rodata	00000000 .rodata
01815e34 l    d  .rwdata	00000000 .rwdata
01817b60 l    d  .bss	00000000 .bss
00000000 l    d  .comment	00000000 .comment
00000000 l    d  .debug_aranges	00000000 .debug_aranges
00000000 l    d  .debug_pubnames	00000000 .debug_pubnames
00000000 l    d  .debug_info	00000000 .debug_info
00000000 l    d  .debug_abbrev	00000000 .debug_abbrev
00000000 l    d  .debug_line	00000000 .debug_line
00000000 l    d  .debug_frame	00000000 .debug_frame
00000000 l    d  .debug_str	00000000 .debug_str
00000000 l    d  .debug_loc	00000000 .debug_loc
00000000 l    d  .debug_alt_sim_info	00000000 .debug_alt_sim_info
00000000 l    d  .debug_ranges	00000000 .debug_ranges
01800044 l       .text	00000000 alt_after_alt_main
00000000 l    df *ABS*	00000000 alt_irq_handler.c
00000000 l    df *ABS*	00000000 alt_instruction_exception_entry.c
00000000 l    df *ABS*	00000000 IK.c
00000000 l    df *ABS*	00000000 hello_world.c
018154c4 l     O .rodata	00000150 C.0.2763
00000000 l    df *ABS*	00000000 pwm.c
00000000 l    df *ABS*	00000000 utilities.c
00000000 l    df *ABS*	00000000 s_cos.c
00000000 l    df *ABS*	00000000 s_round.c
00000000 l    df *ABS*	00000000 s_sin.c
00000000 l    df *ABS*	00000000 w_atan2.c
00000000 l    df *ABS*	00000000 w_sqrt.c
00000000 l    df *ABS*	00000000 e_atan2.c
00000000 l    df *ABS*	00000000 e_rem_pio2.c
018156a8 l     O .rodata	00000108 two_over_pi
01815628 l     O .rodata	00000080 npio2_hw
00000000 l    df *ABS*	00000000 e_sqrt.c
00000000 l    df *ABS*	00000000 k_cos.c
00000000 l    df *ABS*	00000000 k_rem_pio2.c
018157b0 l     O .rodata	00000010 init_jk
018157c0 l     O .rodata	00000040 PIo2
00000000 l    df *ABS*	00000000 k_sin.c
00000000 l    df *ABS*	00000000 s_atan.c
01815800 l     O .rodata	00000020 atanhi
01815820 l     O .rodata	00000020 atanlo
00000000 l    df *ABS*	00000000 s_fabs.c
00000000 l    df *ABS*	00000000 s_floor.c
00000000 l    df *ABS*	00000000 s_isnand.c
00000000 l    df *ABS*	00000000 s_lib_ver.c
00000000 l    df *ABS*	00000000 s_matherr.c
00000000 l    df *ABS*	00000000 s_scalbn.c
00000000 l    df *ABS*	00000000 s_copysign.c
00000000 l    df *ABS*	00000000 fp-bit.c
00000000 l    df *ABS*	00000000 fp-bit.c
00000000 l    df *ABS*	00000000 fp-bit.c
00000000 l    df *ABS*	00000000 fp-bit.c
00000000 l    df *ABS*	00000000 fp-bit.c
00000000 l    df *ABS*	00000000 dp-bit.c
01804fa0 l     F .text	00000410 _fpadd_parts
00000000 l    df *ABS*	00000000 dp-bit.c
00000000 l    df *ABS*	00000000 dp-bit.c
00000000 l    df *ABS*	00000000 dp-bit.c
00000000 l    df *ABS*	00000000 dp-bit.c
00000000 l    df *ABS*	00000000 dp-bit.c
00000000 l    df *ABS*	00000000 dp-bit.c
00000000 l    df *ABS*	00000000 dp-bit.c
00000000 l    df *ABS*	00000000 dp-bit.c
00000000 l    df *ABS*	00000000 dp-bit.c
00000000 l    df *ABS*	00000000 dp-bit.c
00000000 l    df *ABS*	00000000 dp-bit.c
00000000 l    df *ABS*	00000000 lib2-divmod.c
01805f5c l     F .text	0000007c udivmodsi4
00000000 l    df *ABS*	00000000 libgcc2.c
00000000 l    df *ABS*	00000000 libgcc2.c
00000000 l    df *ABS*	00000000 fp-bit.c
00000000 l    df *ABS*	00000000 fp-bit.c
00000000 l    df *ABS*	00000000 fp-bit.c
00000000 l    df *ABS*	00000000 dp-bit.c
00000000 l    df *ABS*	00000000 dp-bit.c
00000000 l    df *ABS*	00000000 dp-bit.c
00000000 l    df *ABS*	00000000 libgcc2.c
00000000 l    df *ABS*	00000000 errno.c
00000000 l    df *ABS*	00000000 impure.c
01815e34 l     O .rwdata	00000400 impure_data
00000000 l    df *ABS*	00000000 memcpy.c
00000000 l    df *ABS*	00000000 printf.c
00000000 l    df *ABS*	00000000 vfprintf.c
01806a50 l     F .text	00000058 __sprint_r
018159d6 l     O .rodata	00000010 blanks.3452
018159c6 l     O .rodata	00000010 zeroes.3453
00000000 l    df *ABS*	00000000 wsetup.c
00000000 l    df *ABS*	00000000 dtoa.c
01808ab4 l     F .text	00000218 quorem
00000000 l    df *ABS*	00000000 fflush.c
00000000 l    df *ABS*	00000000 findfp.c
0180a4b0 l     F .text	00000058 std
0180a5bc l     F .text	00000008 __fp_lock
0180a5c4 l     F .text	00000008 __fp_unlock
00000000 l    df *ABS*	00000000 mallocr.c
00000000 l    df *ABS*	00000000 fvwrite.c
00000000 l    df *ABS*	00000000 fwalk.c
00000000 l    df *ABS*	00000000 locale.c
01817b1c l     O .rwdata	00000004 charset
01815a08 l     O .rodata	00000030 lconv
00000000 l    df *ABS*	00000000 makebuf.c
00000000 l    df *ABS*	00000000 mallocr.c
00000000 l    df *ABS*	00000000 memchr.c
00000000 l    df *ABS*	00000000 memmove.c
00000000 l    df *ABS*	00000000 memset.c
00000000 l    df *ABS*	00000000 mprec.c
01815b50 l     O .rodata	0000000c p05.2458
00000000 l    df *ABS*	00000000 mallocr.c
00000000 l    df *ABS*	00000000 s_isinfd.c
00000000 l    df *ABS*	00000000 sbrkr.c
00000000 l    df *ABS*	00000000 stdio.c
00000000 l    df *ABS*	00000000 strcmp.c
00000000 l    df *ABS*	00000000 strlen.c
00000000 l    df *ABS*	00000000 writer.c
00000000 l    df *ABS*	00000000 mallocr.c
00000000 l    df *ABS*	00000000 closer.c
00000000 l    df *ABS*	00000000 fclose.c
00000000 l    df *ABS*	00000000 fstatr.c
00000000 l    df *ABS*	00000000 int_errno.c
00000000 l    df *ABS*	00000000 isattyr.c
00000000 l    df *ABS*	00000000 lseekr.c
00000000 l    df *ABS*	00000000 readr.c
00000000 l    df *ABS*	00000000 libgcc2.c
00000000 l    df *ABS*	00000000 libgcc2.c
00000000 l    df *ABS*	00000000 dp-bit.c
00000000 l    df *ABS*	00000000 dp-bit.c
00000000 l    df *ABS*	00000000 alt_close.c
0180ea0c l     F .text	00000060 alt_get_errno
00000000 l    df *ABS*	00000000 alt_dev.c
0180ea6c l     F .text	0000002c alt_dev_null_write
00000000 l    df *ABS*	00000000 alt_errno.c
00000000 l    df *ABS*	00000000 alt_fstat.c
0180eb6c l     F .text	00000060 alt_get_errno
00000000 l    df *ABS*	00000000 alt_isatty.c
0180ec8c l     F .text	00000060 alt_get_errno
00000000 l    df *ABS*	00000000 alt_lseek.c
0180eddc l     F .text	00000060 alt_get_errno
00000000 l    df *ABS*	00000000 alt_main.c
00000000 l    df *ABS*	00000000 alt_malloc_lock.c
00000000 l    df *ABS*	00000000 alt_read.c
0180f008 l     F .text	00000060 alt_get_errno
00000000 l    df *ABS*	00000000 alt_release_fd.c
00000000 l    df *ABS*	00000000 alt_sbrk.c
01817b40 l     O .rwdata	00000004 heap_end
00000000 l    df *ABS*	00000000 alt_usleep.c
00000000 l    df *ABS*	00000000 alt_write.c
0180f2d4 l     F .text	00000060 alt_get_errno
00000000 l    df *ABS*	00000000 alt_sys_init.c
018167f0 l     O .rwdata	000000d8 cfi_flash
018168c8 l     O .rwdata	00001060 jtag_uart
01817928 l     O .rwdata	00000120 lcd
01817a48 l     O .rwdata	000000c4 uart
0180f424 l     F .text	00000038 alt_dev_reg
00000000 l    df *ABS*	00000000 altera_avalon_cfi_flash.c
0180f4f8 l     F .text	00000038 alt_flash_device_register
00000000 l    df *ABS*	00000000 altera_avalon_cfi_flash_table.c
018102f8 l     F .text	0000007c alt_read_16bit_query_entry
00000000 l    df *ABS*	00000000 altera_avalon_jtag_uart_fd.c
00000000 l    df *ABS*	00000000 altera_avalon_jtag_uart_init.c
01811384 l     F .text	00000228 altera_avalon_jtag_uart_irq
018115ac l     F .text	000000b0 altera_avalon_jtag_uart_timeout
00000000 l    df *ABS*	00000000 altera_avalon_jtag_uart_ioctl.c
00000000 l    df *ABS*	00000000 altera_avalon_jtag_uart_read.c
00000000 l    df *ABS*	00000000 altera_avalon_jtag_uart_write.c
00000000 l    df *ABS*	00000000 altera_avalon_lcd_16207.c
01817b44 l     O .rwdata	00000004 colstart
01811c28 l     F .text	000000b8 lcd_write_command
01811ce0 l     F .text	000000d4 lcd_write_data
01811db4 l     F .text	000000c4 lcd_clear_screen
01811e78 l     F .text	000001ec lcd_repaint_screen
01812064 l     F .text	000000c8 lcd_scroll_up
0181212c l     F .text	000002d0 lcd_handle_escape
01812900 l     F .text	000000cc alt_lcd_16207_timeout
00000000 l    df *ABS*	00000000 altera_avalon_lcd_16207_fd.c
00000000 l    df *ABS*	00000000 altera_avalon_timer_sc.c
01812b60 l     F .text	00000070 alt_avalon_timer_sc_irq
00000000 l    df *ABS*	00000000 altera_avalon_timer_vars.c
00000000 l    df *ABS*	00000000 altera_avalon_uart_fd.c
00000000 l    df *ABS*	00000000 altera_avalon_uart_init.c
01812e20 l     F .text	0000009c altera_avalon_uart_irq
01812ebc l     F .text	000000e0 altera_avalon_uart_rxirq
01812f9c l     F .text	0000015c altera_avalon_uart_txirq
00000000 l    df *ABS*	00000000 altera_avalon_uart_read.c
01813388 l     F .text	00000060 alt_get_errno
00000000 l    df *ABS*	00000000 altera_avalon_uart_write.c
018135b0 l     F .text	00000060 alt_get_errno
00000000 l    df *ABS*	00000000 alt_alarm_start.c
00000000 l    df *ABS*	00000000 alt_busy_sleep.c
00000000 l    df *ABS*	00000000 alt_dcache_flush.c
00000000 l    df *ABS*	00000000 alt_dev_llist_insert.c
018139bc l     F .text	00000060 alt_get_errno
00000000 l    df *ABS*	00000000 alt_do_ctors.c
00000000 l    df *ABS*	00000000 alt_do_dtors.c
00000000 l    df *ABS*	00000000 alt_flash_dev.c
00000000 l    df *ABS*	00000000 alt_iic.c
00000000 l    df *ABS*	00000000 alt_iic_isr_register.c
00000000 l    df *ABS*	00000000 alt_io_redirect.c
01813e80 l     F .text	000000c4 alt_open_fd
00000000 l    df *ABS*	00000000 alt_irq_vars.c
00000000 l    df *ABS*	00000000 alt_open.c
01813fbc l     F .text	000000dc alt_file_locked
01814220 l     F .text	00000060 alt_get_errno
00000000 l    df *ABS*	00000000 alt_tick.c
00000000 l    df *ABS*	00000000 altera_nios2_irq.c
00000000 l    df *ABS*	00000000 altera_avalon_cfi_flash_amd.c
018147e8 l     F .text	000000bc alt_write_word_amd
018146c4 l     F .text	00000124 alt_wait_for_command_to_complete_amd
00000000 l    df *ABS*	00000000 altera_avalon_cfi_flash_intel.c
01814a9c l     F .text	0000018c alt_unlock_block_intel
01814c28 l     F .text	000000dc alt_write_word_intel
00000000 l    df *ABS*	00000000 alt_find_dev.c
00000000 l    df *ABS*	00000000 alt_find_file.c
00000000 l    df *ABS*	00000000 alt_get_fd.c
00000000 l    df *ABS*	00000000 atexit.c
00000000 l    df *ABS*	00000000 ctype_.c
01815cb1 l     O .rodata	00000180 _ctype_b
00000000 l    df *ABS*	00000000 exit.c
00000000 l    df *ABS*	00000000 memcmp.c
00000000 l    df *ABS*	00000000 __atexit.c
00000000 l    df *ABS*	00000000 __call_atexit.c
01815240 l     F .text	00000004 register_fini
00000000 l    df *ABS*	00000000 alt_exit.c
018153f4 l     F .text	00000040 alt_sim_halt
01817b9c g     O .bss	00000004 alt_instruction_exception_handler
0180c1cc g     F .text	00000094 _mprec_log10
0180c2b8 g     F .text	00000088 __any_on
0180da08 g     F .text	00000070 _isatty_r
01815b28 g     O .rodata	00000028 __mprec_tinytens
0180ee3c g     F .text	0000006c alt_main
0180fdb8 g     F .text	00000048 alt_read_query_entry_32bit
01817bc8 g     O .bss	00000100 alt_irq
01804834 g     F .text	00000018 fabs
0180da78 g     F .text	00000078 _lseek_r
0180f530 g     F .text	000002c0 alt_flash_cfi_write
01801b6c g     F .text	00000130 sqrt
01805ac0 g     F .text	00000088 __eqdf2
01801654 g     F .text	00000070 map
01817e58 g       *ABS*	00000000 __alt_heap_start
018069d8 g     F .text	00000044 printf
0180d460 g     F .text	00000068 __sseek
0180a518 g     F .text	000000a4 __sinit
0180b1f0 g     F .text	00000084 _setlocale_r
0180a618 g     F .text	00000068 __sfmoreglue
0180eec8 g     F .text	00000020 __malloc_unlock
018018f0 g     F .text	0000010c round
01804cac g     F .text	00000174 __divsf3
01817b8c g     O .bss	00000004 altera_avalon_timer_ts_freq
0180bc48 g     F .text	000000e0 memmove
0180a608 g     F .text	00000010 _cleanup
0180c340 g     F .text	000000bc _Balloc
01804eb8 g     F .text	00000094 __fixsfsi
01800048 g     F .text	00000d8c IK
01805b48 g     F .text	00000088 __gtdf2
01806928 g     F .text	00000010 __errno
0180ff44 g     F .text	00000048 alt_write_flash_command_32bit_device_16bit_mode
02400000 g     F .entry	00000000 __reset
0180d994 g     F .text	00000074 _fstat_r
0180fa4c g     F .text	000002e8 alt_flash_program_block
01817b78 g     O .bss	00000004 errno
01805eb0 g     F .text	00000038 __make_dp
0180484c g     F .text	00000224 floor
018063e8 g     F .text	0000002c __make_fp
01817b80 g     O .bss	00000004 alt_argv
0181fb0c g       *ABS*	00000000 _gp
0180f184 g     F .text	00000030 usleep
01816670 g     O .rwdata	00000180 alt_fd_list
01801fec g     F .text	00000828 __ieee754_rem_pio2
01814d04 g     F .text	00000094 alt_find_dev
01806938 g     F .text	000000a0 memcpy
0180a5fc g     F .text	0000000c _cleanup_r
01805ce0 g     F .text	000000f8 __floatsidf
01813f44 g     F .text	00000078 alt_io_redirect
01805c58 g     F .text	00000088 __ltdf2
018154c4 g       *ABS*	00000000 __DTOR_END__
01814f70 g     F .text	000000dc alt_exception_cause_generated_bad_addr
01814424 g     F .text	00000020 altera_nios2_irq_init
0180c11c g     F .text	000000b0 __ratio
018117c4 g     F .text	00000224 altera_avalon_jtag_uart_read
00000000  w      *UND*	00000000 malloc
01806a1c g     F .text	00000034 _printf_r
01806098 g     F .text	00000008 __udivsi3
0180ebcc g     F .text	000000c0 isatty
01815a38 g     O .rodata	000000c8 __mprec_tens
0180b1cc g     F .text	00000008 __locale_charset
01802adc g     F .text	0000052c __kernel_cos
01817b6c g     O .bss	00000004 __malloc_top_pad
01817b18 g     O .rwdata	00000004 __mb_cur_max
0180b1d4 g     F .text	0000000c _localeconv_r
0180ca38 g     F .text	0000003c __i2b
0180abb0 g     F .text	0000049c __sfvwrite_r
0180d3e8 g     F .text	00000070 _sbrk_r
018148a4 g     F .text	00000084 alt_program_intel
0180daf0 g     F .text	00000078 _read_r
01813890 g     F .text	00000078 alt_dcache_flush
01816234 g     O .rwdata	0000000c __lc_ctype
01817b38 g     O .rwdata	00000004 alt_max_fd
0180fd34 g     F .text	00000040 alt_read_query_entry_8bit
01806728 g     F .text	00000138 __unpack_d
0180d870 g     F .text	00000110 _fclose_r
01814928 g     F .text	00000174 alt_erase_block_intel
0180a47c g     F .text	00000034 fflush
01817b70 g     O .bss	00000004 __malloc_max_sbrked_mem
01803e84 g     F .text	00000318 __kernel_sin
01804f4c g     F .text	00000054 __extendsfdf2
01805430 g     F .text	00000074 __adddf3
0180bffc g     F .text	00000120 __b2d
0180e144 g     F .text	000005b0 __umoddi3
0180ecec g     F .text	000000f0 lseek
01817b0c g     O .rwdata	00000004 __fdlib_version
01817b14 g     O .rwdata	00000004 _global_impure_ptr
0180cdb4 g     F .text	000005f4 _realloc_r
01817e58 g       *ABS*	00000000 __bss_end
01813d88 g     F .text	000000f8 alt_iic_isr_register
01814318 g     F .text	0000010c alt_tick
0180db68 g     F .text	000005dc __udivdi3
01815b00 g     O .rodata	00000028 __mprec_bigtens
0180cc94 g     F .text	00000120 __s2b
0180e77c g     F .text	00000194 __floatunsidf
0180bf1c g     F .text	00000060 __mcmp
01812d58 g     F .text	000000c8 altera_avalon_uart_init
01817b5c g     O .rwdata	00000004 __ctype_ptr
0180a5e4 g     F .text	00000018 __fp_lock_all
01813d40 g     F .text	00000048 alt_ic_irq_enabled
01814280 g     F .text	00000098 alt_alarm_stop
01817b90 g     O .bss	00000004 alt_irq_active
02808000 g       *ABS*	00000000 __alt_mem_onchip_mem
028080fc g     F .exceptions	000000c8 alt_irq_handler
01816648 g     O .rwdata	00000028 alt_dev_null
018013d8 g     F .text	000000f8 setPwmDutyCycle
01803008 g     F .text	00000e7c __kernel_rem_pio2
01806320 g     F .text	000000c8 __unpack_f
0181024c g     F .text	000000ac alt_set_flash_algorithm_func
0180bde8 g     F .text	00000070 __hi0bits
01805dd8 g     F .text	000000d8 __fixdfsi
0180fe00 g     F .text	0000003c alt_write_flash_command_8bit_device_8bit_mode
01817b30 g     O .rwdata	00000008 alt_dev_list
0180f1b4 g     F .text	00000120 write
01801c9c g     F .text	00000350 __ieee754_atan2
0180ea98 g     F .text	000000d4 fstat
018110a0 g     F .text	000000dc alt_check_primary_table
0180cb74 g     F .text	00000120 __pow5mult
01817b60 g     O .bss	00000004 __nlocale_changed
018060a0 g     F .text	00000008 __umodsi3
0180f880 g     F .text	00000068 alt_flash_cfi_read
0180ffd4 g     F .text	00000034 alt_write_native_8bit
01817e58 g       *ABS*	00000000 end
018061c0 g     F .text	00000160 __pack_f
0180fe3c g     F .text	0000007c alt_write_flash_command_16bit_device_8bit_mode
018123fc g     F .text	00000504 altera_avalon_lcd_16207_write
018133e8 g     F .text	000001c8 altera_avalon_uart_write
01810374 g     F .text	00000580 alt_read_cfi_table
018112c4 g     F .text	000000c0 altera_avalon_jtag_uart_init
028081c4 g     F .exceptions	00000068 alt_instruction_exception_entry
018154c0 g       *ABS*	00000000 __CTOR_LIST__
02000000 g       *ABS*	00000000 __alt_stack_pointer
01812bd0 g     F .text	00000090 alt_avalon_timer_sc_init
01812cb8 g     F .text	00000058 altera_avalon_uart_write_fd
01806140 g     F .text	00000080 __clzsi2
01812d10 g     F .text	00000048 altera_avalon_uart_close_fd
018119e8 g     F .text	00000240 altera_avalon_jtag_uart_write
01801788 g     F .text	00000168 cos
0180f45c g     F .text	0000009c alt_flash_cfi_init
0180a508 g     F .text	00000004 __sfp_lock_acquire
0180bb64 g     F .text	000000e4 memchr
01806aa8 g     F .text	00001eac ___vfprintf_internal_r
0180a89c g     F .text	00000314 _free_r
01815244 g     F .text	000001b0 __call_exitprocs
01817b64 g     O .bss	00000004 __mlocale_changed
01817b24 g     O .rwdata	00000004 __malloc_sbrk_base
01800000 g     F .text	00000048 _start
01817b94 g     O .bss	00000004 _alt_tick_rate
018019fc g     F .text	0000016c sin
0180c704 g     F .text	0000014c __lshift
01801b68 g     F .text	00000004 atan2
01817b98 g     O .bss	00000004 _alt_nticks
0180eee8 g     F .text	00000120 read
0180f368 g     F .text	000000bc alt_sys_init
01804e20 g     F .text	00000098 __floatsisf
0181510c g     F .text	00000134 __register_exitproc
0180fd74 g     F .text	00000044 alt_read_query_entry_16bit
0180c850 g     F .text	000001e8 __multiply
0181165c g     F .text	00000074 altera_avalon_jtag_uart_close
01817ba0 g     O .bss	00000028 __malloc_current_mallinfo
0181006c g     F .text	000001e0 alt_set_flash_width_func
0180c3fc g     F .text	0000017c __d2b
0181117c g     F .text	00000058 altera_avalon_jtag_uart_read_fd
01814eb8 g     F .text	000000b8 alt_get_fd
01813764 g     F .text	0000012c alt_busy_sleep
01806860 g     F .text	000000c8 __fpcmp_parts_d
0180d800 g     F .text	00000070 _close_r
018144ac g     F .text	00000218 alt_erase_block_amd
01815098 g     F .text	00000074 memcmp
0181122c g     F .text	00000048 altera_avalon_jtag_uart_close_fd
01817e58 g       *ABS*	00000000 __alt_stack_base
01811274 g     F .text	00000050 altera_avalon_jtag_uart_ioctl_fd
018016c4 g     F .text	000000c4 smoothstep
01808978 g     F .text	0000013c __swsetup_r
018108f4 g     F .text	000007ac alt_read_cfi_width
01805868 g     F .text	00000258 __divdf3
0180a680 g     F .text	000000f0 __sfp
0180c260 g     F .text	00000058 __copybits
01816240 g     O .rwdata	00000408 __malloc_av_
0180a514 g     F .text	00000004 __sinit_lock_release
018054a4 g     F .text	000003c4 __muldf3
0180d544 g     F .text	00000060 __sread
01815840 g     O .rodata	00000010 __thenan_sf
01814d98 g     F .text	00000120 alt_find_file
01813908 g     F .text	000000b4 alt_dev_llist_insert
0180eea8 g     F .text	00000020 __malloc_lock
0180f0c8 g     F .text	000000bc sbrk
0180a280 g     F .text	000001fc _fflush_r
0180d74c g     F .text	000000b4 _calloc_r
01817b48 g     O .rwdata	00000008 alt_flash_dev_list
0180ff00 g     F .text	00000044 alt_write_flash_command_16bit_device_16bit_mode
01817b60 g       *ABS*	00000000 __bss_start
0180bd28 g     F .text	00000098 memset
01800dd4 g     F .text	00000434 main
01817b84 g     O .bss	00000004 alt_envp
01817b74 g     O .bss	00000004 __malloc_max_total_mem
018111d4 g     F .text	00000058 altera_avalon_jtag_uart_write_fd
018129cc g     F .text	0000013c altera_avalon_lcd_16207_init
0180d458 g     F .text	00000008 __sclose
01804aa0 g     F .text	00000008 matherr
02000000 g       *ABS*	00000000 __alt_heap_limit
0180d980 g     F .text	00000014 fclose
01805ee8 g     F .text	00000074 __truncdfsf2
01817cc8 g     O .bss	00000190 _atexit0
01808ccc g     F .text	000015b4 _dtoa_r
0180b424 g     F .text	00000740 _malloc_r
01817b3c g     O .rwdata	00000004 alt_errno
0180ff8c g     F .text	00000048 alt_write_flash_command_32bit_device_32bit_mode
0180b114 g     F .text	000000b8 _fwalk
0180f8e8 g     F .text	00000164 alt_write_value_to_flash
01810008 g     F .text	00000034 alt_write_native_16bit
01805fd8 g     F .text	00000060 __divsi3
02400000 g       *ABS*	00000000 __alt_mem_cfi_flash
01815850 g     O .rodata	00000014 __thenan_df
0180a770 g     F .text	0000012c _malloc_trim_r
018154c4 g       *ABS*	00000000 __CTOR_END__
018014d0 g     F .text	00000184 setServoPosition
0180d5a4 g     F .text	000000bc strcmp
018154c4 g       *ABS*	00000000 __DTOR_LIST__
01804c88 g     F .text	00000024 copysign
0180e6f4 g     F .text	00000088 __nedf2
0180f334 g     F .text	00000034 alt_irq_init
0180f068 g     F .text	00000060 alt_release_fd
0180419c g     F .text	00000698 atan
01815864 g     O .rodata	00000100 __clz_tab
01817b68 g     O .bss	00000004 _PathLocale
0181504c g     F .text	00000014 atexit
0180d6d4 g     F .text	00000078 _write_r
01801208 g     F .text	000001d0 initilisePwm
0180b274 g     F .text	0000001c setlocale
01817b10 g     O .rwdata	00000004 _impure_ptr
01817b7c g     O .bss	00000004 alt_argc
01804aa8 g     F .text	000001e0 scalbn
01817b88 g     O .bss	00000004 altera_avalon_timer_ts_base
01813a80 g     F .text	00000064 _do_dtors
02808020 g       .exceptions	00000000 alt_irq_entry
0180bf7c g     F .text	00000080 __ulp
0180d3a8 g     F .text	00000040 __isinfd
0180a5cc g     F .text	00000018 __fp_unlock_all
01812b08 g     F .text	00000058 altera_avalon_lcd_16207_write_fd
01817b28 g     O .rwdata	00000008 alt_fs_list
0180feb8 g     F .text	00000048 alt_write_flash_command_32bit_device_8bit_mode
0180b1e0 g     F .text	00000010 localeconv
01802814 g     F .text	000002c8 __ieee754_sqrt
01813bb4 g     F .text	00000050 alt_ic_isr_register
01817b60 g       *ABS*	00000000 _edata
01812c60 g     F .text	00000058 altera_avalon_uart_read_fd
01817e58 g       *ABS*	00000000 _end
01813ae4 g     F .text	0000007c alt_flash_open_dev
018116d0 g     F .text	000000f4 altera_avalon_jtag_uart_ioctl
01813ca0 g     F .text	000000a0 alt_ic_irq_disable
0180d4c8 g     F .text	0000007c __swrite
01817b20 g     O .rwdata	00000004 __malloc_trim_threshold
01815060 g     F .text	00000038 exit
0180b04c g     F .text	000000c8 _fwalk_reent
0180c578 g     F .text	0000018c __mdiff
01813b60 g     F .text	00000054 alt_flash_close_dev
01806038 g     F .text	00000060 __modsi3
02000000 g       *ABS*	00000000 __alt_data_end
02808020 g     F .exceptions	00000000 alt_exception
0180a50c g     F .text	00000004 __sfp_lock_release
01800000 g       *ABS*	00000000 __alt_mem_sdram
01815bb0 g     O .rodata	00000101 _ctype_
018130f8 g     F .text	00000060 altera_avalon_uart_close
01815434 g     F .text	00000020 _exit
01804a70 g     F .text	00000030 __isnand
01813610 g     F .text	00000154 alt_alarm_start
018060a8 g     F .text	00000098 __muldi3
0180b290 g     F .text	00000194 __smakebuf_r
0181003c g     F .text	00000030 alt_write_native_32bit
0180d660 g     F .text	00000074 strlen
01814098 g     F .text	00000188 open
01805bd0 g     F .text	00000088 __gedf2
0180f7f0 g     F .text	00000090 alt_flash_cfi_get_info
01817b50 g     O .rwdata	00000004 alt_priority_mask
01813c04 g     F .text	0000009c alt_ic_irq_enable
01808954 g     F .text	00000024 __vfprintf_internal
01813158 g     F .text	00000230 altera_avalon_uart_read
018053b0 g     F .text	00000080 __subdf3
0180be58 g     F .text	000000c4 __lo0bits
01817b54 g     O .rwdata	00000008 alt_alarm_list
01813a1c g     F .text	00000064 _do_ctors
0180e910 g     F .text	000000fc close
01814444 g     F .text	00000068 alt_program_amd
01806414 g     F .text	00000314 __pack_d
00000000  w      *UND*	00000000 free
0180a510 g     F .text	00000004 __sinit_lock_acquire
0180ca74 g     F .text	00000100 __multadd
0180bdc0 g     F .text	00000028 _Bfree



Disassembly of section .exceptions:

02808020 <alt_exception>:
         * Process an exception.  For all exceptions we must preserve all
         * caller saved registers on the stack (See the Nios2 ABI
         * documentation for details).
         */

        addi  sp, sp, -76
 2808020:	deffed04 	addi	sp,sp,-76

#endif

#endif

        stw   ra,  0(sp)
 2808024:	dfc00015 	stw	ra,0(sp)
        /*
         * Leave a gap in the stack frame at 4(sp) for the muldiv handler to
         * store zero into.
         */

        stw   r1,   8(sp)
 2808028:	d8400215 	stw	at,8(sp)
        stw   r2,  12(sp)
 280802c:	d8800315 	stw	r2,12(sp)
        stw   r3,  16(sp)
 2808030:	d8c00415 	stw	r3,16(sp)
        stw   r4,  20(sp)
 2808034:	d9000515 	stw	r4,20(sp)
        stw   r5,  24(sp)
 2808038:	d9400615 	stw	r5,24(sp)
        stw   r6,  28(sp)
 280803c:	d9800715 	stw	r6,28(sp)
        stw   r7,  32(sp)
 2808040:	d9c00815 	stw	r7,32(sp)

        rdctl r5, estatus
 2808044:	000b307a 	rdctl	r5,estatus

        stw   r8,  36(sp)
 2808048:	da000915 	stw	r8,36(sp)
        stw   r9,  40(sp)
 280804c:	da400a15 	stw	r9,40(sp)
        stw   r10, 44(sp)
 2808050:	da800b15 	stw	r10,44(sp)
        stw   r11, 48(sp)
 2808054:	dac00c15 	stw	r11,48(sp)
        stw   r12, 52(sp)
 2808058:	db000d15 	stw	r12,52(sp)
        stw   r13, 56(sp)
 280805c:	db400e15 	stw	r13,56(sp)
        stw   r14, 60(sp)
 2808060:	db800f15 	stw	r14,60(sp)
        stw   r15, 64(sp)
 2808064:	dbc01015 	stw	r15,64(sp)
        /*
         * ea-4 contains the address of the instruction being executed
         * when the exception occured. For interrupt exceptions, we will
         * will be re-issue the isntruction. Store it in 72(sp)
         */
        stw   r5,  68(sp)  /* estatus */
 2808068:	d9401115 	stw	r5,68(sp)
        addi  r15, ea, -4  /* instruction that caused exception */
 280806c:	ebffff04 	addi	r15,ea,-4
        stw   r15,  72(sp)
 2808070:	dbc01215 	stw	r15,72(sp)
#else
        /*
         * Test to see if the exception was a software exception or caused 
         * by an external interrupt, and vector accordingly.
         */
        rdctl r4, ipending
 2808074:	0009313a 	rdctl	r4,ipending
        andi  r2, r5, 1
 2808078:	2880004c 	andi	r2,r5,1
        beq   r2, zero, .Lnot_irq
 280807c:	10000326 	beq	r2,zero,280808c <alt_exception+0x6c>
        beq   r4, zero, .Lnot_irq
 2808080:	20000226 	beq	r4,zero,280808c <alt_exception+0x6c>
        /*
         * Now that all necessary registers have been preserved, call 
         * alt_irq_handler() to process the interrupts.
         */

        call alt_irq_handler
 2808084:	28080fc0 	call	28080fc <alt_irq_handler>

        .section .exceptions.irqreturn, "xa"

        br    .Lexception_exit
 2808088:	00000706 	br	28080a8 <alt_exception+0x88>
         * upon completion, so we write ea (address of instruction *after*
         * the one where the exception occured) into 72(sp). The actual
         * instruction that caused the exception is written in r2, which these
         * handlers will utilize.
         */
        stw   ea,  72(sp)  /* Don't re-issue */
 280808c:	df401215 	stw	ea,72(sp)
        ldw   r2, -4(ea)   /* Instruction that caused exception */
 2808090:	e8bfff17 	ldw	r2,-4(ea)
         * debugger is present) or go into an infinite loop since the
         * handling behavior is undefined; in that case we will not return here.
         */

        /* Load exception-causing address as first argument (r4) */
        addi   r4, ea, -4
 2808094:	e93fff04 	addi	r4,ea,-4

        /* Call the instruction-exception entry */
        call   alt_instruction_exception_entry
 2808098:	28081c40 	call	28081c4 <alt_instruction_exception_entry>
         * instruction
         *
         * Return code was 0: Skip. The instruction after the exception is
         * already stored in 72(sp).
         */
        bne   r2, r0, .Lexception_exit
 280809c:	1000021e 	bne	r2,zero,28080a8 <alt_exception+0x88>

        /*
         * Otherwise, modify 72(sp) to re-issue the instruction that caused the
         * exception.
         */
        addi  r15, ea, -4  /* instruction that caused exception */
 28080a0:	ebffff04 	addi	r15,ea,-4
        stw   r15,  72(sp)
 28080a4:	dbc01215 	stw	r15,72(sp)
        /* 
         * Restore the saved registers, so that all general purpose registers 
         * have been restored to their state at the time the interrupt occured.
         */

        ldw   r5,  68(sp)
 28080a8:	d9401117 	ldw	r5,68(sp)
        ldw   ea,  72(sp)  /* This becomes the PC once eret is executed */
 28080ac:	df401217 	ldw	ea,72(sp)
        ldw   ra,   0(sp)
 28080b0:	dfc00017 	ldw	ra,0(sp)

        wrctl estatus, r5
 28080b4:	2801707a 	wrctl	estatus,r5

        ldw   r1,   8(sp)
 28080b8:	d8400217 	ldw	at,8(sp)
        ldw   r2,  12(sp)
 28080bc:	d8800317 	ldw	r2,12(sp)
        ldw   r3,  16(sp)
 28080c0:	d8c00417 	ldw	r3,16(sp)
        ldw   r4,  20(sp)
 28080c4:	d9000517 	ldw	r4,20(sp)
        ldw   r5,  24(sp)
 28080c8:	d9400617 	ldw	r5,24(sp)
        ldw   r6,  28(sp)
 28080cc:	d9800717 	ldw	r6,28(sp)
        ldw   r7,  32(sp)
 28080d0:	d9c00817 	ldw	r7,32(sp)
#ifdef ALT_STACK_CHECK
        ldw   et, %gprel(alt_exception_old_stack_limit)(gp)
#endif
#endif

        ldw   r8,  36(sp)
 28080d4:	da000917 	ldw	r8,36(sp)
        ldw   r9,  40(sp)
 28080d8:	da400a17 	ldw	r9,40(sp)
        ldw   r10, 44(sp)
 28080dc:	da800b17 	ldw	r10,44(sp)
        ldw   r11, 48(sp)
 28080e0:	dac00c17 	ldw	r11,48(sp)
        ldw   r12, 52(sp)
 28080e4:	db000d17 	ldw	r12,52(sp)
        ldw   r13, 56(sp)
 28080e8:	db400e17 	ldw	r13,56(sp)
        ldw   r14, 60(sp)
 28080ec:	db800f17 	ldw	r14,60(sp)
        ldw   r15, 64(sp)
 28080f0:	dbc01017 	ldw	r15,64(sp)
#endif

        ldw   sp,  76(sp)

#else
        addi  sp, sp, 76
 28080f4:	dec01304 	addi	sp,sp,76

        /*
         * Return to the interrupted instruction.
         */

        eret
 28080f8:	ef80083a 	eret

028080fc <alt_irq_handler>:
 * instruction is present if the macro ALT_CI_INTERRUPT_VECTOR defined.
 */

void alt_irq_handler (void) __attribute__ ((section (".exceptions")));
void alt_irq_handler (void)
{
 28080fc:	defff904 	addi	sp,sp,-28
 2808100:	dfc00615 	stw	ra,24(sp)
 2808104:	df000515 	stw	fp,20(sp)
 2808108:	df000504 	addi	fp,sp,20
#ifndef NIOS2_EIC_PRESENT
static ALT_INLINE alt_u32 ALT_ALWAYS_INLINE alt_irq_pending (void)
{
  alt_u32 active;

  NIOS2_READ_IPENDING (active);
 280810c:	0005313a 	rdctl	r2,ipending
 2808110:	e0bffc15 	stw	r2,-16(fp)

  return active;
 2808114:	e0bffc17 	ldw	r2,-16(fp)
   * Consider the case where the high priority interupt is asserted during
   * the interrupt entry sequence for a lower priority interrupt to see why
   * this is the case.
   */

  active = alt_irq_pending ();
 2808118:	e0bfff15 	stw	r2,-4(fp)

  do
  {
    i = 0;
 280811c:	e03ffd15 	stw	zero,-12(fp)
    mask = 1;
 2808120:	00800044 	movi	r2,1
 2808124:	e0bffe15 	stw	r2,-8(fp)
     * called to clear the interrupt condition.
     */

    do
    {
      if (active & mask)
 2808128:	e0ffff17 	ldw	r3,-4(fp)
 280812c:	e0bffe17 	ldw	r2,-8(fp)
 2808130:	1884703a 	and	r2,r3,r2
 2808134:	1005003a 	cmpeq	r2,r2,zero
 2808138:	1000161e 	bne	r2,zero,2808194 <alt_irq_handler+0x98>
      { 
#ifdef ALT_ENHANCED_INTERRUPT_API_PRESENT
        alt_irq[i].handler(alt_irq[i].context); 
 280813c:	e0bffd17 	ldw	r2,-12(fp)
 2808140:	00c06074 	movhi	r3,385
 2808144:	18def204 	addi	r3,r3,31688
 2808148:	100490fa 	slli	r2,r2,3
 280814c:	10c5883a 	add	r2,r2,r3
 2808150:	11400017 	ldw	r5,0(r2)
 2808154:	e0bffd17 	ldw	r2,-12(fp)
 2808158:	00c06074 	movhi	r3,385
 280815c:	18def204 	addi	r3,r3,31688
 2808160:	100490fa 	slli	r2,r2,3
 2808164:	10c5883a 	add	r2,r2,r3
 2808168:	10800104 	addi	r2,r2,4
 280816c:	11000017 	ldw	r4,0(r2)
 2808170:	283ee83a 	callr	r5
#ifndef NIOS2_EIC_PRESENT
static ALT_INLINE alt_u32 ALT_ALWAYS_INLINE alt_irq_pending (void)
{
  alt_u32 active;

  NIOS2_READ_IPENDING (active);
 2808174:	0005313a 	rdctl	r2,ipending
 2808178:	e0bffb15 	stw	r2,-20(fp)

  return active;
 280817c:	e0bffb17 	ldw	r2,-20(fp)
      mask <<= 1;
      i++;

    } while (1);

    active = alt_irq_pending ();
 2808180:	e0bfff15 	stw	r2,-4(fp)
    
  } while (active);
 2808184:	e0bfff17 	ldw	r2,-4(fp)
 2808188:	1004c03a 	cmpne	r2,r2,zero
 280818c:	103fe31e 	bne	r2,zero,280811c <alt_irq_handler+0x20>
 2808190:	00000706 	br	28081b0 <alt_irq_handler+0xb4>
#else
        alt_irq[i].handler(alt_irq[i].context, i); 
#endif
        break;
      }
      mask <<= 1;
 2808194:	e0bffe17 	ldw	r2,-8(fp)
 2808198:	1085883a 	add	r2,r2,r2
 280819c:	e0bffe15 	stw	r2,-8(fp)
      i++;
 28081a0:	e0bffd17 	ldw	r2,-12(fp)
 28081a4:	10800044 	addi	r2,r2,1
 28081a8:	e0bffd15 	stw	r2,-12(fp)

    } while (1);
 28081ac:	003fde06 	br	2808128 <alt_irq_handler+0x2c>
  /*
   * Notify the operating system that interrupt processing is complete.
   */ 

  ALT_OS_INT_EXIT();
}
 28081b0:	e037883a 	mov	sp,fp
 28081b4:	dfc00117 	ldw	ra,4(sp)
 28081b8:	df000017 	ldw	fp,0(sp)
 28081bc:	dec00204 	addi	sp,sp,8
 28081c0:	f800283a 	ret

028081c4 <alt_instruction_exception_entry>:
 * using alt_instruction_exception_register(). This routine will call
 * that handler if it has been registered. Absent a handler, it will
 * break break or hang as discussed below.
 */
int alt_instruction_exception_entry (alt_u32 exception_pc)
{
 28081c4:	defffa04 	addi	sp,sp,-24
 28081c8:	dfc00515 	stw	ra,20(sp)
 28081cc:	df000415 	stw	fp,16(sp)
 28081d0:	df000404 	addi	fp,sp,16
 28081d4:	e13ffe15 	stw	r4,-8(fp)
  cause = ( (cause & NIOS2_EXCEPTION_REG_CAUSE_MASK) >>
              NIOS2_EXCEPTION_REG_CAUSE_OFST );

  NIOS2_READ_BADADDR(badaddr);
#else
  cause = NIOS2_EXCEPTION_CAUSE_NOT_PRESENT;
 28081d8:	00bfffc4 	movi	r2,-1
 28081dc:	e0bffd15 	stw	r2,-12(fp)
  badaddr = 0;
 28081e0:	e03ffc15 	stw	zero,-16(fp)
#endif /* NIOS2_HAS_EXTRA_EXCEPTION_INFO */

  if(alt_instruction_exception_handler) {
 28081e4:	d0a02417 	ldw	r2,-32624(gp)
 28081e8:	1005003a 	cmpeq	r2,r2,zero
 28081ec:	1000071e 	bne	r2,zero,280820c <alt_instruction_exception_entry+0x48>
     * Call handler. Its return value indicates whether the exception-causing
     * instruction should be re-issued. The code that called us,
     * alt_eceptions_entry.S, will look at this value and adjust the ea
     * register as necessary
     */
    return alt_instruction_exception_handler(cause, exception_pc, badaddr);
 28081f0:	d0a02417 	ldw	r2,-32624(gp)
 28081f4:	e13ffd17 	ldw	r4,-12(fp)
 28081f8:	e17ffe17 	ldw	r5,-8(fp)
 28081fc:	e1bffc17 	ldw	r6,-16(fp)
 2808200:	103ee83a 	callr	r2
 2808204:	e0bfff15 	stw	r2,-4(fp)
 2808208:	00000206 	br	2808214 <alt_instruction_exception_entry+0x50>
   *    (a peripheral which negates its interrupt output before its
   *    interrupt handler has been executed will cause spurious interrupts)
   */
  else {
#ifdef NIOS2_HAS_DEBUG_STUB
    NIOS2_BREAK();
 280820c:	003da03a 	break	0
      ;
#endif /* NIOS2_HAS_DEBUG_STUB */
  }

  /* // We should not get here. Remove compiler warning. */
  return NIOS2_EXCEPTION_RETURN_REISSUE_INST;
 2808210:	e03fff15 	stw	zero,-4(fp)
 2808214:	e0bfff17 	ldw	r2,-4(fp)
}
 2808218:	e037883a 	mov	sp,fp
 280821c:	dfc00117 	ldw	ra,4(sp)
 2808220:	df000017 	ldw	fp,0(sp)
 2808224:	dec00204 	addi	sp,sp,8
 2808228:	f800283a 	ret

Disassembly of section .text:

01800000 <_start>:

    /* Assume the data cache size is always a power of two. */
#if NIOS2_DCACHE_SIZE > 0x8000
    movhi r2, %hi(NIOS2_DCACHE_SIZE)
#else
    movui r2, NIOS2_DCACHE_SIZE
 1800000:	00840014 	movui	r2,4096
#endif

0:
    initd 0(r2)
 1800004:	10000033 	initd	0(r2)
    addi r2, r2, -NIOS2_DCACHE_LINE_SIZE
 1800008:	10bff804 	addi	r2,r2,-32
    bgt r2, zero, 0b
 180000c:	00bffd16 	blt	zero,r2,1800004 <_start+0x4>
#if (NIOS2_NUM_OF_SHADOW_REG_SETS == 0)    
    /*
     * Now that the caches are initialized, set up the stack pointer.
     * The value provided by the linker is assumed to be correctly aligned.
     */
    movhi sp, %hi(__alt_stack_pointer)
 1800010:	06c08034 	movhi	sp,512
    ori sp, sp, %lo(__alt_stack_pointer)
 1800014:	dec00014 	ori	sp,sp,0

    /* Set up the global pointer. */
    movhi gp, %hi(_gp)
 1800018:	06806074 	movhi	gp,385
    ori gp, gp, %lo(_gp)
 180001c:	d6bec314 	ori	gp,gp,64268
 */
#ifndef ALT_SIM_OPTIMIZE
    /* Log that the BSS is about to be cleared. */
    ALT_LOG_PUTS(alt_log_msg_bss)

    movhi r2, %hi(__bss_start)
 1800020:	00806074 	movhi	r2,385
    ori r2, r2, %lo(__bss_start)
 1800024:	109ed814 	ori	r2,r2,31584

    movhi r3, %hi(__bss_end)
 1800028:	00c06074 	movhi	r3,385
    ori r3, r3, %lo(__bss_end)
 180002c:	18df9614 	ori	r3,r3,32344

    beq r2, r3, 1f
 1800030:	10c00326 	beq	r2,r3,1800040 <_start+0x40>

0:
    stw zero, (r2)
 1800034:	10000015 	stw	zero,0(r2)
    addi r2, r2, 4
 1800038:	10800104 	addi	r2,r2,4
    bltu r2, r3, 0b
 180003c:	10fffd36 	bltu	r2,r3,1800034 <_start+0x34>

    /* Log that alt_main is about to be called. */
    ALT_LOG_PUTS(alt_log_msg_alt_main)

    /* Call the C entry point. It should never return. */
    call alt_main
 1800040:	180ee3c0 	call	180ee3c <alt_main>

01800044 <alt_after_alt_main>:

    /* Wait in infinite loop in case alt_main does return. */
alt_after_alt_main:
    br alt_after_alt_main
 1800044:	003fff06 	br	1800044 <alt_after_alt_main>

01800048 <IK>:
#include "IK.h"
#include "math.h"

// length (l) only has 4 values but for compatibility with DH standard they start at index 1
float *IK(float l[5], float phi, float target[4], float solution[4])
{
 1800048:	deffe604 	addi	sp,sp,-104
 180004c:	dfc01915 	stw	ra,100(sp)
 1800050:	df001815 	stw	fp,96(sp)
 1800054:	dd401715 	stw	r21,92(sp)
 1800058:	dd001615 	stw	r20,88(sp)
 180005c:	dcc01515 	stw	r19,84(sp)
 1800060:	dc801415 	stw	r18,80(sp)
 1800064:	dc401315 	stw	r17,76(sp)
 1800068:	dc001215 	stw	r16,72(sp)
 180006c:	df001204 	addi	fp,sp,72
 1800070:	e13ffc15 	stw	r4,-16(fp)
 1800074:	e17ffd15 	stw	r5,-12(fp)
 1800078:	e1bffe15 	stw	r6,-8(fp)
 180007c:	e1ffff15 	stw	r7,-4(fp)

	float deg2rad = (float) M_PI/180;
 1800080:	008f23f4 	movhi	r2,15503
 1800084:	10be8d44 	addi	r2,r2,-1483
 1800088:	e0bffb15 	stw	r2,-20(fp)
	float rad2deg = (float) 180/M_PI;
 180008c:	00909974 	movhi	r2,16997
 1800090:	108bb804 	addi	r2,r2,12000
 1800094:	e0bffa15 	stw	r2,-24(fp)

//	printf("deg2rad: %f\n",deg2rad); //this print is needed to make the code work. no idea why.
//	printf("rad2deg: %f\n",rad2deg);

    float t1 = (float) atan2(target[1],target[0])*rad2deg; // theta 1
 1800098:	e0bffe17 	ldw	r2,-8(fp)
 180009c:	10800104 	addi	r2,r2,4
 18000a0:	10800017 	ldw	r2,0(r2)
 18000a4:	1009883a 	mov	r4,r2
 18000a8:	1804f4c0 	call	1804f4c <__extendsfdf2>
 18000ac:	1021883a 	mov	r16,r2
 18000b0:	1823883a 	mov	r17,r3
 18000b4:	e0bffe17 	ldw	r2,-8(fp)
 18000b8:	10800017 	ldw	r2,0(r2)
 18000bc:	1009883a 	mov	r4,r2
 18000c0:	1804f4c0 	call	1804f4c <__extendsfdf2>
 18000c4:	100f883a 	mov	r7,r2
 18000c8:	1811883a 	mov	r8,r3
 18000cc:	8009883a 	mov	r4,r16
 18000d0:	880b883a 	mov	r5,r17
 18000d4:	380d883a 	mov	r6,r7
 18000d8:	400f883a 	mov	r7,r8
 18000dc:	1801b680 	call	1801b68 <atan2>
 18000e0:	100b883a 	mov	r5,r2
 18000e4:	180d883a 	mov	r6,r3
 18000e8:	2809883a 	mov	r4,r5
 18000ec:	300b883a 	mov	r5,r6
 18000f0:	1805ee80 	call	1805ee8 <__truncdfsf2>
 18000f4:	1007883a 	mov	r3,r2
 18000f8:	e0bffa17 	ldw	r2,-24(fp)
 18000fc:	1885ff32 	custom	252,r2,r3,r2
 1800100:	e0bff915 	stw	r2,-28(fp)
    float z = (float) target[2]-(l[4]*sin(phi*deg2rad))-l[1];
 1800104:	e0bffe17 	ldw	r2,-8(fp)
 1800108:	10800204 	addi	r2,r2,8
 180010c:	10800017 	ldw	r2,0(r2)
 1800110:	1009883a 	mov	r4,r2
 1800114:	1804f4c0 	call	1804f4c <__extendsfdf2>
 1800118:	1025883a 	mov	r18,r2
 180011c:	1827883a 	mov	r19,r3
 1800120:	e0bffc17 	ldw	r2,-16(fp)
 1800124:	10800404 	addi	r2,r2,16
 1800128:	10800017 	ldw	r2,0(r2)
 180012c:	1009883a 	mov	r4,r2
 1800130:	1804f4c0 	call	1804f4c <__extendsfdf2>
 1800134:	1021883a 	mov	r16,r2
 1800138:	1823883a 	mov	r17,r3
 180013c:	e0fffd17 	ldw	r3,-12(fp)
 1800140:	e0bffb17 	ldw	r2,-20(fp)
 1800144:	1885ff32 	custom	252,r2,r3,r2
 1800148:	1009883a 	mov	r4,r2
 180014c:	1804f4c0 	call	1804f4c <__extendsfdf2>
 1800150:	100b883a 	mov	r5,r2
 1800154:	180d883a 	mov	r6,r3
 1800158:	2809883a 	mov	r4,r5
 180015c:	300b883a 	mov	r5,r6
 1800160:	18019fc0 	call	18019fc <sin>
 1800164:	100f883a 	mov	r7,r2
 1800168:	1811883a 	mov	r8,r3
 180016c:	8009883a 	mov	r4,r16
 1800170:	880b883a 	mov	r5,r17
 1800174:	380d883a 	mov	r6,r7
 1800178:	400f883a 	mov	r7,r8
 180017c:	18054a40 	call	18054a4 <__muldf3>
 1800180:	1009883a 	mov	r4,r2
 1800184:	180b883a 	mov	r5,r3
 1800188:	2005883a 	mov	r2,r4
 180018c:	2807883a 	mov	r3,r5
 1800190:	9009883a 	mov	r4,r18
 1800194:	980b883a 	mov	r5,r19
 1800198:	100d883a 	mov	r6,r2
 180019c:	180f883a 	mov	r7,r3
 18001a0:	18053b00 	call	18053b0 <__subdf3>
 18001a4:	1009883a 	mov	r4,r2
 18001a8:	180b883a 	mov	r5,r3
 18001ac:	2021883a 	mov	r16,r4
 18001b0:	2823883a 	mov	r17,r5
 18001b4:	e0bffc17 	ldw	r2,-16(fp)
 18001b8:	10800104 	addi	r2,r2,4
 18001bc:	10800017 	ldw	r2,0(r2)
 18001c0:	1009883a 	mov	r4,r2
 18001c4:	1804f4c0 	call	1804f4c <__extendsfdf2>
 18001c8:	100f883a 	mov	r7,r2
 18001cc:	1811883a 	mov	r8,r3
 18001d0:	8009883a 	mov	r4,r16
 18001d4:	880b883a 	mov	r5,r17
 18001d8:	380d883a 	mov	r6,r7
 18001dc:	400f883a 	mov	r7,r8
 18001e0:	18053b00 	call	18053b0 <__subdf3>
 18001e4:	1009883a 	mov	r4,r2
 18001e8:	180b883a 	mov	r5,r3
 18001ec:	2005883a 	mov	r2,r4
 18001f0:	2807883a 	mov	r3,r5
 18001f4:	1009883a 	mov	r4,r2
 18001f8:	180b883a 	mov	r5,r3
 18001fc:	1805ee80 	call	1805ee8 <__truncdfsf2>
 1800200:	e0bff815 	stw	r2,-32(fp)
    float xyHyp = (float) sqrt(pow(target[0],2)+pow(target[1],2))-(l[4]*cos(phi*deg2rad));
 1800204:	e0bffe17 	ldw	r2,-8(fp)
 1800208:	10800017 	ldw	r2,0(r2)
 180020c:	1009883a 	mov	r4,r2
 1800210:	1804f4c0 	call	1804f4c <__extendsfdf2>
 1800214:	100f883a 	mov	r7,r2
 1800218:	1811883a 	mov	r8,r3
 180021c:	3809883a 	mov	r4,r7
 1800220:	400b883a 	mov	r5,r8
 1800224:	380d883a 	mov	r6,r7
 1800228:	400f883a 	mov	r7,r8
 180022c:	18054a40 	call	18054a4 <__muldf3>
 1800230:	1009883a 	mov	r4,r2
 1800234:	180b883a 	mov	r5,r3
 1800238:	2005883a 	mov	r2,r4
 180023c:	2807883a 	mov	r3,r5
 1800240:	1021883a 	mov	r16,r2
 1800244:	1823883a 	mov	r17,r3
 1800248:	e0bffe17 	ldw	r2,-8(fp)
 180024c:	10800104 	addi	r2,r2,4
 1800250:	10800017 	ldw	r2,0(r2)
 1800254:	1009883a 	mov	r4,r2
 1800258:	1804f4c0 	call	1804f4c <__extendsfdf2>
 180025c:	100f883a 	mov	r7,r2
 1800260:	1811883a 	mov	r8,r3
 1800264:	3809883a 	mov	r4,r7
 1800268:	400b883a 	mov	r5,r8
 180026c:	380d883a 	mov	r6,r7
 1800270:	400f883a 	mov	r7,r8
 1800274:	18054a40 	call	18054a4 <__muldf3>
 1800278:	1009883a 	mov	r4,r2
 180027c:	180b883a 	mov	r5,r3
 1800280:	2005883a 	mov	r2,r4
 1800284:	2807883a 	mov	r3,r5
 1800288:	100f883a 	mov	r7,r2
 180028c:	1811883a 	mov	r8,r3
 1800290:	8009883a 	mov	r4,r16
 1800294:	880b883a 	mov	r5,r17
 1800298:	380d883a 	mov	r6,r7
 180029c:	400f883a 	mov	r7,r8
 18002a0:	18054300 	call	1805430 <__adddf3>
 18002a4:	1009883a 	mov	r4,r2
 18002a8:	180b883a 	mov	r5,r3
 18002ac:	2005883a 	mov	r2,r4
 18002b0:	2807883a 	mov	r3,r5
 18002b4:	1009883a 	mov	r4,r2
 18002b8:	180b883a 	mov	r5,r3
 18002bc:	1801b6c0 	call	1801b6c <sqrt>
 18002c0:	100b883a 	mov	r5,r2
 18002c4:	180d883a 	mov	r6,r3
 18002c8:	2809883a 	mov	r4,r5
 18002cc:	300b883a 	mov	r5,r6
 18002d0:	1805ee80 	call	1805ee8 <__truncdfsf2>
 18002d4:	1009883a 	mov	r4,r2
 18002d8:	1804f4c0 	call	1804f4c <__extendsfdf2>
 18002dc:	1025883a 	mov	r18,r2
 18002e0:	1827883a 	mov	r19,r3
 18002e4:	e0bffc17 	ldw	r2,-16(fp)
 18002e8:	10800404 	addi	r2,r2,16
 18002ec:	10800017 	ldw	r2,0(r2)
 18002f0:	1009883a 	mov	r4,r2
 18002f4:	1804f4c0 	call	1804f4c <__extendsfdf2>
 18002f8:	1021883a 	mov	r16,r2
 18002fc:	1823883a 	mov	r17,r3
 1800300:	e0fffd17 	ldw	r3,-12(fp)
 1800304:	e0bffb17 	ldw	r2,-20(fp)
 1800308:	1885ff32 	custom	252,r2,r3,r2
 180030c:	1009883a 	mov	r4,r2
 1800310:	1804f4c0 	call	1804f4c <__extendsfdf2>
 1800314:	100b883a 	mov	r5,r2
 1800318:	180d883a 	mov	r6,r3
 180031c:	2809883a 	mov	r4,r5
 1800320:	300b883a 	mov	r5,r6
 1800324:	18017880 	call	1801788 <cos>
 1800328:	100f883a 	mov	r7,r2
 180032c:	1811883a 	mov	r8,r3
 1800330:	8009883a 	mov	r4,r16
 1800334:	880b883a 	mov	r5,r17
 1800338:	380d883a 	mov	r6,r7
 180033c:	400f883a 	mov	r7,r8
 1800340:	18054a40 	call	18054a4 <__muldf3>
 1800344:	1009883a 	mov	r4,r2
 1800348:	180b883a 	mov	r5,r3
 180034c:	2005883a 	mov	r2,r4
 1800350:	2807883a 	mov	r3,r5
 1800354:	9009883a 	mov	r4,r18
 1800358:	980b883a 	mov	r5,r19
 180035c:	100d883a 	mov	r6,r2
 1800360:	180f883a 	mov	r7,r3
 1800364:	18053b00 	call	18053b0 <__subdf3>
 1800368:	1009883a 	mov	r4,r2
 180036c:	180b883a 	mov	r5,r3
 1800370:	2005883a 	mov	r2,r4
 1800374:	2807883a 	mov	r3,r5
 1800378:	1009883a 	mov	r4,r2
 180037c:	180b883a 	mov	r5,r3
 1800380:	1805ee80 	call	1805ee8 <__truncdfsf2>
 1800384:	e0bff715 	stw	r2,-36(fp)

    float cosT3 = (float) (pow(xyHyp,2)+pow(z,2)-pow(l[2],2)-pow(l[3],2))/(2*l[2]*l[3]);
 1800388:	e13ff717 	ldw	r4,-36(fp)
 180038c:	1804f4c0 	call	1804f4c <__extendsfdf2>
 1800390:	100f883a 	mov	r7,r2
 1800394:	1811883a 	mov	r8,r3
 1800398:	3809883a 	mov	r4,r7
 180039c:	400b883a 	mov	r5,r8
 18003a0:	380d883a 	mov	r6,r7
 18003a4:	400f883a 	mov	r7,r8
 18003a8:	18054a40 	call	18054a4 <__muldf3>
 18003ac:	1009883a 	mov	r4,r2
 18003b0:	180b883a 	mov	r5,r3
 18003b4:	2005883a 	mov	r2,r4
 18003b8:	2807883a 	mov	r3,r5
 18003bc:	1021883a 	mov	r16,r2
 18003c0:	1823883a 	mov	r17,r3
 18003c4:	e13ff817 	ldw	r4,-32(fp)
 18003c8:	1804f4c0 	call	1804f4c <__extendsfdf2>
 18003cc:	100f883a 	mov	r7,r2
 18003d0:	1811883a 	mov	r8,r3
 18003d4:	3809883a 	mov	r4,r7
 18003d8:	400b883a 	mov	r5,r8
 18003dc:	380d883a 	mov	r6,r7
 18003e0:	400f883a 	mov	r7,r8
 18003e4:	18054a40 	call	18054a4 <__muldf3>
 18003e8:	1009883a 	mov	r4,r2
 18003ec:	180b883a 	mov	r5,r3
 18003f0:	2005883a 	mov	r2,r4
 18003f4:	2807883a 	mov	r3,r5
 18003f8:	100f883a 	mov	r7,r2
 18003fc:	1811883a 	mov	r8,r3
 1800400:	8009883a 	mov	r4,r16
 1800404:	880b883a 	mov	r5,r17
 1800408:	380d883a 	mov	r6,r7
 180040c:	400f883a 	mov	r7,r8
 1800410:	18054300 	call	1805430 <__adddf3>
 1800414:	1009883a 	mov	r4,r2
 1800418:	180b883a 	mov	r5,r3
 180041c:	2021883a 	mov	r16,r4
 1800420:	2823883a 	mov	r17,r5
 1800424:	e0bffc17 	ldw	r2,-16(fp)
 1800428:	10800204 	addi	r2,r2,8
 180042c:	10800017 	ldw	r2,0(r2)
 1800430:	1009883a 	mov	r4,r2
 1800434:	1804f4c0 	call	1804f4c <__extendsfdf2>
 1800438:	100f883a 	mov	r7,r2
 180043c:	1811883a 	mov	r8,r3
 1800440:	3809883a 	mov	r4,r7
 1800444:	400b883a 	mov	r5,r8
 1800448:	380d883a 	mov	r6,r7
 180044c:	400f883a 	mov	r7,r8
 1800450:	18054a40 	call	18054a4 <__muldf3>
 1800454:	1009883a 	mov	r4,r2
 1800458:	180b883a 	mov	r5,r3
 180045c:	2005883a 	mov	r2,r4
 1800460:	2807883a 	mov	r3,r5
 1800464:	100f883a 	mov	r7,r2
 1800468:	1811883a 	mov	r8,r3
 180046c:	8009883a 	mov	r4,r16
 1800470:	880b883a 	mov	r5,r17
 1800474:	380d883a 	mov	r6,r7
 1800478:	400f883a 	mov	r7,r8
 180047c:	18053b00 	call	18053b0 <__subdf3>
 1800480:	1009883a 	mov	r4,r2
 1800484:	180b883a 	mov	r5,r3
 1800488:	2021883a 	mov	r16,r4
 180048c:	2823883a 	mov	r17,r5
 1800490:	e0bffc17 	ldw	r2,-16(fp)
 1800494:	10800304 	addi	r2,r2,12
 1800498:	10800017 	ldw	r2,0(r2)
 180049c:	1009883a 	mov	r4,r2
 18004a0:	1804f4c0 	call	1804f4c <__extendsfdf2>
 18004a4:	100f883a 	mov	r7,r2
 18004a8:	1811883a 	mov	r8,r3
 18004ac:	3809883a 	mov	r4,r7
 18004b0:	400b883a 	mov	r5,r8
 18004b4:	380d883a 	mov	r6,r7
 18004b8:	400f883a 	mov	r7,r8
 18004bc:	18054a40 	call	18054a4 <__muldf3>
 18004c0:	1009883a 	mov	r4,r2
 18004c4:	180b883a 	mov	r5,r3
 18004c8:	2005883a 	mov	r2,r4
 18004cc:	2807883a 	mov	r3,r5
 18004d0:	100f883a 	mov	r7,r2
 18004d4:	1811883a 	mov	r8,r3
 18004d8:	8009883a 	mov	r4,r16
 18004dc:	880b883a 	mov	r5,r17
 18004e0:	380d883a 	mov	r6,r7
 18004e4:	400f883a 	mov	r7,r8
 18004e8:	18053b00 	call	18053b0 <__subdf3>
 18004ec:	1009883a 	mov	r4,r2
 18004f0:	180b883a 	mov	r5,r3
 18004f4:	2005883a 	mov	r2,r4
 18004f8:	2807883a 	mov	r3,r5
 18004fc:	1009883a 	mov	r4,r2
 1800500:	180b883a 	mov	r5,r3
 1800504:	1805ee80 	call	1805ee8 <__truncdfsf2>
 1800508:	1009883a 	mov	r4,r2
 180050c:	e0bffc17 	ldw	r2,-16(fp)
 1800510:	10800204 	addi	r2,r2,8
 1800514:	10800017 	ldw	r2,0(r2)
 1800518:	1087ff72 	custom	253,r3,r2,r2
 180051c:	e0bffc17 	ldw	r2,-16(fp)
 1800520:	10800304 	addi	r2,r2,12
 1800524:	10800017 	ldw	r2,0(r2)
 1800528:	1885ff32 	custom	252,r2,r3,r2
 180052c:	100b883a 	mov	r5,r2
 1800530:	1804cac0 	call	1804cac <__divsf3>
 1800534:	e0bff615 	stw	r2,-40(fp)

    float t3a = (float) atan2(+sqrt(1-pow(cosT3,2)),cosT3)*rad2deg; // theta 3
 1800538:	e13ff617 	ldw	r4,-40(fp)
 180053c:	1804f4c0 	call	1804f4c <__extendsfdf2>
 1800540:	100f883a 	mov	r7,r2
 1800544:	1811883a 	mov	r8,r3
 1800548:	3809883a 	mov	r4,r7
 180054c:	400b883a 	mov	r5,r8
 1800550:	380d883a 	mov	r6,r7
 1800554:	400f883a 	mov	r7,r8
 1800558:	18054a40 	call	18054a4 <__muldf3>
 180055c:	1009883a 	mov	r4,r2
 1800560:	180b883a 	mov	r5,r3
 1800564:	2005883a 	mov	r2,r4
 1800568:	2807883a 	mov	r3,r5
 180056c:	100f883a 	mov	r7,r2
 1800570:	1811883a 	mov	r8,r3
 1800574:	0009883a 	mov	r4,zero
 1800578:	014ffc34 	movhi	r5,16368
 180057c:	380d883a 	mov	r6,r7
 1800580:	400f883a 	mov	r7,r8
 1800584:	18053b00 	call	18053b0 <__subdf3>
 1800588:	1009883a 	mov	r4,r2
 180058c:	180b883a 	mov	r5,r3
 1800590:	2005883a 	mov	r2,r4
 1800594:	2807883a 	mov	r3,r5
 1800598:	1009883a 	mov	r4,r2
 180059c:	180b883a 	mov	r5,r3
 18005a0:	1801b6c0 	call	1801b6c <sqrt>
 18005a4:	1021883a 	mov	r16,r2
 18005a8:	1823883a 	mov	r17,r3
 18005ac:	e13ff617 	ldw	r4,-40(fp)
 18005b0:	1804f4c0 	call	1804f4c <__extendsfdf2>
 18005b4:	100f883a 	mov	r7,r2
 18005b8:	1811883a 	mov	r8,r3
 18005bc:	8009883a 	mov	r4,r16
 18005c0:	880b883a 	mov	r5,r17
 18005c4:	380d883a 	mov	r6,r7
 18005c8:	400f883a 	mov	r7,r8
 18005cc:	1801b680 	call	1801b68 <atan2>
 18005d0:	100b883a 	mov	r5,r2
 18005d4:	180d883a 	mov	r6,r3
 18005d8:	2809883a 	mov	r4,r5
 18005dc:	300b883a 	mov	r5,r6
 18005e0:	1805ee80 	call	1805ee8 <__truncdfsf2>
 18005e4:	1007883a 	mov	r3,r2
 18005e8:	e0bffa17 	ldw	r2,-24(fp)
 18005ec:	1885ff32 	custom	252,r2,r3,r2
 18005f0:	e0bff515 	stw	r2,-44(fp)
    float t3b = (float) atan2(-sqrt(1-pow(cosT3,2)),cosT3)*rad2deg;
 18005f4:	e13ff617 	ldw	r4,-40(fp)
 18005f8:	1804f4c0 	call	1804f4c <__extendsfdf2>
 18005fc:	100f883a 	mov	r7,r2
 1800600:	1811883a 	mov	r8,r3
 1800604:	3809883a 	mov	r4,r7
 1800608:	400b883a 	mov	r5,r8
 180060c:	380d883a 	mov	r6,r7
 1800610:	400f883a 	mov	r7,r8
 1800614:	18054a40 	call	18054a4 <__muldf3>
 1800618:	1009883a 	mov	r4,r2
 180061c:	180b883a 	mov	r5,r3
 1800620:	2005883a 	mov	r2,r4
 1800624:	2807883a 	mov	r3,r5
 1800628:	100f883a 	mov	r7,r2
 180062c:	1811883a 	mov	r8,r3
 1800630:	0009883a 	mov	r4,zero
 1800634:	014ffc34 	movhi	r5,16368
 1800638:	380d883a 	mov	r6,r7
 180063c:	400f883a 	mov	r7,r8
 1800640:	18053b00 	call	18053b0 <__subdf3>
 1800644:	1009883a 	mov	r4,r2
 1800648:	180b883a 	mov	r5,r3
 180064c:	2005883a 	mov	r2,r4
 1800650:	2807883a 	mov	r3,r5
 1800654:	1009883a 	mov	r4,r2
 1800658:	180b883a 	mov	r5,r3
 180065c:	1801b6c0 	call	1801b6c <sqrt>
 1800660:	1009883a 	mov	r4,r2
 1800664:	180b883a 	mov	r5,r3
 1800668:	2021883a 	mov	r16,r4
 180066c:	2c60003c 	xorhi	r17,r5,32768
 1800670:	e13ff617 	ldw	r4,-40(fp)
 1800674:	1804f4c0 	call	1804f4c <__extendsfdf2>
 1800678:	100f883a 	mov	r7,r2
 180067c:	1811883a 	mov	r8,r3
 1800680:	8009883a 	mov	r4,r16
 1800684:	880b883a 	mov	r5,r17
 1800688:	380d883a 	mov	r6,r7
 180068c:	400f883a 	mov	r7,r8
 1800690:	1801b680 	call	1801b68 <atan2>
 1800694:	100b883a 	mov	r5,r2
 1800698:	180d883a 	mov	r6,r3
 180069c:	2809883a 	mov	r4,r5
 18006a0:	300b883a 	mov	r5,r6
 18006a4:	1805ee80 	call	1805ee8 <__truncdfsf2>
 18006a8:	1007883a 	mov	r3,r2
 18006ac:	e0bffa17 	ldw	r2,-24(fp)
 18006b0:	1885ff32 	custom	252,r2,r3,r2
 18006b4:	e0bff415 	stw	r2,-48(fp)

    float cosT2a = (float) ((xyHyp*(l[2]+(l[3]*cos(t3a*deg2rad))))+(z*l[3]*sin(t3a*deg2rad)))/(pow(xyHyp,2)+pow(z,2));
 18006b8:	e13ff717 	ldw	r4,-36(fp)
 18006bc:	1804f4c0 	call	1804f4c <__extendsfdf2>
 18006c0:	1029883a 	mov	r20,r2
 18006c4:	182b883a 	mov	r21,r3
 18006c8:	e0bffc17 	ldw	r2,-16(fp)
 18006cc:	10800204 	addi	r2,r2,8
 18006d0:	10800017 	ldw	r2,0(r2)
 18006d4:	1009883a 	mov	r4,r2
 18006d8:	1804f4c0 	call	1804f4c <__extendsfdf2>
 18006dc:	1025883a 	mov	r18,r2
 18006e0:	1827883a 	mov	r19,r3
 18006e4:	e0bffc17 	ldw	r2,-16(fp)
 18006e8:	10800304 	addi	r2,r2,12
 18006ec:	10800017 	ldw	r2,0(r2)
 18006f0:	1009883a 	mov	r4,r2
 18006f4:	1804f4c0 	call	1804f4c <__extendsfdf2>
 18006f8:	1021883a 	mov	r16,r2
 18006fc:	1823883a 	mov	r17,r3
 1800700:	e0fff517 	ldw	r3,-44(fp)
 1800704:	e0bffb17 	ldw	r2,-20(fp)
 1800708:	1885ff32 	custom	252,r2,r3,r2
 180070c:	1009883a 	mov	r4,r2
 1800710:	1804f4c0 	call	1804f4c <__extendsfdf2>
 1800714:	100b883a 	mov	r5,r2
 1800718:	180d883a 	mov	r6,r3
 180071c:	2809883a 	mov	r4,r5
 1800720:	300b883a 	mov	r5,r6
 1800724:	18017880 	call	1801788 <cos>
 1800728:	100f883a 	mov	r7,r2
 180072c:	1811883a 	mov	r8,r3
 1800730:	8009883a 	mov	r4,r16
 1800734:	880b883a 	mov	r5,r17
 1800738:	380d883a 	mov	r6,r7
 180073c:	400f883a 	mov	r7,r8
 1800740:	18054a40 	call	18054a4 <__muldf3>
 1800744:	1009883a 	mov	r4,r2
 1800748:	180b883a 	mov	r5,r3
 180074c:	2005883a 	mov	r2,r4
 1800750:	2807883a 	mov	r3,r5
 1800754:	9009883a 	mov	r4,r18
 1800758:	980b883a 	mov	r5,r19
 180075c:	100d883a 	mov	r6,r2
 1800760:	180f883a 	mov	r7,r3
 1800764:	18054300 	call	1805430 <__adddf3>
 1800768:	1009883a 	mov	r4,r2
 180076c:	180b883a 	mov	r5,r3
 1800770:	2005883a 	mov	r2,r4
 1800774:	2807883a 	mov	r3,r5
 1800778:	a009883a 	mov	r4,r20
 180077c:	a80b883a 	mov	r5,r21
 1800780:	100d883a 	mov	r6,r2
 1800784:	180f883a 	mov	r7,r3
 1800788:	18054a40 	call	18054a4 <__muldf3>
 180078c:	1009883a 	mov	r4,r2
 1800790:	180b883a 	mov	r5,r3
 1800794:	2025883a 	mov	r18,r4
 1800798:	2827883a 	mov	r19,r5
 180079c:	e0bffc17 	ldw	r2,-16(fp)
 18007a0:	10800304 	addi	r2,r2,12
 18007a4:	10c00017 	ldw	r3,0(r2)
 18007a8:	e0bff817 	ldw	r2,-32(fp)
 18007ac:	1885ff32 	custom	252,r2,r3,r2
 18007b0:	1009883a 	mov	r4,r2
 18007b4:	1804f4c0 	call	1804f4c <__extendsfdf2>
 18007b8:	1021883a 	mov	r16,r2
 18007bc:	1823883a 	mov	r17,r3
 18007c0:	e0fff517 	ldw	r3,-44(fp)
 18007c4:	e0bffb17 	ldw	r2,-20(fp)
 18007c8:	1885ff32 	custom	252,r2,r3,r2
 18007cc:	1009883a 	mov	r4,r2
 18007d0:	1804f4c0 	call	1804f4c <__extendsfdf2>
 18007d4:	100b883a 	mov	r5,r2
 18007d8:	180d883a 	mov	r6,r3
 18007dc:	2809883a 	mov	r4,r5
 18007e0:	300b883a 	mov	r5,r6
 18007e4:	18019fc0 	call	18019fc <sin>
 18007e8:	100f883a 	mov	r7,r2
 18007ec:	1811883a 	mov	r8,r3
 18007f0:	8009883a 	mov	r4,r16
 18007f4:	880b883a 	mov	r5,r17
 18007f8:	380d883a 	mov	r6,r7
 18007fc:	400f883a 	mov	r7,r8
 1800800:	18054a40 	call	18054a4 <__muldf3>
 1800804:	1009883a 	mov	r4,r2
 1800808:	180b883a 	mov	r5,r3
 180080c:	2005883a 	mov	r2,r4
 1800810:	2807883a 	mov	r3,r5
 1800814:	9009883a 	mov	r4,r18
 1800818:	980b883a 	mov	r5,r19
 180081c:	100d883a 	mov	r6,r2
 1800820:	180f883a 	mov	r7,r3
 1800824:	18054300 	call	1805430 <__adddf3>
 1800828:	1009883a 	mov	r4,r2
 180082c:	180b883a 	mov	r5,r3
 1800830:	2005883a 	mov	r2,r4
 1800834:	2807883a 	mov	r3,r5
 1800838:	1009883a 	mov	r4,r2
 180083c:	180b883a 	mov	r5,r3
 1800840:	1805ee80 	call	1805ee8 <__truncdfsf2>
 1800844:	1009883a 	mov	r4,r2
 1800848:	1804f4c0 	call	1804f4c <__extendsfdf2>
 180084c:	1025883a 	mov	r18,r2
 1800850:	1827883a 	mov	r19,r3
 1800854:	e13ff717 	ldw	r4,-36(fp)
 1800858:	1804f4c0 	call	1804f4c <__extendsfdf2>
 180085c:	100f883a 	mov	r7,r2
 1800860:	1811883a 	mov	r8,r3
 1800864:	3809883a 	mov	r4,r7
 1800868:	400b883a 	mov	r5,r8
 180086c:	380d883a 	mov	r6,r7
 1800870:	400f883a 	mov	r7,r8
 1800874:	18054a40 	call	18054a4 <__muldf3>
 1800878:	1009883a 	mov	r4,r2
 180087c:	180b883a 	mov	r5,r3
 1800880:	2005883a 	mov	r2,r4
 1800884:	2807883a 	mov	r3,r5
 1800888:	1021883a 	mov	r16,r2
 180088c:	1823883a 	mov	r17,r3
 1800890:	e13ff817 	ldw	r4,-32(fp)
 1800894:	1804f4c0 	call	1804f4c <__extendsfdf2>
 1800898:	100f883a 	mov	r7,r2
 180089c:	1811883a 	mov	r8,r3
 18008a0:	3809883a 	mov	r4,r7
 18008a4:	400b883a 	mov	r5,r8
 18008a8:	380d883a 	mov	r6,r7
 18008ac:	400f883a 	mov	r7,r8
 18008b0:	18054a40 	call	18054a4 <__muldf3>
 18008b4:	1009883a 	mov	r4,r2
 18008b8:	180b883a 	mov	r5,r3
 18008bc:	2005883a 	mov	r2,r4
 18008c0:	2807883a 	mov	r3,r5
 18008c4:	100f883a 	mov	r7,r2
 18008c8:	1811883a 	mov	r8,r3
 18008cc:	8009883a 	mov	r4,r16
 18008d0:	880b883a 	mov	r5,r17
 18008d4:	380d883a 	mov	r6,r7
 18008d8:	400f883a 	mov	r7,r8
 18008dc:	18054300 	call	1805430 <__adddf3>
 18008e0:	1009883a 	mov	r4,r2
 18008e4:	180b883a 	mov	r5,r3
 18008e8:	2005883a 	mov	r2,r4
 18008ec:	2807883a 	mov	r3,r5
 18008f0:	9009883a 	mov	r4,r18
 18008f4:	980b883a 	mov	r5,r19
 18008f8:	100d883a 	mov	r6,r2
 18008fc:	180f883a 	mov	r7,r3
 1800900:	18058680 	call	1805868 <__divdf3>
 1800904:	1009883a 	mov	r4,r2
 1800908:	180b883a 	mov	r5,r3
 180090c:	2005883a 	mov	r2,r4
 1800910:	2807883a 	mov	r3,r5
 1800914:	1009883a 	mov	r4,r2
 1800918:	180b883a 	mov	r5,r3
 180091c:	1805ee80 	call	1805ee8 <__truncdfsf2>
 1800920:	e0bff315 	stw	r2,-52(fp)
    float cosT2b = (float) ((xyHyp*(l[2]+(l[3]*cos(t3b*deg2rad))))+(z*l[3]*sin(t3b*deg2rad)))/(pow(xyHyp,2)+pow(z,2));
 1800924:	e13ff717 	ldw	r4,-36(fp)
 1800928:	1804f4c0 	call	1804f4c <__extendsfdf2>
 180092c:	1029883a 	mov	r20,r2
 1800930:	182b883a 	mov	r21,r3
 1800934:	e0bffc17 	ldw	r2,-16(fp)
 1800938:	10800204 	addi	r2,r2,8
 180093c:	10800017 	ldw	r2,0(r2)
 1800940:	1009883a 	mov	r4,r2
 1800944:	1804f4c0 	call	1804f4c <__extendsfdf2>
 1800948:	1025883a 	mov	r18,r2
 180094c:	1827883a 	mov	r19,r3
 1800950:	e0bffc17 	ldw	r2,-16(fp)
 1800954:	10800304 	addi	r2,r2,12
 1800958:	10800017 	ldw	r2,0(r2)
 180095c:	1009883a 	mov	r4,r2
 1800960:	1804f4c0 	call	1804f4c <__extendsfdf2>
 1800964:	1021883a 	mov	r16,r2
 1800968:	1823883a 	mov	r17,r3
 180096c:	e0fff417 	ldw	r3,-48(fp)
 1800970:	e0bffb17 	ldw	r2,-20(fp)
 1800974:	1885ff32 	custom	252,r2,r3,r2
 1800978:	1009883a 	mov	r4,r2
 180097c:	1804f4c0 	call	1804f4c <__extendsfdf2>
 1800980:	100b883a 	mov	r5,r2
 1800984:	180d883a 	mov	r6,r3
 1800988:	2809883a 	mov	r4,r5
 180098c:	300b883a 	mov	r5,r6
 1800990:	18017880 	call	1801788 <cos>
 1800994:	100f883a 	mov	r7,r2
 1800998:	1811883a 	mov	r8,r3
 180099c:	8009883a 	mov	r4,r16
 18009a0:	880b883a 	mov	r5,r17
 18009a4:	380d883a 	mov	r6,r7
 18009a8:	400f883a 	mov	r7,r8
 18009ac:	18054a40 	call	18054a4 <__muldf3>
 18009b0:	1009883a 	mov	r4,r2
 18009b4:	180b883a 	mov	r5,r3
 18009b8:	2005883a 	mov	r2,r4
 18009bc:	2807883a 	mov	r3,r5
 18009c0:	9009883a 	mov	r4,r18
 18009c4:	980b883a 	mov	r5,r19
 18009c8:	100d883a 	mov	r6,r2
 18009cc:	180f883a 	mov	r7,r3
 18009d0:	18054300 	call	1805430 <__adddf3>
 18009d4:	1009883a 	mov	r4,r2
 18009d8:	180b883a 	mov	r5,r3
 18009dc:	2005883a 	mov	r2,r4
 18009e0:	2807883a 	mov	r3,r5
 18009e4:	a009883a 	mov	r4,r20
 18009e8:	a80b883a 	mov	r5,r21
 18009ec:	100d883a 	mov	r6,r2
 18009f0:	180f883a 	mov	r7,r3
 18009f4:	18054a40 	call	18054a4 <__muldf3>
 18009f8:	1009883a 	mov	r4,r2
 18009fc:	180b883a 	mov	r5,r3
 1800a00:	2025883a 	mov	r18,r4
 1800a04:	2827883a 	mov	r19,r5
 1800a08:	e0bffc17 	ldw	r2,-16(fp)
 1800a0c:	10800304 	addi	r2,r2,12
 1800a10:	10c00017 	ldw	r3,0(r2)
 1800a14:	e0bff817 	ldw	r2,-32(fp)
 1800a18:	1885ff32 	custom	252,r2,r3,r2
 1800a1c:	1009883a 	mov	r4,r2
 1800a20:	1804f4c0 	call	1804f4c <__extendsfdf2>
 1800a24:	1021883a 	mov	r16,r2
 1800a28:	1823883a 	mov	r17,r3
 1800a2c:	e0fff417 	ldw	r3,-48(fp)
 1800a30:	e0bffb17 	ldw	r2,-20(fp)
 1800a34:	1885ff32 	custom	252,r2,r3,r2
 1800a38:	1009883a 	mov	r4,r2
 1800a3c:	1804f4c0 	call	1804f4c <__extendsfdf2>
 1800a40:	100b883a 	mov	r5,r2
 1800a44:	180d883a 	mov	r6,r3
 1800a48:	2809883a 	mov	r4,r5
 1800a4c:	300b883a 	mov	r5,r6
 1800a50:	18019fc0 	call	18019fc <sin>
 1800a54:	100f883a 	mov	r7,r2
 1800a58:	1811883a 	mov	r8,r3
 1800a5c:	8009883a 	mov	r4,r16
 1800a60:	880b883a 	mov	r5,r17
 1800a64:	380d883a 	mov	r6,r7
 1800a68:	400f883a 	mov	r7,r8
 1800a6c:	18054a40 	call	18054a4 <__muldf3>
 1800a70:	1009883a 	mov	r4,r2
 1800a74:	180b883a 	mov	r5,r3
 1800a78:	2005883a 	mov	r2,r4
 1800a7c:	2807883a 	mov	r3,r5
 1800a80:	9009883a 	mov	r4,r18
 1800a84:	980b883a 	mov	r5,r19
 1800a88:	100d883a 	mov	r6,r2
 1800a8c:	180f883a 	mov	r7,r3
 1800a90:	18054300 	call	1805430 <__adddf3>
 1800a94:	1009883a 	mov	r4,r2
 1800a98:	180b883a 	mov	r5,r3
 1800a9c:	2005883a 	mov	r2,r4
 1800aa0:	2807883a 	mov	r3,r5
 1800aa4:	1009883a 	mov	r4,r2
 1800aa8:	180b883a 	mov	r5,r3
 1800aac:	1805ee80 	call	1805ee8 <__truncdfsf2>
 1800ab0:	1009883a 	mov	r4,r2
 1800ab4:	1804f4c0 	call	1804f4c <__extendsfdf2>
 1800ab8:	1025883a 	mov	r18,r2
 1800abc:	1827883a 	mov	r19,r3
 1800ac0:	e13ff717 	ldw	r4,-36(fp)
 1800ac4:	1804f4c0 	call	1804f4c <__extendsfdf2>
 1800ac8:	100f883a 	mov	r7,r2
 1800acc:	1811883a 	mov	r8,r3
 1800ad0:	3809883a 	mov	r4,r7
 1800ad4:	400b883a 	mov	r5,r8
 1800ad8:	380d883a 	mov	r6,r7
 1800adc:	400f883a 	mov	r7,r8
 1800ae0:	18054a40 	call	18054a4 <__muldf3>
 1800ae4:	1009883a 	mov	r4,r2
 1800ae8:	180b883a 	mov	r5,r3
 1800aec:	2005883a 	mov	r2,r4
 1800af0:	2807883a 	mov	r3,r5
 1800af4:	1021883a 	mov	r16,r2
 1800af8:	1823883a 	mov	r17,r3
 1800afc:	e13ff817 	ldw	r4,-32(fp)
 1800b00:	1804f4c0 	call	1804f4c <__extendsfdf2>
 1800b04:	100f883a 	mov	r7,r2
 1800b08:	1811883a 	mov	r8,r3
 1800b0c:	3809883a 	mov	r4,r7
 1800b10:	400b883a 	mov	r5,r8
 1800b14:	380d883a 	mov	r6,r7
 1800b18:	400f883a 	mov	r7,r8
 1800b1c:	18054a40 	call	18054a4 <__muldf3>
 1800b20:	1009883a 	mov	r4,r2
 1800b24:	180b883a 	mov	r5,r3
 1800b28:	2005883a 	mov	r2,r4
 1800b2c:	2807883a 	mov	r3,r5
 1800b30:	100f883a 	mov	r7,r2
 1800b34:	1811883a 	mov	r8,r3
 1800b38:	8009883a 	mov	r4,r16
 1800b3c:	880b883a 	mov	r5,r17
 1800b40:	380d883a 	mov	r6,r7
 1800b44:	400f883a 	mov	r7,r8
 1800b48:	18054300 	call	1805430 <__adddf3>
 1800b4c:	1009883a 	mov	r4,r2
 1800b50:	180b883a 	mov	r5,r3
 1800b54:	2005883a 	mov	r2,r4
 1800b58:	2807883a 	mov	r3,r5
 1800b5c:	9009883a 	mov	r4,r18
 1800b60:	980b883a 	mov	r5,r19
 1800b64:	100d883a 	mov	r6,r2
 1800b68:	180f883a 	mov	r7,r3
 1800b6c:	18058680 	call	1805868 <__divdf3>
 1800b70:	1009883a 	mov	r4,r2
 1800b74:	180b883a 	mov	r5,r3
 1800b78:	2005883a 	mov	r2,r4
 1800b7c:	2807883a 	mov	r3,r5
 1800b80:	1009883a 	mov	r4,r2
 1800b84:	180b883a 	mov	r5,r3
 1800b88:	1805ee80 	call	1805ee8 <__truncdfsf2>
 1800b8c:	e0bff215 	stw	r2,-56(fp)

    float t2a = (float) atan2(+sqrt(1-pow(cosT2a,2)),cosT2a)*rad2deg; // theta 2
 1800b90:	e13ff317 	ldw	r4,-52(fp)
 1800b94:	1804f4c0 	call	1804f4c <__extendsfdf2>
 1800b98:	100f883a 	mov	r7,r2
 1800b9c:	1811883a 	mov	r8,r3
 1800ba0:	3809883a 	mov	r4,r7
 1800ba4:	400b883a 	mov	r5,r8
 1800ba8:	380d883a 	mov	r6,r7
 1800bac:	400f883a 	mov	r7,r8
 1800bb0:	18054a40 	call	18054a4 <__muldf3>
 1800bb4:	1009883a 	mov	r4,r2
 1800bb8:	180b883a 	mov	r5,r3
 1800bbc:	2005883a 	mov	r2,r4
 1800bc0:	2807883a 	mov	r3,r5
 1800bc4:	100f883a 	mov	r7,r2
 1800bc8:	1811883a 	mov	r8,r3
 1800bcc:	0009883a 	mov	r4,zero
 1800bd0:	014ffc34 	movhi	r5,16368
 1800bd4:	380d883a 	mov	r6,r7
 1800bd8:	400f883a 	mov	r7,r8
 1800bdc:	18053b00 	call	18053b0 <__subdf3>
 1800be0:	1009883a 	mov	r4,r2
 1800be4:	180b883a 	mov	r5,r3
 1800be8:	2005883a 	mov	r2,r4
 1800bec:	2807883a 	mov	r3,r5
 1800bf0:	1009883a 	mov	r4,r2
 1800bf4:	180b883a 	mov	r5,r3
 1800bf8:	1801b6c0 	call	1801b6c <sqrt>
 1800bfc:	1021883a 	mov	r16,r2
 1800c00:	1823883a 	mov	r17,r3
 1800c04:	e13ff317 	ldw	r4,-52(fp)
 1800c08:	1804f4c0 	call	1804f4c <__extendsfdf2>
 1800c0c:	100f883a 	mov	r7,r2
 1800c10:	1811883a 	mov	r8,r3
 1800c14:	8009883a 	mov	r4,r16
 1800c18:	880b883a 	mov	r5,r17
 1800c1c:	380d883a 	mov	r6,r7
 1800c20:	400f883a 	mov	r7,r8
 1800c24:	1801b680 	call	1801b68 <atan2>
 1800c28:	100b883a 	mov	r5,r2
 1800c2c:	180d883a 	mov	r6,r3
 1800c30:	2809883a 	mov	r4,r5
 1800c34:	300b883a 	mov	r5,r6
 1800c38:	1805ee80 	call	1805ee8 <__truncdfsf2>
 1800c3c:	1007883a 	mov	r3,r2
 1800c40:	e0bffa17 	ldw	r2,-24(fp)
 1800c44:	1885ff32 	custom	252,r2,r3,r2
 1800c48:	e0bff115 	stw	r2,-60(fp)
    float t2b = (float) atan2(+sqrt(1-pow(cosT2b,2)),cosT2b)*rad2deg;
 1800c4c:	e13ff217 	ldw	r4,-56(fp)
 1800c50:	1804f4c0 	call	1804f4c <__extendsfdf2>
 1800c54:	100f883a 	mov	r7,r2
 1800c58:	1811883a 	mov	r8,r3
 1800c5c:	3809883a 	mov	r4,r7
 1800c60:	400b883a 	mov	r5,r8
 1800c64:	380d883a 	mov	r6,r7
 1800c68:	400f883a 	mov	r7,r8
 1800c6c:	18054a40 	call	18054a4 <__muldf3>
 1800c70:	1009883a 	mov	r4,r2
 1800c74:	180b883a 	mov	r5,r3
 1800c78:	2005883a 	mov	r2,r4
 1800c7c:	2807883a 	mov	r3,r5
 1800c80:	100f883a 	mov	r7,r2
 1800c84:	1811883a 	mov	r8,r3
 1800c88:	0009883a 	mov	r4,zero
 1800c8c:	014ffc34 	movhi	r5,16368
 1800c90:	380d883a 	mov	r6,r7
 1800c94:	400f883a 	mov	r7,r8
 1800c98:	18053b00 	call	18053b0 <__subdf3>
 1800c9c:	1009883a 	mov	r4,r2
 1800ca0:	180b883a 	mov	r5,r3
 1800ca4:	2005883a 	mov	r2,r4
 1800ca8:	2807883a 	mov	r3,r5
 1800cac:	1009883a 	mov	r4,r2
 1800cb0:	180b883a 	mov	r5,r3
 1800cb4:	1801b6c0 	call	1801b6c <sqrt>
 1800cb8:	1021883a 	mov	r16,r2
 1800cbc:	1823883a 	mov	r17,r3
 1800cc0:	e13ff217 	ldw	r4,-56(fp)
 1800cc4:	1804f4c0 	call	1804f4c <__extendsfdf2>
 1800cc8:	100f883a 	mov	r7,r2
 1800ccc:	1811883a 	mov	r8,r3
 1800cd0:	8009883a 	mov	r4,r16
 1800cd4:	880b883a 	mov	r5,r17
 1800cd8:	380d883a 	mov	r6,r7
 1800cdc:	400f883a 	mov	r7,r8
 1800ce0:	1801b680 	call	1801b68 <atan2>
 1800ce4:	100b883a 	mov	r5,r2
 1800ce8:	180d883a 	mov	r6,r3
 1800cec:	2809883a 	mov	r4,r5
 1800cf0:	300b883a 	mov	r5,r6
 1800cf4:	1805ee80 	call	1805ee8 <__truncdfsf2>
 1800cf8:	1007883a 	mov	r3,r2
 1800cfc:	e0bffa17 	ldw	r2,-24(fp)
 1800d00:	1885ff32 	custom	252,r2,r3,r2
 1800d04:	e0bff015 	stw	r2,-64(fp)

    float t4a = (float) phi-(t2a+t3a)-90; // theta 4
 1800d08:	e0fff117 	ldw	r3,-60(fp)
 1800d0c:	e0bff517 	ldw	r2,-44(fp)
 1800d10:	1887ff72 	custom	253,r3,r3,r2
 1800d14:	e0bffd17 	ldw	r2,-12(fp)
 1800d18:	10c7ffb2 	custom	254,r3,r2,r3
 1800d1c:	0090ad34 	movhi	r2,17076
 1800d20:	1885ffb2 	custom	254,r2,r3,r2
 1800d24:	e0bfef15 	stw	r2,-68(fp)
    float t4b = (float) phi-(t2b+t3b)-90;
 1800d28:	e0fff017 	ldw	r3,-64(fp)
 1800d2c:	e0bff417 	ldw	r2,-48(fp)
 1800d30:	1887ff72 	custom	253,r3,r3,r2
 1800d34:	e0bffd17 	ldw	r2,-12(fp)
 1800d38:	10c7ffb2 	custom	254,r3,r2,r3
 1800d3c:	0090ad34 	movhi	r2,17076
 1800d40:	1885ffb2 	custom	254,r2,r3,r2
 1800d44:	e0bfee15 	stw	r2,-72(fp)
//	printf("t1: %f\n",t1);
//	printf("t2: %f\n",t2a);
//	printf("t3: %f\n",t3a);
//	printf("t4: %f\n",t4a);

    solution[0] = t1-90;
 1800d48:	e0fff917 	ldw	r3,-28(fp)
 1800d4c:	0090ad34 	movhi	r2,17076
 1800d50:	1887ffb2 	custom	254,r3,r3,r2
 1800d54:	e0bfff17 	ldw	r2,-4(fp)
 1800d58:	10c00015 	stw	r3,0(r2)
    solution[1] = -t2b+90;
 1800d5c:	e0bfff17 	ldw	r2,-4(fp)
 1800d60:	11000104 	addi	r4,r2,4
 1800d64:	00d0ad34 	movhi	r3,17076
 1800d68:	e0bff017 	ldw	r2,-64(fp)
 1800d6c:	1885ffb2 	custom	254,r2,r3,r2
 1800d70:	20800015 	stw	r2,0(r4)
    solution[2] = +90+t3b;
 1800d74:	e0bfff17 	ldw	r2,-4(fp)
 1800d78:	11000204 	addi	r4,r2,8
 1800d7c:	e0fff417 	ldw	r3,-48(fp)
 1800d80:	0090ad34 	movhi	r2,17076
 1800d84:	1885ff72 	custom	253,r2,r3,r2
 1800d88:	20800015 	stw	r2,0(r4)
    solution[3] = -t4b-90;
 1800d8c:	e0bfff17 	ldw	r2,-4(fp)
 1800d90:	11000304 	addi	r4,r2,12
 1800d94:	00f0ad34 	movhi	r3,49844
 1800d98:	e0bfee17 	ldw	r2,-72(fp)
 1800d9c:	1885ffb2 	custom	254,r2,r3,r2
 1800da0:	20800015 	stw	r2,0(r4)
//    solution[0] = t1;
//    solution[1] = t2a-90;
//    solution[2] = 90-t3a;
//    solution[3] = t4a+279;

	return solution;
 1800da4:	e0bfff17 	ldw	r2,-4(fp)
}
 1800da8:	e037883a 	mov	sp,fp
 1800dac:	dfc00717 	ldw	ra,28(sp)
 1800db0:	df000617 	ldw	fp,24(sp)
 1800db4:	dd400517 	ldw	r21,20(sp)
 1800db8:	dd000417 	ldw	r20,16(sp)
 1800dbc:	dcc00317 	ldw	r19,12(sp)
 1800dc0:	dc800217 	ldw	r18,8(sp)
 1800dc4:	dc400117 	ldw	r17,4(sp)
 1800dc8:	dc000017 	ldw	r16,0(sp)
 1800dcc:	dec00804 	addi	sp,sp,32
 1800dd0:	f800283a 	ret

01800dd4 <main>:
#include "utilities.h"
#include "IK.h"



int main() {
 1800dd4:	deff7b04 	addi	sp,sp,-532
 1800dd8:	dfc08415 	stw	ra,528(sp)
 1800ddc:	df008315 	stw	fp,524(sp)
 1800de0:	dc008215 	stw	r16,520(sp)
 1800de4:	df008204 	addi	fp,sp,520
	//printf("lololol lolol\n");
	initilisePwm('W');
 1800de8:	010015c4 	movi	r4,87
 1800dec:	18012080 	call	1801208 <initilisePwm>
	initilisePwm('E');
 1800df0:	01001144 	movi	r4,69
 1800df4:	18012080 	call	1801208 <initilisePwm>
	initilisePwm('S');
 1800df8:	010014c4 	movi	r4,83
 1800dfc:	18012080 	call	1801208 <initilisePwm>
	initilisePwm('s');
 1800e00:	01001cc4 	movi	r4,115
 1800e04:	18012080 	call	1801208 <initilisePwm>
	initilisePwm('B');
 1800e08:	01001084 	movi	r4,66
 1800e0c:	18012080 	call	1801208 <initilisePwm>
	////printf("initialise\n");

	int replay = 0; //to enable replaying mode
 1800e10:	e03f8815 	stw	zero,-480(fp)
	int IKMode = 1; //to enable IK mode
 1800e14:	00800044 	movi	r2,1
 1800e18:	e0bf8715 	stw	r2,-484(fp)
	float lengths[5]; //in cm
				lengths[0] = 0;
 1800e1c:	e03f8915 	stw	zero,-476(fp)
				lengths[1] = 40;
 1800e20:	00908834 	movhi	r2,16928
 1800e24:	e0bf8a15 	stw	r2,-472(fp)
				lengths[2] = 120;
 1800e28:	0090bc34 	movhi	r2,17136
 1800e2c:	e0bf8b15 	stw	r2,-468(fp)
				lengths[3] = 120;
 1800e30:	0090bc34 	movhi	r2,17136
 1800e34:	e0bf8c15 	stw	r2,-464(fp)
				lengths[4] = 120;
 1800e38:	0090bc34 	movhi	r2,17136
 1800e3c:	e0bf8d15 	stw	r2,-460(fp)

	int positions[5][2] = {{ 0, 100 },
						   { 45, 500 },
						   { -45, 400 },
						   { 45, 800 },
						   { -15, 200 }};
 1800e40:	e03f9215 	stw	zero,-440(fp)
 1800e44:	00801904 	movi	r2,100
 1800e48:	e0bf9315 	stw	r2,-436(fp)
 1800e4c:	00800b44 	movi	r2,45
 1800e50:	e0bf9415 	stw	r2,-432(fp)
 1800e54:	00807d04 	movi	r2,500
 1800e58:	e0bf9515 	stw	r2,-428(fp)
 1800e5c:	00bff4c4 	movi	r2,-45
 1800e60:	e0bf9615 	stw	r2,-424(fp)
 1800e64:	00806404 	movi	r2,400
 1800e68:	e0bf9715 	stw	r2,-420(fp)
 1800e6c:	00800b44 	movi	r2,45
 1800e70:	e0bf9815 	stw	r2,-416(fp)
 1800e74:	0080c804 	movi	r2,800
 1800e78:	e0bf9915 	stw	r2,-412(fp)
 1800e7c:	00bffc44 	movi	r2,-15
 1800e80:	e0bf9a15 	stw	r2,-408(fp)
 1800e84:	00803204 	movi	r2,200
 1800e88:	e0bf9b15 	stw	r2,-404(fp)
	int noOfPositions = 14;
 1800e8c:	00800384 	movi	r2,14
 1800e90:	e0bf8615 	stw	r2,-488(fp)
							{ 0,200,50,0,0, 100 },
							{ 0,200,150,0,0, 100 },
							{ 0,200,150,45,0, 100 },
							{ 0,200,150,-45,0, 100 },
							{ 0,200,150,0,0, 100 },
							{ 0,150,150,0,0, 100 }};
 1800e94:	00806074 	movhi	r2,385
 1800e98:	10953104 	addi	r2,r2,21700
 1800e9c:	e13f9c04 	addi	r4,fp,-400
 1800ea0:	100b883a 	mov	r5,r2
 1800ea4:	01805404 	movi	r6,336
 1800ea8:	18069380 	call	1806938 <memcpy>
	int interpolations = 1000;
 1800eac:	0080fa04 	movi	r2,1000
 1800eb0:	e0bf8515 	stw	r2,-492(fp)
	int X = 0;
 1800eb4:	e03f8415 	stw	zero,-496(fp)
	int i,j;
	int oldPosition = 0;
 1800eb8:	e03f8115 	stw	zero,-508(fp)
	int newPosition = 0;
 1800ebc:	e03f8015 	stw	zero,-512(fp)
	int oldPosition3d[6]= { 0,100,200,0,0, 100 };
 1800ec0:	e03ff015 	stw	zero,-64(fp)
 1800ec4:	00801904 	movi	r2,100
 1800ec8:	e0bff115 	stw	r2,-60(fp)
 1800ecc:	00803204 	movi	r2,200
 1800ed0:	e0bff215 	stw	r2,-56(fp)
 1800ed4:	e03ff315 	stw	zero,-52(fp)
 1800ed8:	e03ff415 	stw	zero,-48(fp)
 1800edc:	00801904 	movi	r2,100
 1800ee0:	e0bff515 	stw	r2,-44(fp)
	int newPosition3d[6]= { 0,100,200,0,0, 100 };
 1800ee4:	e03ff615 	stw	zero,-40(fp)
 1800ee8:	00801904 	movi	r2,100
 1800eec:	e0bff715 	stw	r2,-36(fp)
 1800ef0:	00803204 	movi	r2,200
 1800ef4:	e0bff815 	stw	r2,-32(fp)
 1800ef8:	e03ff915 	stw	zero,-28(fp)
 1800efc:	e03ffa15 	stw	zero,-24(fp)
 1800f00:	00801904 	movi	r2,100
 1800f04:	e0bffb15 	stw	r2,-20(fp)
	int move = 0;
 1800f08:	e03f7f15 	stw	zero,-516(fp)
 1800f0c:	00000006 	br	1800f10 <main+0x13c>

	while (1) {

		if(replay==1)
 1800f10:	e0bf8817 	ldw	r2,-480(fp)
 1800f14:	10800058 	cmpnei	r2,r2,1
 1800f18:	1000311e 	bne	r2,zero,1800fe0 <main+0x20c>
		{
			oldPosition = newPosition;
 1800f1c:	e0bf8017 	ldw	r2,-512(fp)
 1800f20:	e0bf8115 	stw	r2,-508(fp)
			newPosition = positions[move][0];
 1800f24:	e0bf7f17 	ldw	r2,-516(fp)
 1800f28:	100490fa 	slli	r2,r2,3
 1800f2c:	e0ff7e04 	addi	r3,fp,-520
 1800f30:	10c5883a 	add	r2,r2,r3
 1800f34:	10801404 	addi	r2,r2,80
 1800f38:	10800017 	ldw	r2,0(r2)
 1800f3c:	e0bf8015 	stw	r2,-512(fp)
			interpolations = positions[move][2];
 1800f40:	e0bf7f17 	ldw	r2,-516(fp)
 1800f44:	100490fa 	slli	r2,r2,3
 1800f48:	e13f7e04 	addi	r4,fp,-520
 1800f4c:	1105883a 	add	r2,r2,r4
 1800f50:	10801604 	addi	r2,r2,88
 1800f54:	10800017 	ldw	r2,0(r2)
 1800f58:	e0bf8515 	stw	r2,-492(fp)
			//printf("%d,%d \n", newPosition, interpolations);
			for (i = 0; i < interpolations; i++) {
 1800f5c:	e03f8315 	stw	zero,-500(fp)
 1800f60:	00001206 	br	1800fac <main+0x1d8>
				X = smoothstep(oldPosition, newPosition, interpolations, i);
 1800f64:	e13f8117 	ldw	r4,-508(fp)
 1800f68:	e17f8017 	ldw	r5,-512(fp)
 1800f6c:	e1bf8517 	ldw	r6,-492(fp)
 1800f70:	e1ff8317 	ldw	r7,-500(fp)
 1800f74:	18016c40 	call	18016c4 <smoothstep>
 1800f78:	1009883a 	mov	r4,r2
 1800f7c:	1804eb80 	call	1804eb8 <__fixsfsi>
 1800f80:	e0bf8415 	stw	r2,-496(fp)
				//printf("%d,%d \n", interpolations, X);
				setServoPosition('W', X);
 1800f84:	e13f8417 	ldw	r4,-496(fp)
 1800f88:	1804e200 	call	1804e20 <__floatsisf>
 1800f8c:	010015c4 	movi	r4,87
 1800f90:	100b883a 	mov	r5,r2
 1800f94:	18014d00 	call	18014d0 <setServoPosition>
				usleep(1000);
 1800f98:	0100fa04 	movi	r4,1000
 1800f9c:	180f1840 	call	180f184 <usleep>
		{
			oldPosition = newPosition;
			newPosition = positions[move][0];
			interpolations = positions[move][2];
			//printf("%d,%d \n", newPosition, interpolations);
			for (i = 0; i < interpolations; i++) {
 1800fa0:	e0bf8317 	ldw	r2,-500(fp)
 1800fa4:	10800044 	addi	r2,r2,1
 1800fa8:	e0bf8315 	stw	r2,-500(fp)
 1800fac:	e0ff8317 	ldw	r3,-500(fp)
 1800fb0:	e0bf8517 	ldw	r2,-492(fp)
 1800fb4:	18bfeb16 	blt	r3,r2,1800f64 <main+0x190>
				X = smoothstep(oldPosition, newPosition, interpolations, i);
				//printf("%d,%d \n", interpolations, X);
				setServoPosition('W', X);
				usleep(1000);
			}
			usleep(1000000);
 1800fb8:	010003f4 	movhi	r4,15
 1800fbc:	21109004 	addi	r4,r4,16960
 1800fc0:	180f1840 	call	180f184 <usleep>
			move=move+1;
 1800fc4:	e0bf7f17 	ldw	r2,-516(fp)
 1800fc8:	10800044 	addi	r2,r2,1
 1800fcc:	e0bf7f15 	stw	r2,-516(fp)
			if(move>=5){move=0;}
 1800fd0:	e0bf7f17 	ldw	r2,-516(fp)
 1800fd4:	10800150 	cmplti	r2,r2,5
 1800fd8:	1000011e 	bne	r2,zero,1800fe0 <main+0x20c>
 1800fdc:	e03f7f15 	stw	zero,-516(fp)
		}

		if(IKMode==1)
 1800fe0:	e0bf8717 	ldw	r2,-484(fp)
 1800fe4:	10800058 	cmpnei	r2,r2,1
 1800fe8:	103fc91e 	bne	r2,zero,1800f10 <main+0x13c>
		{
			for (i = 0; i < 5; i++)
 1800fec:	e03f8315 	stw	zero,-500(fp)
 1800ff0:	00002206 	br	180107c <main+0x2a8>
			{
				oldPosition3d[i] = newPosition3d[i] ;
 1800ff4:	e0ff8317 	ldw	r3,-500(fp)
 1800ff8:	e0bf8317 	ldw	r2,-500(fp)
 1800ffc:	1085883a 	add	r2,r2,r2
 1801000:	1085883a 	add	r2,r2,r2
 1801004:	e13f7e04 	addi	r4,fp,-520
 1801008:	1105883a 	add	r2,r2,r4
 180100c:	10807804 	addi	r2,r2,480
 1801010:	11000017 	ldw	r4,0(r2)
 1801014:	18c5883a 	add	r2,r3,r3
 1801018:	1085883a 	add	r2,r2,r2
 180101c:	e0ff7e04 	addi	r3,fp,-520
 1801020:	10c5883a 	add	r2,r2,r3
 1801024:	10807204 	addi	r2,r2,456
 1801028:	11000015 	stw	r4,0(r2)
				newPosition3d[i] = positions3d[move][i];
 180102c:	e13f8317 	ldw	r4,-500(fp)
 1801030:	e0bf7f17 	ldw	r2,-516(fp)
 1801034:	e0ff8317 	ldw	r3,-500(fp)
 1801038:	108001a4 	muli	r2,r2,6
 180103c:	10c5883a 	add	r2,r2,r3
 1801040:	1085883a 	add	r2,r2,r2
 1801044:	1085883a 	add	r2,r2,r2
 1801048:	e0ff7e04 	addi	r3,fp,-520
 180104c:	10c5883a 	add	r2,r2,r3
 1801050:	10801e04 	addi	r2,r2,120
 1801054:	10c00017 	ldw	r3,0(r2)
 1801058:	2105883a 	add	r2,r4,r4
 180105c:	1085883a 	add	r2,r2,r2
 1801060:	e13f7e04 	addi	r4,fp,-520
 1801064:	1105883a 	add	r2,r2,r4
 1801068:	10807804 	addi	r2,r2,480
 180106c:	10c00015 	stw	r3,0(r2)
			if(move>=5){move=0;}
		}

		if(IKMode==1)
		{
			for (i = 0; i < 5; i++)
 1801070:	e0bf8317 	ldw	r2,-500(fp)
 1801074:	10800044 	addi	r2,r2,1
 1801078:	e0bf8315 	stw	r2,-500(fp)
 180107c:	e0bf8317 	ldw	r2,-500(fp)
 1801080:	10800150 	cmplti	r2,r2,5
 1801084:	103fdb1e 	bne	r2,zero,1800ff4 <main+0x220>
			{
				oldPosition3d[i] = newPosition3d[i] ;
				newPosition3d[i] = positions3d[move][i];
			}
			interpolations = positions3d[move][5];
 1801088:	e0bf7f17 	ldw	r2,-516(fp)
 180108c:	10800624 	muli	r2,r2,24
 1801090:	e0ff7e04 	addi	r3,fp,-520
 1801094:	10c5883a 	add	r2,r2,r3
 1801098:	10802304 	addi	r2,r2,140
 180109c:	10800017 	ldw	r2,0(r2)
 18010a0:	e0bf8515 	stw	r2,-492(fp)

			for (i = 0; i < interpolations; i++) {
 18010a4:	e03f8315 	stw	zero,-500(fp)
 18010a8:	00004806 	br	18011cc <main+0x3f8>
				for (j = 0; j < 4; j++)
 18010ac:	e03f8215 	stw	zero,-504(fp)
 18010b0:	00002006 	br	1801134 <main+0x360>
				{
					oldPosition = oldPosition3d[j];
 18010b4:	e0bf8217 	ldw	r2,-504(fp)
 18010b8:	1085883a 	add	r2,r2,r2
 18010bc:	1085883a 	add	r2,r2,r2
 18010c0:	e13f7e04 	addi	r4,fp,-520
 18010c4:	1105883a 	add	r2,r2,r4
 18010c8:	10807204 	addi	r2,r2,456
 18010cc:	10800017 	ldw	r2,0(r2)
 18010d0:	e0bf8115 	stw	r2,-508(fp)
					newPosition = newPosition3d[j];
 18010d4:	e0bf8217 	ldw	r2,-504(fp)
 18010d8:	1085883a 	add	r2,r2,r2
 18010dc:	1085883a 	add	r2,r2,r2
 18010e0:	e0ff7e04 	addi	r3,fp,-520
 18010e4:	10c5883a 	add	r2,r2,r3
 18010e8:	10807804 	addi	r2,r2,480
 18010ec:	10800017 	ldw	r2,0(r2)
 18010f0:	e0bf8015 	stw	r2,-512(fp)
					target[j] = smoothstep(oldPosition, newPosition, interpolations, i);
 18010f4:	e43f8217 	ldw	r16,-504(fp)
 18010f8:	e13f8117 	ldw	r4,-508(fp)
 18010fc:	e17f8017 	ldw	r5,-512(fp)
 1801100:	e1bf8517 	ldw	r6,-492(fp)
 1801104:	e1ff8317 	ldw	r7,-500(fp)
 1801108:	18016c40 	call	18016c4 <smoothstep>
 180110c:	1007883a 	mov	r3,r2
 1801110:	8405883a 	add	r2,r16,r16
 1801114:	1085883a 	add	r2,r2,r2
 1801118:	e13f7e04 	addi	r4,fp,-520
 180111c:	1105883a 	add	r2,r2,r4
 1801120:	10801004 	addi	r2,r2,64
 1801124:	10c00015 	stw	r3,0(r2)
				newPosition3d[i] = positions3d[move][i];
			}
			interpolations = positions3d[move][5];

			for (i = 0; i < interpolations; i++) {
				for (j = 0; j < 4; j++)
 1801128:	e0bf8217 	ldw	r2,-504(fp)
 180112c:	10800044 	addi	r2,r2,1
 1801130:	e0bf8215 	stw	r2,-504(fp)
 1801134:	e0bf8217 	ldw	r2,-504(fp)
 1801138:	10800110 	cmplti	r2,r2,4
 180113c:	103fdd1e 	bne	r2,zero,18010b4 <main+0x2e0>
					newPosition = newPosition3d[j];
					target[j] = smoothstep(oldPosition, newPosition, interpolations, i);
				}

				float buf[4];
				float *solution = IK(lengths,target[3],target,buf);
 1801140:	e0bf9117 	ldw	r2,-444(fp)
 1801144:	e13f8904 	addi	r4,fp,-476
 1801148:	e1bf8e04 	addi	r6,fp,-456
 180114c:	e1fffc04 	addi	r7,fp,-16
 1801150:	100b883a 	mov	r5,r2
 1801154:	18000480 	call	1800048 <IK>
 1801158:	e0bf7e15 	stw	r2,-520(fp)

				setServoPosition('B', solution[0]);
 180115c:	e0bf7e17 	ldw	r2,-520(fp)
 1801160:	10800017 	ldw	r2,0(r2)
 1801164:	01001084 	movi	r4,66
 1801168:	100b883a 	mov	r5,r2
 180116c:	18014d00 	call	18014d0 <setServoPosition>
				setServoPosition('S', solution[1]);
 1801170:	e0bf7e17 	ldw	r2,-520(fp)
 1801174:	10800104 	addi	r2,r2,4
 1801178:	10800017 	ldw	r2,0(r2)
 180117c:	010014c4 	movi	r4,83
 1801180:	100b883a 	mov	r5,r2
 1801184:	18014d00 	call	18014d0 <setServoPosition>
				setServoPosition('E', solution[2]);
 1801188:	e0bf7e17 	ldw	r2,-520(fp)
 180118c:	10800204 	addi	r2,r2,8
 1801190:	10800017 	ldw	r2,0(r2)
 1801194:	01001144 	movi	r4,69
 1801198:	100b883a 	mov	r5,r2
 180119c:	18014d00 	call	18014d0 <setServoPosition>
				setServoPosition('W', solution[3]);
 18011a0:	e0bf7e17 	ldw	r2,-520(fp)
 18011a4:	10800304 	addi	r2,r2,12
 18011a8:	10800017 	ldw	r2,0(r2)
 18011ac:	010015c4 	movi	r4,87
 18011b0:	100b883a 	mov	r5,r2
 18011b4:	18014d00 	call	18014d0 <setServoPosition>
				usleep(1);
 18011b8:	01000044 	movi	r4,1
 18011bc:	180f1840 	call	180f184 <usleep>
				oldPosition3d[i] = newPosition3d[i] ;
				newPosition3d[i] = positions3d[move][i];
			}
			interpolations = positions3d[move][5];

			for (i = 0; i < interpolations; i++) {
 18011c0:	e0bf8317 	ldw	r2,-500(fp)
 18011c4:	10800044 	addi	r2,r2,1
 18011c8:	e0bf8315 	stw	r2,-500(fp)
 18011cc:	e0ff8317 	ldw	r3,-500(fp)
 18011d0:	e0bf8517 	ldw	r2,-492(fp)
 18011d4:	18bfb516 	blt	r3,r2,18010ac <main+0x2d8>
				setServoPosition('S', solution[1]);
				setServoPosition('E', solution[2]);
				setServoPosition('W', solution[3]);
				usleep(1);
			}
			move=move+1;
 18011d8:	e0bf7f17 	ldw	r2,-516(fp)
 18011dc:	10800044 	addi	r2,r2,1
 18011e0:	e0bf7f15 	stw	r2,-516(fp)
			if(move>=noOfPositions){move=0;}
 18011e4:	e0ff7f17 	ldw	r3,-516(fp)
 18011e8:	e0bf8617 	ldw	r2,-488(fp)
 18011ec:	18800116 	blt	r3,r2,18011f4 <main+0x420>
 18011f0:	e03f7f15 	stw	zero,-516(fp)
			printf("here %d \n",move);
 18011f4:	01006074 	movhi	r4,385
 18011f8:	21158504 	addi	r4,r4,22036
 18011fc:	e17f7f17 	ldw	r5,-516(fp)
 1801200:	18069d80 	call	18069d8 <printf>
		}

	}
 1801204:	003f4206 	br	1800f10 <main+0x13c>

01801208 <initilisePwm>:
 *  Description : This module runs the start up sequence for whichever PWM module is specified
 *                by the input variable
 *
 **************************************************************************************************/
int initilisePwm(char moduleToInitilise)
{
 1801208:	defffb04 	addi	sp,sp,-20
 180120c:	df000415 	stw	fp,16(sp)
 1801210:	df000404 	addi	fp,sp,16
 1801214:	e13ffd05 	stb	r4,-12(fp)
    int address = 0;
 1801218:	e03ffc15 	stw	zero,-16(fp)
    switch (moduleToInitilise)
 180121c:	e0bffd07 	ldb	r2,-12(fp)
 1801220:	10bfef84 	addi	r2,r2,-66
 1801224:	e0bfff15 	stw	r2,-4(fp)
 1801228:	e0ffff17 	ldw	r3,-4(fp)
 180122c:	18800ca8 	cmpgeui	r2,r3,50
 1801230:	10004d1e 	bne	r2,zero,1801368 <initilisePwm+0x160>
 1801234:	e13fff17 	ldw	r4,-4(fp)
 1801238:	e13fff17 	ldw	r4,-4(fp)
 180123c:	2105883a 	add	r2,r4,r4
 1801240:	1087883a 	add	r3,r2,r2
 1801244:	00806034 	movhi	r2,384
 1801248:	10849604 	addi	r2,r2,4696
 180124c:	1885883a 	add	r2,r3,r2
 1801250:	10800017 	ldw	r2,0(r2)
 1801254:	1000683a 	jmp	r2
 1801258:	01801320 	cmpeqi	r6,zero,76
 180125c:	01801368 	cmpgeui	r6,zero,77
 1801260:	01801368 	cmpgeui	r6,zero,77
 1801264:	01801344 	movi	r6,77
 1801268:	01801368 	cmpgeui	r6,zero,77
 180126c:	0180135c 	xori	r6,zero,77
 1801270:	01801368 	cmpgeui	r6,zero,77
 1801274:	01801368 	cmpgeui	r6,zero,77
 1801278:	01801368 	cmpgeui	r6,zero,77
 180127c:	01801368 	cmpgeui	r6,zero,77
 1801280:	01801368 	cmpgeui	r6,zero,77
 1801284:	01801368 	cmpgeui	r6,zero,77
 1801288:	01801368 	cmpgeui	r6,zero,77
 180128c:	01801368 	cmpgeui	r6,zero,77
 1801290:	01801368 	cmpgeui	r6,zero,77
 1801294:	01801368 	cmpgeui	r6,zero,77
 1801298:	01801368 	cmpgeui	r6,zero,77
 180129c:	0180132c 	andhi	r6,zero,76
 18012a0:	01801368 	cmpgeui	r6,zero,77
 18012a4:	01801368 	cmpgeui	r6,zero,77
 18012a8:	01801368 	cmpgeui	r6,zero,77
 18012ac:	01801350 	cmplti	r6,zero,77
 18012b0:	01801368 	cmpgeui	r6,zero,77
 18012b4:	01801368 	cmpgeui	r6,zero,77
 18012b8:	01801368 	cmpgeui	r6,zero,77
 18012bc:	01801368 	cmpgeui	r6,zero,77
 18012c0:	01801368 	cmpgeui	r6,zero,77
 18012c4:	01801368 	cmpgeui	r6,zero,77
 18012c8:	01801368 	cmpgeui	r6,zero,77
 18012cc:	01801368 	cmpgeui	r6,zero,77
 18012d0:	01801368 	cmpgeui	r6,zero,77
 18012d4:	01801368 	cmpgeui	r6,zero,77
 18012d8:	01801368 	cmpgeui	r6,zero,77
 18012dc:	01801368 	cmpgeui	r6,zero,77
 18012e0:	01801368 	cmpgeui	r6,zero,77
 18012e4:	01801368 	cmpgeui	r6,zero,77
 18012e8:	01801368 	cmpgeui	r6,zero,77
 18012ec:	01801368 	cmpgeui	r6,zero,77
 18012f0:	01801368 	cmpgeui	r6,zero,77
 18012f4:	01801368 	cmpgeui	r6,zero,77
 18012f8:	01801368 	cmpgeui	r6,zero,77
 18012fc:	01801368 	cmpgeui	r6,zero,77
 1801300:	01801368 	cmpgeui	r6,zero,77
 1801304:	01801368 	cmpgeui	r6,zero,77
 1801308:	01801368 	cmpgeui	r6,zero,77
 180130c:	01801368 	cmpgeui	r6,zero,77
 1801310:	01801368 	cmpgeui	r6,zero,77
 1801314:	01801368 	cmpgeui	r6,zero,77
 1801318:	01801368 	cmpgeui	r6,zero,77
 180131c:	01801338 	rdprs	r6,zero,76
    {
        case 'B' :
        	address = MY_PWM_5_BASE;
 1801320:	00807804 	movi	r2,480
 1801324:	e0bffc15 	stw	r2,-16(fp)
            break;
 1801328:	00001106 	br	1801370 <initilisePwm+0x168>
        case 'S' :
        	address = MY_PWM_3_BASE;
 180132c:	00807004 	movi	r2,448
 1801330:	e0bffc15 	stw	r2,-16(fp)
            break;
 1801334:	00000e06 	br	1801370 <initilisePwm+0x168>
        case 's' :
        	address = MY_PWM_4_BASE;
 1801338:	00807404 	movi	r2,464
 180133c:	e0bffc15 	stw	r2,-16(fp)
            break;
 1801340:	00000b06 	br	1801370 <initilisePwm+0x168>
        case 'E' :
        	address = MY_PWM_2_BASE;
 1801344:	00806c04 	movi	r2,432
 1801348:	e0bffc15 	stw	r2,-16(fp)
            break;
 180134c:	00000806 	br	1801370 <initilisePwm+0x168>
        case 'W' :
        	address = MY_PWM_1_BASE;
 1801350:	00806804 	movi	r2,416
 1801354:	e0bffc15 	stw	r2,-16(fp)
            break;
 1801358:	00000506 	br	1801370 <initilisePwm+0x168>
        case 'G' :
        	address = MY_PWM_0_BASE;
 180135c:	00806404 	movi	r2,400
 1801360:	e0bffc15 	stw	r2,-16(fp)
            break;
 1801364:	00000206 	br	1801370 <initilisePwm+0x168>
        default :
        	return 0;
 1801368:	e03ffe15 	stw	zero,-8(fp)
 180136c:	00001506 	br	18013c4 <initilisePwm+0x1bc>
        	break;
    }
		IOWR_ALTERA_AVALON_PWM_CLK_DIV(address,5);//100
 1801370:	e0bffc17 	ldw	r2,-16(fp)
 1801374:	10800104 	addi	r2,r2,4
 1801378:	1007883a 	mov	r3,r2
 180137c:	00800144 	movi	r2,5
 1801380:	18800035 	stwio	r2,0(r3)
		IOWR_ALTERA_AVALON_PWM_DUTY(address, 1500);
 1801384:	e0bffc17 	ldw	r2,-16(fp)
 1801388:	1007883a 	mov	r3,r2
 180138c:	00817704 	movi	r2,1500
 1801390:	18800035 	stwio	r2,0(r3)
		IOWR_ALTERA_AVALON_PWM_PERIOD(address, 20000);//1000
 1801394:	e0bffc17 	ldw	r2,-16(fp)
 1801398:	10800204 	addi	r2,r2,8
 180139c:	1007883a 	mov	r3,r2
 18013a0:	00938804 	movi	r2,20000
 18013a4:	18800035 	stwio	r2,0(r3)
		IOWR_ALTERA_AVALON_PWM_CONTROL(address, 1);
 18013a8:	e0bffc17 	ldw	r2,-16(fp)
 18013ac:	10800304 	addi	r2,r2,12
 18013b0:	1007883a 	mov	r3,r2
 18013b4:	00800044 	movi	r2,1
 18013b8:	18800035 	stwio	r2,0(r3)

    return 1;
 18013bc:	00800044 	movi	r2,1
 18013c0:	e0bffe15 	stw	r2,-8(fp)
 18013c4:	e0bffe17 	ldw	r2,-8(fp)
}
 18013c8:	e037883a 	mov	sp,fp
 18013cc:	df000017 	ldw	fp,0(sp)
 18013d0:	dec00104 	addi	sp,sp,4
 18013d4:	f800283a 	ret

018013d8 <setPwmDutyCycle>:
 *
 *  Description : This module updates the duty cycle for the selected PWM module
 *
 **************************************************************************************************/
int setPwmDutyCycle ( int channel, int dutyCycle)
{
 18013d8:	defffb04 	addi	sp,sp,-20
 18013dc:	df000415 	stw	fp,16(sp)
 18013e0:	df000404 	addi	fp,sp,16
 18013e4:	e13ffd15 	stw	r4,-12(fp)
 18013e8:	e17ffe15 	stw	r5,-8(fp)
    //get address of PWM Channel

    int address = 0;
 18013ec:	e03ffc15 	stw	zero,-16(fp)

    switch (channel)
 18013f0:	e0bffd17 	ldw	r2,-12(fp)
 18013f4:	108001e8 	cmpgeui	r2,r2,7
 18013f8:	1000211e 	bne	r2,zero,1801480 <setPwmDutyCycle+0xa8>
 18013fc:	e0bffd17 	ldw	r2,-12(fp)
 1801400:	1085883a 	add	r2,r2,r2
 1801404:	1087883a 	add	r3,r2,r2
 1801408:	00806034 	movhi	r2,384
 180140c:	10850704 	addi	r2,r2,5148
 1801410:	1885883a 	add	r2,r3,r2
 1801414:	10800017 	ldw	r2,0(r2)
 1801418:	1000683a 	jmp	r2
 180141c:	01801480 	call	180148 <_start-0x167feb8>
 1801420:	01801438 	rdprs	r6,zero,80
 1801424:	01801444 	movi	r6,81
 1801428:	01801450 	cmplti	r6,zero,81
 180142c:	0180145c 	xori	r6,zero,81
 1801430:	01801468 	cmpgeui	r6,zero,81
 1801434:	01801474 	movhi	r6,81
    {
        case 1 :
            address = MY_PWM_0_BASE;
 1801438:	00806404 	movi	r2,400
 180143c:	e0bffc15 	stw	r2,-16(fp)
            break;
 1801440:	00001106 	br	1801488 <setPwmDutyCycle+0xb0>
        case 2 :
            address = MY_PWM_1_BASE;
 1801444:	00806804 	movi	r2,416
 1801448:	e0bffc15 	stw	r2,-16(fp)
            break;
 180144c:	00000e06 	br	1801488 <setPwmDutyCycle+0xb0>
        case 3 :
            address = MY_PWM_2_BASE;
 1801450:	00806c04 	movi	r2,432
 1801454:	e0bffc15 	stw	r2,-16(fp)
            break;
 1801458:	00000b06 	br	1801488 <setPwmDutyCycle+0xb0>
        case 4 :
            address = MY_PWM_3_BASE;
 180145c:	00807004 	movi	r2,448
 1801460:	e0bffc15 	stw	r2,-16(fp)
            break;
 1801464:	00000806 	br	1801488 <setPwmDutyCycle+0xb0>
        case 5 :
            address = MY_PWM_4_BASE;
 1801468:	00807404 	movi	r2,464
 180146c:	e0bffc15 	stw	r2,-16(fp)
            break;
 1801470:	00000506 	br	1801488 <setPwmDutyCycle+0xb0>
        case 6 :
            address = MY_PWM_5_BASE;
 1801474:	00807804 	movi	r2,480
 1801478:	e0bffc15 	stw	r2,-16(fp)
            break;
 180147c:	00000206 	br	1801488 <setPwmDutyCycle+0xb0>
        default :
            //unrecognised channal selected
            return 0;
 1801480:	e03fff15 	stw	zero,-4(fp)
 1801484:	00000d06 	br	18014bc <setPwmDutyCycle+0xe4>

    }

    //check the desired PWM module is active
    if(IORD_ALTERA_AVALON_PWM_CONTROL(address) == 0)
 1801488:	e0bffc17 	ldw	r2,-16(fp)
 180148c:	10800304 	addi	r2,r2,12
 1801490:	10800037 	ldwio	r2,0(r2)
 1801494:	1004c03a 	cmpne	r2,r2,zero
 1801498:	1000021e 	bne	r2,zero,18014a4 <setPwmDutyCycle+0xcc>
    {
        return 0;
 180149c:	e03fff15 	stw	zero,-4(fp)
 18014a0:	00000606 	br	18014bc <setPwmDutyCycle+0xe4>

    //check duty cycle is within bounds (0-100)
    //if(Duty_Cycle > 125) Duty_Cycle = 125;
    //if(Duty_Cycle < 25) Duty_Cycle = 0;
    //set the channel to the desired Duty Cycle
    IOWR_ALTERA_AVALON_PWM_DUTY(address, dutyCycle);
 18014a4:	e0bffc17 	ldw	r2,-16(fp)
 18014a8:	1007883a 	mov	r3,r2
 18014ac:	e0bffe17 	ldw	r2,-8(fp)
 18014b0:	18800035 	stwio	r2,0(r3)

    return 1;
 18014b4:	00800044 	movi	r2,1
 18014b8:	e0bfff15 	stw	r2,-4(fp)
 18014bc:	e0bfff17 	ldw	r2,-4(fp)
}
 18014c0:	e037883a 	mov	sp,fp
 18014c4:	df000017 	ldw	fp,0(sp)
 18014c8:	dec00104 	addi	sp,sp,4
 18014cc:	f800283a 	ret

018014d0 <setServoPosition>:
 *  Description : This module converts an input angle to a pulse width and passes it
 *  			  to the corresponding PWM module
 *
 **************************************************************************************************/
int setServoPosition (char servo, float position)
{
 18014d0:	defff804 	addi	sp,sp,-32
 18014d4:	dfc00715 	stw	ra,28(sp)
 18014d8:	df000615 	stw	fp,24(sp)
 18014dc:	df000604 	addi	fp,sp,24
 18014e0:	e17ffd15 	stw	r5,-12(fp)
 18014e4:	e13ffc05 	stb	r4,-16(fp)
	int pulseWidth = round(map(position,-90,90,400,2100));//50 to 250
 18014e8:	009140f4 	movhi	r2,17667
 18014ec:	10900004 	addi	r2,r2,16384
 18014f0:	d8800015 	stw	r2,0(sp)
 18014f4:	e13ffd17 	ldw	r4,-12(fp)
 18014f8:	0170ad34 	movhi	r5,49844
 18014fc:	0190ad34 	movhi	r6,17076
 1801500:	01d0f234 	movhi	r7,17352
 1801504:	18016540 	call	1801654 <map>
 1801508:	1009883a 	mov	r4,r2
 180150c:	1804f4c0 	call	1804f4c <__extendsfdf2>
 1801510:	100b883a 	mov	r5,r2
 1801514:	180d883a 	mov	r6,r3
 1801518:	2809883a 	mov	r4,r5
 180151c:	300b883a 	mov	r5,r6
 1801520:	18018f00 	call	18018f0 <round>
 1801524:	100b883a 	mov	r5,r2
 1801528:	180d883a 	mov	r6,r3
 180152c:	2809883a 	mov	r4,r5
 1801530:	300b883a 	mov	r5,r6
 1801534:	1805dd80 	call	1805dd8 <__fixdfsi>
 1801538:	e0bffb15 	stw	r2,-20(fp)
    switch (servo)
 180153c:	e0bffc07 	ldb	r2,-16(fp)
 1801540:	10bfef84 	addi	r2,r2,-66
 1801544:	e0bfff15 	stw	r2,-4(fp)
 1801548:	e0ffff17 	ldw	r3,-4(fp)
 180154c:	188005a8 	cmpgeui	r2,r3,22
 1801550:	1000361e 	bne	r2,zero,180162c <setServoPosition+0x15c>
 1801554:	e13fff17 	ldw	r4,-4(fp)
 1801558:	e13fff17 	ldw	r4,-4(fp)
 180155c:	2105883a 	add	r2,r4,r4
 1801560:	1087883a 	add	r3,r2,r2
 1801564:	00806034 	movhi	r2,384
 1801568:	10855e04 	addi	r2,r2,5496
 180156c:	1885883a 	add	r2,r3,r2
 1801570:	10800017 	ldw	r2,0(r2)
 1801574:	1000683a 	jmp	r2
 1801578:	0180161c 	xori	r6,zero,88
 180157c:	0180162c 	andhi	r6,zero,88
 1801580:	0180162c 	andhi	r6,zero,88
 1801584:	018015f0 	cmpltui	r6,zero,87
 1801588:	0180162c 	andhi	r6,zero,88
 180158c:	018015d0 	cmplti	r6,zero,87
 1801590:	0180162c 	andhi	r6,zero,88
 1801594:	0180162c 	andhi	r6,zero,88
 1801598:	0180162c 	andhi	r6,zero,88
 180159c:	0180162c 	andhi	r6,zero,88
 18015a0:	0180162c 	andhi	r6,zero,88
 18015a4:	0180162c 	andhi	r6,zero,88
 18015a8:	0180162c 	andhi	r6,zero,88
 18015ac:	0180162c 	andhi	r6,zero,88
 18015b0:	0180162c 	andhi	r6,zero,88
 18015b4:	0180162c 	andhi	r6,zero,88
 18015b8:	0180162c 	andhi	r6,zero,88
 18015bc:	01801600 	call	180160 <_start-0x167fea0>
 18015c0:	0180162c 	andhi	r6,zero,88
 18015c4:	0180162c 	andhi	r6,zero,88
 18015c8:	0180162c 	andhi	r6,zero,88
 18015cc:	018015e0 	cmpeqi	r6,zero,87
    {
        case 'G' :
        	setPwmDutyCycle(1, pulseWidth);
 18015d0:	01000044 	movi	r4,1
 18015d4:	e17ffb17 	ldw	r5,-20(fp)
 18015d8:	18013d80 	call	18013d8 <setPwmDutyCycle>
            break;
 18015dc:	00001506 	br	1801634 <setServoPosition+0x164>
        case 'W' :
        	setPwmDutyCycle(2, pulseWidth);
 18015e0:	01000084 	movi	r4,2
 18015e4:	e17ffb17 	ldw	r5,-20(fp)
 18015e8:	18013d80 	call	18013d8 <setPwmDutyCycle>
            break;
 18015ec:	00001106 	br	1801634 <setServoPosition+0x164>
        case 'E' :
        	setPwmDutyCycle(3, pulseWidth);
 18015f0:	010000c4 	movi	r4,3
 18015f4:	e17ffb17 	ldw	r5,-20(fp)
 18015f8:	18013d80 	call	18013d8 <setPwmDutyCycle>
            break;
 18015fc:	00000d06 	br	1801634 <setServoPosition+0x164>
        case 'S' :
        	setPwmDutyCycle(4, pulseWidth);
 1801600:	01000104 	movi	r4,4
 1801604:	e17ffb17 	ldw	r5,-20(fp)
 1801608:	18013d80 	call	18013d8 <setPwmDutyCycle>
        	setPwmDutyCycle(5, pulseWidth);
 180160c:	01000144 	movi	r4,5
 1801610:	e17ffb17 	ldw	r5,-20(fp)
 1801614:	18013d80 	call	18013d8 <setPwmDutyCycle>
            break;
 1801618:	00000606 	br	1801634 <setServoPosition+0x164>
        case 'B' :
        	setPwmDutyCycle(6, pulseWidth);
 180161c:	01000184 	movi	r4,6
 1801620:	e17ffb17 	ldw	r5,-20(fp)
 1801624:	18013d80 	call	18013d8 <setPwmDutyCycle>
            break;
 1801628:	00000206 	br	1801634 <setServoPosition+0x164>
        default :
            //unrecognised channal selected
            return 0;
 180162c:	e03ffe15 	stw	zero,-8(fp)
 1801630:	00000206 	br	180163c <setServoPosition+0x16c>
    }
    return pulseWidth;
 1801634:	e0bffb17 	ldw	r2,-20(fp)
 1801638:	e0bffe15 	stw	r2,-8(fp)
 180163c:	e0bffe17 	ldw	r2,-8(fp)
}
 1801640:	e037883a 	mov	sp,fp
 1801644:	dfc00117 	ldw	ra,4(sp)
 1801648:	df000017 	ldw	fp,0(sp)
 180164c:	dec00204 	addi	sp,sp,8
 1801650:	f800283a 	ret

01801654 <map>:
 *  Description : This module allows a value between 2 bounds to be linearly mapped
 *  			  from one range to another.
 **************************************************************************************************/

float map(float x, float inMin, float inMax, float outMin, float outMax)
{
 1801654:	defffa04 	addi	sp,sp,-24
 1801658:	dfc00515 	stw	ra,20(sp)
 180165c:	df000415 	stw	fp,16(sp)
 1801660:	df000404 	addi	fp,sp,16
 1801664:	e13ffc15 	stw	r4,-16(fp)
 1801668:	e17ffd15 	stw	r5,-12(fp)
 180166c:	e1bffe15 	stw	r6,-8(fp)
 1801670:	e1ffff15 	stw	r7,-4(fp)
  return (float)(x - inMin) * (outMax - outMin) / (inMax - inMin) + outMin;
 1801674:	e0fffc17 	ldw	r3,-16(fp)
 1801678:	e0bffd17 	ldw	r2,-12(fp)
 180167c:	1889ffb2 	custom	254,r4,r3,r2
 1801680:	e0c00217 	ldw	r3,8(fp)
 1801684:	e0bfff17 	ldw	r2,-4(fp)
 1801688:	1885ffb2 	custom	254,r2,r3,r2
 180168c:	2089ff32 	custom	252,r4,r4,r2
 1801690:	e0fffe17 	ldw	r3,-8(fp)
 1801694:	e0bffd17 	ldw	r2,-12(fp)
 1801698:	1885ffb2 	custom	254,r2,r3,r2
 180169c:	100b883a 	mov	r5,r2
 18016a0:	1804cac0 	call	1804cac <__divsf3>
 18016a4:	1007883a 	mov	r3,r2
 18016a8:	e0bfff17 	ldw	r2,-4(fp)
 18016ac:	1885ff72 	custom	253,r2,r3,r2
}
 18016b0:	e037883a 	mov	sp,fp
 18016b4:	dfc00117 	ldw	ra,4(sp)
 18016b8:	df000017 	ldw	fp,0(sp)
 18016bc:	dec00204 	addi	sp,sp,8
 18016c0:	f800283a 	ret

018016c4 <smoothstep>:
 *				  expensive interpolation technique
 *
 **************************************************************************************************/

float smoothstep(int startVal, int endVal, int totalItterations, int currentItteration)
{
 18016c4:	defff704 	addi	sp,sp,-36
 18016c8:	dfc00815 	stw	ra,32(sp)
 18016cc:	df000715 	stw	fp,28(sp)
 18016d0:	dc000615 	stw	r16,24(sp)
 18016d4:	df000604 	addi	fp,sp,24
 18016d8:	e13ffc15 	stw	r4,-16(fp)
 18016dc:	e17ffd15 	stw	r5,-12(fp)
 18016e0:	e1bffe15 	stw	r6,-8(fp)
 18016e4:	e1ffff15 	stw	r7,-4(fp)
	float v; //temp value for progras through move between 0 and 1
	float v2;
	v = (float)currentItteration / totalItterations;
 18016e8:	e13fff17 	ldw	r4,-4(fp)
 18016ec:	1804e200 	call	1804e20 <__floatsisf>
 18016f0:	1021883a 	mov	r16,r2
 18016f4:	e13ffe17 	ldw	r4,-8(fp)
 18016f8:	1804e200 	call	1804e20 <__floatsisf>
 18016fc:	8009883a 	mov	r4,r16
 1801700:	100b883a 	mov	r5,r2
 1801704:	1804cac0 	call	1804cac <__divsf3>
 1801708:	e0bffb15 	stw	r2,-20(fp)
	v = ((v) * (v) * (3 - 2 * (v)));
 180170c:	e0fffb17 	ldw	r3,-20(fp)
 1801710:	e0bffb17 	ldw	r2,-20(fp)
 1801714:	1889ff32 	custom	252,r4,r3,r2
 1801718:	e0fffb17 	ldw	r3,-20(fp)
 180171c:	00b00034 	movhi	r2,49152
 1801720:	1887ff32 	custom	252,r3,r3,r2
 1801724:	00901034 	movhi	r2,16448
 1801728:	1885ff72 	custom	253,r2,r3,r2
 180172c:	2085ff32 	custom	252,r2,r4,r2
 1801730:	e0bffb15 	stw	r2,-20(fp)
	v2 = (endVal * v) + (startVal * (1 - v));
 1801734:	e13ffd17 	ldw	r4,-12(fp)
 1801738:	1804e200 	call	1804e20 <__floatsisf>
 180173c:	1007883a 	mov	r3,r2
 1801740:	e0bffb17 	ldw	r2,-20(fp)
 1801744:	18a1ff32 	custom	252,r16,r3,r2
 1801748:	e13ffc17 	ldw	r4,-16(fp)
 180174c:	1804e200 	call	1804e20 <__floatsisf>
 1801750:	1009883a 	mov	r4,r2
 1801754:	00cfe034 	movhi	r3,16256
 1801758:	e0bffb17 	ldw	r2,-20(fp)
 180175c:	1885ffb2 	custom	254,r2,r3,r2
 1801760:	2085ff32 	custom	252,r2,r4,r2
 1801764:	8085ff72 	custom	253,r2,r16,r2
 1801768:	e0bffa15 	stw	r2,-24(fp)
	return  v2;
 180176c:	e0bffa17 	ldw	r2,-24(fp)
}
 1801770:	e037883a 	mov	sp,fp
 1801774:	dfc00217 	ldw	ra,8(sp)
 1801778:	df000117 	ldw	fp,4(sp)
 180177c:	dc000017 	ldw	r16,0(sp)
 1801780:	dec00304 	addi	sp,sp,12
 1801784:	f800283a 	ret

01801788 <cos>:
 1801788:	00a00034 	movhi	r2,32768
 180178c:	10bfffc4 	addi	r2,r2,-1
 1801790:	defffa04 	addi	sp,sp,-24
 1801794:	114c703a 	and	r6,r2,r5
 1801798:	008ffa74 	movhi	r2,16361
 180179c:	10887ec4 	addi	r2,r2,8699
 18017a0:	dfc00515 	stw	ra,20(sp)
 18017a4:	2011883a 	mov	r8,r4
 18017a8:	1180210e 	bge	r2,r6,1801830 <cos+0xa8>
 18017ac:	009ffc34 	movhi	r2,32752
 18017b0:	10bfffc4 	addi	r2,r2,-1
 18017b4:	11800a0e 	bge	r2,r6,18017e0 <cos+0x58>
 18017b8:	280f883a 	mov	r7,r5
 18017bc:	400d883a 	mov	r6,r8
 18017c0:	18053b00 	call	18053b0 <__subdf3>
 18017c4:	100d883a 	mov	r6,r2
 18017c8:	180f883a 	mov	r7,r3
 18017cc:	3005883a 	mov	r2,r6
 18017d0:	3807883a 	mov	r3,r7
 18017d4:	dfc00517 	ldw	ra,20(sp)
 18017d8:	dec00604 	addi	sp,sp,24
 18017dc:	f800283a 	ret
 18017e0:	d9800104 	addi	r6,sp,4
 18017e4:	1801fec0 	call	1801fec <__ieee754_rem_pio2>
 18017e8:	10c000cc 	andi	r3,r2,3
 18017ec:	01000044 	movi	r4,1
 18017f0:	19001926 	beq	r3,r4,1801858 <cos+0xd0>
 18017f4:	00800084 	movi	r2,2
 18017f8:	18803126 	beq	r3,r2,18018c0 <cos+0x138>
 18017fc:	1800231e 	bne	r3,zero,180188c <cos+0x104>
 1801800:	d8800117 	ldw	r2,4(sp)
 1801804:	da000317 	ldw	r8,12(sp)
 1801808:	d8c00217 	ldw	r3,8(sp)
 180180c:	da400417 	ldw	r9,16(sp)
 1801810:	400d883a 	mov	r6,r8
 1801814:	180b883a 	mov	r5,r3
 1801818:	480f883a 	mov	r7,r9
 180181c:	1009883a 	mov	r4,r2
 1801820:	1802adc0 	call	1802adc <__kernel_cos>
 1801824:	100d883a 	mov	r6,r2
 1801828:	180f883a 	mov	r7,r3
 180182c:	003fe706 	br	18017cc <cos+0x44>
 1801830:	000d883a 	mov	r6,zero
 1801834:	000f883a 	mov	r7,zero
 1801838:	1802adc0 	call	1802adc <__kernel_cos>
 180183c:	100d883a 	mov	r6,r2
 1801840:	180f883a 	mov	r7,r3
 1801844:	3005883a 	mov	r2,r6
 1801848:	3807883a 	mov	r3,r7
 180184c:	dfc00517 	ldw	ra,20(sp)
 1801850:	dec00604 	addi	sp,sp,24
 1801854:	f800283a 	ret
 1801858:	d8800117 	ldw	r2,4(sp)
 180185c:	da000317 	ldw	r8,12(sp)
 1801860:	d8c00217 	ldw	r3,8(sp)
 1801864:	da400417 	ldw	r9,16(sp)
 1801868:	d9000015 	stw	r4,0(sp)
 180186c:	400d883a 	mov	r6,r8
 1801870:	480f883a 	mov	r7,r9
 1801874:	180b883a 	mov	r5,r3
 1801878:	1009883a 	mov	r4,r2
 180187c:	1803e840 	call	1803e84 <__kernel_sin>
 1801880:	100d883a 	mov	r6,r2
 1801884:	19e0003c 	xorhi	r7,r3,32768
 1801888:	003fd006 	br	18017cc <cos+0x44>
 180188c:	d8800117 	ldw	r2,4(sp)
 1801890:	da000317 	ldw	r8,12(sp)
 1801894:	d8c00217 	ldw	r3,8(sp)
 1801898:	da400417 	ldw	r9,16(sp)
 180189c:	d9000015 	stw	r4,0(sp)
 18018a0:	400d883a 	mov	r6,r8
 18018a4:	480f883a 	mov	r7,r9
 18018a8:	180b883a 	mov	r5,r3
 18018ac:	1009883a 	mov	r4,r2
 18018b0:	1803e840 	call	1803e84 <__kernel_sin>
 18018b4:	100d883a 	mov	r6,r2
 18018b8:	180f883a 	mov	r7,r3
 18018bc:	003fc306 	br	18017cc <cos+0x44>
 18018c0:	d8800117 	ldw	r2,4(sp)
 18018c4:	da000317 	ldw	r8,12(sp)
 18018c8:	d8c00217 	ldw	r3,8(sp)
 18018cc:	da400417 	ldw	r9,16(sp)
 18018d0:	400d883a 	mov	r6,r8
 18018d4:	180b883a 	mov	r5,r3
 18018d8:	480f883a 	mov	r7,r9
 18018dc:	1009883a 	mov	r4,r2
 18018e0:	1802adc0 	call	1802adc <__kernel_cos>
 18018e4:	100d883a 	mov	r6,r2
 18018e8:	19e0003c 	xorhi	r7,r3,32768
 18018ec:	003fb706 	br	18017cc <cos+0x44>

018018f0 <round>:
 18018f0:	289ffc2c 	andhi	r2,r5,32752
 18018f4:	101bd53a 	srai	r13,r2,20
 18018f8:	deffff04 	addi	sp,sp,-4
 18018fc:	008004c4 	movi	r2,19
 1801900:	6abf0044 	addi	r10,r13,-1023
 1801904:	dfc00015 	stw	ra,0(sp)
 1801908:	2011883a 	mov	r8,r4
 180190c:	2813883a 	mov	r9,r5
 1801910:	2817883a 	mov	r11,r5
 1801914:	12801316 	blt	r2,r10,1801964 <round+0x74>
 1801918:	50003016 	blt	r10,zero,18019dc <round+0xec>
 180191c:	00800434 	movhi	r2,16
 1801920:	10bfffc4 	addi	r2,r2,-1
 1801924:	1289d83a 	sra	r4,r2,r10
 1801928:	2146703a 	and	r3,r4,r5
 180192c:	18002926 	beq	r3,zero,18019d4 <round+0xe4>
 1801930:	00800234 	movhi	r2,8
 1801934:	1285d83a 	sra	r2,r2,r10
 1801938:	0106303a 	nor	r3,zero,r4
 180193c:	0009883a 	mov	r4,zero
 1801940:	5885883a 	add	r2,r11,r2
 1801944:	1896703a 	and	r11,r3,r2
 1801948:	2011883a 	mov	r8,r4
 180194c:	5813883a 	mov	r9,r11
 1801950:	4005883a 	mov	r2,r8
 1801954:	4807883a 	mov	r3,r9
 1801958:	dfc00017 	ldw	ra,0(sp)
 180195c:	dec00104 	addi	sp,sp,4
 1801960:	f800283a 	ret
 1801964:	03800cc4 	movi	r14,51
 1801968:	72800e16 	blt	r14,r10,18019a4 <round+0xb4>
 180196c:	68befb44 	addi	r2,r13,-1043
 1801970:	00ffffc4 	movi	r3,-1
 1801974:	188ad83a 	srl	r5,r3,r2
 1801978:	2148703a 	and	r4,r4,r5
 180197c:	203ff426 	beq	r4,zero,1801950 <round+0x60>
 1801980:	7287c83a 	sub	r3,r14,r10
 1801984:	00800044 	movi	r2,1
 1801988:	10c4983a 	sll	r2,r2,r3
 180198c:	4087883a 	add	r3,r8,r2
 1801990:	1a00012e 	bgeu	r3,r8,1801998 <round+0xa8>
 1801994:	4ac00044 	addi	r11,r9,1
 1801998:	0144303a 	nor	r2,zero,r5
 180199c:	1888703a 	and	r4,r3,r2
 18019a0:	003fe906 	br	1801948 <round+0x58>
 18019a4:	00810004 	movi	r2,1024
 18019a8:	50bfe91e 	bne	r10,r2,1801950 <round+0x60>
 18019ac:	400d883a 	mov	r6,r8
 18019b0:	280f883a 	mov	r7,r5
 18019b4:	18054300 	call	1805430 <__adddf3>
 18019b8:	1011883a 	mov	r8,r2
 18019bc:	1813883a 	mov	r9,r3
 18019c0:	4005883a 	mov	r2,r8
 18019c4:	4807883a 	mov	r3,r9
 18019c8:	dfc00017 	ldw	ra,0(sp)
 18019cc:	dec00104 	addi	sp,sp,4
 18019d0:	f800283a 	ret
 18019d4:	403fd61e 	bne	r8,zero,1801930 <round+0x40>
 18019d8:	003fdd06 	br	1801950 <round+0x60>
 18019dc:	00bfffc4 	movi	r2,-1
 18019e0:	2ae0002c 	andhi	r11,r5,32768
 18019e4:	50800226 	beq	r10,r2,18019f0 <round+0x100>
 18019e8:	0009883a 	mov	r4,zero
 18019ec:	003fd606 	br	1801948 <round+0x58>
 18019f0:	5acffc34 	orhi	r11,r11,16368
 18019f4:	0009883a 	mov	r4,zero
 18019f8:	003fd306 	br	1801948 <round+0x58>

018019fc <sin>:
 18019fc:	00a00034 	movhi	r2,32768
 1801a00:	10bfffc4 	addi	r2,r2,-1
 1801a04:	defffa04 	addi	sp,sp,-24
 1801a08:	114c703a 	and	r6,r2,r5
 1801a0c:	008ffa74 	movhi	r2,16361
 1801a10:	10887ec4 	addi	r2,r2,8699
 1801a14:	dfc00515 	stw	ra,20(sp)
 1801a18:	2011883a 	mov	r8,r4
 1801a1c:	1180220e 	bge	r2,r6,1801aa8 <sin+0xac>
 1801a20:	009ffc34 	movhi	r2,32752
 1801a24:	10bfffc4 	addi	r2,r2,-1
 1801a28:	11800a0e 	bge	r2,r6,1801a54 <sin+0x58>
 1801a2c:	280f883a 	mov	r7,r5
 1801a30:	400d883a 	mov	r6,r8
 1801a34:	18053b00 	call	18053b0 <__subdf3>
 1801a38:	100d883a 	mov	r6,r2
 1801a3c:	180f883a 	mov	r7,r3
 1801a40:	3005883a 	mov	r2,r6
 1801a44:	3807883a 	mov	r3,r7
 1801a48:	dfc00517 	ldw	ra,20(sp)
 1801a4c:	dec00604 	addi	sp,sp,24
 1801a50:	f800283a 	ret
 1801a54:	d9800104 	addi	r6,sp,4
 1801a58:	1801fec0 	call	1801fec <__ieee754_rem_pio2>
 1801a5c:	10c000cc 	andi	r3,r2,3
 1801a60:	01000044 	movi	r4,1
 1801a64:	19001b26 	beq	r3,r4,1801ad4 <sin+0xd8>
 1801a68:	00800084 	movi	r2,2
 1801a6c:	18803126 	beq	r3,r2,1801b34 <sin+0x138>
 1801a70:	1800241e 	bne	r3,zero,1801b04 <sin+0x108>
 1801a74:	d8800117 	ldw	r2,4(sp)
 1801a78:	da000317 	ldw	r8,12(sp)
 1801a7c:	d8c00217 	ldw	r3,8(sp)
 1801a80:	da400417 	ldw	r9,16(sp)
 1801a84:	d9000015 	stw	r4,0(sp)
 1801a88:	400d883a 	mov	r6,r8
 1801a8c:	480f883a 	mov	r7,r9
 1801a90:	180b883a 	mov	r5,r3
 1801a94:	1009883a 	mov	r4,r2
 1801a98:	1803e840 	call	1803e84 <__kernel_sin>
 1801a9c:	100d883a 	mov	r6,r2
 1801aa0:	180f883a 	mov	r7,r3
 1801aa4:	003fe606 	br	1801a40 <sin+0x44>
 1801aa8:	000d883a 	mov	r6,zero
 1801aac:	000f883a 	mov	r7,zero
 1801ab0:	d8000015 	stw	zero,0(sp)
 1801ab4:	1803e840 	call	1803e84 <__kernel_sin>
 1801ab8:	100d883a 	mov	r6,r2
 1801abc:	180f883a 	mov	r7,r3
 1801ac0:	3005883a 	mov	r2,r6
 1801ac4:	3807883a 	mov	r3,r7
 1801ac8:	dfc00517 	ldw	ra,20(sp)
 1801acc:	dec00604 	addi	sp,sp,24
 1801ad0:	f800283a 	ret
 1801ad4:	d8800117 	ldw	r2,4(sp)
 1801ad8:	da000317 	ldw	r8,12(sp)
 1801adc:	d8c00217 	ldw	r3,8(sp)
 1801ae0:	da400417 	ldw	r9,16(sp)
 1801ae4:	400d883a 	mov	r6,r8
 1801ae8:	180b883a 	mov	r5,r3
 1801aec:	480f883a 	mov	r7,r9
 1801af0:	1009883a 	mov	r4,r2
 1801af4:	1802adc0 	call	1802adc <__kernel_cos>
 1801af8:	100d883a 	mov	r6,r2
 1801afc:	180f883a 	mov	r7,r3
 1801b00:	003fcf06 	br	1801a40 <sin+0x44>
 1801b04:	d8800117 	ldw	r2,4(sp)
 1801b08:	da000317 	ldw	r8,12(sp)
 1801b0c:	d8c00217 	ldw	r3,8(sp)
 1801b10:	da400417 	ldw	r9,16(sp)
 1801b14:	400d883a 	mov	r6,r8
 1801b18:	180b883a 	mov	r5,r3
 1801b1c:	480f883a 	mov	r7,r9
 1801b20:	1009883a 	mov	r4,r2
 1801b24:	1802adc0 	call	1802adc <__kernel_cos>
 1801b28:	100d883a 	mov	r6,r2
 1801b2c:	19e0003c 	xorhi	r7,r3,32768
 1801b30:	003fc306 	br	1801a40 <sin+0x44>
 1801b34:	d8800117 	ldw	r2,4(sp)
 1801b38:	da000317 	ldw	r8,12(sp)
 1801b3c:	d8c00217 	ldw	r3,8(sp)
 1801b40:	da400417 	ldw	r9,16(sp)
 1801b44:	d9000015 	stw	r4,0(sp)
 1801b48:	400d883a 	mov	r6,r8
 1801b4c:	480f883a 	mov	r7,r9
 1801b50:	180b883a 	mov	r5,r3
 1801b54:	1009883a 	mov	r4,r2
 1801b58:	1803e840 	call	1803e84 <__kernel_sin>
 1801b5c:	100d883a 	mov	r6,r2
 1801b60:	19e0003c 	xorhi	r7,r3,32768
 1801b64:	003fb606 	br	1801a40 <sin+0x44>

01801b68 <atan2>:
 1801b68:	1801c9c1 	jmpi	1801c9c <__ieee754_atan2>

01801b6c <sqrt>:
 1801b6c:	defff104 	addi	sp,sp,-60
 1801b70:	dd000d15 	stw	r20,52(sp)
 1801b74:	05006074 	movhi	r20,385
 1801b78:	a51ec304 	addi	r20,r20,31500
 1801b7c:	dcc00c15 	stw	r19,48(sp)
 1801b80:	dc800b15 	stw	r18,44(sp)
 1801b84:	dc400a15 	stw	r17,40(sp)
 1801b88:	dc000915 	stw	r16,36(sp)
 1801b8c:	2025883a 	mov	r18,r4
 1801b90:	dfc00e15 	stw	ra,56(sp)
 1801b94:	2827883a 	mov	r19,r5
 1801b98:	18028140 	call	1802814 <__ieee754_sqrt>
 1801b9c:	a1000017 	ldw	r4,0(r20)
 1801ba0:	1021883a 	mov	r16,r2
 1801ba4:	00bfffc4 	movi	r2,-1
 1801ba8:	1823883a 	mov	r17,r3
 1801bac:	20800a26 	beq	r4,r2,1801bd8 <sqrt+0x6c>
 1801bb0:	9009883a 	mov	r4,r18
 1801bb4:	980b883a 	mov	r5,r19
 1801bb8:	1804a700 	call	1804a70 <__isnand>
 1801bbc:	1000061e 	bne	r2,zero,1801bd8 <sqrt+0x6c>
 1801bc0:	000d883a 	mov	r6,zero
 1801bc4:	000f883a 	mov	r7,zero
 1801bc8:	9009883a 	mov	r4,r18
 1801bcc:	980b883a 	mov	r5,r19
 1801bd0:	1805c580 	call	1805c58 <__ltdf2>
 1801bd4:	10000a16 	blt	r2,zero,1801c00 <sqrt+0x94>
 1801bd8:	8005883a 	mov	r2,r16
 1801bdc:	8807883a 	mov	r3,r17
 1801be0:	dfc00e17 	ldw	ra,56(sp)
 1801be4:	dd000d17 	ldw	r20,52(sp)
 1801be8:	dcc00c17 	ldw	r19,48(sp)
 1801bec:	dc800b17 	ldw	r18,44(sp)
 1801bf0:	dc400a17 	ldw	r17,40(sp)
 1801bf4:	dc000917 	ldw	r16,36(sp)
 1801bf8:	dec00f04 	addi	sp,sp,60
 1801bfc:	f800283a 	ret
 1801c00:	a4000017 	ldw	r16,0(r20)
 1801c04:	00800044 	movi	r2,1
 1801c08:	00c06074 	movhi	r3,385
 1801c0c:	18d58804 	addi	r3,r3,22048
 1801c10:	d8800015 	stw	r2,0(sp)
 1801c14:	d8c00115 	stw	r3,4(sp)
 1801c18:	dcc00315 	stw	r19,12(sp)
 1801c1c:	d8000815 	stw	zero,32(sp)
 1801c20:	dc800415 	stw	r18,16(sp)
 1801c24:	dcc00515 	stw	r19,20(sp)
 1801c28:	dc800215 	stw	r18,8(sp)
 1801c2c:	80000a1e 	bne	r16,zero,1801c58 <sqrt+0xec>
 1801c30:	d8000615 	stw	zero,24(sp)
 1801c34:	d8000715 	stw	zero,28(sp)
 1801c38:	d809883a 	mov	r4,sp
 1801c3c:	1804aa00 	call	1804aa0 <matherr>
 1801c40:	10000e26 	beq	r2,zero,1801c7c <sqrt+0x110>
 1801c44:	d8800817 	ldw	r2,32(sp)
 1801c48:	1000101e 	bne	r2,zero,1801c8c <sqrt+0x120>
 1801c4c:	dc000617 	ldw	r16,24(sp)
 1801c50:	dc400717 	ldw	r17,28(sp)
 1801c54:	003fe006 	br	1801bd8 <sqrt+0x6c>
 1801c58:	0009883a 	mov	r4,zero
 1801c5c:	000d883a 	mov	r6,zero
 1801c60:	000b883a 	mov	r5,zero
 1801c64:	000f883a 	mov	r7,zero
 1801c68:	18058680 	call	1805868 <__divdf3>
 1801c6c:	d8800615 	stw	r2,24(sp)
 1801c70:	00800084 	movi	r2,2
 1801c74:	d8c00715 	stw	r3,28(sp)
 1801c78:	80bfef1e 	bne	r16,r2,1801c38 <sqrt+0xcc>
 1801c7c:	18069280 	call	1806928 <__errno>
 1801c80:	00c00844 	movi	r3,33
 1801c84:	10c00015 	stw	r3,0(r2)
 1801c88:	003fee06 	br	1801c44 <sqrt+0xd8>
 1801c8c:	18069280 	call	1806928 <__errno>
 1801c90:	d8c00817 	ldw	r3,32(sp)
 1801c94:	10c00015 	stw	r3,0(r2)
 1801c98:	003fec06 	br	1801c4c <sqrt+0xe0>

01801c9c <__ieee754_atan2>:
 1801c9c:	3015883a 	mov	r10,r6
 1801ca0:	3019883a 	mov	r12,r6
 1801ca4:	018dc83a 	sub	r6,zero,r6
 1801ca8:	518cb03a 	or	r6,r10,r6
 1801cac:	300cd7fa 	srli	r6,r6,31
 1801cb0:	03a00034 	movhi	r14,32768
 1801cb4:	73bfffc4 	addi	r14,r14,-1
 1801cb8:	3b9e703a 	and	r15,r7,r14
 1801cbc:	defffc04 	addi	sp,sp,-16
 1801cc0:	33ccb03a 	or	r6,r6,r15
 1801cc4:	035ffc34 	movhi	r13,32752
 1801cc8:	dc000015 	stw	r16,0(sp)
 1801ccc:	dfc00315 	stw	ra,12(sp)
 1801cd0:	dc800215 	stw	r18,8(sp)
 1801cd4:	dc400115 	stw	r17,4(sp)
 1801cd8:	3817883a 	mov	r11,r7
 1801cdc:	2011883a 	mov	r8,r4
 1801ce0:	2813883a 	mov	r9,r5
 1801ce4:	3821883a 	mov	r16,r7
 1801ce8:	69800736 	bltu	r13,r6,1801d08 <__ieee754_atan2+0x6c>
 1801cec:	0105c83a 	sub	r2,zero,r4
 1801cf0:	2084b03a 	or	r2,r4,r2
 1801cf4:	1004d7fa 	srli	r2,r2,31
 1801cf8:	2b8c703a 	and	r6,r5,r14
 1801cfc:	2823883a 	mov	r17,r5
 1801d00:	1184b03a 	or	r2,r2,r6
 1801d04:	68800d2e 	bgeu	r13,r2,1801d3c <__ieee754_atan2+0xa0>
 1801d08:	4009883a 	mov	r4,r8
 1801d0c:	500d883a 	mov	r6,r10
 1801d10:	18054300 	call	1805430 <__adddf3>
 1801d14:	1011883a 	mov	r8,r2
 1801d18:	1813883a 	mov	r9,r3
 1801d1c:	4005883a 	mov	r2,r8
 1801d20:	4807883a 	mov	r3,r9
 1801d24:	dfc00317 	ldw	ra,12(sp)
 1801d28:	dc800217 	ldw	r18,8(sp)
 1801d2c:	dc400117 	ldw	r17,4(sp)
 1801d30:	dc000017 	ldw	r16,0(sp)
 1801d34:	dec00404 	addi	sp,sp,16
 1801d38:	f800283a 	ret
 1801d3c:	00b00434 	movhi	r2,49168
 1801d40:	3885883a 	add	r2,r7,r2
 1801d44:	5084b03a 	or	r2,r10,r2
 1801d48:	10001026 	beq	r2,zero,1801d8c <__ieee754_atan2+0xf0>
 1801d4c:	3805d7ba 	srai	r2,r7,30
 1801d50:	2806d7fa 	srli	r3,r5,31
 1801d54:	2188b03a 	or	r4,r4,r6
 1801d58:	1080008c 	andi	r2,r2,2
 1801d5c:	18a4b03a 	or	r18,r3,r2
 1801d60:	00800084 	movi	r2,2
 1801d64:	2000101e 	bne	r4,zero,1801da8 <__ieee754_atan2+0x10c>
 1801d68:	90803826 	beq	r18,r2,1801e4c <__ieee754_atan2+0x1b0>
 1801d6c:	14bfeb0e 	bge	r2,r18,1801d1c <__ieee754_atan2+0x80>
 1801d70:	008000c4 	movi	r2,3
 1801d74:	90800c1e 	bne	r18,r2,1801da8 <__ieee754_atan2+0x10c>
 1801d78:	02151134 	movhi	r8,21572
 1801d7c:	420b4604 	addi	r8,r8,11544
 1801d80:	02700274 	movhi	r9,49161
 1801d84:	4a487ec4 	addi	r9,r9,8699
 1801d88:	003fe406 	br	1801d1c <__ieee754_atan2+0x80>
 1801d8c:	4009883a 	mov	r4,r8
 1801d90:	dfc00317 	ldw	ra,12(sp)
 1801d94:	dc800217 	ldw	r18,8(sp)
 1801d98:	dc400117 	ldw	r17,4(sp)
 1801d9c:	dc000017 	ldw	r16,0(sp)
 1801da0:	dec00404 	addi	sp,sp,16
 1801da4:	180419c1 	jmpi	180419c <atan>
 1801da8:	63c4b03a 	or	r2,r12,r15
 1801dac:	10001426 	beq	r2,zero,1801e00 <__ieee754_atan2+0x164>
 1801db0:	009ffc34 	movhi	r2,32752
 1801db4:	78801d26 	beq	r15,r2,1801e2c <__ieee754_atan2+0x190>
 1801db8:	009ffc34 	movhi	r2,32752
 1801dbc:	30801026 	beq	r6,r2,1801e00 <__ieee754_atan2+0x164>
 1801dc0:	33c5c83a 	sub	r2,r6,r15
 1801dc4:	1009d53a 	srai	r4,r2,20
 1801dc8:	00c00f04 	movi	r3,60
 1801dcc:	1900240e 	bge	r3,r4,1801e60 <__ieee754_atan2+0x1c4>
 1801dd0:	02951134 	movhi	r10,21572
 1801dd4:	528b4604 	addi	r10,r10,11544
 1801dd8:	02cffe74 	movhi	r11,16377
 1801ddc:	5ac87ec4 	addi	r11,r11,8699
 1801de0:	00800044 	movi	r2,1
 1801de4:	90802d26 	beq	r18,r2,1801e9c <__ieee754_atan2+0x200>
 1801de8:	00800084 	movi	r2,2
 1801dec:	90804426 	beq	r18,r2,1801f00 <__ieee754_atan2+0x264>
 1801df0:	90002e1e 	bne	r18,zero,1801eac <__ieee754_atan2+0x210>
 1801df4:	5011883a 	mov	r8,r10
 1801df8:	5813883a 	mov	r9,r11
 1801dfc:	003fc706 	br	1801d1c <__ieee754_atan2+0x80>
 1801e00:	88000516 	blt	r17,zero,1801e18 <__ieee754_atan2+0x17c>
 1801e04:	02151134 	movhi	r8,21572
 1801e08:	420b4604 	addi	r8,r8,11544
 1801e0c:	024ffe74 	movhi	r9,16377
 1801e10:	4a487ec4 	addi	r9,r9,8699
 1801e14:	003fc106 	br	1801d1c <__ieee754_atan2+0x80>
 1801e18:	02151134 	movhi	r8,21572
 1801e1c:	420b4604 	addi	r8,r8,11544
 1801e20:	026ffe74 	movhi	r9,49145
 1801e24:	4a487ec4 	addi	r9,r9,8699
 1801e28:	003fbc06 	br	1801d1c <__ieee754_atan2+0x80>
 1801e2c:	33c04b26 	beq	r6,r15,1801f5c <__ieee754_atan2+0x2c0>
 1801e30:	00800044 	movi	r2,1
 1801e34:	90805726 	beq	r18,r2,1801f94 <__ieee754_atan2+0x2f8>
 1801e38:	14805116 	blt	r2,r18,1801f80 <__ieee754_atan2+0x2e4>
 1801e3c:	903fde1e 	bne	r18,zero,1801db8 <__ieee754_atan2+0x11c>
 1801e40:	0011883a 	mov	r8,zero
 1801e44:	0013883a 	mov	r9,zero
 1801e48:	003fb406 	br	1801d1c <__ieee754_atan2+0x80>
 1801e4c:	02151134 	movhi	r8,21572
 1801e50:	420b4604 	addi	r8,r8,11544
 1801e54:	02500274 	movhi	r9,16393
 1801e58:	4a487ec4 	addi	r9,r9,8699
 1801e5c:	003faf06 	br	1801d1c <__ieee754_atan2+0x80>
 1801e60:	80003916 	blt	r16,zero,1801f48 <__ieee754_atan2+0x2ac>
 1801e64:	580f883a 	mov	r7,r11
 1801e68:	480b883a 	mov	r5,r9
 1801e6c:	500d883a 	mov	r6,r10
 1801e70:	4009883a 	mov	r4,r8
 1801e74:	18058680 	call	1805868 <__divdf3>
 1801e78:	180b883a 	mov	r5,r3
 1801e7c:	1009883a 	mov	r4,r2
 1801e80:	18048340 	call	1804834 <fabs>
 1801e84:	180b883a 	mov	r5,r3
 1801e88:	1009883a 	mov	r4,r2
 1801e8c:	180419c0 	call	180419c <atan>
 1801e90:	1015883a 	mov	r10,r2
 1801e94:	1817883a 	mov	r11,r3
 1801e98:	003fd106 	br	1801de0 <__ieee754_atan2+0x144>
 1801e9c:	59a0003c 	xorhi	r6,r11,32768
 1801ea0:	5011883a 	mov	r8,r10
 1801ea4:	3013883a 	mov	r9,r6
 1801ea8:	003f9c06 	br	1801d1c <__ieee754_atan2+0x80>
 1801eac:	008cc534 	movhi	r2,13076
 1801eb0:	109701c4 	addi	r2,r2,23559
 1801eb4:	00cf28b4 	movhi	r3,15522
 1801eb8:	18e98984 	addi	r3,r3,-23002
 1801ebc:	580b883a 	mov	r5,r11
 1801ec0:	180f883a 	mov	r7,r3
 1801ec4:	5009883a 	mov	r4,r10
 1801ec8:	100d883a 	mov	r6,r2
 1801ecc:	18053b00 	call	18053b0 <__subdf3>
 1801ed0:	02151134 	movhi	r8,21572
 1801ed4:	420b4604 	addi	r8,r8,11544
 1801ed8:	02500274 	movhi	r9,16393
 1801edc:	4a487ec4 	addi	r9,r9,8699
 1801ee0:	180b883a 	mov	r5,r3
 1801ee4:	480f883a 	mov	r7,r9
 1801ee8:	1009883a 	mov	r4,r2
 1801eec:	400d883a 	mov	r6,r8
 1801ef0:	18053b00 	call	18053b0 <__subdf3>
 1801ef4:	1011883a 	mov	r8,r2
 1801ef8:	1813883a 	mov	r9,r3
 1801efc:	003f8706 	br	1801d1c <__ieee754_atan2+0x80>
 1801f00:	008cc534 	movhi	r2,13076
 1801f04:	109701c4 	addi	r2,r2,23559
 1801f08:	00cf28b4 	movhi	r3,15522
 1801f0c:	18e98984 	addi	r3,r3,-23002
 1801f10:	580b883a 	mov	r5,r11
 1801f14:	180f883a 	mov	r7,r3
 1801f18:	5009883a 	mov	r4,r10
 1801f1c:	100d883a 	mov	r6,r2
 1801f20:	18053b00 	call	18053b0 <__subdf3>
 1801f24:	02151134 	movhi	r8,21572
 1801f28:	420b4604 	addi	r8,r8,11544
 1801f2c:	02500274 	movhi	r9,16393
 1801f30:	4a487ec4 	addi	r9,r9,8699
 1801f34:	480b883a 	mov	r5,r9
 1801f38:	180f883a 	mov	r7,r3
 1801f3c:	4009883a 	mov	r4,r8
 1801f40:	100d883a 	mov	r6,r2
 1801f44:	003fea06 	br	1801ef0 <__ieee754_atan2+0x254>
 1801f48:	00bff104 	movi	r2,-60
 1801f4c:	20bfc50e 	bge	r4,r2,1801e64 <__ieee754_atan2+0x1c8>
 1801f50:	0015883a 	mov	r10,zero
 1801f54:	0017883a 	mov	r11,zero
 1801f58:	003fa106 	br	1801de0 <__ieee754_atan2+0x144>
 1801f5c:	00800044 	movi	r2,1
 1801f60:	90801826 	beq	r18,r2,1801fc4 <__ieee754_atan2+0x328>
 1801f64:	14800e16 	blt	r2,r18,1801fa0 <__ieee754_atan2+0x304>
 1801f68:	903f931e 	bne	r18,zero,1801db8 <__ieee754_atan2+0x11c>
 1801f6c:	02151134 	movhi	r8,21572
 1801f70:	420b4604 	addi	r8,r8,11544
 1801f74:	024ffa74 	movhi	r9,16361
 1801f78:	4a487ec4 	addi	r9,r9,8699
 1801f7c:	003f6706 	br	1801d1c <__ieee754_atan2+0x80>
 1801f80:	00800084 	movi	r2,2
 1801f84:	90bfb126 	beq	r18,r2,1801e4c <__ieee754_atan2+0x1b0>
 1801f88:	008000c4 	movi	r2,3
 1801f8c:	90bf8a1e 	bne	r18,r2,1801db8 <__ieee754_atan2+0x11c>
 1801f90:	003f7906 	br	1801d78 <__ieee754_atan2+0xdc>
 1801f94:	0011883a 	mov	r8,zero
 1801f98:	02600034 	movhi	r9,32768
 1801f9c:	003f5f06 	br	1801d1c <__ieee754_atan2+0x80>
 1801fa0:	00800084 	movi	r2,2
 1801fa4:	90800c26 	beq	r18,r2,1801fd8 <__ieee754_atan2+0x33c>
 1801fa8:	008000c4 	movi	r2,3
 1801fac:	90bf821e 	bne	r18,r2,1801db8 <__ieee754_atan2+0x11c>
 1801fb0:	021fccf4 	movhi	r8,32563
 1801fb4:	42087484 	addi	r8,r8,8658
 1801fb8:	027000f4 	movhi	r9,49155
 1801fbc:	4a765f04 	addi	r9,r9,-9860
 1801fc0:	003f5606 	br	1801d1c <__ieee754_atan2+0x80>
 1801fc4:	02151134 	movhi	r8,21572
 1801fc8:	420b4604 	addi	r8,r8,11544
 1801fcc:	026ffa74 	movhi	r9,49129
 1801fd0:	4a487ec4 	addi	r9,r9,8699
 1801fd4:	003f5106 	br	1801d1c <__ieee754_atan2+0x80>
 1801fd8:	021fccf4 	movhi	r8,32563
 1801fdc:	42087484 	addi	r8,r8,8658
 1801fe0:	025000f4 	movhi	r9,16387
 1801fe4:	4a765f04 	addi	r9,r9,-9860
 1801fe8:	003f4c06 	br	1801d1c <__ieee754_atan2+0x80>

01801fec <__ieee754_rem_pio2>:
 1801fec:	deffe304 	addi	sp,sp,-116
 1801ff0:	00a00034 	movhi	r2,32768
 1801ff4:	10bfffc4 	addi	r2,r2,-1
 1801ff8:	dd801915 	stw	r22,100(sp)
 1801ffc:	28ac703a 	and	r22,r5,r2
 1802000:	008ffa74 	movhi	r2,16361
 1802004:	10887ec4 	addi	r2,r2,8699
 1802008:	df001b15 	stw	fp,108(sp)
 180200c:	dfc01c15 	stw	ra,112(sp)
 1802010:	ddc01a15 	stw	r23,104(sp)
 1802014:	dd401815 	stw	r21,96(sp)
 1802018:	dd001715 	stw	r20,92(sp)
 180201c:	dcc01615 	stw	r19,88(sp)
 1802020:	dc801515 	stw	r18,84(sp)
 1802024:	dc401415 	stw	r17,80(sp)
 1802028:	dc001315 	stw	r16,76(sp)
 180202c:	2013883a 	mov	r9,r4
 1802030:	d9400a15 	stw	r5,40(sp)
 1802034:	3039883a 	mov	fp,r6
 1802038:	15801216 	blt	r2,r22,1802084 <__ieee754_rem_pio2+0x98>
 180203c:	e1400115 	stw	r5,4(fp)
 1802040:	30000315 	stw	zero,12(r6)
 1802044:	e1000015 	stw	r4,0(fp)
 1802048:	d8000b15 	stw	zero,44(sp)
 180204c:	30000215 	stw	zero,8(r6)
 1802050:	d8800b17 	ldw	r2,44(sp)
 1802054:	dfc01c17 	ldw	ra,112(sp)
 1802058:	df001b17 	ldw	fp,108(sp)
 180205c:	ddc01a17 	ldw	r23,104(sp)
 1802060:	dd801917 	ldw	r22,100(sp)
 1802064:	dd401817 	ldw	r21,96(sp)
 1802068:	dd001717 	ldw	r20,92(sp)
 180206c:	dcc01617 	ldw	r19,88(sp)
 1802070:	dc801517 	ldw	r18,84(sp)
 1802074:	dc401417 	ldw	r17,80(sp)
 1802078:	dc001317 	ldw	r16,76(sp)
 180207c:	dec01d04 	addi	sp,sp,116
 1802080:	f800283a 	ret
 1802084:	009000f4 	movhi	r2,16387
 1802088:	10b65ec4 	addi	r2,r2,-9861
 180208c:	15800f0e 	bge	r2,r22,18020cc <__ieee754_rem_pio2+0xe0>
 1802090:	00904e74 	movhi	r2,16697
 1802094:	10887ec4 	addi	r2,r2,8699
 1802098:	1580330e 	bge	r2,r22,1802168 <__ieee754_rem_pio2+0x17c>
 180209c:	009ffc34 	movhi	r2,32752
 18020a0:	10bfffc4 	addi	r2,r2,-1
 18020a4:	1580fe0e 	bge	r2,r22,18024a0 <__ieee754_rem_pio2+0x4b4>
 18020a8:	280f883a 	mov	r7,r5
 18020ac:	480d883a 	mov	r6,r9
 18020b0:	18053b00 	call	18053b0 <__subdf3>
 18020b4:	e0c00115 	stw	r3,4(fp)
 18020b8:	d8000b15 	stw	zero,44(sp)
 18020bc:	e0800015 	stw	r2,0(fp)
 18020c0:	e0800215 	stw	r2,8(fp)
 18020c4:	e0c00315 	stw	r3,12(fp)
 18020c8:	003fe106 	br	1802050 <__ieee754_rem_pio2+0x64>
 18020cc:	d9000a17 	ldw	r4,40(sp)
 18020d0:	0100ce0e 	bge	zero,r4,180240c <__ieee754_rem_pio2+0x420>
 18020d4:	04151034 	movhi	r16,21568
 18020d8:	044ffe74 	movhi	r17,16377
 18020dc:	8c487ec4 	addi	r17,r17,8699
 18020e0:	4809883a 	mov	r4,r9
 18020e4:	800d883a 	mov	r6,r16
 18020e8:	880f883a 	mov	r7,r17
 18020ec:	18053b00 	call	18053b0 <__subdf3>
 18020f0:	1025883a 	mov	r18,r2
 18020f4:	1827883a 	mov	r19,r3
 18020f8:	b4413c26 	beq	r22,r17,18025ec <__ieee754_rem_pio2+0x600>
 18020fc:	040698b4 	movhi	r16,6754
 1802100:	8418cc44 	addi	r16,r16,25393
 1802104:	044f7474 	movhi	r17,15825
 1802108:	8c6d1844 	addi	r17,r17,-19359
 180210c:	1009883a 	mov	r4,r2
 1802110:	180b883a 	mov	r5,r3
 1802114:	800d883a 	mov	r6,r16
 1802118:	880f883a 	mov	r7,r17
 180211c:	18053b00 	call	18053b0 <__subdf3>
 1802120:	100d883a 	mov	r6,r2
 1802124:	9009883a 	mov	r4,r18
 1802128:	980b883a 	mov	r5,r19
 180212c:	180f883a 	mov	r7,r3
 1802130:	e0800015 	stw	r2,0(fp)
 1802134:	e0c00115 	stw	r3,4(fp)
 1802138:	18053b00 	call	18053b0 <__subdf3>
 180213c:	1009883a 	mov	r4,r2
 1802140:	800d883a 	mov	r6,r16
 1802144:	880f883a 	mov	r7,r17
 1802148:	180b883a 	mov	r5,r3
 180214c:	18053b00 	call	18053b0 <__subdf3>
 1802150:	1009883a 	mov	r4,r2
 1802154:	00800044 	movi	r2,1
 1802158:	d8800b15 	stw	r2,44(sp)
 180215c:	e0c00315 	stw	r3,12(fp)
 1802160:	e1000215 	stw	r4,8(fp)
 1802164:	003fba06 	br	1802050 <__ieee754_rem_pio2+0x64>
 1802168:	18048340 	call	1804834 <fabs>
 180216c:	021b72b4 	movhi	r8,28106
 1802170:	423220c4 	addi	r8,r8,-14205
 1802174:	024ff934 	movhi	r9,16356
 1802178:	4a57cc04 	addi	r9,r9,24368
 180217c:	480f883a 	mov	r7,r9
 1802180:	400d883a 	mov	r6,r8
 1802184:	1009883a 	mov	r4,r2
 1802188:	180b883a 	mov	r5,r3
 180218c:	1025883a 	mov	r18,r2
 1802190:	1827883a 	mov	r19,r3
 1802194:	18054a40 	call	18054a4 <__muldf3>
 1802198:	0011883a 	mov	r8,zero
 180219c:	024ff834 	movhi	r9,16352
 18021a0:	480f883a 	mov	r7,r9
 18021a4:	400d883a 	mov	r6,r8
 18021a8:	180b883a 	mov	r5,r3
 18021ac:	1009883a 	mov	r4,r2
 18021b0:	18054300 	call	1805430 <__adddf3>
 18021b4:	180b883a 	mov	r5,r3
 18021b8:	1009883a 	mov	r4,r2
 18021bc:	1805dd80 	call	1805dd8 <__fixdfsi>
 18021c0:	1009883a 	mov	r4,r2
 18021c4:	d8800b15 	stw	r2,44(sp)
 18021c8:	1805ce00 	call	1805ce0 <__floatsidf>
 18021cc:	1823883a 	mov	r17,r3
 18021d0:	1009883a 	mov	r4,r2
 18021d4:	d8800c15 	stw	r2,48(sp)
 18021d8:	00effe74 	movhi	r3,49145
 18021dc:	18c87ec4 	addi	r3,r3,8699
 18021e0:	00951034 	movhi	r2,21568
 18021e4:	880b883a 	mov	r5,r17
 18021e8:	180f883a 	mov	r7,r3
 18021ec:	100d883a 	mov	r6,r2
 18021f0:	dc400d15 	stw	r17,52(sp)
 18021f4:	18054a40 	call	18054a4 <__muldf3>
 18021f8:	180f883a 	mov	r7,r3
 18021fc:	980b883a 	mov	r5,r19
 1802200:	9009883a 	mov	r4,r18
 1802204:	100d883a 	mov	r6,r2
 1802208:	18054300 	call	1805430 <__adddf3>
 180220c:	d9000c17 	ldw	r4,48(sp)
 1802210:	020698b4 	movhi	r8,6754
 1802214:	4218cc44 	addi	r8,r8,25393
 1802218:	024f7474 	movhi	r9,15825
 180221c:	4a6d1844 	addi	r9,r9,-19359
 1802220:	880b883a 	mov	r5,r17
 1802224:	480f883a 	mov	r7,r9
 1802228:	400d883a 	mov	r6,r8
 180222c:	1025883a 	mov	r18,r2
 1802230:	1827883a 	mov	r19,r3
 1802234:	18054a40 	call	18054a4 <__muldf3>
 1802238:	d9000b17 	ldw	r4,44(sp)
 180223c:	100f883a 	mov	r7,r2
 1802240:	1811883a 	mov	r8,r3
 1802244:	008007c4 	movi	r2,31
 1802248:	dc800e15 	stw	r18,56(sp)
 180224c:	3821883a 	mov	r16,r7
 1802250:	dcc00f15 	stw	r19,60(sp)
 1802254:	4023883a 	mov	r17,r8
 1802258:	11010a0e 	bge	r2,r4,1802684 <__ieee754_rem_pio2+0x698>
 180225c:	d9000e17 	ldw	r4,56(sp)
 1802260:	d9400f17 	ldw	r5,60(sp)
 1802264:	800d883a 	mov	r6,r16
 1802268:	880f883a 	mov	r7,r17
 180226c:	18053b00 	call	18053b0 <__subdf3>
 1802270:	1810d53a 	srli	r8,r3,20
 1802274:	b02dd53a 	srai	r22,r22,20
 1802278:	1009883a 	mov	r4,r2
 180227c:	4201ffcc 	andi	r8,r8,2047
 1802280:	180b883a 	mov	r5,r3
 1802284:	b211c83a 	sub	r8,r22,r8
 1802288:	00800404 	movi	r2,16
 180228c:	dd801015 	stw	r22,64(sp)
 1802290:	e1000015 	stw	r4,0(fp)
 1802294:	e1400115 	stw	r5,4(fp)
 1802298:	1200430e 	bge	r2,r8,18023a8 <__ieee754_rem_pio2+0x3bc>
 180229c:	d9000c17 	ldw	r4,48(sp)
 18022a0:	d9400d17 	ldw	r5,52(sp)
 18022a4:	00869834 	movhi	r2,6752
 18022a8:	00cf7474 	movhi	r3,15825
 18022ac:	18ed1844 	addi	r3,r3,-19359
 18022b0:	180f883a 	mov	r7,r3
 18022b4:	100d883a 	mov	r6,r2
 18022b8:	18054a40 	call	18054a4 <__muldf3>
 18022bc:	d9000e17 	ldw	r4,56(sp)
 18022c0:	d9400f17 	ldw	r5,60(sp)
 18022c4:	100d883a 	mov	r6,r2
 18022c8:	180f883a 	mov	r7,r3
 18022cc:	1025883a 	mov	r18,r2
 18022d0:	1827883a 	mov	r19,r3
 18022d4:	18053b00 	call	18053b0 <__subdf3>
 18022d8:	d9000c17 	ldw	r4,48(sp)
 18022dc:	d9400d17 	ldw	r5,52(sp)
 18022e0:	058b80f4 	movhi	r22,11779
 18022e4:	b59c1cc4 	addi	r22,r22,28787
 18022e8:	05cee8f4 	movhi	r23,15267
 18022ec:	bdc66284 	addi	r23,r23,6538
 18022f0:	b00d883a 	mov	r6,r22
 18022f4:	b80f883a 	mov	r7,r23
 18022f8:	d8801115 	stw	r2,68(sp)
 18022fc:	d8c01215 	stw	r3,72(sp)
 1802300:	d8800815 	stw	r2,32(sp)
 1802304:	18054a40 	call	18054a4 <__muldf3>
 1802308:	d9001217 	ldw	r4,72(sp)
 180230c:	d9400f17 	ldw	r5,60(sp)
 1802310:	d9800817 	ldw	r6,32(sp)
 1802314:	d9000915 	stw	r4,36(sp)
 1802318:	d9c01217 	ldw	r7,72(sp)
 180231c:	d9000e17 	ldw	r4,56(sp)
 1802320:	1021883a 	mov	r16,r2
 1802324:	1823883a 	mov	r17,r3
 1802328:	18053b00 	call	18053b0 <__subdf3>
 180232c:	180b883a 	mov	r5,r3
 1802330:	900d883a 	mov	r6,r18
 1802334:	980f883a 	mov	r7,r19
 1802338:	1009883a 	mov	r4,r2
 180233c:	18053b00 	call	18053b0 <__subdf3>
 1802340:	180f883a 	mov	r7,r3
 1802344:	880b883a 	mov	r5,r17
 1802348:	8009883a 	mov	r4,r16
 180234c:	100d883a 	mov	r6,r2
 1802350:	18053b00 	call	18053b0 <__subdf3>
 1802354:	d9000817 	ldw	r4,32(sp)
 1802358:	d9401217 	ldw	r5,72(sp)
 180235c:	180f883a 	mov	r7,r3
 1802360:	100d883a 	mov	r6,r2
 1802364:	1021883a 	mov	r16,r2
 1802368:	1823883a 	mov	r17,r3
 180236c:	18053b00 	call	18053b0 <__subdf3>
 1802370:	1810d53a 	srli	r8,r3,20
 1802374:	1009883a 	mov	r4,r2
 1802378:	d8801017 	ldw	r2,64(sp)
 180237c:	4201ffcc 	andi	r8,r8,2047
 1802380:	180b883a 	mov	r5,r3
 1802384:	1211c83a 	sub	r8,r2,r8
 1802388:	00800c44 	movi	r2,49
 180238c:	e1000015 	stw	r4,0(fp)
 1802390:	e1400115 	stw	r5,4(fp)
 1802394:	1200f016 	blt	r2,r8,1802758 <__ieee754_rem_pio2+0x76c>
 1802398:	d8c00817 	ldw	r3,32(sp)
 180239c:	d9001217 	ldw	r4,72(sp)
 18023a0:	d8c00e15 	stw	r3,56(sp)
 18023a4:	d9000f15 	stw	r4,60(sp)
 18023a8:	e1800017 	ldw	r6,0(fp)
 18023ac:	e1c00117 	ldw	r7,4(fp)
 18023b0:	d9400f17 	ldw	r5,60(sp)
 18023b4:	d9000e17 	ldw	r4,56(sp)
 18023b8:	18053b00 	call	18053b0 <__subdf3>
 18023bc:	180b883a 	mov	r5,r3
 18023c0:	800d883a 	mov	r6,r16
 18023c4:	880f883a 	mov	r7,r17
 18023c8:	1009883a 	mov	r4,r2
 18023cc:	18053b00 	call	18053b0 <__subdf3>
 18023d0:	d9400a17 	ldw	r5,40(sp)
 18023d4:	e0800215 	stw	r2,8(fp)
 18023d8:	e1800204 	addi	r6,fp,8
 18023dc:	30c00115 	stw	r3,4(r6)
 18023e0:	283f1b0e 	bge	r5,zero,1802050 <__ieee754_rem_pio2+0x64>
 18023e4:	e0c00117 	ldw	r3,4(fp)
 18023e8:	d8800b17 	ldw	r2,44(sp)
 18023ec:	18e0003c 	xorhi	r3,r3,32768
 18023f0:	0085c83a 	sub	r2,zero,r2
 18023f4:	e0c00115 	stw	r3,4(fp)
 18023f8:	d8800b15 	stw	r2,44(sp)
 18023fc:	30800117 	ldw	r2,4(r6)
 1802400:	10a0003c 	xorhi	r2,r2,32768
 1802404:	30800115 	stw	r2,4(r6)
 1802408:	003f1106 	br	1802050 <__ieee754_rem_pio2+0x64>
 180240c:	04151034 	movhi	r16,21568
 1802410:	044ffe74 	movhi	r17,16377
 1802414:	8c487ec4 	addi	r17,r17,8699
 1802418:	4809883a 	mov	r4,r9
 180241c:	800d883a 	mov	r6,r16
 1802420:	880f883a 	mov	r7,r17
 1802424:	18054300 	call	1805430 <__adddf3>
 1802428:	1025883a 	mov	r18,r2
 180242c:	1827883a 	mov	r19,r3
 1802430:	b440a326 	beq	r22,r17,18026c0 <__ieee754_rem_pio2+0x6d4>
 1802434:	040698b4 	movhi	r16,6754
 1802438:	8418cc44 	addi	r16,r16,25393
 180243c:	044f7474 	movhi	r17,15825
 1802440:	8c6d1844 	addi	r17,r17,-19359
 1802444:	1009883a 	mov	r4,r2
 1802448:	180b883a 	mov	r5,r3
 180244c:	800d883a 	mov	r6,r16
 1802450:	880f883a 	mov	r7,r17
 1802454:	18054300 	call	1805430 <__adddf3>
 1802458:	100d883a 	mov	r6,r2
 180245c:	9009883a 	mov	r4,r18
 1802460:	980b883a 	mov	r5,r19
 1802464:	180f883a 	mov	r7,r3
 1802468:	e0800015 	stw	r2,0(fp)
 180246c:	e0c00115 	stw	r3,4(fp)
 1802470:	18053b00 	call	18053b0 <__subdf3>
 1802474:	1009883a 	mov	r4,r2
 1802478:	800d883a 	mov	r6,r16
 180247c:	880f883a 	mov	r7,r17
 1802480:	180b883a 	mov	r5,r3
 1802484:	18054300 	call	1805430 <__adddf3>
 1802488:	1009883a 	mov	r4,r2
 180248c:	00bfffc4 	movi	r2,-1
 1802490:	d8800b15 	stw	r2,44(sp)
 1802494:	e0c00315 	stw	r3,12(fp)
 1802498:	e1000215 	stw	r4,8(fp)
 180249c:	003eec06 	br	1802050 <__ieee754_rem_pio2+0x64>
 18024a0:	b005d53a 	srai	r2,r22,20
 18024a4:	4821883a 	mov	r16,r9
 18024a8:	05505c34 	movhi	r21,16752
 18024ac:	15fefa84 	addi	r23,r2,-1046
 18024b0:	b826953a 	slli	r19,r23,20
 18024b4:	0029883a 	mov	r20,zero
 18024b8:	048000c4 	movi	r18,3
 18024bc:	b4e7c83a 	sub	r19,r22,r19
 18024c0:	980b883a 	mov	r5,r19
 18024c4:	1805dd80 	call	1805dd8 <__fixdfsi>
 18024c8:	1009883a 	mov	r4,r2
 18024cc:	1805ce00 	call	1805ce0 <__floatsidf>
 18024d0:	980b883a 	mov	r5,r19
 18024d4:	8009883a 	mov	r4,r16
 18024d8:	180f883a 	mov	r7,r3
 18024dc:	100d883a 	mov	r6,r2
 18024e0:	d8800215 	stw	r2,8(sp)
 18024e4:	d8c00315 	stw	r3,12(sp)
 18024e8:	18053b00 	call	18053b0 <__subdf3>
 18024ec:	180b883a 	mov	r5,r3
 18024f0:	a00d883a 	mov	r6,r20
 18024f4:	a80f883a 	mov	r7,r21
 18024f8:	1009883a 	mov	r4,r2
 18024fc:	18054a40 	call	18054a4 <__muldf3>
 1802500:	180b883a 	mov	r5,r3
 1802504:	1009883a 	mov	r4,r2
 1802508:	1823883a 	mov	r17,r3
 180250c:	1021883a 	mov	r16,r2
 1802510:	1805dd80 	call	1805dd8 <__fixdfsi>
 1802514:	1009883a 	mov	r4,r2
 1802518:	1805ce00 	call	1805ce0 <__floatsidf>
 180251c:	880b883a 	mov	r5,r17
 1802520:	8009883a 	mov	r4,r16
 1802524:	180f883a 	mov	r7,r3
 1802528:	100d883a 	mov	r6,r2
 180252c:	d8800415 	stw	r2,16(sp)
 1802530:	d8c00515 	stw	r3,20(sp)
 1802534:	18053b00 	call	18053b0 <__subdf3>
 1802538:	180b883a 	mov	r5,r3
 180253c:	000d883a 	mov	r6,zero
 1802540:	a80f883a 	mov	r7,r21
 1802544:	1009883a 	mov	r4,r2
 1802548:	18054a40 	call	18054a4 <__muldf3>
 180254c:	d8c00715 	stw	r3,28(sp)
 1802550:	d8800615 	stw	r2,24(sp)
 1802554:	00000106 	br	180255c <__ieee754_rem_pio2+0x570>
 1802558:	8025883a 	mov	r18,r16
 180255c:	943fffc4 	addi	r16,r18,-1
 1802560:	800890fa 	slli	r4,r16,3
 1802564:	d9400204 	addi	r5,sp,8
 1802568:	000d883a 	mov	r6,zero
 180256c:	2149883a 	add	r4,r4,r5
 1802570:	20c00117 	ldw	r3,4(r4)
 1802574:	20800017 	ldw	r2,0(r4)
 1802578:	000f883a 	mov	r7,zero
 180257c:	180b883a 	mov	r5,r3
 1802580:	1009883a 	mov	r4,r2
 1802584:	1805ac00 	call	1805ac0 <__eqdf2>
 1802588:	103ff326 	beq	r2,zero,1802558 <__ieee754_rem_pio2+0x56c>
 180258c:	00800084 	movi	r2,2
 1802590:	00c06074 	movhi	r3,385
 1802594:	18d5aa04 	addi	r3,r3,22184
 1802598:	b80d883a 	mov	r6,r23
 180259c:	900f883a 	mov	r7,r18
 18025a0:	d9000204 	addi	r4,sp,8
 18025a4:	e00b883a 	mov	r5,fp
 18025a8:	d8800015 	stw	r2,0(sp)
 18025ac:	d8c00115 	stw	r3,4(sp)
 18025b0:	18030080 	call	1803008 <__kernel_rem_pio2>
 18025b4:	d8800b15 	stw	r2,44(sp)
 18025b8:	d8800a17 	ldw	r2,40(sp)
 18025bc:	103ea40e 	bge	r2,zero,1802050 <__ieee754_rem_pio2+0x64>
 18025c0:	e0800117 	ldw	r2,4(fp)
 18025c4:	d8c00b17 	ldw	r3,44(sp)
 18025c8:	e1000204 	addi	r4,fp,8
 18025cc:	10a0003c 	xorhi	r2,r2,32768
 18025d0:	00c7c83a 	sub	r3,zero,r3
 18025d4:	e0800115 	stw	r2,4(fp)
 18025d8:	d8c00b15 	stw	r3,44(sp)
 18025dc:	20c00117 	ldw	r3,4(r4)
 18025e0:	18e0003c 	xorhi	r3,r3,32768
 18025e4:	20c00115 	stw	r3,4(r4)
 18025e8:	003e9906 	br	1802050 <__ieee754_rem_pio2+0x64>
 18025ec:	00869834 	movhi	r2,6752
 18025f0:	00cf7474 	movhi	r3,15825
 18025f4:	18ed1844 	addi	r3,r3,-19359
 18025f8:	9009883a 	mov	r4,r18
 18025fc:	980b883a 	mov	r5,r19
 1802600:	180f883a 	mov	r7,r3
 1802604:	100d883a 	mov	r6,r2
 1802608:	18053b00 	call	18053b0 <__subdf3>
 180260c:	048b80f4 	movhi	r18,11779
 1802610:	949c1cc4 	addi	r18,r18,28787
 1802614:	04cee8f4 	movhi	r19,15267
 1802618:	9cc66284 	addi	r19,r19,6538
 180261c:	1009883a 	mov	r4,r2
 1802620:	180b883a 	mov	r5,r3
 1802624:	900d883a 	mov	r6,r18
 1802628:	980f883a 	mov	r7,r19
 180262c:	1021883a 	mov	r16,r2
 1802630:	1823883a 	mov	r17,r3
 1802634:	18053b00 	call	18053b0 <__subdf3>
 1802638:	100d883a 	mov	r6,r2
 180263c:	8009883a 	mov	r4,r16
 1802640:	880b883a 	mov	r5,r17
 1802644:	180f883a 	mov	r7,r3
 1802648:	e0800015 	stw	r2,0(fp)
 180264c:	e0c00115 	stw	r3,4(fp)
 1802650:	18053b00 	call	18053b0 <__subdf3>
 1802654:	180b883a 	mov	r5,r3
 1802658:	1009883a 	mov	r4,r2
 180265c:	900d883a 	mov	r6,r18
 1802660:	980f883a 	mov	r7,r19
 1802664:	18053b00 	call	18053b0 <__subdf3>
 1802668:	180b883a 	mov	r5,r3
 180266c:	1009883a 	mov	r4,r2
 1802670:	00c00044 	movi	r3,1
 1802674:	d8c00b15 	stw	r3,44(sp)
 1802678:	e1400315 	stw	r5,12(fp)
 180267c:	e1000215 	stw	r4,8(fp)
 1802680:	003e7306 	br	1802050 <__ieee754_rem_pio2+0x64>
 1802684:	2105883a 	add	r2,r4,r4
 1802688:	1085883a 	add	r2,r2,r2
 180268c:	00c06074 	movhi	r3,385
 1802690:	18d58a04 	addi	r3,r3,22056
 1802694:	10c5883a 	add	r2,r2,r3
 1802698:	113fff17 	ldw	r4,-4(r2)
 180269c:	b13eef26 	beq	r22,r4,180225c <__ieee754_rem_pio2+0x270>
 18026a0:	980b883a 	mov	r5,r19
 18026a4:	400f883a 	mov	r7,r8
 18026a8:	9009883a 	mov	r4,r18
 18026ac:	800d883a 	mov	r6,r16
 18026b0:	18053b00 	call	18053b0 <__subdf3>
 18026b4:	e0c00115 	stw	r3,4(fp)
 18026b8:	e0800015 	stw	r2,0(fp)
 18026bc:	003f3a06 	br	18023a8 <__ieee754_rem_pio2+0x3bc>
 18026c0:	00869834 	movhi	r2,6752
 18026c4:	00cf7474 	movhi	r3,15825
 18026c8:	18ed1844 	addi	r3,r3,-19359
 18026cc:	9009883a 	mov	r4,r18
 18026d0:	980b883a 	mov	r5,r19
 18026d4:	180f883a 	mov	r7,r3
 18026d8:	100d883a 	mov	r6,r2
 18026dc:	18054300 	call	1805430 <__adddf3>
 18026e0:	048b80f4 	movhi	r18,11779
 18026e4:	949c1cc4 	addi	r18,r18,28787
 18026e8:	04cee8f4 	movhi	r19,15267
 18026ec:	9cc66284 	addi	r19,r19,6538
 18026f0:	1009883a 	mov	r4,r2
 18026f4:	180b883a 	mov	r5,r3
 18026f8:	900d883a 	mov	r6,r18
 18026fc:	980f883a 	mov	r7,r19
 1802700:	1021883a 	mov	r16,r2
 1802704:	1823883a 	mov	r17,r3
 1802708:	18054300 	call	1805430 <__adddf3>
 180270c:	100d883a 	mov	r6,r2
 1802710:	8009883a 	mov	r4,r16
 1802714:	880b883a 	mov	r5,r17
 1802718:	180f883a 	mov	r7,r3
 180271c:	e0800015 	stw	r2,0(fp)
 1802720:	e0c00115 	stw	r3,4(fp)
 1802724:	18053b00 	call	18053b0 <__subdf3>
 1802728:	180b883a 	mov	r5,r3
 180272c:	1009883a 	mov	r4,r2
 1802730:	900d883a 	mov	r6,r18
 1802734:	980f883a 	mov	r7,r19
 1802738:	18054300 	call	1805430 <__adddf3>
 180273c:	180b883a 	mov	r5,r3
 1802740:	1009883a 	mov	r4,r2
 1802744:	00ffffc4 	movi	r3,-1
 1802748:	d8c00b15 	stw	r3,44(sp)
 180274c:	e1400315 	stw	r5,12(fp)
 1802750:	e1000215 	stw	r4,8(fp)
 1802754:	003e3e06 	br	1802050 <__ieee754_rem_pio2+0x64>
 1802758:	d9000c17 	ldw	r4,48(sp)
 180275c:	d9400d17 	ldw	r5,52(sp)
 1802760:	018b8034 	movhi	r6,11776
 1802764:	b80f883a 	mov	r7,r23
 1802768:	18054a40 	call	18054a4 <__muldf3>
 180276c:	d9000817 	ldw	r4,32(sp)
 1802770:	d9401217 	ldw	r5,72(sp)
 1802774:	100d883a 	mov	r6,r2
 1802778:	180f883a 	mov	r7,r3
 180277c:	1025883a 	mov	r18,r2
 1802780:	1827883a 	mov	r19,r3
 1802784:	18053b00 	call	18053b0 <__subdf3>
 1802788:	d9400d17 	ldw	r5,52(sp)
 180278c:	d9000c17 	ldw	r4,48(sp)
 1802790:	02094834 	movhi	r8,9504
 1802794:	42127044 	addi	r8,r8,18881
 1802798:	024e5f34 	movhi	r9,14716
 180279c:	4a60e684 	addi	r9,r9,-31846
 18027a0:	480f883a 	mov	r7,r9
 18027a4:	400d883a 	mov	r6,r8
 18027a8:	182b883a 	mov	r21,r3
 18027ac:	d8800e15 	stw	r2,56(sp)
 18027b0:	18054a40 	call	18054a4 <__muldf3>
 18027b4:	d9000817 	ldw	r4,32(sp)
 18027b8:	d9401217 	ldw	r5,72(sp)
 18027bc:	d9800e17 	ldw	r6,56(sp)
 18027c0:	a80f883a 	mov	r7,r21
 18027c4:	1021883a 	mov	r16,r2
 18027c8:	1823883a 	mov	r17,r3
 18027cc:	dd400f15 	stw	r21,60(sp)
 18027d0:	18053b00 	call	18053b0 <__subdf3>
 18027d4:	180b883a 	mov	r5,r3
 18027d8:	900d883a 	mov	r6,r18
 18027dc:	980f883a 	mov	r7,r19
 18027e0:	1009883a 	mov	r4,r2
 18027e4:	18053b00 	call	18053b0 <__subdf3>
 18027e8:	180f883a 	mov	r7,r3
 18027ec:	880b883a 	mov	r5,r17
 18027f0:	8009883a 	mov	r4,r16
 18027f4:	100d883a 	mov	r6,r2
 18027f8:	18053b00 	call	18053b0 <__subdf3>
 18027fc:	d9000e17 	ldw	r4,56(sp)
 1802800:	1021883a 	mov	r16,r2
 1802804:	1823883a 	mov	r17,r3
 1802808:	a80b883a 	mov	r5,r21
 180280c:	180f883a 	mov	r7,r3
 1802810:	003fa606 	br	18026ac <__ieee754_rem_pio2+0x6c0>

01802814 <__ieee754_sqrt>:
 1802814:	defffd04 	addi	sp,sp,-12
 1802818:	dc000015 	stw	r16,0(sp)
 180281c:	009ffc34 	movhi	r2,32752
 1802820:	2021883a 	mov	r16,r4
 1802824:	291ffc2c 	andhi	r4,r5,32752
 1802828:	dc400115 	stw	r17,4(sp)
 180282c:	dfc00215 	stw	ra,8(sp)
 1802830:	2823883a 	mov	r17,r5
 1802834:	280f883a 	mov	r7,r5
 1802838:	2807883a 	mov	r3,r5
 180283c:	8011883a 	mov	r8,r16
 1802840:	20807d26 	beq	r4,r2,1802a38 <__ieee754_sqrt+0x224>
 1802844:	01408d0e 	bge	zero,r5,1802a7c <__ieee754_sqrt+0x268>
 1802848:	380dd53a 	srai	r6,r7,20
 180284c:	3000131e 	bne	r6,zero,180289c <__ieee754_sqrt+0x88>
 1802850:	1800041e 	bne	r3,zero,1802864 <__ieee754_sqrt+0x50>
 1802854:	400ed2fa 	srli	r7,r8,11
 1802858:	31bffac4 	addi	r6,r6,-21
 180285c:	4010957a 	slli	r8,r8,21
 1802860:	383ffc26 	beq	r7,zero,1802854 <__ieee754_sqrt+0x40>
 1802864:	3880042c 	andhi	r2,r7,16
 1802868:	1000991e 	bne	r2,zero,1802ad0 <__ieee754_sqrt+0x2bc>
 180286c:	0009883a 	mov	r4,zero
 1802870:	39cf883a 	add	r7,r7,r7
 1802874:	3880042c 	andhi	r2,r7,16
 1802878:	21000044 	addi	r4,r4,1
 180287c:	103ffc26 	beq	r2,zero,1802870 <__ieee754_sqrt+0x5c>
 1802880:	00800804 	movi	r2,32
 1802884:	1105c83a 	sub	r2,r2,r4
 1802888:	4086d83a 	srl	r3,r8,r2
 180288c:	4110983a 	sll	r8,r8,r4
 1802890:	3105c83a 	sub	r2,r6,r4
 1802894:	38ceb03a 	or	r7,r7,r3
 1802898:	11800044 	addi	r6,r2,1
 180289c:	31bf0044 	addi	r6,r6,-1023
 18028a0:	30c0004c 	andi	r3,r6,1
 18028a4:	00800434 	movhi	r2,16
 18028a8:	10bfffc4 	addi	r2,r2,-1
 18028ac:	3884703a 	and	r2,r7,r2
 18028b0:	1807003a 	cmpeq	r3,r3,zero
 18028b4:	11000434 	orhi	r4,r2,16
 18028b8:	18005426 	beq	r3,zero,1802a0c <__ieee754_sqrt+0x1f8>
 18028bc:	4004d7fa 	srli	r2,r8,31
 18028c0:	4207883a 	add	r3,r8,r8
 18028c4:	02800834 	movhi	r10,32
 18028c8:	1105883a 	add	r2,r2,r4
 18028cc:	2089883a 	add	r4,r4,r2
 18028d0:	0011883a 	mov	r8,zero
 18028d4:	000b883a 	mov	r5,zero
 18028d8:	0013883a 	mov	r9,zero
 18028dc:	02c00584 	movi	r11,22
 18028e0:	520f883a 	add	r7,r10,r8
 18028e4:	1804d7fa 	srli	r2,r3,31
 18028e8:	4a400044 	addi	r9,r9,1
 18028ec:	18c7883a 	add	r3,r3,r3
 18028f0:	21c00316 	blt	r4,r7,1802900 <__ieee754_sqrt+0xec>
 18028f4:	21c9c83a 	sub	r4,r4,r7
 18028f8:	2a8b883a 	add	r5,r5,r10
 18028fc:	51d1883a 	add	r8,r10,r7
 1802900:	1105883a 	add	r2,r2,r4
 1802904:	5014d07a 	srli	r10,r10,1
 1802908:	2089883a 	add	r4,r4,r2
 180290c:	4afff41e 	bne	r9,r11,18028e0 <__ieee754_sqrt+0xcc>
 1802910:	02600034 	movhi	r9,32768
 1802914:	0017883a 	mov	r11,zero
 1802918:	0019883a 	mov	r12,zero
 180291c:	0015883a 	mov	r10,zero
 1802920:	4821883a 	mov	r16,r9
 1802924:	03c00804 	movi	r15,32
 1802928:	00000806 	br	180294c <__ieee754_sqrt+0x138>
 180292c:	22003426 	beq	r4,r8,1802a00 <__ieee754_sqrt+0x1ec>
 1802930:	1804d7fa 	srli	r2,r3,31
 1802934:	52800044 	addi	r10,r10,1
 1802938:	18c7883a 	add	r3,r3,r3
 180293c:	1105883a 	add	r2,r2,r4
 1802940:	2089883a 	add	r4,r4,r2
 1802944:	4812d07a 	srli	r9,r9,1
 1802948:	53c01326 	beq	r10,r15,1802998 <__ieee754_sqrt+0x184>
 180294c:	4acf883a 	add	r7,r9,r11
 1802950:	413ff60e 	bge	r8,r4,180292c <__ieee754_sqrt+0x118>
 1802954:	38a0002c 	andhi	r2,r7,32768
 1802958:	3a57883a 	add	r11,r7,r9
 180295c:	14002426 	beq	r2,r16,18029f0 <__ieee754_sqrt+0x1dc>
 1802960:	4005883a 	mov	r2,r8
 1802964:	2209c83a 	sub	r4,r4,r8
 1802968:	19c0012e 	bgeu	r3,r7,1802970 <__ieee754_sqrt+0x15c>
 180296c:	213fffc4 	addi	r4,r4,-1
 1802970:	19c7c83a 	sub	r3,r3,r7
 1802974:	1011883a 	mov	r8,r2
 1802978:	1804d7fa 	srli	r2,r3,31
 180297c:	52800044 	addi	r10,r10,1
 1802980:	6259883a 	add	r12,r12,r9
 1802984:	1105883a 	add	r2,r2,r4
 1802988:	18c7883a 	add	r3,r3,r3
 180298c:	2089883a 	add	r4,r4,r2
 1802990:	4812d07a 	srli	r9,r9,1
 1802994:	53ffed1e 	bne	r10,r15,180294c <__ieee754_sqrt+0x138>
 1802998:	20c4b03a 	or	r2,r4,r3
 180299c:	1000201e 	bne	r2,zero,1802a20 <__ieee754_sqrt+0x20c>
 18029a0:	600ed07a 	srli	r7,r12,1
 18029a4:	2880004c 	andi	r2,r5,1
 18029a8:	1005003a 	cmpeq	r2,r2,zero
 18029ac:	1000011e 	bne	r2,zero,18029b4 <__ieee754_sqrt+0x1a0>
 18029b0:	39e00034 	orhi	r7,r7,32768
 18029b4:	300dd07a 	srai	r6,r6,1
 18029b8:	280bd07a 	srai	r5,r5,1
 18029bc:	010ff834 	movhi	r4,16352
 18029c0:	300c953a 	slli	r6,r6,20
 18029c4:	290b883a 	add	r5,r5,r4
 18029c8:	3821883a 	mov	r16,r7
 18029cc:	299d883a 	add	r14,r5,r6
 18029d0:	7023883a 	mov	r17,r14
 18029d4:	8005883a 	mov	r2,r16
 18029d8:	8807883a 	mov	r3,r17
 18029dc:	dfc00217 	ldw	ra,8(sp)
 18029e0:	dc400117 	ldw	r17,4(sp)
 18029e4:	dc000017 	ldw	r16,0(sp)
 18029e8:	dec00304 	addi	sp,sp,12
 18029ec:	f800283a 	ret
 18029f0:	5884703a 	and	r2,r11,r2
 18029f4:	103fda1e 	bne	r2,zero,1802960 <__ieee754_sqrt+0x14c>
 18029f8:	40800044 	addi	r2,r8,1
 18029fc:	003fd906 	br	1802964 <__ieee754_sqrt+0x150>
 1802a00:	19ffd42e 	bgeu	r3,r7,1802954 <__ieee754_sqrt+0x140>
 1802a04:	2011883a 	mov	r8,r4
 1802a08:	003fc906 	br	1802930 <__ieee754_sqrt+0x11c>
 1802a0c:	4004d7fa 	srli	r2,r8,31
 1802a10:	4211883a 	add	r8,r8,r8
 1802a14:	1105883a 	add	r2,r2,r4
 1802a18:	2089883a 	add	r4,r4,r2
 1802a1c:	003fa706 	br	18028bc <__ieee754_sqrt+0xa8>
 1802a20:	00bfffc4 	movi	r2,-1
 1802a24:	60802726 	beq	r12,r2,1802ac4 <__ieee754_sqrt+0x2b0>
 1802a28:	6080004c 	andi	r2,r12,1
 1802a2c:	6085883a 	add	r2,r12,r2
 1802a30:	100ed07a 	srli	r7,r2,1
 1802a34:	003fdb06 	br	18029a4 <__ieee754_sqrt+0x190>
 1802a38:	8009883a 	mov	r4,r16
 1802a3c:	800d883a 	mov	r6,r16
 1802a40:	18054a40 	call	18054a4 <__muldf3>
 1802a44:	180f883a 	mov	r7,r3
 1802a48:	880b883a 	mov	r5,r17
 1802a4c:	8009883a 	mov	r4,r16
 1802a50:	100d883a 	mov	r6,r2
 1802a54:	18054300 	call	1805430 <__adddf3>
 1802a58:	1021883a 	mov	r16,r2
 1802a5c:	1823883a 	mov	r17,r3
 1802a60:	8005883a 	mov	r2,r16
 1802a64:	8807883a 	mov	r3,r17
 1802a68:	dfc00217 	ldw	ra,8(sp)
 1802a6c:	dc400117 	ldw	r17,4(sp)
 1802a70:	dc000017 	ldw	r16,0(sp)
 1802a74:	dec00304 	addi	sp,sp,12
 1802a78:	f800283a 	ret
 1802a7c:	00a00034 	movhi	r2,32768
 1802a80:	10bfffc4 	addi	r2,r2,-1
 1802a84:	2884703a 	and	r2,r5,r2
 1802a88:	8084b03a 	or	r2,r16,r2
 1802a8c:	103fd126 	beq	r2,zero,18029d4 <__ieee754_sqrt+0x1c0>
 1802a90:	283f6d26 	beq	r5,zero,1802848 <__ieee754_sqrt+0x34>
 1802a94:	280f883a 	mov	r7,r5
 1802a98:	8009883a 	mov	r4,r16
 1802a9c:	800d883a 	mov	r6,r16
 1802aa0:	18053b00 	call	18053b0 <__subdf3>
 1802aa4:	1009883a 	mov	r4,r2
 1802aa8:	180b883a 	mov	r5,r3
 1802aac:	100d883a 	mov	r6,r2
 1802ab0:	180f883a 	mov	r7,r3
 1802ab4:	18058680 	call	1805868 <__divdf3>
 1802ab8:	1021883a 	mov	r16,r2
 1802abc:	1823883a 	mov	r17,r3
 1802ac0:	003fc406 	br	18029d4 <__ieee754_sqrt+0x1c0>
 1802ac4:	29400044 	addi	r5,r5,1
 1802ac8:	000f883a 	mov	r7,zero
 1802acc:	003fb506 	br	18029a4 <__ieee754_sqrt+0x190>
 1802ad0:	0009883a 	mov	r4,zero
 1802ad4:	00800804 	movi	r2,32
 1802ad8:	003f6b06 	br	1802888 <__ieee754_sqrt+0x74>

01802adc <__kernel_cos>:
 1802adc:	defff104 	addi	sp,sp,-60
 1802ae0:	00a00034 	movhi	r2,32768
 1802ae4:	10bfffc4 	addi	r2,r2,-1
 1802ae8:	dd800c15 	stw	r22,48(sp)
 1802aec:	116c703a 	and	r22,r2,r5
 1802af0:	0005883a 	mov	r2,zero
 1802af4:	dd000a15 	stw	r20,40(sp)
 1802af8:	d8800215 	stw	r2,8(sp)
 1802afc:	2029883a 	mov	r20,r4
 1802b00:	008f9034 	movhi	r2,15936
 1802b04:	10bfffc4 	addi	r2,r2,-1
 1802b08:	0009883a 	mov	r4,zero
 1802b0c:	dd400b15 	stw	r21,44(sp)
 1802b10:	dfc00e15 	stw	ra,56(sp)
 1802b14:	ddc00d15 	stw	r23,52(sp)
 1802b18:	dcc00915 	stw	r19,36(sp)
 1802b1c:	dc800815 	stw	r18,32(sp)
 1802b20:	dc400715 	stw	r17,28(sp)
 1802b24:	dc000615 	stw	r16,24(sp)
 1802b28:	282b883a 	mov	r21,r5
 1802b2c:	d9800415 	stw	r6,16(sp)
 1802b30:	d9c00515 	stw	r7,20(sp)
 1802b34:	d9000315 	stw	r4,12(sp)
 1802b38:	15809216 	blt	r2,r22,1802d84 <__kernel_cos+0x2a8>
 1802b3c:	a009883a 	mov	r4,r20
 1802b40:	1805dd80 	call	1805dd8 <__fixdfsi>
 1802b44:	10011c26 	beq	r2,zero,1802fb8 <__kernel_cos+0x4dc>
 1802b48:	a009883a 	mov	r4,r20
 1802b4c:	a80b883a 	mov	r5,r21
 1802b50:	a00d883a 	mov	r6,r20
 1802b54:	a80f883a 	mov	r7,r21
 1802b58:	18054a40 	call	18054a4 <__muldf3>
 1802b5c:	1021883a 	mov	r16,r2
 1802b60:	1823883a 	mov	r17,r3
 1802b64:	1025883a 	mov	r18,r2
 1802b68:	1827883a 	mov	r19,r3
 1802b6c:	00afa234 	movhi	r2,48776
 1802b70:	108e3504 	addi	r2,r2,14548
 1802b74:	00ef6a74 	movhi	r3,48553
 1802b78:	18feba44 	addi	r3,r3,-1303
 1802b7c:	8009883a 	mov	r4,r16
 1802b80:	880b883a 	mov	r5,r17
 1802b84:	180f883a 	mov	r7,r3
 1802b88:	100d883a 	mov	r6,r2
 1802b8c:	18054a40 	call	18054a4 <__muldf3>
 1802b90:	022f6d74 	movhi	r8,48565
 1802b94:	422c7104 	addi	r8,r8,-20028
 1802b98:	024f88b4 	movhi	r9,15906
 1802b9c:	4a7ba784 	addi	r9,r9,-4450
 1802ba0:	480f883a 	mov	r7,r9
 1802ba4:	400d883a 	mov	r6,r8
 1802ba8:	180b883a 	mov	r5,r3
 1802bac:	1009883a 	mov	r4,r2
 1802bb0:	18054300 	call	1805430 <__adddf3>
 1802bb4:	180f883a 	mov	r7,r3
 1802bb8:	8009883a 	mov	r4,r16
 1802bbc:	880b883a 	mov	r5,r17
 1802bc0:	100d883a 	mov	r6,r2
 1802bc4:	18054a40 	call	18054a4 <__muldf3>
 1802bc8:	02202734 	movhi	r8,32924
 1802bcc:	4214ab44 	addi	r8,r8,21165
 1802bd0:	024fa4b4 	movhi	r9,16018
 1802bd4:	4a5f93c4 	addi	r9,r9,32335
 1802bd8:	480f883a 	mov	r7,r9
 1802bdc:	400d883a 	mov	r6,r8
 1802be0:	180b883a 	mov	r5,r3
 1802be4:	1009883a 	mov	r4,r2
 1802be8:	18053b00 	call	18053b0 <__subdf3>
 1802bec:	180f883a 	mov	r7,r3
 1802bf0:	8009883a 	mov	r4,r16
 1802bf4:	880b883a 	mov	r5,r17
 1802bf8:	100d883a 	mov	r6,r2
 1802bfc:	18054a40 	call	18054a4 <__muldf3>
 1802c00:	020672f4 	movhi	r8,6603
 1802c04:	42056404 	addi	r8,r8,5520
 1802c08:	024fbeb4 	movhi	r9,16122
 1802c0c:	4a406804 	addi	r9,r9,416
 1802c10:	480f883a 	mov	r7,r9
 1802c14:	400d883a 	mov	r6,r8
 1802c18:	180b883a 	mov	r5,r3
 1802c1c:	1009883a 	mov	r4,r2
 1802c20:	18054300 	call	1805430 <__adddf3>
 1802c24:	180f883a 	mov	r7,r3
 1802c28:	8009883a 	mov	r4,r16
 1802c2c:	880b883a 	mov	r5,r17
 1802c30:	100d883a 	mov	r6,r2
 1802c34:	18054a40 	call	18054a4 <__muldf3>
 1802c38:	0205b074 	movhi	r8,5825
 1802c3c:	42145dc4 	addi	r8,r8,20855
 1802c40:	024fd5f4 	movhi	r9,16215
 1802c44:	4a705b04 	addi	r9,r9,-16020
 1802c48:	480f883a 	mov	r7,r9
 1802c4c:	400d883a 	mov	r6,r8
 1802c50:	180b883a 	mov	r5,r3
 1802c54:	1009883a 	mov	r4,r2
 1802c58:	18053b00 	call	18053b0 <__subdf3>
 1802c5c:	180f883a 	mov	r7,r3
 1802c60:	8009883a 	mov	r4,r16
 1802c64:	880b883a 	mov	r5,r17
 1802c68:	100d883a 	mov	r6,r2
 1802c6c:	18054a40 	call	18054a4 <__muldf3>
 1802c70:	02155574 	movhi	r8,21845
 1802c74:	42155304 	addi	r8,r8,21836
 1802c78:	024fe974 	movhi	r9,16293
 1802c7c:	4a555544 	addi	r9,r9,21845
 1802c80:	480f883a 	mov	r7,r9
 1802c84:	400d883a 	mov	r6,r8
 1802c88:	180b883a 	mov	r5,r3
 1802c8c:	1009883a 	mov	r4,r2
 1802c90:	18054300 	call	1805430 <__adddf3>
 1802c94:	180f883a 	mov	r7,r3
 1802c98:	880b883a 	mov	r5,r17
 1802c9c:	8009883a 	mov	r4,r16
 1802ca0:	100d883a 	mov	r6,r2
 1802ca4:	18054a40 	call	18054a4 <__muldf3>
 1802ca8:	1021883a 	mov	r16,r2
 1802cac:	1823883a 	mov	r17,r3
 1802cb0:	0005883a 	mov	r2,zero
 1802cb4:	00cff834 	movhi	r3,16352
 1802cb8:	9009883a 	mov	r4,r18
 1802cbc:	980b883a 	mov	r5,r19
 1802cc0:	180f883a 	mov	r7,r3
 1802cc4:	100d883a 	mov	r6,r2
 1802cc8:	18054a40 	call	18054a4 <__muldf3>
 1802ccc:	980b883a 	mov	r5,r19
 1802cd0:	880f883a 	mov	r7,r17
 1802cd4:	9009883a 	mov	r4,r18
 1802cd8:	800d883a 	mov	r6,r16
 1802cdc:	1025883a 	mov	r18,r2
 1802ce0:	1827883a 	mov	r19,r3
 1802ce4:	18054a40 	call	18054a4 <__muldf3>
 1802ce8:	d9c00517 	ldw	r7,20(sp)
 1802cec:	d9800417 	ldw	r6,16(sp)
 1802cf0:	a80b883a 	mov	r5,r21
 1802cf4:	a009883a 	mov	r4,r20
 1802cf8:	1021883a 	mov	r16,r2
 1802cfc:	1823883a 	mov	r17,r3
 1802d00:	18054a40 	call	18054a4 <__muldf3>
 1802d04:	180f883a 	mov	r7,r3
 1802d08:	880b883a 	mov	r5,r17
 1802d0c:	8009883a 	mov	r4,r16
 1802d10:	100d883a 	mov	r6,r2
 1802d14:	18053b00 	call	18053b0 <__subdf3>
 1802d18:	180f883a 	mov	r7,r3
 1802d1c:	980b883a 	mov	r5,r19
 1802d20:	9009883a 	mov	r4,r18
 1802d24:	100d883a 	mov	r6,r2
 1802d28:	18053b00 	call	18053b0 <__subdf3>
 1802d2c:	0011883a 	mov	r8,zero
 1802d30:	024ffc34 	movhi	r9,16368
 1802d34:	480b883a 	mov	r5,r9
 1802d38:	180f883a 	mov	r7,r3
 1802d3c:	4009883a 	mov	r4,r8
 1802d40:	100d883a 	mov	r6,r2
 1802d44:	18053b00 	call	18053b0 <__subdf3>
 1802d48:	100d883a 	mov	r6,r2
 1802d4c:	180f883a 	mov	r7,r3
 1802d50:	3005883a 	mov	r2,r6
 1802d54:	3807883a 	mov	r3,r7
 1802d58:	dfc00e17 	ldw	ra,56(sp)
 1802d5c:	ddc00d17 	ldw	r23,52(sp)
 1802d60:	dd800c17 	ldw	r22,48(sp)
 1802d64:	dd400b17 	ldw	r21,44(sp)
 1802d68:	dd000a17 	ldw	r20,40(sp)
 1802d6c:	dcc00917 	ldw	r19,36(sp)
 1802d70:	dc800817 	ldw	r18,32(sp)
 1802d74:	dc400717 	ldw	r17,28(sp)
 1802d78:	dc000617 	ldw	r16,24(sp)
 1802d7c:	dec00f04 	addi	sp,sp,60
 1802d80:	f800283a 	ret
 1802d84:	280f883a 	mov	r7,r5
 1802d88:	a009883a 	mov	r4,r20
 1802d8c:	a00d883a 	mov	r6,r20
 1802d90:	18054a40 	call	18054a4 <__muldf3>
 1802d94:	1021883a 	mov	r16,r2
 1802d98:	1823883a 	mov	r17,r3
 1802d9c:	1025883a 	mov	r18,r2
 1802da0:	1827883a 	mov	r19,r3
 1802da4:	00afa234 	movhi	r2,48776
 1802da8:	108e3504 	addi	r2,r2,14548
 1802dac:	00ef6a74 	movhi	r3,48553
 1802db0:	18feba44 	addi	r3,r3,-1303
 1802db4:	8009883a 	mov	r4,r16
 1802db8:	880b883a 	mov	r5,r17
 1802dbc:	180f883a 	mov	r7,r3
 1802dc0:	100d883a 	mov	r6,r2
 1802dc4:	18054a40 	call	18054a4 <__muldf3>
 1802dc8:	022f6d74 	movhi	r8,48565
 1802dcc:	422c7104 	addi	r8,r8,-20028
 1802dd0:	024f88b4 	movhi	r9,15906
 1802dd4:	4a7ba784 	addi	r9,r9,-4450
 1802dd8:	480f883a 	mov	r7,r9
 1802ddc:	400d883a 	mov	r6,r8
 1802de0:	180b883a 	mov	r5,r3
 1802de4:	1009883a 	mov	r4,r2
 1802de8:	18054300 	call	1805430 <__adddf3>
 1802dec:	180f883a 	mov	r7,r3
 1802df0:	8009883a 	mov	r4,r16
 1802df4:	880b883a 	mov	r5,r17
 1802df8:	100d883a 	mov	r6,r2
 1802dfc:	18054a40 	call	18054a4 <__muldf3>
 1802e00:	02202734 	movhi	r8,32924
 1802e04:	4214ab44 	addi	r8,r8,21165
 1802e08:	024fa4b4 	movhi	r9,16018
 1802e0c:	4a5f93c4 	addi	r9,r9,32335
 1802e10:	480f883a 	mov	r7,r9
 1802e14:	400d883a 	mov	r6,r8
 1802e18:	180b883a 	mov	r5,r3
 1802e1c:	1009883a 	mov	r4,r2
 1802e20:	18053b00 	call	18053b0 <__subdf3>
 1802e24:	180f883a 	mov	r7,r3
 1802e28:	8009883a 	mov	r4,r16
 1802e2c:	880b883a 	mov	r5,r17
 1802e30:	100d883a 	mov	r6,r2
 1802e34:	18054a40 	call	18054a4 <__muldf3>
 1802e38:	020672f4 	movhi	r8,6603
 1802e3c:	42056404 	addi	r8,r8,5520
 1802e40:	024fbeb4 	movhi	r9,16122
 1802e44:	4a406804 	addi	r9,r9,416
 1802e48:	480f883a 	mov	r7,r9
 1802e4c:	400d883a 	mov	r6,r8
 1802e50:	180b883a 	mov	r5,r3
 1802e54:	1009883a 	mov	r4,r2
 1802e58:	18054300 	call	1805430 <__adddf3>
 1802e5c:	180f883a 	mov	r7,r3
 1802e60:	8009883a 	mov	r4,r16
 1802e64:	880b883a 	mov	r5,r17
 1802e68:	100d883a 	mov	r6,r2
 1802e6c:	18054a40 	call	18054a4 <__muldf3>
 1802e70:	0205b074 	movhi	r8,5825
 1802e74:	42145dc4 	addi	r8,r8,20855
 1802e78:	024fd5f4 	movhi	r9,16215
 1802e7c:	4a705b04 	addi	r9,r9,-16020
 1802e80:	480f883a 	mov	r7,r9
 1802e84:	400d883a 	mov	r6,r8
 1802e88:	180b883a 	mov	r5,r3
 1802e8c:	1009883a 	mov	r4,r2
 1802e90:	18053b00 	call	18053b0 <__subdf3>
 1802e94:	180f883a 	mov	r7,r3
 1802e98:	8009883a 	mov	r4,r16
 1802e9c:	880b883a 	mov	r5,r17
 1802ea0:	100d883a 	mov	r6,r2
 1802ea4:	18054a40 	call	18054a4 <__muldf3>
 1802ea8:	02155574 	movhi	r8,21845
 1802eac:	42155304 	addi	r8,r8,21836
 1802eb0:	024fe974 	movhi	r9,16293
 1802eb4:	4a555544 	addi	r9,r9,21845
 1802eb8:	480f883a 	mov	r7,r9
 1802ebc:	400d883a 	mov	r6,r8
 1802ec0:	180b883a 	mov	r5,r3
 1802ec4:	1009883a 	mov	r4,r2
 1802ec8:	18054300 	call	1805430 <__adddf3>
 1802ecc:	180f883a 	mov	r7,r3
 1802ed0:	880b883a 	mov	r5,r17
 1802ed4:	8009883a 	mov	r4,r16
 1802ed8:	100d883a 	mov	r6,r2
 1802edc:	18054a40 	call	18054a4 <__muldf3>
 1802ee0:	1021883a 	mov	r16,r2
 1802ee4:	008ff4f4 	movhi	r2,16339
 1802ee8:	108ccc84 	addi	r2,r2,13106
 1802eec:	1823883a 	mov	r17,r3
 1802ef0:	15bf6f0e 	bge	r2,r22,1802cb0 <__kernel_cos+0x1d4>
 1802ef4:	008ffa74 	movhi	r2,16361
 1802ef8:	1580320e 	bge	r2,r22,1802fc4 <__kernel_cos+0x4e8>
 1802efc:	0005883a 	mov	r2,zero
 1802f00:	010ff9f4 	movhi	r4,16359
 1802f04:	002d883a 	mov	r22,zero
 1802f08:	d8800015 	stw	r2,0(sp)
 1802f0c:	05cff4b4 	movhi	r23,16338
 1802f10:	d9000115 	stw	r4,4(sp)
 1802f14:	0005883a 	mov	r2,zero
 1802f18:	00cff834 	movhi	r3,16352
 1802f1c:	9009883a 	mov	r4,r18
 1802f20:	980b883a 	mov	r5,r19
 1802f24:	180f883a 	mov	r7,r3
 1802f28:	100d883a 	mov	r6,r2
 1802f2c:	18054a40 	call	18054a4 <__muldf3>
 1802f30:	180b883a 	mov	r5,r3
 1802f34:	b80f883a 	mov	r7,r23
 1802f38:	1009883a 	mov	r4,r2
 1802f3c:	b00d883a 	mov	r6,r22
 1802f40:	18053b00 	call	18053b0 <__subdf3>
 1802f44:	980b883a 	mov	r5,r19
 1802f48:	880f883a 	mov	r7,r17
 1802f4c:	9009883a 	mov	r4,r18
 1802f50:	800d883a 	mov	r6,r16
 1802f54:	1025883a 	mov	r18,r2
 1802f58:	1827883a 	mov	r19,r3
 1802f5c:	18054a40 	call	18054a4 <__muldf3>
 1802f60:	d9c00517 	ldw	r7,20(sp)
 1802f64:	d9800417 	ldw	r6,16(sp)
 1802f68:	a80b883a 	mov	r5,r21
 1802f6c:	a009883a 	mov	r4,r20
 1802f70:	1021883a 	mov	r16,r2
 1802f74:	1823883a 	mov	r17,r3
 1802f78:	18054a40 	call	18054a4 <__muldf3>
 1802f7c:	180f883a 	mov	r7,r3
 1802f80:	880b883a 	mov	r5,r17
 1802f84:	8009883a 	mov	r4,r16
 1802f88:	100d883a 	mov	r6,r2
 1802f8c:	18053b00 	call	18053b0 <__subdf3>
 1802f90:	180f883a 	mov	r7,r3
 1802f94:	980b883a 	mov	r5,r19
 1802f98:	9009883a 	mov	r4,r18
 1802f9c:	100d883a 	mov	r6,r2
 1802fa0:	18053b00 	call	18053b0 <__subdf3>
 1802fa4:	d9400117 	ldw	r5,4(sp)
 1802fa8:	d9000017 	ldw	r4,0(sp)
 1802fac:	180f883a 	mov	r7,r3
 1802fb0:	100d883a 	mov	r6,r2
 1802fb4:	003f6306 	br	1802d44 <__kernel_cos+0x268>
 1802fb8:	000d883a 	mov	r6,zero
 1802fbc:	01cffc34 	movhi	r7,16368
 1802fc0:	003f6306 	br	1802d50 <__kernel_cos+0x274>
 1802fc4:	00bff834 	movhi	r2,65504
 1802fc8:	b0ad883a 	add	r22,r22,r2
 1802fcc:	dd800315 	stw	r22,12(sp)
 1802fd0:	d9000317 	ldw	r4,12(sp)
 1802fd4:	0005883a 	mov	r2,zero
 1802fd8:	00cffc34 	movhi	r3,16368
 1802fdc:	002d883a 	mov	r22,zero
 1802fe0:	200f883a 	mov	r7,r4
 1802fe4:	202f883a 	mov	r23,r4
 1802fe8:	180b883a 	mov	r5,r3
 1802fec:	1009883a 	mov	r4,r2
 1802ff0:	b00d883a 	mov	r6,r22
 1802ff4:	d8800215 	stw	r2,8(sp)
 1802ff8:	18053b00 	call	18053b0 <__subdf3>
 1802ffc:	d8800015 	stw	r2,0(sp)
 1803000:	d8c00115 	stw	r3,4(sp)
 1803004:	003fc306 	br	1802f14 <__kernel_cos+0x438>

01803008 <__kernel_rem_pio2>:
 1803008:	deff5304 	addi	sp,sp,-692
 180300c:	d880ad17 	ldw	r2,692(sp)
 1803010:	d9009615 	stw	r4,600(sp)
 1803014:	d9409715 	stw	r5,604(sp)
 1803018:	1087883a 	add	r3,r2,r2
 180301c:	18c7883a 	add	r3,r3,r3
 1803020:	00806074 	movhi	r2,385
 1803024:	1095ec04 	addi	r2,r2,22448
 1803028:	1887883a 	add	r3,r3,r2
 180302c:	18c00017 	ldw	r3,0(r3)
 1803030:	313fff44 	addi	r4,r6,-3
 1803034:	01400604 	movi	r5,24
 1803038:	df00ab15 	stw	fp,684(sp)
 180303c:	dc00a315 	stw	r16,652(sp)
 1803040:	d8c09515 	stw	r3,596(sp)
 1803044:	dfc0ac15 	stw	ra,688(sp)
 1803048:	ddc0aa15 	stw	r23,680(sp)
 180304c:	dd80a915 	stw	r22,676(sp)
 1803050:	dd40a815 	stw	r21,672(sp)
 1803054:	dd00a715 	stw	r20,668(sp)
 1803058:	dcc0a615 	stw	r19,664(sp)
 180305c:	dc80a515 	stw	r18,660(sp)
 1803060:	dc40a415 	stw	r17,656(sp)
 1803064:	3021883a 	mov	r16,r6
 1803068:	d9c09815 	stw	r7,608(sp)
 180306c:	1805fd80 	call	1805fd8 <__divsi3>
 1803070:	d8c09817 	ldw	r3,608(sp)
 1803074:	d8808c15 	stw	r2,560(sp)
 1803078:	1f3fffc4 	addi	fp,r3,-1
 180307c:	10031816 	blt	r2,zero,1803ce0 <__kernel_rem_pio2+0xcd8>
 1803080:	d9008c17 	ldw	r4,560(sp)
 1803084:	d9409517 	ldw	r5,596(sp)
 1803088:	20bffa24 	muli	r2,r4,-24
 180308c:	2f07883a 	add	r3,r5,fp
 1803090:	8085883a 	add	r2,r16,r2
 1803094:	10bffa04 	addi	r2,r2,-24
 1803098:	d8809315 	stw	r2,588(sp)
 180309c:	18001516 	blt	r3,zero,18030f4 <__kernel_rem_pio2+0xec>
 18030a0:	2721c83a 	sub	r16,r4,fp
 18030a4:	d980ae17 	ldw	r6,696(sp)
 18030a8:	8405883a 	add	r2,r16,r16
 18030ac:	1085883a 	add	r2,r2,r2
 18030b0:	30a3883a 	add	r17,r6,r2
 18030b4:	80e7883a 	add	r19,r16,r3
 18030b8:	dc801404 	addi	r18,sp,80
 18030bc:	00000106 	br	18030c4 <__kernel_rem_pio2+0xbc>
 18030c0:	84000044 	addi	r16,r16,1
 18030c4:	0009883a 	mov	r4,zero
 18030c8:	000b883a 	mov	r5,zero
 18030cc:	80000416 	blt	r16,zero,18030e0 <__kernel_rem_pio2+0xd8>
 18030d0:	89000017 	ldw	r4,0(r17)
 18030d4:	1805ce00 	call	1805ce0 <__floatsidf>
 18030d8:	1009883a 	mov	r4,r2
 18030dc:	180b883a 	mov	r5,r3
 18030e0:	91400115 	stw	r5,4(r18)
 18030e4:	91000015 	stw	r4,0(r18)
 18030e8:	8c400104 	addi	r17,r17,4
 18030ec:	94800204 	addi	r18,r18,8
 18030f0:	84fff31e 	bne	r16,r19,18030c0 <__kernel_rem_pio2+0xb8>
 18030f4:	d9c09517 	ldw	r7,596(sp)
 18030f8:	38002416 	blt	r7,zero,180318c <__kernel_rem_pio2+0x184>
 18030fc:	da809817 	ldw	r10,608(sp)
 1803100:	e029883a 	mov	r20,fp
 1803104:	dd406404 	addi	r21,sp,400
 1803108:	3aaf883a 	add	r23,r7,r10
 180310c:	e02c403a 	cmpge	r22,fp,zero
 1803110:	b0023e26 	beq	r22,zero,1803a0c <__kernel_rem_pio2+0xa04>
 1803114:	dcc09617 	ldw	r19,600(sp)
 1803118:	0021883a 	mov	r16,zero
 180311c:	0025883a 	mov	r18,zero
 1803120:	0023883a 	mov	r17,zero
 1803124:	a489c83a 	sub	r4,r20,r18
 1803128:	200890fa 	slli	r4,r4,3
 180312c:	99800017 	ldw	r6,0(r19)
 1803130:	99c00117 	ldw	r7,4(r19)
 1803134:	26c9883a 	add	r4,r4,sp
 1803138:	20c01517 	ldw	r3,84(r4)
 180313c:	20801417 	ldw	r2,80(r4)
 1803140:	94800044 	addi	r18,r18,1
 1803144:	180b883a 	mov	r5,r3
 1803148:	1009883a 	mov	r4,r2
 180314c:	18054a40 	call	18054a4 <__muldf3>
 1803150:	180f883a 	mov	r7,r3
 1803154:	880b883a 	mov	r5,r17
 1803158:	8009883a 	mov	r4,r16
 180315c:	100d883a 	mov	r6,r2
 1803160:	18054300 	call	1805430 <__adddf3>
 1803164:	1021883a 	mov	r16,r2
 1803168:	d8809817 	ldw	r2,608(sp)
 180316c:	9cc00204 	addi	r19,r19,8
 1803170:	1823883a 	mov	r17,r3
 1803174:	14bfeb1e 	bne	r2,r18,1803124 <__kernel_rem_pio2+0x11c>
 1803178:	a5000044 	addi	r20,r20,1
 180317c:	ac400115 	stw	r17,4(r21)
 1803180:	ac000015 	stw	r16,0(r21)
 1803184:	ad400204 	addi	r21,r21,8
 1803188:	a5ffe11e 	bne	r20,r23,1803110 <__kernel_rem_pio2+0x108>
 180318c:	d8c09517 	ldw	r3,596(sp)
 1803190:	d9409317 	ldw	r5,588(sp)
 1803194:	e038403a 	cmpge	fp,fp,zero
 1803198:	d8c08d15 	stw	r3,564(sp)
 180319c:	d9008d17 	ldw	r4,564(sp)
 18031a0:	18c5883a 	add	r2,r3,r3
 18031a4:	10c7883a 	add	r3,r2,r3
 18031a8:	1907883a 	add	r3,r3,r4
 18031ac:	1085883a 	add	r2,r2,r2
 18031b0:	16c5883a 	add	r2,r2,sp
 18031b4:	1ec7883a 	add	r3,r3,sp
 18031b8:	29400050 	cmplti	r5,r5,1
 18031bc:	df00a215 	stw	fp,648(sp)
 18031c0:	d8809915 	stw	r2,612(sp)
 18031c4:	d8c0a115 	stw	r3,644(sp)
 18031c8:	d940a015 	stw	r5,640(sp)
 18031cc:	d9808d17 	ldw	r6,564(sp)
 18031d0:	300490fa 	slli	r2,r6,3
 18031d4:	16c5883a 	add	r2,r2,sp
 18031d8:	15006417 	ldw	r20,400(r2)
 18031dc:	15406517 	ldw	r21,404(r2)
 18031e0:	01802e0e 	bge	zero,r6,180329c <__kernel_rem_pio2+0x294>
 18031e4:	102d883a 	mov	r22,r2
 18031e8:	302f883a 	mov	r23,r6
 18031ec:	d839883a 	mov	fp,sp
 18031f0:	0005883a 	mov	r2,zero
 18031f4:	00cf9c34 	movhi	r3,15984
 18031f8:	180f883a 	mov	r7,r3
 18031fc:	100d883a 	mov	r6,r2
 1803200:	a009883a 	mov	r4,r20
 1803204:	a80b883a 	mov	r5,r21
 1803208:	18054a40 	call	18054a4 <__muldf3>
 180320c:	180b883a 	mov	r5,r3
 1803210:	1009883a 	mov	r4,r2
 1803214:	1805dd80 	call	1805dd8 <__fixdfsi>
 1803218:	1009883a 	mov	r4,r2
 180321c:	1805ce00 	call	1805ce0 <__floatsidf>
 1803220:	1021883a 	mov	r16,r2
 1803224:	1823883a 	mov	r17,r3
 1803228:	0005883a 	mov	r2,zero
 180322c:	00f05c34 	movhi	r3,49520
 1803230:	180f883a 	mov	r7,r3
 1803234:	8009883a 	mov	r4,r16
 1803238:	880b883a 	mov	r5,r17
 180323c:	100d883a 	mov	r6,r2
 1803240:	18054a40 	call	18054a4 <__muldf3>
 1803244:	180b883a 	mov	r5,r3
 1803248:	a80f883a 	mov	r7,r21
 180324c:	a00d883a 	mov	r6,r20
 1803250:	1009883a 	mov	r4,r2
 1803254:	18054300 	call	1805430 <__adddf3>
 1803258:	180b883a 	mov	r5,r3
 180325c:	1009883a 	mov	r4,r2
 1803260:	1805dd80 	call	1805dd8 <__fixdfsi>
 1803264:	e0800015 	stw	r2,0(fp)
 1803268:	b5bffe04 	addi	r22,r22,-8
 180326c:	b0806417 	ldw	r2,400(r22)
 1803270:	b0c06517 	ldw	r3,404(r22)
 1803274:	8009883a 	mov	r4,r16
 1803278:	880b883a 	mov	r5,r17
 180327c:	180f883a 	mov	r7,r3
 1803280:	100d883a 	mov	r6,r2
 1803284:	18054300 	call	1805430 <__adddf3>
 1803288:	bdffffc4 	addi	r23,r23,-1
 180328c:	e7000104 	addi	fp,fp,4
 1803290:	1029883a 	mov	r20,r2
 1803294:	182b883a 	mov	r21,r3
 1803298:	b83fd51e 	bne	r23,zero,18031f0 <__kernel_rem_pio2+0x1e8>
 180329c:	d9809317 	ldw	r6,588(sp)
 18032a0:	a80b883a 	mov	r5,r21
 18032a4:	a009883a 	mov	r4,r20
 18032a8:	1804aa80 	call	1804aa8 <scalbn>
 18032ac:	0009883a 	mov	r4,zero
 18032b0:	014ff034 	movhi	r5,16320
 18032b4:	280f883a 	mov	r7,r5
 18032b8:	200d883a 	mov	r6,r4
 18032bc:	180b883a 	mov	r5,r3
 18032c0:	1009883a 	mov	r4,r2
 18032c4:	1021883a 	mov	r16,r2
 18032c8:	1823883a 	mov	r17,r3
 18032cc:	18054a40 	call	18054a4 <__muldf3>
 18032d0:	180b883a 	mov	r5,r3
 18032d4:	1009883a 	mov	r4,r2
 18032d8:	180484c0 	call	180484c <floor>
 18032dc:	0011883a 	mov	r8,zero
 18032e0:	02700834 	movhi	r9,49184
 18032e4:	480f883a 	mov	r7,r9
 18032e8:	400d883a 	mov	r6,r8
 18032ec:	180b883a 	mov	r5,r3
 18032f0:	1009883a 	mov	r4,r2
 18032f4:	18054a40 	call	18054a4 <__muldf3>
 18032f8:	180f883a 	mov	r7,r3
 18032fc:	100d883a 	mov	r6,r2
 1803300:	880b883a 	mov	r5,r17
 1803304:	8009883a 	mov	r4,r16
 1803308:	18054300 	call	1805430 <__adddf3>
 180330c:	180b883a 	mov	r5,r3
 1803310:	1009883a 	mov	r4,r2
 1803314:	1823883a 	mov	r17,r3
 1803318:	1021883a 	mov	r16,r2
 180331c:	1805dd80 	call	1805dd8 <__fixdfsi>
 1803320:	1009883a 	mov	r4,r2
 1803324:	d8809415 	stw	r2,592(sp)
 1803328:	1805ce00 	call	1805ce0 <__floatsidf>
 180332c:	880b883a 	mov	r5,r17
 1803330:	8009883a 	mov	r4,r16
 1803334:	180f883a 	mov	r7,r3
 1803338:	100d883a 	mov	r6,r2
 180333c:	18053b00 	call	18053b0 <__subdf3>
 1803340:	d9c0a017 	ldw	r7,640(sp)
 1803344:	180d883a 	mov	r6,r3
 1803348:	1021883a 	mov	r16,r2
 180334c:	1823883a 	mov	r17,r3
 1803350:	38017d1e 	bne	r7,zero,1803948 <__kernel_rem_pio2+0x940>
 1803354:	da808d17 	ldw	r10,564(sp)
 1803358:	d9009317 	ldw	r4,588(sp)
 180335c:	00c00604 	movi	r3,24
 1803360:	50bfffc4 	addi	r2,r10,-1
 1803364:	1085883a 	add	r2,r2,r2
 1803368:	1085883a 	add	r2,r2,r2
 180336c:	16c5883a 	add	r2,r2,sp
 1803370:	11400017 	ldw	r5,0(r2)
 1803374:	1907c83a 	sub	r3,r3,r4
 1803378:	d9c09317 	ldw	r7,588(sp)
 180337c:	28cdd83a 	sra	r6,r5,r3
 1803380:	010005c4 	movi	r4,23
 1803384:	da809417 	ldw	r10,592(sp)
 1803388:	30c6983a 	sll	r3,r6,r3
 180338c:	21c9c83a 	sub	r4,r4,r7
 1803390:	5195883a 	add	r10,r10,r6
 1803394:	28cbc83a 	sub	r5,r5,r3
 1803398:	2909d83a 	sra	r4,r5,r4
 180339c:	da809415 	stw	r10,592(sp)
 18033a0:	11400015 	stw	r5,0(r2)
 18033a4:	d9009215 	stw	r4,584(sp)
 18033a8:	d9409217 	ldw	r5,584(sp)
 18033ac:	0140270e 	bge	zero,r5,180344c <__kernel_rem_pio2+0x444>
 18033b0:	d9809417 	ldw	r6,592(sp)
 18033b4:	d9c08d17 	ldw	r7,564(sp)
 18033b8:	31800044 	addi	r6,r6,1
 18033bc:	d9809415 	stw	r6,592(sp)
 18033c0:	01c1a50e 	bge	zero,r7,1803a58 <__kernel_rem_pio2+0xa50>
 18033c4:	002d883a 	mov	r22,zero
 18033c8:	000b883a 	mov	r5,zero
 18033cc:	d809883a 	mov	r4,sp
 18033d0:	01c04034 	movhi	r7,256
 18033d4:	01804034 	movhi	r6,256
 18033d8:	31bfffc4 	addi	r6,r6,-1
 18033dc:	00000806 	br	1803400 <__kernel_rem_pio2+0x3f8>
 18033e0:	38c5c83a 	sub	r2,r7,r3
 18033e4:	18000226 	beq	r3,zero,18033f0 <__kernel_rem_pio2+0x3e8>
 18033e8:	05800044 	movi	r22,1
 18033ec:	20800015 	stw	r2,0(r4)
 18033f0:	da808d17 	ldw	r10,564(sp)
 18033f4:	29400044 	addi	r5,r5,1
 18033f8:	21000104 	addi	r4,r4,4
 18033fc:	51400926 	beq	r10,r5,1803424 <__kernel_rem_pio2+0x41c>
 1803400:	b004c03a 	cmpne	r2,r22,zero
 1803404:	20c00017 	ldw	r3,0(r4)
 1803408:	103ff526 	beq	r2,zero,18033e0 <__kernel_rem_pio2+0x3d8>
 180340c:	da808d17 	ldw	r10,564(sp)
 1803410:	30c5c83a 	sub	r2,r6,r3
 1803414:	29400044 	addi	r5,r5,1
 1803418:	20800015 	stw	r2,0(r4)
 180341c:	21000104 	addi	r4,r4,4
 1803420:	517ff71e 	bne	r10,r5,1803400 <__kernel_rem_pio2+0x3f8>
 1803424:	d880a017 	ldw	r2,640(sp)
 1803428:	1000051e 	bne	r2,zero,1803440 <__kernel_rem_pio2+0x438>
 180342c:	d8c09317 	ldw	r3,588(sp)
 1803430:	00800044 	movi	r2,1
 1803434:	18814e26 	beq	r3,r2,1803970 <__kernel_rem_pio2+0x968>
 1803438:	00800084 	movi	r2,2
 180343c:	18815826 	beq	r3,r2,18039a0 <__kernel_rem_pio2+0x998>
 1803440:	d9c09217 	ldw	r7,584(sp)
 1803444:	00800084 	movi	r2,2
 1803448:	38806926 	beq	r7,r2,18035f0 <__kernel_rem_pio2+0x5e8>
 180344c:	000d883a 	mov	r6,zero
 1803450:	000f883a 	mov	r7,zero
 1803454:	8009883a 	mov	r4,r16
 1803458:	880b883a 	mov	r5,r17
 180345c:	1805ac00 	call	1805ac0 <__eqdf2>
 1803460:	1000811e 	bne	r2,zero,1803668 <__kernel_rem_pio2+0x660>
 1803464:	da808d17 	ldw	r10,564(sp)
 1803468:	d8809517 	ldw	r2,596(sp)
 180346c:	51bfffc4 	addi	r6,r10,-1
 1803470:	30800c16 	blt	r6,r2,18034a4 <__kernel_rem_pio2+0x49c>
 1803474:	3185883a 	add	r2,r6,r6
 1803478:	1085883a 	add	r2,r2,r2
 180347c:	16c9883a 	add	r4,r2,sp
 1803480:	3007883a 	mov	r3,r6
 1803484:	000b883a 	mov	r5,zero
 1803488:	20800017 	ldw	r2,0(r4)
 180348c:	d9c09517 	ldw	r7,596(sp)
 1803490:	18ffffc4 	addi	r3,r3,-1
 1803494:	213fff04 	addi	r4,r4,-4
 1803498:	288ab03a 	or	r5,r5,r2
 180349c:	19fffa0e 	bge	r3,r7,1803488 <__kernel_rem_pio2+0x480>
 18034a0:	2800791e 	bne	r5,zero,1803688 <__kernel_rem_pio2+0x680>
 18034a4:	da809917 	ldw	r10,612(sp)
 18034a8:	50bfff17 	ldw	r2,-4(r10)
 18034ac:	1001511e 	bne	r2,zero,18039f4 <__kernel_rem_pio2+0x9ec>
 18034b0:	d880a117 	ldw	r2,644(sp)
 18034b4:	01000044 	movi	r4,1
 18034b8:	10ffff04 	addi	r3,r2,-4
 18034bc:	18ffff04 	addi	r3,r3,-4
 18034c0:	18800017 	ldw	r2,0(r3)
 18034c4:	21000044 	addi	r4,r4,1
 18034c8:	103ffc26 	beq	r2,zero,18034bc <__kernel_rem_pio2+0x4b4>
 18034cc:	d8c08d17 	ldw	r3,564(sp)
 18034d0:	192f883a 	add	r23,r3,r4
 18034d4:	1f000044 	addi	fp,r3,1
 18034d8:	bf00020e 	bge	r23,fp,18034e4 <__kernel_rem_pio2+0x4dc>
 18034dc:	ddc08d15 	stw	r23,564(sp)
 18034e0:	003f3a06 	br	18031cc <__kernel_rem_pio2+0x1c4>
 18034e4:	d9408c17 	ldw	r5,560(sp)
 18034e8:	d9009817 	ldw	r4,608(sp)
 18034ec:	da80ae17 	ldw	r10,696(sp)
 18034f0:	1945883a 	add	r2,r3,r5
 18034f4:	190f883a 	add	r7,r3,r4
 18034f8:	1085883a 	add	r2,r2,r2
 18034fc:	380a90fa 	slli	r5,r7,3
 1803500:	e00c90fa 	slli	r6,fp,3
 1803504:	1085883a 	add	r2,r2,r2
 1803508:	5085883a 	add	r2,r10,r2
 180350c:	d8c01404 	addi	r3,sp,80
 1803510:	d9006404 	addi	r4,sp,400
 1803514:	10800104 	addi	r2,r2,4
 1803518:	196b883a 	add	r21,r3,r5
 180351c:	21a1883a 	add	r16,r4,r6
 1803520:	d8809115 	stw	r2,580(sp)
 1803524:	d9c09015 	stw	r7,576(sp)
 1803528:	d8809117 	ldw	r2,580(sp)
 180352c:	11000017 	ldw	r4,0(r2)
 1803530:	1805ce00 	call	1805ce0 <__floatsidf>
 1803534:	a8c00115 	stw	r3,4(r21)
 1803538:	d8c0a217 	ldw	r3,648(sp)
 180353c:	a8800015 	stw	r2,0(r21)
 1803540:	18002826 	beq	r3,zero,18035e4 <__kernel_rem_pio2+0x5dc>
 1803544:	d9009017 	ldw	r4,576(sp)
 1803548:	dd009617 	ldw	r20,600(sp)
 180354c:	0023883a 	mov	r17,zero
 1803550:	200490fa 	slli	r2,r4,3
 1803554:	002d883a 	mov	r22,zero
 1803558:	0025883a 	mov	r18,zero
 180355c:	16e7883a 	add	r19,r2,sp
 1803560:	98801417 	ldw	r2,80(r19)
 1803564:	98c01517 	ldw	r3,84(r19)
 1803568:	a1800017 	ldw	r6,0(r20)
 180356c:	a1c00117 	ldw	r7,4(r20)
 1803570:	180b883a 	mov	r5,r3
 1803574:	1009883a 	mov	r4,r2
 1803578:	18054a40 	call	18054a4 <__muldf3>
 180357c:	180f883a 	mov	r7,r3
 1803580:	900b883a 	mov	r5,r18
 1803584:	8809883a 	mov	r4,r17
 1803588:	100d883a 	mov	r6,r2
 180358c:	18054300 	call	1805430 <__adddf3>
 1803590:	d9409817 	ldw	r5,608(sp)
 1803594:	b5800044 	addi	r22,r22,1
 1803598:	9cfffe04 	addi	r19,r19,-8
 180359c:	1023883a 	mov	r17,r2
 18035a0:	1825883a 	mov	r18,r3
 18035a4:	a5000204 	addi	r20,r20,8
 18035a8:	2dbfed1e 	bne	r5,r22,1803560 <__kernel_rem_pio2+0x558>
 18035ac:	d9809117 	ldw	r6,580(sp)
 18035b0:	d9c09017 	ldw	r7,576(sp)
 18035b4:	e7000044 	addi	fp,fp,1
 18035b8:	31800104 	addi	r6,r6,4
 18035bc:	39c00044 	addi	r7,r7,1
 18035c0:	84800115 	stw	r18,4(r16)
 18035c4:	84400015 	stw	r17,0(r16)
 18035c8:	d9809115 	stw	r6,580(sp)
 18035cc:	ad400204 	addi	r21,r21,8
 18035d0:	84000204 	addi	r16,r16,8
 18035d4:	d9c09015 	stw	r7,576(sp)
 18035d8:	bf3fd30e 	bge	r23,fp,1803528 <__kernel_rem_pio2+0x520>
 18035dc:	ddc08d15 	stw	r23,564(sp)
 18035e0:	003efa06 	br	18031cc <__kernel_rem_pio2+0x1c4>
 18035e4:	0023883a 	mov	r17,zero
 18035e8:	0025883a 	mov	r18,zero
 18035ec:	003fef06 	br	18035ac <__kernel_rem_pio2+0x5a4>
 18035f0:	0029883a 	mov	r20,zero
 18035f4:	054ffc34 	movhi	r21,16368
 18035f8:	880f883a 	mov	r7,r17
 18035fc:	800d883a 	mov	r6,r16
 1803600:	a009883a 	mov	r4,r20
 1803604:	a80b883a 	mov	r5,r21
 1803608:	18053b00 	call	18053b0 <__subdf3>
 180360c:	1025883a 	mov	r18,r2
 1803610:	b005003a 	cmpeq	r2,r22,zero
 1803614:	1827883a 	mov	r19,r3
 1803618:	9021883a 	mov	r16,r18
 180361c:	1823883a 	mov	r17,r3
 1803620:	103f8a1e 	bne	r2,zero,180344c <__kernel_rem_pio2+0x444>
 1803624:	d9809317 	ldw	r6,588(sp)
 1803628:	0009883a 	mov	r4,zero
 180362c:	a80b883a 	mov	r5,r21
 1803630:	1804aa80 	call	1804aa8 <scalbn>
 1803634:	180f883a 	mov	r7,r3
 1803638:	9009883a 	mov	r4,r18
 180363c:	980b883a 	mov	r5,r19
 1803640:	100d883a 	mov	r6,r2
 1803644:	18053b00 	call	18053b0 <__subdf3>
 1803648:	1021883a 	mov	r16,r2
 180364c:	1823883a 	mov	r17,r3
 1803650:	000d883a 	mov	r6,zero
 1803654:	000f883a 	mov	r7,zero
 1803658:	8009883a 	mov	r4,r16
 180365c:	880b883a 	mov	r5,r17
 1803660:	1805ac00 	call	1805ac0 <__eqdf2>
 1803664:	103f7f26 	beq	r2,zero,1803464 <__kernel_rem_pio2+0x45c>
 1803668:	000d883a 	mov	r6,zero
 180366c:	000f883a 	mov	r7,zero
 1803670:	8009883a 	mov	r4,r16
 1803674:	880b883a 	mov	r5,r17
 1803678:	1805ac00 	call	1805ac0 <__eqdf2>
 180367c:	10019a1e 	bne	r2,zero,1803ce8 <__kernel_rem_pio2+0xce0>
 1803680:	da808d17 	ldw	r10,564(sp)
 1803684:	51bfffc4 	addi	r6,r10,-1
 1803688:	3185883a 	add	r2,r6,r6
 180368c:	1085883a 	add	r2,r2,r2
 1803690:	d9009317 	ldw	r4,588(sp)
 1803694:	16c5883a 	add	r2,r2,sp
 1803698:	10c00017 	ldw	r3,0(r2)
 180369c:	213ffa04 	addi	r4,r4,-24
 18036a0:	d9009315 	stw	r4,588(sp)
 18036a4:	1801d41e 	bne	r3,zero,1803df8 <__kernel_rem_pio2+0xdf0>
 18036a8:	d9808d15 	stw	r6,564(sp)
 18036ac:	1007883a 	mov	r3,r2
 18036b0:	d9408d17 	ldw	r5,564(sp)
 18036b4:	d9809317 	ldw	r6,588(sp)
 18036b8:	18ffff04 	addi	r3,r3,-4
 18036bc:	18800017 	ldw	r2,0(r3)
 18036c0:	297fffc4 	addi	r5,r5,-1
 18036c4:	31bffa04 	addi	r6,r6,-24
 18036c8:	d9408d15 	stw	r5,564(sp)
 18036cc:	d9809315 	stw	r6,588(sp)
 18036d0:	103ff726 	beq	r2,zero,18036b0 <__kernel_rem_pio2+0x6a8>
 18036d4:	d9809317 	ldw	r6,588(sp)
 18036d8:	0005883a 	mov	r2,zero
 18036dc:	00cffc34 	movhi	r3,16368
 18036e0:	180b883a 	mov	r5,r3
 18036e4:	1009883a 	mov	r4,r2
 18036e8:	1804aa80 	call	1804aa8 <scalbn>
 18036ec:	d9808d17 	ldw	r6,564(sp)
 18036f0:	1021883a 	mov	r16,r2
 18036f4:	1823883a 	mov	r17,r3
 18036f8:	30004616 	blt	r6,zero,1803814 <__kernel_rem_pio2+0x80c>
 18036fc:	300690fa 	slli	r3,r6,3
 1803700:	3185883a 	add	r2,r6,r6
 1803704:	1085883a 	add	r2,r2,r2
 1803708:	16e9883a 	add	r20,r2,sp
 180370c:	1ee5883a 	add	r18,r3,sp
 1803710:	3027883a 	mov	r19,r6
 1803714:	057fffc4 	movi	r21,-1
 1803718:	a1000017 	ldw	r4,0(r20)
 180371c:	9cffffc4 	addi	r19,r19,-1
 1803720:	a53fff04 	addi	r20,r20,-4
 1803724:	1805ce00 	call	1805ce0 <__floatsidf>
 1803728:	800d883a 	mov	r6,r16
 180372c:	880f883a 	mov	r7,r17
 1803730:	180b883a 	mov	r5,r3
 1803734:	1009883a 	mov	r4,r2
 1803738:	18054a40 	call	18054a4 <__muldf3>
 180373c:	0015883a 	mov	r10,zero
 1803740:	02cf9c34 	movhi	r11,15984
 1803744:	880b883a 	mov	r5,r17
 1803748:	8009883a 	mov	r4,r16
 180374c:	90c06515 	stw	r3,404(r18)
 1803750:	90806415 	stw	r2,400(r18)
 1803754:	580f883a 	mov	r7,r11
 1803758:	500d883a 	mov	r6,r10
 180375c:	18054a40 	call	18054a4 <__muldf3>
 1803760:	1021883a 	mov	r16,r2
 1803764:	1823883a 	mov	r17,r3
 1803768:	94bffe04 	addi	r18,r18,-8
 180376c:	9d7fea1e 	bne	r19,r21,1803718 <__kernel_rem_pio2+0x710>
 1803770:	d9c09517 	ldw	r7,596(sp)
 1803774:	dd808d17 	ldw	r22,564(sp)
 1803778:	002b883a 	mov	r21,zero
 180377c:	382e403a 	cmpge	r23,r7,zero
 1803780:	b800aa26 	beq	r23,zero,1803a2c <__kernel_rem_pio2+0xa24>
 1803784:	a800a916 	blt	r21,zero,1803a2c <__kernel_rem_pio2+0xa24>
 1803788:	b00690fa 	slli	r3,r22,3
 180378c:	d8806404 	addi	r2,sp,400
 1803790:	0021883a 	mov	r16,zero
 1803794:	10e9883a 	add	r20,r2,r3
 1803798:	0027883a 	mov	r19,zero
 180379c:	0023883a 	mov	r17,zero
 18037a0:	04806074 	movhi	r18,385
 18037a4:	9495f004 	addi	r18,r18,22464
 18037a8:	00000106 	br	18037b0 <__kernel_rem_pio2+0x7a8>
 18037ac:	acc01116 	blt	r21,r19,18037f4 <__kernel_rem_pio2+0x7ec>
 18037b0:	91000017 	ldw	r4,0(r18)
 18037b4:	91400117 	ldw	r5,4(r18)
 18037b8:	a1800017 	ldw	r6,0(r20)
 18037bc:	a1c00117 	ldw	r7,4(r20)
 18037c0:	9cc00044 	addi	r19,r19,1
 18037c4:	94800204 	addi	r18,r18,8
 18037c8:	18054a40 	call	18054a4 <__muldf3>
 18037cc:	180f883a 	mov	r7,r3
 18037d0:	880b883a 	mov	r5,r17
 18037d4:	8009883a 	mov	r4,r16
 18037d8:	100d883a 	mov	r6,r2
 18037dc:	18054300 	call	1805430 <__adddf3>
 18037e0:	da809517 	ldw	r10,596(sp)
 18037e4:	a5000204 	addi	r20,r20,8
 18037e8:	1021883a 	mov	r16,r2
 18037ec:	1823883a 	mov	r17,r3
 18037f0:	54ffee0e 	bge	r10,r19,18037ac <__kernel_rem_pio2+0x7a4>
 18037f4:	a80490fa 	slli	r2,r21,3
 18037f8:	b5bfffc4 	addi	r22,r22,-1
 18037fc:	ad400044 	addi	r21,r21,1
 1803800:	16c5883a 	add	r2,r2,sp
 1803804:	14403d15 	stw	r17,244(r2)
 1803808:	14003c15 	stw	r16,240(r2)
 180380c:	00bfffc4 	movi	r2,-1
 1803810:	b0bfdb1e 	bne	r22,r2,1803780 <__kernel_rem_pio2+0x778>
 1803814:	d8c0ad17 	ldw	r3,692(sp)
 1803818:	00800084 	movi	r2,2
 180381c:	10c09316 	blt	r2,r3,1803a6c <__kernel_rem_pio2+0xa64>
 1803820:	00c1120e 	bge	zero,r3,1803c6c <__kernel_rem_pio2+0xc64>
 1803824:	d9808d17 	ldw	r6,564(sp)
 1803828:	30018d16 	blt	r6,zero,1803e60 <__kernel_rem_pio2+0xe58>
 180382c:	d8c08d17 	ldw	r3,564(sp)
 1803830:	0011883a 	mov	r8,zero
 1803834:	0013883a 	mov	r9,zero
 1803838:	180490fa 	slli	r2,r3,3
 180383c:	1823883a 	mov	r17,r3
 1803840:	04bfffc4 	movi	r18,-1
 1803844:	16e1883a 	add	r16,r2,sp
 1803848:	80803c17 	ldw	r2,240(r16)
 180384c:	80c03d17 	ldw	r3,244(r16)
 1803850:	480b883a 	mov	r5,r9
 1803854:	4009883a 	mov	r4,r8
 1803858:	180f883a 	mov	r7,r3
 180385c:	100d883a 	mov	r6,r2
 1803860:	18054300 	call	1805430 <__adddf3>
 1803864:	8c7fffc4 	addi	r17,r17,-1
 1803868:	843ffe04 	addi	r16,r16,-8
 180386c:	1011883a 	mov	r8,r2
 1803870:	1813883a 	mov	r9,r3
 1803874:	8cbff41e 	bne	r17,r18,1803848 <__kernel_rem_pio2+0x840>
 1803878:	d9009217 	ldw	r4,584(sp)
 180387c:	20015b1e 	bne	r4,zero,1803dec <__kernel_rem_pio2+0xde4>
 1803880:	4009883a 	mov	r4,r8
 1803884:	480b883a 	mov	r5,r9
 1803888:	d9809717 	ldw	r6,604(sp)
 180388c:	d8803c17 	ldw	r2,240(sp)
 1803890:	480f883a 	mov	r7,r9
 1803894:	31400115 	stw	r5,4(r6)
 1803898:	31000015 	stw	r4,0(r6)
 180389c:	d8c03d17 	ldw	r3,244(sp)
 18038a0:	400d883a 	mov	r6,r8
 18038a4:	1009883a 	mov	r4,r2
 18038a8:	180b883a 	mov	r5,r3
 18038ac:	18053b00 	call	18053b0 <__subdf3>
 18038b0:	d9c08d17 	ldw	r7,564(sp)
 18038b4:	1011883a 	mov	r8,r2
 18038b8:	1813883a 	mov	r9,r3
 18038bc:	01c00d0e 	bge	zero,r7,18038f4 <__kernel_rem_pio2+0x8ec>
 18038c0:	0023883a 	mov	r17,zero
 18038c4:	dc003e04 	addi	r16,sp,248
 18038c8:	81800017 	ldw	r6,0(r16)
 18038cc:	81c00117 	ldw	r7,4(r16)
 18038d0:	480b883a 	mov	r5,r9
 18038d4:	4009883a 	mov	r4,r8
 18038d8:	18054300 	call	1805430 <__adddf3>
 18038dc:	da808d17 	ldw	r10,564(sp)
 18038e0:	8c400044 	addi	r17,r17,1
 18038e4:	1011883a 	mov	r8,r2
 18038e8:	1813883a 	mov	r9,r3
 18038ec:	84000204 	addi	r16,r16,8
 18038f0:	8abff51e 	bne	r17,r10,18038c8 <__kernel_rem_pio2+0x8c0>
 18038f4:	d8809217 	ldw	r2,584(sp)
 18038f8:	10000226 	beq	r2,zero,1803904 <__kernel_rem_pio2+0x8fc>
 18038fc:	48e0003c 	xorhi	r3,r9,32768
 1803900:	1813883a 	mov	r9,r3
 1803904:	d8c09717 	ldw	r3,604(sp)
 1803908:	1a400315 	stw	r9,12(r3)
 180390c:	1a000215 	stw	r8,8(r3)
 1803910:	d8c09417 	ldw	r3,592(sp)
 1803914:	188001cc 	andi	r2,r3,7
 1803918:	dfc0ac17 	ldw	ra,688(sp)
 180391c:	df00ab17 	ldw	fp,684(sp)
 1803920:	ddc0aa17 	ldw	r23,680(sp)
 1803924:	dd80a917 	ldw	r22,676(sp)
 1803928:	dd40a817 	ldw	r21,672(sp)
 180392c:	dd00a717 	ldw	r20,668(sp)
 1803930:	dcc0a617 	ldw	r19,664(sp)
 1803934:	dc80a517 	ldw	r18,660(sp)
 1803938:	dc40a417 	ldw	r17,656(sp)
 180393c:	dc00a317 	ldw	r16,652(sp)
 1803940:	dec0ad04 	addi	sp,sp,692
 1803944:	f800283a 	ret
 1803948:	d8809317 	ldw	r2,588(sp)
 180394c:	10001f1e 	bne	r2,zero,18039cc <__kernel_rem_pio2+0x9c4>
 1803950:	d8c08d17 	ldw	r3,564(sp)
 1803954:	18c5883a 	add	r2,r3,r3
 1803958:	1085883a 	add	r2,r2,r2
 180395c:	16c5883a 	add	r2,r2,sp
 1803960:	10ffff17 	ldw	r3,-4(r2)
 1803964:	1807d5fa 	srai	r3,r3,23
 1803968:	d8c09215 	stw	r3,584(sp)
 180396c:	003e8e06 	br	18033a8 <__kernel_rem_pio2+0x3a0>
 1803970:	d9008d17 	ldw	r4,564(sp)
 1803974:	d9409317 	ldw	r5,588(sp)
 1803978:	2145c83a 	sub	r2,r4,r5
 180397c:	1085883a 	add	r2,r2,r2
 1803980:	1085883a 	add	r2,r2,r2
 1803984:	16c5883a 	add	r2,r2,sp
 1803988:	10c00017 	ldw	r3,0(r2)
 180398c:	01002034 	movhi	r4,128
 1803990:	213fffc4 	addi	r4,r4,-1
 1803994:	1906703a 	and	r3,r3,r4
 1803998:	10c00015 	stw	r3,0(r2)
 180399c:	003ea806 	br	1803440 <__kernel_rem_pio2+0x438>
 18039a0:	d9808d17 	ldw	r6,564(sp)
 18039a4:	01001034 	movhi	r4,64
 18039a8:	213fffc4 	addi	r4,r4,-1
 18039ac:	30bfffc4 	addi	r2,r6,-1
 18039b0:	1085883a 	add	r2,r2,r2
 18039b4:	1085883a 	add	r2,r2,r2
 18039b8:	16c5883a 	add	r2,r2,sp
 18039bc:	10c00017 	ldw	r3,0(r2)
 18039c0:	1906703a 	and	r3,r3,r4
 18039c4:	10c00015 	stw	r3,0(r2)
 18039c8:	003e9d06 	br	1803440 <__kernel_rem_pio2+0x438>
 18039cc:	0005883a 	mov	r2,zero
 18039d0:	00cff834 	movhi	r3,16352
 18039d4:	300b883a 	mov	r5,r6
 18039d8:	180f883a 	mov	r7,r3
 18039dc:	8009883a 	mov	r4,r16
 18039e0:	100d883a 	mov	r6,r2
 18039e4:	1805bd00 	call	1805bd0 <__gedf2>
 18039e8:	10001d0e 	bge	r2,zero,1803a60 <__kernel_rem_pio2+0xa58>
 18039ec:	d8009215 	stw	zero,584(sp)
 18039f0:	003e9606 	br	180344c <__kernel_rem_pio2+0x444>
 18039f4:	d8c08d17 	ldw	r3,564(sp)
 18039f8:	01000044 	movi	r4,1
 18039fc:	192f883a 	add	r23,r3,r4
 1803a00:	1f000044 	addi	fp,r3,1
 1803a04:	bf3eb516 	blt	r23,fp,18034dc <__kernel_rem_pio2+0x4d4>
 1803a08:	003eb606 	br	18034e4 <__kernel_rem_pio2+0x4dc>
 1803a0c:	0021883a 	mov	r16,zero
 1803a10:	0023883a 	mov	r17,zero
 1803a14:	a5000044 	addi	r20,r20,1
 1803a18:	ac400115 	stw	r17,4(r21)
 1803a1c:	ac000015 	stw	r16,0(r21)
 1803a20:	ad400204 	addi	r21,r21,8
 1803a24:	a5fdba1e 	bne	r20,r23,1803110 <__kernel_rem_pio2+0x108>
 1803a28:	003dd806 	br	180318c <__kernel_rem_pio2+0x184>
 1803a2c:	a80490fa 	slli	r2,r21,3
 1803a30:	0021883a 	mov	r16,zero
 1803a34:	0023883a 	mov	r17,zero
 1803a38:	16c5883a 	add	r2,r2,sp
 1803a3c:	14403d15 	stw	r17,244(r2)
 1803a40:	14003c15 	stw	r16,240(r2)
 1803a44:	b5bfffc4 	addi	r22,r22,-1
 1803a48:	00bfffc4 	movi	r2,-1
 1803a4c:	ad400044 	addi	r21,r21,1
 1803a50:	b0bf4b1e 	bne	r22,r2,1803780 <__kernel_rem_pio2+0x778>
 1803a54:	003f6f06 	br	1803814 <__kernel_rem_pio2+0x80c>
 1803a58:	002d883a 	mov	r22,zero
 1803a5c:	003e7106 	br	1803424 <__kernel_rem_pio2+0x41c>
 1803a60:	01000084 	movi	r4,2
 1803a64:	d9009215 	stw	r4,584(sp)
 1803a68:	003e5106 	br	18033b0 <__kernel_rem_pio2+0x3a8>
 1803a6c:	d900ad17 	ldw	r4,692(sp)
 1803a70:	008000c4 	movi	r2,3
 1803a74:	20bfa61e 	bne	r4,r2,1803910 <__kernel_rem_pio2+0x908>
 1803a78:	d9c08d17 	ldw	r7,564(sp)
 1803a7c:	01c02c0e 	bge	zero,r7,1803b30 <__kernel_rem_pio2+0xb28>
 1803a80:	3805883a 	mov	r2,r7
 1803a84:	00000106 	br	1803a8c <__kernel_rem_pio2+0xa84>
 1803a88:	d8808e17 	ldw	r2,568(sp)
 1803a8c:	113fffc4 	addi	r4,r2,-1
 1803a90:	100690fa 	slli	r3,r2,3
 1803a94:	200490fa 	slli	r2,r4,3
 1803a98:	d9008e15 	stw	r4,568(sp)
 1803a9c:	1ef9883a 	add	fp,r3,sp
 1803aa0:	16c5883a 	add	r2,r2,sp
 1803aa4:	d8809a15 	stw	r2,616(sp)
 1803aa8:	11403c04 	addi	r5,r2,240
 1803aac:	e1803c04 	addi	r6,fp,240
 1803ab0:	14003c17 	ldw	r16,240(r2)
 1803ab4:	e5003c17 	ldw	r20,240(fp)
 1803ab8:	d9409b15 	stw	r5,620(sp)
 1803abc:	d9809c15 	stw	r6,624(sp)
 1803ac0:	35400117 	ldw	r21,4(r6)
 1803ac4:	2c400117 	ldw	r17,4(r5)
 1803ac8:	8009883a 	mov	r4,r16
 1803acc:	a00d883a 	mov	r6,r20
 1803ad0:	880b883a 	mov	r5,r17
 1803ad4:	a80f883a 	mov	r7,r21
 1803ad8:	18054300 	call	1805430 <__adddf3>
 1803adc:	100d883a 	mov	r6,r2
 1803ae0:	880b883a 	mov	r5,r17
 1803ae4:	8009883a 	mov	r4,r16
 1803ae8:	180f883a 	mov	r7,r3
 1803aec:	1025883a 	mov	r18,r2
 1803af0:	1827883a 	mov	r19,r3
 1803af4:	18053b00 	call	18053b0 <__subdf3>
 1803af8:	180f883a 	mov	r7,r3
 1803afc:	a80b883a 	mov	r5,r21
 1803b00:	a009883a 	mov	r4,r20
 1803b04:	100d883a 	mov	r6,r2
 1803b08:	18054300 	call	1805430 <__adddf3>
 1803b0c:	e0803c15 	stw	r2,240(fp)
 1803b10:	d9c09c17 	ldw	r7,624(sp)
 1803b14:	38c00115 	stw	r3,4(r7)
 1803b18:	da809a17 	ldw	r10,616(sp)
 1803b1c:	54803c15 	stw	r18,240(r10)
 1803b20:	d8809b17 	ldw	r2,620(sp)
 1803b24:	14c00115 	stw	r19,4(r2)
 1803b28:	d8c08e17 	ldw	r3,568(sp)
 1803b2c:	183fd61e 	bne	r3,zero,1803a88 <__kernel_rem_pio2+0xa80>
 1803b30:	d9008d17 	ldw	r4,564(sp)
 1803b34:	00800044 	movi	r2,1
 1803b38:	1100cc0e 	bge	r2,r4,1803e6c <__kernel_rem_pio2+0xe64>
 1803b3c:	d8808d17 	ldw	r2,564(sp)
 1803b40:	117fffc4 	addi	r5,r2,-1
 1803b44:	100690fa 	slli	r3,r2,3
 1803b48:	280490fa 	slli	r2,r5,3
 1803b4c:	d9408f15 	stw	r5,572(sp)
 1803b50:	1ef9883a 	add	fp,r3,sp
 1803b54:	16c5883a 	add	r2,r2,sp
 1803b58:	d8809d15 	stw	r2,628(sp)
 1803b5c:	11803c04 	addi	r6,r2,240
 1803b60:	e1c03c04 	addi	r7,fp,240
 1803b64:	14003c17 	ldw	r16,240(r2)
 1803b68:	e5003c17 	ldw	r20,240(fp)
 1803b6c:	d9809e15 	stw	r6,632(sp)
 1803b70:	d9c09f15 	stw	r7,636(sp)
 1803b74:	34400117 	ldw	r17,4(r6)
 1803b78:	3d400117 	ldw	r21,4(r7)
 1803b7c:	8009883a 	mov	r4,r16
 1803b80:	880b883a 	mov	r5,r17
 1803b84:	a00d883a 	mov	r6,r20
 1803b88:	a80f883a 	mov	r7,r21
 1803b8c:	18054300 	call	1805430 <__adddf3>
 1803b90:	100d883a 	mov	r6,r2
 1803b94:	880b883a 	mov	r5,r17
 1803b98:	8009883a 	mov	r4,r16
 1803b9c:	180f883a 	mov	r7,r3
 1803ba0:	1025883a 	mov	r18,r2
 1803ba4:	1827883a 	mov	r19,r3
 1803ba8:	18053b00 	call	18053b0 <__subdf3>
 1803bac:	180f883a 	mov	r7,r3
 1803bb0:	a80b883a 	mov	r5,r21
 1803bb4:	a009883a 	mov	r4,r20
 1803bb8:	100d883a 	mov	r6,r2
 1803bbc:	18054300 	call	1805430 <__adddf3>
 1803bc0:	e0803c15 	stw	r2,240(fp)
 1803bc4:	da809f17 	ldw	r10,636(sp)
 1803bc8:	50c00115 	stw	r3,4(r10)
 1803bcc:	d8c09d17 	ldw	r3,628(sp)
 1803bd0:	d8808f17 	ldw	r2,572(sp)
 1803bd4:	1c803c15 	stw	r18,240(r3)
 1803bd8:	d9009e17 	ldw	r4,632(sp)
 1803bdc:	00c00044 	movi	r3,1
 1803be0:	24c00115 	stw	r19,4(r4)
 1803be4:	d9408f17 	ldw	r5,572(sp)
 1803be8:	28ffd51e 	bne	r5,r3,1803b40 <__kernel_rem_pio2+0xb38>
 1803bec:	dc008d17 	ldw	r16,564(sp)
 1803bf0:	0011883a 	mov	r8,zero
 1803bf4:	1825883a 	mov	r18,r3
 1803bf8:	800490fa 	slli	r2,r16,3
 1803bfc:	0013883a 	mov	r9,zero
 1803c00:	16e3883a 	add	r17,r2,sp
 1803c04:	88803c17 	ldw	r2,240(r17)
 1803c08:	88c03d17 	ldw	r3,244(r17)
 1803c0c:	480b883a 	mov	r5,r9
 1803c10:	4009883a 	mov	r4,r8
 1803c14:	180f883a 	mov	r7,r3
 1803c18:	100d883a 	mov	r6,r2
 1803c1c:	18054300 	call	1805430 <__adddf3>
 1803c20:	843fffc4 	addi	r16,r16,-1
 1803c24:	8c7ffe04 	addi	r17,r17,-8
 1803c28:	1011883a 	mov	r8,r2
 1803c2c:	1813883a 	mov	r9,r3
 1803c30:	84bff41e 	bne	r16,r18,1803c04 <__kernel_rem_pio2+0xbfc>
 1803c34:	d9809217 	ldw	r6,584(sp)
 1803c38:	30007a1e 	bne	r6,zero,1803e24 <__kernel_rem_pio2+0xe1c>
 1803c3c:	d9c09717 	ldw	r7,604(sp)
 1803c40:	d8803c17 	ldw	r2,240(sp)
 1803c44:	d9003e17 	ldw	r4,248(sp)
 1803c48:	3a400515 	stw	r9,20(r7)
 1803c4c:	d8c03d17 	ldw	r3,244(sp)
 1803c50:	d9403f17 	ldw	r5,252(sp)
 1803c54:	3a000415 	stw	r8,16(r7)
 1803c58:	38c00115 	stw	r3,4(r7)
 1803c5c:	39400315 	stw	r5,12(r7)
 1803c60:	38800015 	stw	r2,0(r7)
 1803c64:	39000215 	stw	r4,8(r7)
 1803c68:	003f2906 	br	1803910 <__kernel_rem_pio2+0x908>
 1803c6c:	183f281e 	bne	r3,zero,1803910 <__kernel_rem_pio2+0x908>
 1803c70:	d9408d17 	ldw	r5,564(sp)
 1803c74:	28008016 	blt	r5,zero,1803e78 <__kernel_rem_pio2+0xe70>
 1803c78:	dc008d17 	ldw	r16,564(sp)
 1803c7c:	000d883a 	mov	r6,zero
 1803c80:	000f883a 	mov	r7,zero
 1803c84:	800490fa 	slli	r2,r16,3
 1803c88:	04bfffc4 	movi	r18,-1
 1803c8c:	16e3883a 	add	r17,r2,sp
 1803c90:	88803c17 	ldw	r2,240(r17)
 1803c94:	88c03d17 	ldw	r3,244(r17)
 1803c98:	380b883a 	mov	r5,r7
 1803c9c:	3009883a 	mov	r4,r6
 1803ca0:	180f883a 	mov	r7,r3
 1803ca4:	100d883a 	mov	r6,r2
 1803ca8:	18054300 	call	1805430 <__adddf3>
 1803cac:	843fffc4 	addi	r16,r16,-1
 1803cb0:	8c7ffe04 	addi	r17,r17,-8
 1803cb4:	100d883a 	mov	r6,r2
 1803cb8:	180f883a 	mov	r7,r3
 1803cbc:	84bff41e 	bne	r16,r18,1803c90 <__kernel_rem_pio2+0xc88>
 1803cc0:	da809217 	ldw	r10,584(sp)
 1803cc4:	50000226 	beq	r10,zero,1803cd0 <__kernel_rem_pio2+0xcc8>
 1803cc8:	38e0003c 	xorhi	r3,r7,32768
 1803ccc:	180f883a 	mov	r7,r3
 1803cd0:	d8809717 	ldw	r2,604(sp)
 1803cd4:	11c00115 	stw	r7,4(r2)
 1803cd8:	11800015 	stw	r6,0(r2)
 1803cdc:	003f0c06 	br	1803910 <__kernel_rem_pio2+0x908>
 1803ce0:	d8008c15 	stw	zero,560(sp)
 1803ce4:	003ce606 	br	1803080 <__kernel_rem_pio2+0x78>
 1803ce8:	d9c09317 	ldw	r7,588(sp)
 1803cec:	880b883a 	mov	r5,r17
 1803cf0:	8009883a 	mov	r4,r16
 1803cf4:	01cdc83a 	sub	r6,zero,r7
 1803cf8:	1804aa80 	call	1804aa8 <scalbn>
 1803cfc:	0011883a 	mov	r8,zero
 1803d00:	02505c34 	movhi	r9,16752
 1803d04:	480f883a 	mov	r7,r9
 1803d08:	1009883a 	mov	r4,r2
 1803d0c:	180b883a 	mov	r5,r3
 1803d10:	400d883a 	mov	r6,r8
 1803d14:	102d883a 	mov	r22,r2
 1803d18:	182f883a 	mov	r23,r3
 1803d1c:	1805bd00 	call	1805bd0 <__gedf2>
 1803d20:	10003716 	blt	r2,zero,1803e00 <__kernel_rem_pio2+0xdf8>
 1803d24:	0005883a 	mov	r2,zero
 1803d28:	00cf9c34 	movhi	r3,15984
 1803d2c:	180f883a 	mov	r7,r3
 1803d30:	100d883a 	mov	r6,r2
 1803d34:	b009883a 	mov	r4,r22
 1803d38:	b80b883a 	mov	r5,r23
 1803d3c:	18054a40 	call	18054a4 <__muldf3>
 1803d40:	180b883a 	mov	r5,r3
 1803d44:	1009883a 	mov	r4,r2
 1803d48:	1805dd80 	call	1805dd8 <__fixdfsi>
 1803d4c:	1009883a 	mov	r4,r2
 1803d50:	1805ce00 	call	1805ce0 <__floatsidf>
 1803d54:	da808d17 	ldw	r10,564(sp)
 1803d58:	1023883a 	mov	r17,r2
 1803d5c:	1825883a 	mov	r18,r3
 1803d60:	0005883a 	mov	r2,zero
 1803d64:	00f05c34 	movhi	r3,49520
 1803d68:	180f883a 	mov	r7,r3
 1803d6c:	8809883a 	mov	r4,r17
 1803d70:	900b883a 	mov	r5,r18
 1803d74:	100d883a 	mov	r6,r2
 1803d78:	52ab883a 	add	r21,r10,r10
 1803d7c:	18054a40 	call	18054a4 <__muldf3>
 1803d80:	180f883a 	mov	r7,r3
 1803d84:	b80b883a 	mov	r5,r23
 1803d88:	100d883a 	mov	r6,r2
 1803d8c:	b009883a 	mov	r4,r22
 1803d90:	18054300 	call	1805430 <__adddf3>
 1803d94:	100d883a 	mov	r6,r2
 1803d98:	d8808d17 	ldw	r2,564(sp)
 1803d9c:	180b883a 	mov	r5,r3
 1803da0:	3009883a 	mov	r4,r6
 1803da4:	10800044 	addi	r2,r2,1
 1803da8:	ad6b883a 	add	r21,r21,r21
 1803dac:	d8808d15 	stw	r2,564(sp)
 1803db0:	1805dd80 	call	1805dd8 <__fixdfsi>
 1803db4:	d8c08d17 	ldw	r3,564(sp)
 1803db8:	aeeb883a 	add	r21,r21,sp
 1803dbc:	8809883a 	mov	r4,r17
 1803dc0:	900b883a 	mov	r5,r18
 1803dc4:	a8800015 	stw	r2,0(r21)
 1803dc8:	18e1883a 	add	r16,r3,r3
 1803dcc:	1805dd80 	call	1805dd8 <__fixdfsi>
 1803dd0:	d9009317 	ldw	r4,588(sp)
 1803dd4:	8421883a 	add	r16,r16,r16
 1803dd8:	86e1883a 	add	r16,r16,sp
 1803ddc:	21000604 	addi	r4,r4,24
 1803de0:	d9009315 	stw	r4,588(sp)
 1803de4:	80800015 	stw	r2,0(r16)
 1803de8:	003e3a06 	br	18036d4 <__kernel_rem_pio2+0x6cc>
 1803dec:	4009883a 	mov	r4,r8
 1803df0:	4960003c 	xorhi	r5,r9,32768
 1803df4:	003ea406 	br	1803888 <__kernel_rem_pio2+0x880>
 1803df8:	d9808d15 	stw	r6,564(sp)
 1803dfc:	003e3506 	br	18036d4 <__kernel_rem_pio2+0x6cc>
 1803e00:	d9408d17 	ldw	r5,564(sp)
 1803e04:	b009883a 	mov	r4,r22
 1803e08:	2961883a 	add	r16,r5,r5
 1803e0c:	8421883a 	add	r16,r16,r16
 1803e10:	b80b883a 	mov	r5,r23
 1803e14:	86e1883a 	add	r16,r16,sp
 1803e18:	1805dd80 	call	1805dd8 <__fixdfsi>
 1803e1c:	80800015 	stw	r2,0(r16)
 1803e20:	003e2c06 	br	18036d4 <__kernel_rem_pio2+0x6cc>
 1803e24:	d8c03d17 	ldw	r3,244(sp)
 1803e28:	d9403f17 	ldw	r5,252(sp)
 1803e2c:	da809717 	ldw	r10,604(sp)
 1803e30:	d8803c17 	ldw	r2,240(sp)
 1803e34:	d9003e17 	ldw	r4,248(sp)
 1803e38:	49e0003c 	xorhi	r7,r9,32768
 1803e3c:	51c00515 	stw	r7,20(r10)
 1803e40:	19a0003c 	xorhi	r6,r3,32768
 1803e44:	29e0003c 	xorhi	r7,r5,32768
 1803e48:	51800115 	stw	r6,4(r10)
 1803e4c:	51c00315 	stw	r7,12(r10)
 1803e50:	50800015 	stw	r2,0(r10)
 1803e54:	51000215 	stw	r4,8(r10)
 1803e58:	52000415 	stw	r8,16(r10)
 1803e5c:	003eac06 	br	1803910 <__kernel_rem_pio2+0x908>
 1803e60:	0011883a 	mov	r8,zero
 1803e64:	0013883a 	mov	r9,zero
 1803e68:	003e8306 	br	1803878 <__kernel_rem_pio2+0x870>
 1803e6c:	0011883a 	mov	r8,zero
 1803e70:	0013883a 	mov	r9,zero
 1803e74:	003f6f06 	br	1803c34 <__kernel_rem_pio2+0xc2c>
 1803e78:	000d883a 	mov	r6,zero
 1803e7c:	000f883a 	mov	r7,zero
 1803e80:	003f8f06 	br	1803cc0 <__kernel_rem_pio2+0xcb8>

01803e84 <__kernel_sin>:
 1803e84:	00a00034 	movhi	r2,32768
 1803e88:	10bfffc4 	addi	r2,r2,-1
 1803e8c:	deffef04 	addi	sp,sp,-68
 1803e90:	1144703a 	and	r2,r2,r5
 1803e94:	00cf9034 	movhi	r3,15936
 1803e98:	18ffffc4 	addi	r3,r3,-1
 1803e9c:	dd400d15 	stw	r21,52(sp)
 1803ea0:	dd000c15 	stw	r20,48(sp)
 1803ea4:	dfc01015 	stw	ra,64(sp)
 1803ea8:	ddc00f15 	stw	r23,60(sp)
 1803eac:	dd800e15 	stw	r22,56(sp)
 1803eb0:	dcc00b15 	stw	r19,44(sp)
 1803eb4:	dc800a15 	stw	r18,40(sp)
 1803eb8:	dc400915 	stw	r17,36(sp)
 1803ebc:	dc000815 	stw	r16,32(sp)
 1803ec0:	2029883a 	mov	r20,r4
 1803ec4:	282b883a 	mov	r21,r5
 1803ec8:	d9800415 	stw	r6,16(sp)
 1803ecc:	d9c00515 	stw	r7,20(sp)
 1803ed0:	18800216 	blt	r3,r2,1803edc <__kernel_sin+0x58>
 1803ed4:	1805dd80 	call	1805dd8 <__fixdfsi>
 1803ed8:	10008826 	beq	r2,zero,18040fc <__kernel_sin+0x278>
 1803edc:	a009883a 	mov	r4,r20
 1803ee0:	a80b883a 	mov	r5,r21
 1803ee4:	a00d883a 	mov	r6,r20
 1803ee8:	a80f883a 	mov	r7,r21
 1803eec:	18054a40 	call	18054a4 <__muldf3>
 1803ef0:	102d883a 	mov	r22,r2
 1803ef4:	a009883a 	mov	r4,r20
 1803ef8:	a80b883a 	mov	r5,r21
 1803efc:	b00d883a 	mov	r6,r22
 1803f00:	180f883a 	mov	r7,r3
 1803f04:	182f883a 	mov	r23,r3
 1803f08:	d8800215 	stw	r2,8(sp)
 1803f0c:	d8c00315 	stw	r3,12(sp)
 1803f10:	18054a40 	call	18054a4 <__muldf3>
 1803f14:	d9000217 	ldw	r4,8(sp)
 1803f18:	0216b434 	movhi	r8,23248
 1803f1c:	42355f04 	addi	r8,r8,-10884
 1803f20:	024f79b4 	movhi	r9,15846
 1803f24:	4a764e84 	addi	r9,r9,-9926
 1803f28:	480f883a 	mov	r7,r9
 1803f2c:	400d883a 	mov	r6,r8
 1803f30:	b80b883a 	mov	r5,r23
 1803f34:	d8800615 	stw	r2,24(sp)
 1803f38:	d8c00715 	stw	r3,28(sp)
 1803f3c:	18054a40 	call	18054a4 <__muldf3>
 1803f40:	02228b34 	movhi	r8,35372
 1803f44:	42273ac4 	addi	r8,r8,-25365
 1803f48:	024f96f4 	movhi	r9,15963
 1803f4c:	4a797984 	addi	r9,r9,-6682
 1803f50:	480f883a 	mov	r7,r9
 1803f54:	400d883a 	mov	r6,r8
 1803f58:	180b883a 	mov	r5,r3
 1803f5c:	1009883a 	mov	r4,r2
 1803f60:	18053b00 	call	18053b0 <__subdf3>
 1803f64:	d9000217 	ldw	r4,8(sp)
 1803f68:	180f883a 	mov	r7,r3
 1803f6c:	b80b883a 	mov	r5,r23
 1803f70:	100d883a 	mov	r6,r2
 1803f74:	18054a40 	call	18054a4 <__muldf3>
 1803f78:	0215ecb4 	movhi	r8,22450
 1803f7c:	423f9f44 	addi	r8,r8,-387
 1803f80:	024fb1f4 	movhi	r9,16071
 1803f84:	4a4778c4 	addi	r9,r9,7651
 1803f88:	480f883a 	mov	r7,r9
 1803f8c:	400d883a 	mov	r6,r8
 1803f90:	180b883a 	mov	r5,r3
 1803f94:	1009883a 	mov	r4,r2
 1803f98:	18054300 	call	1805430 <__adddf3>
 1803f9c:	d9000217 	ldw	r4,8(sp)
 1803fa0:	180f883a 	mov	r7,r3
 1803fa4:	b80b883a 	mov	r5,r23
 1803fa8:	100d883a 	mov	r6,r2
 1803fac:	18054a40 	call	18054a4 <__muldf3>
 1803fb0:	02067074 	movhi	r8,6593
 1803fb4:	42187544 	addi	r8,r8,25045
 1803fb8:	024fcab4 	movhi	r9,16170
 1803fbc:	4a406804 	addi	r9,r9,416
 1803fc0:	480f883a 	mov	r7,r9
 1803fc4:	400d883a 	mov	r6,r8
 1803fc8:	180b883a 	mov	r5,r3
 1803fcc:	1009883a 	mov	r4,r2
 1803fd0:	18053b00 	call	18053b0 <__subdf3>
 1803fd4:	d9000217 	ldw	r4,8(sp)
 1803fd8:	180f883a 	mov	r7,r3
 1803fdc:	b80b883a 	mov	r5,r23
 1803fe0:	100d883a 	mov	r6,r2
 1803fe4:	18054a40 	call	18054a4 <__muldf3>
 1803fe8:	02044474 	movhi	r8,4369
 1803fec:	423e2984 	addi	r8,r8,-1882
 1803ff0:	024fe074 	movhi	r9,16257
 1803ff4:	4a444444 	addi	r9,r9,4369
 1803ff8:	180b883a 	mov	r5,r3
 1803ffc:	480f883a 	mov	r7,r9
 1804000:	1009883a 	mov	r4,r2
 1804004:	400d883a 	mov	r6,r8
 1804008:	18054300 	call	1805430 <__adddf3>
 180400c:	1021883a 	mov	r16,r2
 1804010:	d8800617 	ldw	r2,24(sp)
 1804014:	1823883a 	mov	r17,r3
 1804018:	d8800015 	stw	r2,0(sp)
 180401c:	d8800717 	ldw	r2,28(sp)
 1804020:	d8800115 	stw	r2,4(sp)
 1804024:	d8801117 	ldw	r2,68(sp)
 1804028:	10004126 	beq	r2,zero,1804130 <__kernel_sin+0x2ac>
 180402c:	d9000417 	ldw	r4,16(sp)
 1804030:	d9400517 	ldw	r5,20(sp)
 1804034:	0005883a 	mov	r2,zero
 1804038:	00cff834 	movhi	r3,16352
 180403c:	180f883a 	mov	r7,r3
 1804040:	100d883a 	mov	r6,r2
 1804044:	18054a40 	call	18054a4 <__muldf3>
 1804048:	d9000017 	ldw	r4,0(sp)
 180404c:	d9400717 	ldw	r5,28(sp)
 1804050:	800d883a 	mov	r6,r16
 1804054:	880f883a 	mov	r7,r17
 1804058:	1021883a 	mov	r16,r2
 180405c:	1823883a 	mov	r17,r3
 1804060:	18054a40 	call	18054a4 <__muldf3>
 1804064:	180f883a 	mov	r7,r3
 1804068:	880b883a 	mov	r5,r17
 180406c:	8009883a 	mov	r4,r16
 1804070:	100d883a 	mov	r6,r2
 1804074:	18053b00 	call	18053b0 <__subdf3>
 1804078:	d9000217 	ldw	r4,8(sp)
 180407c:	b80b883a 	mov	r5,r23
 1804080:	180f883a 	mov	r7,r3
 1804084:	100d883a 	mov	r6,r2
 1804088:	18054a40 	call	18054a4 <__muldf3>
 180408c:	d9c00517 	ldw	r7,20(sp)
 1804090:	d9800417 	ldw	r6,16(sp)
 1804094:	180b883a 	mov	r5,r3
 1804098:	1009883a 	mov	r4,r2
 180409c:	18053b00 	call	18053b0 <__subdf3>
 18040a0:	d9000017 	ldw	r4,0(sp)
 18040a4:	d9400717 	ldw	r5,28(sp)
 18040a8:	02155574 	movhi	r8,21845
 18040ac:	42155244 	addi	r8,r8,21833
 18040b0:	024ff174 	movhi	r9,16325
 18040b4:	4a555544 	addi	r9,r9,21845
 18040b8:	480f883a 	mov	r7,r9
 18040bc:	400d883a 	mov	r6,r8
 18040c0:	1021883a 	mov	r16,r2
 18040c4:	1823883a 	mov	r17,r3
 18040c8:	18054a40 	call	18054a4 <__muldf3>
 18040cc:	180f883a 	mov	r7,r3
 18040d0:	880b883a 	mov	r5,r17
 18040d4:	8009883a 	mov	r4,r16
 18040d8:	100d883a 	mov	r6,r2
 18040dc:	18054300 	call	1805430 <__adddf3>
 18040e0:	180f883a 	mov	r7,r3
 18040e4:	a80b883a 	mov	r5,r21
 18040e8:	a009883a 	mov	r4,r20
 18040ec:	100d883a 	mov	r6,r2
 18040f0:	18053b00 	call	18053b0 <__subdf3>
 18040f4:	1029883a 	mov	r20,r2
 18040f8:	182b883a 	mov	r21,r3
 18040fc:	a005883a 	mov	r2,r20
 1804100:	a807883a 	mov	r3,r21
 1804104:	dfc01017 	ldw	ra,64(sp)
 1804108:	ddc00f17 	ldw	r23,60(sp)
 180410c:	dd800e17 	ldw	r22,56(sp)
 1804110:	dd400d17 	ldw	r21,52(sp)
 1804114:	dd000c17 	ldw	r20,48(sp)
 1804118:	dcc00b17 	ldw	r19,44(sp)
 180411c:	dc800a17 	ldw	r18,40(sp)
 1804120:	dc400917 	ldw	r17,36(sp)
 1804124:	dc000817 	ldw	r16,32(sp)
 1804128:	dec01104 	addi	sp,sp,68
 180412c:	f800283a 	ret
 1804130:	d9000217 	ldw	r4,8(sp)
 1804134:	b80b883a 	mov	r5,r23
 1804138:	800d883a 	mov	r6,r16
 180413c:	180f883a 	mov	r7,r3
 1804140:	18054a40 	call	18054a4 <__muldf3>
 1804144:	02155574 	movhi	r8,21845
 1804148:	42155244 	addi	r8,r8,21833
 180414c:	024ff174 	movhi	r9,16325
 1804150:	4a555544 	addi	r9,r9,21845
 1804154:	480f883a 	mov	r7,r9
 1804158:	400d883a 	mov	r6,r8
 180415c:	180b883a 	mov	r5,r3
 1804160:	1009883a 	mov	r4,r2
 1804164:	18053b00 	call	18053b0 <__subdf3>
 1804168:	d9000017 	ldw	r4,0(sp)
 180416c:	d9400717 	ldw	r5,28(sp)
 1804170:	180f883a 	mov	r7,r3
 1804174:	100d883a 	mov	r6,r2
 1804178:	18054a40 	call	18054a4 <__muldf3>
 180417c:	180f883a 	mov	r7,r3
 1804180:	a80b883a 	mov	r5,r21
 1804184:	a009883a 	mov	r4,r20
 1804188:	100d883a 	mov	r6,r2
 180418c:	18054300 	call	1805430 <__adddf3>
 1804190:	1029883a 	mov	r20,r2
 1804194:	182b883a 	mov	r21,r3
 1804198:	003fd806 	br	18040fc <__kernel_sin+0x278>

0180419c <atan>:
 180419c:	defff304 	addi	sp,sp,-52
 18041a0:	00a00034 	movhi	r2,32768
 18041a4:	10bfffc4 	addi	r2,r2,-1
 18041a8:	dc000315 	stw	r16,12(sp)
 18041ac:	28a0703a 	and	r16,r5,r2
 18041b0:	00910434 	movhi	r2,17424
 18041b4:	10bfffc4 	addi	r2,r2,-1
 18041b8:	df000b15 	stw	fp,44(sp)
 18041bc:	dfc00c15 	stw	ra,48(sp)
 18041c0:	ddc00a15 	stw	r23,40(sp)
 18041c4:	dd800915 	stw	r22,36(sp)
 18041c8:	dd400815 	stw	r21,32(sp)
 18041cc:	dd000715 	stw	r20,28(sp)
 18041d0:	dcc00615 	stw	r19,24(sp)
 18041d4:	dc800515 	stw	r18,20(sp)
 18041d8:	dc400415 	stw	r17,16(sp)
 18041dc:	d9000115 	stw	r4,4(sp)
 18041e0:	d9400215 	stw	r5,8(sp)
 18041e4:	2839883a 	mov	fp,r5
 18041e8:	1400190e 	bge	r2,r16,1804250 <atan+0xb4>
 18041ec:	2005883a 	mov	r2,r4
 18041f0:	011ffc34 	movhi	r4,32752
 18041f4:	2400eb0e 	bge	r4,r16,18045a4 <atan+0x408>
 18041f8:	d9000117 	ldw	r4,4(sp)
 18041fc:	d9c00217 	ldw	r7,8(sp)
 1804200:	200d883a 	mov	r6,r4
 1804204:	18054300 	call	1805430 <__adddf3>
 1804208:	d8800115 	stw	r2,4(sp)
 180420c:	d8c00215 	stw	r3,8(sp)
 1804210:	d9000117 	ldw	r4,4(sp)
 1804214:	2005883a 	mov	r2,r4
 1804218:	d9000217 	ldw	r4,8(sp)
 180421c:	2007883a 	mov	r3,r4
 1804220:	dfc00c17 	ldw	ra,48(sp)
 1804224:	df000b17 	ldw	fp,44(sp)
 1804228:	ddc00a17 	ldw	r23,40(sp)
 180422c:	dd800917 	ldw	r22,36(sp)
 1804230:	dd400817 	ldw	r21,32(sp)
 1804234:	dd000717 	ldw	r20,28(sp)
 1804238:	dcc00617 	ldw	r19,24(sp)
 180423c:	dc800517 	ldw	r18,20(sp)
 1804240:	dc400417 	ldw	r17,16(sp)
 1804244:	dc000317 	ldw	r16,12(sp)
 1804248:	dec00d04 	addi	sp,sp,52
 180424c:	f800283a 	ret
 1804250:	008ff734 	movhi	r2,16348
 1804254:	10bfffc4 	addi	r2,r2,-1
 1804258:	1400ec16 	blt	r2,r16,180460c <atan+0x470>
 180425c:	008f8834 	movhi	r2,15904
 1804260:	10bfffc4 	addi	r2,r2,-1
 1804264:	1400d80e 	bge	r2,r16,18045c8 <atan+0x42c>
 1804268:	00bfffc4 	movi	r2,-1
 180426c:	d8800015 	stw	r2,0(sp)
 1804270:	d9000117 	ldw	r4,4(sp)
 1804274:	d9400217 	ldw	r5,8(sp)
 1804278:	200d883a 	mov	r6,r4
 180427c:	280f883a 	mov	r7,r5
 1804280:	18054a40 	call	18054a4 <__muldf3>
 1804284:	1009883a 	mov	r4,r2
 1804288:	180b883a 	mov	r5,r3
 180428c:	100d883a 	mov	r6,r2
 1804290:	180f883a 	mov	r7,r3
 1804294:	1025883a 	mov	r18,r2
 1804298:	1827883a 	mov	r19,r3
 180429c:	18054a40 	call	18054a4 <__muldf3>
 18042a0:	1021883a 	mov	r16,r2
 18042a4:	1823883a 	mov	r17,r3
 18042a8:	00b8c8f4 	movhi	r2,58147
 18042ac:	10b68444 	addi	r2,r2,-9711
 18042b0:	00cfe474 	movhi	r3,16273
 18042b4:	18eb4e84 	addi	r3,r3,-21190
 18042b8:	180f883a 	mov	r7,r3
 18042bc:	8009883a 	mov	r4,r16
 18042c0:	880b883a 	mov	r5,r17
 18042c4:	100d883a 	mov	r6,r2
 18042c8:	18054a40 	call	18054a4 <__muldf3>
 18042cc:	02091db4 	movhi	r8,9334
 18042d0:	42037ac4 	addi	r8,r8,3563
 18042d4:	024fea74 	movhi	r9,16297
 18042d8:	4a5ed2c4 	addi	r9,r9,31563
 18042dc:	480f883a 	mov	r7,r9
 18042e0:	400d883a 	mov	r6,r8
 18042e4:	180b883a 	mov	r5,r3
 18042e8:	1009883a 	mov	r4,r2
 18042ec:	18054300 	call	1805430 <__adddf3>
 18042f0:	180f883a 	mov	r7,r3
 18042f4:	8009883a 	mov	r4,r16
 18042f8:	880b883a 	mov	r5,r17
 18042fc:	100d883a 	mov	r6,r2
 1804300:	18054a40 	call	18054a4 <__muldf3>
 1804304:	02283434 	movhi	r8,41168
 1804308:	420f5444 	addi	r8,r8,15697
 180430c:	024fec74 	movhi	r9,16305
 1804310:	4a435984 	addi	r9,r9,3430
 1804314:	480f883a 	mov	r7,r9
 1804318:	400d883a 	mov	r6,r8
 180431c:	180b883a 	mov	r5,r3
 1804320:	1009883a 	mov	r4,r2
 1804324:	18054300 	call	1805430 <__adddf3>
 1804328:	180f883a 	mov	r7,r3
 180432c:	8009883a 	mov	r4,r16
 1804330:	880b883a 	mov	r5,r17
 1804334:	100d883a 	mov	r6,r2
 1804338:	18054a40 	call	18054a4 <__muldf3>
 180433c:	02315334 	movhi	r8,50508
 1804340:	42081b84 	addi	r8,r8,8302
 1804344:	024fedf4 	movhi	r9,16311
 1804348:	4a517344 	addi	r9,r9,17869
 180434c:	480f883a 	mov	r7,r9
 1804350:	400d883a 	mov	r6,r8
 1804354:	180b883a 	mov	r5,r3
 1804358:	1009883a 	mov	r4,r2
 180435c:	18054300 	call	1805430 <__adddf3>
 1804360:	180f883a 	mov	r7,r3
 1804364:	8009883a 	mov	r4,r16
 1804368:	880b883a 	mov	r5,r17
 180436c:	100d883a 	mov	r6,r2
 1804370:	18054a40 	call	18054a4 <__muldf3>
 1804374:	02248074 	movhi	r8,37377
 1804378:	4220ffc4 	addi	r8,r8,-31745
 180437c:	024ff0b4 	movhi	r9,16322
 1804380:	4a524904 	addi	r9,r9,18724
 1804384:	480f883a 	mov	r7,r9
 1804388:	400d883a 	mov	r6,r8
 180438c:	180b883a 	mov	r5,r3
 1804390:	1009883a 	mov	r4,r2
 1804394:	18054300 	call	1805430 <__adddf3>
 1804398:	180f883a 	mov	r7,r3
 180439c:	8009883a 	mov	r4,r16
 18043a0:	880b883a 	mov	r5,r17
 18043a4:	100d883a 	mov	r6,r2
 18043a8:	18054a40 	call	18054a4 <__muldf3>
 18043ac:	02155574 	movhi	r8,21845
 18043b0:	42154344 	addi	r8,r8,21773
 18043b4:	024ff574 	movhi	r9,16341
 18043b8:	4a555544 	addi	r9,r9,21845
 18043bc:	480f883a 	mov	r7,r9
 18043c0:	400d883a 	mov	r6,r8
 18043c4:	180b883a 	mov	r5,r3
 18043c8:	1009883a 	mov	r4,r2
 18043cc:	18054300 	call	1805430 <__adddf3>
 18043d0:	180f883a 	mov	r7,r3
 18043d4:	9009883a 	mov	r4,r18
 18043d8:	980b883a 	mov	r5,r19
 18043dc:	100d883a 	mov	r6,r2
 18043e0:	18054a40 	call	18054a4 <__muldf3>
 18043e4:	020b1ab4 	movhi	r8,11370
 18043e8:	421b0bc4 	addi	r8,r8,27695
 18043ec:	026fe8f4 	movhi	r9,49059
 18043f0:	4a6d1104 	addi	r9,r9,-19388
 18043f4:	480f883a 	mov	r7,r9
 18043f8:	400d883a 	mov	r6,r8
 18043fc:	8009883a 	mov	r4,r16
 1804400:	880b883a 	mov	r5,r17
 1804404:	102d883a 	mov	r22,r2
 1804408:	182f883a 	mov	r23,r3
 180440c:	18054a40 	call	18054a4 <__muldf3>
 1804410:	0214b7f4 	movhi	r8,21215
 1804414:	423f6684 	addi	r8,r8,-614
 1804418:	024febb4 	movhi	r9,16302
 180441c:	4a778b44 	addi	r9,r9,-8659
 1804420:	480f883a 	mov	r7,r9
 1804424:	400d883a 	mov	r6,r8
 1804428:	180b883a 	mov	r5,r3
 180442c:	1009883a 	mov	r4,r2
 1804430:	18053b00 	call	18053b0 <__subdf3>
 1804434:	180f883a 	mov	r7,r3
 1804438:	8009883a 	mov	r4,r16
 180443c:	880b883a 	mov	r5,r17
 1804440:	100d883a 	mov	r6,r2
 1804444:	18054a40 	call	18054a4 <__muldf3>
 1804448:	022bdd74 	movhi	r8,44917
 180444c:	42269b44 	addi	r8,r8,-26003
 1804450:	024fed34 	movhi	r9,16308
 1804454:	4a6c3c84 	addi	r9,r9,-20238
 1804458:	480f883a 	mov	r7,r9
 180445c:	400d883a 	mov	r6,r8
 1804460:	180b883a 	mov	r5,r3
 1804464:	1009883a 	mov	r4,r2
 1804468:	18053b00 	call	18053b0 <__subdf3>
 180446c:	180f883a 	mov	r7,r3
 1804470:	8009883a 	mov	r4,r16
 1804474:	880b883a 	mov	r5,r17
 1804478:	100d883a 	mov	r6,r2
 180447c:	18054a40 	call	18054a4 <__muldf3>
 1804480:	023f88f4 	movhi	r8,65059
 1804484:	42059c44 	addi	r8,r8,5745
 1804488:	024fef34 	movhi	r9,16316
 180448c:	4a5c7184 	addi	r9,r9,29126
 1804490:	480f883a 	mov	r7,r9
 1804494:	400d883a 	mov	r6,r8
 1804498:	180b883a 	mov	r5,r3
 180449c:	1009883a 	mov	r4,r2
 18044a0:	18053b00 	call	18053b0 <__subdf3>
 18044a4:	180f883a 	mov	r7,r3
 18044a8:	8009883a 	mov	r4,r16
 18044ac:	880b883a 	mov	r5,r17
 18044b0:	100d883a 	mov	r6,r2
 18044b4:	18054a40 	call	18054a4 <__muldf3>
 18044b8:	02266674 	movhi	r8,39321
 18044bc:	423af104 	addi	r8,r8,-5180
 18044c0:	024ff2b4 	movhi	r9,16330
 18044c4:	4a666644 	addi	r9,r9,-26215
 18044c8:	480f883a 	mov	r7,r9
 18044cc:	400d883a 	mov	r6,r8
 18044d0:	180b883a 	mov	r5,r3
 18044d4:	1009883a 	mov	r4,r2
 18044d8:	18053b00 	call	18053b0 <__subdf3>
 18044dc:	180f883a 	mov	r7,r3
 18044e0:	8009883a 	mov	r4,r16
 18044e4:	880b883a 	mov	r5,r17
 18044e8:	100d883a 	mov	r6,r2
 18044ec:	18054a40 	call	18054a4 <__muldf3>
 18044f0:	100f883a 	mov	r7,r2
 18044f4:	d8800017 	ldw	r2,0(sp)
 18044f8:	b009883a 	mov	r4,r22
 18044fc:	b80b883a 	mov	r5,r23
 1804500:	10006b16 	blt	r2,zero,18046b0 <atan+0x514>
 1804504:	d8800017 	ldw	r2,0(sp)
 1804508:	380d883a 	mov	r6,r7
 180450c:	b80b883a 	mov	r5,r23
 1804510:	102490fa 	slli	r18,r2,3
 1804514:	00806074 	movhi	r2,385
 1804518:	10960004 	addi	r2,r2,22528
 180451c:	180f883a 	mov	r7,r3
 1804520:	9085883a 	add	r2,r18,r2
 1804524:	14000017 	ldw	r16,0(r2)
 1804528:	14400117 	ldw	r17,4(r2)
 180452c:	18054300 	call	1805430 <__adddf3>
 1804530:	d9000117 	ldw	r4,4(sp)
 1804534:	d9400217 	ldw	r5,8(sp)
 1804538:	180f883a 	mov	r7,r3
 180453c:	100d883a 	mov	r6,r2
 1804540:	18054a40 	call	18054a4 <__muldf3>
 1804544:	01006074 	movhi	r4,385
 1804548:	21160804 	addi	r4,r4,22560
 180454c:	9125883a 	add	r18,r18,r4
 1804550:	92000017 	ldw	r8,0(r18)
 1804554:	92400117 	ldw	r9,4(r18)
 1804558:	180b883a 	mov	r5,r3
 180455c:	400d883a 	mov	r6,r8
 1804560:	480f883a 	mov	r7,r9
 1804564:	1009883a 	mov	r4,r2
 1804568:	18053b00 	call	18053b0 <__subdf3>
 180456c:	d9c00217 	ldw	r7,8(sp)
 1804570:	d9800117 	ldw	r6,4(sp)
 1804574:	180b883a 	mov	r5,r3
 1804578:	1009883a 	mov	r4,r2
 180457c:	18053b00 	call	18053b0 <__subdf3>
 1804580:	180f883a 	mov	r7,r3
 1804584:	880b883a 	mov	r5,r17
 1804588:	8009883a 	mov	r4,r16
 180458c:	100d883a 	mov	r6,r2
 1804590:	18053b00 	call	18053b0 <__subdf3>
 1804594:	e0003f16 	blt	fp,zero,1804694 <atan+0x4f8>
 1804598:	d8800115 	stw	r2,4(sp)
 180459c:	d8c00215 	stw	r3,8(sp)
 18045a0:	003f1b06 	br	1804210 <atan+0x74>
 18045a4:	81003f26 	beq	r16,r4,18046a4 <atan+0x508>
 18045a8:	07005e0e 	bge	zero,fp,1804724 <atan+0x588>
 18045ac:	01151134 	movhi	r4,21572
 18045b0:	210b4604 	addi	r4,r4,11544
 18045b4:	008ffe74 	movhi	r2,16377
 18045b8:	10887ec4 	addi	r2,r2,8699
 18045bc:	d9000115 	stw	r4,4(sp)
 18045c0:	d8800215 	stw	r2,8(sp)
 18045c4:	003f1206 	br	1804210 <atan+0x74>
 18045c8:	d9000117 	ldw	r4,4(sp)
 18045cc:	00a20034 	movhi	r2,34816
 18045d0:	109d6704 	addi	r2,r2,30108
 18045d4:	00df8e34 	movhi	r3,32312
 18045d8:	18f90f04 	addi	r3,r3,-7108
 18045dc:	180f883a 	mov	r7,r3
 18045e0:	100d883a 	mov	r6,r2
 18045e4:	18054300 	call	1805430 <__adddf3>
 18045e8:	0011883a 	mov	r8,zero
 18045ec:	024ffc34 	movhi	r9,16368
 18045f0:	180b883a 	mov	r5,r3
 18045f4:	480f883a 	mov	r7,r9
 18045f8:	1009883a 	mov	r4,r2
 18045fc:	400d883a 	mov	r6,r8
 1804600:	1805b480 	call	1805b48 <__gtdf2>
 1804604:	00bf0216 	blt	zero,r2,1804210 <atan+0x74>
 1804608:	003f1706 	br	1804268 <atan+0xcc>
 180460c:	d9000117 	ldw	r4,4(sp)
 1804610:	18048340 	call	1804834 <fabs>
 1804614:	102d883a 	mov	r22,r2
 1804618:	008ffcf4 	movhi	r2,16371
 180461c:	10bfffc4 	addi	r2,r2,-1
 1804620:	182f883a 	mov	r23,r3
 1804624:	14003016 	blt	r2,r16,18046e8 <atan+0x54c>
 1804628:	008ff9b4 	movhi	r2,16358
 180462c:	10bfffc4 	addi	r2,r2,-1
 1804630:	1400430e 	bge	r2,r16,1804740 <atan+0x5a4>
 1804634:	044ffc34 	movhi	r17,16368
 1804638:	0021883a 	mov	r16,zero
 180463c:	800d883a 	mov	r6,r16
 1804640:	880f883a 	mov	r7,r17
 1804644:	b009883a 	mov	r4,r22
 1804648:	180b883a 	mov	r5,r3
 180464c:	18053b00 	call	18053b0 <__subdf3>
 1804650:	880f883a 	mov	r7,r17
 1804654:	000d883a 	mov	r6,zero
 1804658:	b80b883a 	mov	r5,r23
 180465c:	b009883a 	mov	r4,r22
 1804660:	1021883a 	mov	r16,r2
 1804664:	1823883a 	mov	r17,r3
 1804668:	18054300 	call	1805430 <__adddf3>
 180466c:	180f883a 	mov	r7,r3
 1804670:	8009883a 	mov	r4,r16
 1804674:	880b883a 	mov	r5,r17
 1804678:	100d883a 	mov	r6,r2
 180467c:	18058680 	call	1805868 <__divdf3>
 1804680:	01000044 	movi	r4,1
 1804684:	d8800115 	stw	r2,4(sp)
 1804688:	d8c00215 	stw	r3,8(sp)
 180468c:	d9000015 	stw	r4,0(sp)
 1804690:	003ef706 	br	1804270 <atan+0xd4>
 1804694:	18e0003c 	xorhi	r3,r3,32768
 1804698:	d8800115 	stw	r2,4(sp)
 180469c:	d8c00215 	stw	r3,8(sp)
 18046a0:	003edb06 	br	1804210 <atan+0x74>
 18046a4:	103ed41e 	bne	r2,zero,18041f8 <atan+0x5c>
 18046a8:	073fc016 	blt	zero,fp,18045ac <atan+0x410>
 18046ac:	00001d06 	br	1804724 <atan+0x588>
 18046b0:	380d883a 	mov	r6,r7
 18046b4:	180f883a 	mov	r7,r3
 18046b8:	18054300 	call	1805430 <__adddf3>
 18046bc:	d9000117 	ldw	r4,4(sp)
 18046c0:	d9400217 	ldw	r5,8(sp)
 18046c4:	180f883a 	mov	r7,r3
 18046c8:	100d883a 	mov	r6,r2
 18046cc:	18054a40 	call	18054a4 <__muldf3>
 18046d0:	d9400217 	ldw	r5,8(sp)
 18046d4:	d9000117 	ldw	r4,4(sp)
 18046d8:	180f883a 	mov	r7,r3
 18046dc:	100d883a 	mov	r6,r2
 18046e0:	18053b00 	call	18053b0 <__subdf3>
 18046e4:	003ec806 	br	1804208 <atan+0x6c>
 18046e8:	009000f4 	movhi	r2,16387
 18046ec:	109fffc4 	addi	r2,r2,32767
 18046f0:	1400310e 	bge	r2,r16,18047b8 <atan+0x61c>
 18046f4:	0005883a 	mov	r2,zero
 18046f8:	00effc34 	movhi	r3,49136
 18046fc:	1009883a 	mov	r4,r2
 1804700:	180b883a 	mov	r5,r3
 1804704:	b80f883a 	mov	r7,r23
 1804708:	b00d883a 	mov	r6,r22
 180470c:	18058680 	call	1805868 <__divdf3>
 1804710:	010000c4 	movi	r4,3
 1804714:	d8800115 	stw	r2,4(sp)
 1804718:	d8c00215 	stw	r3,8(sp)
 180471c:	d9000015 	stw	r4,0(sp)
 1804720:	003ed306 	br	1804270 <atan+0xd4>
 1804724:	01151134 	movhi	r4,21572
 1804728:	210b4604 	addi	r4,r4,11544
 180472c:	00affe74 	movhi	r2,49145
 1804730:	10887ec4 	addi	r2,r2,8699
 1804734:	d9000115 	stw	r4,4(sp)
 1804738:	d8800215 	stw	r2,8(sp)
 180473c:	003eb406 	br	1804210 <atan+0x74>
 1804740:	b009883a 	mov	r4,r22
 1804744:	180b883a 	mov	r5,r3
 1804748:	b00d883a 	mov	r6,r22
 180474c:	180f883a 	mov	r7,r3
 1804750:	18054300 	call	1805430 <__adddf3>
 1804754:	0011883a 	mov	r8,zero
 1804758:	024ffc34 	movhi	r9,16368
 180475c:	480f883a 	mov	r7,r9
 1804760:	400d883a 	mov	r6,r8
 1804764:	180b883a 	mov	r5,r3
 1804768:	1009883a 	mov	r4,r2
 180476c:	18053b00 	call	18053b0 <__subdf3>
 1804770:	0011883a 	mov	r8,zero
 1804774:	02500034 	movhi	r9,16384
 1804778:	480f883a 	mov	r7,r9
 180477c:	400d883a 	mov	r6,r8
 1804780:	b80b883a 	mov	r5,r23
 1804784:	b009883a 	mov	r4,r22
 1804788:	1021883a 	mov	r16,r2
 180478c:	1823883a 	mov	r17,r3
 1804790:	18054300 	call	1805430 <__adddf3>
 1804794:	180f883a 	mov	r7,r3
 1804798:	880b883a 	mov	r5,r17
 180479c:	8009883a 	mov	r4,r16
 18047a0:	100d883a 	mov	r6,r2
 18047a4:	18058680 	call	1805868 <__divdf3>
 18047a8:	d8800115 	stw	r2,4(sp)
 18047ac:	d8c00215 	stw	r3,8(sp)
 18047b0:	d8000015 	stw	zero,0(sp)
 18047b4:	003eae06 	br	1804270 <atan+0xd4>
 18047b8:	044ffe34 	movhi	r17,16376
 18047bc:	0021883a 	mov	r16,zero
 18047c0:	800d883a 	mov	r6,r16
 18047c4:	880f883a 	mov	r7,r17
 18047c8:	b009883a 	mov	r4,r22
 18047cc:	180b883a 	mov	r5,r3
 18047d0:	18053b00 	call	18053b0 <__subdf3>
 18047d4:	880f883a 	mov	r7,r17
 18047d8:	000d883a 	mov	r6,zero
 18047dc:	b80b883a 	mov	r5,r23
 18047e0:	b009883a 	mov	r4,r22
 18047e4:	1021883a 	mov	r16,r2
 18047e8:	1823883a 	mov	r17,r3
 18047ec:	18054a40 	call	18054a4 <__muldf3>
 18047f0:	0011883a 	mov	r8,zero
 18047f4:	024ffc34 	movhi	r9,16368
 18047f8:	480f883a 	mov	r7,r9
 18047fc:	400d883a 	mov	r6,r8
 1804800:	180b883a 	mov	r5,r3
 1804804:	1009883a 	mov	r4,r2
 1804808:	18054300 	call	1805430 <__adddf3>
 180480c:	180f883a 	mov	r7,r3
 1804810:	8009883a 	mov	r4,r16
 1804814:	880b883a 	mov	r5,r17
 1804818:	100d883a 	mov	r6,r2
 180481c:	18058680 	call	1805868 <__divdf3>
 1804820:	01000084 	movi	r4,2
 1804824:	d8800115 	stw	r2,4(sp)
 1804828:	d8c00215 	stw	r3,8(sp)
 180482c:	d9000015 	stw	r4,0(sp)
 1804830:	003e8f06 	br	1804270 <atan+0xd4>

01804834 <fabs>:
 1804834:	01e00034 	movhi	r7,32768
 1804838:	39ffffc4 	addi	r7,r7,-1
 180483c:	394e703a 	and	r7,r7,r5
 1804840:	2005883a 	mov	r2,r4
 1804844:	3807883a 	mov	r3,r7
 1804848:	f800283a 	ret

0180484c <floor>:
 180484c:	2805d53a 	srai	r2,r5,20
 1804850:	defff604 	addi	sp,sp,-40
 1804854:	dd800615 	stw	r22,24(sp)
 1804858:	10c1ffcc 	andi	r3,r2,2047
 180485c:	1dbf0044 	addi	r22,r3,-1023
 1804860:	008004c4 	movi	r2,19
 1804864:	ddc00715 	stw	r23,28(sp)
 1804868:	dc800215 	stw	r18,8(sp)
 180486c:	dc400115 	stw	r17,4(sp)
 1804870:	dc000015 	stw	r16,0(sp)
 1804874:	dfc00915 	stw	ra,36(sp)
 1804878:	df000815 	stw	fp,32(sp)
 180487c:	dd400515 	stw	r21,20(sp)
 1804880:	dd000415 	stw	r20,16(sp)
 1804884:	dcc00315 	stw	r19,12(sp)
 1804888:	2021883a 	mov	r16,r4
 180488c:	2823883a 	mov	r17,r5
 1804890:	282f883a 	mov	r23,r5
 1804894:	2025883a 	mov	r18,r4
 1804898:	15802916 	blt	r2,r22,1804940 <floor+0xf4>
 180489c:	b0004816 	blt	r22,zero,18049c0 <floor+0x174>
 18048a0:	00800434 	movhi	r2,16
 18048a4:	10bfffc4 	addi	r2,r2,-1
 18048a8:	15b9d83a 	sra	fp,r2,r22
 18048ac:	282f883a 	mov	r23,r5
 18048b0:	e144703a 	and	r2,fp,r5
 18048b4:	1104b03a 	or	r2,r2,r4
 18048b8:	10001326 	beq	r2,zero,1804908 <floor+0xbc>
 18048bc:	00a20034 	movhi	r2,34816
 18048c0:	109d6704 	addi	r2,r2,30108
 18048c4:	00df8e34 	movhi	r3,32312
 18048c8:	18f90f04 	addi	r3,r3,-7108
 18048cc:	180f883a 	mov	r7,r3
 18048d0:	100d883a 	mov	r6,r2
 18048d4:	18054300 	call	1805430 <__adddf3>
 18048d8:	180b883a 	mov	r5,r3
 18048dc:	000d883a 	mov	r6,zero
 18048e0:	000f883a 	mov	r7,zero
 18048e4:	1009883a 	mov	r4,r2
 18048e8:	1805b480 	call	1805b48 <__gtdf2>
 18048ec:	0080040e 	bge	zero,r2,1804900 <floor+0xb4>
 18048f0:	88004416 	blt	r17,zero,1804a04 <floor+0x1b8>
 18048f4:	0704303a 	nor	r2,zero,fp
 18048f8:	b8ae703a 	and	r23,r23,r2
 18048fc:	0025883a 	mov	r18,zero
 1804900:	9021883a 	mov	r16,r18
 1804904:	b823883a 	mov	r17,r23
 1804908:	8005883a 	mov	r2,r16
 180490c:	8807883a 	mov	r3,r17
 1804910:	dfc00917 	ldw	ra,36(sp)
 1804914:	df000817 	ldw	fp,32(sp)
 1804918:	ddc00717 	ldw	r23,28(sp)
 180491c:	dd800617 	ldw	r22,24(sp)
 1804920:	dd400517 	ldw	r21,20(sp)
 1804924:	dd000417 	ldw	r20,16(sp)
 1804928:	dcc00317 	ldw	r19,12(sp)
 180492c:	dc800217 	ldw	r18,8(sp)
 1804930:	dc400117 	ldw	r17,4(sp)
 1804934:	dc000017 	ldw	r16,0(sp)
 1804938:	dec00a04 	addi	sp,sp,40
 180493c:	f800283a 	ret
 1804940:	00800cc4 	movi	r2,51
 1804944:	15801616 	blt	r2,r22,18049a0 <floor+0x154>
 1804948:	18befb44 	addi	r2,r3,-1043
 180494c:	00ffffc4 	movi	r3,-1
 1804950:	18b8d83a 	srl	fp,r3,r2
 1804954:	e104703a 	and	r2,fp,r4
 1804958:	103feb26 	beq	r2,zero,1804908 <floor+0xbc>
 180495c:	00a20034 	movhi	r2,34816
 1804960:	109d6704 	addi	r2,r2,30108
 1804964:	00df8e34 	movhi	r3,32312
 1804968:	18f90f04 	addi	r3,r3,-7108
 180496c:	180f883a 	mov	r7,r3
 1804970:	100d883a 	mov	r6,r2
 1804974:	18054300 	call	1805430 <__adddf3>
 1804978:	180b883a 	mov	r5,r3
 180497c:	000d883a 	mov	r6,zero
 1804980:	000f883a 	mov	r7,zero
 1804984:	1009883a 	mov	r4,r2
 1804988:	1805b480 	call	1805b48 <__gtdf2>
 180498c:	0080210e 	bge	zero,r2,1804a14 <floor+0x1c8>
 1804990:	88002216 	blt	r17,zero,1804a1c <floor+0x1d0>
 1804994:	0704303a 	nor	r2,zero,fp
 1804998:	90a4703a 	and	r18,r18,r2
 180499c:	003fd806 	br	1804900 <floor+0xb4>
 18049a0:	00810004 	movi	r2,1024
 18049a4:	b0bfd81e 	bne	r22,r2,1804908 <floor+0xbc>
 18049a8:	800d883a 	mov	r6,r16
 18049ac:	280f883a 	mov	r7,r5
 18049b0:	18054300 	call	1805430 <__adddf3>
 18049b4:	1021883a 	mov	r16,r2
 18049b8:	1823883a 	mov	r17,r3
 18049bc:	003fd206 	br	1804908 <floor+0xbc>
 18049c0:	00a20034 	movhi	r2,34816
 18049c4:	109d6704 	addi	r2,r2,30108
 18049c8:	00df8e34 	movhi	r3,32312
 18049cc:	18f90f04 	addi	r3,r3,-7108
 18049d0:	180f883a 	mov	r7,r3
 18049d4:	100d883a 	mov	r6,r2
 18049d8:	18054300 	call	1805430 <__adddf3>
 18049dc:	180b883a 	mov	r5,r3
 18049e0:	000d883a 	mov	r6,zero
 18049e4:	000f883a 	mov	r7,zero
 18049e8:	1009883a 	mov	r4,r2
 18049ec:	1805b480 	call	1805b48 <__gtdf2>
 18049f0:	00bfc30e 	bge	zero,r2,1804900 <floor+0xb4>
 18049f4:	88001416 	blt	r17,zero,1804a48 <floor+0x1fc>
 18049f8:	002f883a 	mov	r23,zero
 18049fc:	0025883a 	mov	r18,zero
 1804a00:	003fbf06 	br	1804900 <floor+0xb4>
 1804a04:	00800434 	movhi	r2,16
 1804a08:	1585d83a 	sra	r2,r2,r22
 1804a0c:	88af883a 	add	r23,r17,r2
 1804a10:	003fb806 	br	18048f4 <floor+0xa8>
 1804a14:	882f883a 	mov	r23,r17
 1804a18:	003fb906 	br	1804900 <floor+0xb4>
 1804a1c:	00800504 	movi	r2,20
 1804a20:	b0801126 	beq	r22,r2,1804a68 <floor+0x21c>
 1804a24:	00c00d04 	movi	r3,52
 1804a28:	1d87c83a 	sub	r3,r3,r22
 1804a2c:	00800044 	movi	r2,1
 1804a30:	10c4983a 	sll	r2,r2,r3
 1804a34:	8085883a 	add	r2,r16,r2
 1804a38:	1400012e 	bgeu	r2,r16,1804a40 <floor+0x1f4>
 1804a3c:	8dc00044 	addi	r23,r17,1
 1804a40:	1025883a 	mov	r18,r2
 1804a44:	003fd306 	br	1804994 <floor+0x148>
 1804a48:	00a00034 	movhi	r2,32768
 1804a4c:	10bfffc4 	addi	r2,r2,-1
 1804a50:	8884703a 	and	r2,r17,r2
 1804a54:	8084b03a 	or	r2,r16,r2
 1804a58:	103fee26 	beq	r2,zero,1804a14 <floor+0x1c8>
 1804a5c:	05effc34 	movhi	r23,49136
 1804a60:	0025883a 	mov	r18,zero
 1804a64:	003fa606 	br	1804900 <floor+0xb4>
 1804a68:	8dc00044 	addi	r23,r17,1
 1804a6c:	003fc906 	br	1804994 <floor+0x148>

01804a70 <__isnand>:
 1804a70:	200d883a 	mov	r6,r4
 1804a74:	0109c83a 	sub	r4,zero,r4
 1804a78:	2188b03a 	or	r4,r4,r6
 1804a7c:	2008d7fa 	srli	r4,r4,31
 1804a80:	00a00034 	movhi	r2,32768
 1804a84:	10bfffc4 	addi	r2,r2,-1
 1804a88:	1144703a 	and	r2,r2,r5
 1804a8c:	2088b03a 	or	r4,r4,r2
 1804a90:	009ffc34 	movhi	r2,32752
 1804a94:	1105c83a 	sub	r2,r2,r4
 1804a98:	1004d7fa 	srli	r2,r2,31
 1804a9c:	f800283a 	ret

01804aa0 <matherr>:
 1804aa0:	0005883a 	mov	r2,zero
 1804aa4:	f800283a 	ret

01804aa8 <scalbn>:
 1804aa8:	2011883a 	mov	r8,r4
 1804aac:	291ffc2c 	andhi	r4,r5,32752
 1804ab0:	2009d53a 	srai	r4,r4,20
 1804ab4:	defffd04 	addi	sp,sp,-12
 1804ab8:	dc000015 	stw	r16,0(sp)
 1804abc:	dfc00215 	stw	ra,8(sp)
 1804ac0:	dc400115 	stw	r17,4(sp)
 1804ac4:	2813883a 	mov	r9,r5
 1804ac8:	2815883a 	mov	r10,r5
 1804acc:	3021883a 	mov	r16,r6
 1804ad0:	2000281e 	bne	r4,zero,1804b74 <scalbn+0xcc>
 1804ad4:	00a00034 	movhi	r2,32768
 1804ad8:	10bfffc4 	addi	r2,r2,-1
 1804adc:	2884703a 	and	r2,r5,r2
 1804ae0:	4084b03a 	or	r2,r8,r2
 1804ae4:	10001826 	beq	r2,zero,1804b48 <scalbn+0xa0>
 1804ae8:	0005883a 	mov	r2,zero
 1804aec:	00d0d434 	movhi	r3,17232
 1804af0:	4009883a 	mov	r4,r8
 1804af4:	100d883a 	mov	r6,r2
 1804af8:	180f883a 	mov	r7,r3
 1804afc:	18054a40 	call	18054a4 <__muldf3>
 1804b00:	100b883a 	mov	r5,r2
 1804b04:	1011883a 	mov	r8,r2
 1804b08:	00bffff4 	movhi	r2,65535
 1804b0c:	108f2c04 	addi	r2,r2,15536
 1804b10:	180d883a 	mov	r6,r3
 1804b14:	1813883a 	mov	r9,r3
 1804b18:	8080120e 	bge	r16,r2,1804b64 <scalbn+0xbc>
 1804b1c:	00b0be74 	movhi	r2,49913
 1804b20:	10bcd644 	addi	r2,r2,-3239
 1804b24:	00c06974 	movhi	r3,421
 1804b28:	18db87c4 	addi	r3,r3,28191
 1804b2c:	2809883a 	mov	r4,r5
 1804b30:	180f883a 	mov	r7,r3
 1804b34:	300b883a 	mov	r5,r6
 1804b38:	100d883a 	mov	r6,r2
 1804b3c:	18054a40 	call	18054a4 <__muldf3>
 1804b40:	1011883a 	mov	r8,r2
 1804b44:	1813883a 	mov	r9,r3
 1804b48:	4005883a 	mov	r2,r8
 1804b4c:	4807883a 	mov	r3,r9
 1804b50:	dfc00217 	ldw	ra,8(sp)
 1804b54:	dc400117 	ldw	r17,4(sp)
 1804b58:	dc000017 	ldw	r16,0(sp)
 1804b5c:	dec00304 	addi	sp,sp,12
 1804b60:	f800283a 	ret
 1804b64:	189ffc2c 	andhi	r2,r3,32752
 1804b68:	1005d53a 	srai	r2,r2,20
 1804b6c:	1815883a 	mov	r10,r3
 1804b70:	113ff284 	addi	r4,r2,-54
 1804b74:	0081ffc4 	movi	r2,2047
 1804b78:	20801126 	beq	r4,r2,1804bc0 <scalbn+0x118>
 1804b7c:	2409883a 	add	r4,r4,r16
 1804b80:	0081ff84 	movi	r2,2046
 1804b84:	11001c16 	blt	r2,r4,1804bf8 <scalbn+0x150>
 1804b88:	0100290e 	bge	zero,r4,1804c30 <scalbn+0x188>
 1804b8c:	200a953a 	slli	r5,r4,20
 1804b90:	01200434 	movhi	r4,32784
 1804b94:	213fffc4 	addi	r4,r4,-1
 1804b98:	5108703a 	and	r4,r10,r4
 1804b9c:	2148b03a 	or	r4,r4,r5
 1804ba0:	2013883a 	mov	r9,r4
 1804ba4:	4005883a 	mov	r2,r8
 1804ba8:	4807883a 	mov	r3,r9
 1804bac:	dfc00217 	ldw	ra,8(sp)
 1804bb0:	dc400117 	ldw	r17,4(sp)
 1804bb4:	dc000017 	ldw	r16,0(sp)
 1804bb8:	dec00304 	addi	sp,sp,12
 1804bbc:	f800283a 	ret
 1804bc0:	480f883a 	mov	r7,r9
 1804bc4:	4009883a 	mov	r4,r8
 1804bc8:	480b883a 	mov	r5,r9
 1804bcc:	400d883a 	mov	r6,r8
 1804bd0:	18054300 	call	1805430 <__adddf3>
 1804bd4:	1011883a 	mov	r8,r2
 1804bd8:	1813883a 	mov	r9,r3
 1804bdc:	4005883a 	mov	r2,r8
 1804be0:	4807883a 	mov	r3,r9
 1804be4:	dfc00217 	ldw	ra,8(sp)
 1804be8:	dc400117 	ldw	r17,4(sp)
 1804bec:	dc000017 	ldw	r16,0(sp)
 1804bf0:	dec00304 	addi	sp,sp,12
 1804bf4:	f800283a 	ret
 1804bf8:	04220034 	movhi	r16,34816
 1804bfc:	841d6704 	addi	r16,r16,30108
 1804c00:	045f8e34 	movhi	r17,32312
 1804c04:	8c790f04 	addi	r17,r17,-7108
 1804c08:	480f883a 	mov	r7,r9
 1804c0c:	400d883a 	mov	r6,r8
 1804c10:	8009883a 	mov	r4,r16
 1804c14:	880b883a 	mov	r5,r17
 1804c18:	1804c880 	call	1804c88 <copysign>
 1804c1c:	180b883a 	mov	r5,r3
 1804c20:	800d883a 	mov	r6,r16
 1804c24:	880f883a 	mov	r7,r17
 1804c28:	1009883a 	mov	r4,r2
 1804c2c:	003fc306 	br	1804b3c <scalbn+0x94>
 1804c30:	00bff284 	movi	r2,-54
 1804c34:	11000716 	blt	r2,r4,1804c54 <scalbn+0x1ac>
 1804c38:	00b0d414 	movui	r2,50000
 1804c3c:	143fee16 	blt	r2,r16,1804bf8 <scalbn+0x150>
 1804c40:	0430be74 	movhi	r16,49913
 1804c44:	843cd644 	addi	r16,r16,-3239
 1804c48:	04406974 	movhi	r17,421
 1804c4c:	8c5b87c4 	addi	r17,r17,28191
 1804c50:	003fed06 	br	1804c08 <scalbn+0x160>
 1804c54:	21000d84 	addi	r4,r4,54
 1804c58:	2008953a 	slli	r4,r4,20
 1804c5c:	01e00434 	movhi	r7,32784
 1804c60:	39ffffc4 	addi	r7,r7,-1
 1804c64:	51ce703a 	and	r7,r10,r7
 1804c68:	390eb03a 	or	r7,r7,r4
 1804c6c:	024f2434 	movhi	r9,15504
 1804c70:	4009883a 	mov	r4,r8
 1804c74:	0011883a 	mov	r8,zero
 1804c78:	380b883a 	mov	r5,r7
 1804c7c:	400d883a 	mov	r6,r8
 1804c80:	480f883a 	mov	r7,r9
 1804c84:	003fad06 	br	1804b3c <scalbn+0x94>

01804c88 <copysign>:
 1804c88:	3813883a 	mov	r9,r7
 1804c8c:	01e00034 	movhi	r7,32768
 1804c90:	39ffffc4 	addi	r7,r7,-1
 1804c94:	394e703a 	and	r7,r7,r5
 1804c98:	4aa0002c 	andhi	r10,r9,32768
 1804c9c:	3a8eb03a 	or	r7,r7,r10
 1804ca0:	2005883a 	mov	r2,r4
 1804ca4:	3807883a 	mov	r3,r7
 1804ca8:	f800283a 	ret

01804cac <__divsf3>:
 1804cac:	defff304 	addi	sp,sp,-52
 1804cb0:	dc400b15 	stw	r17,44(sp)
 1804cb4:	dc400204 	addi	r17,sp,8
 1804cb8:	dc000a15 	stw	r16,40(sp)
 1804cbc:	d9000015 	stw	r4,0(sp)
 1804cc0:	d9400115 	stw	r5,4(sp)
 1804cc4:	d809883a 	mov	r4,sp
 1804cc8:	880b883a 	mov	r5,r17
 1804ccc:	dc000604 	addi	r16,sp,24
 1804cd0:	dfc00c15 	stw	ra,48(sp)
 1804cd4:	18063200 	call	1806320 <__unpack_f>
 1804cd8:	d9000104 	addi	r4,sp,4
 1804cdc:	800b883a 	mov	r5,r16
 1804ce0:	18063200 	call	1806320 <__unpack_f>
 1804ce4:	d9000217 	ldw	r4,8(sp)
 1804ce8:	00800044 	movi	r2,1
 1804cec:	01800104 	movi	r6,4
 1804cf0:	11000a2e 	bgeu	r2,r4,1804d1c <__divsf3+0x70>
 1804cf4:	d9400617 	ldw	r5,24(sp)
 1804cf8:	1140432e 	bgeu	r2,r5,1804e08 <__divsf3+0x15c>
 1804cfc:	d8800317 	ldw	r2,12(sp)
 1804d00:	d8c00717 	ldw	r3,28(sp)
 1804d04:	10c4f03a 	xor	r2,r2,r3
 1804d08:	d8800315 	stw	r2,12(sp)
 1804d0c:	21800226 	beq	r4,r6,1804d18 <__divsf3+0x6c>
 1804d10:	00800084 	movi	r2,2
 1804d14:	2080101e 	bne	r4,r2,1804d58 <__divsf3+0xac>
 1804d18:	29000726 	beq	r5,r4,1804d38 <__divsf3+0x8c>
 1804d1c:	8809883a 	mov	r4,r17
 1804d20:	18061c00 	call	18061c0 <__pack_f>
 1804d24:	dfc00c17 	ldw	ra,48(sp)
 1804d28:	dc400b17 	ldw	r17,44(sp)
 1804d2c:	dc000a17 	ldw	r16,40(sp)
 1804d30:	dec00d04 	addi	sp,sp,52
 1804d34:	f800283a 	ret
 1804d38:	01006074 	movhi	r4,385
 1804d3c:	21161004 	addi	r4,r4,22592
 1804d40:	18061c00 	call	18061c0 <__pack_f>
 1804d44:	dfc00c17 	ldw	ra,48(sp)
 1804d48:	dc400b17 	ldw	r17,44(sp)
 1804d4c:	dc000a17 	ldw	r16,40(sp)
 1804d50:	dec00d04 	addi	sp,sp,52
 1804d54:	f800283a 	ret
 1804d58:	29802d26 	beq	r5,r6,1804e10 <__divsf3+0x164>
 1804d5c:	28801a26 	beq	r5,r2,1804dc8 <__divsf3+0x11c>
 1804d60:	d8c00417 	ldw	r3,16(sp)
 1804d64:	d8800817 	ldw	r2,32(sp)
 1804d68:	d9000517 	ldw	r4,20(sp)
 1804d6c:	d9800917 	ldw	r6,36(sp)
 1804d70:	1885c83a 	sub	r2,r3,r2
 1804d74:	d8800415 	stw	r2,16(sp)
 1804d78:	2180032e 	bgeu	r4,r6,1804d88 <__divsf3+0xdc>
 1804d7c:	10bfffc4 	addi	r2,r2,-1
 1804d80:	d8800415 	stw	r2,16(sp)
 1804d84:	2109883a 	add	r4,r4,r4
 1804d88:	01500034 	movhi	r5,16384
 1804d8c:	0007883a 	mov	r3,zero
 1804d90:	0005883a 	mov	r2,zero
 1804d94:	01c007c4 	movi	r7,31
 1804d98:	10800044 	addi	r2,r2,1
 1804d9c:	21800236 	bltu	r4,r6,1804da8 <__divsf3+0xfc>
 1804da0:	1946b03a 	or	r3,r3,r5
 1804da4:	2189c83a 	sub	r4,r4,r6
 1804da8:	280ad07a 	srli	r5,r5,1
 1804dac:	2109883a 	add	r4,r4,r4
 1804db0:	11fff91e 	bne	r2,r7,1804d98 <__divsf3+0xec>
 1804db4:	19401fcc 	andi	r5,r3,127
 1804db8:	00801004 	movi	r2,64
 1804dbc:	28800a26 	beq	r5,r2,1804de8 <__divsf3+0x13c>
 1804dc0:	d8c00515 	stw	r3,20(sp)
 1804dc4:	003fd506 	br	1804d1c <__divsf3+0x70>
 1804dc8:	8809883a 	mov	r4,r17
 1804dcc:	d9800215 	stw	r6,8(sp)
 1804dd0:	18061c00 	call	18061c0 <__pack_f>
 1804dd4:	dfc00c17 	ldw	ra,48(sp)
 1804dd8:	dc400b17 	ldw	r17,44(sp)
 1804ddc:	dc000a17 	ldw	r16,40(sp)
 1804de0:	dec00d04 	addi	sp,sp,52
 1804de4:	f800283a 	ret
 1804de8:	1880200c 	andi	r2,r3,128
 1804dec:	103ff41e 	bne	r2,zero,1804dc0 <__divsf3+0x114>
 1804df0:	203ff326 	beq	r4,zero,1804dc0 <__divsf3+0x114>
 1804df4:	1947883a 	add	r3,r3,r5
 1804df8:	00bfe004 	movi	r2,-128
 1804dfc:	1886703a 	and	r3,r3,r2
 1804e00:	d8c00515 	stw	r3,20(sp)
 1804e04:	003fc506 	br	1804d1c <__divsf3+0x70>
 1804e08:	8009883a 	mov	r4,r16
 1804e0c:	003fc406 	br	1804d20 <__divsf3+0x74>
 1804e10:	8809883a 	mov	r4,r17
 1804e14:	d8000515 	stw	zero,20(sp)
 1804e18:	d8000415 	stw	zero,16(sp)
 1804e1c:	003fc006 	br	1804d20 <__divsf3+0x74>

01804e20 <__floatsisf>:
 1804e20:	2006d7fa 	srli	r3,r4,31
 1804e24:	defffa04 	addi	sp,sp,-24
 1804e28:	008000c4 	movi	r2,3
 1804e2c:	dfc00515 	stw	ra,20(sp)
 1804e30:	dc000415 	stw	r16,16(sp)
 1804e34:	d8800015 	stw	r2,0(sp)
 1804e38:	d8c00115 	stw	r3,4(sp)
 1804e3c:	2000081e 	bne	r4,zero,1804e60 <__floatsisf+0x40>
 1804e40:	00800084 	movi	r2,2
 1804e44:	d8800015 	stw	r2,0(sp)
 1804e48:	d809883a 	mov	r4,sp
 1804e4c:	18061c00 	call	18061c0 <__pack_f>
 1804e50:	dfc00517 	ldw	ra,20(sp)
 1804e54:	dc000417 	ldw	r16,16(sp)
 1804e58:	dec00604 	addi	sp,sp,24
 1804e5c:	f800283a 	ret
 1804e60:	00800784 	movi	r2,30
 1804e64:	1807003a 	cmpeq	r3,r3,zero
 1804e68:	d8800215 	stw	r2,8(sp)
 1804e6c:	18000e1e 	bne	r3,zero,1804ea8 <__floatsisf+0x88>
 1804e70:	00a00034 	movhi	r2,32768
 1804e74:	20800e26 	beq	r4,r2,1804eb0 <__floatsisf+0x90>
 1804e78:	0121c83a 	sub	r16,zero,r4
 1804e7c:	8009883a 	mov	r4,r16
 1804e80:	dc000315 	stw	r16,12(sp)
 1804e84:	18061400 	call	1806140 <__clzsi2>
 1804e88:	117fffc4 	addi	r5,r2,-1
 1804e8c:	017fee0e 	bge	zero,r5,1804e48 <__floatsisf+0x28>
 1804e90:	d8800217 	ldw	r2,8(sp)
 1804e94:	8146983a 	sll	r3,r16,r5
 1804e98:	1145c83a 	sub	r2,r2,r5
 1804e9c:	d8c00315 	stw	r3,12(sp)
 1804ea0:	d8800215 	stw	r2,8(sp)
 1804ea4:	003fe806 	br	1804e48 <__floatsisf+0x28>
 1804ea8:	2021883a 	mov	r16,r4
 1804eac:	003ff306 	br	1804e7c <__floatsisf+0x5c>
 1804eb0:	00b3c034 	movhi	r2,52992
 1804eb4:	003fe606 	br	1804e50 <__floatsisf+0x30>

01804eb8 <__fixsfsi>:
 1804eb8:	defffa04 	addi	sp,sp,-24
 1804ebc:	d9000015 	stw	r4,0(sp)
 1804ec0:	d9400104 	addi	r5,sp,4
 1804ec4:	d809883a 	mov	r4,sp
 1804ec8:	dfc00515 	stw	ra,20(sp)
 1804ecc:	18063200 	call	1806320 <__unpack_f>
 1804ed0:	d8c00117 	ldw	r3,4(sp)
 1804ed4:	00800084 	movi	r2,2
 1804ed8:	1880041e 	bne	r3,r2,1804eec <__fixsfsi+0x34>
 1804edc:	0005883a 	mov	r2,zero
 1804ee0:	dfc00517 	ldw	ra,20(sp)
 1804ee4:	dec00604 	addi	sp,sp,24
 1804ee8:	f800283a 	ret
 1804eec:	00800044 	movi	r2,1
 1804ef0:	10fffa2e 	bgeu	r2,r3,1804edc <__fixsfsi+0x24>
 1804ef4:	00800104 	movi	r2,4
 1804ef8:	18800426 	beq	r3,r2,1804f0c <__fixsfsi+0x54>
 1804efc:	d8800317 	ldw	r2,12(sp)
 1804f00:	103ff616 	blt	r2,zero,1804edc <__fixsfsi+0x24>
 1804f04:	00c00784 	movi	r3,30
 1804f08:	1880070e 	bge	r3,r2,1804f28 <__fixsfsi+0x70>
 1804f0c:	d8800217 	ldw	r2,8(sp)
 1804f10:	10000c1e 	bne	r2,zero,1804f44 <__fixsfsi+0x8c>
 1804f14:	00a00034 	movhi	r2,32768
 1804f18:	10bfffc4 	addi	r2,r2,-1
 1804f1c:	dfc00517 	ldw	ra,20(sp)
 1804f20:	dec00604 	addi	sp,sp,24
 1804f24:	f800283a 	ret
 1804f28:	1885c83a 	sub	r2,r3,r2
 1804f2c:	d9000217 	ldw	r4,8(sp)
 1804f30:	d8c00417 	ldw	r3,16(sp)
 1804f34:	1884d83a 	srl	r2,r3,r2
 1804f38:	203fe926 	beq	r4,zero,1804ee0 <__fixsfsi+0x28>
 1804f3c:	0085c83a 	sub	r2,zero,r2
 1804f40:	003fe706 	br	1804ee0 <__fixsfsi+0x28>
 1804f44:	00a00034 	movhi	r2,32768
 1804f48:	003fe506 	br	1804ee0 <__fixsfsi+0x28>

01804f4c <__extendsfdf2>:
 1804f4c:	defff904 	addi	sp,sp,-28
 1804f50:	d9000115 	stw	r4,4(sp)
 1804f54:	d9400204 	addi	r5,sp,8
 1804f58:	d9000104 	addi	r4,sp,4
 1804f5c:	dfc00615 	stw	ra,24(sp)
 1804f60:	18063200 	call	1806320 <__unpack_f>
 1804f64:	d9c00517 	ldw	r7,20(sp)
 1804f68:	0011883a 	mov	r8,zero
 1804f6c:	400697ba 	slli	r3,r8,30
 1804f70:	3812d0ba 	srli	r9,r7,2
 1804f74:	380497ba 	slli	r2,r7,30
 1804f78:	d9000217 	ldw	r4,8(sp)
 1804f7c:	d9400317 	ldw	r5,12(sp)
 1804f80:	d9800417 	ldw	r6,16(sp)
 1804f84:	48c6b03a 	or	r3,r9,r3
 1804f88:	100f883a 	mov	r7,r2
 1804f8c:	d8c00015 	stw	r3,0(sp)
 1804f90:	1805eb00 	call	1805eb0 <__make_dp>
 1804f94:	dfc00617 	ldw	ra,24(sp)
 1804f98:	dec00704 	addi	sp,sp,28
 1804f9c:	f800283a 	ret

01804fa0 <_fpadd_parts>:
 1804fa0:	defff804 	addi	sp,sp,-32
 1804fa4:	dcc00315 	stw	r19,12(sp)
 1804fa8:	2027883a 	mov	r19,r4
 1804fac:	21000017 	ldw	r4,0(r4)
 1804fb0:	00c00044 	movi	r3,1
 1804fb4:	dd400515 	stw	r21,20(sp)
 1804fb8:	dd000415 	stw	r20,16(sp)
 1804fbc:	ddc00715 	stw	r23,28(sp)
 1804fc0:	dd800615 	stw	r22,24(sp)
 1804fc4:	dc800215 	stw	r18,8(sp)
 1804fc8:	dc400115 	stw	r17,4(sp)
 1804fcc:	dc000015 	stw	r16,0(sp)
 1804fd0:	282b883a 	mov	r21,r5
 1804fd4:	3029883a 	mov	r20,r6
 1804fd8:	1900632e 	bgeu	r3,r4,1805168 <_fpadd_parts+0x1c8>
 1804fdc:	28800017 	ldw	r2,0(r5)
 1804fe0:	1880812e 	bgeu	r3,r2,18051e8 <_fpadd_parts+0x248>
 1804fe4:	00c00104 	movi	r3,4
 1804fe8:	20c0dc26 	beq	r4,r3,180535c <_fpadd_parts+0x3bc>
 1804fec:	10c07e26 	beq	r2,r3,18051e8 <_fpadd_parts+0x248>
 1804ff0:	00c00084 	movi	r3,2
 1804ff4:	10c06726 	beq	r2,r3,1805194 <_fpadd_parts+0x1f4>
 1804ff8:	20c07b26 	beq	r4,r3,18051e8 <_fpadd_parts+0x248>
 1804ffc:	9dc00217 	ldw	r23,8(r19)
 1805000:	28c00217 	ldw	r3,8(r5)
 1805004:	9c400317 	ldw	r17,12(r19)
 1805008:	2bc00317 	ldw	r15,12(r5)
 180500c:	b8cdc83a 	sub	r6,r23,r3
 1805010:	9c800417 	ldw	r18,16(r19)
 1805014:	2c000417 	ldw	r16,16(r5)
 1805018:	3009883a 	mov	r4,r6
 180501c:	30009716 	blt	r6,zero,180527c <_fpadd_parts+0x2dc>
 1805020:	00800fc4 	movi	r2,63
 1805024:	11806b16 	blt	r2,r6,18051d4 <_fpadd_parts+0x234>
 1805028:	0100a40e 	bge	zero,r4,18052bc <_fpadd_parts+0x31c>
 180502c:	35bff804 	addi	r22,r6,-32
 1805030:	b000bc16 	blt	r22,zero,1805324 <_fpadd_parts+0x384>
 1805034:	8596d83a 	srl	r11,r16,r22
 1805038:	0019883a 	mov	r12,zero
 180503c:	0013883a 	mov	r9,zero
 1805040:	01000044 	movi	r4,1
 1805044:	0015883a 	mov	r10,zero
 1805048:	b000be16 	blt	r22,zero,1805344 <_fpadd_parts+0x3a4>
 180504c:	2590983a 	sll	r8,r4,r22
 1805050:	000f883a 	mov	r7,zero
 1805054:	00bfffc4 	movi	r2,-1
 1805058:	3889883a 	add	r4,r7,r2
 180505c:	408b883a 	add	r5,r8,r2
 1805060:	21cd803a 	cmpltu	r6,r4,r7
 1805064:	314b883a 	add	r5,r6,r5
 1805068:	7904703a 	and	r2,r15,r4
 180506c:	8146703a 	and	r3,r16,r5
 1805070:	10c4b03a 	or	r2,r2,r3
 1805074:	10000226 	beq	r2,zero,1805080 <_fpadd_parts+0xe0>
 1805078:	02400044 	movi	r9,1
 180507c:	0015883a 	mov	r10,zero
 1805080:	5a5eb03a 	or	r15,r11,r9
 1805084:	62a0b03a 	or	r16,r12,r10
 1805088:	99400117 	ldw	r5,4(r19)
 180508c:	a8800117 	ldw	r2,4(r21)
 1805090:	28806e26 	beq	r5,r2,180524c <_fpadd_parts+0x2ac>
 1805094:	28006626 	beq	r5,zero,1805230 <_fpadd_parts+0x290>
 1805098:	7c45c83a 	sub	r2,r15,r17
 180509c:	7889803a 	cmpltu	r4,r15,r2
 18050a0:	8487c83a 	sub	r3,r16,r18
 18050a4:	1909c83a 	sub	r4,r3,r4
 18050a8:	100d883a 	mov	r6,r2
 18050ac:	200f883a 	mov	r7,r4
 18050b0:	38007716 	blt	r7,zero,1805290 <_fpadd_parts+0x2f0>
 18050b4:	a5c00215 	stw	r23,8(r20)
 18050b8:	a1c00415 	stw	r7,16(r20)
 18050bc:	a0000115 	stw	zero,4(r20)
 18050c0:	a1800315 	stw	r6,12(r20)
 18050c4:	a2000317 	ldw	r8,12(r20)
 18050c8:	a2400417 	ldw	r9,16(r20)
 18050cc:	00bfffc4 	movi	r2,-1
 18050d0:	408b883a 	add	r5,r8,r2
 18050d4:	2a09803a 	cmpltu	r4,r5,r8
 18050d8:	488d883a 	add	r6,r9,r2
 18050dc:	01c40034 	movhi	r7,4096
 18050e0:	39ffffc4 	addi	r7,r7,-1
 18050e4:	218d883a 	add	r6,r4,r6
 18050e8:	39801736 	bltu	r7,r6,1805148 <_fpadd_parts+0x1a8>
 18050ec:	31c06526 	beq	r6,r7,1805284 <_fpadd_parts+0x2e4>
 18050f0:	a3000217 	ldw	r12,8(r20)
 18050f4:	4209883a 	add	r4,r8,r8
 18050f8:	00bfffc4 	movi	r2,-1
 18050fc:	220f803a 	cmpltu	r7,r4,r8
 1805100:	4a4b883a 	add	r5,r9,r9
 1805104:	394f883a 	add	r7,r7,r5
 1805108:	2095883a 	add	r10,r4,r2
 180510c:	3897883a 	add	r11,r7,r2
 1805110:	510d803a 	cmpltu	r6,r10,r4
 1805114:	6099883a 	add	r12,r12,r2
 1805118:	32d7883a 	add	r11,r6,r11
 180511c:	00840034 	movhi	r2,4096
 1805120:	10bfffc4 	addi	r2,r2,-1
 1805124:	2011883a 	mov	r8,r4
 1805128:	3813883a 	mov	r9,r7
 180512c:	a1000315 	stw	r4,12(r20)
 1805130:	a1c00415 	stw	r7,16(r20)
 1805134:	a3000215 	stw	r12,8(r20)
 1805138:	12c00336 	bltu	r2,r11,1805148 <_fpadd_parts+0x1a8>
 180513c:	58bfed1e 	bne	r11,r2,18050f4 <_fpadd_parts+0x154>
 1805140:	00bfff84 	movi	r2,-2
 1805144:	12bfeb2e 	bgeu	r2,r10,18050f4 <_fpadd_parts+0x154>
 1805148:	a2800417 	ldw	r10,16(r20)
 180514c:	008000c4 	movi	r2,3
 1805150:	00c80034 	movhi	r3,8192
 1805154:	18ffffc4 	addi	r3,r3,-1
 1805158:	a2400317 	ldw	r9,12(r20)
 180515c:	a0800015 	stw	r2,0(r20)
 1805160:	1a802336 	bltu	r3,r10,18051f0 <_fpadd_parts+0x250>
 1805164:	a027883a 	mov	r19,r20
 1805168:	9805883a 	mov	r2,r19
 180516c:	ddc00717 	ldw	r23,28(sp)
 1805170:	dd800617 	ldw	r22,24(sp)
 1805174:	dd400517 	ldw	r21,20(sp)
 1805178:	dd000417 	ldw	r20,16(sp)
 180517c:	dcc00317 	ldw	r19,12(sp)
 1805180:	dc800217 	ldw	r18,8(sp)
 1805184:	dc400117 	ldw	r17,4(sp)
 1805188:	dc000017 	ldw	r16,0(sp)
 180518c:	dec00804 	addi	sp,sp,32
 1805190:	f800283a 	ret
 1805194:	20fff41e 	bne	r4,r3,1805168 <_fpadd_parts+0x1c8>
 1805198:	31000015 	stw	r4,0(r6)
 180519c:	98800117 	ldw	r2,4(r19)
 18051a0:	30800115 	stw	r2,4(r6)
 18051a4:	98c00217 	ldw	r3,8(r19)
 18051a8:	30c00215 	stw	r3,8(r6)
 18051ac:	98800317 	ldw	r2,12(r19)
 18051b0:	30800315 	stw	r2,12(r6)
 18051b4:	98c00417 	ldw	r3,16(r19)
 18051b8:	30c00415 	stw	r3,16(r6)
 18051bc:	98800117 	ldw	r2,4(r19)
 18051c0:	28c00117 	ldw	r3,4(r5)
 18051c4:	3027883a 	mov	r19,r6
 18051c8:	10c4703a 	and	r2,r2,r3
 18051cc:	30800115 	stw	r2,4(r6)
 18051d0:	003fe506 	br	1805168 <_fpadd_parts+0x1c8>
 18051d4:	1dc02616 	blt	r3,r23,1805270 <_fpadd_parts+0x2d0>
 18051d8:	0023883a 	mov	r17,zero
 18051dc:	182f883a 	mov	r23,r3
 18051e0:	0025883a 	mov	r18,zero
 18051e4:	003fa806 	br	1805088 <_fpadd_parts+0xe8>
 18051e8:	a827883a 	mov	r19,r21
 18051ec:	003fde06 	br	1805168 <_fpadd_parts+0x1c8>
 18051f0:	01800044 	movi	r6,1
 18051f4:	500497fa 	slli	r2,r10,31
 18051f8:	4808d07a 	srli	r4,r9,1
 18051fc:	518ad83a 	srl	r5,r10,r6
 1805200:	a2000217 	ldw	r8,8(r20)
 1805204:	1108b03a 	or	r4,r2,r4
 1805208:	0007883a 	mov	r3,zero
 180520c:	4984703a 	and	r2,r9,r6
 1805210:	208cb03a 	or	r6,r4,r2
 1805214:	28ceb03a 	or	r7,r5,r3
 1805218:	42000044 	addi	r8,r8,1
 180521c:	a027883a 	mov	r19,r20
 1805220:	a1c00415 	stw	r7,16(r20)
 1805224:	a2000215 	stw	r8,8(r20)
 1805228:	a1800315 	stw	r6,12(r20)
 180522c:	003fce06 	br	1805168 <_fpadd_parts+0x1c8>
 1805230:	8bc5c83a 	sub	r2,r17,r15
 1805234:	8889803a 	cmpltu	r4,r17,r2
 1805238:	9407c83a 	sub	r3,r18,r16
 180523c:	1909c83a 	sub	r4,r3,r4
 1805240:	100d883a 	mov	r6,r2
 1805244:	200f883a 	mov	r7,r4
 1805248:	003f9906 	br	18050b0 <_fpadd_parts+0x110>
 180524c:	7c45883a 	add	r2,r15,r17
 1805250:	13c9803a 	cmpltu	r4,r2,r15
 1805254:	8487883a 	add	r3,r16,r18
 1805258:	20c9883a 	add	r4,r4,r3
 180525c:	a1400115 	stw	r5,4(r20)
 1805260:	a5c00215 	stw	r23,8(r20)
 1805264:	a0800315 	stw	r2,12(r20)
 1805268:	a1000415 	stw	r4,16(r20)
 180526c:	003fb606 	br	1805148 <_fpadd_parts+0x1a8>
 1805270:	001f883a 	mov	r15,zero
 1805274:	0021883a 	mov	r16,zero
 1805278:	003f8306 	br	1805088 <_fpadd_parts+0xe8>
 180527c:	018dc83a 	sub	r6,zero,r6
 1805280:	003f6706 	br	1805020 <_fpadd_parts+0x80>
 1805284:	00bfff84 	movi	r2,-2
 1805288:	117faf36 	bltu	r2,r5,1805148 <_fpadd_parts+0x1a8>
 180528c:	003f9806 	br	18050f0 <_fpadd_parts+0x150>
 1805290:	0005883a 	mov	r2,zero
 1805294:	1189c83a 	sub	r4,r2,r6
 1805298:	1105803a 	cmpltu	r2,r2,r4
 180529c:	01cbc83a 	sub	r5,zero,r7
 18052a0:	2885c83a 	sub	r2,r5,r2
 18052a4:	01800044 	movi	r6,1
 18052a8:	a1800115 	stw	r6,4(r20)
 18052ac:	a5c00215 	stw	r23,8(r20)
 18052b0:	a1000315 	stw	r4,12(r20)
 18052b4:	a0800415 	stw	r2,16(r20)
 18052b8:	003f8206 	br	18050c4 <_fpadd_parts+0x124>
 18052bc:	203f7226 	beq	r4,zero,1805088 <_fpadd_parts+0xe8>
 18052c0:	35bff804 	addi	r22,r6,-32
 18052c4:	b9af883a 	add	r23,r23,r6
 18052c8:	b0003116 	blt	r22,zero,1805390 <_fpadd_parts+0x3f0>
 18052cc:	959ad83a 	srl	r13,r18,r22
 18052d0:	001d883a 	mov	r14,zero
 18052d4:	000f883a 	mov	r7,zero
 18052d8:	01000044 	movi	r4,1
 18052dc:	0011883a 	mov	r8,zero
 18052e0:	b0002516 	blt	r22,zero,1805378 <_fpadd_parts+0x3d8>
 18052e4:	2594983a 	sll	r10,r4,r22
 18052e8:	0013883a 	mov	r9,zero
 18052ec:	00bfffc4 	movi	r2,-1
 18052f0:	4889883a 	add	r4,r9,r2
 18052f4:	508b883a 	add	r5,r10,r2
 18052f8:	224d803a 	cmpltu	r6,r4,r9
 18052fc:	314b883a 	add	r5,r6,r5
 1805300:	8904703a 	and	r2,r17,r4
 1805304:	9146703a 	and	r3,r18,r5
 1805308:	10c4b03a 	or	r2,r2,r3
 180530c:	10000226 	beq	r2,zero,1805318 <_fpadd_parts+0x378>
 1805310:	01c00044 	movi	r7,1
 1805314:	0011883a 	mov	r8,zero
 1805318:	69e2b03a 	or	r17,r13,r7
 180531c:	7224b03a 	or	r18,r14,r8
 1805320:	003f5906 	br	1805088 <_fpadd_parts+0xe8>
 1805324:	8407883a 	add	r3,r16,r16
 1805328:	008007c4 	movi	r2,31
 180532c:	1185c83a 	sub	r2,r2,r6
 1805330:	1886983a 	sll	r3,r3,r2
 1805334:	7996d83a 	srl	r11,r15,r6
 1805338:	8198d83a 	srl	r12,r16,r6
 180533c:	1ad6b03a 	or	r11,r3,r11
 1805340:	003f3e06 	br	180503c <_fpadd_parts+0x9c>
 1805344:	2006d07a 	srli	r3,r4,1
 1805348:	008007c4 	movi	r2,31
 180534c:	1185c83a 	sub	r2,r2,r6
 1805350:	1890d83a 	srl	r8,r3,r2
 1805354:	218e983a 	sll	r7,r4,r6
 1805358:	003f3e06 	br	1805054 <_fpadd_parts+0xb4>
 180535c:	113f821e 	bne	r2,r4,1805168 <_fpadd_parts+0x1c8>
 1805360:	28c00117 	ldw	r3,4(r5)
 1805364:	98800117 	ldw	r2,4(r19)
 1805368:	10ff7f26 	beq	r2,r3,1805168 <_fpadd_parts+0x1c8>
 180536c:	04c06074 	movhi	r19,385
 1805370:	9cd61404 	addi	r19,r19,22608
 1805374:	003f7c06 	br	1805168 <_fpadd_parts+0x1c8>
 1805378:	2006d07a 	srli	r3,r4,1
 180537c:	008007c4 	movi	r2,31
 1805380:	1185c83a 	sub	r2,r2,r6
 1805384:	1894d83a 	srl	r10,r3,r2
 1805388:	2192983a 	sll	r9,r4,r6
 180538c:	003fd706 	br	18052ec <_fpadd_parts+0x34c>
 1805390:	9487883a 	add	r3,r18,r18
 1805394:	008007c4 	movi	r2,31
 1805398:	1185c83a 	sub	r2,r2,r6
 180539c:	1886983a 	sll	r3,r3,r2
 18053a0:	899ad83a 	srl	r13,r17,r6
 18053a4:	919cd83a 	srl	r14,r18,r6
 18053a8:	1b5ab03a 	or	r13,r3,r13
 18053ac:	003fc906 	br	18052d4 <_fpadd_parts+0x334>

018053b0 <__subdf3>:
 18053b0:	deffea04 	addi	sp,sp,-88
 18053b4:	dcc01415 	stw	r19,80(sp)
 18053b8:	dcc00404 	addi	r19,sp,16
 18053bc:	2011883a 	mov	r8,r4
 18053c0:	2813883a 	mov	r9,r5
 18053c4:	dc401315 	stw	r17,76(sp)
 18053c8:	d809883a 	mov	r4,sp
 18053cc:	980b883a 	mov	r5,r19
 18053d0:	dc400904 	addi	r17,sp,36
 18053d4:	dfc01515 	stw	ra,84(sp)
 18053d8:	da400115 	stw	r9,4(sp)
 18053dc:	d9c00315 	stw	r7,12(sp)
 18053e0:	da000015 	stw	r8,0(sp)
 18053e4:	d9800215 	stw	r6,8(sp)
 18053e8:	18067280 	call	1806728 <__unpack_d>
 18053ec:	d9000204 	addi	r4,sp,8
 18053f0:	880b883a 	mov	r5,r17
 18053f4:	18067280 	call	1806728 <__unpack_d>
 18053f8:	d8800a17 	ldw	r2,40(sp)
 18053fc:	880b883a 	mov	r5,r17
 1805400:	9809883a 	mov	r4,r19
 1805404:	d9800e04 	addi	r6,sp,56
 1805408:	1080005c 	xori	r2,r2,1
 180540c:	d8800a15 	stw	r2,40(sp)
 1805410:	1804fa00 	call	1804fa0 <_fpadd_parts>
 1805414:	1009883a 	mov	r4,r2
 1805418:	18064140 	call	1806414 <__pack_d>
 180541c:	dfc01517 	ldw	ra,84(sp)
 1805420:	dcc01417 	ldw	r19,80(sp)
 1805424:	dc401317 	ldw	r17,76(sp)
 1805428:	dec01604 	addi	sp,sp,88
 180542c:	f800283a 	ret

01805430 <__adddf3>:
 1805430:	deffea04 	addi	sp,sp,-88
 1805434:	dcc01415 	stw	r19,80(sp)
 1805438:	dcc00404 	addi	r19,sp,16
 180543c:	2011883a 	mov	r8,r4
 1805440:	2813883a 	mov	r9,r5
 1805444:	dc401315 	stw	r17,76(sp)
 1805448:	d809883a 	mov	r4,sp
 180544c:	980b883a 	mov	r5,r19
 1805450:	dc400904 	addi	r17,sp,36
 1805454:	dfc01515 	stw	ra,84(sp)
 1805458:	da400115 	stw	r9,4(sp)
 180545c:	d9c00315 	stw	r7,12(sp)
 1805460:	da000015 	stw	r8,0(sp)
 1805464:	d9800215 	stw	r6,8(sp)
 1805468:	18067280 	call	1806728 <__unpack_d>
 180546c:	d9000204 	addi	r4,sp,8
 1805470:	880b883a 	mov	r5,r17
 1805474:	18067280 	call	1806728 <__unpack_d>
 1805478:	d9800e04 	addi	r6,sp,56
 180547c:	9809883a 	mov	r4,r19
 1805480:	880b883a 	mov	r5,r17
 1805484:	1804fa00 	call	1804fa0 <_fpadd_parts>
 1805488:	1009883a 	mov	r4,r2
 180548c:	18064140 	call	1806414 <__pack_d>
 1805490:	dfc01517 	ldw	ra,84(sp)
 1805494:	dcc01417 	ldw	r19,80(sp)
 1805498:	dc401317 	ldw	r17,76(sp)
 180549c:	dec01604 	addi	sp,sp,88
 18054a0:	f800283a 	ret

018054a4 <__muldf3>:
 18054a4:	deffe004 	addi	sp,sp,-128
 18054a8:	dc401815 	stw	r17,96(sp)
 18054ac:	dc400404 	addi	r17,sp,16
 18054b0:	2011883a 	mov	r8,r4
 18054b4:	2813883a 	mov	r9,r5
 18054b8:	dc001715 	stw	r16,92(sp)
 18054bc:	d809883a 	mov	r4,sp
 18054c0:	880b883a 	mov	r5,r17
 18054c4:	dc000904 	addi	r16,sp,36
 18054c8:	dfc01f15 	stw	ra,124(sp)
 18054cc:	da400115 	stw	r9,4(sp)
 18054d0:	d9c00315 	stw	r7,12(sp)
 18054d4:	da000015 	stw	r8,0(sp)
 18054d8:	d9800215 	stw	r6,8(sp)
 18054dc:	ddc01e15 	stw	r23,120(sp)
 18054e0:	dd801d15 	stw	r22,116(sp)
 18054e4:	dd401c15 	stw	r21,112(sp)
 18054e8:	dd001b15 	stw	r20,108(sp)
 18054ec:	dcc01a15 	stw	r19,104(sp)
 18054f0:	dc801915 	stw	r18,100(sp)
 18054f4:	18067280 	call	1806728 <__unpack_d>
 18054f8:	d9000204 	addi	r4,sp,8
 18054fc:	800b883a 	mov	r5,r16
 1805500:	18067280 	call	1806728 <__unpack_d>
 1805504:	d9000417 	ldw	r4,16(sp)
 1805508:	00800044 	movi	r2,1
 180550c:	1100102e 	bgeu	r2,r4,1805550 <__muldf3+0xac>
 1805510:	d8c00917 	ldw	r3,36(sp)
 1805514:	10c0062e 	bgeu	r2,r3,1805530 <__muldf3+0x8c>
 1805518:	00800104 	movi	r2,4
 180551c:	20800a26 	beq	r4,r2,1805548 <__muldf3+0xa4>
 1805520:	1880cc26 	beq	r3,r2,1805854 <__muldf3+0x3b0>
 1805524:	00800084 	movi	r2,2
 1805528:	20800926 	beq	r4,r2,1805550 <__muldf3+0xac>
 180552c:	1880191e 	bne	r3,r2,1805594 <__muldf3+0xf0>
 1805530:	d8c00a17 	ldw	r3,40(sp)
 1805534:	d8800517 	ldw	r2,20(sp)
 1805538:	8009883a 	mov	r4,r16
 180553c:	10c4c03a 	cmpne	r2,r2,r3
 1805540:	d8800a15 	stw	r2,40(sp)
 1805544:	00000706 	br	1805564 <__muldf3+0xc0>
 1805548:	00800084 	movi	r2,2
 180554c:	1880c326 	beq	r3,r2,180585c <__muldf3+0x3b8>
 1805550:	d8800517 	ldw	r2,20(sp)
 1805554:	d8c00a17 	ldw	r3,40(sp)
 1805558:	8809883a 	mov	r4,r17
 180555c:	10c4c03a 	cmpne	r2,r2,r3
 1805560:	d8800515 	stw	r2,20(sp)
 1805564:	18064140 	call	1806414 <__pack_d>
 1805568:	dfc01f17 	ldw	ra,124(sp)
 180556c:	ddc01e17 	ldw	r23,120(sp)
 1805570:	dd801d17 	ldw	r22,116(sp)
 1805574:	dd401c17 	ldw	r21,112(sp)
 1805578:	dd001b17 	ldw	r20,108(sp)
 180557c:	dcc01a17 	ldw	r19,104(sp)
 1805580:	dc801917 	ldw	r18,100(sp)
 1805584:	dc401817 	ldw	r17,96(sp)
 1805588:	dc001717 	ldw	r16,92(sp)
 180558c:	dec02004 	addi	sp,sp,128
 1805590:	f800283a 	ret
 1805594:	dd800717 	ldw	r22,28(sp)
 1805598:	dc800c17 	ldw	r18,48(sp)
 180559c:	002b883a 	mov	r21,zero
 18055a0:	0023883a 	mov	r17,zero
 18055a4:	a80b883a 	mov	r5,r21
 18055a8:	b00d883a 	mov	r6,r22
 18055ac:	880f883a 	mov	r7,r17
 18055b0:	ddc00817 	ldw	r23,32(sp)
 18055b4:	dcc00d17 	ldw	r19,52(sp)
 18055b8:	9009883a 	mov	r4,r18
 18055bc:	18060a80 	call	18060a8 <__muldi3>
 18055c0:	001b883a 	mov	r13,zero
 18055c4:	680f883a 	mov	r7,r13
 18055c8:	b009883a 	mov	r4,r22
 18055cc:	000b883a 	mov	r5,zero
 18055d0:	980d883a 	mov	r6,r19
 18055d4:	b82d883a 	mov	r22,r23
 18055d8:	002f883a 	mov	r23,zero
 18055dc:	db401615 	stw	r13,88(sp)
 18055e0:	d8801315 	stw	r2,76(sp)
 18055e4:	d8c01415 	stw	r3,80(sp)
 18055e8:	dcc01515 	stw	r19,84(sp)
 18055ec:	18060a80 	call	18060a8 <__muldi3>
 18055f0:	b00d883a 	mov	r6,r22
 18055f4:	000b883a 	mov	r5,zero
 18055f8:	9009883a 	mov	r4,r18
 18055fc:	b80f883a 	mov	r7,r23
 1805600:	1021883a 	mov	r16,r2
 1805604:	1823883a 	mov	r17,r3
 1805608:	18060a80 	call	18060a8 <__muldi3>
 180560c:	8085883a 	add	r2,r16,r2
 1805610:	140d803a 	cmpltu	r6,r2,r16
 1805614:	88c7883a 	add	r3,r17,r3
 1805618:	30cd883a 	add	r6,r6,r3
 180561c:	1029883a 	mov	r20,r2
 1805620:	302b883a 	mov	r21,r6
 1805624:	da801317 	ldw	r10,76(sp)
 1805628:	dac01417 	ldw	r11,80(sp)
 180562c:	db001517 	ldw	r12,84(sp)
 1805630:	db401617 	ldw	r13,88(sp)
 1805634:	3440612e 	bgeu	r6,r17,18057bc <__muldf3+0x318>
 1805638:	0009883a 	mov	r4,zero
 180563c:	5105883a 	add	r2,r10,r4
 1805640:	128d803a 	cmpltu	r6,r2,r10
 1805644:	5d07883a 	add	r3,r11,r20
 1805648:	30cd883a 	add	r6,r6,r3
 180564c:	0021883a 	mov	r16,zero
 1805650:	04400044 	movi	r17,1
 1805654:	1025883a 	mov	r18,r2
 1805658:	3027883a 	mov	r19,r6
 180565c:	32c06236 	bltu	r6,r11,18057e8 <__muldf3+0x344>
 1805660:	59807a26 	beq	r11,r6,180584c <__muldf3+0x3a8>
 1805664:	680b883a 	mov	r5,r13
 1805668:	b80f883a 	mov	r7,r23
 180566c:	6009883a 	mov	r4,r12
 1805670:	b00d883a 	mov	r6,r22
 1805674:	18060a80 	call	18060a8 <__muldi3>
 1805678:	1009883a 	mov	r4,r2
 180567c:	000f883a 	mov	r7,zero
 1805680:	1545883a 	add	r2,r2,r21
 1805684:	1111803a 	cmpltu	r8,r2,r4
 1805688:	19c7883a 	add	r3,r3,r7
 180568c:	40c7883a 	add	r3,r8,r3
 1805690:	88cb883a 	add	r5,r17,r3
 1805694:	d8c00617 	ldw	r3,24(sp)
 1805698:	8089883a 	add	r4,r16,r2
 180569c:	d8800b17 	ldw	r2,44(sp)
 18056a0:	18c00104 	addi	r3,r3,4
 18056a4:	240d803a 	cmpltu	r6,r4,r16
 18056a8:	10c7883a 	add	r3,r2,r3
 18056ac:	2013883a 	mov	r9,r4
 18056b0:	d8800a17 	ldw	r2,40(sp)
 18056b4:	d9000517 	ldw	r4,20(sp)
 18056b8:	314d883a 	add	r6,r6,r5
 18056bc:	3015883a 	mov	r10,r6
 18056c0:	2088c03a 	cmpne	r4,r4,r2
 18056c4:	00880034 	movhi	r2,8192
 18056c8:	10bfffc4 	addi	r2,r2,-1
 18056cc:	d9000f15 	stw	r4,60(sp)
 18056d0:	d8c01015 	stw	r3,64(sp)
 18056d4:	1180162e 	bgeu	r2,r6,1805730 <__muldf3+0x28c>
 18056d8:	1811883a 	mov	r8,r3
 18056dc:	101f883a 	mov	r15,r2
 18056e0:	980497fa 	slli	r2,r19,31
 18056e4:	9016d07a 	srli	r11,r18,1
 18056e8:	500697fa 	slli	r3,r10,31
 18056ec:	480cd07a 	srli	r6,r9,1
 18056f0:	500ed07a 	srli	r7,r10,1
 18056f4:	12d6b03a 	or	r11,r2,r11
 18056f8:	00800044 	movi	r2,1
 18056fc:	198cb03a 	or	r6,r3,r6
 1805700:	4888703a 	and	r4,r9,r2
 1805704:	9818d07a 	srli	r12,r19,1
 1805708:	001b883a 	mov	r13,zero
 180570c:	03a00034 	movhi	r14,32768
 1805710:	3013883a 	mov	r9,r6
 1805714:	3815883a 	mov	r10,r7
 1805718:	4091883a 	add	r8,r8,r2
 180571c:	20000226 	beq	r4,zero,1805728 <__muldf3+0x284>
 1805720:	5b64b03a 	or	r18,r11,r13
 1805724:	63a6b03a 	or	r19,r12,r14
 1805728:	7abfed36 	bltu	r15,r10,18056e0 <__muldf3+0x23c>
 180572c:	da001015 	stw	r8,64(sp)
 1805730:	00840034 	movhi	r2,4096
 1805734:	10bfffc4 	addi	r2,r2,-1
 1805738:	12801436 	bltu	r2,r10,180578c <__muldf3+0x2e8>
 180573c:	da001017 	ldw	r8,64(sp)
 1805740:	101f883a 	mov	r15,r2
 1805744:	4a45883a 	add	r2,r9,r9
 1805748:	124d803a 	cmpltu	r6,r2,r9
 180574c:	5287883a 	add	r3,r10,r10
 1805750:	9497883a 	add	r11,r18,r18
 1805754:	5c8f803a 	cmpltu	r7,r11,r18
 1805758:	9cd9883a 	add	r12,r19,r19
 180575c:	01000044 	movi	r4,1
 1805760:	30cd883a 	add	r6,r6,r3
 1805764:	3b0f883a 	add	r7,r7,r12
 1805768:	423fffc4 	addi	r8,r8,-1
 180576c:	1013883a 	mov	r9,r2
 1805770:	3015883a 	mov	r10,r6
 1805774:	111ab03a 	or	r13,r2,r4
 1805778:	98003016 	blt	r19,zero,180583c <__muldf3+0x398>
 180577c:	5825883a 	mov	r18,r11
 1805780:	3827883a 	mov	r19,r7
 1805784:	7abfef2e 	bgeu	r15,r10,1805744 <__muldf3+0x2a0>
 1805788:	da001015 	stw	r8,64(sp)
 180578c:	00803fc4 	movi	r2,255
 1805790:	488e703a 	and	r7,r9,r2
 1805794:	00802004 	movi	r2,128
 1805798:	0007883a 	mov	r3,zero
 180579c:	0011883a 	mov	r8,zero
 18057a0:	38801826 	beq	r7,r2,1805804 <__muldf3+0x360>
 18057a4:	008000c4 	movi	r2,3
 18057a8:	d9000e04 	addi	r4,sp,56
 18057ac:	da801215 	stw	r10,72(sp)
 18057b0:	d8800e15 	stw	r2,56(sp)
 18057b4:	da401115 	stw	r9,68(sp)
 18057b8:	003f6a06 	br	1805564 <__muldf3+0xc0>
 18057bc:	89802126 	beq	r17,r6,1805844 <__muldf3+0x3a0>
 18057c0:	0009883a 	mov	r4,zero
 18057c4:	5105883a 	add	r2,r10,r4
 18057c8:	128d803a 	cmpltu	r6,r2,r10
 18057cc:	5d07883a 	add	r3,r11,r20
 18057d0:	30cd883a 	add	r6,r6,r3
 18057d4:	0021883a 	mov	r16,zero
 18057d8:	0023883a 	mov	r17,zero
 18057dc:	1025883a 	mov	r18,r2
 18057e0:	3027883a 	mov	r19,r6
 18057e4:	32ff9e2e 	bgeu	r6,r11,1805660 <__muldf3+0x1bc>
 18057e8:	00800044 	movi	r2,1
 18057ec:	8089883a 	add	r4,r16,r2
 18057f0:	240d803a 	cmpltu	r6,r4,r16
 18057f4:	344d883a 	add	r6,r6,r17
 18057f8:	2021883a 	mov	r16,r4
 18057fc:	3023883a 	mov	r17,r6
 1805800:	003f9806 	br	1805664 <__muldf3+0x1c0>
 1805804:	403fe71e 	bne	r8,zero,18057a4 <__muldf3+0x300>
 1805808:	01004004 	movi	r4,256
 180580c:	4904703a 	and	r2,r9,r4
 1805810:	10c4b03a 	or	r2,r2,r3
 1805814:	103fe31e 	bne	r2,zero,18057a4 <__muldf3+0x300>
 1805818:	94c4b03a 	or	r2,r18,r19
 180581c:	103fe126 	beq	r2,zero,18057a4 <__muldf3+0x300>
 1805820:	49c5883a 	add	r2,r9,r7
 1805824:	1251803a 	cmpltu	r8,r2,r9
 1805828:	4291883a 	add	r8,r8,r10
 180582c:	013fc004 	movi	r4,-256
 1805830:	1112703a 	and	r9,r2,r4
 1805834:	4015883a 	mov	r10,r8
 1805838:	003fda06 	br	18057a4 <__muldf3+0x300>
 180583c:	6813883a 	mov	r9,r13
 1805840:	003fce06 	br	180577c <__muldf3+0x2d8>
 1805844:	143f7c36 	bltu	r2,r16,1805638 <__muldf3+0x194>
 1805848:	003fdd06 	br	18057c0 <__muldf3+0x31c>
 180584c:	12bf852e 	bgeu	r2,r10,1805664 <__muldf3+0x1c0>
 1805850:	003fe506 	br	18057e8 <__muldf3+0x344>
 1805854:	00800084 	movi	r2,2
 1805858:	20bf351e 	bne	r4,r2,1805530 <__muldf3+0x8c>
 180585c:	01006074 	movhi	r4,385
 1805860:	21161404 	addi	r4,r4,22608
 1805864:	003f3f06 	br	1805564 <__muldf3+0xc0>

01805868 <__divdf3>:
 1805868:	deffed04 	addi	sp,sp,-76
 180586c:	dcc01115 	stw	r19,68(sp)
 1805870:	dcc00404 	addi	r19,sp,16
 1805874:	2011883a 	mov	r8,r4
 1805878:	2813883a 	mov	r9,r5
 180587c:	dc000e15 	stw	r16,56(sp)
 1805880:	d809883a 	mov	r4,sp
 1805884:	980b883a 	mov	r5,r19
 1805888:	dc000904 	addi	r16,sp,36
 180588c:	dfc01215 	stw	ra,72(sp)
 1805890:	da400115 	stw	r9,4(sp)
 1805894:	d9c00315 	stw	r7,12(sp)
 1805898:	da000015 	stw	r8,0(sp)
 180589c:	d9800215 	stw	r6,8(sp)
 18058a0:	dc801015 	stw	r18,64(sp)
 18058a4:	dc400f15 	stw	r17,60(sp)
 18058a8:	18067280 	call	1806728 <__unpack_d>
 18058ac:	d9000204 	addi	r4,sp,8
 18058b0:	800b883a 	mov	r5,r16
 18058b4:	18067280 	call	1806728 <__unpack_d>
 18058b8:	d9000417 	ldw	r4,16(sp)
 18058bc:	00800044 	movi	r2,1
 18058c0:	11000b2e 	bgeu	r2,r4,18058f0 <__divdf3+0x88>
 18058c4:	d9400917 	ldw	r5,36(sp)
 18058c8:	1140762e 	bgeu	r2,r5,1805aa4 <__divdf3+0x23c>
 18058cc:	d8800517 	ldw	r2,20(sp)
 18058d0:	d8c00a17 	ldw	r3,40(sp)
 18058d4:	01800104 	movi	r6,4
 18058d8:	10c4f03a 	xor	r2,r2,r3
 18058dc:	d8800515 	stw	r2,20(sp)
 18058e0:	21800226 	beq	r4,r6,18058ec <__divdf3+0x84>
 18058e4:	00800084 	movi	r2,2
 18058e8:	2080141e 	bne	r4,r2,180593c <__divdf3+0xd4>
 18058ec:	29000926 	beq	r5,r4,1805914 <__divdf3+0xac>
 18058f0:	9809883a 	mov	r4,r19
 18058f4:	18064140 	call	1806414 <__pack_d>
 18058f8:	dfc01217 	ldw	ra,72(sp)
 18058fc:	dcc01117 	ldw	r19,68(sp)
 1805900:	dc801017 	ldw	r18,64(sp)
 1805904:	dc400f17 	ldw	r17,60(sp)
 1805908:	dc000e17 	ldw	r16,56(sp)
 180590c:	dec01304 	addi	sp,sp,76
 1805910:	f800283a 	ret
 1805914:	01006074 	movhi	r4,385
 1805918:	21161404 	addi	r4,r4,22608
 180591c:	18064140 	call	1806414 <__pack_d>
 1805920:	dfc01217 	ldw	ra,72(sp)
 1805924:	dcc01117 	ldw	r19,68(sp)
 1805928:	dc801017 	ldw	r18,64(sp)
 180592c:	dc400f17 	ldw	r17,60(sp)
 1805930:	dc000e17 	ldw	r16,56(sp)
 1805934:	dec01304 	addi	sp,sp,76
 1805938:	f800283a 	ret
 180593c:	29805b26 	beq	r5,r6,1805aac <__divdf3+0x244>
 1805940:	28802d26 	beq	r5,r2,18059f8 <__divdf3+0x190>
 1805944:	d8c00617 	ldw	r3,24(sp)
 1805948:	d8800b17 	ldw	r2,44(sp)
 180594c:	d9c00817 	ldw	r7,32(sp)
 1805950:	dc400d17 	ldw	r17,52(sp)
 1805954:	188bc83a 	sub	r5,r3,r2
 1805958:	d9800717 	ldw	r6,28(sp)
 180595c:	dc000c17 	ldw	r16,48(sp)
 1805960:	d9400615 	stw	r5,24(sp)
 1805964:	3c403836 	bltu	r7,r17,1805a48 <__divdf3+0x1e0>
 1805968:	89c03626 	beq	r17,r7,1805a44 <__divdf3+0x1dc>
 180596c:	0015883a 	mov	r10,zero
 1805970:	001d883a 	mov	r14,zero
 1805974:	02c40034 	movhi	r11,4096
 1805978:	001f883a 	mov	r15,zero
 180597c:	003f883a 	mov	ra,zero
 1805980:	04800f44 	movi	r18,61
 1805984:	00000f06 	br	18059c4 <__divdf3+0x15c>
 1805988:	601d883a 	mov	r14,r12
 180598c:	681f883a 	mov	r15,r13
 1805990:	400d883a 	mov	r6,r8
 1805994:	100f883a 	mov	r7,r2
 1805998:	3191883a 	add	r8,r6,r6
 180599c:	5808d07a 	srli	r4,r11,1
 18059a0:	4185803a 	cmpltu	r2,r8,r6
 18059a4:	39d3883a 	add	r9,r7,r7
 18059a8:	28c6b03a 	or	r3,r5,r3
 18059ac:	1245883a 	add	r2,r2,r9
 18059b0:	1815883a 	mov	r10,r3
 18059b4:	2017883a 	mov	r11,r4
 18059b8:	400d883a 	mov	r6,r8
 18059bc:	100f883a 	mov	r7,r2
 18059c0:	fc801726 	beq	ra,r18,1805a20 <__divdf3+0x1b8>
 18059c4:	580a97fa 	slli	r5,r11,31
 18059c8:	5006d07a 	srli	r3,r10,1
 18059cc:	ffc00044 	addi	ra,ra,1
 18059d0:	3c7ff136 	bltu	r7,r17,1805998 <__divdf3+0x130>
 18059d4:	3411c83a 	sub	r8,r6,r16
 18059d8:	3205803a 	cmpltu	r2,r6,r8
 18059dc:	3c53c83a 	sub	r9,r7,r17
 18059e0:	7298b03a 	or	r12,r14,r10
 18059e4:	7adab03a 	or	r13,r15,r11
 18059e8:	4885c83a 	sub	r2,r9,r2
 18059ec:	89ffe61e 	bne	r17,r7,1805988 <__divdf3+0x120>
 18059f0:	343fe936 	bltu	r6,r16,1805998 <__divdf3+0x130>
 18059f4:	003fe406 	br	1805988 <__divdf3+0x120>
 18059f8:	9809883a 	mov	r4,r19
 18059fc:	d9800415 	stw	r6,16(sp)
 1805a00:	18064140 	call	1806414 <__pack_d>
 1805a04:	dfc01217 	ldw	ra,72(sp)
 1805a08:	dcc01117 	ldw	r19,68(sp)
 1805a0c:	dc801017 	ldw	r18,64(sp)
 1805a10:	dc400f17 	ldw	r17,60(sp)
 1805a14:	dc000e17 	ldw	r16,56(sp)
 1805a18:	dec01304 	addi	sp,sp,76
 1805a1c:	f800283a 	ret
 1805a20:	00803fc4 	movi	r2,255
 1805a24:	7090703a 	and	r8,r14,r2
 1805a28:	00802004 	movi	r2,128
 1805a2c:	0007883a 	mov	r3,zero
 1805a30:	0013883a 	mov	r9,zero
 1805a34:	40800d26 	beq	r8,r2,1805a6c <__divdf3+0x204>
 1805a38:	dbc00815 	stw	r15,32(sp)
 1805a3c:	db800715 	stw	r14,28(sp)
 1805a40:	003fab06 	br	18058f0 <__divdf3+0x88>
 1805a44:	343fc92e 	bgeu	r6,r16,180596c <__divdf3+0x104>
 1805a48:	3185883a 	add	r2,r6,r6
 1805a4c:	1189803a 	cmpltu	r4,r2,r6
 1805a50:	39c7883a 	add	r3,r7,r7
 1805a54:	20c9883a 	add	r4,r4,r3
 1805a58:	297fffc4 	addi	r5,r5,-1
 1805a5c:	100d883a 	mov	r6,r2
 1805a60:	200f883a 	mov	r7,r4
 1805a64:	d9400615 	stw	r5,24(sp)
 1805a68:	003fc006 	br	180596c <__divdf3+0x104>
 1805a6c:	483ff21e 	bne	r9,zero,1805a38 <__divdf3+0x1d0>
 1805a70:	01004004 	movi	r4,256
 1805a74:	7104703a 	and	r2,r14,r4
 1805a78:	10c4b03a 	or	r2,r2,r3
 1805a7c:	103fee1e 	bne	r2,zero,1805a38 <__divdf3+0x1d0>
 1805a80:	31c4b03a 	or	r2,r6,r7
 1805a84:	103fec26 	beq	r2,zero,1805a38 <__divdf3+0x1d0>
 1805a88:	7205883a 	add	r2,r14,r8
 1805a8c:	1391803a 	cmpltu	r8,r2,r14
 1805a90:	43d1883a 	add	r8,r8,r15
 1805a94:	013fc004 	movi	r4,-256
 1805a98:	111c703a 	and	r14,r2,r4
 1805a9c:	401f883a 	mov	r15,r8
 1805aa0:	003fe506 	br	1805a38 <__divdf3+0x1d0>
 1805aa4:	8009883a 	mov	r4,r16
 1805aa8:	003f9206 	br	18058f4 <__divdf3+0x8c>
 1805aac:	9809883a 	mov	r4,r19
 1805ab0:	d8000715 	stw	zero,28(sp)
 1805ab4:	d8000815 	stw	zero,32(sp)
 1805ab8:	d8000615 	stw	zero,24(sp)
 1805abc:	003f8d06 	br	18058f4 <__divdf3+0x8c>

01805ac0 <__eqdf2>:
 1805ac0:	deffef04 	addi	sp,sp,-68
 1805ac4:	dc400f15 	stw	r17,60(sp)
 1805ac8:	dc400404 	addi	r17,sp,16
 1805acc:	2005883a 	mov	r2,r4
 1805ad0:	2807883a 	mov	r3,r5
 1805ad4:	dc000e15 	stw	r16,56(sp)
 1805ad8:	d809883a 	mov	r4,sp
 1805adc:	880b883a 	mov	r5,r17
 1805ae0:	dc000904 	addi	r16,sp,36
 1805ae4:	d8c00115 	stw	r3,4(sp)
 1805ae8:	d8800015 	stw	r2,0(sp)
 1805aec:	d9800215 	stw	r6,8(sp)
 1805af0:	dfc01015 	stw	ra,64(sp)
 1805af4:	d9c00315 	stw	r7,12(sp)
 1805af8:	18067280 	call	1806728 <__unpack_d>
 1805afc:	d9000204 	addi	r4,sp,8
 1805b00:	800b883a 	mov	r5,r16
 1805b04:	18067280 	call	1806728 <__unpack_d>
 1805b08:	d8800417 	ldw	r2,16(sp)
 1805b0c:	00c00044 	movi	r3,1
 1805b10:	180d883a 	mov	r6,r3
 1805b14:	1880062e 	bgeu	r3,r2,1805b30 <__eqdf2+0x70>
 1805b18:	d8800917 	ldw	r2,36(sp)
 1805b1c:	8809883a 	mov	r4,r17
 1805b20:	800b883a 	mov	r5,r16
 1805b24:	1880022e 	bgeu	r3,r2,1805b30 <__eqdf2+0x70>
 1805b28:	18068600 	call	1806860 <__fpcmp_parts_d>
 1805b2c:	100d883a 	mov	r6,r2
 1805b30:	3005883a 	mov	r2,r6
 1805b34:	dfc01017 	ldw	ra,64(sp)
 1805b38:	dc400f17 	ldw	r17,60(sp)
 1805b3c:	dc000e17 	ldw	r16,56(sp)
 1805b40:	dec01104 	addi	sp,sp,68
 1805b44:	f800283a 	ret

01805b48 <__gtdf2>:
 1805b48:	deffef04 	addi	sp,sp,-68
 1805b4c:	dc400f15 	stw	r17,60(sp)
 1805b50:	dc400404 	addi	r17,sp,16
 1805b54:	2005883a 	mov	r2,r4
 1805b58:	2807883a 	mov	r3,r5
 1805b5c:	dc000e15 	stw	r16,56(sp)
 1805b60:	d809883a 	mov	r4,sp
 1805b64:	880b883a 	mov	r5,r17
 1805b68:	dc000904 	addi	r16,sp,36
 1805b6c:	d8c00115 	stw	r3,4(sp)
 1805b70:	d8800015 	stw	r2,0(sp)
 1805b74:	d9800215 	stw	r6,8(sp)
 1805b78:	dfc01015 	stw	ra,64(sp)
 1805b7c:	d9c00315 	stw	r7,12(sp)
 1805b80:	18067280 	call	1806728 <__unpack_d>
 1805b84:	d9000204 	addi	r4,sp,8
 1805b88:	800b883a 	mov	r5,r16
 1805b8c:	18067280 	call	1806728 <__unpack_d>
 1805b90:	d8800417 	ldw	r2,16(sp)
 1805b94:	00c00044 	movi	r3,1
 1805b98:	01bfffc4 	movi	r6,-1
 1805b9c:	1880062e 	bgeu	r3,r2,1805bb8 <__gtdf2+0x70>
 1805ba0:	d8800917 	ldw	r2,36(sp)
 1805ba4:	8809883a 	mov	r4,r17
 1805ba8:	800b883a 	mov	r5,r16
 1805bac:	1880022e 	bgeu	r3,r2,1805bb8 <__gtdf2+0x70>
 1805bb0:	18068600 	call	1806860 <__fpcmp_parts_d>
 1805bb4:	100d883a 	mov	r6,r2
 1805bb8:	3005883a 	mov	r2,r6
 1805bbc:	dfc01017 	ldw	ra,64(sp)
 1805bc0:	dc400f17 	ldw	r17,60(sp)
 1805bc4:	dc000e17 	ldw	r16,56(sp)
 1805bc8:	dec01104 	addi	sp,sp,68
 1805bcc:	f800283a 	ret

01805bd0 <__gedf2>:
 1805bd0:	deffef04 	addi	sp,sp,-68
 1805bd4:	dc400f15 	stw	r17,60(sp)
 1805bd8:	dc400404 	addi	r17,sp,16
 1805bdc:	2005883a 	mov	r2,r4
 1805be0:	2807883a 	mov	r3,r5
 1805be4:	dc000e15 	stw	r16,56(sp)
 1805be8:	d809883a 	mov	r4,sp
 1805bec:	880b883a 	mov	r5,r17
 1805bf0:	dc000904 	addi	r16,sp,36
 1805bf4:	d8c00115 	stw	r3,4(sp)
 1805bf8:	d8800015 	stw	r2,0(sp)
 1805bfc:	d9800215 	stw	r6,8(sp)
 1805c00:	dfc01015 	stw	ra,64(sp)
 1805c04:	d9c00315 	stw	r7,12(sp)
 1805c08:	18067280 	call	1806728 <__unpack_d>
 1805c0c:	d9000204 	addi	r4,sp,8
 1805c10:	800b883a 	mov	r5,r16
 1805c14:	18067280 	call	1806728 <__unpack_d>
 1805c18:	d8800417 	ldw	r2,16(sp)
 1805c1c:	00c00044 	movi	r3,1
 1805c20:	01bfffc4 	movi	r6,-1
 1805c24:	1880062e 	bgeu	r3,r2,1805c40 <__gedf2+0x70>
 1805c28:	d8800917 	ldw	r2,36(sp)
 1805c2c:	8809883a 	mov	r4,r17
 1805c30:	800b883a 	mov	r5,r16
 1805c34:	1880022e 	bgeu	r3,r2,1805c40 <__gedf2+0x70>
 1805c38:	18068600 	call	1806860 <__fpcmp_parts_d>
 1805c3c:	100d883a 	mov	r6,r2
 1805c40:	3005883a 	mov	r2,r6
 1805c44:	dfc01017 	ldw	ra,64(sp)
 1805c48:	dc400f17 	ldw	r17,60(sp)
 1805c4c:	dc000e17 	ldw	r16,56(sp)
 1805c50:	dec01104 	addi	sp,sp,68
 1805c54:	f800283a 	ret

01805c58 <__ltdf2>:
 1805c58:	deffef04 	addi	sp,sp,-68
 1805c5c:	dc400f15 	stw	r17,60(sp)
 1805c60:	dc400404 	addi	r17,sp,16
 1805c64:	2005883a 	mov	r2,r4
 1805c68:	2807883a 	mov	r3,r5
 1805c6c:	dc000e15 	stw	r16,56(sp)
 1805c70:	d809883a 	mov	r4,sp
 1805c74:	880b883a 	mov	r5,r17
 1805c78:	dc000904 	addi	r16,sp,36
 1805c7c:	d8c00115 	stw	r3,4(sp)
 1805c80:	d8800015 	stw	r2,0(sp)
 1805c84:	d9800215 	stw	r6,8(sp)
 1805c88:	dfc01015 	stw	ra,64(sp)
 1805c8c:	d9c00315 	stw	r7,12(sp)
 1805c90:	18067280 	call	1806728 <__unpack_d>
 1805c94:	d9000204 	addi	r4,sp,8
 1805c98:	800b883a 	mov	r5,r16
 1805c9c:	18067280 	call	1806728 <__unpack_d>
 1805ca0:	d8800417 	ldw	r2,16(sp)
 1805ca4:	00c00044 	movi	r3,1
 1805ca8:	180d883a 	mov	r6,r3
 1805cac:	1880062e 	bgeu	r3,r2,1805cc8 <__ltdf2+0x70>
 1805cb0:	d8800917 	ldw	r2,36(sp)
 1805cb4:	8809883a 	mov	r4,r17
 1805cb8:	800b883a 	mov	r5,r16
 1805cbc:	1880022e 	bgeu	r3,r2,1805cc8 <__ltdf2+0x70>
 1805cc0:	18068600 	call	1806860 <__fpcmp_parts_d>
 1805cc4:	100d883a 	mov	r6,r2
 1805cc8:	3005883a 	mov	r2,r6
 1805ccc:	dfc01017 	ldw	ra,64(sp)
 1805cd0:	dc400f17 	ldw	r17,60(sp)
 1805cd4:	dc000e17 	ldw	r16,56(sp)
 1805cd8:	dec01104 	addi	sp,sp,68
 1805cdc:	f800283a 	ret

01805ce0 <__floatsidf>:
 1805ce0:	2006d7fa 	srli	r3,r4,31
 1805ce4:	defff604 	addi	sp,sp,-40
 1805ce8:	008000c4 	movi	r2,3
 1805cec:	dfc00915 	stw	ra,36(sp)
 1805cf0:	dcc00815 	stw	r19,32(sp)
 1805cf4:	dc800715 	stw	r18,28(sp)
 1805cf8:	dc400615 	stw	r17,24(sp)
 1805cfc:	dc000515 	stw	r16,20(sp)
 1805d00:	d8800015 	stw	r2,0(sp)
 1805d04:	d8c00115 	stw	r3,4(sp)
 1805d08:	20000f1e 	bne	r4,zero,1805d48 <__floatsidf+0x68>
 1805d0c:	00800084 	movi	r2,2
 1805d10:	d8800015 	stw	r2,0(sp)
 1805d14:	d809883a 	mov	r4,sp
 1805d18:	18064140 	call	1806414 <__pack_d>
 1805d1c:	1009883a 	mov	r4,r2
 1805d20:	180b883a 	mov	r5,r3
 1805d24:	2005883a 	mov	r2,r4
 1805d28:	2807883a 	mov	r3,r5
 1805d2c:	dfc00917 	ldw	ra,36(sp)
 1805d30:	dcc00817 	ldw	r19,32(sp)
 1805d34:	dc800717 	ldw	r18,28(sp)
 1805d38:	dc400617 	ldw	r17,24(sp)
 1805d3c:	dc000517 	ldw	r16,20(sp)
 1805d40:	dec00a04 	addi	sp,sp,40
 1805d44:	f800283a 	ret
 1805d48:	00800f04 	movi	r2,60
 1805d4c:	1807003a 	cmpeq	r3,r3,zero
 1805d50:	d8800215 	stw	r2,8(sp)
 1805d54:	18001126 	beq	r3,zero,1805d9c <__floatsidf+0xbc>
 1805d58:	0027883a 	mov	r19,zero
 1805d5c:	2025883a 	mov	r18,r4
 1805d60:	d9000315 	stw	r4,12(sp)
 1805d64:	dcc00415 	stw	r19,16(sp)
 1805d68:	18061400 	call	1806140 <__clzsi2>
 1805d6c:	11000744 	addi	r4,r2,29
 1805d70:	013fe80e 	bge	zero,r4,1805d14 <__floatsidf+0x34>
 1805d74:	10bfff44 	addi	r2,r2,-3
 1805d78:	10000c16 	blt	r2,zero,1805dac <__floatsidf+0xcc>
 1805d7c:	90a2983a 	sll	r17,r18,r2
 1805d80:	0021883a 	mov	r16,zero
 1805d84:	d8800217 	ldw	r2,8(sp)
 1805d88:	dc400415 	stw	r17,16(sp)
 1805d8c:	dc000315 	stw	r16,12(sp)
 1805d90:	1105c83a 	sub	r2,r2,r4
 1805d94:	d8800215 	stw	r2,8(sp)
 1805d98:	003fde06 	br	1805d14 <__floatsidf+0x34>
 1805d9c:	00a00034 	movhi	r2,32768
 1805da0:	20800a26 	beq	r4,r2,1805dcc <__floatsidf+0xec>
 1805da4:	0109c83a 	sub	r4,zero,r4
 1805da8:	003feb06 	br	1805d58 <__floatsidf+0x78>
 1805dac:	9006d07a 	srli	r3,r18,1
 1805db0:	008007c4 	movi	r2,31
 1805db4:	1105c83a 	sub	r2,r2,r4
 1805db8:	1886d83a 	srl	r3,r3,r2
 1805dbc:	9922983a 	sll	r17,r19,r4
 1805dc0:	9120983a 	sll	r16,r18,r4
 1805dc4:	1c62b03a 	or	r17,r3,r17
 1805dc8:	003fee06 	br	1805d84 <__floatsidf+0xa4>
 1805dcc:	0009883a 	mov	r4,zero
 1805dd0:	01707834 	movhi	r5,49632
 1805dd4:	003fd306 	br	1805d24 <__floatsidf+0x44>

01805dd8 <__fixdfsi>:
 1805dd8:	defff804 	addi	sp,sp,-32
 1805ddc:	2005883a 	mov	r2,r4
 1805de0:	2807883a 	mov	r3,r5
 1805de4:	d809883a 	mov	r4,sp
 1805de8:	d9400204 	addi	r5,sp,8
 1805dec:	d8c00115 	stw	r3,4(sp)
 1805df0:	d8800015 	stw	r2,0(sp)
 1805df4:	dfc00715 	stw	ra,28(sp)
 1805df8:	18067280 	call	1806728 <__unpack_d>
 1805dfc:	d8c00217 	ldw	r3,8(sp)
 1805e00:	00800084 	movi	r2,2
 1805e04:	1880051e 	bne	r3,r2,1805e1c <__fixdfsi+0x44>
 1805e08:	0007883a 	mov	r3,zero
 1805e0c:	1805883a 	mov	r2,r3
 1805e10:	dfc00717 	ldw	ra,28(sp)
 1805e14:	dec00804 	addi	sp,sp,32
 1805e18:	f800283a 	ret
 1805e1c:	00800044 	movi	r2,1
 1805e20:	10fff92e 	bgeu	r2,r3,1805e08 <__fixdfsi+0x30>
 1805e24:	00800104 	movi	r2,4
 1805e28:	18800426 	beq	r3,r2,1805e3c <__fixdfsi+0x64>
 1805e2c:	d8c00417 	ldw	r3,16(sp)
 1805e30:	183ff516 	blt	r3,zero,1805e08 <__fixdfsi+0x30>
 1805e34:	00800784 	movi	r2,30
 1805e38:	10c0080e 	bge	r2,r3,1805e5c <__fixdfsi+0x84>
 1805e3c:	d8800317 	ldw	r2,12(sp)
 1805e40:	1000121e 	bne	r2,zero,1805e8c <__fixdfsi+0xb4>
 1805e44:	00e00034 	movhi	r3,32768
 1805e48:	18ffffc4 	addi	r3,r3,-1
 1805e4c:	1805883a 	mov	r2,r3
 1805e50:	dfc00717 	ldw	ra,28(sp)
 1805e54:	dec00804 	addi	sp,sp,32
 1805e58:	f800283a 	ret
 1805e5c:	00800f04 	movi	r2,60
 1805e60:	10d1c83a 	sub	r8,r2,r3
 1805e64:	40bff804 	addi	r2,r8,-32
 1805e68:	d9800517 	ldw	r6,20(sp)
 1805e6c:	d9c00617 	ldw	r7,24(sp)
 1805e70:	10000816 	blt	r2,zero,1805e94 <__fixdfsi+0xbc>
 1805e74:	3888d83a 	srl	r4,r7,r2
 1805e78:	d8800317 	ldw	r2,12(sp)
 1805e7c:	2007883a 	mov	r3,r4
 1805e80:	103fe226 	beq	r2,zero,1805e0c <__fixdfsi+0x34>
 1805e84:	0107c83a 	sub	r3,zero,r4
 1805e88:	003fe006 	br	1805e0c <__fixdfsi+0x34>
 1805e8c:	00e00034 	movhi	r3,32768
 1805e90:	003fde06 	br	1805e0c <__fixdfsi+0x34>
 1805e94:	39c7883a 	add	r3,r7,r7
 1805e98:	008007c4 	movi	r2,31
 1805e9c:	1205c83a 	sub	r2,r2,r8
 1805ea0:	1886983a 	sll	r3,r3,r2
 1805ea4:	3208d83a 	srl	r4,r6,r8
 1805ea8:	1908b03a 	or	r4,r3,r4
 1805eac:	003ff206 	br	1805e78 <__fixdfsi+0xa0>

01805eb0 <__make_dp>:
 1805eb0:	defff904 	addi	sp,sp,-28
 1805eb4:	d8c00717 	ldw	r3,28(sp)
 1805eb8:	d9000015 	stw	r4,0(sp)
 1805ebc:	d809883a 	mov	r4,sp
 1805ec0:	dfc00515 	stw	ra,20(sp)
 1805ec4:	d9c00615 	stw	r7,24(sp)
 1805ec8:	d9400115 	stw	r5,4(sp)
 1805ecc:	d9800215 	stw	r6,8(sp)
 1805ed0:	d8c00415 	stw	r3,16(sp)
 1805ed4:	d9c00315 	stw	r7,12(sp)
 1805ed8:	18064140 	call	1806414 <__pack_d>
 1805edc:	dfc00517 	ldw	ra,20(sp)
 1805ee0:	dec00704 	addi	sp,sp,28
 1805ee4:	f800283a 	ret

01805ee8 <__truncdfsf2>:
 1805ee8:	defff804 	addi	sp,sp,-32
 1805eec:	2005883a 	mov	r2,r4
 1805ef0:	2807883a 	mov	r3,r5
 1805ef4:	d809883a 	mov	r4,sp
 1805ef8:	d9400204 	addi	r5,sp,8
 1805efc:	d8c00115 	stw	r3,4(sp)
 1805f00:	d8800015 	stw	r2,0(sp)
 1805f04:	dfc00715 	stw	ra,28(sp)
 1805f08:	18067280 	call	1806728 <__unpack_d>
 1805f0c:	d9c00517 	ldw	r7,20(sp)
 1805f10:	da000617 	ldw	r8,24(sp)
 1805f14:	02d00034 	movhi	r11,16384
 1805f18:	5affffc4 	addi	r11,r11,-1
 1805f1c:	3812d7ba 	srli	r9,r7,30
 1805f20:	401a90ba 	slli	r13,r8,2
 1805f24:	3ac4703a 	and	r2,r7,r11
 1805f28:	0007883a 	mov	r3,zero
 1805f2c:	6a52b03a 	or	r9,r13,r9
 1805f30:	10c4b03a 	or	r2,r2,r3
 1805f34:	d9000217 	ldw	r4,8(sp)
 1805f38:	d9400317 	ldw	r5,12(sp)
 1805f3c:	d9800417 	ldw	r6,16(sp)
 1805f40:	480f883a 	mov	r7,r9
 1805f44:	10000126 	beq	r2,zero,1805f4c <__truncdfsf2+0x64>
 1805f48:	49c00054 	ori	r7,r9,1
 1805f4c:	18063e80 	call	18063e8 <__make_fp>
 1805f50:	dfc00717 	ldw	ra,28(sp)
 1805f54:	dec00804 	addi	sp,sp,32
 1805f58:	f800283a 	ret

01805f5c <udivmodsi4>:
 1805f5c:	29001b2e 	bgeu	r5,r4,1805fcc <udivmodsi4+0x70>
 1805f60:	28001a16 	blt	r5,zero,1805fcc <udivmodsi4+0x70>
 1805f64:	00800044 	movi	r2,1
 1805f68:	0007883a 	mov	r3,zero
 1805f6c:	01c007c4 	movi	r7,31
 1805f70:	00000306 	br	1805f80 <udivmodsi4+0x24>
 1805f74:	19c01326 	beq	r3,r7,1805fc4 <udivmodsi4+0x68>
 1805f78:	18c00044 	addi	r3,r3,1
 1805f7c:	28000416 	blt	r5,zero,1805f90 <udivmodsi4+0x34>
 1805f80:	294b883a 	add	r5,r5,r5
 1805f84:	1085883a 	add	r2,r2,r2
 1805f88:	293ffa36 	bltu	r5,r4,1805f74 <udivmodsi4+0x18>
 1805f8c:	10000d26 	beq	r2,zero,1805fc4 <udivmodsi4+0x68>
 1805f90:	0007883a 	mov	r3,zero
 1805f94:	21400236 	bltu	r4,r5,1805fa0 <udivmodsi4+0x44>
 1805f98:	2149c83a 	sub	r4,r4,r5
 1805f9c:	1886b03a 	or	r3,r3,r2
 1805fa0:	1004d07a 	srli	r2,r2,1
 1805fa4:	280ad07a 	srli	r5,r5,1
 1805fa8:	103ffa1e 	bne	r2,zero,1805f94 <udivmodsi4+0x38>
 1805fac:	30000226 	beq	r6,zero,1805fb8 <udivmodsi4+0x5c>
 1805fb0:	2005883a 	mov	r2,r4
 1805fb4:	f800283a 	ret
 1805fb8:	1809883a 	mov	r4,r3
 1805fbc:	2005883a 	mov	r2,r4
 1805fc0:	f800283a 	ret
 1805fc4:	0007883a 	mov	r3,zero
 1805fc8:	003ff806 	br	1805fac <udivmodsi4+0x50>
 1805fcc:	00800044 	movi	r2,1
 1805fd0:	0007883a 	mov	r3,zero
 1805fd4:	003fef06 	br	1805f94 <udivmodsi4+0x38>

01805fd8 <__divsi3>:
 1805fd8:	defffe04 	addi	sp,sp,-8
 1805fdc:	dc000015 	stw	r16,0(sp)
 1805fe0:	dfc00115 	stw	ra,4(sp)
 1805fe4:	0021883a 	mov	r16,zero
 1805fe8:	20000c16 	blt	r4,zero,180601c <__divsi3+0x44>
 1805fec:	000d883a 	mov	r6,zero
 1805ff0:	28000e16 	blt	r5,zero,180602c <__divsi3+0x54>
 1805ff4:	1805f5c0 	call	1805f5c <udivmodsi4>
 1805ff8:	1007883a 	mov	r3,r2
 1805ffc:	8005003a 	cmpeq	r2,r16,zero
 1806000:	1000011e 	bne	r2,zero,1806008 <__divsi3+0x30>
 1806004:	00c7c83a 	sub	r3,zero,r3
 1806008:	1805883a 	mov	r2,r3
 180600c:	dfc00117 	ldw	ra,4(sp)
 1806010:	dc000017 	ldw	r16,0(sp)
 1806014:	dec00204 	addi	sp,sp,8
 1806018:	f800283a 	ret
 180601c:	0109c83a 	sub	r4,zero,r4
 1806020:	04000044 	movi	r16,1
 1806024:	000d883a 	mov	r6,zero
 1806028:	283ff20e 	bge	r5,zero,1805ff4 <__divsi3+0x1c>
 180602c:	014bc83a 	sub	r5,zero,r5
 1806030:	8021003a 	cmpeq	r16,r16,zero
 1806034:	003fef06 	br	1805ff4 <__divsi3+0x1c>

01806038 <__modsi3>:
 1806038:	deffff04 	addi	sp,sp,-4
 180603c:	dfc00015 	stw	ra,0(sp)
 1806040:	01800044 	movi	r6,1
 1806044:	2807883a 	mov	r3,r5
 1806048:	20000416 	blt	r4,zero,180605c <__modsi3+0x24>
 180604c:	28000c16 	blt	r5,zero,1806080 <__modsi3+0x48>
 1806050:	dfc00017 	ldw	ra,0(sp)
 1806054:	dec00104 	addi	sp,sp,4
 1806058:	1805f5c1 	jmpi	1805f5c <udivmodsi4>
 180605c:	0109c83a 	sub	r4,zero,r4
 1806060:	28000b16 	blt	r5,zero,1806090 <__modsi3+0x58>
 1806064:	180b883a 	mov	r5,r3
 1806068:	01800044 	movi	r6,1
 180606c:	1805f5c0 	call	1805f5c <udivmodsi4>
 1806070:	0085c83a 	sub	r2,zero,r2
 1806074:	dfc00017 	ldw	ra,0(sp)
 1806078:	dec00104 	addi	sp,sp,4
 180607c:	f800283a 	ret
 1806080:	014bc83a 	sub	r5,zero,r5
 1806084:	dfc00017 	ldw	ra,0(sp)
 1806088:	dec00104 	addi	sp,sp,4
 180608c:	1805f5c1 	jmpi	1805f5c <udivmodsi4>
 1806090:	0147c83a 	sub	r3,zero,r5
 1806094:	003ff306 	br	1806064 <__modsi3+0x2c>

01806098 <__udivsi3>:
 1806098:	000d883a 	mov	r6,zero
 180609c:	1805f5c1 	jmpi	1805f5c <udivmodsi4>

018060a0 <__umodsi3>:
 18060a0:	01800044 	movi	r6,1
 18060a4:	1805f5c1 	jmpi	1805f5c <udivmodsi4>

018060a8 <__muldi3>:
 18060a8:	2011883a 	mov	r8,r4
 18060ac:	427fffcc 	andi	r9,r8,65535
 18060b0:	4018d43a 	srli	r12,r8,16
 18060b4:	32bfffcc 	andi	r10,r6,65535
 18060b8:	3016d43a 	srli	r11,r6,16
 18060bc:	4a85383a 	mul	r2,r9,r10
 18060c0:	6295383a 	mul	r10,r12,r10
 18060c4:	4ad3383a 	mul	r9,r9,r11
 18060c8:	113fffcc 	andi	r4,r2,65535
 18060cc:	1004d43a 	srli	r2,r2,16
 18060d0:	4a93883a 	add	r9,r9,r10
 18060d4:	3807883a 	mov	r3,r7
 18060d8:	1245883a 	add	r2,r2,r9
 18060dc:	280f883a 	mov	r7,r5
 18060e0:	180b883a 	mov	r5,r3
 18060e4:	1006943a 	slli	r3,r2,16
 18060e8:	defffd04 	addi	sp,sp,-12
 18060ec:	dc800215 	stw	r18,8(sp)
 18060f0:	1907883a 	add	r3,r3,r4
 18060f4:	dc400115 	stw	r17,4(sp)
 18060f8:	dc000015 	stw	r16,0(sp)
 18060fc:	4165383a 	mul	r18,r8,r5
 1806100:	31e3383a 	mul	r17,r6,r7
 1806104:	1012d43a 	srli	r9,r2,16
 1806108:	62d9383a 	mul	r12,r12,r11
 180610c:	181f883a 	mov	r15,r3
 1806110:	1280022e 	bgeu	r2,r10,180611c <__muldi3+0x74>
 1806114:	00800074 	movhi	r2,1
 1806118:	6099883a 	add	r12,r12,r2
 180611c:	624d883a 	add	r6,r12,r9
 1806120:	9187883a 	add	r3,r18,r6
 1806124:	88c7883a 	add	r3,r17,r3
 1806128:	7805883a 	mov	r2,r15
 180612c:	dc800217 	ldw	r18,8(sp)
 1806130:	dc400117 	ldw	r17,4(sp)
 1806134:	dc000017 	ldw	r16,0(sp)
 1806138:	dec00304 	addi	sp,sp,12
 180613c:	f800283a 	ret

01806140 <__clzsi2>:
 1806140:	00bfffd4 	movui	r2,65535
 1806144:	11000e36 	bltu	r2,r4,1806180 <__clzsi2+0x40>
 1806148:	00803fc4 	movi	r2,255
 180614c:	01400204 	movi	r5,8
 1806150:	0007883a 	mov	r3,zero
 1806154:	11001036 	bltu	r2,r4,1806198 <__clzsi2+0x58>
 1806158:	000b883a 	mov	r5,zero
 180615c:	20c6d83a 	srl	r3,r4,r3
 1806160:	00806074 	movhi	r2,385
 1806164:	10961904 	addi	r2,r2,22628
 1806168:	1887883a 	add	r3,r3,r2
 180616c:	18800003 	ldbu	r2,0(r3)
 1806170:	00c00804 	movi	r3,32
 1806174:	2885883a 	add	r2,r5,r2
 1806178:	1885c83a 	sub	r2,r3,r2
 180617c:	f800283a 	ret
 1806180:	01400404 	movi	r5,16
 1806184:	00804034 	movhi	r2,256
 1806188:	10bfffc4 	addi	r2,r2,-1
 180618c:	2807883a 	mov	r3,r5
 1806190:	113ff22e 	bgeu	r2,r4,180615c <__clzsi2+0x1c>
 1806194:	01400604 	movi	r5,24
 1806198:	2807883a 	mov	r3,r5
 180619c:	20c6d83a 	srl	r3,r4,r3
 18061a0:	00806074 	movhi	r2,385
 18061a4:	10961904 	addi	r2,r2,22628
 18061a8:	1887883a 	add	r3,r3,r2
 18061ac:	18800003 	ldbu	r2,0(r3)
 18061b0:	00c00804 	movi	r3,32
 18061b4:	2885883a 	add	r2,r5,r2
 18061b8:	1885c83a 	sub	r2,r3,r2
 18061bc:	f800283a 	ret

018061c0 <__pack_f>:
 18061c0:	20c00017 	ldw	r3,0(r4)
 18061c4:	01c00044 	movi	r7,1
 18061c8:	21800317 	ldw	r6,12(r4)
 18061cc:	21400117 	ldw	r5,4(r4)
 18061d0:	38c02d2e 	bgeu	r7,r3,1806288 <__pack_f+0xc8>
 18061d4:	00800104 	movi	r2,4
 18061d8:	18802826 	beq	r3,r2,180627c <__pack_f+0xbc>
 18061dc:	00800084 	movi	r2,2
 18061e0:	18800126 	beq	r3,r2,18061e8 <__pack_f+0x28>
 18061e4:	3000101e 	bne	r6,zero,1806228 <__pack_f+0x68>
 18061e8:	000d883a 	mov	r6,zero
 18061ec:	0007883a 	mov	r3,zero
 18061f0:	19003fcc 	andi	r4,r3,255
 18061f4:	200895fa 	slli	r4,r4,23
 18061f8:	00c02034 	movhi	r3,128
 18061fc:	18ffffc4 	addi	r3,r3,-1
 1806200:	30c6703a 	and	r3,r6,r3
 1806204:	10a0002c 	andhi	r2,r2,32768
 1806208:	10c4b03a 	or	r2,r2,r3
 180620c:	280a97fa 	slli	r5,r5,31
 1806210:	1104b03a 	or	r2,r2,r4
 1806214:	00e00034 	movhi	r3,32768
 1806218:	18ffffc4 	addi	r3,r3,-1
 180621c:	10c4703a 	and	r2,r2,r3
 1806220:	1144b03a 	or	r2,r2,r5
 1806224:	f800283a 	ret
 1806228:	21000217 	ldw	r4,8(r4)
 180622c:	00bfe084 	movi	r2,-126
 1806230:	20801b16 	blt	r4,r2,18062a0 <__pack_f+0xe0>
 1806234:	00801fc4 	movi	r2,127
 1806238:	11001016 	blt	r2,r4,180627c <__pack_f+0xbc>
 180623c:	308e703a 	and	r7,r6,r2
 1806240:	2087883a 	add	r3,r4,r2
 1806244:	00801004 	movi	r2,64
 1806248:	38800526 	beq	r7,r2,1806260 <__pack_f+0xa0>
 180624c:	31800fc4 	addi	r6,r6,63
 1806250:	30000716 	blt	r6,zero,1806270 <__pack_f+0xb0>
 1806254:	300490ba 	slli	r2,r6,2
 1806258:	100cd27a 	srli	r6,r2,9
 180625c:	003fe406 	br	18061f0 <__pack_f+0x30>
 1806260:	3080200c 	andi	r2,r6,128
 1806264:	103ffa26 	beq	r2,zero,1806250 <__pack_f+0x90>
 1806268:	31cd883a 	add	r6,r6,r7
 180626c:	003ff806 	br	1806250 <__pack_f+0x90>
 1806270:	300cd07a 	srli	r6,r6,1
 1806274:	18c00044 	addi	r3,r3,1
 1806278:	003ff606 	br	1806254 <__pack_f+0x94>
 180627c:	000d883a 	mov	r6,zero
 1806280:	00ffffc4 	movi	r3,-1
 1806284:	003fda06 	br	18061f0 <__pack_f+0x30>
 1806288:	31800434 	orhi	r6,r6,16
 180628c:	00802034 	movhi	r2,128
 1806290:	10bfffc4 	addi	r2,r2,-1
 1806294:	308c703a 	and	r6,r6,r2
 1806298:	00ffffc4 	movi	r3,-1
 180629c:	003fd406 	br	18061f0 <__pack_f+0x30>
 18062a0:	1109c83a 	sub	r4,r2,r4
 18062a4:	00800644 	movi	r2,25
 18062a8:	11001216 	blt	r2,r4,18062f4 <__pack_f+0x134>
 18062ac:	3904983a 	sll	r2,r7,r4
 18062b0:	3106d83a 	srl	r3,r6,r4
 18062b4:	10bfffc4 	addi	r2,r2,-1
 18062b8:	3084703a 	and	r2,r6,r2
 18062bc:	1004c03a 	cmpne	r2,r2,zero
 18062c0:	1886b03a 	or	r3,r3,r2
 18062c4:	19001fcc 	andi	r4,r3,127
 18062c8:	00801004 	movi	r2,64
 18062cc:	20800c26 	beq	r4,r2,1806300 <__pack_f+0x140>
 18062d0:	18c00fc4 	addi	r3,r3,63
 18062d4:	00900034 	movhi	r2,16384
 18062d8:	10bfffc4 	addi	r2,r2,-1
 18062dc:	180cd1fa 	srli	r6,r3,7
 18062e0:	10c7803a 	cmpltu	r3,r2,r3
 18062e4:	00802034 	movhi	r2,128
 18062e8:	10bfffc4 	addi	r2,r2,-1
 18062ec:	308c703a 	and	r6,r6,r2
 18062f0:	003fbf06 	br	18061f0 <__pack_f+0x30>
 18062f4:	0007883a 	mov	r3,zero
 18062f8:	000d883a 	mov	r6,zero
 18062fc:	003ff906 	br	18062e4 <__pack_f+0x124>
 1806300:	1880200c 	andi	r2,r3,128
 1806304:	10000126 	beq	r2,zero,180630c <__pack_f+0x14c>
 1806308:	1907883a 	add	r3,r3,r4
 180630c:	180cd1fa 	srli	r6,r3,7
 1806310:	00900034 	movhi	r2,16384
 1806314:	10bfffc4 	addi	r2,r2,-1
 1806318:	10c7803a 	cmpltu	r3,r2,r3
 180631c:	003ff106 	br	18062e4 <__pack_f+0x124>

01806320 <__unpack_f>:
 1806320:	21800017 	ldw	r6,0(r4)
 1806324:	00c02034 	movhi	r3,128
 1806328:	18ffffc4 	addi	r3,r3,-1
 180632c:	3004d5fa 	srli	r2,r6,23
 1806330:	3008d7fa 	srli	r4,r6,31
 1806334:	30ce703a 	and	r7,r6,r3
 1806338:	10c03fcc 	andi	r3,r2,255
 180633c:	29000115 	stw	r4,4(r5)
 1806340:	1800131e 	bne	r3,zero,1806390 <__unpack_f+0x70>
 1806344:	38000f26 	beq	r7,zero,1806384 <__unpack_f+0x64>
 1806348:	380691fa 	slli	r3,r7,7
 180634c:	01bfe084 	movi	r6,-126
 1806350:	008000c4 	movi	r2,3
 1806354:	01100034 	movhi	r4,16384
 1806358:	213fffc4 	addi	r4,r4,-1
 180635c:	28800015 	stw	r2,0(r5)
 1806360:	29800215 	stw	r6,8(r5)
 1806364:	20c00536 	bltu	r4,r3,180637c <__unpack_f+0x5c>
 1806368:	3005883a 	mov	r2,r6
 180636c:	18c7883a 	add	r3,r3,r3
 1806370:	10bfffc4 	addi	r2,r2,-1
 1806374:	20fffd2e 	bgeu	r4,r3,180636c <__unpack_f+0x4c>
 1806378:	28800215 	stw	r2,8(r5)
 180637c:	28c00315 	stw	r3,12(r5)
 1806380:	f800283a 	ret
 1806384:	00800084 	movi	r2,2
 1806388:	28800015 	stw	r2,0(r5)
 180638c:	f800283a 	ret
 1806390:	00803fc4 	movi	r2,255
 1806394:	18800826 	beq	r3,r2,18063b8 <__unpack_f+0x98>
 1806398:	380491fa 	slli	r2,r7,7
 180639c:	18ffe044 	addi	r3,r3,-127
 18063a0:	28c00215 	stw	r3,8(r5)
 18063a4:	10900034 	orhi	r2,r2,16384
 18063a8:	28800315 	stw	r2,12(r5)
 18063ac:	008000c4 	movi	r2,3
 18063b0:	28800015 	stw	r2,0(r5)
 18063b4:	f800283a 	ret
 18063b8:	3800031e 	bne	r7,zero,18063c8 <__unpack_f+0xa8>
 18063bc:	00800104 	movi	r2,4
 18063c0:	28800015 	stw	r2,0(r5)
 18063c4:	f800283a 	ret
 18063c8:	3080042c 	andhi	r2,r6,16
 18063cc:	10000426 	beq	r2,zero,18063e0 <__unpack_f+0xc0>
 18063d0:	00800044 	movi	r2,1
 18063d4:	28800015 	stw	r2,0(r5)
 18063d8:	29c00315 	stw	r7,12(r5)
 18063dc:	f800283a 	ret
 18063e0:	28000015 	stw	zero,0(r5)
 18063e4:	003ffc06 	br	18063d8 <__unpack_f+0xb8>

018063e8 <__make_fp>:
 18063e8:	defffb04 	addi	sp,sp,-20
 18063ec:	d9000015 	stw	r4,0(sp)
 18063f0:	d809883a 	mov	r4,sp
 18063f4:	dfc00415 	stw	ra,16(sp)
 18063f8:	d9400115 	stw	r5,4(sp)
 18063fc:	d9800215 	stw	r6,8(sp)
 1806400:	d9c00315 	stw	r7,12(sp)
 1806404:	18061c00 	call	18061c0 <__pack_f>
 1806408:	dfc00417 	ldw	ra,16(sp)
 180640c:	dec00504 	addi	sp,sp,20
 1806410:	f800283a 	ret

01806414 <__pack_d>:
 1806414:	20c00017 	ldw	r3,0(r4)
 1806418:	defffd04 	addi	sp,sp,-12
 180641c:	dc000015 	stw	r16,0(sp)
 1806420:	dc800215 	stw	r18,8(sp)
 1806424:	dc400115 	stw	r17,4(sp)
 1806428:	00800044 	movi	r2,1
 180642c:	22000317 	ldw	r8,12(r4)
 1806430:	001f883a 	mov	r15,zero
 1806434:	22400417 	ldw	r9,16(r4)
 1806438:	24000117 	ldw	r16,4(r4)
 180643c:	10c0552e 	bgeu	r2,r3,1806594 <__pack_d+0x180>
 1806440:	00800104 	movi	r2,4
 1806444:	18804f26 	beq	r3,r2,1806584 <__pack_d+0x170>
 1806448:	00800084 	movi	r2,2
 180644c:	18800226 	beq	r3,r2,1806458 <__pack_d+0x44>
 1806450:	4244b03a 	or	r2,r8,r9
 1806454:	10001a1e 	bne	r2,zero,18064c0 <__pack_d+0xac>
 1806458:	000d883a 	mov	r6,zero
 180645c:	000f883a 	mov	r7,zero
 1806460:	0011883a 	mov	r8,zero
 1806464:	00800434 	movhi	r2,16
 1806468:	10bfffc4 	addi	r2,r2,-1
 180646c:	301d883a 	mov	r14,r6
 1806470:	3884703a 	and	r2,r7,r2
 1806474:	400a953a 	slli	r5,r8,20
 1806478:	79bffc2c 	andhi	r6,r15,65520
 180647c:	308cb03a 	or	r6,r6,r2
 1806480:	00e00434 	movhi	r3,32784
 1806484:	18ffffc4 	addi	r3,r3,-1
 1806488:	800497fa 	slli	r2,r16,31
 180648c:	30c6703a 	and	r3,r6,r3
 1806490:	1946b03a 	or	r3,r3,r5
 1806494:	01600034 	movhi	r5,32768
 1806498:	297fffc4 	addi	r5,r5,-1
 180649c:	194a703a 	and	r5,r3,r5
 18064a0:	288ab03a 	or	r5,r5,r2
 18064a4:	2807883a 	mov	r3,r5
 18064a8:	7005883a 	mov	r2,r14
 18064ac:	dc800217 	ldw	r18,8(sp)
 18064b0:	dc400117 	ldw	r17,4(sp)
 18064b4:	dc000017 	ldw	r16,0(sp)
 18064b8:	dec00304 	addi	sp,sp,12
 18064bc:	f800283a 	ret
 18064c0:	21000217 	ldw	r4,8(r4)
 18064c4:	00bf0084 	movi	r2,-1022
 18064c8:	20803f16 	blt	r4,r2,18065c8 <__pack_d+0x1b4>
 18064cc:	0080ffc4 	movi	r2,1023
 18064d0:	11002c16 	blt	r2,r4,1806584 <__pack_d+0x170>
 18064d4:	00803fc4 	movi	r2,255
 18064d8:	408c703a 	and	r6,r8,r2
 18064dc:	00802004 	movi	r2,128
 18064e0:	0007883a 	mov	r3,zero
 18064e4:	000f883a 	mov	r7,zero
 18064e8:	2280ffc4 	addi	r10,r4,1023
 18064ec:	30801e26 	beq	r6,r2,1806568 <__pack_d+0x154>
 18064f0:	00801fc4 	movi	r2,127
 18064f4:	4089883a 	add	r4,r8,r2
 18064f8:	220d803a 	cmpltu	r6,r4,r8
 18064fc:	324d883a 	add	r6,r6,r9
 1806500:	2011883a 	mov	r8,r4
 1806504:	3013883a 	mov	r9,r6
 1806508:	00880034 	movhi	r2,8192
 180650c:	10bfffc4 	addi	r2,r2,-1
 1806510:	12400d36 	bltu	r2,r9,1806548 <__pack_d+0x134>
 1806514:	4804963a 	slli	r2,r9,24
 1806518:	400cd23a 	srli	r6,r8,8
 180651c:	480ed23a 	srli	r7,r9,8
 1806520:	013fffc4 	movi	r4,-1
 1806524:	118cb03a 	or	r6,r2,r6
 1806528:	01400434 	movhi	r5,16
 180652c:	297fffc4 	addi	r5,r5,-1
 1806530:	3104703a 	and	r2,r6,r4
 1806534:	3946703a 	and	r3,r7,r5
 1806538:	5201ffcc 	andi	r8,r10,2047
 180653c:	100d883a 	mov	r6,r2
 1806540:	180f883a 	mov	r7,r3
 1806544:	003fc706 	br	1806464 <__pack_d+0x50>
 1806548:	480897fa 	slli	r4,r9,31
 180654c:	4004d07a 	srli	r2,r8,1
 1806550:	4806d07a 	srli	r3,r9,1
 1806554:	52800044 	addi	r10,r10,1
 1806558:	2084b03a 	or	r2,r4,r2
 180655c:	1011883a 	mov	r8,r2
 1806560:	1813883a 	mov	r9,r3
 1806564:	003feb06 	br	1806514 <__pack_d+0x100>
 1806568:	383fe11e 	bne	r7,zero,18064f0 <__pack_d+0xdc>
 180656c:	01004004 	movi	r4,256
 1806570:	4104703a 	and	r2,r8,r4
 1806574:	10c4b03a 	or	r2,r2,r3
 1806578:	103fe326 	beq	r2,zero,1806508 <__pack_d+0xf4>
 180657c:	3005883a 	mov	r2,r6
 1806580:	003fdc06 	br	18064f4 <__pack_d+0xe0>
 1806584:	000d883a 	mov	r6,zero
 1806588:	000f883a 	mov	r7,zero
 180658c:	0201ffc4 	movi	r8,2047
 1806590:	003fb406 	br	1806464 <__pack_d+0x50>
 1806594:	0005883a 	mov	r2,zero
 1806598:	00c00234 	movhi	r3,8
 180659c:	408cb03a 	or	r6,r8,r2
 18065a0:	48ceb03a 	or	r7,r9,r3
 18065a4:	013fffc4 	movi	r4,-1
 18065a8:	01400434 	movhi	r5,16
 18065ac:	297fffc4 	addi	r5,r5,-1
 18065b0:	3104703a 	and	r2,r6,r4
 18065b4:	3946703a 	and	r3,r7,r5
 18065b8:	100d883a 	mov	r6,r2
 18065bc:	180f883a 	mov	r7,r3
 18065c0:	0201ffc4 	movi	r8,2047
 18065c4:	003fa706 	br	1806464 <__pack_d+0x50>
 18065c8:	1109c83a 	sub	r4,r2,r4
 18065cc:	00800e04 	movi	r2,56
 18065d0:	11004316 	blt	r2,r4,18066e0 <__pack_d+0x2cc>
 18065d4:	21fff804 	addi	r7,r4,-32
 18065d8:	38004516 	blt	r7,zero,18066f0 <__pack_d+0x2dc>
 18065dc:	49d8d83a 	srl	r12,r9,r7
 18065e0:	001b883a 	mov	r13,zero
 18065e4:	0023883a 	mov	r17,zero
 18065e8:	01400044 	movi	r5,1
 18065ec:	0025883a 	mov	r18,zero
 18065f0:	38004716 	blt	r7,zero,1806710 <__pack_d+0x2fc>
 18065f4:	29d6983a 	sll	r11,r5,r7
 18065f8:	0015883a 	mov	r10,zero
 18065fc:	00bfffc4 	movi	r2,-1
 1806600:	5089883a 	add	r4,r10,r2
 1806604:	588b883a 	add	r5,r11,r2
 1806608:	228d803a 	cmpltu	r6,r4,r10
 180660c:	314b883a 	add	r5,r6,r5
 1806610:	4104703a 	and	r2,r8,r4
 1806614:	4946703a 	and	r3,r9,r5
 1806618:	10c4b03a 	or	r2,r2,r3
 180661c:	10000226 	beq	r2,zero,1806628 <__pack_d+0x214>
 1806620:	04400044 	movi	r17,1
 1806624:	0025883a 	mov	r18,zero
 1806628:	00803fc4 	movi	r2,255
 180662c:	644eb03a 	or	r7,r12,r17
 1806630:	3892703a 	and	r9,r7,r2
 1806634:	00802004 	movi	r2,128
 1806638:	6c90b03a 	or	r8,r13,r18
 180663c:	0015883a 	mov	r10,zero
 1806640:	48801626 	beq	r9,r2,180669c <__pack_d+0x288>
 1806644:	01001fc4 	movi	r4,127
 1806648:	3905883a 	add	r2,r7,r4
 180664c:	11cd803a 	cmpltu	r6,r2,r7
 1806650:	320d883a 	add	r6,r6,r8
 1806654:	100f883a 	mov	r7,r2
 1806658:	00840034 	movhi	r2,4096
 180665c:	10bfffc4 	addi	r2,r2,-1
 1806660:	3011883a 	mov	r8,r6
 1806664:	0007883a 	mov	r3,zero
 1806668:	11801b36 	bltu	r2,r6,18066d8 <__pack_d+0x2c4>
 180666c:	4004963a 	slli	r2,r8,24
 1806670:	3808d23a 	srli	r4,r7,8
 1806674:	400ad23a 	srli	r5,r8,8
 1806678:	1813883a 	mov	r9,r3
 180667c:	1108b03a 	or	r4,r2,r4
 1806680:	00bfffc4 	movi	r2,-1
 1806684:	00c00434 	movhi	r3,16
 1806688:	18ffffc4 	addi	r3,r3,-1
 180668c:	208c703a 	and	r6,r4,r2
 1806690:	28ce703a 	and	r7,r5,r3
 1806694:	4a01ffcc 	andi	r8,r9,2047
 1806698:	003f7206 	br	1806464 <__pack_d+0x50>
 180669c:	503fe91e 	bne	r10,zero,1806644 <__pack_d+0x230>
 18066a0:	01004004 	movi	r4,256
 18066a4:	3904703a 	and	r2,r7,r4
 18066a8:	0007883a 	mov	r3,zero
 18066ac:	10c4b03a 	or	r2,r2,r3
 18066b0:	10000626 	beq	r2,zero,18066cc <__pack_d+0x2b8>
 18066b4:	3a45883a 	add	r2,r7,r9
 18066b8:	11cd803a 	cmpltu	r6,r2,r7
 18066bc:	320d883a 	add	r6,r6,r8
 18066c0:	100f883a 	mov	r7,r2
 18066c4:	3011883a 	mov	r8,r6
 18066c8:	0007883a 	mov	r3,zero
 18066cc:	00840034 	movhi	r2,4096
 18066d0:	10bfffc4 	addi	r2,r2,-1
 18066d4:	123fe52e 	bgeu	r2,r8,180666c <__pack_d+0x258>
 18066d8:	00c00044 	movi	r3,1
 18066dc:	003fe306 	br	180666c <__pack_d+0x258>
 18066e0:	0009883a 	mov	r4,zero
 18066e4:	0013883a 	mov	r9,zero
 18066e8:	000b883a 	mov	r5,zero
 18066ec:	003fe406 	br	1806680 <__pack_d+0x26c>
 18066f0:	4a47883a 	add	r3,r9,r9
 18066f4:	008007c4 	movi	r2,31
 18066f8:	1105c83a 	sub	r2,r2,r4
 18066fc:	1886983a 	sll	r3,r3,r2
 1806700:	4118d83a 	srl	r12,r8,r4
 1806704:	491ad83a 	srl	r13,r9,r4
 1806708:	1b18b03a 	or	r12,r3,r12
 180670c:	003fb506 	br	18065e4 <__pack_d+0x1d0>
 1806710:	2806d07a 	srli	r3,r5,1
 1806714:	008007c4 	movi	r2,31
 1806718:	1105c83a 	sub	r2,r2,r4
 180671c:	1896d83a 	srl	r11,r3,r2
 1806720:	2914983a 	sll	r10,r5,r4
 1806724:	003fb506 	br	18065fc <__pack_d+0x1e8>

01806728 <__unpack_d>:
 1806728:	20c00117 	ldw	r3,4(r4)
 180672c:	22400017 	ldw	r9,0(r4)
 1806730:	00800434 	movhi	r2,16
 1806734:	10bfffc4 	addi	r2,r2,-1
 1806738:	1808d53a 	srli	r4,r3,20
 180673c:	180cd7fa 	srli	r6,r3,31
 1806740:	1894703a 	and	r10,r3,r2
 1806744:	2201ffcc 	andi	r8,r4,2047
 1806748:	281b883a 	mov	r13,r5
 180674c:	4817883a 	mov	r11,r9
 1806750:	29800115 	stw	r6,4(r5)
 1806754:	5019883a 	mov	r12,r10
 1806758:	40001e1e 	bne	r8,zero,18067d4 <__unpack_d+0xac>
 180675c:	4a84b03a 	or	r2,r9,r10
 1806760:	10001926 	beq	r2,zero,18067c8 <__unpack_d+0xa0>
 1806764:	4804d63a 	srli	r2,r9,24
 1806768:	500c923a 	slli	r6,r10,8
 180676c:	013f0084 	movi	r4,-1022
 1806770:	00c40034 	movhi	r3,4096
 1806774:	18ffffc4 	addi	r3,r3,-1
 1806778:	118cb03a 	or	r6,r2,r6
 180677c:	008000c4 	movi	r2,3
 1806780:	480a923a 	slli	r5,r9,8
 1806784:	68800015 	stw	r2,0(r13)
 1806788:	69000215 	stw	r4,8(r13)
 180678c:	19800b36 	bltu	r3,r6,18067bc <__unpack_d+0x94>
 1806790:	200f883a 	mov	r7,r4
 1806794:	1811883a 	mov	r8,r3
 1806798:	2945883a 	add	r2,r5,r5
 180679c:	1149803a 	cmpltu	r4,r2,r5
 18067a0:	3187883a 	add	r3,r6,r6
 18067a4:	20c9883a 	add	r4,r4,r3
 18067a8:	100b883a 	mov	r5,r2
 18067ac:	200d883a 	mov	r6,r4
 18067b0:	39ffffc4 	addi	r7,r7,-1
 18067b4:	413ff82e 	bgeu	r8,r4,1806798 <__unpack_d+0x70>
 18067b8:	69c00215 	stw	r7,8(r13)
 18067bc:	69800415 	stw	r6,16(r13)
 18067c0:	69400315 	stw	r5,12(r13)
 18067c4:	f800283a 	ret
 18067c8:	00800084 	movi	r2,2
 18067cc:	28800015 	stw	r2,0(r5)
 18067d0:	f800283a 	ret
 18067d4:	0081ffc4 	movi	r2,2047
 18067d8:	40800f26 	beq	r8,r2,1806818 <__unpack_d+0xf0>
 18067dc:	480cd63a 	srli	r6,r9,24
 18067e0:	5006923a 	slli	r3,r10,8
 18067e4:	4804923a 	slli	r2,r9,8
 18067e8:	0009883a 	mov	r4,zero
 18067ec:	30c6b03a 	or	r3,r6,r3
 18067f0:	01440034 	movhi	r5,4096
 18067f4:	110cb03a 	or	r6,r2,r4
 18067f8:	423f0044 	addi	r8,r8,-1023
 18067fc:	194eb03a 	or	r7,r3,r5
 1806800:	008000c4 	movi	r2,3
 1806804:	69c00415 	stw	r7,16(r13)
 1806808:	6a000215 	stw	r8,8(r13)
 180680c:	68800015 	stw	r2,0(r13)
 1806810:	69800315 	stw	r6,12(r13)
 1806814:	f800283a 	ret
 1806818:	4a84b03a 	or	r2,r9,r10
 180681c:	1000031e 	bne	r2,zero,180682c <__unpack_d+0x104>
 1806820:	00800104 	movi	r2,4
 1806824:	28800015 	stw	r2,0(r5)
 1806828:	f800283a 	ret
 180682c:	0009883a 	mov	r4,zero
 1806830:	01400234 	movhi	r5,8
 1806834:	4904703a 	and	r2,r9,r4
 1806838:	5146703a 	and	r3,r10,r5
 180683c:	10c4b03a 	or	r2,r2,r3
 1806840:	10000526 	beq	r2,zero,1806858 <__unpack_d+0x130>
 1806844:	00800044 	movi	r2,1
 1806848:	68800015 	stw	r2,0(r13)
 180684c:	6b000415 	stw	r12,16(r13)
 1806850:	6ac00315 	stw	r11,12(r13)
 1806854:	f800283a 	ret
 1806858:	68000015 	stw	zero,0(r13)
 180685c:	003ffb06 	br	180684c <__unpack_d+0x124>

01806860 <__fpcmp_parts_d>:
 1806860:	21800017 	ldw	r6,0(r4)
 1806864:	00c00044 	movi	r3,1
 1806868:	19800a2e 	bgeu	r3,r6,1806894 <__fpcmp_parts_d+0x34>
 180686c:	28800017 	ldw	r2,0(r5)
 1806870:	1880082e 	bgeu	r3,r2,1806894 <__fpcmp_parts_d+0x34>
 1806874:	00c00104 	movi	r3,4
 1806878:	30c02626 	beq	r6,r3,1806914 <__fpcmp_parts_d+0xb4>
 180687c:	10c02226 	beq	r2,r3,1806908 <__fpcmp_parts_d+0xa8>
 1806880:	00c00084 	movi	r3,2
 1806884:	30c00526 	beq	r6,r3,180689c <__fpcmp_parts_d+0x3c>
 1806888:	10c0071e 	bne	r2,r3,18068a8 <__fpcmp_parts_d+0x48>
 180688c:	20800117 	ldw	r2,4(r4)
 1806890:	1000091e 	bne	r2,zero,18068b8 <__fpcmp_parts_d+0x58>
 1806894:	00800044 	movi	r2,1
 1806898:	f800283a 	ret
 180689c:	10c01a1e 	bne	r2,r3,1806908 <__fpcmp_parts_d+0xa8>
 18068a0:	0005883a 	mov	r2,zero
 18068a4:	f800283a 	ret
 18068a8:	22000117 	ldw	r8,4(r4)
 18068ac:	28800117 	ldw	r2,4(r5)
 18068b0:	40800326 	beq	r8,r2,18068c0 <__fpcmp_parts_d+0x60>
 18068b4:	403ff726 	beq	r8,zero,1806894 <__fpcmp_parts_d+0x34>
 18068b8:	00bfffc4 	movi	r2,-1
 18068bc:	f800283a 	ret
 18068c0:	20c00217 	ldw	r3,8(r4)
 18068c4:	28800217 	ldw	r2,8(r5)
 18068c8:	10fffa16 	blt	r2,r3,18068b4 <__fpcmp_parts_d+0x54>
 18068cc:	18800916 	blt	r3,r2,18068f4 <__fpcmp_parts_d+0x94>
 18068d0:	21c00417 	ldw	r7,16(r4)
 18068d4:	28c00417 	ldw	r3,16(r5)
 18068d8:	21800317 	ldw	r6,12(r4)
 18068dc:	28800317 	ldw	r2,12(r5)
 18068e0:	19fff436 	bltu	r3,r7,18068b4 <__fpcmp_parts_d+0x54>
 18068e4:	38c00526 	beq	r7,r3,18068fc <__fpcmp_parts_d+0x9c>
 18068e8:	38c00236 	bltu	r7,r3,18068f4 <__fpcmp_parts_d+0x94>
 18068ec:	19ffec1e 	bne	r3,r7,18068a0 <__fpcmp_parts_d+0x40>
 18068f0:	30bfeb2e 	bgeu	r6,r2,18068a0 <__fpcmp_parts_d+0x40>
 18068f4:	403fe71e 	bne	r8,zero,1806894 <__fpcmp_parts_d+0x34>
 18068f8:	003fef06 	br	18068b8 <__fpcmp_parts_d+0x58>
 18068fc:	11bffa2e 	bgeu	r2,r6,18068e8 <__fpcmp_parts_d+0x88>
 1806900:	403fe426 	beq	r8,zero,1806894 <__fpcmp_parts_d+0x34>
 1806904:	003fec06 	br	18068b8 <__fpcmp_parts_d+0x58>
 1806908:	28800117 	ldw	r2,4(r5)
 180690c:	103fe11e 	bne	r2,zero,1806894 <__fpcmp_parts_d+0x34>
 1806910:	003fe906 	br	18068b8 <__fpcmp_parts_d+0x58>
 1806914:	11bfdd1e 	bne	r2,r6,180688c <__fpcmp_parts_d+0x2c>
 1806918:	28c00117 	ldw	r3,4(r5)
 180691c:	20800117 	ldw	r2,4(r4)
 1806920:	1885c83a 	sub	r2,r3,r2
 1806924:	f800283a 	ret

01806928 <__errno>:
 1806928:	00c06074 	movhi	r3,385
 180692c:	18dec404 	addi	r3,r3,31504
 1806930:	18800017 	ldw	r2,0(r3)
 1806934:	f800283a 	ret

01806938 <memcpy>:
 1806938:	01c003c4 	movi	r7,15
 180693c:	2007883a 	mov	r3,r4
 1806940:	3980032e 	bgeu	r7,r6,1806950 <memcpy+0x18>
 1806944:	2904b03a 	or	r2,r5,r4
 1806948:	108000cc 	andi	r2,r2,3
 180694c:	10000926 	beq	r2,zero,1806974 <memcpy+0x3c>
 1806950:	30000626 	beq	r6,zero,180696c <memcpy+0x34>
 1806954:	30cd883a 	add	r6,r6,r3
 1806958:	28800003 	ldbu	r2,0(r5)
 180695c:	29400044 	addi	r5,r5,1
 1806960:	18800005 	stb	r2,0(r3)
 1806964:	18c00044 	addi	r3,r3,1
 1806968:	30fffb1e 	bne	r6,r3,1806958 <memcpy+0x20>
 180696c:	2005883a 	mov	r2,r4
 1806970:	f800283a 	ret
 1806974:	3811883a 	mov	r8,r7
 1806978:	200f883a 	mov	r7,r4
 180697c:	28c00017 	ldw	r3,0(r5)
 1806980:	31bffc04 	addi	r6,r6,-16
 1806984:	38c00015 	stw	r3,0(r7)
 1806988:	28800117 	ldw	r2,4(r5)
 180698c:	38800115 	stw	r2,4(r7)
 1806990:	28c00217 	ldw	r3,8(r5)
 1806994:	38c00215 	stw	r3,8(r7)
 1806998:	28800317 	ldw	r2,12(r5)
 180699c:	29400404 	addi	r5,r5,16
 18069a0:	38800315 	stw	r2,12(r7)
 18069a4:	39c00404 	addi	r7,r7,16
 18069a8:	41bff436 	bltu	r8,r6,180697c <memcpy+0x44>
 18069ac:	008000c4 	movi	r2,3
 18069b0:	1180072e 	bgeu	r2,r6,18069d0 <memcpy+0x98>
 18069b4:	1007883a 	mov	r3,r2
 18069b8:	28800017 	ldw	r2,0(r5)
 18069bc:	31bfff04 	addi	r6,r6,-4
 18069c0:	29400104 	addi	r5,r5,4
 18069c4:	38800015 	stw	r2,0(r7)
 18069c8:	39c00104 	addi	r7,r7,4
 18069cc:	19bffa36 	bltu	r3,r6,18069b8 <memcpy+0x80>
 18069d0:	3807883a 	mov	r3,r7
 18069d4:	003fde06 	br	1806950 <memcpy+0x18>

018069d8 <printf>:
 18069d8:	defffb04 	addi	sp,sp,-20
 18069dc:	dfc00115 	stw	ra,4(sp)
 18069e0:	d9400215 	stw	r5,8(sp)
 18069e4:	d9800315 	stw	r6,12(sp)
 18069e8:	d9c00415 	stw	r7,16(sp)
 18069ec:	00806074 	movhi	r2,385
 18069f0:	109ec404 	addi	r2,r2,31504
 18069f4:	10c00017 	ldw	r3,0(r2)
 18069f8:	200b883a 	mov	r5,r4
 18069fc:	d8800204 	addi	r2,sp,8
 1806a00:	19000217 	ldw	r4,8(r3)
 1806a04:	100d883a 	mov	r6,r2
 1806a08:	d8800015 	stw	r2,0(sp)
 1806a0c:	18089540 	call	1808954 <__vfprintf_internal>
 1806a10:	dfc00117 	ldw	ra,4(sp)
 1806a14:	dec00504 	addi	sp,sp,20
 1806a18:	f800283a 	ret

01806a1c <_printf_r>:
 1806a1c:	defffc04 	addi	sp,sp,-16
 1806a20:	dfc00115 	stw	ra,4(sp)
 1806a24:	d9800215 	stw	r6,8(sp)
 1806a28:	d9c00315 	stw	r7,12(sp)
 1806a2c:	280d883a 	mov	r6,r5
 1806a30:	21400217 	ldw	r5,8(r4)
 1806a34:	d8c00204 	addi	r3,sp,8
 1806a38:	180f883a 	mov	r7,r3
 1806a3c:	d8c00015 	stw	r3,0(sp)
 1806a40:	1806aa80 	call	1806aa8 <___vfprintf_internal_r>
 1806a44:	dfc00117 	ldw	ra,4(sp)
 1806a48:	dec00404 	addi	sp,sp,16
 1806a4c:	f800283a 	ret

01806a50 <__sprint_r>:
 1806a50:	30800217 	ldw	r2,8(r6)
 1806a54:	defffe04 	addi	sp,sp,-8
 1806a58:	dc000015 	stw	r16,0(sp)
 1806a5c:	dfc00115 	stw	ra,4(sp)
 1806a60:	3021883a 	mov	r16,r6
 1806a64:	0007883a 	mov	r3,zero
 1806a68:	1000061e 	bne	r2,zero,1806a84 <__sprint_r+0x34>
 1806a6c:	1805883a 	mov	r2,r3
 1806a70:	30000115 	stw	zero,4(r6)
 1806a74:	dfc00117 	ldw	ra,4(sp)
 1806a78:	dc000017 	ldw	r16,0(sp)
 1806a7c:	dec00204 	addi	sp,sp,8
 1806a80:	f800283a 	ret
 1806a84:	180abb00 	call	180abb0 <__sfvwrite_r>
 1806a88:	1007883a 	mov	r3,r2
 1806a8c:	1805883a 	mov	r2,r3
 1806a90:	80000115 	stw	zero,4(r16)
 1806a94:	80000215 	stw	zero,8(r16)
 1806a98:	dfc00117 	ldw	ra,4(sp)
 1806a9c:	dc000017 	ldw	r16,0(sp)
 1806aa0:	dec00204 	addi	sp,sp,8
 1806aa4:	f800283a 	ret

01806aa8 <___vfprintf_internal_r>:
 1806aa8:	defea404 	addi	sp,sp,-1392
 1806aac:	dd815815 	stw	r22,1376(sp)
 1806ab0:	dc015215 	stw	r16,1352(sp)
 1806ab4:	d9c15115 	stw	r7,1348(sp)
 1806ab8:	dfc15b15 	stw	ra,1388(sp)
 1806abc:	df015a15 	stw	fp,1384(sp)
 1806ac0:	ddc15915 	stw	r23,1380(sp)
 1806ac4:	dd415715 	stw	r21,1372(sp)
 1806ac8:	dd015615 	stw	r20,1368(sp)
 1806acc:	dcc15515 	stw	r19,1364(sp)
 1806ad0:	dc815415 	stw	r18,1360(sp)
 1806ad4:	dc415315 	stw	r17,1356(sp)
 1806ad8:	282d883a 	mov	r22,r5
 1806adc:	3021883a 	mov	r16,r6
 1806ae0:	d9014f15 	stw	r4,1340(sp)
 1806ae4:	180b1d40 	call	180b1d4 <_localeconv_r>
 1806ae8:	10800017 	ldw	r2,0(r2)
 1806aec:	d9c15117 	ldw	r7,1348(sp)
 1806af0:	d8814915 	stw	r2,1316(sp)
 1806af4:	d8814f17 	ldw	r2,1340(sp)
 1806af8:	10000226 	beq	r2,zero,1806b04 <___vfprintf_internal_r+0x5c>
 1806afc:	10800e17 	ldw	r2,56(r2)
 1806b00:	10020d26 	beq	r2,zero,1807338 <___vfprintf_internal_r+0x890>
 1806b04:	b080030b 	ldhu	r2,12(r22)
 1806b08:	1080020c 	andi	r2,r2,8
 1806b0c:	10020e26 	beq	r2,zero,1807348 <___vfprintf_internal_r+0x8a0>
 1806b10:	b0800417 	ldw	r2,16(r22)
 1806b14:	10020c26 	beq	r2,zero,1807348 <___vfprintf_internal_r+0x8a0>
 1806b18:	b200030b 	ldhu	r8,12(r22)
 1806b1c:	00800284 	movi	r2,10
 1806b20:	40c0068c 	andi	r3,r8,26
 1806b24:	18802f1e 	bne	r3,r2,1806be4 <___vfprintf_internal_r+0x13c>
 1806b28:	b080038f 	ldh	r2,14(r22)
 1806b2c:	10002d16 	blt	r2,zero,1806be4 <___vfprintf_internal_r+0x13c>
 1806b30:	b240038b 	ldhu	r9,14(r22)
 1806b34:	b2800717 	ldw	r10,28(r22)
 1806b38:	b2c00917 	ldw	r11,36(r22)
 1806b3c:	d9014f17 	ldw	r4,1340(sp)
 1806b40:	dc402904 	addi	r17,sp,164
 1806b44:	d8804004 	addi	r2,sp,256
 1806b48:	00c10004 	movi	r3,1024
 1806b4c:	423fff4c 	andi	r8,r8,65533
 1806b50:	800d883a 	mov	r6,r16
 1806b54:	880b883a 	mov	r5,r17
 1806b58:	da002c0d 	sth	r8,176(sp)
 1806b5c:	da402c8d 	sth	r9,178(sp)
 1806b60:	da803015 	stw	r10,192(sp)
 1806b64:	dac03215 	stw	r11,200(sp)
 1806b68:	d8802d15 	stw	r2,180(sp)
 1806b6c:	d8c02e15 	stw	r3,184(sp)
 1806b70:	d8802915 	stw	r2,164(sp)
 1806b74:	d8c02b15 	stw	r3,172(sp)
 1806b78:	d8002f15 	stw	zero,188(sp)
 1806b7c:	1806aa80 	call	1806aa8 <___vfprintf_internal_r>
 1806b80:	d8814b15 	stw	r2,1324(sp)
 1806b84:	10000416 	blt	r2,zero,1806b98 <___vfprintf_internal_r+0xf0>
 1806b88:	d9014f17 	ldw	r4,1340(sp)
 1806b8c:	880b883a 	mov	r5,r17
 1806b90:	180a2800 	call	180a280 <_fflush_r>
 1806b94:	1002321e 	bne	r2,zero,1807460 <___vfprintf_internal_r+0x9b8>
 1806b98:	d8802c0b 	ldhu	r2,176(sp)
 1806b9c:	1080100c 	andi	r2,r2,64
 1806ba0:	10000326 	beq	r2,zero,1806bb0 <___vfprintf_internal_r+0x108>
 1806ba4:	b080030b 	ldhu	r2,12(r22)
 1806ba8:	10801014 	ori	r2,r2,64
 1806bac:	b080030d 	sth	r2,12(r22)
 1806bb0:	d8814b17 	ldw	r2,1324(sp)
 1806bb4:	dfc15b17 	ldw	ra,1388(sp)
 1806bb8:	df015a17 	ldw	fp,1384(sp)
 1806bbc:	ddc15917 	ldw	r23,1380(sp)
 1806bc0:	dd815817 	ldw	r22,1376(sp)
 1806bc4:	dd415717 	ldw	r21,1372(sp)
 1806bc8:	dd015617 	ldw	r20,1368(sp)
 1806bcc:	dcc15517 	ldw	r19,1364(sp)
 1806bd0:	dc815417 	ldw	r18,1360(sp)
 1806bd4:	dc415317 	ldw	r17,1356(sp)
 1806bd8:	dc015217 	ldw	r16,1352(sp)
 1806bdc:	dec15c04 	addi	sp,sp,1392
 1806be0:	f800283a 	ret
 1806be4:	0005883a 	mov	r2,zero
 1806be8:	0007883a 	mov	r3,zero
 1806bec:	dd401904 	addi	r21,sp,100
 1806bf0:	d8814215 	stw	r2,1288(sp)
 1806bf4:	802f883a 	mov	r23,r16
 1806bf8:	d8c14315 	stw	r3,1292(sp)
 1806bfc:	d8014b15 	stw	zero,1324(sp)
 1806c00:	d8014815 	stw	zero,1312(sp)
 1806c04:	d8014415 	stw	zero,1296(sp)
 1806c08:	d8014715 	stw	zero,1308(sp)
 1806c0c:	dd400c15 	stw	r21,48(sp)
 1806c10:	d8000e15 	stw	zero,56(sp)
 1806c14:	d8000d15 	stw	zero,52(sp)
 1806c18:	b8800007 	ldb	r2,0(r23)
 1806c1c:	10001926 	beq	r2,zero,1806c84 <___vfprintf_internal_r+0x1dc>
 1806c20:	00c00944 	movi	r3,37
 1806c24:	10c01726 	beq	r2,r3,1806c84 <___vfprintf_internal_r+0x1dc>
 1806c28:	b821883a 	mov	r16,r23
 1806c2c:	00000106 	br	1806c34 <___vfprintf_internal_r+0x18c>
 1806c30:	10c00326 	beq	r2,r3,1806c40 <___vfprintf_internal_r+0x198>
 1806c34:	84000044 	addi	r16,r16,1
 1806c38:	80800007 	ldb	r2,0(r16)
 1806c3c:	103ffc1e 	bne	r2,zero,1806c30 <___vfprintf_internal_r+0x188>
 1806c40:	85e7c83a 	sub	r19,r16,r23
 1806c44:	98000e26 	beq	r19,zero,1806c80 <___vfprintf_internal_r+0x1d8>
 1806c48:	dc800e17 	ldw	r18,56(sp)
 1806c4c:	dc400d17 	ldw	r17,52(sp)
 1806c50:	008001c4 	movi	r2,7
 1806c54:	94e5883a 	add	r18,r18,r19
 1806c58:	8c400044 	addi	r17,r17,1
 1806c5c:	adc00015 	stw	r23,0(r21)
 1806c60:	dc800e15 	stw	r18,56(sp)
 1806c64:	acc00115 	stw	r19,4(r21)
 1806c68:	dc400d15 	stw	r17,52(sp)
 1806c6c:	14428b16 	blt	r2,r17,180769c <___vfprintf_internal_r+0xbf4>
 1806c70:	ad400204 	addi	r21,r21,8
 1806c74:	d9014b17 	ldw	r4,1324(sp)
 1806c78:	24c9883a 	add	r4,r4,r19
 1806c7c:	d9014b15 	stw	r4,1324(sp)
 1806c80:	802f883a 	mov	r23,r16
 1806c84:	b8800007 	ldb	r2,0(r23)
 1806c88:	10013c26 	beq	r2,zero,180717c <___vfprintf_internal_r+0x6d4>
 1806c8c:	bdc00044 	addi	r23,r23,1
 1806c90:	d8000405 	stb	zero,16(sp)
 1806c94:	b8c00007 	ldb	r3,0(r23)
 1806c98:	04ffffc4 	movi	r19,-1
 1806c9c:	d8014c15 	stw	zero,1328(sp)
 1806ca0:	d8014a15 	stw	zero,1320(sp)
 1806ca4:	d8c14d15 	stw	r3,1332(sp)
 1806ca8:	bdc00044 	addi	r23,r23,1
 1806cac:	d9414d17 	ldw	r5,1332(sp)
 1806cb0:	00801604 	movi	r2,88
 1806cb4:	28fff804 	addi	r3,r5,-32
 1806cb8:	10c06036 	bltu	r2,r3,1806e3c <___vfprintf_internal_r+0x394>
 1806cbc:	18c5883a 	add	r2,r3,r3
 1806cc0:	1085883a 	add	r2,r2,r2
 1806cc4:	00c06034 	movhi	r3,384
 1806cc8:	18db3604 	addi	r3,r3,27864
 1806ccc:	10c5883a 	add	r2,r2,r3
 1806cd0:	11000017 	ldw	r4,0(r2)
 1806cd4:	2000683a 	jmp	r4
 1806cd8:	01807c4c 	andi	r6,zero,497
 1806cdc:	01806e3c 	xorhi	r6,zero,440
 1806ce0:	01806e3c 	xorhi	r6,zero,440
 1806ce4:	01807c38 	rdprs	r6,zero,496
 1806ce8:	01806e3c 	xorhi	r6,zero,440
 1806cec:	01806e3c 	xorhi	r6,zero,440
 1806cf0:	01806e3c 	xorhi	r6,zero,440
 1806cf4:	01806e3c 	xorhi	r6,zero,440
 1806cf8:	01806e3c 	xorhi	r6,zero,440
 1806cfc:	01806e3c 	xorhi	r6,zero,440
 1806d00:	01807a18 	cmpnei	r6,zero,488
 1806d04:	01807c28 	cmpgeui	r6,zero,496
 1806d08:	01806e3c 	xorhi	r6,zero,440
 1806d0c:	01807a30 	cmpltui	r6,zero,488
 1806d10:	01807cc4 	movi	r6,499
 1806d14:	01806e3c 	xorhi	r6,zero,440
 1806d18:	01807cb0 	cmpltui	r6,zero,498
 1806d1c:	01807c78 	rdprs	r6,zero,497
 1806d20:	01807c78 	rdprs	r6,zero,497
 1806d24:	01807c78 	rdprs	r6,zero,497
 1806d28:	01807c78 	rdprs	r6,zero,497
 1806d2c:	01807c78 	rdprs	r6,zero,497
 1806d30:	01807c78 	rdprs	r6,zero,497
 1806d34:	01807c78 	rdprs	r6,zero,497
 1806d38:	01807c78 	rdprs	r6,zero,497
 1806d3c:	01807c78 	rdprs	r6,zero,497
 1806d40:	01806e3c 	xorhi	r6,zero,440
 1806d44:	01806e3c 	xorhi	r6,zero,440
 1806d48:	01806e3c 	xorhi	r6,zero,440
 1806d4c:	01806e3c 	xorhi	r6,zero,440
 1806d50:	01806e3c 	xorhi	r6,zero,440
 1806d54:	01806e3c 	xorhi	r6,zero,440
 1806d58:	01806e3c 	xorhi	r6,zero,440
 1806d5c:	01806e3c 	xorhi	r6,zero,440
 1806d60:	01806e3c 	xorhi	r6,zero,440
 1806d64:	01806e3c 	xorhi	r6,zero,440
 1806d68:	01807494 	movui	r6,466
 1806d6c:	01807b00 	call	1807b0 <_start-0x167f850>
 1806d70:	01806e3c 	xorhi	r6,zero,440
 1806d74:	01807b00 	call	1807b0 <_start-0x167f850>
 1806d78:	01806e3c 	xorhi	r6,zero,440
 1806d7c:	01806e3c 	xorhi	r6,zero,440
 1806d80:	01806e3c 	xorhi	r6,zero,440
 1806d84:	01806e3c 	xorhi	r6,zero,440
 1806d88:	01807c64 	muli	r6,zero,497
 1806d8c:	01806e3c 	xorhi	r6,zero,440
 1806d90:	01806e3c 	xorhi	r6,zero,440
 1806d94:	01807548 	cmpgei	r6,zero,469
 1806d98:	01806e3c 	xorhi	r6,zero,440
 1806d9c:	01806e3c 	xorhi	r6,zero,440
 1806da0:	01806e3c 	xorhi	r6,zero,440
 1806da4:	01806e3c 	xorhi	r6,zero,440
 1806da8:	01806e3c 	xorhi	r6,zero,440
 1806dac:	01807594 	movui	r6,470
 1806db0:	01806e3c 	xorhi	r6,zero,440
 1806db4:	01806e3c 	xorhi	r6,zero,440
 1806db8:	01807bb4 	movhi	r6,494
 1806dbc:	01806e3c 	xorhi	r6,zero,440
 1806dc0:	01806e3c 	xorhi	r6,zero,440
 1806dc4:	01806e3c 	xorhi	r6,zero,440
 1806dc8:	01806e3c 	xorhi	r6,zero,440
 1806dcc:	01806e3c 	xorhi	r6,zero,440
 1806dd0:	01806e3c 	xorhi	r6,zero,440
 1806dd4:	01806e3c 	xorhi	r6,zero,440
 1806dd8:	01806e3c 	xorhi	r6,zero,440
 1806ddc:	01806e3c 	xorhi	r6,zero,440
 1806de0:	01806e3c 	xorhi	r6,zero,440
 1806de4:	01807b88 	cmpgei	r6,zero,494
 1806de8:	018074a0 	cmpeqi	r6,zero,466
 1806dec:	01807b00 	call	1807b0 <_start-0x167f850>
 1806df0:	01807b00 	call	1807b0 <_start-0x167f850>
 1806df4:	01807b00 	call	1807b0 <_start-0x167f850>
 1806df8:	01807aec 	andhi	r6,zero,491
 1806dfc:	018074a0 	cmpeqi	r6,zero,466
 1806e00:	01806e3c 	xorhi	r6,zero,440
 1806e04:	01806e3c 	xorhi	r6,zero,440
 1806e08:	01807a74 	movhi	r6,489
 1806e0c:	01806e3c 	xorhi	r6,zero,440
 1806e10:	01807a44 	movi	r6,489
 1806e14:	01807554 	movui	r6,469
 1806e18:	01807aa4 	muli	r6,zero,490
 1806e1c:	01807a90 	cmplti	r6,zero,490
 1806e20:	01806e3c 	xorhi	r6,zero,440
 1806e24:	01807d20 	cmpeqi	r6,zero,500
 1806e28:	01806e3c 	xorhi	r6,zero,440
 1806e2c:	018075a0 	cmpeqi	r6,zero,470
 1806e30:	01806e3c 	xorhi	r6,zero,440
 1806e34:	01806e3c 	xorhi	r6,zero,440
 1806e38:	01807c18 	cmpnei	r6,zero,496
 1806e3c:	d9014d17 	ldw	r4,1332(sp)
 1806e40:	2000ce26 	beq	r4,zero,180717c <___vfprintf_internal_r+0x6d4>
 1806e44:	01400044 	movi	r5,1
 1806e48:	d9800f04 	addi	r6,sp,60
 1806e4c:	d9c14015 	stw	r7,1280(sp)
 1806e50:	d9414515 	stw	r5,1300(sp)
 1806e54:	d9814115 	stw	r6,1284(sp)
 1806e58:	280f883a 	mov	r7,r5
 1806e5c:	d9000f05 	stb	r4,60(sp)
 1806e60:	d8000405 	stb	zero,16(sp)
 1806e64:	d8014615 	stw	zero,1304(sp)
 1806e68:	d8c14c17 	ldw	r3,1328(sp)
 1806e6c:	1880008c 	andi	r2,r3,2
 1806e70:	1005003a 	cmpeq	r2,r2,zero
 1806e74:	d8815015 	stw	r2,1344(sp)
 1806e78:	1000031e 	bne	r2,zero,1806e88 <___vfprintf_internal_r+0x3e0>
 1806e7c:	d9014517 	ldw	r4,1300(sp)
 1806e80:	21000084 	addi	r4,r4,2
 1806e84:	d9014515 	stw	r4,1300(sp)
 1806e88:	d9414c17 	ldw	r5,1328(sp)
 1806e8c:	2940210c 	andi	r5,r5,132
 1806e90:	d9414e15 	stw	r5,1336(sp)
 1806e94:	28002d1e 	bne	r5,zero,1806f4c <___vfprintf_internal_r+0x4a4>
 1806e98:	d9814a17 	ldw	r6,1320(sp)
 1806e9c:	d8814517 	ldw	r2,1300(sp)
 1806ea0:	30a1c83a 	sub	r16,r6,r2
 1806ea4:	0400290e 	bge	zero,r16,1806f4c <___vfprintf_internal_r+0x4a4>
 1806ea8:	00800404 	movi	r2,16
 1806eac:	1404580e 	bge	r2,r16,1808010 <___vfprintf_internal_r+0x1568>
 1806eb0:	dc800e17 	ldw	r18,56(sp)
 1806eb4:	dc400d17 	ldw	r17,52(sp)
 1806eb8:	1027883a 	mov	r19,r2
 1806ebc:	07006074 	movhi	fp,385
 1806ec0:	e7167584 	addi	fp,fp,22998
 1806ec4:	050001c4 	movi	r20,7
 1806ec8:	00000306 	br	1806ed8 <___vfprintf_internal_r+0x430>
 1806ecc:	843ffc04 	addi	r16,r16,-16
 1806ed0:	ad400204 	addi	r21,r21,8
 1806ed4:	9c00130e 	bge	r19,r16,1806f24 <___vfprintf_internal_r+0x47c>
 1806ed8:	94800404 	addi	r18,r18,16
 1806edc:	8c400044 	addi	r17,r17,1
 1806ee0:	af000015 	stw	fp,0(r21)
 1806ee4:	acc00115 	stw	r19,4(r21)
 1806ee8:	dc800e15 	stw	r18,56(sp)
 1806eec:	dc400d15 	stw	r17,52(sp)
 1806ef0:	a47ff60e 	bge	r20,r17,1806ecc <___vfprintf_internal_r+0x424>
 1806ef4:	d9014f17 	ldw	r4,1340(sp)
 1806ef8:	b00b883a 	mov	r5,r22
 1806efc:	d9800c04 	addi	r6,sp,48
 1806f00:	d9c15115 	stw	r7,1348(sp)
 1806f04:	1806a500 	call	1806a50 <__sprint_r>
 1806f08:	d9c15117 	ldw	r7,1348(sp)
 1806f0c:	10009e1e 	bne	r2,zero,1807188 <___vfprintf_internal_r+0x6e0>
 1806f10:	843ffc04 	addi	r16,r16,-16
 1806f14:	dc800e17 	ldw	r18,56(sp)
 1806f18:	dc400d17 	ldw	r17,52(sp)
 1806f1c:	dd401904 	addi	r21,sp,100
 1806f20:	9c3fed16 	blt	r19,r16,1806ed8 <___vfprintf_internal_r+0x430>
 1806f24:	9425883a 	add	r18,r18,r16
 1806f28:	8c400044 	addi	r17,r17,1
 1806f2c:	008001c4 	movi	r2,7
 1806f30:	af000015 	stw	fp,0(r21)
 1806f34:	ac000115 	stw	r16,4(r21)
 1806f38:	dc800e15 	stw	r18,56(sp)
 1806f3c:	dc400d15 	stw	r17,52(sp)
 1806f40:	1441f516 	blt	r2,r17,1807718 <___vfprintf_internal_r+0xc70>
 1806f44:	ad400204 	addi	r21,r21,8
 1806f48:	00000206 	br	1806f54 <___vfprintf_internal_r+0x4ac>
 1806f4c:	dc800e17 	ldw	r18,56(sp)
 1806f50:	dc400d17 	ldw	r17,52(sp)
 1806f54:	d8800407 	ldb	r2,16(sp)
 1806f58:	10000b26 	beq	r2,zero,1806f88 <___vfprintf_internal_r+0x4e0>
 1806f5c:	00800044 	movi	r2,1
 1806f60:	94800044 	addi	r18,r18,1
 1806f64:	8c400044 	addi	r17,r17,1
 1806f68:	a8800115 	stw	r2,4(r21)
 1806f6c:	d8c00404 	addi	r3,sp,16
 1806f70:	008001c4 	movi	r2,7
 1806f74:	a8c00015 	stw	r3,0(r21)
 1806f78:	dc800e15 	stw	r18,56(sp)
 1806f7c:	dc400d15 	stw	r17,52(sp)
 1806f80:	1441da16 	blt	r2,r17,18076ec <___vfprintf_internal_r+0xc44>
 1806f84:	ad400204 	addi	r21,r21,8
 1806f88:	d9015017 	ldw	r4,1344(sp)
 1806f8c:	20000b1e 	bne	r4,zero,1806fbc <___vfprintf_internal_r+0x514>
 1806f90:	d8800444 	addi	r2,sp,17
 1806f94:	94800084 	addi	r18,r18,2
 1806f98:	8c400044 	addi	r17,r17,1
 1806f9c:	a8800015 	stw	r2,0(r21)
 1806fa0:	00c00084 	movi	r3,2
 1806fa4:	008001c4 	movi	r2,7
 1806fa8:	a8c00115 	stw	r3,4(r21)
 1806fac:	dc800e15 	stw	r18,56(sp)
 1806fb0:	dc400d15 	stw	r17,52(sp)
 1806fb4:	1441c216 	blt	r2,r17,18076c0 <___vfprintf_internal_r+0xc18>
 1806fb8:	ad400204 	addi	r21,r21,8
 1806fbc:	d9414e17 	ldw	r5,1336(sp)
 1806fc0:	00802004 	movi	r2,128
 1806fc4:	2880b126 	beq	r5,r2,180728c <___vfprintf_internal_r+0x7e4>
 1806fc8:	d8c14617 	ldw	r3,1304(sp)
 1806fcc:	19e1c83a 	sub	r16,r3,r7
 1806fd0:	0400260e 	bge	zero,r16,180706c <___vfprintf_internal_r+0x5c4>
 1806fd4:	00800404 	movi	r2,16
 1806fd8:	1403c90e 	bge	r2,r16,1807f00 <___vfprintf_internal_r+0x1458>
 1806fdc:	1027883a 	mov	r19,r2
 1806fe0:	07006074 	movhi	fp,385
 1806fe4:	e7167184 	addi	fp,fp,22982
 1806fe8:	050001c4 	movi	r20,7
 1806fec:	00000306 	br	1806ffc <___vfprintf_internal_r+0x554>
 1806ff0:	843ffc04 	addi	r16,r16,-16
 1806ff4:	ad400204 	addi	r21,r21,8
 1806ff8:	9c00130e 	bge	r19,r16,1807048 <___vfprintf_internal_r+0x5a0>
 1806ffc:	94800404 	addi	r18,r18,16
 1807000:	8c400044 	addi	r17,r17,1
 1807004:	af000015 	stw	fp,0(r21)
 1807008:	acc00115 	stw	r19,4(r21)
 180700c:	dc800e15 	stw	r18,56(sp)
 1807010:	dc400d15 	stw	r17,52(sp)
 1807014:	a47ff60e 	bge	r20,r17,1806ff0 <___vfprintf_internal_r+0x548>
 1807018:	d9014f17 	ldw	r4,1340(sp)
 180701c:	b00b883a 	mov	r5,r22
 1807020:	d9800c04 	addi	r6,sp,48
 1807024:	d9c15115 	stw	r7,1348(sp)
 1807028:	1806a500 	call	1806a50 <__sprint_r>
 180702c:	d9c15117 	ldw	r7,1348(sp)
 1807030:	1000551e 	bne	r2,zero,1807188 <___vfprintf_internal_r+0x6e0>
 1807034:	843ffc04 	addi	r16,r16,-16
 1807038:	dc800e17 	ldw	r18,56(sp)
 180703c:	dc400d17 	ldw	r17,52(sp)
 1807040:	dd401904 	addi	r21,sp,100
 1807044:	9c3fed16 	blt	r19,r16,1806ffc <___vfprintf_internal_r+0x554>
 1807048:	9425883a 	add	r18,r18,r16
 180704c:	8c400044 	addi	r17,r17,1
 1807050:	008001c4 	movi	r2,7
 1807054:	af000015 	stw	fp,0(r21)
 1807058:	ac000115 	stw	r16,4(r21)
 180705c:	dc800e15 	stw	r18,56(sp)
 1807060:	dc400d15 	stw	r17,52(sp)
 1807064:	14418216 	blt	r2,r17,1807670 <___vfprintf_internal_r+0xbc8>
 1807068:	ad400204 	addi	r21,r21,8
 180706c:	d9014c17 	ldw	r4,1328(sp)
 1807070:	2080400c 	andi	r2,r4,256
 1807074:	10004a1e 	bne	r2,zero,18071a0 <___vfprintf_internal_r+0x6f8>
 1807078:	d9414117 	ldw	r5,1284(sp)
 180707c:	91e5883a 	add	r18,r18,r7
 1807080:	8c400044 	addi	r17,r17,1
 1807084:	008001c4 	movi	r2,7
 1807088:	a9400015 	stw	r5,0(r21)
 180708c:	a9c00115 	stw	r7,4(r21)
 1807090:	dc800e15 	stw	r18,56(sp)
 1807094:	dc400d15 	stw	r17,52(sp)
 1807098:	14416716 	blt	r2,r17,1807638 <___vfprintf_internal_r+0xb90>
 180709c:	a8c00204 	addi	r3,r21,8
 18070a0:	d9814c17 	ldw	r6,1328(sp)
 18070a4:	3080010c 	andi	r2,r6,4
 18070a8:	10002826 	beq	r2,zero,180714c <___vfprintf_internal_r+0x6a4>
 18070ac:	d8814a17 	ldw	r2,1320(sp)
 18070b0:	d9014517 	ldw	r4,1300(sp)
 18070b4:	1121c83a 	sub	r16,r2,r4
 18070b8:	0400240e 	bge	zero,r16,180714c <___vfprintf_internal_r+0x6a4>
 18070bc:	00800404 	movi	r2,16
 18070c0:	14044f0e 	bge	r2,r16,1808200 <___vfprintf_internal_r+0x1758>
 18070c4:	dc400d17 	ldw	r17,52(sp)
 18070c8:	1027883a 	mov	r19,r2
 18070cc:	07006074 	movhi	fp,385
 18070d0:	e7167584 	addi	fp,fp,22998
 18070d4:	050001c4 	movi	r20,7
 18070d8:	00000306 	br	18070e8 <___vfprintf_internal_r+0x640>
 18070dc:	843ffc04 	addi	r16,r16,-16
 18070e0:	18c00204 	addi	r3,r3,8
 18070e4:	9c00110e 	bge	r19,r16,180712c <___vfprintf_internal_r+0x684>
 18070e8:	94800404 	addi	r18,r18,16
 18070ec:	8c400044 	addi	r17,r17,1
 18070f0:	1f000015 	stw	fp,0(r3)
 18070f4:	1cc00115 	stw	r19,4(r3)
 18070f8:	dc800e15 	stw	r18,56(sp)
 18070fc:	dc400d15 	stw	r17,52(sp)
 1807100:	a47ff60e 	bge	r20,r17,18070dc <___vfprintf_internal_r+0x634>
 1807104:	d9014f17 	ldw	r4,1340(sp)
 1807108:	b00b883a 	mov	r5,r22
 180710c:	d9800c04 	addi	r6,sp,48
 1807110:	1806a500 	call	1806a50 <__sprint_r>
 1807114:	10001c1e 	bne	r2,zero,1807188 <___vfprintf_internal_r+0x6e0>
 1807118:	843ffc04 	addi	r16,r16,-16
 180711c:	dc800e17 	ldw	r18,56(sp)
 1807120:	dc400d17 	ldw	r17,52(sp)
 1807124:	d8c01904 	addi	r3,sp,100
 1807128:	9c3fef16 	blt	r19,r16,18070e8 <___vfprintf_internal_r+0x640>
 180712c:	9425883a 	add	r18,r18,r16
 1807130:	8c400044 	addi	r17,r17,1
 1807134:	008001c4 	movi	r2,7
 1807138:	1f000015 	stw	fp,0(r3)
 180713c:	1c000115 	stw	r16,4(r3)
 1807140:	dc800e15 	stw	r18,56(sp)
 1807144:	dc400d15 	stw	r17,52(sp)
 1807148:	1440cb16 	blt	r2,r17,1807478 <___vfprintf_internal_r+0x9d0>
 180714c:	d8814a17 	ldw	r2,1320(sp)
 1807150:	d9414517 	ldw	r5,1300(sp)
 1807154:	1140010e 	bge	r2,r5,180715c <___vfprintf_internal_r+0x6b4>
 1807158:	2805883a 	mov	r2,r5
 180715c:	d9814b17 	ldw	r6,1324(sp)
 1807160:	308d883a 	add	r6,r6,r2
 1807164:	d9814b15 	stw	r6,1324(sp)
 1807168:	90013b1e 	bne	r18,zero,1807658 <___vfprintf_internal_r+0xbb0>
 180716c:	d9c14017 	ldw	r7,1280(sp)
 1807170:	dd401904 	addi	r21,sp,100
 1807174:	d8000d15 	stw	zero,52(sp)
 1807178:	003ea706 	br	1806c18 <___vfprintf_internal_r+0x170>
 180717c:	d8800e17 	ldw	r2,56(sp)
 1807180:	10053f1e 	bne	r2,zero,1808680 <___vfprintf_internal_r+0x1bd8>
 1807184:	d8000d15 	stw	zero,52(sp)
 1807188:	b080030b 	ldhu	r2,12(r22)
 180718c:	1080100c 	andi	r2,r2,64
 1807190:	103e8726 	beq	r2,zero,1806bb0 <___vfprintf_internal_r+0x108>
 1807194:	00bfffc4 	movi	r2,-1
 1807198:	d8814b15 	stw	r2,1324(sp)
 180719c:	003e8406 	br	1806bb0 <___vfprintf_internal_r+0x108>
 18071a0:	d9814d17 	ldw	r6,1332(sp)
 18071a4:	00801944 	movi	r2,101
 18071a8:	11806e16 	blt	r2,r6,1807364 <___vfprintf_internal_r+0x8bc>
 18071ac:	d9414717 	ldw	r5,1308(sp)
 18071b0:	00c00044 	movi	r3,1
 18071b4:	1943430e 	bge	r3,r5,1807ec4 <___vfprintf_internal_r+0x141c>
 18071b8:	d8814117 	ldw	r2,1284(sp)
 18071bc:	94800044 	addi	r18,r18,1
 18071c0:	8c400044 	addi	r17,r17,1
 18071c4:	a8800015 	stw	r2,0(r21)
 18071c8:	008001c4 	movi	r2,7
 18071cc:	a8c00115 	stw	r3,4(r21)
 18071d0:	dc800e15 	stw	r18,56(sp)
 18071d4:	dc400d15 	stw	r17,52(sp)
 18071d8:	1441ca16 	blt	r2,r17,1807904 <___vfprintf_internal_r+0xe5c>
 18071dc:	a8c00204 	addi	r3,r21,8
 18071e0:	d9014917 	ldw	r4,1316(sp)
 18071e4:	00800044 	movi	r2,1
 18071e8:	94800044 	addi	r18,r18,1
 18071ec:	8c400044 	addi	r17,r17,1
 18071f0:	18800115 	stw	r2,4(r3)
 18071f4:	008001c4 	movi	r2,7
 18071f8:	19000015 	stw	r4,0(r3)
 18071fc:	dc800e15 	stw	r18,56(sp)
 1807200:	dc400d15 	stw	r17,52(sp)
 1807204:	1441b616 	blt	r2,r17,18078e0 <___vfprintf_internal_r+0xe38>
 1807208:	1cc00204 	addi	r19,r3,8
 180720c:	d9014217 	ldw	r4,1288(sp)
 1807210:	d9414317 	ldw	r5,1292(sp)
 1807214:	000d883a 	mov	r6,zero
 1807218:	000f883a 	mov	r7,zero
 180721c:	180e6f40 	call	180e6f4 <__nedf2>
 1807220:	10017426 	beq	r2,zero,18077f4 <___vfprintf_internal_r+0xd4c>
 1807224:	d9414717 	ldw	r5,1308(sp)
 1807228:	d9814117 	ldw	r6,1284(sp)
 180722c:	8c400044 	addi	r17,r17,1
 1807230:	2c85883a 	add	r2,r5,r18
 1807234:	14bfffc4 	addi	r18,r2,-1
 1807238:	28bfffc4 	addi	r2,r5,-1
 180723c:	30c00044 	addi	r3,r6,1
 1807240:	98800115 	stw	r2,4(r19)
 1807244:	008001c4 	movi	r2,7
 1807248:	98c00015 	stw	r3,0(r19)
 180724c:	dc800e15 	stw	r18,56(sp)
 1807250:	dc400d15 	stw	r17,52(sp)
 1807254:	14418e16 	blt	r2,r17,1807890 <___vfprintf_internal_r+0xde8>
 1807258:	9cc00204 	addi	r19,r19,8
 180725c:	d9414817 	ldw	r5,1312(sp)
 1807260:	d8800804 	addi	r2,sp,32
 1807264:	8c400044 	addi	r17,r17,1
 1807268:	9165883a 	add	r18,r18,r5
 180726c:	98800015 	stw	r2,0(r19)
 1807270:	008001c4 	movi	r2,7
 1807274:	99400115 	stw	r5,4(r19)
 1807278:	dc800e15 	stw	r18,56(sp)
 180727c:	dc400d15 	stw	r17,52(sp)
 1807280:	1440ed16 	blt	r2,r17,1807638 <___vfprintf_internal_r+0xb90>
 1807284:	98c00204 	addi	r3,r19,8
 1807288:	003f8506 	br	18070a0 <___vfprintf_internal_r+0x5f8>
 180728c:	d9814a17 	ldw	r6,1320(sp)
 1807290:	d8814517 	ldw	r2,1300(sp)
 1807294:	30a1c83a 	sub	r16,r6,r2
 1807298:	043f4b0e 	bge	zero,r16,1806fc8 <___vfprintf_internal_r+0x520>
 180729c:	00800404 	movi	r2,16
 18072a0:	1404340e 	bge	r2,r16,1808374 <___vfprintf_internal_r+0x18cc>
 18072a4:	1027883a 	mov	r19,r2
 18072a8:	07006074 	movhi	fp,385
 18072ac:	e7167184 	addi	fp,fp,22982
 18072b0:	050001c4 	movi	r20,7
 18072b4:	00000306 	br	18072c4 <___vfprintf_internal_r+0x81c>
 18072b8:	843ffc04 	addi	r16,r16,-16
 18072bc:	ad400204 	addi	r21,r21,8
 18072c0:	9c00130e 	bge	r19,r16,1807310 <___vfprintf_internal_r+0x868>
 18072c4:	94800404 	addi	r18,r18,16
 18072c8:	8c400044 	addi	r17,r17,1
 18072cc:	af000015 	stw	fp,0(r21)
 18072d0:	acc00115 	stw	r19,4(r21)
 18072d4:	dc800e15 	stw	r18,56(sp)
 18072d8:	dc400d15 	stw	r17,52(sp)
 18072dc:	a47ff60e 	bge	r20,r17,18072b8 <___vfprintf_internal_r+0x810>
 18072e0:	d9014f17 	ldw	r4,1340(sp)
 18072e4:	b00b883a 	mov	r5,r22
 18072e8:	d9800c04 	addi	r6,sp,48
 18072ec:	d9c15115 	stw	r7,1348(sp)
 18072f0:	1806a500 	call	1806a50 <__sprint_r>
 18072f4:	d9c15117 	ldw	r7,1348(sp)
 18072f8:	103fa31e 	bne	r2,zero,1807188 <___vfprintf_internal_r+0x6e0>
 18072fc:	843ffc04 	addi	r16,r16,-16
 1807300:	dc800e17 	ldw	r18,56(sp)
 1807304:	dc400d17 	ldw	r17,52(sp)
 1807308:	dd401904 	addi	r21,sp,100
 180730c:	9c3fed16 	blt	r19,r16,18072c4 <___vfprintf_internal_r+0x81c>
 1807310:	9425883a 	add	r18,r18,r16
 1807314:	8c400044 	addi	r17,r17,1
 1807318:	008001c4 	movi	r2,7
 180731c:	af000015 	stw	fp,0(r21)
 1807320:	ac000115 	stw	r16,4(r21)
 1807324:	dc800e15 	stw	r18,56(sp)
 1807328:	dc400d15 	stw	r17,52(sp)
 180732c:	14416116 	blt	r2,r17,18078b4 <___vfprintf_internal_r+0xe0c>
 1807330:	ad400204 	addi	r21,r21,8
 1807334:	003f2406 	br	1806fc8 <___vfprintf_internal_r+0x520>
 1807338:	d9014f17 	ldw	r4,1340(sp)
 180733c:	180a5180 	call	180a518 <__sinit>
 1807340:	d9c15117 	ldw	r7,1348(sp)
 1807344:	003def06 	br	1806b04 <___vfprintf_internal_r+0x5c>
 1807348:	d9014f17 	ldw	r4,1340(sp)
 180734c:	b00b883a 	mov	r5,r22
 1807350:	d9c15115 	stw	r7,1348(sp)
 1807354:	18089780 	call	1808978 <__swsetup_r>
 1807358:	d9c15117 	ldw	r7,1348(sp)
 180735c:	103dee26 	beq	r2,zero,1806b18 <___vfprintf_internal_r+0x70>
 1807360:	003f8c06 	br	1807194 <___vfprintf_internal_r+0x6ec>
 1807364:	d9014217 	ldw	r4,1288(sp)
 1807368:	d9414317 	ldw	r5,1292(sp)
 180736c:	000d883a 	mov	r6,zero
 1807370:	000f883a 	mov	r7,zero
 1807374:	1805ac00 	call	1805ac0 <__eqdf2>
 1807378:	1000f21e 	bne	r2,zero,1807744 <___vfprintf_internal_r+0xc9c>
 180737c:	00806074 	movhi	r2,385
 1807380:	10967104 	addi	r2,r2,22980
 1807384:	94800044 	addi	r18,r18,1
 1807388:	8c400044 	addi	r17,r17,1
 180738c:	a8800015 	stw	r2,0(r21)
 1807390:	00c00044 	movi	r3,1
 1807394:	008001c4 	movi	r2,7
 1807398:	a8c00115 	stw	r3,4(r21)
 180739c:	dc800e15 	stw	r18,56(sp)
 18073a0:	dc400d15 	stw	r17,52(sp)
 18073a4:	1442fa16 	blt	r2,r17,1807f90 <___vfprintf_internal_r+0x14e8>
 18073a8:	a8c00204 	addi	r3,r21,8
 18073ac:	d8800517 	ldw	r2,20(sp)
 18073b0:	d9014717 	ldw	r4,1308(sp)
 18073b4:	11015c0e 	bge	r2,r4,1807928 <___vfprintf_internal_r+0xe80>
 18073b8:	dc400d17 	ldw	r17,52(sp)
 18073bc:	d9814917 	ldw	r6,1316(sp)
 18073c0:	00800044 	movi	r2,1
 18073c4:	94800044 	addi	r18,r18,1
 18073c8:	8c400044 	addi	r17,r17,1
 18073cc:	18800115 	stw	r2,4(r3)
 18073d0:	008001c4 	movi	r2,7
 18073d4:	19800015 	stw	r6,0(r3)
 18073d8:	dc800e15 	stw	r18,56(sp)
 18073dc:	dc400d15 	stw	r17,52(sp)
 18073e0:	14431016 	blt	r2,r17,1808024 <___vfprintf_internal_r+0x157c>
 18073e4:	18c00204 	addi	r3,r3,8
 18073e8:	d8814717 	ldw	r2,1308(sp)
 18073ec:	143fffc4 	addi	r16,r2,-1
 18073f0:	043f2b0e 	bge	zero,r16,18070a0 <___vfprintf_internal_r+0x5f8>
 18073f4:	00800404 	movi	r2,16
 18073f8:	1402a20e 	bge	r2,r16,1807e84 <___vfprintf_internal_r+0x13dc>
 18073fc:	dc400d17 	ldw	r17,52(sp)
 1807400:	1027883a 	mov	r19,r2
 1807404:	07006074 	movhi	fp,385
 1807408:	e7167184 	addi	fp,fp,22982
 180740c:	050001c4 	movi	r20,7
 1807410:	00000306 	br	1807420 <___vfprintf_internal_r+0x978>
 1807414:	18c00204 	addi	r3,r3,8
 1807418:	843ffc04 	addi	r16,r16,-16
 180741c:	9c029c0e 	bge	r19,r16,1807e90 <___vfprintf_internal_r+0x13e8>
 1807420:	94800404 	addi	r18,r18,16
 1807424:	8c400044 	addi	r17,r17,1
 1807428:	1f000015 	stw	fp,0(r3)
 180742c:	1cc00115 	stw	r19,4(r3)
 1807430:	dc800e15 	stw	r18,56(sp)
 1807434:	dc400d15 	stw	r17,52(sp)
 1807438:	a47ff60e 	bge	r20,r17,1807414 <___vfprintf_internal_r+0x96c>
 180743c:	d9014f17 	ldw	r4,1340(sp)
 1807440:	b00b883a 	mov	r5,r22
 1807444:	d9800c04 	addi	r6,sp,48
 1807448:	1806a500 	call	1806a50 <__sprint_r>
 180744c:	103f4e1e 	bne	r2,zero,1807188 <___vfprintf_internal_r+0x6e0>
 1807450:	dc800e17 	ldw	r18,56(sp)
 1807454:	dc400d17 	ldw	r17,52(sp)
 1807458:	d8c01904 	addi	r3,sp,100
 180745c:	003fee06 	br	1807418 <___vfprintf_internal_r+0x970>
 1807460:	d8802c0b 	ldhu	r2,176(sp)
 1807464:	00ffffc4 	movi	r3,-1
 1807468:	d8c14b15 	stw	r3,1324(sp)
 180746c:	1080100c 	andi	r2,r2,64
 1807470:	103dcc1e 	bne	r2,zero,1806ba4 <___vfprintf_internal_r+0xfc>
 1807474:	003dce06 	br	1806bb0 <___vfprintf_internal_r+0x108>
 1807478:	d9014f17 	ldw	r4,1340(sp)
 180747c:	b00b883a 	mov	r5,r22
 1807480:	d9800c04 	addi	r6,sp,48
 1807484:	1806a500 	call	1806a50 <__sprint_r>
 1807488:	103f3f1e 	bne	r2,zero,1807188 <___vfprintf_internal_r+0x6e0>
 180748c:	dc800e17 	ldw	r18,56(sp)
 1807490:	003f2e06 	br	180714c <___vfprintf_internal_r+0x6a4>
 1807494:	d9414c17 	ldw	r5,1328(sp)
 1807498:	29400414 	ori	r5,r5,16
 180749c:	d9414c15 	stw	r5,1328(sp)
 18074a0:	d9814c17 	ldw	r6,1328(sp)
 18074a4:	3080080c 	andi	r2,r6,32
 18074a8:	10014f1e 	bne	r2,zero,18079e8 <___vfprintf_internal_r+0xf40>
 18074ac:	d8c14c17 	ldw	r3,1328(sp)
 18074b0:	1880040c 	andi	r2,r3,16
 18074b4:	1002ea1e 	bne	r2,zero,1808060 <___vfprintf_internal_r+0x15b8>
 18074b8:	d9014c17 	ldw	r4,1328(sp)
 18074bc:	2080100c 	andi	r2,r4,64
 18074c0:	1002e726 	beq	r2,zero,1808060 <___vfprintf_internal_r+0x15b8>
 18074c4:	3880000f 	ldh	r2,0(r7)
 18074c8:	39c00104 	addi	r7,r7,4
 18074cc:	d9c14015 	stw	r7,1280(sp)
 18074d0:	1023d7fa 	srai	r17,r2,31
 18074d4:	1021883a 	mov	r16,r2
 18074d8:	88037216 	blt	r17,zero,18082a4 <___vfprintf_internal_r+0x17fc>
 18074dc:	01000044 	movi	r4,1
 18074e0:	98000416 	blt	r19,zero,18074f4 <___vfprintf_internal_r+0xa4c>
 18074e4:	d8c14c17 	ldw	r3,1328(sp)
 18074e8:	00bfdfc4 	movi	r2,-129
 18074ec:	1886703a 	and	r3,r3,r2
 18074f0:	d8c14c15 	stw	r3,1328(sp)
 18074f4:	8444b03a 	or	r2,r16,r17
 18074f8:	1002261e 	bne	r2,zero,1807d94 <___vfprintf_internal_r+0x12ec>
 18074fc:	9802251e 	bne	r19,zero,1807d94 <___vfprintf_internal_r+0x12ec>
 1807500:	20803fcc 	andi	r2,r4,255
 1807504:	10029b26 	beq	r2,zero,1807f74 <___vfprintf_internal_r+0x14cc>
 1807508:	d8c01904 	addi	r3,sp,100
 180750c:	dd000f04 	addi	r20,sp,60
 1807510:	d8c14115 	stw	r3,1284(sp)
 1807514:	d8c14117 	ldw	r3,1284(sp)
 1807518:	dcc14515 	stw	r19,1300(sp)
 180751c:	a0c5c83a 	sub	r2,r20,r3
 1807520:	11c00a04 	addi	r7,r2,40
 1807524:	99c0010e 	bge	r19,r7,180752c <___vfprintf_internal_r+0xa84>
 1807528:	d9c14515 	stw	r7,1300(sp)
 180752c:	dcc14615 	stw	r19,1304(sp)
 1807530:	d8800407 	ldb	r2,16(sp)
 1807534:	103e4c26 	beq	r2,zero,1806e68 <___vfprintf_internal_r+0x3c0>
 1807538:	d8814517 	ldw	r2,1300(sp)
 180753c:	10800044 	addi	r2,r2,1
 1807540:	d8814515 	stw	r2,1300(sp)
 1807544:	003e4806 	br	1806e68 <___vfprintf_internal_r+0x3c0>
 1807548:	d9814c17 	ldw	r6,1328(sp)
 180754c:	31800414 	ori	r6,r6,16
 1807550:	d9814c15 	stw	r6,1328(sp)
 1807554:	d8c14c17 	ldw	r3,1328(sp)
 1807558:	1880080c 	andi	r2,r3,32
 180755c:	1001271e 	bne	r2,zero,18079fc <___vfprintf_internal_r+0xf54>
 1807560:	d9414c17 	ldw	r5,1328(sp)
 1807564:	2880040c 	andi	r2,r5,16
 1807568:	1002b61e 	bne	r2,zero,1808044 <___vfprintf_internal_r+0x159c>
 180756c:	d9814c17 	ldw	r6,1328(sp)
 1807570:	3080100c 	andi	r2,r6,64
 1807574:	1002b326 	beq	r2,zero,1808044 <___vfprintf_internal_r+0x159c>
 1807578:	3c00000b 	ldhu	r16,0(r7)
 180757c:	0009883a 	mov	r4,zero
 1807580:	39c00104 	addi	r7,r7,4
 1807584:	0023883a 	mov	r17,zero
 1807588:	d9c14015 	stw	r7,1280(sp)
 180758c:	d8000405 	stb	zero,16(sp)
 1807590:	003fd306 	br	18074e0 <___vfprintf_internal_r+0xa38>
 1807594:	d9014c17 	ldw	r4,1328(sp)
 1807598:	21000414 	ori	r4,r4,16
 180759c:	d9014c15 	stw	r4,1328(sp)
 18075a0:	d9414c17 	ldw	r5,1328(sp)
 18075a4:	2880080c 	andi	r2,r5,32
 18075a8:	1001081e 	bne	r2,zero,18079cc <___vfprintf_internal_r+0xf24>
 18075ac:	d8c14c17 	ldw	r3,1328(sp)
 18075b0:	1880040c 	andi	r2,r3,16
 18075b4:	1002b01e 	bne	r2,zero,1808078 <___vfprintf_internal_r+0x15d0>
 18075b8:	d9014c17 	ldw	r4,1328(sp)
 18075bc:	2080100c 	andi	r2,r4,64
 18075c0:	1002ad26 	beq	r2,zero,1808078 <___vfprintf_internal_r+0x15d0>
 18075c4:	3c00000b 	ldhu	r16,0(r7)
 18075c8:	01000044 	movi	r4,1
 18075cc:	39c00104 	addi	r7,r7,4
 18075d0:	0023883a 	mov	r17,zero
 18075d4:	d9c14015 	stw	r7,1280(sp)
 18075d8:	d8000405 	stb	zero,16(sp)
 18075dc:	003fc006 	br	18074e0 <___vfprintf_internal_r+0xa38>
 18075e0:	d9014f17 	ldw	r4,1340(sp)
 18075e4:	b00b883a 	mov	r5,r22
 18075e8:	d9800c04 	addi	r6,sp,48
 18075ec:	1806a500 	call	1806a50 <__sprint_r>
 18075f0:	103ee51e 	bne	r2,zero,1807188 <___vfprintf_internal_r+0x6e0>
 18075f4:	dc800e17 	ldw	r18,56(sp)
 18075f8:	d8c01904 	addi	r3,sp,100
 18075fc:	d9814c17 	ldw	r6,1328(sp)
 1807600:	3080004c 	andi	r2,r6,1
 1807604:	1005003a 	cmpeq	r2,r2,zero
 1807608:	103ea51e 	bne	r2,zero,18070a0 <___vfprintf_internal_r+0x5f8>
 180760c:	00800044 	movi	r2,1
 1807610:	dc400d17 	ldw	r17,52(sp)
 1807614:	18800115 	stw	r2,4(r3)
 1807618:	d8814917 	ldw	r2,1316(sp)
 180761c:	94800044 	addi	r18,r18,1
 1807620:	8c400044 	addi	r17,r17,1
 1807624:	18800015 	stw	r2,0(r3)
 1807628:	008001c4 	movi	r2,7
 180762c:	dc800e15 	stw	r18,56(sp)
 1807630:	dc400d15 	stw	r17,52(sp)
 1807634:	14421e0e 	bge	r2,r17,1807eb0 <___vfprintf_internal_r+0x1408>
 1807638:	d9014f17 	ldw	r4,1340(sp)
 180763c:	b00b883a 	mov	r5,r22
 1807640:	d9800c04 	addi	r6,sp,48
 1807644:	1806a500 	call	1806a50 <__sprint_r>
 1807648:	103ecf1e 	bne	r2,zero,1807188 <___vfprintf_internal_r+0x6e0>
 180764c:	dc800e17 	ldw	r18,56(sp)
 1807650:	d8c01904 	addi	r3,sp,100
 1807654:	003e9206 	br	18070a0 <___vfprintf_internal_r+0x5f8>
 1807658:	d9014f17 	ldw	r4,1340(sp)
 180765c:	b00b883a 	mov	r5,r22
 1807660:	d9800c04 	addi	r6,sp,48
 1807664:	1806a500 	call	1806a50 <__sprint_r>
 1807668:	103ec026 	beq	r2,zero,180716c <___vfprintf_internal_r+0x6c4>
 180766c:	003ec606 	br	1807188 <___vfprintf_internal_r+0x6e0>
 1807670:	d9014f17 	ldw	r4,1340(sp)
 1807674:	b00b883a 	mov	r5,r22
 1807678:	d9800c04 	addi	r6,sp,48
 180767c:	d9c15115 	stw	r7,1348(sp)
 1807680:	1806a500 	call	1806a50 <__sprint_r>
 1807684:	d9c15117 	ldw	r7,1348(sp)
 1807688:	103ebf1e 	bne	r2,zero,1807188 <___vfprintf_internal_r+0x6e0>
 180768c:	dc800e17 	ldw	r18,56(sp)
 1807690:	dc400d17 	ldw	r17,52(sp)
 1807694:	dd401904 	addi	r21,sp,100
 1807698:	003e7406 	br	180706c <___vfprintf_internal_r+0x5c4>
 180769c:	d9014f17 	ldw	r4,1340(sp)
 18076a0:	b00b883a 	mov	r5,r22
 18076a4:	d9800c04 	addi	r6,sp,48
 18076a8:	d9c15115 	stw	r7,1348(sp)
 18076ac:	1806a500 	call	1806a50 <__sprint_r>
 18076b0:	d9c15117 	ldw	r7,1348(sp)
 18076b4:	103eb41e 	bne	r2,zero,1807188 <___vfprintf_internal_r+0x6e0>
 18076b8:	dd401904 	addi	r21,sp,100
 18076bc:	003d6d06 	br	1806c74 <___vfprintf_internal_r+0x1cc>
 18076c0:	d9014f17 	ldw	r4,1340(sp)
 18076c4:	b00b883a 	mov	r5,r22
 18076c8:	d9800c04 	addi	r6,sp,48
 18076cc:	d9c15115 	stw	r7,1348(sp)
 18076d0:	1806a500 	call	1806a50 <__sprint_r>
 18076d4:	d9c15117 	ldw	r7,1348(sp)
 18076d8:	103eab1e 	bne	r2,zero,1807188 <___vfprintf_internal_r+0x6e0>
 18076dc:	dc800e17 	ldw	r18,56(sp)
 18076e0:	dc400d17 	ldw	r17,52(sp)
 18076e4:	dd401904 	addi	r21,sp,100
 18076e8:	003e3406 	br	1806fbc <___vfprintf_internal_r+0x514>
 18076ec:	d9014f17 	ldw	r4,1340(sp)
 18076f0:	b00b883a 	mov	r5,r22
 18076f4:	d9800c04 	addi	r6,sp,48
 18076f8:	d9c15115 	stw	r7,1348(sp)
 18076fc:	1806a500 	call	1806a50 <__sprint_r>
 1807700:	d9c15117 	ldw	r7,1348(sp)
 1807704:	103ea01e 	bne	r2,zero,1807188 <___vfprintf_internal_r+0x6e0>
 1807708:	dc800e17 	ldw	r18,56(sp)
 180770c:	dc400d17 	ldw	r17,52(sp)
 1807710:	dd401904 	addi	r21,sp,100
 1807714:	003e1c06 	br	1806f88 <___vfprintf_internal_r+0x4e0>
 1807718:	d9014f17 	ldw	r4,1340(sp)
 180771c:	b00b883a 	mov	r5,r22
 1807720:	d9800c04 	addi	r6,sp,48
 1807724:	d9c15115 	stw	r7,1348(sp)
 1807728:	1806a500 	call	1806a50 <__sprint_r>
 180772c:	d9c15117 	ldw	r7,1348(sp)
 1807730:	103e951e 	bne	r2,zero,1807188 <___vfprintf_internal_r+0x6e0>
 1807734:	dc800e17 	ldw	r18,56(sp)
 1807738:	dc400d17 	ldw	r17,52(sp)
 180773c:	dd401904 	addi	r21,sp,100
 1807740:	003e0406 	br	1806f54 <___vfprintf_internal_r+0x4ac>
 1807744:	d9000517 	ldw	r4,20(sp)
 1807748:	0102520e 	bge	zero,r4,1808094 <___vfprintf_internal_r+0x15ec>
 180774c:	d9814717 	ldw	r6,1308(sp)
 1807750:	21807a16 	blt	r4,r6,180793c <___vfprintf_internal_r+0xe94>
 1807754:	d8814117 	ldw	r2,1284(sp)
 1807758:	91a5883a 	add	r18,r18,r6
 180775c:	8c400044 	addi	r17,r17,1
 1807760:	a8800015 	stw	r2,0(r21)
 1807764:	008001c4 	movi	r2,7
 1807768:	a9800115 	stw	r6,4(r21)
 180776c:	dc800e15 	stw	r18,56(sp)
 1807770:	dc400d15 	stw	r17,52(sp)
 1807774:	1442f616 	blt	r2,r17,1808350 <___vfprintf_internal_r+0x18a8>
 1807778:	a8c00204 	addi	r3,r21,8
 180777c:	d9414717 	ldw	r5,1308(sp)
 1807780:	2161c83a 	sub	r16,r4,r5
 1807784:	043f9d0e 	bge	zero,r16,18075fc <___vfprintf_internal_r+0xb54>
 1807788:	00800404 	movi	r2,16
 180778c:	1402130e 	bge	r2,r16,1807fdc <___vfprintf_internal_r+0x1534>
 1807790:	dc400d17 	ldw	r17,52(sp)
 1807794:	1027883a 	mov	r19,r2
 1807798:	07006074 	movhi	fp,385
 180779c:	e7167184 	addi	fp,fp,22982
 18077a0:	050001c4 	movi	r20,7
 18077a4:	00000306 	br	18077b4 <___vfprintf_internal_r+0xd0c>
 18077a8:	18c00204 	addi	r3,r3,8
 18077ac:	843ffc04 	addi	r16,r16,-16
 18077b0:	9c020d0e 	bge	r19,r16,1807fe8 <___vfprintf_internal_r+0x1540>
 18077b4:	94800404 	addi	r18,r18,16
 18077b8:	8c400044 	addi	r17,r17,1
 18077bc:	1f000015 	stw	fp,0(r3)
 18077c0:	1cc00115 	stw	r19,4(r3)
 18077c4:	dc800e15 	stw	r18,56(sp)
 18077c8:	dc400d15 	stw	r17,52(sp)
 18077cc:	a47ff60e 	bge	r20,r17,18077a8 <___vfprintf_internal_r+0xd00>
 18077d0:	d9014f17 	ldw	r4,1340(sp)
 18077d4:	b00b883a 	mov	r5,r22
 18077d8:	d9800c04 	addi	r6,sp,48
 18077dc:	1806a500 	call	1806a50 <__sprint_r>
 18077e0:	103e691e 	bne	r2,zero,1807188 <___vfprintf_internal_r+0x6e0>
 18077e4:	dc800e17 	ldw	r18,56(sp)
 18077e8:	dc400d17 	ldw	r17,52(sp)
 18077ec:	d8c01904 	addi	r3,sp,100
 18077f0:	003fee06 	br	18077ac <___vfprintf_internal_r+0xd04>
 18077f4:	d8814717 	ldw	r2,1308(sp)
 18077f8:	143fffc4 	addi	r16,r2,-1
 18077fc:	043e970e 	bge	zero,r16,180725c <___vfprintf_internal_r+0x7b4>
 1807800:	00800404 	movi	r2,16
 1807804:	1400180e 	bge	r2,r16,1807868 <___vfprintf_internal_r+0xdc0>
 1807808:	1029883a 	mov	r20,r2
 180780c:	07006074 	movhi	fp,385
 1807810:	e7167184 	addi	fp,fp,22982
 1807814:	054001c4 	movi	r21,7
 1807818:	00000306 	br	1807828 <___vfprintf_internal_r+0xd80>
 180781c:	9cc00204 	addi	r19,r19,8
 1807820:	843ffc04 	addi	r16,r16,-16
 1807824:	a400120e 	bge	r20,r16,1807870 <___vfprintf_internal_r+0xdc8>
 1807828:	94800404 	addi	r18,r18,16
 180782c:	8c400044 	addi	r17,r17,1
 1807830:	9f000015 	stw	fp,0(r19)
 1807834:	9d000115 	stw	r20,4(r19)
 1807838:	dc800e15 	stw	r18,56(sp)
 180783c:	dc400d15 	stw	r17,52(sp)
 1807840:	ac7ff60e 	bge	r21,r17,180781c <___vfprintf_internal_r+0xd74>
 1807844:	d9014f17 	ldw	r4,1340(sp)
 1807848:	b00b883a 	mov	r5,r22
 180784c:	d9800c04 	addi	r6,sp,48
 1807850:	1806a500 	call	1806a50 <__sprint_r>
 1807854:	103e4c1e 	bne	r2,zero,1807188 <___vfprintf_internal_r+0x6e0>
 1807858:	dc800e17 	ldw	r18,56(sp)
 180785c:	dc400d17 	ldw	r17,52(sp)
 1807860:	dcc01904 	addi	r19,sp,100
 1807864:	003fee06 	br	1807820 <___vfprintf_internal_r+0xd78>
 1807868:	07006074 	movhi	fp,385
 180786c:	e7167184 	addi	fp,fp,22982
 1807870:	9425883a 	add	r18,r18,r16
 1807874:	8c400044 	addi	r17,r17,1
 1807878:	008001c4 	movi	r2,7
 180787c:	9f000015 	stw	fp,0(r19)
 1807880:	9c000115 	stw	r16,4(r19)
 1807884:	dc800e15 	stw	r18,56(sp)
 1807888:	dc400d15 	stw	r17,52(sp)
 180788c:	147e720e 	bge	r2,r17,1807258 <___vfprintf_internal_r+0x7b0>
 1807890:	d9014f17 	ldw	r4,1340(sp)
 1807894:	b00b883a 	mov	r5,r22
 1807898:	d9800c04 	addi	r6,sp,48
 180789c:	1806a500 	call	1806a50 <__sprint_r>
 18078a0:	103e391e 	bne	r2,zero,1807188 <___vfprintf_internal_r+0x6e0>
 18078a4:	dc800e17 	ldw	r18,56(sp)
 18078a8:	dc400d17 	ldw	r17,52(sp)
 18078ac:	dcc01904 	addi	r19,sp,100
 18078b0:	003e6a06 	br	180725c <___vfprintf_internal_r+0x7b4>
 18078b4:	d9014f17 	ldw	r4,1340(sp)
 18078b8:	b00b883a 	mov	r5,r22
 18078bc:	d9800c04 	addi	r6,sp,48
 18078c0:	d9c15115 	stw	r7,1348(sp)
 18078c4:	1806a500 	call	1806a50 <__sprint_r>
 18078c8:	d9c15117 	ldw	r7,1348(sp)
 18078cc:	103e2e1e 	bne	r2,zero,1807188 <___vfprintf_internal_r+0x6e0>
 18078d0:	dc800e17 	ldw	r18,56(sp)
 18078d4:	dc400d17 	ldw	r17,52(sp)
 18078d8:	dd401904 	addi	r21,sp,100
 18078dc:	003dba06 	br	1806fc8 <___vfprintf_internal_r+0x520>
 18078e0:	d9014f17 	ldw	r4,1340(sp)
 18078e4:	b00b883a 	mov	r5,r22
 18078e8:	d9800c04 	addi	r6,sp,48
 18078ec:	1806a500 	call	1806a50 <__sprint_r>
 18078f0:	103e251e 	bne	r2,zero,1807188 <___vfprintf_internal_r+0x6e0>
 18078f4:	dc800e17 	ldw	r18,56(sp)
 18078f8:	dc400d17 	ldw	r17,52(sp)
 18078fc:	dcc01904 	addi	r19,sp,100
 1807900:	003e4206 	br	180720c <___vfprintf_internal_r+0x764>
 1807904:	d9014f17 	ldw	r4,1340(sp)
 1807908:	b00b883a 	mov	r5,r22
 180790c:	d9800c04 	addi	r6,sp,48
 1807910:	1806a500 	call	1806a50 <__sprint_r>
 1807914:	103e1c1e 	bne	r2,zero,1807188 <___vfprintf_internal_r+0x6e0>
 1807918:	dc800e17 	ldw	r18,56(sp)
 180791c:	dc400d17 	ldw	r17,52(sp)
 1807920:	d8c01904 	addi	r3,sp,100
 1807924:	003e2e06 	br	18071e0 <___vfprintf_internal_r+0x738>
 1807928:	d9414c17 	ldw	r5,1328(sp)
 180792c:	2880004c 	andi	r2,r5,1
 1807930:	1005003a 	cmpeq	r2,r2,zero
 1807934:	103dda1e 	bne	r2,zero,18070a0 <___vfprintf_internal_r+0x5f8>
 1807938:	003e9f06 	br	18073b8 <___vfprintf_internal_r+0x910>
 180793c:	d8c14117 	ldw	r3,1284(sp)
 1807940:	9125883a 	add	r18,r18,r4
 1807944:	8c400044 	addi	r17,r17,1
 1807948:	008001c4 	movi	r2,7
 180794c:	a8c00015 	stw	r3,0(r21)
 1807950:	a9000115 	stw	r4,4(r21)
 1807954:	dc800e15 	stw	r18,56(sp)
 1807958:	dc400d15 	stw	r17,52(sp)
 180795c:	14426616 	blt	r2,r17,18082f8 <___vfprintf_internal_r+0x1850>
 1807960:	a8c00204 	addi	r3,r21,8
 1807964:	d9414917 	ldw	r5,1316(sp)
 1807968:	00800044 	movi	r2,1
 180796c:	94800044 	addi	r18,r18,1
 1807970:	8c400044 	addi	r17,r17,1
 1807974:	18800115 	stw	r2,4(r3)
 1807978:	008001c4 	movi	r2,7
 180797c:	19400015 	stw	r5,0(r3)
 1807980:	dc800e15 	stw	r18,56(sp)
 1807984:	dc400d15 	stw	r17,52(sp)
 1807988:	2021883a 	mov	r16,r4
 180798c:	14425016 	blt	r2,r17,18082d0 <___vfprintf_internal_r+0x1828>
 1807990:	19400204 	addi	r5,r3,8
 1807994:	d9814717 	ldw	r6,1308(sp)
 1807998:	8c400044 	addi	r17,r17,1
 180799c:	dc400d15 	stw	r17,52(sp)
 18079a0:	3107c83a 	sub	r3,r6,r4
 18079a4:	d9014117 	ldw	r4,1284(sp)
 18079a8:	90e5883a 	add	r18,r18,r3
 18079ac:	28c00115 	stw	r3,4(r5)
 18079b0:	8105883a 	add	r2,r16,r4
 18079b4:	28800015 	stw	r2,0(r5)
 18079b8:	008001c4 	movi	r2,7
 18079bc:	dc800e15 	stw	r18,56(sp)
 18079c0:	147f1d16 	blt	r2,r17,1807638 <___vfprintf_internal_r+0xb90>
 18079c4:	28c00204 	addi	r3,r5,8
 18079c8:	003db506 	br	18070a0 <___vfprintf_internal_r+0x5f8>
 18079cc:	3c000017 	ldw	r16,0(r7)
 18079d0:	3c400117 	ldw	r17,4(r7)
 18079d4:	39800204 	addi	r6,r7,8
 18079d8:	01000044 	movi	r4,1
 18079dc:	d9814015 	stw	r6,1280(sp)
 18079e0:	d8000405 	stb	zero,16(sp)
 18079e4:	003ebe06 	br	18074e0 <___vfprintf_internal_r+0xa38>
 18079e8:	3c000017 	ldw	r16,0(r7)
 18079ec:	3c400117 	ldw	r17,4(r7)
 18079f0:	38800204 	addi	r2,r7,8
 18079f4:	d8814015 	stw	r2,1280(sp)
 18079f8:	003eb706 	br	18074d8 <___vfprintf_internal_r+0xa30>
 18079fc:	3c000017 	ldw	r16,0(r7)
 1807a00:	3c400117 	ldw	r17,4(r7)
 1807a04:	39000204 	addi	r4,r7,8
 1807a08:	d9014015 	stw	r4,1280(sp)
 1807a0c:	0009883a 	mov	r4,zero
 1807a10:	d8000405 	stb	zero,16(sp)
 1807a14:	003eb206 	br	18074e0 <___vfprintf_internal_r+0xa38>
 1807a18:	38c00017 	ldw	r3,0(r7)
 1807a1c:	39c00104 	addi	r7,r7,4
 1807a20:	d8c14a15 	stw	r3,1320(sp)
 1807a24:	1800d10e 	bge	r3,zero,1807d6c <___vfprintf_internal_r+0x12c4>
 1807a28:	00c7c83a 	sub	r3,zero,r3
 1807a2c:	d8c14a15 	stw	r3,1320(sp)
 1807a30:	d9014c17 	ldw	r4,1328(sp)
 1807a34:	b8c00007 	ldb	r3,0(r23)
 1807a38:	21000114 	ori	r4,r4,4
 1807a3c:	d9014c15 	stw	r4,1328(sp)
 1807a40:	003c9806 	br	1806ca4 <___vfprintf_internal_r+0x1fc>
 1807a44:	d9814c17 	ldw	r6,1328(sp)
 1807a48:	3080080c 	andi	r2,r6,32
 1807a4c:	1001f026 	beq	r2,zero,1808210 <___vfprintf_internal_r+0x1768>
 1807a50:	d9014b17 	ldw	r4,1324(sp)
 1807a54:	38800017 	ldw	r2,0(r7)
 1807a58:	39c00104 	addi	r7,r7,4
 1807a5c:	d9c14015 	stw	r7,1280(sp)
 1807a60:	2007d7fa 	srai	r3,r4,31
 1807a64:	d9c14017 	ldw	r7,1280(sp)
 1807a68:	11000015 	stw	r4,0(r2)
 1807a6c:	10c00115 	stw	r3,4(r2)
 1807a70:	003c6906 	br	1806c18 <___vfprintf_internal_r+0x170>
 1807a74:	b8c00007 	ldb	r3,0(r23)
 1807a78:	00801b04 	movi	r2,108
 1807a7c:	18824f26 	beq	r3,r2,18083bc <___vfprintf_internal_r+0x1914>
 1807a80:	d9414c17 	ldw	r5,1328(sp)
 1807a84:	29400414 	ori	r5,r5,16
 1807a88:	d9414c15 	stw	r5,1328(sp)
 1807a8c:	003c8506 	br	1806ca4 <___vfprintf_internal_r+0x1fc>
 1807a90:	d9814c17 	ldw	r6,1328(sp)
 1807a94:	b8c00007 	ldb	r3,0(r23)
 1807a98:	31800814 	ori	r6,r6,32
 1807a9c:	d9814c15 	stw	r6,1328(sp)
 1807aa0:	003c8006 	br	1806ca4 <___vfprintf_internal_r+0x1fc>
 1807aa4:	d8814c17 	ldw	r2,1328(sp)
 1807aa8:	3c000017 	ldw	r16,0(r7)
 1807aac:	00c01e04 	movi	r3,120
 1807ab0:	10800094 	ori	r2,r2,2
 1807ab4:	d8814c15 	stw	r2,1328(sp)
 1807ab8:	39c00104 	addi	r7,r7,4
 1807abc:	01406074 	movhi	r5,385
 1807ac0:	29565a04 	addi	r5,r5,22888
 1807ac4:	00800c04 	movi	r2,48
 1807ac8:	0023883a 	mov	r17,zero
 1807acc:	01000084 	movi	r4,2
 1807ad0:	d9c14015 	stw	r7,1280(sp)
 1807ad4:	d8c14d15 	stw	r3,1332(sp)
 1807ad8:	d9414415 	stw	r5,1296(sp)
 1807adc:	d8800445 	stb	r2,17(sp)
 1807ae0:	d8c00485 	stb	r3,18(sp)
 1807ae4:	d8000405 	stb	zero,16(sp)
 1807ae8:	003e7d06 	br	18074e0 <___vfprintf_internal_r+0xa38>
 1807aec:	d8814c17 	ldw	r2,1328(sp)
 1807af0:	b8c00007 	ldb	r3,0(r23)
 1807af4:	10801014 	ori	r2,r2,64
 1807af8:	d8814c15 	stw	r2,1328(sp)
 1807afc:	003c6906 	br	1806ca4 <___vfprintf_internal_r+0x1fc>
 1807b00:	d9414c17 	ldw	r5,1328(sp)
 1807b04:	2880020c 	andi	r2,r5,8
 1807b08:	1001df26 	beq	r2,zero,1808288 <___vfprintf_internal_r+0x17e0>
 1807b0c:	39800017 	ldw	r6,0(r7)
 1807b10:	38800204 	addi	r2,r7,8
 1807b14:	d8814015 	stw	r2,1280(sp)
 1807b18:	d9814215 	stw	r6,1288(sp)
 1807b1c:	39c00117 	ldw	r7,4(r7)
 1807b20:	d9c14315 	stw	r7,1292(sp)
 1807b24:	d9014217 	ldw	r4,1288(sp)
 1807b28:	d9414317 	ldw	r5,1292(sp)
 1807b2c:	180d3a80 	call	180d3a8 <__isinfd>
 1807b30:	10021726 	beq	r2,zero,1808390 <___vfprintf_internal_r+0x18e8>
 1807b34:	d9014217 	ldw	r4,1288(sp)
 1807b38:	d9414317 	ldw	r5,1292(sp)
 1807b3c:	000d883a 	mov	r6,zero
 1807b40:	000f883a 	mov	r7,zero
 1807b44:	1805c580 	call	1805c58 <__ltdf2>
 1807b48:	1002ca16 	blt	r2,zero,1808674 <___vfprintf_internal_r+0x1bcc>
 1807b4c:	d9414d17 	ldw	r5,1332(sp)
 1807b50:	008011c4 	movi	r2,71
 1807b54:	11420a16 	blt	r2,r5,1808380 <___vfprintf_internal_r+0x18d8>
 1807b58:	01806074 	movhi	r6,385
 1807b5c:	31965f04 	addi	r6,r6,22908
 1807b60:	d9814115 	stw	r6,1284(sp)
 1807b64:	d9014c17 	ldw	r4,1328(sp)
 1807b68:	00c000c4 	movi	r3,3
 1807b6c:	00bfdfc4 	movi	r2,-129
 1807b70:	2088703a 	and	r4,r4,r2
 1807b74:	180f883a 	mov	r7,r3
 1807b78:	d8c14515 	stw	r3,1300(sp)
 1807b7c:	d9014c15 	stw	r4,1328(sp)
 1807b80:	d8014615 	stw	zero,1304(sp)
 1807b84:	003e6a06 	br	1807530 <___vfprintf_internal_r+0xa88>
 1807b88:	38800017 	ldw	r2,0(r7)
 1807b8c:	00c00044 	movi	r3,1
 1807b90:	39c00104 	addi	r7,r7,4
 1807b94:	d9c14015 	stw	r7,1280(sp)
 1807b98:	d9000f04 	addi	r4,sp,60
 1807b9c:	180f883a 	mov	r7,r3
 1807ba0:	d8c14515 	stw	r3,1300(sp)
 1807ba4:	d9014115 	stw	r4,1284(sp)
 1807ba8:	d8800f05 	stb	r2,60(sp)
 1807bac:	d8000405 	stb	zero,16(sp)
 1807bb0:	003cac06 	br	1806e64 <___vfprintf_internal_r+0x3bc>
 1807bb4:	01406074 	movhi	r5,385
 1807bb8:	29566504 	addi	r5,r5,22932
 1807bbc:	d9414415 	stw	r5,1296(sp)
 1807bc0:	d9814c17 	ldw	r6,1328(sp)
 1807bc4:	3080080c 	andi	r2,r6,32
 1807bc8:	1000f926 	beq	r2,zero,1807fb0 <___vfprintf_internal_r+0x1508>
 1807bcc:	3c000017 	ldw	r16,0(r7)
 1807bd0:	3c400117 	ldw	r17,4(r7)
 1807bd4:	38800204 	addi	r2,r7,8
 1807bd8:	d8814015 	stw	r2,1280(sp)
 1807bdc:	d9414c17 	ldw	r5,1328(sp)
 1807be0:	2880004c 	andi	r2,r5,1
 1807be4:	1005003a 	cmpeq	r2,r2,zero
 1807be8:	1000b31e 	bne	r2,zero,1807eb8 <___vfprintf_internal_r+0x1410>
 1807bec:	8444b03a 	or	r2,r16,r17
 1807bf0:	1000b126 	beq	r2,zero,1807eb8 <___vfprintf_internal_r+0x1410>
 1807bf4:	d9814d17 	ldw	r6,1332(sp)
 1807bf8:	29400094 	ori	r5,r5,2
 1807bfc:	00800c04 	movi	r2,48
 1807c00:	01000084 	movi	r4,2
 1807c04:	d9414c15 	stw	r5,1328(sp)
 1807c08:	d8800445 	stb	r2,17(sp)
 1807c0c:	d9800485 	stb	r6,18(sp)
 1807c10:	d8000405 	stb	zero,16(sp)
 1807c14:	003e3206 	br	18074e0 <___vfprintf_internal_r+0xa38>
 1807c18:	01806074 	movhi	r6,385
 1807c1c:	31965a04 	addi	r6,r6,22888
 1807c20:	d9814415 	stw	r6,1296(sp)
 1807c24:	003fe606 	br	1807bc0 <___vfprintf_internal_r+0x1118>
 1807c28:	00800ac4 	movi	r2,43
 1807c2c:	d8800405 	stb	r2,16(sp)
 1807c30:	b8c00007 	ldb	r3,0(r23)
 1807c34:	003c1b06 	br	1806ca4 <___vfprintf_internal_r+0x1fc>
 1807c38:	d8814c17 	ldw	r2,1328(sp)
 1807c3c:	b8c00007 	ldb	r3,0(r23)
 1807c40:	10800054 	ori	r2,r2,1
 1807c44:	d8814c15 	stw	r2,1328(sp)
 1807c48:	003c1606 	br	1806ca4 <___vfprintf_internal_r+0x1fc>
 1807c4c:	d8800407 	ldb	r2,16(sp)
 1807c50:	1000461e 	bne	r2,zero,1807d6c <___vfprintf_internal_r+0x12c4>
 1807c54:	00800804 	movi	r2,32
 1807c58:	d8800405 	stb	r2,16(sp)
 1807c5c:	b8c00007 	ldb	r3,0(r23)
 1807c60:	003c1006 	br	1806ca4 <___vfprintf_internal_r+0x1fc>
 1807c64:	d9814c17 	ldw	r6,1328(sp)
 1807c68:	b8c00007 	ldb	r3,0(r23)
 1807c6c:	31800214 	ori	r6,r6,8
 1807c70:	d9814c15 	stw	r6,1328(sp)
 1807c74:	003c0b06 	br	1806ca4 <___vfprintf_internal_r+0x1fc>
 1807c78:	0007883a 	mov	r3,zero
 1807c7c:	01000244 	movi	r4,9
 1807c80:	188002a4 	muli	r2,r3,10
 1807c84:	b8c00007 	ldb	r3,0(r23)
 1807c88:	d9814d17 	ldw	r6,1332(sp)
 1807c8c:	bdc00044 	addi	r23,r23,1
 1807c90:	d8c14d15 	stw	r3,1332(sp)
 1807c94:	d9414d17 	ldw	r5,1332(sp)
 1807c98:	3085883a 	add	r2,r6,r2
 1807c9c:	10fff404 	addi	r3,r2,-48
 1807ca0:	28bff404 	addi	r2,r5,-48
 1807ca4:	20bff62e 	bgeu	r4,r2,1807c80 <___vfprintf_internal_r+0x11d8>
 1807ca8:	d8c14a15 	stw	r3,1320(sp)
 1807cac:	003bff06 	br	1806cac <___vfprintf_internal_r+0x204>
 1807cb0:	d9414c17 	ldw	r5,1328(sp)
 1807cb4:	b8c00007 	ldb	r3,0(r23)
 1807cb8:	29402014 	ori	r5,r5,128
 1807cbc:	d9414c15 	stw	r5,1328(sp)
 1807cc0:	003bf806 	br	1806ca4 <___vfprintf_internal_r+0x1fc>
 1807cc4:	b8c00007 	ldb	r3,0(r23)
 1807cc8:	00800a84 	movi	r2,42
 1807ccc:	bdc00044 	addi	r23,r23,1
 1807cd0:	18831526 	beq	r3,r2,1808928 <___vfprintf_internal_r+0x1e80>
 1807cd4:	d8c14d15 	stw	r3,1332(sp)
 1807cd8:	18bff404 	addi	r2,r3,-48
 1807cdc:	00c00244 	movi	r3,9
 1807ce0:	18827836 	bltu	r3,r2,18086c4 <___vfprintf_internal_r+0x1c1c>
 1807ce4:	000d883a 	mov	r6,zero
 1807ce8:	308002a4 	muli	r2,r6,10
 1807cec:	b9800007 	ldb	r6,0(r23)
 1807cf0:	d9414d17 	ldw	r5,1332(sp)
 1807cf4:	bdc00044 	addi	r23,r23,1
 1807cf8:	d9814d15 	stw	r6,1332(sp)
 1807cfc:	d9014d17 	ldw	r4,1332(sp)
 1807d00:	1145883a 	add	r2,r2,r5
 1807d04:	11bff404 	addi	r6,r2,-48
 1807d08:	20bff404 	addi	r2,r4,-48
 1807d0c:	18bff62e 	bgeu	r3,r2,1807ce8 <___vfprintf_internal_r+0x1240>
 1807d10:	3027883a 	mov	r19,r6
 1807d14:	303be50e 	bge	r6,zero,1806cac <___vfprintf_internal_r+0x204>
 1807d18:	04ffffc4 	movi	r19,-1
 1807d1c:	003be306 	br	1806cac <___vfprintf_internal_r+0x204>
 1807d20:	d8000405 	stb	zero,16(sp)
 1807d24:	39800017 	ldw	r6,0(r7)
 1807d28:	39c00104 	addi	r7,r7,4
 1807d2c:	d9c14015 	stw	r7,1280(sp)
 1807d30:	d9814115 	stw	r6,1284(sp)
 1807d34:	3001c926 	beq	r6,zero,180845c <___vfprintf_internal_r+0x19b4>
 1807d38:	98000e16 	blt	r19,zero,1807d74 <___vfprintf_internal_r+0x12cc>
 1807d3c:	d9014117 	ldw	r4,1284(sp)
 1807d40:	000b883a 	mov	r5,zero
 1807d44:	980d883a 	mov	r6,r19
 1807d48:	180bb640 	call	180bb64 <memchr>
 1807d4c:	10025926 	beq	r2,zero,18086b4 <___vfprintf_internal_r+0x1c0c>
 1807d50:	d8c14117 	ldw	r3,1284(sp)
 1807d54:	10cfc83a 	sub	r7,r2,r3
 1807d58:	99c19e16 	blt	r19,r7,18083d4 <___vfprintf_internal_r+0x192c>
 1807d5c:	d9c14515 	stw	r7,1300(sp)
 1807d60:	38000916 	blt	r7,zero,1807d88 <___vfprintf_internal_r+0x12e0>
 1807d64:	d8014615 	stw	zero,1304(sp)
 1807d68:	003df106 	br	1807530 <___vfprintf_internal_r+0xa88>
 1807d6c:	b8c00007 	ldb	r3,0(r23)
 1807d70:	003bcc06 	br	1806ca4 <___vfprintf_internal_r+0x1fc>
 1807d74:	d9014117 	ldw	r4,1284(sp)
 1807d78:	180d6600 	call	180d660 <strlen>
 1807d7c:	d8814515 	stw	r2,1300(sp)
 1807d80:	100f883a 	mov	r7,r2
 1807d84:	103ff70e 	bge	r2,zero,1807d64 <___vfprintf_internal_r+0x12bc>
 1807d88:	d8014515 	stw	zero,1300(sp)
 1807d8c:	d8014615 	stw	zero,1304(sp)
 1807d90:	003de706 	br	1807530 <___vfprintf_internal_r+0xa88>
 1807d94:	20c03fcc 	andi	r3,r4,255
 1807d98:	00800044 	movi	r2,1
 1807d9c:	18802d26 	beq	r3,r2,1807e54 <___vfprintf_internal_r+0x13ac>
 1807da0:	18800e36 	bltu	r3,r2,1807ddc <___vfprintf_internal_r+0x1334>
 1807da4:	00800084 	movi	r2,2
 1807da8:	1880fa26 	beq	r3,r2,1808194 <___vfprintf_internal_r+0x16ec>
 1807dac:	01006074 	movhi	r4,385
 1807db0:	21166a04 	addi	r4,r4,22952
 1807db4:	180d6600 	call	180d660 <strlen>
 1807db8:	100f883a 	mov	r7,r2
 1807dbc:	dcc14515 	stw	r19,1300(sp)
 1807dc0:	9880010e 	bge	r19,r2,1807dc8 <___vfprintf_internal_r+0x1320>
 1807dc4:	d8814515 	stw	r2,1300(sp)
 1807dc8:	00806074 	movhi	r2,385
 1807dcc:	10966a04 	addi	r2,r2,22952
 1807dd0:	dcc14615 	stw	r19,1304(sp)
 1807dd4:	d8814115 	stw	r2,1284(sp)
 1807dd8:	003dd506 	br	1807530 <___vfprintf_internal_r+0xa88>
 1807ddc:	d9401904 	addi	r5,sp,100
 1807de0:	dd000f04 	addi	r20,sp,60
 1807de4:	d9414115 	stw	r5,1284(sp)
 1807de8:	880a977a 	slli	r5,r17,29
 1807dec:	d9814117 	ldw	r6,1284(sp)
 1807df0:	8004d0fa 	srli	r2,r16,3
 1807df4:	8806d0fa 	srli	r3,r17,3
 1807df8:	810001cc 	andi	r4,r16,7
 1807dfc:	2884b03a 	or	r2,r5,r2
 1807e00:	31bfffc4 	addi	r6,r6,-1
 1807e04:	21000c04 	addi	r4,r4,48
 1807e08:	d9814115 	stw	r6,1284(sp)
 1807e0c:	10cab03a 	or	r5,r2,r3
 1807e10:	31000005 	stb	r4,0(r6)
 1807e14:	1021883a 	mov	r16,r2
 1807e18:	1823883a 	mov	r17,r3
 1807e1c:	283ff21e 	bne	r5,zero,1807de8 <___vfprintf_internal_r+0x1340>
 1807e20:	d8c14c17 	ldw	r3,1328(sp)
 1807e24:	1880004c 	andi	r2,r3,1
 1807e28:	1005003a 	cmpeq	r2,r2,zero
 1807e2c:	103db91e 	bne	r2,zero,1807514 <___vfprintf_internal_r+0xa6c>
 1807e30:	20803fcc 	andi	r2,r4,255
 1807e34:	1080201c 	xori	r2,r2,128
 1807e38:	10bfe004 	addi	r2,r2,-128
 1807e3c:	00c00c04 	movi	r3,48
 1807e40:	10fdb426 	beq	r2,r3,1807514 <___vfprintf_internal_r+0xa6c>
 1807e44:	31bfffc4 	addi	r6,r6,-1
 1807e48:	d9814115 	stw	r6,1284(sp)
 1807e4c:	30c00005 	stb	r3,0(r6)
 1807e50:	003db006 	br	1807514 <___vfprintf_internal_r+0xa6c>
 1807e54:	88800068 	cmpgeui	r2,r17,1
 1807e58:	10002c1e 	bne	r2,zero,1807f0c <___vfprintf_internal_r+0x1464>
 1807e5c:	8800021e 	bne	r17,zero,1807e68 <___vfprintf_internal_r+0x13c0>
 1807e60:	00800244 	movi	r2,9
 1807e64:	14002936 	bltu	r2,r16,1807f0c <___vfprintf_internal_r+0x1464>
 1807e68:	d90018c4 	addi	r4,sp,99
 1807e6c:	dd000f04 	addi	r20,sp,60
 1807e70:	d9014115 	stw	r4,1284(sp)
 1807e74:	d9014117 	ldw	r4,1284(sp)
 1807e78:	80800c04 	addi	r2,r16,48
 1807e7c:	20800005 	stb	r2,0(r4)
 1807e80:	003da406 	br	1807514 <___vfprintf_internal_r+0xa6c>
 1807e84:	dc400d17 	ldw	r17,52(sp)
 1807e88:	07006074 	movhi	fp,385
 1807e8c:	e7167184 	addi	fp,fp,22982
 1807e90:	9425883a 	add	r18,r18,r16
 1807e94:	8c400044 	addi	r17,r17,1
 1807e98:	008001c4 	movi	r2,7
 1807e9c:	1f000015 	stw	fp,0(r3)
 1807ea0:	1c000115 	stw	r16,4(r3)
 1807ea4:	dc800e15 	stw	r18,56(sp)
 1807ea8:	dc400d15 	stw	r17,52(sp)
 1807eac:	147de216 	blt	r2,r17,1807638 <___vfprintf_internal_r+0xb90>
 1807eb0:	18c00204 	addi	r3,r3,8
 1807eb4:	003c7a06 	br	18070a0 <___vfprintf_internal_r+0x5f8>
 1807eb8:	01000084 	movi	r4,2
 1807ebc:	d8000405 	stb	zero,16(sp)
 1807ec0:	003d8706 	br	18074e0 <___vfprintf_internal_r+0xa38>
 1807ec4:	d9814c17 	ldw	r6,1328(sp)
 1807ec8:	30c4703a 	and	r2,r6,r3
 1807ecc:	1005003a 	cmpeq	r2,r2,zero
 1807ed0:	103cb926 	beq	r2,zero,18071b8 <___vfprintf_internal_r+0x710>
 1807ed4:	d9014117 	ldw	r4,1284(sp)
 1807ed8:	94800044 	addi	r18,r18,1
 1807edc:	8c400044 	addi	r17,r17,1
 1807ee0:	008001c4 	movi	r2,7
 1807ee4:	a9000015 	stw	r4,0(r21)
 1807ee8:	a8c00115 	stw	r3,4(r21)
 1807eec:	dc800e15 	stw	r18,56(sp)
 1807ef0:	dc400d15 	stw	r17,52(sp)
 1807ef4:	147e6616 	blt	r2,r17,1807890 <___vfprintf_internal_r+0xde8>
 1807ef8:	acc00204 	addi	r19,r21,8
 1807efc:	003cd706 	br	180725c <___vfprintf_internal_r+0x7b4>
 1807f00:	07006074 	movhi	fp,385
 1807f04:	e7167184 	addi	fp,fp,22982
 1807f08:	003c4f06 	br	1807048 <___vfprintf_internal_r+0x5a0>
 1807f0c:	dd000f04 	addi	r20,sp,60
 1807f10:	dc801904 	addi	r18,sp,100
 1807f14:	8009883a 	mov	r4,r16
 1807f18:	880b883a 	mov	r5,r17
 1807f1c:	01800284 	movi	r6,10
 1807f20:	000f883a 	mov	r7,zero
 1807f24:	180e1440 	call	180e144 <__umoddi3>
 1807f28:	12000c04 	addi	r8,r2,48
 1807f2c:	94bfffc4 	addi	r18,r18,-1
 1807f30:	8009883a 	mov	r4,r16
 1807f34:	880b883a 	mov	r5,r17
 1807f38:	01800284 	movi	r6,10
 1807f3c:	000f883a 	mov	r7,zero
 1807f40:	92000005 	stb	r8,0(r18)
 1807f44:	180db680 	call	180db68 <__udivdi3>
 1807f48:	1009883a 	mov	r4,r2
 1807f4c:	1021883a 	mov	r16,r2
 1807f50:	18800068 	cmpgeui	r2,r3,1
 1807f54:	1823883a 	mov	r17,r3
 1807f58:	103fee1e 	bne	r2,zero,1807f14 <___vfprintf_internal_r+0x146c>
 1807f5c:	1800021e 	bne	r3,zero,1807f68 <___vfprintf_internal_r+0x14c0>
 1807f60:	00800244 	movi	r2,9
 1807f64:	113feb36 	bltu	r2,r4,1807f14 <___vfprintf_internal_r+0x146c>
 1807f68:	94bfffc4 	addi	r18,r18,-1
 1807f6c:	dc814115 	stw	r18,1284(sp)
 1807f70:	003fc006 	br	1807e74 <___vfprintf_internal_r+0x13cc>
 1807f74:	d9014c17 	ldw	r4,1328(sp)
 1807f78:	2080004c 	andi	r2,r4,1
 1807f7c:	10009a1e 	bne	r2,zero,18081e8 <___vfprintf_internal_r+0x1740>
 1807f80:	d9401904 	addi	r5,sp,100
 1807f84:	dd000f04 	addi	r20,sp,60
 1807f88:	d9414115 	stw	r5,1284(sp)
 1807f8c:	003d6106 	br	1807514 <___vfprintf_internal_r+0xa6c>
 1807f90:	d9014f17 	ldw	r4,1340(sp)
 1807f94:	b00b883a 	mov	r5,r22
 1807f98:	d9800c04 	addi	r6,sp,48
 1807f9c:	1806a500 	call	1806a50 <__sprint_r>
 1807fa0:	103c791e 	bne	r2,zero,1807188 <___vfprintf_internal_r+0x6e0>
 1807fa4:	dc800e17 	ldw	r18,56(sp)
 1807fa8:	d8c01904 	addi	r3,sp,100
 1807fac:	003cff06 	br	18073ac <___vfprintf_internal_r+0x904>
 1807fb0:	d8c14c17 	ldw	r3,1328(sp)
 1807fb4:	1880040c 	andi	r2,r3,16
 1807fb8:	1000711e 	bne	r2,zero,1808180 <___vfprintf_internal_r+0x16d8>
 1807fbc:	d9014c17 	ldw	r4,1328(sp)
 1807fc0:	2080100c 	andi	r2,r4,64
 1807fc4:	10006e26 	beq	r2,zero,1808180 <___vfprintf_internal_r+0x16d8>
 1807fc8:	3c00000b 	ldhu	r16,0(r7)
 1807fcc:	0023883a 	mov	r17,zero
 1807fd0:	39c00104 	addi	r7,r7,4
 1807fd4:	d9c14015 	stw	r7,1280(sp)
 1807fd8:	003f0006 	br	1807bdc <___vfprintf_internal_r+0x1134>
 1807fdc:	dc400d17 	ldw	r17,52(sp)
 1807fe0:	07006074 	movhi	fp,385
 1807fe4:	e7167184 	addi	fp,fp,22982
 1807fe8:	9425883a 	add	r18,r18,r16
 1807fec:	8c400044 	addi	r17,r17,1
 1807ff0:	008001c4 	movi	r2,7
 1807ff4:	1f000015 	stw	fp,0(r3)
 1807ff8:	1c000115 	stw	r16,4(r3)
 1807ffc:	dc800e15 	stw	r18,56(sp)
 1808000:	dc400d15 	stw	r17,52(sp)
 1808004:	147d7616 	blt	r2,r17,18075e0 <___vfprintf_internal_r+0xb38>
 1808008:	18c00204 	addi	r3,r3,8
 180800c:	003d7b06 	br	18075fc <___vfprintf_internal_r+0xb54>
 1808010:	dc800e17 	ldw	r18,56(sp)
 1808014:	dc400d17 	ldw	r17,52(sp)
 1808018:	07006074 	movhi	fp,385
 180801c:	e7167584 	addi	fp,fp,22998
 1808020:	003bc006 	br	1806f24 <___vfprintf_internal_r+0x47c>
 1808024:	d9014f17 	ldw	r4,1340(sp)
 1808028:	b00b883a 	mov	r5,r22
 180802c:	d9800c04 	addi	r6,sp,48
 1808030:	1806a500 	call	1806a50 <__sprint_r>
 1808034:	103c541e 	bne	r2,zero,1807188 <___vfprintf_internal_r+0x6e0>
 1808038:	dc800e17 	ldw	r18,56(sp)
 180803c:	d8c01904 	addi	r3,sp,100
 1808040:	003ce906 	br	18073e8 <___vfprintf_internal_r+0x940>
 1808044:	3c000017 	ldw	r16,0(r7)
 1808048:	0009883a 	mov	r4,zero
 180804c:	39c00104 	addi	r7,r7,4
 1808050:	0023883a 	mov	r17,zero
 1808054:	d9c14015 	stw	r7,1280(sp)
 1808058:	d8000405 	stb	zero,16(sp)
 180805c:	003d2006 	br	18074e0 <___vfprintf_internal_r+0xa38>
 1808060:	38800017 	ldw	r2,0(r7)
 1808064:	39c00104 	addi	r7,r7,4
 1808068:	d9c14015 	stw	r7,1280(sp)
 180806c:	1023d7fa 	srai	r17,r2,31
 1808070:	1021883a 	mov	r16,r2
 1808074:	003d1806 	br	18074d8 <___vfprintf_internal_r+0xa30>
 1808078:	3c000017 	ldw	r16,0(r7)
 180807c:	01000044 	movi	r4,1
 1808080:	39c00104 	addi	r7,r7,4
 1808084:	0023883a 	mov	r17,zero
 1808088:	d9c14015 	stw	r7,1280(sp)
 180808c:	d8000405 	stb	zero,16(sp)
 1808090:	003d1306 	br	18074e0 <___vfprintf_internal_r+0xa38>
 1808094:	00806074 	movhi	r2,385
 1808098:	10967104 	addi	r2,r2,22980
 180809c:	94800044 	addi	r18,r18,1
 18080a0:	8c400044 	addi	r17,r17,1
 18080a4:	a8800015 	stw	r2,0(r21)
 18080a8:	00c00044 	movi	r3,1
 18080ac:	008001c4 	movi	r2,7
 18080b0:	a8c00115 	stw	r3,4(r21)
 18080b4:	dc800e15 	stw	r18,56(sp)
 18080b8:	dc400d15 	stw	r17,52(sp)
 18080bc:	1440ca16 	blt	r2,r17,18083e8 <___vfprintf_internal_r+0x1940>
 18080c0:	a8c00204 	addi	r3,r21,8
 18080c4:	2000061e 	bne	r4,zero,18080e0 <___vfprintf_internal_r+0x1638>
 18080c8:	d9414717 	ldw	r5,1308(sp)
 18080cc:	2800041e 	bne	r5,zero,18080e0 <___vfprintf_internal_r+0x1638>
 18080d0:	d9814c17 	ldw	r6,1328(sp)
 18080d4:	3080004c 	andi	r2,r6,1
 18080d8:	1005003a 	cmpeq	r2,r2,zero
 18080dc:	103bf01e 	bne	r2,zero,18070a0 <___vfprintf_internal_r+0x5f8>
 18080e0:	00800044 	movi	r2,1
 18080e4:	dc400d17 	ldw	r17,52(sp)
 18080e8:	18800115 	stw	r2,4(r3)
 18080ec:	d8814917 	ldw	r2,1316(sp)
 18080f0:	94800044 	addi	r18,r18,1
 18080f4:	8c400044 	addi	r17,r17,1
 18080f8:	18800015 	stw	r2,0(r3)
 18080fc:	008001c4 	movi	r2,7
 1808100:	dc800e15 	stw	r18,56(sp)
 1808104:	dc400d15 	stw	r17,52(sp)
 1808108:	1440ca16 	blt	r2,r17,1808434 <___vfprintf_internal_r+0x198c>
 180810c:	18c00204 	addi	r3,r3,8
 1808110:	0121c83a 	sub	r16,zero,r4
 1808114:	0400500e 	bge	zero,r16,1808258 <___vfprintf_internal_r+0x17b0>
 1808118:	00800404 	movi	r2,16
 180811c:	1400800e 	bge	r2,r16,1808320 <___vfprintf_internal_r+0x1878>
 1808120:	1027883a 	mov	r19,r2
 1808124:	07006074 	movhi	fp,385
 1808128:	e7167184 	addi	fp,fp,22982
 180812c:	050001c4 	movi	r20,7
 1808130:	00000306 	br	1808140 <___vfprintf_internal_r+0x1698>
 1808134:	18c00204 	addi	r3,r3,8
 1808138:	843ffc04 	addi	r16,r16,-16
 180813c:	9c007a0e 	bge	r19,r16,1808328 <___vfprintf_internal_r+0x1880>
 1808140:	94800404 	addi	r18,r18,16
 1808144:	8c400044 	addi	r17,r17,1
 1808148:	1f000015 	stw	fp,0(r3)
 180814c:	1cc00115 	stw	r19,4(r3)
 1808150:	dc800e15 	stw	r18,56(sp)
 1808154:	dc400d15 	stw	r17,52(sp)
 1808158:	a47ff60e 	bge	r20,r17,1808134 <___vfprintf_internal_r+0x168c>
 180815c:	d9014f17 	ldw	r4,1340(sp)
 1808160:	b00b883a 	mov	r5,r22
 1808164:	d9800c04 	addi	r6,sp,48
 1808168:	1806a500 	call	1806a50 <__sprint_r>
 180816c:	103c061e 	bne	r2,zero,1807188 <___vfprintf_internal_r+0x6e0>
 1808170:	dc800e17 	ldw	r18,56(sp)
 1808174:	dc400d17 	ldw	r17,52(sp)
 1808178:	d8c01904 	addi	r3,sp,100
 180817c:	003fee06 	br	1808138 <___vfprintf_internal_r+0x1690>
 1808180:	3c000017 	ldw	r16,0(r7)
 1808184:	0023883a 	mov	r17,zero
 1808188:	39c00104 	addi	r7,r7,4
 180818c:	d9c14015 	stw	r7,1280(sp)
 1808190:	003e9206 	br	1807bdc <___vfprintf_internal_r+0x1134>
 1808194:	d9401904 	addi	r5,sp,100
 1808198:	dd000f04 	addi	r20,sp,60
 180819c:	d9414115 	stw	r5,1284(sp)
 18081a0:	d9814417 	ldw	r6,1296(sp)
 18081a4:	880a973a 	slli	r5,r17,28
 18081a8:	8004d13a 	srli	r2,r16,4
 18081ac:	810003cc 	andi	r4,r16,15
 18081b0:	3109883a 	add	r4,r6,r4
 18081b4:	2884b03a 	or	r2,r5,r2
 18081b8:	21400003 	ldbu	r5,0(r4)
 18081bc:	d9014117 	ldw	r4,1284(sp)
 18081c0:	8806d13a 	srli	r3,r17,4
 18081c4:	1021883a 	mov	r16,r2
 18081c8:	213fffc4 	addi	r4,r4,-1
 18081cc:	d9014115 	stw	r4,1284(sp)
 18081d0:	d9814117 	ldw	r6,1284(sp)
 18081d4:	10c8b03a 	or	r4,r2,r3
 18081d8:	1823883a 	mov	r17,r3
 18081dc:	31400005 	stb	r5,0(r6)
 18081e0:	203fef1e 	bne	r4,zero,18081a0 <___vfprintf_internal_r+0x16f8>
 18081e4:	003ccb06 	br	1807514 <___vfprintf_internal_r+0xa6c>
 18081e8:	00800c04 	movi	r2,48
 18081ec:	d98018c4 	addi	r6,sp,99
 18081f0:	dd000f04 	addi	r20,sp,60
 18081f4:	d88018c5 	stb	r2,99(sp)
 18081f8:	d9814115 	stw	r6,1284(sp)
 18081fc:	003cc506 	br	1807514 <___vfprintf_internal_r+0xa6c>
 1808200:	dc400d17 	ldw	r17,52(sp)
 1808204:	07006074 	movhi	fp,385
 1808208:	e7167584 	addi	fp,fp,22998
 180820c:	003bc706 	br	180712c <___vfprintf_internal_r+0x684>
 1808210:	d9414c17 	ldw	r5,1328(sp)
 1808214:	2880040c 	andi	r2,r5,16
 1808218:	10007c26 	beq	r2,zero,180840c <___vfprintf_internal_r+0x1964>
 180821c:	38800017 	ldw	r2,0(r7)
 1808220:	39c00104 	addi	r7,r7,4
 1808224:	d9c14015 	stw	r7,1280(sp)
 1808228:	d9814b17 	ldw	r6,1324(sp)
 180822c:	d9c14017 	ldw	r7,1280(sp)
 1808230:	11800015 	stw	r6,0(r2)
 1808234:	003a7806 	br	1806c18 <___vfprintf_internal_r+0x170>
 1808238:	d9014f17 	ldw	r4,1340(sp)
 180823c:	b00b883a 	mov	r5,r22
 1808240:	d9800c04 	addi	r6,sp,48
 1808244:	1806a500 	call	1806a50 <__sprint_r>
 1808248:	103bcf1e 	bne	r2,zero,1807188 <___vfprintf_internal_r+0x6e0>
 180824c:	dc800e17 	ldw	r18,56(sp)
 1808250:	dc400d17 	ldw	r17,52(sp)
 1808254:	d8c01904 	addi	r3,sp,100
 1808258:	d9014717 	ldw	r4,1308(sp)
 180825c:	d9414117 	ldw	r5,1284(sp)
 1808260:	8c400044 	addi	r17,r17,1
 1808264:	9125883a 	add	r18,r18,r4
 1808268:	008001c4 	movi	r2,7
 180826c:	19400015 	stw	r5,0(r3)
 1808270:	19000115 	stw	r4,4(r3)
 1808274:	dc800e15 	stw	r18,56(sp)
 1808278:	dc400d15 	stw	r17,52(sp)
 180827c:	147cee16 	blt	r2,r17,1807638 <___vfprintf_internal_r+0xb90>
 1808280:	18c00204 	addi	r3,r3,8
 1808284:	003b8606 	br	18070a0 <___vfprintf_internal_r+0x5f8>
 1808288:	38c00017 	ldw	r3,0(r7)
 180828c:	39000204 	addi	r4,r7,8
 1808290:	d9014015 	stw	r4,1280(sp)
 1808294:	d8c14215 	stw	r3,1288(sp)
 1808298:	39c00117 	ldw	r7,4(r7)
 180829c:	d9c14315 	stw	r7,1292(sp)
 18082a0:	003e2006 	br	1807b24 <___vfprintf_internal_r+0x107c>
 18082a4:	0005883a 	mov	r2,zero
 18082a8:	1409c83a 	sub	r4,r2,r16
 18082ac:	1105803a 	cmpltu	r2,r2,r4
 18082b0:	044bc83a 	sub	r5,zero,r17
 18082b4:	2885c83a 	sub	r2,r5,r2
 18082b8:	2021883a 	mov	r16,r4
 18082bc:	1023883a 	mov	r17,r2
 18082c0:	01000044 	movi	r4,1
 18082c4:	00800b44 	movi	r2,45
 18082c8:	d8800405 	stb	r2,16(sp)
 18082cc:	003c8406 	br	18074e0 <___vfprintf_internal_r+0xa38>
 18082d0:	d9014f17 	ldw	r4,1340(sp)
 18082d4:	b00b883a 	mov	r5,r22
 18082d8:	d9800c04 	addi	r6,sp,48
 18082dc:	1806a500 	call	1806a50 <__sprint_r>
 18082e0:	103ba91e 	bne	r2,zero,1807188 <___vfprintf_internal_r+0x6e0>
 18082e4:	dc800e17 	ldw	r18,56(sp)
 18082e8:	dc400d17 	ldw	r17,52(sp)
 18082ec:	d9000517 	ldw	r4,20(sp)
 18082f0:	d9401904 	addi	r5,sp,100
 18082f4:	003da706 	br	1807994 <___vfprintf_internal_r+0xeec>
 18082f8:	d9014f17 	ldw	r4,1340(sp)
 18082fc:	b00b883a 	mov	r5,r22
 1808300:	d9800c04 	addi	r6,sp,48
 1808304:	1806a500 	call	1806a50 <__sprint_r>
 1808308:	103b9f1e 	bne	r2,zero,1807188 <___vfprintf_internal_r+0x6e0>
 180830c:	dc800e17 	ldw	r18,56(sp)
 1808310:	dc400d17 	ldw	r17,52(sp)
 1808314:	d9000517 	ldw	r4,20(sp)
 1808318:	d8c01904 	addi	r3,sp,100
 180831c:	003d9106 	br	1807964 <___vfprintf_internal_r+0xebc>
 1808320:	07006074 	movhi	fp,385
 1808324:	e7167184 	addi	fp,fp,22982
 1808328:	9425883a 	add	r18,r18,r16
 180832c:	8c400044 	addi	r17,r17,1
 1808330:	008001c4 	movi	r2,7
 1808334:	1f000015 	stw	fp,0(r3)
 1808338:	1c000115 	stw	r16,4(r3)
 180833c:	dc800e15 	stw	r18,56(sp)
 1808340:	dc400d15 	stw	r17,52(sp)
 1808344:	147fbc16 	blt	r2,r17,1808238 <___vfprintf_internal_r+0x1790>
 1808348:	18c00204 	addi	r3,r3,8
 180834c:	003fc206 	br	1808258 <___vfprintf_internal_r+0x17b0>
 1808350:	d9014f17 	ldw	r4,1340(sp)
 1808354:	b00b883a 	mov	r5,r22
 1808358:	d9800c04 	addi	r6,sp,48
 180835c:	1806a500 	call	1806a50 <__sprint_r>
 1808360:	103b891e 	bne	r2,zero,1807188 <___vfprintf_internal_r+0x6e0>
 1808364:	dc800e17 	ldw	r18,56(sp)
 1808368:	d9000517 	ldw	r4,20(sp)
 180836c:	d8c01904 	addi	r3,sp,100
 1808370:	003d0206 	br	180777c <___vfprintf_internal_r+0xcd4>
 1808374:	07006074 	movhi	fp,385
 1808378:	e7167184 	addi	fp,fp,22982
 180837c:	003be406 	br	1807310 <___vfprintf_internal_r+0x868>
 1808380:	00806074 	movhi	r2,385
 1808384:	10966004 	addi	r2,r2,22912
 1808388:	d8814115 	stw	r2,1284(sp)
 180838c:	003df506 	br	1807b64 <___vfprintf_internal_r+0x10bc>
 1808390:	d9014217 	ldw	r4,1288(sp)
 1808394:	d9414317 	ldw	r5,1292(sp)
 1808398:	1804a700 	call	1804a70 <__isnand>
 180839c:	10003926 	beq	r2,zero,1808484 <___vfprintf_internal_r+0x19dc>
 18083a0:	d9414d17 	ldw	r5,1332(sp)
 18083a4:	008011c4 	movi	r2,71
 18083a8:	1140ce16 	blt	r2,r5,18086e4 <___vfprintf_internal_r+0x1c3c>
 18083ac:	01806074 	movhi	r6,385
 18083b0:	31966104 	addi	r6,r6,22916
 18083b4:	d9814115 	stw	r6,1284(sp)
 18083b8:	003dea06 	br	1807b64 <___vfprintf_internal_r+0x10bc>
 18083bc:	d9014c17 	ldw	r4,1328(sp)
 18083c0:	bdc00044 	addi	r23,r23,1
 18083c4:	b8c00007 	ldb	r3,0(r23)
 18083c8:	21000814 	ori	r4,r4,32
 18083cc:	d9014c15 	stw	r4,1328(sp)
 18083d0:	003a3406 	br	1806ca4 <___vfprintf_internal_r+0x1fc>
 18083d4:	dcc14515 	stw	r19,1300(sp)
 18083d8:	98011016 	blt	r19,zero,180881c <___vfprintf_internal_r+0x1d74>
 18083dc:	980f883a 	mov	r7,r19
 18083e0:	d8014615 	stw	zero,1304(sp)
 18083e4:	003c5206 	br	1807530 <___vfprintf_internal_r+0xa88>
 18083e8:	d9014f17 	ldw	r4,1340(sp)
 18083ec:	b00b883a 	mov	r5,r22
 18083f0:	d9800c04 	addi	r6,sp,48
 18083f4:	1806a500 	call	1806a50 <__sprint_r>
 18083f8:	103b631e 	bne	r2,zero,1807188 <___vfprintf_internal_r+0x6e0>
 18083fc:	dc800e17 	ldw	r18,56(sp)
 1808400:	d9000517 	ldw	r4,20(sp)
 1808404:	d8c01904 	addi	r3,sp,100
 1808408:	003f2e06 	br	18080c4 <___vfprintf_internal_r+0x161c>
 180840c:	d8c14c17 	ldw	r3,1328(sp)
 1808410:	1880100c 	andi	r2,r3,64
 1808414:	1000a026 	beq	r2,zero,1808698 <___vfprintf_internal_r+0x1bf0>
 1808418:	38800017 	ldw	r2,0(r7)
 180841c:	39c00104 	addi	r7,r7,4
 1808420:	d9c14015 	stw	r7,1280(sp)
 1808424:	d9014b17 	ldw	r4,1324(sp)
 1808428:	d9c14017 	ldw	r7,1280(sp)
 180842c:	1100000d 	sth	r4,0(r2)
 1808430:	0039f906 	br	1806c18 <___vfprintf_internal_r+0x170>
 1808434:	d9014f17 	ldw	r4,1340(sp)
 1808438:	b00b883a 	mov	r5,r22
 180843c:	d9800c04 	addi	r6,sp,48
 1808440:	1806a500 	call	1806a50 <__sprint_r>
 1808444:	103b501e 	bne	r2,zero,1807188 <___vfprintf_internal_r+0x6e0>
 1808448:	dc800e17 	ldw	r18,56(sp)
 180844c:	dc400d17 	ldw	r17,52(sp)
 1808450:	d9000517 	ldw	r4,20(sp)
 1808454:	d8c01904 	addi	r3,sp,100
 1808458:	003f2d06 	br	1808110 <___vfprintf_internal_r+0x1668>
 180845c:	00800184 	movi	r2,6
 1808460:	14c09a36 	bltu	r2,r19,18086cc <___vfprintf_internal_r+0x1c24>
 1808464:	dcc14515 	stw	r19,1300(sp)
 1808468:	9800010e 	bge	r19,zero,1808470 <___vfprintf_internal_r+0x19c8>
 180846c:	d8014515 	stw	zero,1300(sp)
 1808470:	00806074 	movhi	r2,385
 1808474:	10966304 	addi	r2,r2,22924
 1808478:	980f883a 	mov	r7,r19
 180847c:	d8814115 	stw	r2,1284(sp)
 1808480:	003a7806 	br	1806e64 <___vfprintf_internal_r+0x3bc>
 1808484:	00bfffc4 	movi	r2,-1
 1808488:	9880e226 	beq	r19,r2,1808814 <___vfprintf_internal_r+0x1d6c>
 180848c:	d9414d17 	ldw	r5,1332(sp)
 1808490:	008019c4 	movi	r2,103
 1808494:	2880dc26 	beq	r5,r2,1808808 <___vfprintf_internal_r+0x1d60>
 1808498:	008011c4 	movi	r2,71
 180849c:	2880da26 	beq	r5,r2,1808808 <___vfprintf_internal_r+0x1d60>
 18084a0:	d9414c17 	ldw	r5,1328(sp)
 18084a4:	d9014317 	ldw	r4,1292(sp)
 18084a8:	d9814217 	ldw	r6,1288(sp)
 18084ac:	29404014 	ori	r5,r5,256
 18084b0:	d9414c15 	stw	r5,1328(sp)
 18084b4:	2000cc16 	blt	r4,zero,18087e8 <___vfprintf_internal_r+0x1d40>
 18084b8:	3021883a 	mov	r16,r6
 18084bc:	2023883a 	mov	r17,r4
 18084c0:	0039883a 	mov	fp,zero
 18084c4:	d9414d17 	ldw	r5,1332(sp)
 18084c8:	00801984 	movi	r2,102
 18084cc:	2880b726 	beq	r5,r2,18087ac <___vfprintf_internal_r+0x1d04>
 18084d0:	00801184 	movi	r2,70
 18084d4:	2880b526 	beq	r5,r2,18087ac <___vfprintf_internal_r+0x1d04>
 18084d8:	00801944 	movi	r2,101
 18084dc:	2880c826 	beq	r5,r2,1808800 <___vfprintf_internal_r+0x1d58>
 18084e0:	00801144 	movi	r2,69
 18084e4:	2880c626 	beq	r5,r2,1808800 <___vfprintf_internal_r+0x1d58>
 18084e8:	9829883a 	mov	r20,r19
 18084ec:	d9014f17 	ldw	r4,1340(sp)
 18084f0:	d8800504 	addi	r2,sp,20
 18084f4:	880d883a 	mov	r6,r17
 18084f8:	d8800115 	stw	r2,4(sp)
 18084fc:	d8c00604 	addi	r3,sp,24
 1808500:	d8800704 	addi	r2,sp,28
 1808504:	800b883a 	mov	r5,r16
 1808508:	01c00084 	movi	r7,2
 180850c:	d8c00215 	stw	r3,8(sp)
 1808510:	d8800315 	stw	r2,12(sp)
 1808514:	dd000015 	stw	r20,0(sp)
 1808518:	1808ccc0 	call	1808ccc <_dtoa_r>
 180851c:	d9814d17 	ldw	r6,1332(sp)
 1808520:	d8814115 	stw	r2,1284(sp)
 1808524:	008019c4 	movi	r2,103
 1808528:	30809526 	beq	r6,r2,1808780 <___vfprintf_internal_r+0x1cd8>
 180852c:	d8c14d17 	ldw	r3,1332(sp)
 1808530:	008011c4 	movi	r2,71
 1808534:	18809226 	beq	r3,r2,1808780 <___vfprintf_internal_r+0x1cd8>
 1808538:	d9414117 	ldw	r5,1284(sp)
 180853c:	d9814d17 	ldw	r6,1332(sp)
 1808540:	00801984 	movi	r2,102
 1808544:	2d25883a 	add	r18,r5,r20
 1808548:	30808626 	beq	r6,r2,1808764 <___vfprintf_internal_r+0x1cbc>
 180854c:	00801184 	movi	r2,70
 1808550:	30808426 	beq	r6,r2,1808764 <___vfprintf_internal_r+0x1cbc>
 1808554:	000d883a 	mov	r6,zero
 1808558:	000f883a 	mov	r7,zero
 180855c:	880b883a 	mov	r5,r17
 1808560:	8009883a 	mov	r4,r16
 1808564:	1805ac00 	call	1805ac0 <__eqdf2>
 1808568:	1000751e 	bne	r2,zero,1808740 <___vfprintf_internal_r+0x1c98>
 180856c:	9005883a 	mov	r2,r18
 1808570:	dc800715 	stw	r18,28(sp)
 1808574:	d9014117 	ldw	r4,1284(sp)
 1808578:	d9414d17 	ldw	r5,1332(sp)
 180857c:	00c019c4 	movi	r3,103
 1808580:	1125c83a 	sub	r18,r2,r4
 1808584:	28c06826 	beq	r5,r3,1808728 <___vfprintf_internal_r+0x1c80>
 1808588:	008011c4 	movi	r2,71
 180858c:	28806626 	beq	r5,r2,1808728 <___vfprintf_internal_r+0x1c80>
 1808590:	d9000517 	ldw	r4,20(sp)
 1808594:	d8c14d17 	ldw	r3,1332(sp)
 1808598:	00801944 	movi	r2,101
 180859c:	10c05516 	blt	r2,r3,18086f4 <___vfprintf_internal_r+0x1c4c>
 18085a0:	213fffc4 	addi	r4,r4,-1
 18085a4:	d9000515 	stw	r4,20(sp)
 18085a8:	d8c00805 	stb	r3,32(sp)
 18085ac:	2021883a 	mov	r16,r4
 18085b0:	2000c116 	blt	r4,zero,18088b8 <___vfprintf_internal_r+0x1e10>
 18085b4:	00800ac4 	movi	r2,43
 18085b8:	d8800845 	stb	r2,33(sp)
 18085bc:	00800244 	movi	r2,9
 18085c0:	1400af0e 	bge	r2,r16,1808880 <___vfprintf_internal_r+0x1dd8>
 18085c4:	1027883a 	mov	r19,r2
 18085c8:	dc400b84 	addi	r17,sp,46
 18085cc:	8009883a 	mov	r4,r16
 18085d0:	01400284 	movi	r5,10
 18085d4:	18060380 	call	1806038 <__modsi3>
 18085d8:	10800c04 	addi	r2,r2,48
 18085dc:	8c7fffc4 	addi	r17,r17,-1
 18085e0:	8009883a 	mov	r4,r16
 18085e4:	01400284 	movi	r5,10
 18085e8:	88800005 	stb	r2,0(r17)
 18085ec:	1805fd80 	call	1805fd8 <__divsi3>
 18085f0:	1021883a 	mov	r16,r2
 18085f4:	98bff516 	blt	r19,r2,18085cc <___vfprintf_internal_r+0x1b24>
 18085f8:	10c00c04 	addi	r3,r2,48
 18085fc:	d88009c4 	addi	r2,sp,39
 1808600:	108001c4 	addi	r2,r2,7
 1808604:	897fffc4 	addi	r5,r17,-1
 1808608:	88ffffc5 	stb	r3,-1(r17)
 180860c:	2880a72e 	bgeu	r5,r2,18088ac <___vfprintf_internal_r+0x1e04>
 1808610:	1009883a 	mov	r4,r2
 1808614:	d9800804 	addi	r6,sp,32
 1808618:	d8c00884 	addi	r3,sp,34
 180861c:	28800003 	ldbu	r2,0(r5)
 1808620:	29400044 	addi	r5,r5,1
 1808624:	18800005 	stb	r2,0(r3)
 1808628:	18c00044 	addi	r3,r3,1
 180862c:	293ffb36 	bltu	r5,r4,180861c <___vfprintf_internal_r+0x1b74>
 1808630:	1987c83a 	sub	r3,r3,r6
 1808634:	00800044 	movi	r2,1
 1808638:	d8c14815 	stw	r3,1312(sp)
 180863c:	90cf883a 	add	r7,r18,r3
 1808640:	1480960e 	bge	r2,r18,180889c <___vfprintf_internal_r+0x1df4>
 1808644:	39c00044 	addi	r7,r7,1
 1808648:	d9c14515 	stw	r7,1300(sp)
 180864c:	38003416 	blt	r7,zero,1808720 <___vfprintf_internal_r+0x1c78>
 1808650:	e0803fcc 	andi	r2,fp,255
 1808654:	1080201c 	xori	r2,r2,128
 1808658:	10bfe004 	addi	r2,r2,-128
 180865c:	10004e26 	beq	r2,zero,1808798 <___vfprintf_internal_r+0x1cf0>
 1808660:	00800b44 	movi	r2,45
 1808664:	dc814715 	stw	r18,1308(sp)
 1808668:	d8014615 	stw	zero,1304(sp)
 180866c:	d8800405 	stb	r2,16(sp)
 1808670:	003bb106 	br	1807538 <___vfprintf_internal_r+0xa90>
 1808674:	00800b44 	movi	r2,45
 1808678:	d8800405 	stb	r2,16(sp)
 180867c:	003d3306 	br	1807b4c <___vfprintf_internal_r+0x10a4>
 1808680:	d9014f17 	ldw	r4,1340(sp)
 1808684:	b00b883a 	mov	r5,r22
 1808688:	d9800c04 	addi	r6,sp,48
 180868c:	1806a500 	call	1806a50 <__sprint_r>
 1808690:	103abd1e 	bne	r2,zero,1807188 <___vfprintf_internal_r+0x6e0>
 1808694:	003abb06 	br	1807184 <___vfprintf_internal_r+0x6dc>
 1808698:	38800017 	ldw	r2,0(r7)
 180869c:	39c00104 	addi	r7,r7,4
 18086a0:	d9c14015 	stw	r7,1280(sp)
 18086a4:	d9414b17 	ldw	r5,1324(sp)
 18086a8:	d9c14017 	ldw	r7,1280(sp)
 18086ac:	11400015 	stw	r5,0(r2)
 18086b0:	00395906 	br	1806c18 <___vfprintf_internal_r+0x170>
 18086b4:	980f883a 	mov	r7,r19
 18086b8:	dcc14515 	stw	r19,1300(sp)
 18086bc:	d8014615 	stw	zero,1304(sp)
 18086c0:	003b9b06 	br	1807530 <___vfprintf_internal_r+0xa88>
 18086c4:	0027883a 	mov	r19,zero
 18086c8:	00397806 	br	1806cac <___vfprintf_internal_r+0x204>
 18086cc:	00c06074 	movhi	r3,385
 18086d0:	18d66304 	addi	r3,r3,22924
 18086d4:	100f883a 	mov	r7,r2
 18086d8:	d8814515 	stw	r2,1300(sp)
 18086dc:	d8c14115 	stw	r3,1284(sp)
 18086e0:	0039e006 	br	1806e64 <___vfprintf_internal_r+0x3bc>
 18086e4:	00806074 	movhi	r2,385
 18086e8:	10966204 	addi	r2,r2,22920
 18086ec:	d8814115 	stw	r2,1284(sp)
 18086f0:	003d1c06 	br	1807b64 <___vfprintf_internal_r+0x10bc>
 18086f4:	d9414d17 	ldw	r5,1332(sp)
 18086f8:	00801984 	movi	r2,102
 18086fc:	28804926 	beq	r5,r2,1808824 <___vfprintf_internal_r+0x1d7c>
 1808700:	200f883a 	mov	r7,r4
 1808704:	24805716 	blt	r4,r18,1808864 <___vfprintf_internal_r+0x1dbc>
 1808708:	d9414c17 	ldw	r5,1328(sp)
 180870c:	2880004c 	andi	r2,r5,1
 1808710:	10000126 	beq	r2,zero,1808718 <___vfprintf_internal_r+0x1c70>
 1808714:	21c00044 	addi	r7,r4,1
 1808718:	d9c14515 	stw	r7,1300(sp)
 180871c:	383fcc0e 	bge	r7,zero,1808650 <___vfprintf_internal_r+0x1ba8>
 1808720:	d8014515 	stw	zero,1300(sp)
 1808724:	003fca06 	br	1808650 <___vfprintf_internal_r+0x1ba8>
 1808728:	d9000517 	ldw	r4,20(sp)
 180872c:	00bfff04 	movi	r2,-4
 1808730:	1100480e 	bge	r2,r4,1808854 <___vfprintf_internal_r+0x1dac>
 1808734:	99004716 	blt	r19,r4,1808854 <___vfprintf_internal_r+0x1dac>
 1808738:	d8c14d15 	stw	r3,1332(sp)
 180873c:	003ff006 	br	1808700 <___vfprintf_internal_r+0x1c58>
 1808740:	d8800717 	ldw	r2,28(sp)
 1808744:	14bf8b2e 	bgeu	r2,r18,1808574 <___vfprintf_internal_r+0x1acc>
 1808748:	9007883a 	mov	r3,r18
 180874c:	01000c04 	movi	r4,48
 1808750:	11000005 	stb	r4,0(r2)
 1808754:	10800044 	addi	r2,r2,1
 1808758:	d8800715 	stw	r2,28(sp)
 180875c:	18bffc1e 	bne	r3,r2,1808750 <___vfprintf_internal_r+0x1ca8>
 1808760:	003f8406 	br	1808574 <___vfprintf_internal_r+0x1acc>
 1808764:	d8814117 	ldw	r2,1284(sp)
 1808768:	10c00007 	ldb	r3,0(r2)
 180876c:	00800c04 	movi	r2,48
 1808770:	18805b26 	beq	r3,r2,18088e0 <___vfprintf_internal_r+0x1e38>
 1808774:	d9000517 	ldw	r4,20(sp)
 1808778:	9125883a 	add	r18,r18,r4
 180877c:	003f7506 	br	1808554 <___vfprintf_internal_r+0x1aac>
 1808780:	d9014c17 	ldw	r4,1328(sp)
 1808784:	2080004c 	andi	r2,r4,1
 1808788:	1005003a 	cmpeq	r2,r2,zero
 180878c:	103f6a26 	beq	r2,zero,1808538 <___vfprintf_internal_r+0x1a90>
 1808790:	d8800717 	ldw	r2,28(sp)
 1808794:	003f7706 	br	1808574 <___vfprintf_internal_r+0x1acc>
 1808798:	d9c14515 	stw	r7,1300(sp)
 180879c:	38004d16 	blt	r7,zero,18088d4 <___vfprintf_internal_r+0x1e2c>
 18087a0:	dc814715 	stw	r18,1308(sp)
 18087a4:	d8014615 	stw	zero,1304(sp)
 18087a8:	003b6106 	br	1807530 <___vfprintf_internal_r+0xa88>
 18087ac:	d9014f17 	ldw	r4,1340(sp)
 18087b0:	d8800504 	addi	r2,sp,20
 18087b4:	d8800115 	stw	r2,4(sp)
 18087b8:	d8c00604 	addi	r3,sp,24
 18087bc:	d8800704 	addi	r2,sp,28
 18087c0:	800b883a 	mov	r5,r16
 18087c4:	880d883a 	mov	r6,r17
 18087c8:	01c000c4 	movi	r7,3
 18087cc:	d8c00215 	stw	r3,8(sp)
 18087d0:	d8800315 	stw	r2,12(sp)
 18087d4:	dcc00015 	stw	r19,0(sp)
 18087d8:	9829883a 	mov	r20,r19
 18087dc:	1808ccc0 	call	1808ccc <_dtoa_r>
 18087e0:	d8814115 	stw	r2,1284(sp)
 18087e4:	003f5106 	br	180852c <___vfprintf_internal_r+0x1a84>
 18087e8:	d8c14217 	ldw	r3,1288(sp)
 18087ec:	d9014317 	ldw	r4,1292(sp)
 18087f0:	07000b44 	movi	fp,45
 18087f4:	1821883a 	mov	r16,r3
 18087f8:	2460003c 	xorhi	r17,r4,32768
 18087fc:	003f3106 	br	18084c4 <___vfprintf_internal_r+0x1a1c>
 1808800:	9d000044 	addi	r20,r19,1
 1808804:	003f3906 	br	18084ec <___vfprintf_internal_r+0x1a44>
 1808808:	983f251e 	bne	r19,zero,18084a0 <___vfprintf_internal_r+0x19f8>
 180880c:	04c00044 	movi	r19,1
 1808810:	003f2306 	br	18084a0 <___vfprintf_internal_r+0x19f8>
 1808814:	04c00184 	movi	r19,6
 1808818:	003f2106 	br	18084a0 <___vfprintf_internal_r+0x19f8>
 180881c:	d8014515 	stw	zero,1300(sp)
 1808820:	003eee06 	br	18083dc <___vfprintf_internal_r+0x1934>
 1808824:	200f883a 	mov	r7,r4
 1808828:	0100370e 	bge	zero,r4,1808908 <___vfprintf_internal_r+0x1e60>
 180882c:	9800031e 	bne	r19,zero,180883c <___vfprintf_internal_r+0x1d94>
 1808830:	d9814c17 	ldw	r6,1328(sp)
 1808834:	3080004c 	andi	r2,r6,1
 1808838:	103fb726 	beq	r2,zero,1808718 <___vfprintf_internal_r+0x1c70>
 180883c:	20800044 	addi	r2,r4,1
 1808840:	98a7883a 	add	r19,r19,r2
 1808844:	dcc14515 	stw	r19,1300(sp)
 1808848:	980f883a 	mov	r7,r19
 180884c:	983f800e 	bge	r19,zero,1808650 <___vfprintf_internal_r+0x1ba8>
 1808850:	003fb306 	br	1808720 <___vfprintf_internal_r+0x1c78>
 1808854:	d9814d17 	ldw	r6,1332(sp)
 1808858:	31bfff84 	addi	r6,r6,-2
 180885c:	d9814d15 	stw	r6,1332(sp)
 1808860:	003f4c06 	br	1808594 <___vfprintf_internal_r+0x1aec>
 1808864:	0100180e 	bge	zero,r4,18088c8 <___vfprintf_internal_r+0x1e20>
 1808868:	00800044 	movi	r2,1
 180886c:	1485883a 	add	r2,r2,r18
 1808870:	d8814515 	stw	r2,1300(sp)
 1808874:	100f883a 	mov	r7,r2
 1808878:	103f750e 	bge	r2,zero,1808650 <___vfprintf_internal_r+0x1ba8>
 180887c:	003fa806 	br	1808720 <___vfprintf_internal_r+0x1c78>
 1808880:	80c00c04 	addi	r3,r16,48
 1808884:	00800c04 	movi	r2,48
 1808888:	d8c008c5 	stb	r3,35(sp)
 180888c:	d9800804 	addi	r6,sp,32
 1808890:	d8c00904 	addi	r3,sp,36
 1808894:	d8800885 	stb	r2,34(sp)
 1808898:	003f6506 	br	1808630 <___vfprintf_internal_r+0x1b88>
 180889c:	d9014c17 	ldw	r4,1328(sp)
 18088a0:	2084703a 	and	r2,r4,r2
 18088a4:	103f9c26 	beq	r2,zero,1808718 <___vfprintf_internal_r+0x1c70>
 18088a8:	003f6606 	br	1808644 <___vfprintf_internal_r+0x1b9c>
 18088ac:	d9800804 	addi	r6,sp,32
 18088b0:	d8c00884 	addi	r3,sp,34
 18088b4:	003f5e06 	br	1808630 <___vfprintf_internal_r+0x1b88>
 18088b8:	00800b44 	movi	r2,45
 18088bc:	0121c83a 	sub	r16,zero,r4
 18088c0:	d8800845 	stb	r2,33(sp)
 18088c4:	003f3d06 	br	18085bc <___vfprintf_internal_r+0x1b14>
 18088c8:	00800084 	movi	r2,2
 18088cc:	1105c83a 	sub	r2,r2,r4
 18088d0:	003fe606 	br	180886c <___vfprintf_internal_r+0x1dc4>
 18088d4:	d8014515 	stw	zero,1300(sp)
 18088d8:	dc814715 	stw	r18,1308(sp)
 18088dc:	003fb106 	br	18087a4 <___vfprintf_internal_r+0x1cfc>
 18088e0:	000d883a 	mov	r6,zero
 18088e4:	000f883a 	mov	r7,zero
 18088e8:	8009883a 	mov	r4,r16
 18088ec:	880b883a 	mov	r5,r17
 18088f0:	180e6f40 	call	180e6f4 <__nedf2>
 18088f4:	103f9f26 	beq	r2,zero,1808774 <___vfprintf_internal_r+0x1ccc>
 18088f8:	00800044 	movi	r2,1
 18088fc:	1509c83a 	sub	r4,r2,r20
 1808900:	d9000515 	stw	r4,20(sp)
 1808904:	003f9b06 	br	1808774 <___vfprintf_internal_r+0x1ccc>
 1808908:	98000d1e 	bne	r19,zero,1808940 <___vfprintf_internal_r+0x1e98>
 180890c:	d8c14c17 	ldw	r3,1328(sp)
 1808910:	1880004c 	andi	r2,r3,1
 1808914:	10000a1e 	bne	r2,zero,1808940 <___vfprintf_internal_r+0x1e98>
 1808918:	01000044 	movi	r4,1
 180891c:	200f883a 	mov	r7,r4
 1808920:	d9014515 	stw	r4,1300(sp)
 1808924:	003f4a06 	br	1808650 <___vfprintf_internal_r+0x1ba8>
 1808928:	3cc00017 	ldw	r19,0(r7)
 180892c:	39c00104 	addi	r7,r7,4
 1808930:	983d0e0e 	bge	r19,zero,1807d6c <___vfprintf_internal_r+0x12c4>
 1808934:	b8c00007 	ldb	r3,0(r23)
 1808938:	04ffffc4 	movi	r19,-1
 180893c:	0038d906 	br	1806ca4 <___vfprintf_internal_r+0x1fc>
 1808940:	9cc00084 	addi	r19,r19,2
 1808944:	dcc14515 	stw	r19,1300(sp)
 1808948:	980f883a 	mov	r7,r19
 180894c:	983f400e 	bge	r19,zero,1808650 <___vfprintf_internal_r+0x1ba8>
 1808950:	003f7306 	br	1808720 <___vfprintf_internal_r+0x1c78>

01808954 <__vfprintf_internal>:
 1808954:	00806074 	movhi	r2,385
 1808958:	109ec404 	addi	r2,r2,31504
 180895c:	2013883a 	mov	r9,r4
 1808960:	11000017 	ldw	r4,0(r2)
 1808964:	2805883a 	mov	r2,r5
 1808968:	300f883a 	mov	r7,r6
 180896c:	480b883a 	mov	r5,r9
 1808970:	100d883a 	mov	r6,r2
 1808974:	1806aa81 	jmpi	1806aa8 <___vfprintf_internal_r>

01808978 <__swsetup_r>:
 1808978:	00806074 	movhi	r2,385
 180897c:	109ec404 	addi	r2,r2,31504
 1808980:	10c00017 	ldw	r3,0(r2)
 1808984:	defffd04 	addi	sp,sp,-12
 1808988:	dc400115 	stw	r17,4(sp)
 180898c:	dc000015 	stw	r16,0(sp)
 1808990:	dfc00215 	stw	ra,8(sp)
 1808994:	2023883a 	mov	r17,r4
 1808998:	2821883a 	mov	r16,r5
 180899c:	18000226 	beq	r3,zero,18089a8 <__swsetup_r+0x30>
 18089a0:	18800e17 	ldw	r2,56(r3)
 18089a4:	10001f26 	beq	r2,zero,1808a24 <__swsetup_r+0xac>
 18089a8:	8100030b 	ldhu	r4,12(r16)
 18089ac:	2080020c 	andi	r2,r4,8
 18089b0:	10002826 	beq	r2,zero,1808a54 <__swsetup_r+0xdc>
 18089b4:	81400417 	ldw	r5,16(r16)
 18089b8:	28001d26 	beq	r5,zero,1808a30 <__swsetup_r+0xb8>
 18089bc:	2080004c 	andi	r2,r4,1
 18089c0:	1005003a 	cmpeq	r2,r2,zero
 18089c4:	10000b26 	beq	r2,zero,18089f4 <__swsetup_r+0x7c>
 18089c8:	2080008c 	andi	r2,r4,2
 18089cc:	10001226 	beq	r2,zero,1808a18 <__swsetup_r+0xa0>
 18089d0:	0005883a 	mov	r2,zero
 18089d4:	80800215 	stw	r2,8(r16)
 18089d8:	28000b26 	beq	r5,zero,1808a08 <__swsetup_r+0x90>
 18089dc:	0005883a 	mov	r2,zero
 18089e0:	dfc00217 	ldw	ra,8(sp)
 18089e4:	dc400117 	ldw	r17,4(sp)
 18089e8:	dc000017 	ldw	r16,0(sp)
 18089ec:	dec00304 	addi	sp,sp,12
 18089f0:	f800283a 	ret
 18089f4:	80800517 	ldw	r2,20(r16)
 18089f8:	80000215 	stw	zero,8(r16)
 18089fc:	0085c83a 	sub	r2,zero,r2
 1808a00:	80800615 	stw	r2,24(r16)
 1808a04:	283ff51e 	bne	r5,zero,18089dc <__swsetup_r+0x64>
 1808a08:	2080200c 	andi	r2,r4,128
 1808a0c:	103ff326 	beq	r2,zero,18089dc <__swsetup_r+0x64>
 1808a10:	00bfffc4 	movi	r2,-1
 1808a14:	003ff206 	br	18089e0 <__swsetup_r+0x68>
 1808a18:	80800517 	ldw	r2,20(r16)
 1808a1c:	80800215 	stw	r2,8(r16)
 1808a20:	003fed06 	br	18089d8 <__swsetup_r+0x60>
 1808a24:	1809883a 	mov	r4,r3
 1808a28:	180a5180 	call	180a518 <__sinit>
 1808a2c:	003fde06 	br	18089a8 <__swsetup_r+0x30>
 1808a30:	20c0a00c 	andi	r3,r4,640
 1808a34:	00808004 	movi	r2,512
 1808a38:	18bfe026 	beq	r3,r2,18089bc <__swsetup_r+0x44>
 1808a3c:	8809883a 	mov	r4,r17
 1808a40:	800b883a 	mov	r5,r16
 1808a44:	180b2900 	call	180b290 <__smakebuf_r>
 1808a48:	8100030b 	ldhu	r4,12(r16)
 1808a4c:	81400417 	ldw	r5,16(r16)
 1808a50:	003fda06 	br	18089bc <__swsetup_r+0x44>
 1808a54:	2080040c 	andi	r2,r4,16
 1808a58:	103fed26 	beq	r2,zero,1808a10 <__swsetup_r+0x98>
 1808a5c:	2080010c 	andi	r2,r4,4
 1808a60:	10001226 	beq	r2,zero,1808aac <__swsetup_r+0x134>
 1808a64:	81400c17 	ldw	r5,48(r16)
 1808a68:	28000526 	beq	r5,zero,1808a80 <__swsetup_r+0x108>
 1808a6c:	80801004 	addi	r2,r16,64
 1808a70:	28800226 	beq	r5,r2,1808a7c <__swsetup_r+0x104>
 1808a74:	8809883a 	mov	r4,r17
 1808a78:	180a89c0 	call	180a89c <_free_r>
 1808a7c:	80000c15 	stw	zero,48(r16)
 1808a80:	8080030b 	ldhu	r2,12(r16)
 1808a84:	81400417 	ldw	r5,16(r16)
 1808a88:	80000115 	stw	zero,4(r16)
 1808a8c:	10bff6cc 	andi	r2,r2,65499
 1808a90:	8080030d 	sth	r2,12(r16)
 1808a94:	81400015 	stw	r5,0(r16)
 1808a98:	8080030b 	ldhu	r2,12(r16)
 1808a9c:	10800214 	ori	r2,r2,8
 1808aa0:	113fffcc 	andi	r4,r2,65535
 1808aa4:	8080030d 	sth	r2,12(r16)
 1808aa8:	003fc306 	br	18089b8 <__swsetup_r+0x40>
 1808aac:	81400417 	ldw	r5,16(r16)
 1808ab0:	003ff906 	br	1808a98 <__swsetup_r+0x120>

01808ab4 <quorem>:
 1808ab4:	28c00417 	ldw	r3,16(r5)
 1808ab8:	20800417 	ldw	r2,16(r4)
 1808abc:	defff604 	addi	sp,sp,-40
 1808ac0:	ddc00715 	stw	r23,28(sp)
 1808ac4:	dd400515 	stw	r21,20(sp)
 1808ac8:	dfc00915 	stw	ra,36(sp)
 1808acc:	df000815 	stw	fp,32(sp)
 1808ad0:	dd800615 	stw	r22,24(sp)
 1808ad4:	dd000415 	stw	r20,16(sp)
 1808ad8:	dcc00315 	stw	r19,12(sp)
 1808adc:	dc800215 	stw	r18,8(sp)
 1808ae0:	dc400115 	stw	r17,4(sp)
 1808ae4:	dc000015 	stw	r16,0(sp)
 1808ae8:	202f883a 	mov	r23,r4
 1808aec:	282b883a 	mov	r21,r5
 1808af0:	10c07416 	blt	r2,r3,1808cc4 <quorem+0x210>
 1808af4:	1c7fffc4 	addi	r17,r3,-1
 1808af8:	8c45883a 	add	r2,r17,r17
 1808afc:	1085883a 	add	r2,r2,r2
 1808b00:	2c000504 	addi	r16,r5,20
 1808b04:	24c00504 	addi	r19,r4,20
 1808b08:	14ed883a 	add	r22,r2,r19
 1808b0c:	80a5883a 	add	r18,r16,r2
 1808b10:	b7000017 	ldw	fp,0(r22)
 1808b14:	91400017 	ldw	r5,0(r18)
 1808b18:	e009883a 	mov	r4,fp
 1808b1c:	29400044 	addi	r5,r5,1
 1808b20:	18060980 	call	1806098 <__udivsi3>
 1808b24:	1029883a 	mov	r20,r2
 1808b28:	10003c1e 	bne	r2,zero,1808c1c <quorem+0x168>
 1808b2c:	a80b883a 	mov	r5,r21
 1808b30:	b809883a 	mov	r4,r23
 1808b34:	180bf1c0 	call	180bf1c <__mcmp>
 1808b38:	10002b16 	blt	r2,zero,1808be8 <quorem+0x134>
 1808b3c:	a5000044 	addi	r20,r20,1
 1808b40:	980f883a 	mov	r7,r19
 1808b44:	0011883a 	mov	r8,zero
 1808b48:	0009883a 	mov	r4,zero
 1808b4c:	81400017 	ldw	r5,0(r16)
 1808b50:	38c00017 	ldw	r3,0(r7)
 1808b54:	84000104 	addi	r16,r16,4
 1808b58:	28bfffcc 	andi	r2,r5,65535
 1808b5c:	2085883a 	add	r2,r4,r2
 1808b60:	11bfffcc 	andi	r6,r2,65535
 1808b64:	193fffcc 	andi	r4,r3,65535
 1808b68:	1004d43a 	srli	r2,r2,16
 1808b6c:	280ad43a 	srli	r5,r5,16
 1808b70:	2189c83a 	sub	r4,r4,r6
 1808b74:	2209883a 	add	r4,r4,r8
 1808b78:	1806d43a 	srli	r3,r3,16
 1808b7c:	288b883a 	add	r5,r5,r2
 1808b80:	200dd43a 	srai	r6,r4,16
 1808b84:	28bfffcc 	andi	r2,r5,65535
 1808b88:	1887c83a 	sub	r3,r3,r2
 1808b8c:	1987883a 	add	r3,r3,r6
 1808b90:	3900000d 	sth	r4,0(r7)
 1808b94:	38c0008d 	sth	r3,2(r7)
 1808b98:	2808d43a 	srli	r4,r5,16
 1808b9c:	39c00104 	addi	r7,r7,4
 1808ba0:	1811d43a 	srai	r8,r3,16
 1808ba4:	943fe92e 	bgeu	r18,r16,1808b4c <quorem+0x98>
 1808ba8:	8c45883a 	add	r2,r17,r17
 1808bac:	1085883a 	add	r2,r2,r2
 1808bb0:	9885883a 	add	r2,r19,r2
 1808bb4:	10c00017 	ldw	r3,0(r2)
 1808bb8:	18000b1e 	bne	r3,zero,1808be8 <quorem+0x134>
 1808bbc:	113fff04 	addi	r4,r2,-4
 1808bc0:	9900082e 	bgeu	r19,r4,1808be4 <quorem+0x130>
 1808bc4:	10bfff17 	ldw	r2,-4(r2)
 1808bc8:	10000326 	beq	r2,zero,1808bd8 <quorem+0x124>
 1808bcc:	00000506 	br	1808be4 <quorem+0x130>
 1808bd0:	20800017 	ldw	r2,0(r4)
 1808bd4:	1000031e 	bne	r2,zero,1808be4 <quorem+0x130>
 1808bd8:	213fff04 	addi	r4,r4,-4
 1808bdc:	8c7fffc4 	addi	r17,r17,-1
 1808be0:	993ffb36 	bltu	r19,r4,1808bd0 <quorem+0x11c>
 1808be4:	bc400415 	stw	r17,16(r23)
 1808be8:	a005883a 	mov	r2,r20
 1808bec:	dfc00917 	ldw	ra,36(sp)
 1808bf0:	df000817 	ldw	fp,32(sp)
 1808bf4:	ddc00717 	ldw	r23,28(sp)
 1808bf8:	dd800617 	ldw	r22,24(sp)
 1808bfc:	dd400517 	ldw	r21,20(sp)
 1808c00:	dd000417 	ldw	r20,16(sp)
 1808c04:	dcc00317 	ldw	r19,12(sp)
 1808c08:	dc800217 	ldw	r18,8(sp)
 1808c0c:	dc400117 	ldw	r17,4(sp)
 1808c10:	dc000017 	ldw	r16,0(sp)
 1808c14:	dec00a04 	addi	sp,sp,40
 1808c18:	f800283a 	ret
 1808c1c:	980f883a 	mov	r7,r19
 1808c20:	8011883a 	mov	r8,r16
 1808c24:	0013883a 	mov	r9,zero
 1808c28:	000d883a 	mov	r6,zero
 1808c2c:	40c00017 	ldw	r3,0(r8)
 1808c30:	39000017 	ldw	r4,0(r7)
 1808c34:	42000104 	addi	r8,r8,4
 1808c38:	18bfffcc 	andi	r2,r3,65535
 1808c3c:	a085383a 	mul	r2,r20,r2
 1808c40:	1806d43a 	srli	r3,r3,16
 1808c44:	217fffcc 	andi	r5,r4,65535
 1808c48:	3085883a 	add	r2,r6,r2
 1808c4c:	11bfffcc 	andi	r6,r2,65535
 1808c50:	a0c7383a 	mul	r3,r20,r3
 1808c54:	1004d43a 	srli	r2,r2,16
 1808c58:	298bc83a 	sub	r5,r5,r6
 1808c5c:	2a4b883a 	add	r5,r5,r9
 1808c60:	2008d43a 	srli	r4,r4,16
 1808c64:	1887883a 	add	r3,r3,r2
 1808c68:	280dd43a 	srai	r6,r5,16
 1808c6c:	18bfffcc 	andi	r2,r3,65535
 1808c70:	2089c83a 	sub	r4,r4,r2
 1808c74:	2189883a 	add	r4,r4,r6
 1808c78:	3900008d 	sth	r4,2(r7)
 1808c7c:	3940000d 	sth	r5,0(r7)
 1808c80:	180cd43a 	srli	r6,r3,16
 1808c84:	39c00104 	addi	r7,r7,4
 1808c88:	2013d43a 	srai	r9,r4,16
 1808c8c:	923fe72e 	bgeu	r18,r8,1808c2c <quorem+0x178>
 1808c90:	e03fa61e 	bne	fp,zero,1808b2c <quorem+0x78>
 1808c94:	b0ffff04 	addi	r3,r22,-4
 1808c98:	98c0082e 	bgeu	r19,r3,1808cbc <quorem+0x208>
 1808c9c:	b0bfff17 	ldw	r2,-4(r22)
 1808ca0:	10000326 	beq	r2,zero,1808cb0 <quorem+0x1fc>
 1808ca4:	00000506 	br	1808cbc <quorem+0x208>
 1808ca8:	18800017 	ldw	r2,0(r3)
 1808cac:	1000031e 	bne	r2,zero,1808cbc <quorem+0x208>
 1808cb0:	18ffff04 	addi	r3,r3,-4
 1808cb4:	8c7fffc4 	addi	r17,r17,-1
 1808cb8:	98fffb36 	bltu	r19,r3,1808ca8 <quorem+0x1f4>
 1808cbc:	bc400415 	stw	r17,16(r23)
 1808cc0:	003f9a06 	br	1808b2c <quorem+0x78>
 1808cc4:	0005883a 	mov	r2,zero
 1808cc8:	003fc806 	br	1808bec <quorem+0x138>

01808ccc <_dtoa_r>:
 1808ccc:	22001017 	ldw	r8,64(r4)
 1808cd0:	deffda04 	addi	sp,sp,-152
 1808cd4:	dd402115 	stw	r21,132(sp)
 1808cd8:	dd002015 	stw	r20,128(sp)
 1808cdc:	dc801e15 	stw	r18,120(sp)
 1808ce0:	dc401d15 	stw	r17,116(sp)
 1808ce4:	dfc02515 	stw	ra,148(sp)
 1808ce8:	df002415 	stw	fp,144(sp)
 1808cec:	ddc02315 	stw	r23,140(sp)
 1808cf0:	dd802215 	stw	r22,136(sp)
 1808cf4:	dcc01f15 	stw	r19,124(sp)
 1808cf8:	dc001c15 	stw	r16,112(sp)
 1808cfc:	d9001615 	stw	r4,88(sp)
 1808d00:	3023883a 	mov	r17,r6
 1808d04:	2829883a 	mov	r20,r5
 1808d08:	d9c01715 	stw	r7,92(sp)
 1808d0c:	dc802817 	ldw	r18,160(sp)
 1808d10:	302b883a 	mov	r21,r6
 1808d14:	40000a26 	beq	r8,zero,1808d40 <_dtoa_r+0x74>
 1808d18:	20801117 	ldw	r2,68(r4)
 1808d1c:	400b883a 	mov	r5,r8
 1808d20:	40800115 	stw	r2,4(r8)
 1808d24:	20c01117 	ldw	r3,68(r4)
 1808d28:	00800044 	movi	r2,1
 1808d2c:	10c4983a 	sll	r2,r2,r3
 1808d30:	40800215 	stw	r2,8(r8)
 1808d34:	180bdc00 	call	180bdc0 <_Bfree>
 1808d38:	d8c01617 	ldw	r3,88(sp)
 1808d3c:	18001015 	stw	zero,64(r3)
 1808d40:	8800a316 	blt	r17,zero,1808fd0 <_dtoa_r+0x304>
 1808d44:	90000015 	stw	zero,0(r18)
 1808d48:	a8dffc2c 	andhi	r3,r21,32752
 1808d4c:	009ffc34 	movhi	r2,32752
 1808d50:	18809126 	beq	r3,r2,1808f98 <_dtoa_r+0x2cc>
 1808d54:	000d883a 	mov	r6,zero
 1808d58:	000f883a 	mov	r7,zero
 1808d5c:	a009883a 	mov	r4,r20
 1808d60:	a80b883a 	mov	r5,r21
 1808d64:	dd001215 	stw	r20,72(sp)
 1808d68:	dd401315 	stw	r21,76(sp)
 1808d6c:	180e6f40 	call	180e6f4 <__nedf2>
 1808d70:	1000171e 	bne	r2,zero,1808dd0 <_dtoa_r+0x104>
 1808d74:	d9802717 	ldw	r6,156(sp)
 1808d78:	00800044 	movi	r2,1
 1808d7c:	30800015 	stw	r2,0(r6)
 1808d80:	d8802917 	ldw	r2,164(sp)
 1808d84:	10029b26 	beq	r2,zero,18097f4 <_dtoa_r+0xb28>
 1808d88:	d9002917 	ldw	r4,164(sp)
 1808d8c:	00806074 	movhi	r2,385
 1808d90:	10967144 	addi	r2,r2,22981
 1808d94:	10ffffc4 	addi	r3,r2,-1
 1808d98:	20800015 	stw	r2,0(r4)
 1808d9c:	1805883a 	mov	r2,r3
 1808da0:	dfc02517 	ldw	ra,148(sp)
 1808da4:	df002417 	ldw	fp,144(sp)
 1808da8:	ddc02317 	ldw	r23,140(sp)
 1808dac:	dd802217 	ldw	r22,136(sp)
 1808db0:	dd402117 	ldw	r21,132(sp)
 1808db4:	dd002017 	ldw	r20,128(sp)
 1808db8:	dcc01f17 	ldw	r19,124(sp)
 1808dbc:	dc801e17 	ldw	r18,120(sp)
 1808dc0:	dc401d17 	ldw	r17,116(sp)
 1808dc4:	dc001c17 	ldw	r16,112(sp)
 1808dc8:	dec02604 	addi	sp,sp,152
 1808dcc:	f800283a 	ret
 1808dd0:	d9001617 	ldw	r4,88(sp)
 1808dd4:	d9401217 	ldw	r5,72(sp)
 1808dd8:	d8800104 	addi	r2,sp,4
 1808ddc:	a80d883a 	mov	r6,r21
 1808de0:	d9c00204 	addi	r7,sp,8
 1808de4:	d8800015 	stw	r2,0(sp)
 1808de8:	180c3fc0 	call	180c3fc <__d2b>
 1808dec:	d8800715 	stw	r2,28(sp)
 1808df0:	a804d53a 	srli	r2,r21,20
 1808df4:	1101ffcc 	andi	r4,r2,2047
 1808df8:	20008626 	beq	r4,zero,1809014 <_dtoa_r+0x348>
 1808dfc:	d8c01217 	ldw	r3,72(sp)
 1808e00:	00800434 	movhi	r2,16
 1808e04:	10bfffc4 	addi	r2,r2,-1
 1808e08:	ddc00117 	ldw	r23,4(sp)
 1808e0c:	a884703a 	and	r2,r21,r2
 1808e10:	1811883a 	mov	r8,r3
 1808e14:	124ffc34 	orhi	r9,r2,16368
 1808e18:	25bf0044 	addi	r22,r4,-1023
 1808e1c:	d8000815 	stw	zero,32(sp)
 1808e20:	0005883a 	mov	r2,zero
 1808e24:	00cffe34 	movhi	r3,16376
 1808e28:	480b883a 	mov	r5,r9
 1808e2c:	4009883a 	mov	r4,r8
 1808e30:	180f883a 	mov	r7,r3
 1808e34:	100d883a 	mov	r6,r2
 1808e38:	18053b00 	call	18053b0 <__subdf3>
 1808e3c:	0218dbf4 	movhi	r8,25455
 1808e40:	4210d844 	addi	r8,r8,17249
 1808e44:	024ff4f4 	movhi	r9,16339
 1808e48:	4a61e9c4 	addi	r9,r9,-30809
 1808e4c:	480f883a 	mov	r7,r9
 1808e50:	400d883a 	mov	r6,r8
 1808e54:	180b883a 	mov	r5,r3
 1808e58:	1009883a 	mov	r4,r2
 1808e5c:	18054a40 	call	18054a4 <__muldf3>
 1808e60:	0222d874 	movhi	r8,35681
 1808e64:	42322cc4 	addi	r8,r8,-14157
 1808e68:	024ff1f4 	movhi	r9,16327
 1808e6c:	4a628a04 	addi	r9,r9,-30168
 1808e70:	480f883a 	mov	r7,r9
 1808e74:	400d883a 	mov	r6,r8
 1808e78:	180b883a 	mov	r5,r3
 1808e7c:	1009883a 	mov	r4,r2
 1808e80:	18054300 	call	1805430 <__adddf3>
 1808e84:	b009883a 	mov	r4,r22
 1808e88:	1021883a 	mov	r16,r2
 1808e8c:	1823883a 	mov	r17,r3
 1808e90:	1805ce00 	call	1805ce0 <__floatsidf>
 1808e94:	021427f4 	movhi	r8,20639
 1808e98:	421e7ec4 	addi	r8,r8,31227
 1808e9c:	024ff4f4 	movhi	r9,16339
 1808ea0:	4a5104c4 	addi	r9,r9,17427
 1808ea4:	480f883a 	mov	r7,r9
 1808ea8:	400d883a 	mov	r6,r8
 1808eac:	180b883a 	mov	r5,r3
 1808eb0:	1009883a 	mov	r4,r2
 1808eb4:	18054a40 	call	18054a4 <__muldf3>
 1808eb8:	180f883a 	mov	r7,r3
 1808ebc:	880b883a 	mov	r5,r17
 1808ec0:	100d883a 	mov	r6,r2
 1808ec4:	8009883a 	mov	r4,r16
 1808ec8:	18054300 	call	1805430 <__adddf3>
 1808ecc:	1009883a 	mov	r4,r2
 1808ed0:	180b883a 	mov	r5,r3
 1808ed4:	1021883a 	mov	r16,r2
 1808ed8:	1823883a 	mov	r17,r3
 1808edc:	1805dd80 	call	1805dd8 <__fixdfsi>
 1808ee0:	000d883a 	mov	r6,zero
 1808ee4:	000f883a 	mov	r7,zero
 1808ee8:	8009883a 	mov	r4,r16
 1808eec:	880b883a 	mov	r5,r17
 1808ef0:	d8800d15 	stw	r2,52(sp)
 1808ef4:	1805c580 	call	1805c58 <__ltdf2>
 1808ef8:	10031716 	blt	r2,zero,1809b58 <_dtoa_r+0xe8c>
 1808efc:	d8c00d17 	ldw	r3,52(sp)
 1808f00:	00800584 	movi	r2,22
 1808f04:	10c1482e 	bgeu	r2,r3,1809428 <_dtoa_r+0x75c>
 1808f08:	01000044 	movi	r4,1
 1808f0c:	d9000c15 	stw	r4,48(sp)
 1808f10:	bd85c83a 	sub	r2,r23,r22
 1808f14:	11bfffc4 	addi	r6,r2,-1
 1808f18:	30030b16 	blt	r6,zero,1809b48 <_dtoa_r+0xe7c>
 1808f1c:	d9800a15 	stw	r6,40(sp)
 1808f20:	d8001115 	stw	zero,68(sp)
 1808f24:	d8c00d17 	ldw	r3,52(sp)
 1808f28:	1802ff16 	blt	r3,zero,1809b28 <_dtoa_r+0xe5c>
 1808f2c:	d9000a17 	ldw	r4,40(sp)
 1808f30:	d8c00915 	stw	r3,36(sp)
 1808f34:	d8001015 	stw	zero,64(sp)
 1808f38:	20c9883a 	add	r4,r4,r3
 1808f3c:	d9000a15 	stw	r4,40(sp)
 1808f40:	d9001717 	ldw	r4,92(sp)
 1808f44:	00800244 	movi	r2,9
 1808f48:	11004636 	bltu	r2,r4,1809064 <_dtoa_r+0x398>
 1808f4c:	00800144 	movi	r2,5
 1808f50:	11020416 	blt	r2,r4,1809764 <_dtoa_r+0xa98>
 1808f54:	04400044 	movi	r17,1
 1808f58:	d8c01717 	ldw	r3,92(sp)
 1808f5c:	00800144 	movi	r2,5
 1808f60:	10c1ed36 	bltu	r2,r3,1809718 <_dtoa_r+0xa4c>
 1808f64:	18c5883a 	add	r2,r3,r3
 1808f68:	1085883a 	add	r2,r2,r2
 1808f6c:	00c06074 	movhi	r3,385
 1808f70:	18e3e004 	addi	r3,r3,-28800
 1808f74:	10c5883a 	add	r2,r2,r3
 1808f78:	11000017 	ldw	r4,0(r2)
 1808f7c:	2000683a 	jmp	r4
 1808f80:	0180906c 	andhi	r6,zero,577
 1808f84:	0180906c 	andhi	r6,zero,577
 1808f88:	01809a6c 	andhi	r6,zero,617
 1808f8c:	01809a44 	movi	r6,617
 1808f90:	01809a88 	cmpgei	r6,zero,618
 1808f94:	01809a94 	movui	r6,618
 1808f98:	d9002717 	ldw	r4,156(sp)
 1808f9c:	0089c3c4 	movi	r2,9999
 1808fa0:	20800015 	stw	r2,0(r4)
 1808fa4:	a0001026 	beq	r20,zero,1808fe8 <_dtoa_r+0x31c>
 1808fa8:	00c06074 	movhi	r3,385
 1808fac:	18d67d04 	addi	r3,r3,23028
 1808fb0:	d9802917 	ldw	r6,164(sp)
 1808fb4:	303f7926 	beq	r6,zero,1808d9c <_dtoa_r+0xd0>
 1808fb8:	188000c7 	ldb	r2,3(r3)
 1808fbc:	190000c4 	addi	r4,r3,3
 1808fc0:	1000101e 	bne	r2,zero,1809004 <_dtoa_r+0x338>
 1808fc4:	d8802917 	ldw	r2,164(sp)
 1808fc8:	11000015 	stw	r4,0(r2)
 1808fcc:	003f7306 	br	1808d9c <_dtoa_r+0xd0>
 1808fd0:	00a00034 	movhi	r2,32768
 1808fd4:	10bfffc4 	addi	r2,r2,-1
 1808fd8:	00c00044 	movi	r3,1
 1808fdc:	88aa703a 	and	r21,r17,r2
 1808fe0:	90c00015 	stw	r3,0(r18)
 1808fe4:	003f5806 	br	1808d48 <_dtoa_r+0x7c>
 1808fe8:	00800434 	movhi	r2,16
 1808fec:	10bfffc4 	addi	r2,r2,-1
 1808ff0:	a884703a 	and	r2,r21,r2
 1808ff4:	103fec1e 	bne	r2,zero,1808fa8 <_dtoa_r+0x2dc>
 1808ff8:	00c06074 	movhi	r3,385
 1808ffc:	18d67a04 	addi	r3,r3,23016
 1809000:	003feb06 	br	1808fb0 <_dtoa_r+0x2e4>
 1809004:	d8802917 	ldw	r2,164(sp)
 1809008:	19000204 	addi	r4,r3,8
 180900c:	11000015 	stw	r4,0(r2)
 1809010:	003f6206 	br	1808d9c <_dtoa_r+0xd0>
 1809014:	ddc00117 	ldw	r23,4(sp)
 1809018:	d8800217 	ldw	r2,8(sp)
 180901c:	01000804 	movi	r4,32
 1809020:	b8c10c84 	addi	r3,r23,1074
 1809024:	18a3883a 	add	r17,r3,r2
 1809028:	2441b80e 	bge	r4,r17,180970c <_dtoa_r+0xa40>
 180902c:	00c01004 	movi	r3,64
 1809030:	1c47c83a 	sub	r3,r3,r17
 1809034:	88bff804 	addi	r2,r17,-32
 1809038:	a8c6983a 	sll	r3,r21,r3
 180903c:	a084d83a 	srl	r2,r20,r2
 1809040:	1888b03a 	or	r4,r3,r2
 1809044:	180e77c0 	call	180e77c <__floatunsidf>
 1809048:	1011883a 	mov	r8,r2
 180904c:	00bf8434 	movhi	r2,65040
 1809050:	01000044 	movi	r4,1
 1809054:	10d3883a 	add	r9,r2,r3
 1809058:	8dbef344 	addi	r22,r17,-1075
 180905c:	d9000815 	stw	r4,32(sp)
 1809060:	003f6f06 	br	1808e20 <_dtoa_r+0x154>
 1809064:	d8001715 	stw	zero,92(sp)
 1809068:	04400044 	movi	r17,1
 180906c:	00bfffc4 	movi	r2,-1
 1809070:	00c00044 	movi	r3,1
 1809074:	d8800e15 	stw	r2,56(sp)
 1809078:	d8002615 	stw	zero,152(sp)
 180907c:	d8800f15 	stw	r2,60(sp)
 1809080:	d8c00b15 	stw	r3,44(sp)
 1809084:	1021883a 	mov	r16,r2
 1809088:	d8801617 	ldw	r2,88(sp)
 180908c:	10001115 	stw	zero,68(r2)
 1809090:	d8801617 	ldw	r2,88(sp)
 1809094:	11401117 	ldw	r5,68(r2)
 1809098:	1009883a 	mov	r4,r2
 180909c:	180c3400 	call	180c340 <_Balloc>
 18090a0:	d8c01617 	ldw	r3,88(sp)
 18090a4:	d8800515 	stw	r2,20(sp)
 18090a8:	18801015 	stw	r2,64(r3)
 18090ac:	00800384 	movi	r2,14
 18090b0:	14006836 	bltu	r2,r16,1809254 <_dtoa_r+0x588>
 18090b4:	8805003a 	cmpeq	r2,r17,zero
 18090b8:	1000661e 	bne	r2,zero,1809254 <_dtoa_r+0x588>
 18090bc:	d9000d17 	ldw	r4,52(sp)
 18090c0:	0102300e 	bge	zero,r4,1809984 <_dtoa_r+0xcb8>
 18090c4:	208003cc 	andi	r2,r4,15
 18090c8:	100490fa 	slli	r2,r2,3
 18090cc:	2025d13a 	srai	r18,r4,4
 18090d0:	00c06074 	movhi	r3,385
 18090d4:	18d68e04 	addi	r3,r3,23096
 18090d8:	10c5883a 	add	r2,r2,r3
 18090dc:	90c0040c 	andi	r3,r18,16
 18090e0:	14000017 	ldw	r16,0(r2)
 18090e4:	14400117 	ldw	r17,4(r2)
 18090e8:	18036a1e 	bne	r3,zero,1809e94 <_dtoa_r+0x11c8>
 18090ec:	05800084 	movi	r22,2
 18090f0:	90001026 	beq	r18,zero,1809134 <_dtoa_r+0x468>
 18090f4:	04c06074 	movhi	r19,385
 18090f8:	9cd6c004 	addi	r19,r19,23296
 18090fc:	9080004c 	andi	r2,r18,1
 1809100:	1005003a 	cmpeq	r2,r2,zero
 1809104:	1000081e 	bne	r2,zero,1809128 <_dtoa_r+0x45c>
 1809108:	99800017 	ldw	r6,0(r19)
 180910c:	99c00117 	ldw	r7,4(r19)
 1809110:	880b883a 	mov	r5,r17
 1809114:	8009883a 	mov	r4,r16
 1809118:	18054a40 	call	18054a4 <__muldf3>
 180911c:	1021883a 	mov	r16,r2
 1809120:	b5800044 	addi	r22,r22,1
 1809124:	1823883a 	mov	r17,r3
 1809128:	9025d07a 	srai	r18,r18,1
 180912c:	9cc00204 	addi	r19,r19,8
 1809130:	903ff21e 	bne	r18,zero,18090fc <_dtoa_r+0x430>
 1809134:	a80b883a 	mov	r5,r21
 1809138:	a009883a 	mov	r4,r20
 180913c:	880f883a 	mov	r7,r17
 1809140:	800d883a 	mov	r6,r16
 1809144:	18058680 	call	1805868 <__divdf3>
 1809148:	1029883a 	mov	r20,r2
 180914c:	182b883a 	mov	r21,r3
 1809150:	d8c00c17 	ldw	r3,48(sp)
 1809154:	1805003a 	cmpeq	r2,r3,zero
 1809158:	1000081e 	bne	r2,zero,180917c <_dtoa_r+0x4b0>
 180915c:	0005883a 	mov	r2,zero
 1809160:	00cffc34 	movhi	r3,16368
 1809164:	180f883a 	mov	r7,r3
 1809168:	a009883a 	mov	r4,r20
 180916c:	a80b883a 	mov	r5,r21
 1809170:	100d883a 	mov	r6,r2
 1809174:	1805c580 	call	1805c58 <__ltdf2>
 1809178:	1003fe16 	blt	r2,zero,180a174 <_dtoa_r+0x14a8>
 180917c:	b009883a 	mov	r4,r22
 1809180:	1805ce00 	call	1805ce0 <__floatsidf>
 1809184:	180b883a 	mov	r5,r3
 1809188:	1009883a 	mov	r4,r2
 180918c:	a00d883a 	mov	r6,r20
 1809190:	a80f883a 	mov	r7,r21
 1809194:	18054a40 	call	18054a4 <__muldf3>
 1809198:	0011883a 	mov	r8,zero
 180919c:	02500734 	movhi	r9,16412
 18091a0:	1009883a 	mov	r4,r2
 18091a4:	180b883a 	mov	r5,r3
 18091a8:	480f883a 	mov	r7,r9
 18091ac:	400d883a 	mov	r6,r8
 18091b0:	18054300 	call	1805430 <__adddf3>
 18091b4:	d9000f17 	ldw	r4,60(sp)
 18091b8:	102d883a 	mov	r22,r2
 18091bc:	00bf3034 	movhi	r2,64704
 18091c0:	18b9883a 	add	fp,r3,r2
 18091c4:	e02f883a 	mov	r23,fp
 18091c8:	20028f1e 	bne	r4,zero,1809c08 <_dtoa_r+0xf3c>
 18091cc:	0005883a 	mov	r2,zero
 18091d0:	00d00534 	movhi	r3,16404
 18091d4:	a009883a 	mov	r4,r20
 18091d8:	a80b883a 	mov	r5,r21
 18091dc:	180f883a 	mov	r7,r3
 18091e0:	100d883a 	mov	r6,r2
 18091e4:	18053b00 	call	18053b0 <__subdf3>
 18091e8:	1009883a 	mov	r4,r2
 18091ec:	e00f883a 	mov	r7,fp
 18091f0:	180b883a 	mov	r5,r3
 18091f4:	b00d883a 	mov	r6,r22
 18091f8:	1025883a 	mov	r18,r2
 18091fc:	1827883a 	mov	r19,r3
 1809200:	1805b480 	call	1805b48 <__gtdf2>
 1809204:	00834f16 	blt	zero,r2,1809f44 <_dtoa_r+0x1278>
 1809208:	e0e0003c 	xorhi	r3,fp,32768
 180920c:	9009883a 	mov	r4,r18
 1809210:	980b883a 	mov	r5,r19
 1809214:	180f883a 	mov	r7,r3
 1809218:	b00d883a 	mov	r6,r22
 180921c:	1805c580 	call	1805c58 <__ltdf2>
 1809220:	1000080e 	bge	r2,zero,1809244 <_dtoa_r+0x578>
 1809224:	0027883a 	mov	r19,zero
 1809228:	0025883a 	mov	r18,zero
 180922c:	d8802617 	ldw	r2,152(sp)
 1809230:	df000517 	ldw	fp,20(sp)
 1809234:	d8000615 	stw	zero,24(sp)
 1809238:	0084303a 	nor	r2,zero,r2
 180923c:	d8800d15 	stw	r2,52(sp)
 1809240:	00019b06 	br	18098b0 <_dtoa_r+0xbe4>
 1809244:	d9801217 	ldw	r6,72(sp)
 1809248:	d8801317 	ldw	r2,76(sp)
 180924c:	3029883a 	mov	r20,r6
 1809250:	102b883a 	mov	r21,r2
 1809254:	d8c00217 	ldw	r3,8(sp)
 1809258:	18008516 	blt	r3,zero,1809470 <_dtoa_r+0x7a4>
 180925c:	d9000d17 	ldw	r4,52(sp)
 1809260:	00800384 	movi	r2,14
 1809264:	11008216 	blt	r2,r4,1809470 <_dtoa_r+0x7a4>
 1809268:	200490fa 	slli	r2,r4,3
 180926c:	d9802617 	ldw	r6,152(sp)
 1809270:	00c06074 	movhi	r3,385
 1809274:	18d68e04 	addi	r3,r3,23096
 1809278:	10c5883a 	add	r2,r2,r3
 180927c:	14800017 	ldw	r18,0(r2)
 1809280:	14c00117 	ldw	r19,4(r2)
 1809284:	30031e16 	blt	r6,zero,1809f00 <_dtoa_r+0x1234>
 1809288:	d9000517 	ldw	r4,20(sp)
 180928c:	d8c00f17 	ldw	r3,60(sp)
 1809290:	a823883a 	mov	r17,r21
 1809294:	a021883a 	mov	r16,r20
 1809298:	192b883a 	add	r21,r3,r4
 180929c:	2039883a 	mov	fp,r4
 18092a0:	00000f06 	br	18092e0 <_dtoa_r+0x614>
 18092a4:	0005883a 	mov	r2,zero
 18092a8:	00d00934 	movhi	r3,16420
 18092ac:	5009883a 	mov	r4,r10
 18092b0:	580b883a 	mov	r5,r11
 18092b4:	180f883a 	mov	r7,r3
 18092b8:	100d883a 	mov	r6,r2
 18092bc:	18054a40 	call	18054a4 <__muldf3>
 18092c0:	180b883a 	mov	r5,r3
 18092c4:	000d883a 	mov	r6,zero
 18092c8:	000f883a 	mov	r7,zero
 18092cc:	1009883a 	mov	r4,r2
 18092d0:	1021883a 	mov	r16,r2
 18092d4:	1823883a 	mov	r17,r3
 18092d8:	180e6f40 	call	180e6f4 <__nedf2>
 18092dc:	10004526 	beq	r2,zero,18093f4 <_dtoa_r+0x728>
 18092e0:	900d883a 	mov	r6,r18
 18092e4:	980f883a 	mov	r7,r19
 18092e8:	8009883a 	mov	r4,r16
 18092ec:	880b883a 	mov	r5,r17
 18092f0:	18058680 	call	1805868 <__divdf3>
 18092f4:	180b883a 	mov	r5,r3
 18092f8:	1009883a 	mov	r4,r2
 18092fc:	1805dd80 	call	1805dd8 <__fixdfsi>
 1809300:	1009883a 	mov	r4,r2
 1809304:	1029883a 	mov	r20,r2
 1809308:	1805ce00 	call	1805ce0 <__floatsidf>
 180930c:	180f883a 	mov	r7,r3
 1809310:	9009883a 	mov	r4,r18
 1809314:	980b883a 	mov	r5,r19
 1809318:	100d883a 	mov	r6,r2
 180931c:	18054a40 	call	18054a4 <__muldf3>
 1809320:	180f883a 	mov	r7,r3
 1809324:	880b883a 	mov	r5,r17
 1809328:	8009883a 	mov	r4,r16
 180932c:	100d883a 	mov	r6,r2
 1809330:	18053b00 	call	18053b0 <__subdf3>
 1809334:	1015883a 	mov	r10,r2
 1809338:	a0800c04 	addi	r2,r20,48
 180933c:	e0800005 	stb	r2,0(fp)
 1809340:	e7000044 	addi	fp,fp,1
 1809344:	1817883a 	mov	r11,r3
 1809348:	e57fd61e 	bne	fp,r21,18092a4 <_dtoa_r+0x5d8>
 180934c:	500d883a 	mov	r6,r10
 1809350:	180f883a 	mov	r7,r3
 1809354:	5009883a 	mov	r4,r10
 1809358:	180b883a 	mov	r5,r3
 180935c:	18054300 	call	1805430 <__adddf3>
 1809360:	100d883a 	mov	r6,r2
 1809364:	9009883a 	mov	r4,r18
 1809368:	980b883a 	mov	r5,r19
 180936c:	180f883a 	mov	r7,r3
 1809370:	1021883a 	mov	r16,r2
 1809374:	1823883a 	mov	r17,r3
 1809378:	1805c580 	call	1805c58 <__ltdf2>
 180937c:	10000816 	blt	r2,zero,18093a0 <_dtoa_r+0x6d4>
 1809380:	980b883a 	mov	r5,r19
 1809384:	800d883a 	mov	r6,r16
 1809388:	880f883a 	mov	r7,r17
 180938c:	9009883a 	mov	r4,r18
 1809390:	1805ac00 	call	1805ac0 <__eqdf2>
 1809394:	1000171e 	bne	r2,zero,18093f4 <_dtoa_r+0x728>
 1809398:	a080004c 	andi	r2,r20,1
 180939c:	10001526 	beq	r2,zero,18093f4 <_dtoa_r+0x728>
 18093a0:	d8800d17 	ldw	r2,52(sp)
 18093a4:	d8800415 	stw	r2,16(sp)
 18093a8:	e009883a 	mov	r4,fp
 18093ac:	213fffc4 	addi	r4,r4,-1
 18093b0:	20c00007 	ldb	r3,0(r4)
 18093b4:	00800e44 	movi	r2,57
 18093b8:	1880081e 	bne	r3,r2,18093dc <_dtoa_r+0x710>
 18093bc:	d8800517 	ldw	r2,20(sp)
 18093c0:	113ffa1e 	bne	r2,r4,18093ac <_dtoa_r+0x6e0>
 18093c4:	d8c00417 	ldw	r3,16(sp)
 18093c8:	d9800517 	ldw	r6,20(sp)
 18093cc:	00800c04 	movi	r2,48
 18093d0:	18c00044 	addi	r3,r3,1
 18093d4:	d8c00415 	stw	r3,16(sp)
 18093d8:	30800005 	stb	r2,0(r6)
 18093dc:	20800003 	ldbu	r2,0(r4)
 18093e0:	d8c00417 	ldw	r3,16(sp)
 18093e4:	27000044 	addi	fp,r4,1
 18093e8:	10800044 	addi	r2,r2,1
 18093ec:	d8c00d15 	stw	r3,52(sp)
 18093f0:	20800005 	stb	r2,0(r4)
 18093f4:	d9001617 	ldw	r4,88(sp)
 18093f8:	d9400717 	ldw	r5,28(sp)
 18093fc:	180bdc00 	call	180bdc0 <_Bfree>
 1809400:	e0000005 	stb	zero,0(fp)
 1809404:	d9800d17 	ldw	r6,52(sp)
 1809408:	d8c02717 	ldw	r3,156(sp)
 180940c:	d9002917 	ldw	r4,164(sp)
 1809410:	30800044 	addi	r2,r6,1
 1809414:	18800015 	stw	r2,0(r3)
 1809418:	20029c26 	beq	r4,zero,1809e8c <_dtoa_r+0x11c0>
 180941c:	d8c00517 	ldw	r3,20(sp)
 1809420:	27000015 	stw	fp,0(r4)
 1809424:	003e5d06 	br	1808d9c <_dtoa_r+0xd0>
 1809428:	d9800d17 	ldw	r6,52(sp)
 180942c:	00c06074 	movhi	r3,385
 1809430:	18d68e04 	addi	r3,r3,23096
 1809434:	d9001217 	ldw	r4,72(sp)
 1809438:	300490fa 	slli	r2,r6,3
 180943c:	d9401317 	ldw	r5,76(sp)
 1809440:	10c5883a 	add	r2,r2,r3
 1809444:	12000017 	ldw	r8,0(r2)
 1809448:	12400117 	ldw	r9,4(r2)
 180944c:	400d883a 	mov	r6,r8
 1809450:	480f883a 	mov	r7,r9
 1809454:	1805c580 	call	1805c58 <__ltdf2>
 1809458:	1000030e 	bge	r2,zero,1809468 <_dtoa_r+0x79c>
 180945c:	d8800d17 	ldw	r2,52(sp)
 1809460:	10bfffc4 	addi	r2,r2,-1
 1809464:	d8800d15 	stw	r2,52(sp)
 1809468:	d8000c15 	stw	zero,48(sp)
 180946c:	003ea806 	br	1808f10 <_dtoa_r+0x244>
 1809470:	d9000b17 	ldw	r4,44(sp)
 1809474:	202cc03a 	cmpne	r22,r4,zero
 1809478:	b000c71e 	bne	r22,zero,1809798 <_dtoa_r+0xacc>
 180947c:	dc001117 	ldw	r16,68(sp)
 1809480:	dc801017 	ldw	r18,64(sp)
 1809484:	0027883a 	mov	r19,zero
 1809488:	04000b0e 	bge	zero,r16,18094b8 <_dtoa_r+0x7ec>
 180948c:	d8c00a17 	ldw	r3,40(sp)
 1809490:	00c0090e 	bge	zero,r3,18094b8 <_dtoa_r+0x7ec>
 1809494:	8005883a 	mov	r2,r16
 1809498:	1c011316 	blt	r3,r16,18098e8 <_dtoa_r+0xc1c>
 180949c:	d9000a17 	ldw	r4,40(sp)
 18094a0:	d9801117 	ldw	r6,68(sp)
 18094a4:	80a1c83a 	sub	r16,r16,r2
 18094a8:	2089c83a 	sub	r4,r4,r2
 18094ac:	308dc83a 	sub	r6,r6,r2
 18094b0:	d9000a15 	stw	r4,40(sp)
 18094b4:	d9801115 	stw	r6,68(sp)
 18094b8:	d8801017 	ldw	r2,64(sp)
 18094bc:	0080150e 	bge	zero,r2,1809514 <_dtoa_r+0x848>
 18094c0:	d8c00b17 	ldw	r3,44(sp)
 18094c4:	1805003a 	cmpeq	r2,r3,zero
 18094c8:	1001c91e 	bne	r2,zero,1809bf0 <_dtoa_r+0xf24>
 18094cc:	04800e0e 	bge	zero,r18,1809508 <_dtoa_r+0x83c>
 18094d0:	d9001617 	ldw	r4,88(sp)
 18094d4:	980b883a 	mov	r5,r19
 18094d8:	900d883a 	mov	r6,r18
 18094dc:	180cb740 	call	180cb74 <__pow5mult>
 18094e0:	d9001617 	ldw	r4,88(sp)
 18094e4:	d9800717 	ldw	r6,28(sp)
 18094e8:	100b883a 	mov	r5,r2
 18094ec:	1027883a 	mov	r19,r2
 18094f0:	180c8500 	call	180c850 <__multiply>
 18094f4:	d9001617 	ldw	r4,88(sp)
 18094f8:	d9400717 	ldw	r5,28(sp)
 18094fc:	1023883a 	mov	r17,r2
 1809500:	180bdc00 	call	180bdc0 <_Bfree>
 1809504:	dc400715 	stw	r17,28(sp)
 1809508:	d9001017 	ldw	r4,64(sp)
 180950c:	248dc83a 	sub	r6,r4,r18
 1809510:	30010e1e 	bne	r6,zero,180994c <_dtoa_r+0xc80>
 1809514:	d9001617 	ldw	r4,88(sp)
 1809518:	04400044 	movi	r17,1
 180951c:	880b883a 	mov	r5,r17
 1809520:	180ca380 	call	180ca38 <__i2b>
 1809524:	d9800917 	ldw	r6,36(sp)
 1809528:	1025883a 	mov	r18,r2
 180952c:	0180040e 	bge	zero,r6,1809540 <_dtoa_r+0x874>
 1809530:	d9001617 	ldw	r4,88(sp)
 1809534:	100b883a 	mov	r5,r2
 1809538:	180cb740 	call	180cb74 <__pow5mult>
 180953c:	1025883a 	mov	r18,r2
 1809540:	d8801717 	ldw	r2,92(sp)
 1809544:	8880f30e 	bge	r17,r2,1809914 <_dtoa_r+0xc48>
 1809548:	0023883a 	mov	r17,zero
 180954c:	d9800917 	ldw	r6,36(sp)
 1809550:	30019e1e 	bne	r6,zero,1809bcc <_dtoa_r+0xf00>
 1809554:	00c00044 	movi	r3,1
 1809558:	d9000a17 	ldw	r4,40(sp)
 180955c:	20c5883a 	add	r2,r4,r3
 1809560:	10c007cc 	andi	r3,r2,31
 1809564:	1800841e 	bne	r3,zero,1809778 <_dtoa_r+0xaac>
 1809568:	00800704 	movi	r2,28
 180956c:	d9000a17 	ldw	r4,40(sp)
 1809570:	d9801117 	ldw	r6,68(sp)
 1809574:	80a1883a 	add	r16,r16,r2
 1809578:	2089883a 	add	r4,r4,r2
 180957c:	308d883a 	add	r6,r6,r2
 1809580:	d9000a15 	stw	r4,40(sp)
 1809584:	d9801115 	stw	r6,68(sp)
 1809588:	d8801117 	ldw	r2,68(sp)
 180958c:	0080050e 	bge	zero,r2,18095a4 <_dtoa_r+0x8d8>
 1809590:	d9400717 	ldw	r5,28(sp)
 1809594:	d9001617 	ldw	r4,88(sp)
 1809598:	100d883a 	mov	r6,r2
 180959c:	180c7040 	call	180c704 <__lshift>
 18095a0:	d8800715 	stw	r2,28(sp)
 18095a4:	d8c00a17 	ldw	r3,40(sp)
 18095a8:	00c0050e 	bge	zero,r3,18095c0 <_dtoa_r+0x8f4>
 18095ac:	d9001617 	ldw	r4,88(sp)
 18095b0:	900b883a 	mov	r5,r18
 18095b4:	180d883a 	mov	r6,r3
 18095b8:	180c7040 	call	180c704 <__lshift>
 18095bc:	1025883a 	mov	r18,r2
 18095c0:	d9000c17 	ldw	r4,48(sp)
 18095c4:	2005003a 	cmpeq	r2,r4,zero
 18095c8:	10016f26 	beq	r2,zero,1809b88 <_dtoa_r+0xebc>
 18095cc:	d9000f17 	ldw	r4,60(sp)
 18095d0:	0102170e 	bge	zero,r4,1809e30 <_dtoa_r+0x1164>
 18095d4:	d9800b17 	ldw	r6,44(sp)
 18095d8:	3005003a 	cmpeq	r2,r6,zero
 18095dc:	1000881e 	bne	r2,zero,1809800 <_dtoa_r+0xb34>
 18095e0:	0400050e 	bge	zero,r16,18095f8 <_dtoa_r+0x92c>
 18095e4:	d9001617 	ldw	r4,88(sp)
 18095e8:	980b883a 	mov	r5,r19
 18095ec:	800d883a 	mov	r6,r16
 18095f0:	180c7040 	call	180c704 <__lshift>
 18095f4:	1027883a 	mov	r19,r2
 18095f8:	8804c03a 	cmpne	r2,r17,zero
 18095fc:	1002541e 	bne	r2,zero,1809f50 <_dtoa_r+0x1284>
 1809600:	980b883a 	mov	r5,r19
 1809604:	dd800517 	ldw	r22,20(sp)
 1809608:	dcc00615 	stw	r19,24(sp)
 180960c:	a700004c 	andi	fp,r20,1
 1809610:	2827883a 	mov	r19,r5
 1809614:	d9000717 	ldw	r4,28(sp)
 1809618:	900b883a 	mov	r5,r18
 180961c:	1808ab40 	call	1808ab4 <quorem>
 1809620:	d9000717 	ldw	r4,28(sp)
 1809624:	d9400617 	ldw	r5,24(sp)
 1809628:	1023883a 	mov	r17,r2
 180962c:	8dc00c04 	addi	r23,r17,48
 1809630:	180bf1c0 	call	180bf1c <__mcmp>
 1809634:	d9001617 	ldw	r4,88(sp)
 1809638:	900b883a 	mov	r5,r18
 180963c:	980d883a 	mov	r6,r19
 1809640:	1029883a 	mov	r20,r2
 1809644:	180c5780 	call	180c578 <__mdiff>
 1809648:	102b883a 	mov	r21,r2
 180964c:	10800317 	ldw	r2,12(r2)
 1809650:	1001281e 	bne	r2,zero,1809af4 <_dtoa_r+0xe28>
 1809654:	d9000717 	ldw	r4,28(sp)
 1809658:	a80b883a 	mov	r5,r21
 180965c:	180bf1c0 	call	180bf1c <__mcmp>
 1809660:	d9001617 	ldw	r4,88(sp)
 1809664:	1021883a 	mov	r16,r2
 1809668:	a80b883a 	mov	r5,r21
 180966c:	180bdc00 	call	180bdc0 <_Bfree>
 1809670:	8000041e 	bne	r16,zero,1809684 <_dtoa_r+0x9b8>
 1809674:	d8801717 	ldw	r2,92(sp)
 1809678:	1000021e 	bne	r2,zero,1809684 <_dtoa_r+0x9b8>
 180967c:	e004c03a 	cmpne	r2,fp,zero
 1809680:	10011726 	beq	r2,zero,1809ae0 <_dtoa_r+0xe14>
 1809684:	a0010616 	blt	r20,zero,1809aa0 <_dtoa_r+0xdd4>
 1809688:	a000041e 	bne	r20,zero,180969c <_dtoa_r+0x9d0>
 180968c:	d8c01717 	ldw	r3,92(sp)
 1809690:	1800021e 	bne	r3,zero,180969c <_dtoa_r+0x9d0>
 1809694:	e004c03a 	cmpne	r2,fp,zero
 1809698:	10010126 	beq	r2,zero,1809aa0 <_dtoa_r+0xdd4>
 180969c:	04023d16 	blt	zero,r16,1809f94 <_dtoa_r+0x12c8>
 18096a0:	b5c00005 	stb	r23,0(r22)
 18096a4:	d9800517 	ldw	r6,20(sp)
 18096a8:	d9000f17 	ldw	r4,60(sp)
 18096ac:	b5800044 	addi	r22,r22,1
 18096b0:	3105883a 	add	r2,r6,r4
 18096b4:	b0806526 	beq	r22,r2,180984c <_dtoa_r+0xb80>
 18096b8:	d9400717 	ldw	r5,28(sp)
 18096bc:	d9001617 	ldw	r4,88(sp)
 18096c0:	01800284 	movi	r6,10
 18096c4:	000f883a 	mov	r7,zero
 18096c8:	180ca740 	call	180ca74 <__multadd>
 18096cc:	d8800715 	stw	r2,28(sp)
 18096d0:	d8800617 	ldw	r2,24(sp)
 18096d4:	14c10c26 	beq	r2,r19,1809b08 <_dtoa_r+0xe3c>
 18096d8:	d9400617 	ldw	r5,24(sp)
 18096dc:	d9001617 	ldw	r4,88(sp)
 18096e0:	01800284 	movi	r6,10
 18096e4:	000f883a 	mov	r7,zero
 18096e8:	180ca740 	call	180ca74 <__multadd>
 18096ec:	d9001617 	ldw	r4,88(sp)
 18096f0:	980b883a 	mov	r5,r19
 18096f4:	01800284 	movi	r6,10
 18096f8:	000f883a 	mov	r7,zero
 18096fc:	d8800615 	stw	r2,24(sp)
 1809700:	180ca740 	call	180ca74 <__multadd>
 1809704:	1027883a 	mov	r19,r2
 1809708:	003fc206 	br	1809614 <_dtoa_r+0x948>
 180970c:	2445c83a 	sub	r2,r4,r17
 1809710:	a088983a 	sll	r4,r20,r2
 1809714:	003e4b06 	br	1809044 <_dtoa_r+0x378>
 1809718:	01bfffc4 	movi	r6,-1
 180971c:	00800044 	movi	r2,1
 1809720:	d9800e15 	stw	r6,56(sp)
 1809724:	d9800f15 	stw	r6,60(sp)
 1809728:	d8800b15 	stw	r2,44(sp)
 180972c:	d8c01617 	ldw	r3,88(sp)
 1809730:	008005c4 	movi	r2,23
 1809734:	18001115 	stw	zero,68(r3)
 1809738:	1580082e 	bgeu	r2,r22,180975c <_dtoa_r+0xa90>
 180973c:	00c00104 	movi	r3,4
 1809740:	0009883a 	mov	r4,zero
 1809744:	18c7883a 	add	r3,r3,r3
 1809748:	18800504 	addi	r2,r3,20
 180974c:	21000044 	addi	r4,r4,1
 1809750:	b0bffc2e 	bgeu	r22,r2,1809744 <_dtoa_r+0xa78>
 1809754:	d9801617 	ldw	r6,88(sp)
 1809758:	31001115 	stw	r4,68(r6)
 180975c:	dc000f17 	ldw	r16,60(sp)
 1809760:	003e4b06 	br	1809090 <_dtoa_r+0x3c4>
 1809764:	d9801717 	ldw	r6,92(sp)
 1809768:	0023883a 	mov	r17,zero
 180976c:	31bfff04 	addi	r6,r6,-4
 1809770:	d9801715 	stw	r6,92(sp)
 1809774:	003df806 	br	1808f58 <_dtoa_r+0x28c>
 1809778:	00800804 	movi	r2,32
 180977c:	10c9c83a 	sub	r4,r2,r3
 1809780:	00c00104 	movi	r3,4
 1809784:	19005a16 	blt	r3,r4,18098f0 <_dtoa_r+0xc24>
 1809788:	008000c4 	movi	r2,3
 180978c:	113f7e16 	blt	r2,r4,1809588 <_dtoa_r+0x8bc>
 1809790:	20800704 	addi	r2,r4,28
 1809794:	003f7506 	br	180956c <_dtoa_r+0x8a0>
 1809798:	d9801717 	ldw	r6,92(sp)
 180979c:	00800044 	movi	r2,1
 18097a0:	1180a10e 	bge	r2,r6,1809a28 <_dtoa_r+0xd5c>
 18097a4:	d9800f17 	ldw	r6,60(sp)
 18097a8:	d8c01017 	ldw	r3,64(sp)
 18097ac:	30bfffc4 	addi	r2,r6,-1
 18097b0:	1881c616 	blt	r3,r2,1809ecc <_dtoa_r+0x1200>
 18097b4:	18a5c83a 	sub	r18,r3,r2
 18097b8:	d8800f17 	ldw	r2,60(sp)
 18097bc:	10026216 	blt	r2,zero,180a148 <_dtoa_r+0x147c>
 18097c0:	dc001117 	ldw	r16,68(sp)
 18097c4:	1007883a 	mov	r3,r2
 18097c8:	d9800a17 	ldw	r6,40(sp)
 18097cc:	d8801117 	ldw	r2,68(sp)
 18097d0:	d9001617 	ldw	r4,88(sp)
 18097d4:	30cd883a 	add	r6,r6,r3
 18097d8:	10c5883a 	add	r2,r2,r3
 18097dc:	01400044 	movi	r5,1
 18097e0:	d9800a15 	stw	r6,40(sp)
 18097e4:	d8801115 	stw	r2,68(sp)
 18097e8:	180ca380 	call	180ca38 <__i2b>
 18097ec:	1027883a 	mov	r19,r2
 18097f0:	003f2506 	br	1809488 <_dtoa_r+0x7bc>
 18097f4:	00c06074 	movhi	r3,385
 18097f8:	18d67104 	addi	r3,r3,22980
 18097fc:	003d6706 	br	1808d9c <_dtoa_r+0xd0>
 1809800:	dd800517 	ldw	r22,20(sp)
 1809804:	04000044 	movi	r16,1
 1809808:	00000706 	br	1809828 <_dtoa_r+0xb5c>
 180980c:	d9400717 	ldw	r5,28(sp)
 1809810:	d9001617 	ldw	r4,88(sp)
 1809814:	01800284 	movi	r6,10
 1809818:	000f883a 	mov	r7,zero
 180981c:	180ca740 	call	180ca74 <__multadd>
 1809820:	d8800715 	stw	r2,28(sp)
 1809824:	84000044 	addi	r16,r16,1
 1809828:	d9000717 	ldw	r4,28(sp)
 180982c:	900b883a 	mov	r5,r18
 1809830:	1808ab40 	call	1808ab4 <quorem>
 1809834:	15c00c04 	addi	r23,r2,48
 1809838:	b5c00005 	stb	r23,0(r22)
 180983c:	d8c00f17 	ldw	r3,60(sp)
 1809840:	b5800044 	addi	r22,r22,1
 1809844:	80fff116 	blt	r16,r3,180980c <_dtoa_r+0xb40>
 1809848:	d8000615 	stw	zero,24(sp)
 180984c:	d9400717 	ldw	r5,28(sp)
 1809850:	d9001617 	ldw	r4,88(sp)
 1809854:	01800044 	movi	r6,1
 1809858:	180c7040 	call	180c704 <__lshift>
 180985c:	1009883a 	mov	r4,r2
 1809860:	900b883a 	mov	r5,r18
 1809864:	d8800715 	stw	r2,28(sp)
 1809868:	180bf1c0 	call	180bf1c <__mcmp>
 180986c:	00803c0e 	bge	zero,r2,1809960 <_dtoa_r+0xc94>
 1809870:	b009883a 	mov	r4,r22
 1809874:	213fffc4 	addi	r4,r4,-1
 1809878:	21400003 	ldbu	r5,0(r4)
 180987c:	00800e44 	movi	r2,57
 1809880:	28c03fcc 	andi	r3,r5,255
 1809884:	18c0201c 	xori	r3,r3,128
 1809888:	18ffe004 	addi	r3,r3,-128
 180988c:	1881981e 	bne	r3,r2,1809ef0 <_dtoa_r+0x1224>
 1809890:	d9800517 	ldw	r6,20(sp)
 1809894:	21bff71e 	bne	r4,r6,1809874 <_dtoa_r+0xba8>
 1809898:	d8800d17 	ldw	r2,52(sp)
 180989c:	37000044 	addi	fp,r6,1
 18098a0:	10800044 	addi	r2,r2,1
 18098a4:	d8800d15 	stw	r2,52(sp)
 18098a8:	00800c44 	movi	r2,49
 18098ac:	30800005 	stb	r2,0(r6)
 18098b0:	d9001617 	ldw	r4,88(sp)
 18098b4:	900b883a 	mov	r5,r18
 18098b8:	180bdc00 	call	180bdc0 <_Bfree>
 18098bc:	983ecd26 	beq	r19,zero,18093f4 <_dtoa_r+0x728>
 18098c0:	d8c00617 	ldw	r3,24(sp)
 18098c4:	18000426 	beq	r3,zero,18098d8 <_dtoa_r+0xc0c>
 18098c8:	1cc00326 	beq	r3,r19,18098d8 <_dtoa_r+0xc0c>
 18098cc:	d9001617 	ldw	r4,88(sp)
 18098d0:	180b883a 	mov	r5,r3
 18098d4:	180bdc00 	call	180bdc0 <_Bfree>
 18098d8:	d9001617 	ldw	r4,88(sp)
 18098dc:	980b883a 	mov	r5,r19
 18098e0:	180bdc00 	call	180bdc0 <_Bfree>
 18098e4:	003ec306 	br	18093f4 <_dtoa_r+0x728>
 18098e8:	1805883a 	mov	r2,r3
 18098ec:	003eeb06 	br	180949c <_dtoa_r+0x7d0>
 18098f0:	d9800a17 	ldw	r6,40(sp)
 18098f4:	d8c01117 	ldw	r3,68(sp)
 18098f8:	20bfff04 	addi	r2,r4,-4
 18098fc:	308d883a 	add	r6,r6,r2
 1809900:	1887883a 	add	r3,r3,r2
 1809904:	80a1883a 	add	r16,r16,r2
 1809908:	d9800a15 	stw	r6,40(sp)
 180990c:	d8c01115 	stw	r3,68(sp)
 1809910:	003f1d06 	br	1809588 <_dtoa_r+0x8bc>
 1809914:	a03f0c1e 	bne	r20,zero,1809548 <_dtoa_r+0x87c>
 1809918:	00800434 	movhi	r2,16
 180991c:	10bfffc4 	addi	r2,r2,-1
 1809920:	a884703a 	and	r2,r21,r2
 1809924:	103f081e 	bne	r2,zero,1809548 <_dtoa_r+0x87c>
 1809928:	a89ffc2c 	andhi	r2,r21,32752
 180992c:	103f0626 	beq	r2,zero,1809548 <_dtoa_r+0x87c>
 1809930:	d8c01117 	ldw	r3,68(sp)
 1809934:	d9000a17 	ldw	r4,40(sp)
 1809938:	18c00044 	addi	r3,r3,1
 180993c:	21000044 	addi	r4,r4,1
 1809940:	d8c01115 	stw	r3,68(sp)
 1809944:	d9000a15 	stw	r4,40(sp)
 1809948:	003f0006 	br	180954c <_dtoa_r+0x880>
 180994c:	d9400717 	ldw	r5,28(sp)
 1809950:	d9001617 	ldw	r4,88(sp)
 1809954:	180cb740 	call	180cb74 <__pow5mult>
 1809958:	d8800715 	stw	r2,28(sp)
 180995c:	003eed06 	br	1809514 <_dtoa_r+0x848>
 1809960:	1000021e 	bne	r2,zero,180996c <_dtoa_r+0xca0>
 1809964:	b880004c 	andi	r2,r23,1
 1809968:	103fc11e 	bne	r2,zero,1809870 <_dtoa_r+0xba4>
 180996c:	b5bfffc4 	addi	r22,r22,-1
 1809970:	b0c00007 	ldb	r3,0(r22)
 1809974:	00800c04 	movi	r2,48
 1809978:	18bffc26 	beq	r3,r2,180996c <_dtoa_r+0xca0>
 180997c:	b7000044 	addi	fp,r22,1
 1809980:	003fcb06 	br	18098b0 <_dtoa_r+0xbe4>
 1809984:	d9800d17 	ldw	r6,52(sp)
 1809988:	018fc83a 	sub	r7,zero,r6
 180998c:	3801f726 	beq	r7,zero,180a16c <_dtoa_r+0x14a0>
 1809990:	398003cc 	andi	r6,r7,15
 1809994:	300c90fa 	slli	r6,r6,3
 1809998:	01406074 	movhi	r5,385
 180999c:	29568e04 	addi	r5,r5,23096
 18099a0:	d9001217 	ldw	r4,72(sp)
 18099a4:	314d883a 	add	r6,r6,r5
 18099a8:	30c00117 	ldw	r3,4(r6)
 18099ac:	30800017 	ldw	r2,0(r6)
 18099b0:	d9401317 	ldw	r5,76(sp)
 18099b4:	3821d13a 	srai	r16,r7,4
 18099b8:	100d883a 	mov	r6,r2
 18099bc:	180f883a 	mov	r7,r3
 18099c0:	18054a40 	call	18054a4 <__muldf3>
 18099c4:	1011883a 	mov	r8,r2
 18099c8:	1813883a 	mov	r9,r3
 18099cc:	1029883a 	mov	r20,r2
 18099d0:	182b883a 	mov	r21,r3
 18099d4:	8001e526 	beq	r16,zero,180a16c <_dtoa_r+0x14a0>
 18099d8:	05800084 	movi	r22,2
 18099dc:	04406074 	movhi	r17,385
 18099e0:	8c56c004 	addi	r17,r17,23296
 18099e4:	8080004c 	andi	r2,r16,1
 18099e8:	1005003a 	cmpeq	r2,r2,zero
 18099ec:	1000081e 	bne	r2,zero,1809a10 <_dtoa_r+0xd44>
 18099f0:	89800017 	ldw	r6,0(r17)
 18099f4:	89c00117 	ldw	r7,4(r17)
 18099f8:	480b883a 	mov	r5,r9
 18099fc:	4009883a 	mov	r4,r8
 1809a00:	18054a40 	call	18054a4 <__muldf3>
 1809a04:	1011883a 	mov	r8,r2
 1809a08:	b5800044 	addi	r22,r22,1
 1809a0c:	1813883a 	mov	r9,r3
 1809a10:	8021d07a 	srai	r16,r16,1
 1809a14:	8c400204 	addi	r17,r17,8
 1809a18:	803ff21e 	bne	r16,zero,18099e4 <_dtoa_r+0xd18>
 1809a1c:	4029883a 	mov	r20,r8
 1809a20:	482b883a 	mov	r21,r9
 1809a24:	003dca06 	br	1809150 <_dtoa_r+0x484>
 1809a28:	d9000817 	ldw	r4,32(sp)
 1809a2c:	2005003a 	cmpeq	r2,r4,zero
 1809a30:	1001f61e 	bne	r2,zero,180a20c <_dtoa_r+0x1540>
 1809a34:	dc001117 	ldw	r16,68(sp)
 1809a38:	dc801017 	ldw	r18,64(sp)
 1809a3c:	18c10cc4 	addi	r3,r3,1075
 1809a40:	003f6106 	br	18097c8 <_dtoa_r+0xafc>
 1809a44:	d8000b15 	stw	zero,44(sp)
 1809a48:	d9802617 	ldw	r6,152(sp)
 1809a4c:	d8c00d17 	ldw	r3,52(sp)
 1809a50:	30800044 	addi	r2,r6,1
 1809a54:	18ad883a 	add	r22,r3,r2
 1809a58:	b13fffc4 	addi	r4,r22,-1
 1809a5c:	d9000e15 	stw	r4,56(sp)
 1809a60:	0581f60e 	bge	zero,r22,180a23c <_dtoa_r+0x1570>
 1809a64:	dd800f15 	stw	r22,60(sp)
 1809a68:	003f3006 	br	180972c <_dtoa_r+0xa60>
 1809a6c:	d8000b15 	stw	zero,44(sp)
 1809a70:	d9002617 	ldw	r4,152(sp)
 1809a74:	0101eb0e 	bge	zero,r4,180a224 <_dtoa_r+0x1558>
 1809a78:	202d883a 	mov	r22,r4
 1809a7c:	d9000e15 	stw	r4,56(sp)
 1809a80:	d9000f15 	stw	r4,60(sp)
 1809a84:	003f2906 	br	180972c <_dtoa_r+0xa60>
 1809a88:	01800044 	movi	r6,1
 1809a8c:	d9800b15 	stw	r6,44(sp)
 1809a90:	003ff706 	br	1809a70 <_dtoa_r+0xda4>
 1809a94:	01000044 	movi	r4,1
 1809a98:	d9000b15 	stw	r4,44(sp)
 1809a9c:	003fea06 	br	1809a48 <_dtoa_r+0xd7c>
 1809aa0:	04000c0e 	bge	zero,r16,1809ad4 <_dtoa_r+0xe08>
 1809aa4:	d9400717 	ldw	r5,28(sp)
 1809aa8:	d9001617 	ldw	r4,88(sp)
 1809aac:	01800044 	movi	r6,1
 1809ab0:	180c7040 	call	180c704 <__lshift>
 1809ab4:	1009883a 	mov	r4,r2
 1809ab8:	900b883a 	mov	r5,r18
 1809abc:	d8800715 	stw	r2,28(sp)
 1809ac0:	180bf1c0 	call	180bf1c <__mcmp>
 1809ac4:	0081e00e 	bge	zero,r2,180a248 <_dtoa_r+0x157c>
 1809ac8:	bdc00044 	addi	r23,r23,1
 1809acc:	00800e84 	movi	r2,58
 1809ad0:	b881a226 	beq	r23,r2,180a15c <_dtoa_r+0x1490>
 1809ad4:	b7000044 	addi	fp,r22,1
 1809ad8:	b5c00005 	stb	r23,0(r22)
 1809adc:	003f7406 	br	18098b0 <_dtoa_r+0xbe4>
 1809ae0:	00800e44 	movi	r2,57
 1809ae4:	b8819d26 	beq	r23,r2,180a15c <_dtoa_r+0x1490>
 1809ae8:	053ffa0e 	bge	zero,r20,1809ad4 <_dtoa_r+0xe08>
 1809aec:	8dc00c44 	addi	r23,r17,49
 1809af0:	003ff806 	br	1809ad4 <_dtoa_r+0xe08>
 1809af4:	d9001617 	ldw	r4,88(sp)
 1809af8:	a80b883a 	mov	r5,r21
 1809afc:	04000044 	movi	r16,1
 1809b00:	180bdc00 	call	180bdc0 <_Bfree>
 1809b04:	003edf06 	br	1809684 <_dtoa_r+0x9b8>
 1809b08:	d9001617 	ldw	r4,88(sp)
 1809b0c:	980b883a 	mov	r5,r19
 1809b10:	01800284 	movi	r6,10
 1809b14:	000f883a 	mov	r7,zero
 1809b18:	180ca740 	call	180ca74 <__multadd>
 1809b1c:	1027883a 	mov	r19,r2
 1809b20:	d8800615 	stw	r2,24(sp)
 1809b24:	003ebb06 	br	1809614 <_dtoa_r+0x948>
 1809b28:	d9801117 	ldw	r6,68(sp)
 1809b2c:	d8800d17 	ldw	r2,52(sp)
 1809b30:	d8000915 	stw	zero,36(sp)
 1809b34:	308dc83a 	sub	r6,r6,r2
 1809b38:	0087c83a 	sub	r3,zero,r2
 1809b3c:	d9801115 	stw	r6,68(sp)
 1809b40:	d8c01015 	stw	r3,64(sp)
 1809b44:	003cfe06 	br	1808f40 <_dtoa_r+0x274>
 1809b48:	018dc83a 	sub	r6,zero,r6
 1809b4c:	d9801115 	stw	r6,68(sp)
 1809b50:	d8000a15 	stw	zero,40(sp)
 1809b54:	003cf306 	br	1808f24 <_dtoa_r+0x258>
 1809b58:	d9000d17 	ldw	r4,52(sp)
 1809b5c:	1805ce00 	call	1805ce0 <__floatsidf>
 1809b60:	880b883a 	mov	r5,r17
 1809b64:	8009883a 	mov	r4,r16
 1809b68:	180f883a 	mov	r7,r3
 1809b6c:	100d883a 	mov	r6,r2
 1809b70:	180e6f40 	call	180e6f4 <__nedf2>
 1809b74:	103ce126 	beq	r2,zero,1808efc <_dtoa_r+0x230>
 1809b78:	d9800d17 	ldw	r6,52(sp)
 1809b7c:	31bfffc4 	addi	r6,r6,-1
 1809b80:	d9800d15 	stw	r6,52(sp)
 1809b84:	003cdd06 	br	1808efc <_dtoa_r+0x230>
 1809b88:	d9000717 	ldw	r4,28(sp)
 1809b8c:	900b883a 	mov	r5,r18
 1809b90:	180bf1c0 	call	180bf1c <__mcmp>
 1809b94:	103e8d0e 	bge	r2,zero,18095cc <_dtoa_r+0x900>
 1809b98:	d9400717 	ldw	r5,28(sp)
 1809b9c:	d9001617 	ldw	r4,88(sp)
 1809ba0:	01800284 	movi	r6,10
 1809ba4:	000f883a 	mov	r7,zero
 1809ba8:	180ca740 	call	180ca74 <__multadd>
 1809bac:	d9800d17 	ldw	r6,52(sp)
 1809bb0:	d8800715 	stw	r2,28(sp)
 1809bb4:	31bfffc4 	addi	r6,r6,-1
 1809bb8:	d9800d15 	stw	r6,52(sp)
 1809bbc:	b001a71e 	bne	r22,zero,180a25c <_dtoa_r+0x1590>
 1809bc0:	d8800e17 	ldw	r2,56(sp)
 1809bc4:	d8800f15 	stw	r2,60(sp)
 1809bc8:	003e8006 	br	18095cc <_dtoa_r+0x900>
 1809bcc:	90800417 	ldw	r2,16(r18)
 1809bd0:	1085883a 	add	r2,r2,r2
 1809bd4:	1085883a 	add	r2,r2,r2
 1809bd8:	1485883a 	add	r2,r2,r18
 1809bdc:	11000417 	ldw	r4,16(r2)
 1809be0:	180bde80 	call	180bde8 <__hi0bits>
 1809be4:	00c00804 	movi	r3,32
 1809be8:	1887c83a 	sub	r3,r3,r2
 1809bec:	003e5a06 	br	1809558 <_dtoa_r+0x88c>
 1809bf0:	d9400717 	ldw	r5,28(sp)
 1809bf4:	d9801017 	ldw	r6,64(sp)
 1809bf8:	d9001617 	ldw	r4,88(sp)
 1809bfc:	180cb740 	call	180cb74 <__pow5mult>
 1809c00:	d8800715 	stw	r2,28(sp)
 1809c04:	003e4306 	br	1809514 <_dtoa_r+0x848>
 1809c08:	d9800f17 	ldw	r6,60(sp)
 1809c0c:	d8800d17 	ldw	r2,52(sp)
 1809c10:	d9800315 	stw	r6,12(sp)
 1809c14:	d8800415 	stw	r2,16(sp)
 1809c18:	d8c00b17 	ldw	r3,44(sp)
 1809c1c:	1805003a 	cmpeq	r2,r3,zero
 1809c20:	1000e21e 	bne	r2,zero,1809fac <_dtoa_r+0x12e0>
 1809c24:	d9000317 	ldw	r4,12(sp)
 1809c28:	0005883a 	mov	r2,zero
 1809c2c:	00cff834 	movhi	r3,16352
 1809c30:	200c90fa 	slli	r6,r4,3
 1809c34:	01006074 	movhi	r4,385
 1809c38:	21168e04 	addi	r4,r4,23096
 1809c3c:	180b883a 	mov	r5,r3
 1809c40:	310d883a 	add	r6,r6,r4
 1809c44:	327fff17 	ldw	r9,-4(r6)
 1809c48:	323ffe17 	ldw	r8,-8(r6)
 1809c4c:	1009883a 	mov	r4,r2
 1809c50:	480f883a 	mov	r7,r9
 1809c54:	400d883a 	mov	r6,r8
 1809c58:	18058680 	call	1805868 <__divdf3>
 1809c5c:	180b883a 	mov	r5,r3
 1809c60:	b00d883a 	mov	r6,r22
 1809c64:	b80f883a 	mov	r7,r23
 1809c68:	1009883a 	mov	r4,r2
 1809c6c:	18053b00 	call	18053b0 <__subdf3>
 1809c70:	a80b883a 	mov	r5,r21
 1809c74:	a009883a 	mov	r4,r20
 1809c78:	d8c01915 	stw	r3,100(sp)
 1809c7c:	d8801815 	stw	r2,96(sp)
 1809c80:	1805dd80 	call	1805dd8 <__fixdfsi>
 1809c84:	1009883a 	mov	r4,r2
 1809c88:	1027883a 	mov	r19,r2
 1809c8c:	1805ce00 	call	1805ce0 <__floatsidf>
 1809c90:	a80b883a 	mov	r5,r21
 1809c94:	a009883a 	mov	r4,r20
 1809c98:	180f883a 	mov	r7,r3
 1809c9c:	100d883a 	mov	r6,r2
 1809ca0:	18053b00 	call	18053b0 <__subdf3>
 1809ca4:	d9801817 	ldw	r6,96(sp)
 1809ca8:	1823883a 	mov	r17,r3
 1809cac:	d8801415 	stw	r2,80(sp)
 1809cb0:	302d883a 	mov	r22,r6
 1809cb4:	d9800517 	ldw	r6,20(sp)
 1809cb8:	9cc00c04 	addi	r19,r19,48
 1809cbc:	dc401515 	stw	r17,84(sp)
 1809cc0:	d8c01917 	ldw	r3,100(sp)
 1809cc4:	34c00005 	stb	r19,0(r6)
 1809cc8:	d8800517 	ldw	r2,20(sp)
 1809ccc:	d9401917 	ldw	r5,100(sp)
 1809cd0:	d9801417 	ldw	r6,80(sp)
 1809cd4:	b009883a 	mov	r4,r22
 1809cd8:	880f883a 	mov	r7,r17
 1809cdc:	182f883a 	mov	r23,r3
 1809ce0:	17000044 	addi	fp,r2,1
 1809ce4:	1805b480 	call	1805b48 <__gtdf2>
 1809ce8:	00804e16 	blt	zero,r2,1809e24 <_dtoa_r+0x1158>
 1809cec:	d9801417 	ldw	r6,80(sp)
 1809cf0:	0005883a 	mov	r2,zero
 1809cf4:	00cffc34 	movhi	r3,16368
 1809cf8:	180b883a 	mov	r5,r3
 1809cfc:	880f883a 	mov	r7,r17
 1809d00:	1009883a 	mov	r4,r2
 1809d04:	18053b00 	call	18053b0 <__subdf3>
 1809d08:	d9401917 	ldw	r5,100(sp)
 1809d0c:	180f883a 	mov	r7,r3
 1809d10:	b009883a 	mov	r4,r22
 1809d14:	100d883a 	mov	r6,r2
 1809d18:	1805b480 	call	1805b48 <__gtdf2>
 1809d1c:	00bda216 	blt	zero,r2,18093a8 <_dtoa_r+0x6dc>
 1809d20:	d8c00317 	ldw	r3,12(sp)
 1809d24:	00800044 	movi	r2,1
 1809d28:	10c01216 	blt	r2,r3,1809d74 <_dtoa_r+0x10a8>
 1809d2c:	003d4506 	br	1809244 <_dtoa_r+0x578>
 1809d30:	d9801417 	ldw	r6,80(sp)
 1809d34:	0005883a 	mov	r2,zero
 1809d38:	00cffc34 	movhi	r3,16368
 1809d3c:	180b883a 	mov	r5,r3
 1809d40:	880f883a 	mov	r7,r17
 1809d44:	1009883a 	mov	r4,r2
 1809d48:	18053b00 	call	18053b0 <__subdf3>
 1809d4c:	d9c01b17 	ldw	r7,108(sp)
 1809d50:	180b883a 	mov	r5,r3
 1809d54:	1009883a 	mov	r4,r2
 1809d58:	b00d883a 	mov	r6,r22
 1809d5c:	1805c580 	call	1805c58 <__ltdf2>
 1809d60:	103d9116 	blt	r2,zero,18093a8 <_dtoa_r+0x6dc>
 1809d64:	d9800517 	ldw	r6,20(sp)
 1809d68:	d9000317 	ldw	r4,12(sp)
 1809d6c:	3105883a 	add	r2,r6,r4
 1809d70:	e0bd3426 	beq	fp,r2,1809244 <_dtoa_r+0x578>
 1809d74:	04500934 	movhi	r17,16420
 1809d78:	0021883a 	mov	r16,zero
 1809d7c:	b80b883a 	mov	r5,r23
 1809d80:	b009883a 	mov	r4,r22
 1809d84:	800d883a 	mov	r6,r16
 1809d88:	880f883a 	mov	r7,r17
 1809d8c:	18054a40 	call	18054a4 <__muldf3>
 1809d90:	d9401517 	ldw	r5,84(sp)
 1809d94:	d9001417 	ldw	r4,80(sp)
 1809d98:	880f883a 	mov	r7,r17
 1809d9c:	000d883a 	mov	r6,zero
 1809da0:	d8801a15 	stw	r2,104(sp)
 1809da4:	d8c01b15 	stw	r3,108(sp)
 1809da8:	18054a40 	call	18054a4 <__muldf3>
 1809dac:	180b883a 	mov	r5,r3
 1809db0:	1009883a 	mov	r4,r2
 1809db4:	1823883a 	mov	r17,r3
 1809db8:	1021883a 	mov	r16,r2
 1809dbc:	1805dd80 	call	1805dd8 <__fixdfsi>
 1809dc0:	1009883a 	mov	r4,r2
 1809dc4:	102b883a 	mov	r21,r2
 1809dc8:	1805ce00 	call	1805ce0 <__floatsidf>
 1809dcc:	880b883a 	mov	r5,r17
 1809dd0:	8009883a 	mov	r4,r16
 1809dd4:	180f883a 	mov	r7,r3
 1809dd8:	100d883a 	mov	r6,r2
 1809ddc:	18053b00 	call	18053b0 <__subdf3>
 1809de0:	1021883a 	mov	r16,r2
 1809de4:	d9001b17 	ldw	r4,108(sp)
 1809de8:	1823883a 	mov	r17,r3
 1809dec:	dc001415 	stw	r16,80(sp)
 1809df0:	ad400c04 	addi	r21,r21,48
 1809df4:	dc401515 	stw	r17,84(sp)
 1809df8:	d8801a17 	ldw	r2,104(sp)
 1809dfc:	e5400005 	stb	r21,0(fp)
 1809e00:	202f883a 	mov	r23,r4
 1809e04:	d9c01b17 	ldw	r7,108(sp)
 1809e08:	d9001417 	ldw	r4,80(sp)
 1809e0c:	880b883a 	mov	r5,r17
 1809e10:	100d883a 	mov	r6,r2
 1809e14:	102d883a 	mov	r22,r2
 1809e18:	e7000044 	addi	fp,fp,1
 1809e1c:	1805c580 	call	1805c58 <__ltdf2>
 1809e20:	103fc30e 	bge	r2,zero,1809d30 <_dtoa_r+0x1064>
 1809e24:	d9000417 	ldw	r4,16(sp)
 1809e28:	d9000d15 	stw	r4,52(sp)
 1809e2c:	003d7106 	br	18093f4 <_dtoa_r+0x728>
 1809e30:	d9801717 	ldw	r6,92(sp)
 1809e34:	00800084 	movi	r2,2
 1809e38:	11bde60e 	bge	r2,r6,18095d4 <_dtoa_r+0x908>
 1809e3c:	203cfb1e 	bne	r4,zero,180922c <_dtoa_r+0x560>
 1809e40:	d9001617 	ldw	r4,88(sp)
 1809e44:	900b883a 	mov	r5,r18
 1809e48:	01800144 	movi	r6,5
 1809e4c:	000f883a 	mov	r7,zero
 1809e50:	180ca740 	call	180ca74 <__multadd>
 1809e54:	d9000717 	ldw	r4,28(sp)
 1809e58:	100b883a 	mov	r5,r2
 1809e5c:	1025883a 	mov	r18,r2
 1809e60:	180bf1c0 	call	180bf1c <__mcmp>
 1809e64:	00bcf10e 	bge	zero,r2,180922c <_dtoa_r+0x560>
 1809e68:	d8c00d17 	ldw	r3,52(sp)
 1809e6c:	d9000517 	ldw	r4,20(sp)
 1809e70:	d8000615 	stw	zero,24(sp)
 1809e74:	18c00044 	addi	r3,r3,1
 1809e78:	d8c00d15 	stw	r3,52(sp)
 1809e7c:	00800c44 	movi	r2,49
 1809e80:	27000044 	addi	fp,r4,1
 1809e84:	20800005 	stb	r2,0(r4)
 1809e88:	003e8906 	br	18098b0 <_dtoa_r+0xbe4>
 1809e8c:	d8c00517 	ldw	r3,20(sp)
 1809e90:	003bc206 	br	1808d9c <_dtoa_r+0xd0>
 1809e94:	01806074 	movhi	r6,385
 1809e98:	3196c004 	addi	r6,r6,23296
 1809e9c:	30c00917 	ldw	r3,36(r6)
 1809ea0:	30800817 	ldw	r2,32(r6)
 1809ea4:	d9001217 	ldw	r4,72(sp)
 1809ea8:	d9401317 	ldw	r5,76(sp)
 1809eac:	180f883a 	mov	r7,r3
 1809eb0:	100d883a 	mov	r6,r2
 1809eb4:	18058680 	call	1805868 <__divdf3>
 1809eb8:	948003cc 	andi	r18,r18,15
 1809ebc:	058000c4 	movi	r22,3
 1809ec0:	1029883a 	mov	r20,r2
 1809ec4:	182b883a 	mov	r21,r3
 1809ec8:	003c8906 	br	18090f0 <_dtoa_r+0x424>
 1809ecc:	d9001017 	ldw	r4,64(sp)
 1809ed0:	d9800917 	ldw	r6,36(sp)
 1809ed4:	0025883a 	mov	r18,zero
 1809ed8:	1105c83a 	sub	r2,r2,r4
 1809edc:	2089883a 	add	r4,r4,r2
 1809ee0:	308d883a 	add	r6,r6,r2
 1809ee4:	d9001015 	stw	r4,64(sp)
 1809ee8:	d9800915 	stw	r6,36(sp)
 1809eec:	003e3206 	br	18097b8 <_dtoa_r+0xaec>
 1809ef0:	28800044 	addi	r2,r5,1
 1809ef4:	27000044 	addi	fp,r4,1
 1809ef8:	20800005 	stb	r2,0(r4)
 1809efc:	003e6c06 	br	18098b0 <_dtoa_r+0xbe4>
 1809f00:	d8800f17 	ldw	r2,60(sp)
 1809f04:	00bce016 	blt	zero,r2,1809288 <_dtoa_r+0x5bc>
 1809f08:	d9800f17 	ldw	r6,60(sp)
 1809f0c:	303cc51e 	bne	r6,zero,1809224 <_dtoa_r+0x558>
 1809f10:	0005883a 	mov	r2,zero
 1809f14:	00d00534 	movhi	r3,16404
 1809f18:	980b883a 	mov	r5,r19
 1809f1c:	180f883a 	mov	r7,r3
 1809f20:	9009883a 	mov	r4,r18
 1809f24:	100d883a 	mov	r6,r2
 1809f28:	18054a40 	call	18054a4 <__muldf3>
 1809f2c:	180b883a 	mov	r5,r3
 1809f30:	a80f883a 	mov	r7,r21
 1809f34:	1009883a 	mov	r4,r2
 1809f38:	a00d883a 	mov	r6,r20
 1809f3c:	1805bd00 	call	1805bd0 <__gedf2>
 1809f40:	103cb80e 	bge	r2,zero,1809224 <_dtoa_r+0x558>
 1809f44:	0027883a 	mov	r19,zero
 1809f48:	0025883a 	mov	r18,zero
 1809f4c:	003fc606 	br	1809e68 <_dtoa_r+0x119c>
 1809f50:	99400117 	ldw	r5,4(r19)
 1809f54:	d9001617 	ldw	r4,88(sp)
 1809f58:	180c3400 	call	180c340 <_Balloc>
 1809f5c:	99800417 	ldw	r6,16(r19)
 1809f60:	11000304 	addi	r4,r2,12
 1809f64:	99400304 	addi	r5,r19,12
 1809f68:	318d883a 	add	r6,r6,r6
 1809f6c:	318d883a 	add	r6,r6,r6
 1809f70:	31800204 	addi	r6,r6,8
 1809f74:	1023883a 	mov	r17,r2
 1809f78:	18069380 	call	1806938 <memcpy>
 1809f7c:	d9001617 	ldw	r4,88(sp)
 1809f80:	880b883a 	mov	r5,r17
 1809f84:	01800044 	movi	r6,1
 1809f88:	180c7040 	call	180c704 <__lshift>
 1809f8c:	100b883a 	mov	r5,r2
 1809f90:	003d9c06 	br	1809604 <_dtoa_r+0x938>
 1809f94:	00800e44 	movi	r2,57
 1809f98:	b8807026 	beq	r23,r2,180a15c <_dtoa_r+0x1490>
 1809f9c:	b8800044 	addi	r2,r23,1
 1809fa0:	b7000044 	addi	fp,r22,1
 1809fa4:	b0800005 	stb	r2,0(r22)
 1809fa8:	003e4106 	br	18098b0 <_dtoa_r+0xbe4>
 1809fac:	d8800317 	ldw	r2,12(sp)
 1809fb0:	01806074 	movhi	r6,385
 1809fb4:	31968e04 	addi	r6,r6,23096
 1809fb8:	b009883a 	mov	r4,r22
 1809fbc:	100e90fa 	slli	r7,r2,3
 1809fc0:	b80b883a 	mov	r5,r23
 1809fc4:	398f883a 	add	r7,r7,r6
 1809fc8:	38bffe17 	ldw	r2,-8(r7)
 1809fcc:	d9800517 	ldw	r6,20(sp)
 1809fd0:	38ffff17 	ldw	r3,-4(r7)
 1809fd4:	37000044 	addi	fp,r6,1
 1809fd8:	180f883a 	mov	r7,r3
 1809fdc:	100d883a 	mov	r6,r2
 1809fe0:	18054a40 	call	18054a4 <__muldf3>
 1809fe4:	a80b883a 	mov	r5,r21
 1809fe8:	a009883a 	mov	r4,r20
 1809fec:	182f883a 	mov	r23,r3
 1809ff0:	102d883a 	mov	r22,r2
 1809ff4:	1805dd80 	call	1805dd8 <__fixdfsi>
 1809ff8:	1009883a 	mov	r4,r2
 1809ffc:	1027883a 	mov	r19,r2
 180a000:	1805ce00 	call	1805ce0 <__floatsidf>
 180a004:	a80b883a 	mov	r5,r21
 180a008:	a009883a 	mov	r4,r20
 180a00c:	180f883a 	mov	r7,r3
 180a010:	100d883a 	mov	r6,r2
 180a014:	18053b00 	call	18053b0 <__subdf3>
 180a018:	180b883a 	mov	r5,r3
 180a01c:	d8c00517 	ldw	r3,20(sp)
 180a020:	9cc00c04 	addi	r19,r19,48
 180a024:	1009883a 	mov	r4,r2
 180a028:	1cc00005 	stb	r19,0(r3)
 180a02c:	2021883a 	mov	r16,r4
 180a030:	d9000317 	ldw	r4,12(sp)
 180a034:	00800044 	movi	r2,1
 180a038:	2823883a 	mov	r17,r5
 180a03c:	20802226 	beq	r4,r2,180a0c8 <_dtoa_r+0x13fc>
 180a040:	1029883a 	mov	r20,r2
 180a044:	0005883a 	mov	r2,zero
 180a048:	00d00934 	movhi	r3,16420
 180a04c:	180f883a 	mov	r7,r3
 180a050:	100d883a 	mov	r6,r2
 180a054:	880b883a 	mov	r5,r17
 180a058:	8009883a 	mov	r4,r16
 180a05c:	18054a40 	call	18054a4 <__muldf3>
 180a060:	180b883a 	mov	r5,r3
 180a064:	1009883a 	mov	r4,r2
 180a068:	1823883a 	mov	r17,r3
 180a06c:	1021883a 	mov	r16,r2
 180a070:	1805dd80 	call	1805dd8 <__fixdfsi>
 180a074:	1009883a 	mov	r4,r2
 180a078:	102b883a 	mov	r21,r2
 180a07c:	1805ce00 	call	1805ce0 <__floatsidf>
 180a080:	880b883a 	mov	r5,r17
 180a084:	8009883a 	mov	r4,r16
 180a088:	180f883a 	mov	r7,r3
 180a08c:	100d883a 	mov	r6,r2
 180a090:	18053b00 	call	18053b0 <__subdf3>
 180a094:	180b883a 	mov	r5,r3
 180a098:	d8c00517 	ldw	r3,20(sp)
 180a09c:	1009883a 	mov	r4,r2
 180a0a0:	ad400c04 	addi	r21,r21,48
 180a0a4:	1d05883a 	add	r2,r3,r20
 180a0a8:	15400005 	stb	r21,0(r2)
 180a0ac:	2021883a 	mov	r16,r4
 180a0b0:	d9000317 	ldw	r4,12(sp)
 180a0b4:	a5000044 	addi	r20,r20,1
 180a0b8:	2823883a 	mov	r17,r5
 180a0bc:	a13fe11e 	bne	r20,r4,180a044 <_dtoa_r+0x1378>
 180a0c0:	e505883a 	add	r2,fp,r20
 180a0c4:	173fffc4 	addi	fp,r2,-1
 180a0c8:	0025883a 	mov	r18,zero
 180a0cc:	04cff834 	movhi	r19,16352
 180a0d0:	b009883a 	mov	r4,r22
 180a0d4:	b80b883a 	mov	r5,r23
 180a0d8:	900d883a 	mov	r6,r18
 180a0dc:	980f883a 	mov	r7,r19
 180a0e0:	18054300 	call	1805430 <__adddf3>
 180a0e4:	180b883a 	mov	r5,r3
 180a0e8:	1009883a 	mov	r4,r2
 180a0ec:	800d883a 	mov	r6,r16
 180a0f0:	880f883a 	mov	r7,r17
 180a0f4:	1805c580 	call	1805c58 <__ltdf2>
 180a0f8:	103cab16 	blt	r2,zero,18093a8 <_dtoa_r+0x6dc>
 180a0fc:	0009883a 	mov	r4,zero
 180a100:	980b883a 	mov	r5,r19
 180a104:	b80f883a 	mov	r7,r23
 180a108:	b00d883a 	mov	r6,r22
 180a10c:	18053b00 	call	18053b0 <__subdf3>
 180a110:	180b883a 	mov	r5,r3
 180a114:	880f883a 	mov	r7,r17
 180a118:	1009883a 	mov	r4,r2
 180a11c:	800d883a 	mov	r6,r16
 180a120:	1805b480 	call	1805b48 <__gtdf2>
 180a124:	00bc470e 	bge	zero,r2,1809244 <_dtoa_r+0x578>
 180a128:	00c00c04 	movi	r3,48
 180a12c:	e73fffc4 	addi	fp,fp,-1
 180a130:	e0800007 	ldb	r2,0(fp)
 180a134:	10fffd26 	beq	r2,r3,180a12c <_dtoa_r+0x1460>
 180a138:	d9800417 	ldw	r6,16(sp)
 180a13c:	e7000044 	addi	fp,fp,1
 180a140:	d9800d15 	stw	r6,52(sp)
 180a144:	003cab06 	br	18093f4 <_dtoa_r+0x728>
 180a148:	d8c00f17 	ldw	r3,60(sp)
 180a14c:	d9001117 	ldw	r4,68(sp)
 180a150:	20e1c83a 	sub	r16,r4,r3
 180a154:	0007883a 	mov	r3,zero
 180a158:	003d9b06 	br	18097c8 <_dtoa_r+0xafc>
 180a15c:	00800e44 	movi	r2,57
 180a160:	b0800005 	stb	r2,0(r22)
 180a164:	b5800044 	addi	r22,r22,1
 180a168:	003dc106 	br	1809870 <_dtoa_r+0xba4>
 180a16c:	05800084 	movi	r22,2
 180a170:	003bf706 	br	1809150 <_dtoa_r+0x484>
 180a174:	d9000f17 	ldw	r4,60(sp)
 180a178:	013c000e 	bge	zero,r4,180917c <_dtoa_r+0x4b0>
 180a17c:	d9800e17 	ldw	r6,56(sp)
 180a180:	01bc300e 	bge	zero,r6,1809244 <_dtoa_r+0x578>
 180a184:	0005883a 	mov	r2,zero
 180a188:	00d00934 	movhi	r3,16420
 180a18c:	a80b883a 	mov	r5,r21
 180a190:	180f883a 	mov	r7,r3
 180a194:	a009883a 	mov	r4,r20
 180a198:	100d883a 	mov	r6,r2
 180a19c:	18054a40 	call	18054a4 <__muldf3>
 180a1a0:	b1000044 	addi	r4,r22,1
 180a1a4:	1021883a 	mov	r16,r2
 180a1a8:	1823883a 	mov	r17,r3
 180a1ac:	1805ce00 	call	1805ce0 <__floatsidf>
 180a1b0:	880b883a 	mov	r5,r17
 180a1b4:	8009883a 	mov	r4,r16
 180a1b8:	180f883a 	mov	r7,r3
 180a1bc:	100d883a 	mov	r6,r2
 180a1c0:	18054a40 	call	18054a4 <__muldf3>
 180a1c4:	0011883a 	mov	r8,zero
 180a1c8:	02500734 	movhi	r9,16412
 180a1cc:	180b883a 	mov	r5,r3
 180a1d0:	480f883a 	mov	r7,r9
 180a1d4:	1009883a 	mov	r4,r2
 180a1d8:	400d883a 	mov	r6,r8
 180a1dc:	18054300 	call	1805430 <__adddf3>
 180a1e0:	102d883a 	mov	r22,r2
 180a1e4:	00bf3034 	movhi	r2,64704
 180a1e8:	10ef883a 	add	r23,r2,r3
 180a1ec:	d8800d17 	ldw	r2,52(sp)
 180a1f0:	d8c00e17 	ldw	r3,56(sp)
 180a1f4:	8029883a 	mov	r20,r16
 180a1f8:	10bfffc4 	addi	r2,r2,-1
 180a1fc:	882b883a 	mov	r21,r17
 180a200:	d8800415 	stw	r2,16(sp)
 180a204:	d8c00315 	stw	r3,12(sp)
 180a208:	003e8306 	br	1809c18 <_dtoa_r+0xf4c>
 180a20c:	d8800117 	ldw	r2,4(sp)
 180a210:	dc001117 	ldw	r16,68(sp)
 180a214:	dc801017 	ldw	r18,64(sp)
 180a218:	00c00d84 	movi	r3,54
 180a21c:	1887c83a 	sub	r3,r3,r2
 180a220:	003d6906 	br	18097c8 <_dtoa_r+0xafc>
 180a224:	01800044 	movi	r6,1
 180a228:	3021883a 	mov	r16,r6
 180a22c:	d9800f15 	stw	r6,60(sp)
 180a230:	d9802615 	stw	r6,152(sp)
 180a234:	d9800e15 	stw	r6,56(sp)
 180a238:	003b9306 	br	1809088 <_dtoa_r+0x3bc>
 180a23c:	b021883a 	mov	r16,r22
 180a240:	dd800f15 	stw	r22,60(sp)
 180a244:	003b9006 	br	1809088 <_dtoa_r+0x3bc>
 180a248:	103e221e 	bne	r2,zero,1809ad4 <_dtoa_r+0xe08>
 180a24c:	b880004c 	andi	r2,r23,1
 180a250:	1005003a 	cmpeq	r2,r2,zero
 180a254:	103e1f1e 	bne	r2,zero,1809ad4 <_dtoa_r+0xe08>
 180a258:	003e1b06 	br	1809ac8 <_dtoa_r+0xdfc>
 180a25c:	d9001617 	ldw	r4,88(sp)
 180a260:	980b883a 	mov	r5,r19
 180a264:	01800284 	movi	r6,10
 180a268:	000f883a 	mov	r7,zero
 180a26c:	180ca740 	call	180ca74 <__multadd>
 180a270:	d8c00e17 	ldw	r3,56(sp)
 180a274:	1027883a 	mov	r19,r2
 180a278:	d8c00f15 	stw	r3,60(sp)
 180a27c:	003cd306 	br	18095cc <_dtoa_r+0x900>

0180a280 <_fflush_r>:
 180a280:	defffb04 	addi	sp,sp,-20
 180a284:	dcc00315 	stw	r19,12(sp)
 180a288:	dc800215 	stw	r18,8(sp)
 180a28c:	dfc00415 	stw	ra,16(sp)
 180a290:	dc400115 	stw	r17,4(sp)
 180a294:	dc000015 	stw	r16,0(sp)
 180a298:	2027883a 	mov	r19,r4
 180a29c:	2825883a 	mov	r18,r5
 180a2a0:	20000226 	beq	r4,zero,180a2ac <_fflush_r+0x2c>
 180a2a4:	20800e17 	ldw	r2,56(r4)
 180a2a8:	10005626 	beq	r2,zero,180a404 <_fflush_r+0x184>
 180a2ac:	9100030b 	ldhu	r4,12(r18)
 180a2b0:	20ffffcc 	andi	r3,r4,65535
 180a2b4:	18e0001c 	xori	r3,r3,32768
 180a2b8:	18e00004 	addi	r3,r3,-32768
 180a2bc:	1880020c 	andi	r2,r3,8
 180a2c0:	1000261e 	bne	r2,zero,180a35c <_fflush_r+0xdc>
 180a2c4:	90c00117 	ldw	r3,4(r18)
 180a2c8:	20820014 	ori	r2,r4,2048
 180a2cc:	9080030d 	sth	r2,12(r18)
 180a2d0:	1009883a 	mov	r4,r2
 180a2d4:	00c0400e 	bge	zero,r3,180a3d8 <_fflush_r+0x158>
 180a2d8:	92000a17 	ldw	r8,40(r18)
 180a2dc:	40004026 	beq	r8,zero,180a3e0 <_fflush_r+0x160>
 180a2e0:	2084000c 	andi	r2,r4,4096
 180a2e4:	10005326 	beq	r2,zero,180a434 <_fflush_r+0x1b4>
 180a2e8:	94001417 	ldw	r16,80(r18)
 180a2ec:	9080030b 	ldhu	r2,12(r18)
 180a2f0:	1080010c 	andi	r2,r2,4
 180a2f4:	1000481e 	bne	r2,zero,180a418 <_fflush_r+0x198>
 180a2f8:	91400717 	ldw	r5,28(r18)
 180a2fc:	9809883a 	mov	r4,r19
 180a300:	800d883a 	mov	r6,r16
 180a304:	000f883a 	mov	r7,zero
 180a308:	403ee83a 	callr	r8
 180a30c:	8080261e 	bne	r16,r2,180a3a8 <_fflush_r+0x128>
 180a310:	9080030b 	ldhu	r2,12(r18)
 180a314:	91000417 	ldw	r4,16(r18)
 180a318:	90000115 	stw	zero,4(r18)
 180a31c:	10bdffcc 	andi	r2,r2,63487
 180a320:	10ffffcc 	andi	r3,r2,65535
 180a324:	18c4000c 	andi	r3,r3,4096
 180a328:	9080030d 	sth	r2,12(r18)
 180a32c:	91000015 	stw	r4,0(r18)
 180a330:	18002b26 	beq	r3,zero,180a3e0 <_fflush_r+0x160>
 180a334:	0007883a 	mov	r3,zero
 180a338:	1805883a 	mov	r2,r3
 180a33c:	94001415 	stw	r16,80(r18)
 180a340:	dfc00417 	ldw	ra,16(sp)
 180a344:	dcc00317 	ldw	r19,12(sp)
 180a348:	dc800217 	ldw	r18,8(sp)
 180a34c:	dc400117 	ldw	r17,4(sp)
 180a350:	dc000017 	ldw	r16,0(sp)
 180a354:	dec00504 	addi	sp,sp,20
 180a358:	f800283a 	ret
 180a35c:	94400417 	ldw	r17,16(r18)
 180a360:	88001f26 	beq	r17,zero,180a3e0 <_fflush_r+0x160>
 180a364:	90800017 	ldw	r2,0(r18)
 180a368:	18c000cc 	andi	r3,r3,3
 180a36c:	94400015 	stw	r17,0(r18)
 180a370:	1461c83a 	sub	r16,r2,r17
 180a374:	18002526 	beq	r3,zero,180a40c <_fflush_r+0x18c>
 180a378:	0005883a 	mov	r2,zero
 180a37c:	90800215 	stw	r2,8(r18)
 180a380:	0400170e 	bge	zero,r16,180a3e0 <_fflush_r+0x160>
 180a384:	90c00917 	ldw	r3,36(r18)
 180a388:	91400717 	ldw	r5,28(r18)
 180a38c:	880d883a 	mov	r6,r17
 180a390:	800f883a 	mov	r7,r16
 180a394:	9809883a 	mov	r4,r19
 180a398:	183ee83a 	callr	r3
 180a39c:	88a3883a 	add	r17,r17,r2
 180a3a0:	80a1c83a 	sub	r16,r16,r2
 180a3a4:	00bff616 	blt	zero,r2,180a380 <_fflush_r+0x100>
 180a3a8:	9080030b 	ldhu	r2,12(r18)
 180a3ac:	00ffffc4 	movi	r3,-1
 180a3b0:	10801014 	ori	r2,r2,64
 180a3b4:	9080030d 	sth	r2,12(r18)
 180a3b8:	1805883a 	mov	r2,r3
 180a3bc:	dfc00417 	ldw	ra,16(sp)
 180a3c0:	dcc00317 	ldw	r19,12(sp)
 180a3c4:	dc800217 	ldw	r18,8(sp)
 180a3c8:	dc400117 	ldw	r17,4(sp)
 180a3cc:	dc000017 	ldw	r16,0(sp)
 180a3d0:	dec00504 	addi	sp,sp,20
 180a3d4:	f800283a 	ret
 180a3d8:	90800f17 	ldw	r2,60(r18)
 180a3dc:	00bfbe16 	blt	zero,r2,180a2d8 <_fflush_r+0x58>
 180a3e0:	0007883a 	mov	r3,zero
 180a3e4:	1805883a 	mov	r2,r3
 180a3e8:	dfc00417 	ldw	ra,16(sp)
 180a3ec:	dcc00317 	ldw	r19,12(sp)
 180a3f0:	dc800217 	ldw	r18,8(sp)
 180a3f4:	dc400117 	ldw	r17,4(sp)
 180a3f8:	dc000017 	ldw	r16,0(sp)
 180a3fc:	dec00504 	addi	sp,sp,20
 180a400:	f800283a 	ret
 180a404:	180a5180 	call	180a518 <__sinit>
 180a408:	003fa806 	br	180a2ac <_fflush_r+0x2c>
 180a40c:	90800517 	ldw	r2,20(r18)
 180a410:	90800215 	stw	r2,8(r18)
 180a414:	003fda06 	br	180a380 <_fflush_r+0x100>
 180a418:	90800117 	ldw	r2,4(r18)
 180a41c:	90c00c17 	ldw	r3,48(r18)
 180a420:	80a1c83a 	sub	r16,r16,r2
 180a424:	183fb426 	beq	r3,zero,180a2f8 <_fflush_r+0x78>
 180a428:	90800f17 	ldw	r2,60(r18)
 180a42c:	80a1c83a 	sub	r16,r16,r2
 180a430:	003fb106 	br	180a2f8 <_fflush_r+0x78>
 180a434:	91400717 	ldw	r5,28(r18)
 180a438:	9809883a 	mov	r4,r19
 180a43c:	000d883a 	mov	r6,zero
 180a440:	01c00044 	movi	r7,1
 180a444:	403ee83a 	callr	r8
 180a448:	1021883a 	mov	r16,r2
 180a44c:	00bfffc4 	movi	r2,-1
 180a450:	80800226 	beq	r16,r2,180a45c <_fflush_r+0x1dc>
 180a454:	92000a17 	ldw	r8,40(r18)
 180a458:	003fa406 	br	180a2ec <_fflush_r+0x6c>
 180a45c:	98c00017 	ldw	r3,0(r19)
 180a460:	00800744 	movi	r2,29
 180a464:	18bfde26 	beq	r3,r2,180a3e0 <_fflush_r+0x160>
 180a468:	9080030b 	ldhu	r2,12(r18)
 180a46c:	8007883a 	mov	r3,r16
 180a470:	10801014 	ori	r2,r2,64
 180a474:	9080030d 	sth	r2,12(r18)
 180a478:	003fcf06 	br	180a3b8 <_fflush_r+0x138>

0180a47c <fflush>:
 180a47c:	01406074 	movhi	r5,385
 180a480:	2968a004 	addi	r5,r5,-23936
 180a484:	2007883a 	mov	r3,r4
 180a488:	20000526 	beq	r4,zero,180a4a0 <fflush+0x24>
 180a48c:	00806074 	movhi	r2,385
 180a490:	109ec404 	addi	r2,r2,31504
 180a494:	11000017 	ldw	r4,0(r2)
 180a498:	180b883a 	mov	r5,r3
 180a49c:	180a2801 	jmpi	180a280 <_fflush_r>
 180a4a0:	00806074 	movhi	r2,385
 180a4a4:	109ec504 	addi	r2,r2,31508
 180a4a8:	11000017 	ldw	r4,0(r2)
 180a4ac:	180b04c1 	jmpi	180b04c <_fwalk_reent>

0180a4b0 <std>:
 180a4b0:	00806074 	movhi	r2,385
 180a4b4:	10b51604 	addi	r2,r2,-11176
 180a4b8:	20800b15 	stw	r2,44(r4)
 180a4bc:	00806074 	movhi	r2,385
 180a4c0:	10b55104 	addi	r2,r2,-10940
 180a4c4:	20800815 	stw	r2,32(r4)
 180a4c8:	00c06074 	movhi	r3,385
 180a4cc:	18f53204 	addi	r3,r3,-11064
 180a4d0:	00806074 	movhi	r2,385
 180a4d4:	10b51804 	addi	r2,r2,-11168
 180a4d8:	2140030d 	sth	r5,12(r4)
 180a4dc:	2180038d 	sth	r6,14(r4)
 180a4e0:	20c00915 	stw	r3,36(r4)
 180a4e4:	20800a15 	stw	r2,40(r4)
 180a4e8:	20000015 	stw	zero,0(r4)
 180a4ec:	20000115 	stw	zero,4(r4)
 180a4f0:	20000215 	stw	zero,8(r4)
 180a4f4:	20000415 	stw	zero,16(r4)
 180a4f8:	20000515 	stw	zero,20(r4)
 180a4fc:	20000615 	stw	zero,24(r4)
 180a500:	21000715 	stw	r4,28(r4)
 180a504:	f800283a 	ret

0180a508 <__sfp_lock_acquire>:
 180a508:	f800283a 	ret

0180a50c <__sfp_lock_release>:
 180a50c:	f800283a 	ret

0180a510 <__sinit_lock_acquire>:
 180a510:	f800283a 	ret

0180a514 <__sinit_lock_release>:
 180a514:	f800283a 	ret

0180a518 <__sinit>:
 180a518:	20800e17 	ldw	r2,56(r4)
 180a51c:	defffd04 	addi	sp,sp,-12
 180a520:	dc400115 	stw	r17,4(sp)
 180a524:	dc000015 	stw	r16,0(sp)
 180a528:	dfc00215 	stw	ra,8(sp)
 180a52c:	04400044 	movi	r17,1
 180a530:	01400104 	movi	r5,4
 180a534:	000d883a 	mov	r6,zero
 180a538:	2021883a 	mov	r16,r4
 180a53c:	2200bb04 	addi	r8,r4,748
 180a540:	200f883a 	mov	r7,r4
 180a544:	10000526 	beq	r2,zero,180a55c <__sinit+0x44>
 180a548:	dfc00217 	ldw	ra,8(sp)
 180a54c:	dc400117 	ldw	r17,4(sp)
 180a550:	dc000017 	ldw	r16,0(sp)
 180a554:	dec00304 	addi	sp,sp,12
 180a558:	f800283a 	ret
 180a55c:	21000117 	ldw	r4,4(r4)
 180a560:	00806074 	movhi	r2,385
 180a564:	10a97f04 	addi	r2,r2,-23044
 180a568:	00c000c4 	movi	r3,3
 180a56c:	80800f15 	stw	r2,60(r16)
 180a570:	80c0b915 	stw	r3,740(r16)
 180a574:	8200ba15 	stw	r8,744(r16)
 180a578:	84400e15 	stw	r17,56(r16)
 180a57c:	8000b815 	stw	zero,736(r16)
 180a580:	180a4b00 	call	180a4b0 <std>
 180a584:	81000217 	ldw	r4,8(r16)
 180a588:	880d883a 	mov	r6,r17
 180a58c:	800f883a 	mov	r7,r16
 180a590:	01400284 	movi	r5,10
 180a594:	180a4b00 	call	180a4b0 <std>
 180a598:	81000317 	ldw	r4,12(r16)
 180a59c:	800f883a 	mov	r7,r16
 180a5a0:	01400484 	movi	r5,18
 180a5a4:	01800084 	movi	r6,2
 180a5a8:	dfc00217 	ldw	ra,8(sp)
 180a5ac:	dc400117 	ldw	r17,4(sp)
 180a5b0:	dc000017 	ldw	r16,0(sp)
 180a5b4:	dec00304 	addi	sp,sp,12
 180a5b8:	180a4b01 	jmpi	180a4b0 <std>

0180a5bc <__fp_lock>:
 180a5bc:	0005883a 	mov	r2,zero
 180a5c0:	f800283a 	ret

0180a5c4 <__fp_unlock>:
 180a5c4:	0005883a 	mov	r2,zero
 180a5c8:	f800283a 	ret

0180a5cc <__fp_unlock_all>:
 180a5cc:	00806074 	movhi	r2,385
 180a5d0:	109ec404 	addi	r2,r2,31504
 180a5d4:	11000017 	ldw	r4,0(r2)
 180a5d8:	01406074 	movhi	r5,385
 180a5dc:	29697104 	addi	r5,r5,-23100
 180a5e0:	180b1141 	jmpi	180b114 <_fwalk>

0180a5e4 <__fp_lock_all>:
 180a5e4:	00806074 	movhi	r2,385
 180a5e8:	109ec404 	addi	r2,r2,31504
 180a5ec:	11000017 	ldw	r4,0(r2)
 180a5f0:	01406074 	movhi	r5,385
 180a5f4:	29696f04 	addi	r5,r5,-23108
 180a5f8:	180b1141 	jmpi	180b114 <_fwalk>

0180a5fc <_cleanup_r>:
 180a5fc:	01406074 	movhi	r5,385
 180a600:	29766004 	addi	r5,r5,-9856
 180a604:	180b1141 	jmpi	180b114 <_fwalk>

0180a608 <_cleanup>:
 180a608:	00806074 	movhi	r2,385
 180a60c:	109ec504 	addi	r2,r2,31508
 180a610:	11000017 	ldw	r4,0(r2)
 180a614:	180a5fc1 	jmpi	180a5fc <_cleanup_r>

0180a618 <__sfmoreglue>:
 180a618:	defffc04 	addi	sp,sp,-16
 180a61c:	dc400115 	stw	r17,4(sp)
 180a620:	2c401724 	muli	r17,r5,92
 180a624:	dc800215 	stw	r18,8(sp)
 180a628:	2825883a 	mov	r18,r5
 180a62c:	89400304 	addi	r5,r17,12
 180a630:	dc000015 	stw	r16,0(sp)
 180a634:	dfc00315 	stw	ra,12(sp)
 180a638:	180b4240 	call	180b424 <_malloc_r>
 180a63c:	0021883a 	mov	r16,zero
 180a640:	880d883a 	mov	r6,r17
 180a644:	000b883a 	mov	r5,zero
 180a648:	10000626 	beq	r2,zero,180a664 <__sfmoreglue+0x4c>
 180a64c:	11000304 	addi	r4,r2,12
 180a650:	14800115 	stw	r18,4(r2)
 180a654:	10000015 	stw	zero,0(r2)
 180a658:	11000215 	stw	r4,8(r2)
 180a65c:	1021883a 	mov	r16,r2
 180a660:	180bd280 	call	180bd28 <memset>
 180a664:	8005883a 	mov	r2,r16
 180a668:	dfc00317 	ldw	ra,12(sp)
 180a66c:	dc800217 	ldw	r18,8(sp)
 180a670:	dc400117 	ldw	r17,4(sp)
 180a674:	dc000017 	ldw	r16,0(sp)
 180a678:	dec00404 	addi	sp,sp,16
 180a67c:	f800283a 	ret

0180a680 <__sfp>:
 180a680:	defffd04 	addi	sp,sp,-12
 180a684:	00806074 	movhi	r2,385
 180a688:	109ec504 	addi	r2,r2,31508
 180a68c:	dc000015 	stw	r16,0(sp)
 180a690:	14000017 	ldw	r16,0(r2)
 180a694:	dc400115 	stw	r17,4(sp)
 180a698:	dfc00215 	stw	ra,8(sp)
 180a69c:	80800e17 	ldw	r2,56(r16)
 180a6a0:	2023883a 	mov	r17,r4
 180a6a4:	10002626 	beq	r2,zero,180a740 <__sfp+0xc0>
 180a6a8:	8400b804 	addi	r16,r16,736
 180a6ac:	80800117 	ldw	r2,4(r16)
 180a6b0:	81000217 	ldw	r4,8(r16)
 180a6b4:	10ffffc4 	addi	r3,r2,-1
 180a6b8:	18000916 	blt	r3,zero,180a6e0 <__sfp+0x60>
 180a6bc:	2080030f 	ldh	r2,12(r4)
 180a6c0:	10000b26 	beq	r2,zero,180a6f0 <__sfp+0x70>
 180a6c4:	017fffc4 	movi	r5,-1
 180a6c8:	00000206 	br	180a6d4 <__sfp+0x54>
 180a6cc:	2080030f 	ldh	r2,12(r4)
 180a6d0:	10000726 	beq	r2,zero,180a6f0 <__sfp+0x70>
 180a6d4:	18ffffc4 	addi	r3,r3,-1
 180a6d8:	21001704 	addi	r4,r4,92
 180a6dc:	197ffb1e 	bne	r3,r5,180a6cc <__sfp+0x4c>
 180a6e0:	80800017 	ldw	r2,0(r16)
 180a6e4:	10001926 	beq	r2,zero,180a74c <__sfp+0xcc>
 180a6e8:	1021883a 	mov	r16,r2
 180a6ec:	003fef06 	br	180a6ac <__sfp+0x2c>
 180a6f0:	00bfffc4 	movi	r2,-1
 180a6f4:	00c00044 	movi	r3,1
 180a6f8:	2080038d 	sth	r2,14(r4)
 180a6fc:	20c0030d 	sth	r3,12(r4)
 180a700:	20000015 	stw	zero,0(r4)
 180a704:	20000215 	stw	zero,8(r4)
 180a708:	20000115 	stw	zero,4(r4)
 180a70c:	20000415 	stw	zero,16(r4)
 180a710:	20000515 	stw	zero,20(r4)
 180a714:	20000615 	stw	zero,24(r4)
 180a718:	20000c15 	stw	zero,48(r4)
 180a71c:	20000d15 	stw	zero,52(r4)
 180a720:	20001115 	stw	zero,68(r4)
 180a724:	20001215 	stw	zero,72(r4)
 180a728:	2005883a 	mov	r2,r4
 180a72c:	dfc00217 	ldw	ra,8(sp)
 180a730:	dc400117 	ldw	r17,4(sp)
 180a734:	dc000017 	ldw	r16,0(sp)
 180a738:	dec00304 	addi	sp,sp,12
 180a73c:	f800283a 	ret
 180a740:	8009883a 	mov	r4,r16
 180a744:	180a5180 	call	180a518 <__sinit>
 180a748:	003fd706 	br	180a6a8 <__sfp+0x28>
 180a74c:	8809883a 	mov	r4,r17
 180a750:	01400104 	movi	r5,4
 180a754:	180a6180 	call	180a618 <__sfmoreglue>
 180a758:	80800015 	stw	r2,0(r16)
 180a75c:	103fe21e 	bne	r2,zero,180a6e8 <__sfp+0x68>
 180a760:	00800304 	movi	r2,12
 180a764:	0009883a 	mov	r4,zero
 180a768:	88800015 	stw	r2,0(r17)
 180a76c:	003fee06 	br	180a728 <__sfp+0xa8>

0180a770 <_malloc_trim_r>:
 180a770:	defffb04 	addi	sp,sp,-20
 180a774:	dcc00315 	stw	r19,12(sp)
 180a778:	04c06074 	movhi	r19,385
 180a77c:	9cd89004 	addi	r19,r19,25152
 180a780:	dc800215 	stw	r18,8(sp)
 180a784:	dc400115 	stw	r17,4(sp)
 180a788:	dc000015 	stw	r16,0(sp)
 180a78c:	2823883a 	mov	r17,r5
 180a790:	2025883a 	mov	r18,r4
 180a794:	dfc00415 	stw	ra,16(sp)
 180a798:	180eea80 	call	180eea8 <__malloc_lock>
 180a79c:	98800217 	ldw	r2,8(r19)
 180a7a0:	9009883a 	mov	r4,r18
 180a7a4:	000b883a 	mov	r5,zero
 180a7a8:	10c00117 	ldw	r3,4(r2)
 180a7ac:	00bfff04 	movi	r2,-4
 180a7b0:	18a0703a 	and	r16,r3,r2
 180a7b4:	8463c83a 	sub	r17,r16,r17
 180a7b8:	8c43fbc4 	addi	r17,r17,4079
 180a7bc:	8822d33a 	srli	r17,r17,12
 180a7c0:	0083ffc4 	movi	r2,4095
 180a7c4:	8c7fffc4 	addi	r17,r17,-1
 180a7c8:	8822933a 	slli	r17,r17,12
 180a7cc:	1440060e 	bge	r2,r17,180a7e8 <_malloc_trim_r+0x78>
 180a7d0:	180d3e80 	call	180d3e8 <_sbrk_r>
 180a7d4:	98c00217 	ldw	r3,8(r19)
 180a7d8:	9009883a 	mov	r4,r18
 180a7dc:	044bc83a 	sub	r5,zero,r17
 180a7e0:	80c7883a 	add	r3,r16,r3
 180a7e4:	10c00926 	beq	r2,r3,180a80c <_malloc_trim_r+0x9c>
 180a7e8:	180eec80 	call	180eec8 <__malloc_unlock>
 180a7ec:	0005883a 	mov	r2,zero
 180a7f0:	dfc00417 	ldw	ra,16(sp)
 180a7f4:	dcc00317 	ldw	r19,12(sp)
 180a7f8:	dc800217 	ldw	r18,8(sp)
 180a7fc:	dc400117 	ldw	r17,4(sp)
 180a800:	dc000017 	ldw	r16,0(sp)
 180a804:	dec00504 	addi	sp,sp,20
 180a808:	f800283a 	ret
 180a80c:	9009883a 	mov	r4,r18
 180a810:	180d3e80 	call	180d3e8 <_sbrk_r>
 180a814:	844dc83a 	sub	r6,r16,r17
 180a818:	00ffffc4 	movi	r3,-1
 180a81c:	9009883a 	mov	r4,r18
 180a820:	000b883a 	mov	r5,zero
 180a824:	01c06074 	movhi	r7,385
 180a828:	39dee804 	addi	r7,r7,31648
 180a82c:	31800054 	ori	r6,r6,1
 180a830:	10c00926 	beq	r2,r3,180a858 <_malloc_trim_r+0xe8>
 180a834:	38800017 	ldw	r2,0(r7)
 180a838:	98c00217 	ldw	r3,8(r19)
 180a83c:	9009883a 	mov	r4,r18
 180a840:	1445c83a 	sub	r2,r2,r17
 180a844:	38800015 	stw	r2,0(r7)
 180a848:	19800115 	stw	r6,4(r3)
 180a84c:	180eec80 	call	180eec8 <__malloc_unlock>
 180a850:	00800044 	movi	r2,1
 180a854:	003fe606 	br	180a7f0 <_malloc_trim_r+0x80>
 180a858:	180d3e80 	call	180d3e8 <_sbrk_r>
 180a85c:	99800217 	ldw	r6,8(r19)
 180a860:	100f883a 	mov	r7,r2
 180a864:	9009883a 	mov	r4,r18
 180a868:	1187c83a 	sub	r3,r2,r6
 180a86c:	008003c4 	movi	r2,15
 180a870:	19400054 	ori	r5,r3,1
 180a874:	10ffdc0e 	bge	r2,r3,180a7e8 <_malloc_trim_r+0x78>
 180a878:	00806074 	movhi	r2,385
 180a87c:	109ec904 	addi	r2,r2,31524
 180a880:	10c00017 	ldw	r3,0(r2)
 180a884:	00806074 	movhi	r2,385
 180a888:	109ee804 	addi	r2,r2,31648
 180a88c:	31400115 	stw	r5,4(r6)
 180a890:	38c7c83a 	sub	r3,r7,r3
 180a894:	10c00015 	stw	r3,0(r2)
 180a898:	003fd306 	br	180a7e8 <_malloc_trim_r+0x78>

0180a89c <_free_r>:
 180a89c:	defffd04 	addi	sp,sp,-12
 180a8a0:	dc400115 	stw	r17,4(sp)
 180a8a4:	dc000015 	stw	r16,0(sp)
 180a8a8:	dfc00215 	stw	ra,8(sp)
 180a8ac:	2821883a 	mov	r16,r5
 180a8b0:	2023883a 	mov	r17,r4
 180a8b4:	28005a26 	beq	r5,zero,180aa20 <_free_r+0x184>
 180a8b8:	180eea80 	call	180eea8 <__malloc_lock>
 180a8bc:	823ffe04 	addi	r8,r16,-8
 180a8c0:	41400117 	ldw	r5,4(r8)
 180a8c4:	00bfff84 	movi	r2,-2
 180a8c8:	02806074 	movhi	r10,385
 180a8cc:	52989004 	addi	r10,r10,25152
 180a8d0:	288e703a 	and	r7,r5,r2
 180a8d4:	41cd883a 	add	r6,r8,r7
 180a8d8:	30c00117 	ldw	r3,4(r6)
 180a8dc:	51000217 	ldw	r4,8(r10)
 180a8e0:	00bfff04 	movi	r2,-4
 180a8e4:	1892703a 	and	r9,r3,r2
 180a8e8:	5017883a 	mov	r11,r10
 180a8ec:	31006726 	beq	r6,r4,180aa8c <_free_r+0x1f0>
 180a8f0:	2880004c 	andi	r2,r5,1
 180a8f4:	1005003a 	cmpeq	r2,r2,zero
 180a8f8:	32400115 	stw	r9,4(r6)
 180a8fc:	10001a1e 	bne	r2,zero,180a968 <_free_r+0xcc>
 180a900:	000b883a 	mov	r5,zero
 180a904:	3247883a 	add	r3,r6,r9
 180a908:	18800117 	ldw	r2,4(r3)
 180a90c:	1080004c 	andi	r2,r2,1
 180a910:	1000231e 	bne	r2,zero,180a9a0 <_free_r+0x104>
 180a914:	280ac03a 	cmpne	r5,r5,zero
 180a918:	3a4f883a 	add	r7,r7,r9
 180a91c:	2800451e 	bne	r5,zero,180aa34 <_free_r+0x198>
 180a920:	31000217 	ldw	r4,8(r6)
 180a924:	00806074 	movhi	r2,385
 180a928:	10989204 	addi	r2,r2,25160
 180a92c:	20807b26 	beq	r4,r2,180ab1c <_free_r+0x280>
 180a930:	30800317 	ldw	r2,12(r6)
 180a934:	3a07883a 	add	r3,r7,r8
 180a938:	19c00015 	stw	r7,0(r3)
 180a93c:	11000215 	stw	r4,8(r2)
 180a940:	20800315 	stw	r2,12(r4)
 180a944:	38800054 	ori	r2,r7,1
 180a948:	40800115 	stw	r2,4(r8)
 180a94c:	28001a26 	beq	r5,zero,180a9b8 <_free_r+0x11c>
 180a950:	8809883a 	mov	r4,r17
 180a954:	dfc00217 	ldw	ra,8(sp)
 180a958:	dc400117 	ldw	r17,4(sp)
 180a95c:	dc000017 	ldw	r16,0(sp)
 180a960:	dec00304 	addi	sp,sp,12
 180a964:	180eec81 	jmpi	180eec8 <__malloc_unlock>
 180a968:	80bffe17 	ldw	r2,-8(r16)
 180a96c:	50c00204 	addi	r3,r10,8
 180a970:	4091c83a 	sub	r8,r8,r2
 180a974:	41000217 	ldw	r4,8(r8)
 180a978:	388f883a 	add	r7,r7,r2
 180a97c:	20c06126 	beq	r4,r3,180ab04 <_free_r+0x268>
 180a980:	40800317 	ldw	r2,12(r8)
 180a984:	3247883a 	add	r3,r6,r9
 180a988:	000b883a 	mov	r5,zero
 180a98c:	11000215 	stw	r4,8(r2)
 180a990:	20800315 	stw	r2,12(r4)
 180a994:	18800117 	ldw	r2,4(r3)
 180a998:	1080004c 	andi	r2,r2,1
 180a99c:	103fdd26 	beq	r2,zero,180a914 <_free_r+0x78>
 180a9a0:	38800054 	ori	r2,r7,1
 180a9a4:	3a07883a 	add	r3,r7,r8
 180a9a8:	280ac03a 	cmpne	r5,r5,zero
 180a9ac:	40800115 	stw	r2,4(r8)
 180a9b0:	19c00015 	stw	r7,0(r3)
 180a9b4:	283fe61e 	bne	r5,zero,180a950 <_free_r+0xb4>
 180a9b8:	00807fc4 	movi	r2,511
 180a9bc:	11c01f2e 	bgeu	r2,r7,180aa3c <_free_r+0x1a0>
 180a9c0:	3806d27a 	srli	r3,r7,9
 180a9c4:	1800481e 	bne	r3,zero,180aae8 <_free_r+0x24c>
 180a9c8:	3804d0fa 	srli	r2,r7,3
 180a9cc:	100690fa 	slli	r3,r2,3
 180a9d0:	1acd883a 	add	r6,r3,r11
 180a9d4:	31400217 	ldw	r5,8(r6)
 180a9d8:	31405926 	beq	r6,r5,180ab40 <_free_r+0x2a4>
 180a9dc:	28800117 	ldw	r2,4(r5)
 180a9e0:	00ffff04 	movi	r3,-4
 180a9e4:	10c4703a 	and	r2,r2,r3
 180a9e8:	3880022e 	bgeu	r7,r2,180a9f4 <_free_r+0x158>
 180a9ec:	29400217 	ldw	r5,8(r5)
 180a9f0:	317ffa1e 	bne	r6,r5,180a9dc <_free_r+0x140>
 180a9f4:	29800317 	ldw	r6,12(r5)
 180a9f8:	41800315 	stw	r6,12(r8)
 180a9fc:	41400215 	stw	r5,8(r8)
 180aa00:	8809883a 	mov	r4,r17
 180aa04:	2a000315 	stw	r8,12(r5)
 180aa08:	32000215 	stw	r8,8(r6)
 180aa0c:	dfc00217 	ldw	ra,8(sp)
 180aa10:	dc400117 	ldw	r17,4(sp)
 180aa14:	dc000017 	ldw	r16,0(sp)
 180aa18:	dec00304 	addi	sp,sp,12
 180aa1c:	180eec81 	jmpi	180eec8 <__malloc_unlock>
 180aa20:	dfc00217 	ldw	ra,8(sp)
 180aa24:	dc400117 	ldw	r17,4(sp)
 180aa28:	dc000017 	ldw	r16,0(sp)
 180aa2c:	dec00304 	addi	sp,sp,12
 180aa30:	f800283a 	ret
 180aa34:	31000217 	ldw	r4,8(r6)
 180aa38:	003fbd06 	br	180a930 <_free_r+0x94>
 180aa3c:	3806d0fa 	srli	r3,r7,3
 180aa40:	00800044 	movi	r2,1
 180aa44:	51400117 	ldw	r5,4(r10)
 180aa48:	180890fa 	slli	r4,r3,3
 180aa4c:	1807d0ba 	srai	r3,r3,2
 180aa50:	22c9883a 	add	r4,r4,r11
 180aa54:	21800217 	ldw	r6,8(r4)
 180aa58:	10c4983a 	sll	r2,r2,r3
 180aa5c:	41000315 	stw	r4,12(r8)
 180aa60:	41800215 	stw	r6,8(r8)
 180aa64:	288ab03a 	or	r5,r5,r2
 180aa68:	22000215 	stw	r8,8(r4)
 180aa6c:	8809883a 	mov	r4,r17
 180aa70:	51400115 	stw	r5,4(r10)
 180aa74:	32000315 	stw	r8,12(r6)
 180aa78:	dfc00217 	ldw	ra,8(sp)
 180aa7c:	dc400117 	ldw	r17,4(sp)
 180aa80:	dc000017 	ldw	r16,0(sp)
 180aa84:	dec00304 	addi	sp,sp,12
 180aa88:	180eec81 	jmpi	180eec8 <__malloc_unlock>
 180aa8c:	2880004c 	andi	r2,r5,1
 180aa90:	3a4d883a 	add	r6,r7,r9
 180aa94:	1000071e 	bne	r2,zero,180aab4 <_free_r+0x218>
 180aa98:	80bffe17 	ldw	r2,-8(r16)
 180aa9c:	4091c83a 	sub	r8,r8,r2
 180aaa0:	41000317 	ldw	r4,12(r8)
 180aaa4:	40c00217 	ldw	r3,8(r8)
 180aaa8:	308d883a 	add	r6,r6,r2
 180aaac:	20c00215 	stw	r3,8(r4)
 180aab0:	19000315 	stw	r4,12(r3)
 180aab4:	00806074 	movhi	r2,385
 180aab8:	109ec804 	addi	r2,r2,31520
 180aabc:	11000017 	ldw	r4,0(r2)
 180aac0:	30c00054 	ori	r3,r6,1
 180aac4:	52000215 	stw	r8,8(r10)
 180aac8:	40c00115 	stw	r3,4(r8)
 180aacc:	313fa036 	bltu	r6,r4,180a950 <_free_r+0xb4>
 180aad0:	00806074 	movhi	r2,385
 180aad4:	109edb04 	addi	r2,r2,31596
 180aad8:	11400017 	ldw	r5,0(r2)
 180aadc:	8809883a 	mov	r4,r17
 180aae0:	180a7700 	call	180a770 <_malloc_trim_r>
 180aae4:	003f9a06 	br	180a950 <_free_r+0xb4>
 180aae8:	00800104 	movi	r2,4
 180aaec:	10c0072e 	bgeu	r2,r3,180ab0c <_free_r+0x270>
 180aaf0:	00800504 	movi	r2,20
 180aaf4:	10c01936 	bltu	r2,r3,180ab5c <_free_r+0x2c0>
 180aaf8:	188016c4 	addi	r2,r3,91
 180aafc:	100690fa 	slli	r3,r2,3
 180ab00:	003fb306 	br	180a9d0 <_free_r+0x134>
 180ab04:	01400044 	movi	r5,1
 180ab08:	003f7e06 	br	180a904 <_free_r+0x68>
 180ab0c:	3804d1ba 	srli	r2,r7,6
 180ab10:	10800e04 	addi	r2,r2,56
 180ab14:	100690fa 	slli	r3,r2,3
 180ab18:	003fad06 	br	180a9d0 <_free_r+0x134>
 180ab1c:	22000315 	stw	r8,12(r4)
 180ab20:	22000215 	stw	r8,8(r4)
 180ab24:	3a05883a 	add	r2,r7,r8
 180ab28:	38c00054 	ori	r3,r7,1
 180ab2c:	11c00015 	stw	r7,0(r2)
 180ab30:	41000215 	stw	r4,8(r8)
 180ab34:	40c00115 	stw	r3,4(r8)
 180ab38:	41000315 	stw	r4,12(r8)
 180ab3c:	003f8406 	br	180a950 <_free_r+0xb4>
 180ab40:	1005d0ba 	srai	r2,r2,2
 180ab44:	00c00044 	movi	r3,1
 180ab48:	51000117 	ldw	r4,4(r10)
 180ab4c:	1886983a 	sll	r3,r3,r2
 180ab50:	20c8b03a 	or	r4,r4,r3
 180ab54:	51000115 	stw	r4,4(r10)
 180ab58:	003fa706 	br	180a9f8 <_free_r+0x15c>
 180ab5c:	00801504 	movi	r2,84
 180ab60:	10c00436 	bltu	r2,r3,180ab74 <_free_r+0x2d8>
 180ab64:	3804d33a 	srli	r2,r7,12
 180ab68:	10801b84 	addi	r2,r2,110
 180ab6c:	100690fa 	slli	r3,r2,3
 180ab70:	003f9706 	br	180a9d0 <_free_r+0x134>
 180ab74:	00805504 	movi	r2,340
 180ab78:	10c00436 	bltu	r2,r3,180ab8c <_free_r+0x2f0>
 180ab7c:	3804d3fa 	srli	r2,r7,15
 180ab80:	10801dc4 	addi	r2,r2,119
 180ab84:	100690fa 	slli	r3,r2,3
 180ab88:	003f9106 	br	180a9d0 <_free_r+0x134>
 180ab8c:	00815504 	movi	r2,1364
 180ab90:	10c0032e 	bgeu	r2,r3,180aba0 <_free_r+0x304>
 180ab94:	00801f84 	movi	r2,126
 180ab98:	00c0fc04 	movi	r3,1008
 180ab9c:	003f8c06 	br	180a9d0 <_free_r+0x134>
 180aba0:	3804d4ba 	srli	r2,r7,18
 180aba4:	10801f04 	addi	r2,r2,124
 180aba8:	100690fa 	slli	r3,r2,3
 180abac:	003f8806 	br	180a9d0 <_free_r+0x134>

0180abb0 <__sfvwrite_r>:
 180abb0:	30800217 	ldw	r2,8(r6)
 180abb4:	defff504 	addi	sp,sp,-44
 180abb8:	df000915 	stw	fp,36(sp)
 180abbc:	dd800715 	stw	r22,28(sp)
 180abc0:	dc800315 	stw	r18,12(sp)
 180abc4:	dfc00a15 	stw	ra,40(sp)
 180abc8:	ddc00815 	stw	r23,32(sp)
 180abcc:	dd400615 	stw	r21,24(sp)
 180abd0:	dd000515 	stw	r20,20(sp)
 180abd4:	dcc00415 	stw	r19,16(sp)
 180abd8:	dc400215 	stw	r17,8(sp)
 180abdc:	dc000115 	stw	r16,4(sp)
 180abe0:	302d883a 	mov	r22,r6
 180abe4:	2039883a 	mov	fp,r4
 180abe8:	2825883a 	mov	r18,r5
 180abec:	10001c26 	beq	r2,zero,180ac60 <__sfvwrite_r+0xb0>
 180abf0:	29c0030b 	ldhu	r7,12(r5)
 180abf4:	3880020c 	andi	r2,r7,8
 180abf8:	10002726 	beq	r2,zero,180ac98 <__sfvwrite_r+0xe8>
 180abfc:	28800417 	ldw	r2,16(r5)
 180ac00:	10002526 	beq	r2,zero,180ac98 <__sfvwrite_r+0xe8>
 180ac04:	3880008c 	andi	r2,r7,2
 180ac08:	b5400017 	ldw	r21,0(r22)
 180ac0c:	10002826 	beq	r2,zero,180acb0 <__sfvwrite_r+0x100>
 180ac10:	0021883a 	mov	r16,zero
 180ac14:	0023883a 	mov	r17,zero
 180ac18:	880d883a 	mov	r6,r17
 180ac1c:	e009883a 	mov	r4,fp
 180ac20:	00810004 	movi	r2,1024
 180ac24:	80006e26 	beq	r16,zero,180ade0 <__sfvwrite_r+0x230>
 180ac28:	800f883a 	mov	r7,r16
 180ac2c:	91400717 	ldw	r5,28(r18)
 180ac30:	1400012e 	bgeu	r2,r16,180ac38 <__sfvwrite_r+0x88>
 180ac34:	100f883a 	mov	r7,r2
 180ac38:	90c00917 	ldw	r3,36(r18)
 180ac3c:	183ee83a 	callr	r3
 180ac40:	1007883a 	mov	r3,r2
 180ac44:	80a1c83a 	sub	r16,r16,r2
 180ac48:	88a3883a 	add	r17,r17,r2
 180ac4c:	00806d0e 	bge	zero,r2,180ae04 <__sfvwrite_r+0x254>
 180ac50:	b0800217 	ldw	r2,8(r22)
 180ac54:	10c5c83a 	sub	r2,r2,r3
 180ac58:	b0800215 	stw	r2,8(r22)
 180ac5c:	103fee1e 	bne	r2,zero,180ac18 <__sfvwrite_r+0x68>
 180ac60:	0009883a 	mov	r4,zero
 180ac64:	2005883a 	mov	r2,r4
 180ac68:	dfc00a17 	ldw	ra,40(sp)
 180ac6c:	df000917 	ldw	fp,36(sp)
 180ac70:	ddc00817 	ldw	r23,32(sp)
 180ac74:	dd800717 	ldw	r22,28(sp)
 180ac78:	dd400617 	ldw	r21,24(sp)
 180ac7c:	dd000517 	ldw	r20,20(sp)
 180ac80:	dcc00417 	ldw	r19,16(sp)
 180ac84:	dc800317 	ldw	r18,12(sp)
 180ac88:	dc400217 	ldw	r17,8(sp)
 180ac8c:	dc000117 	ldw	r16,4(sp)
 180ac90:	dec00b04 	addi	sp,sp,44
 180ac94:	f800283a 	ret
 180ac98:	18089780 	call	1808978 <__swsetup_r>
 180ac9c:	1000e41e 	bne	r2,zero,180b030 <__sfvwrite_r+0x480>
 180aca0:	91c0030b 	ldhu	r7,12(r18)
 180aca4:	b5400017 	ldw	r21,0(r22)
 180aca8:	3880008c 	andi	r2,r7,2
 180acac:	103fd81e 	bne	r2,zero,180ac10 <__sfvwrite_r+0x60>
 180acb0:	3880004c 	andi	r2,r7,1
 180acb4:	1005003a 	cmpeq	r2,r2,zero
 180acb8:	10005726 	beq	r2,zero,180ae18 <__sfvwrite_r+0x268>
 180acbc:	0029883a 	mov	r20,zero
 180acc0:	002f883a 	mov	r23,zero
 180acc4:	a0004226 	beq	r20,zero,180add0 <__sfvwrite_r+0x220>
 180acc8:	3880800c 	andi	r2,r7,512
 180accc:	94000217 	ldw	r16,8(r18)
 180acd0:	10008b26 	beq	r2,zero,180af00 <__sfvwrite_r+0x350>
 180acd4:	800d883a 	mov	r6,r16
 180acd8:	a400a536 	bltu	r20,r16,180af70 <__sfvwrite_r+0x3c0>
 180acdc:	3881200c 	andi	r2,r7,1152
 180ace0:	10002726 	beq	r2,zero,180ad80 <__sfvwrite_r+0x1d0>
 180ace4:	90800517 	ldw	r2,20(r18)
 180ace8:	92000417 	ldw	r8,16(r18)
 180acec:	91400017 	ldw	r5,0(r18)
 180acf0:	1087883a 	add	r3,r2,r2
 180acf4:	1887883a 	add	r3,r3,r2
 180acf8:	1808d7fa 	srli	r4,r3,31
 180acfc:	2a21c83a 	sub	r16,r5,r8
 180ad00:	80800044 	addi	r2,r16,1
 180ad04:	20c9883a 	add	r4,r4,r3
 180ad08:	2027d07a 	srai	r19,r4,1
 180ad0c:	a085883a 	add	r2,r20,r2
 180ad10:	980d883a 	mov	r6,r19
 180ad14:	9880022e 	bgeu	r19,r2,180ad20 <__sfvwrite_r+0x170>
 180ad18:	1027883a 	mov	r19,r2
 180ad1c:	100d883a 	mov	r6,r2
 180ad20:	3881000c 	andi	r2,r7,1024
 180ad24:	1000b826 	beq	r2,zero,180b008 <__sfvwrite_r+0x458>
 180ad28:	300b883a 	mov	r5,r6
 180ad2c:	e009883a 	mov	r4,fp
 180ad30:	180b4240 	call	180b424 <_malloc_r>
 180ad34:	10003126 	beq	r2,zero,180adfc <__sfvwrite_r+0x24c>
 180ad38:	91400417 	ldw	r5,16(r18)
 180ad3c:	1009883a 	mov	r4,r2
 180ad40:	800d883a 	mov	r6,r16
 180ad44:	1023883a 	mov	r17,r2
 180ad48:	18069380 	call	1806938 <memcpy>
 180ad4c:	90c0030b 	ldhu	r3,12(r18)
 180ad50:	00beffc4 	movi	r2,-1025
 180ad54:	1886703a 	and	r3,r3,r2
 180ad58:	18c02014 	ori	r3,r3,128
 180ad5c:	90c0030d 	sth	r3,12(r18)
 180ad60:	9c07c83a 	sub	r3,r19,r16
 180ad64:	8c05883a 	add	r2,r17,r16
 180ad68:	a00d883a 	mov	r6,r20
 180ad6c:	a021883a 	mov	r16,r20
 180ad70:	90800015 	stw	r2,0(r18)
 180ad74:	90c00215 	stw	r3,8(r18)
 180ad78:	94400415 	stw	r17,16(r18)
 180ad7c:	94c00515 	stw	r19,20(r18)
 180ad80:	91000017 	ldw	r4,0(r18)
 180ad84:	b80b883a 	mov	r5,r23
 180ad88:	a023883a 	mov	r17,r20
 180ad8c:	180bc480 	call	180bc48 <memmove>
 180ad90:	90c00217 	ldw	r3,8(r18)
 180ad94:	90800017 	ldw	r2,0(r18)
 180ad98:	a027883a 	mov	r19,r20
 180ad9c:	1c07c83a 	sub	r3,r3,r16
 180ada0:	1405883a 	add	r2,r2,r16
 180ada4:	90c00215 	stw	r3,8(r18)
 180ada8:	a021883a 	mov	r16,r20
 180adac:	90800015 	stw	r2,0(r18)
 180adb0:	b0800217 	ldw	r2,8(r22)
 180adb4:	1405c83a 	sub	r2,r2,r16
 180adb8:	b0800215 	stw	r2,8(r22)
 180adbc:	103fa826 	beq	r2,zero,180ac60 <__sfvwrite_r+0xb0>
 180adc0:	a469c83a 	sub	r20,r20,r17
 180adc4:	91c0030b 	ldhu	r7,12(r18)
 180adc8:	bcef883a 	add	r23,r23,r19
 180adcc:	a03fbe1e 	bne	r20,zero,180acc8 <__sfvwrite_r+0x118>
 180add0:	adc00017 	ldw	r23,0(r21)
 180add4:	ad000117 	ldw	r20,4(r21)
 180add8:	ad400204 	addi	r21,r21,8
 180addc:	003fb906 	br	180acc4 <__sfvwrite_r+0x114>
 180ade0:	ac400017 	ldw	r17,0(r21)
 180ade4:	ac000117 	ldw	r16,4(r21)
 180ade8:	ad400204 	addi	r21,r21,8
 180adec:	003f8a06 	br	180ac18 <__sfvwrite_r+0x68>
 180adf0:	91400417 	ldw	r5,16(r18)
 180adf4:	e009883a 	mov	r4,fp
 180adf8:	180a89c0 	call	180a89c <_free_r>
 180adfc:	00800304 	movi	r2,12
 180ae00:	e0800015 	stw	r2,0(fp)
 180ae04:	9080030b 	ldhu	r2,12(r18)
 180ae08:	013fffc4 	movi	r4,-1
 180ae0c:	10801014 	ori	r2,r2,64
 180ae10:	9080030d 	sth	r2,12(r18)
 180ae14:	003f9306 	br	180ac64 <__sfvwrite_r+0xb4>
 180ae18:	0027883a 	mov	r19,zero
 180ae1c:	002f883a 	mov	r23,zero
 180ae20:	d8000015 	stw	zero,0(sp)
 180ae24:	0029883a 	mov	r20,zero
 180ae28:	98001e26 	beq	r19,zero,180aea4 <__sfvwrite_r+0x2f4>
 180ae2c:	d8c00017 	ldw	r3,0(sp)
 180ae30:	1804c03a 	cmpne	r2,r3,zero
 180ae34:	10005e26 	beq	r2,zero,180afb0 <__sfvwrite_r+0x400>
 180ae38:	9821883a 	mov	r16,r19
 180ae3c:	a4c0012e 	bgeu	r20,r19,180ae44 <__sfvwrite_r+0x294>
 180ae40:	a021883a 	mov	r16,r20
 180ae44:	91000017 	ldw	r4,0(r18)
 180ae48:	90800417 	ldw	r2,16(r18)
 180ae4c:	91800217 	ldw	r6,8(r18)
 180ae50:	91c00517 	ldw	r7,20(r18)
 180ae54:	1100022e 	bgeu	r2,r4,180ae60 <__sfvwrite_r+0x2b0>
 180ae58:	31e3883a 	add	r17,r6,r7
 180ae5c:	8c001616 	blt	r17,r16,180aeb8 <__sfvwrite_r+0x308>
 180ae60:	81c03816 	blt	r16,r7,180af44 <__sfvwrite_r+0x394>
 180ae64:	90c00917 	ldw	r3,36(r18)
 180ae68:	91400717 	ldw	r5,28(r18)
 180ae6c:	e009883a 	mov	r4,fp
 180ae70:	b80d883a 	mov	r6,r23
 180ae74:	183ee83a 	callr	r3
 180ae78:	1023883a 	mov	r17,r2
 180ae7c:	00bfe10e 	bge	zero,r2,180ae04 <__sfvwrite_r+0x254>
 180ae80:	a469c83a 	sub	r20,r20,r17
 180ae84:	a0001826 	beq	r20,zero,180aee8 <__sfvwrite_r+0x338>
 180ae88:	b0800217 	ldw	r2,8(r22)
 180ae8c:	1445c83a 	sub	r2,r2,r17
 180ae90:	b0800215 	stw	r2,8(r22)
 180ae94:	103f7226 	beq	r2,zero,180ac60 <__sfvwrite_r+0xb0>
 180ae98:	9c67c83a 	sub	r19,r19,r17
 180ae9c:	bc6f883a 	add	r23,r23,r17
 180aea0:	983fe21e 	bne	r19,zero,180ae2c <__sfvwrite_r+0x27c>
 180aea4:	adc00017 	ldw	r23,0(r21)
 180aea8:	acc00117 	ldw	r19,4(r21)
 180aeac:	ad400204 	addi	r21,r21,8
 180aeb0:	d8000015 	stw	zero,0(sp)
 180aeb4:	003fdc06 	br	180ae28 <__sfvwrite_r+0x278>
 180aeb8:	b80b883a 	mov	r5,r23
 180aebc:	880d883a 	mov	r6,r17
 180aec0:	180bc480 	call	180bc48 <memmove>
 180aec4:	90c00017 	ldw	r3,0(r18)
 180aec8:	e009883a 	mov	r4,fp
 180aecc:	900b883a 	mov	r5,r18
 180aed0:	1c47883a 	add	r3,r3,r17
 180aed4:	90c00015 	stw	r3,0(r18)
 180aed8:	180a2800 	call	180a280 <_fflush_r>
 180aedc:	103fc91e 	bne	r2,zero,180ae04 <__sfvwrite_r+0x254>
 180aee0:	a469c83a 	sub	r20,r20,r17
 180aee4:	a03fe81e 	bne	r20,zero,180ae88 <__sfvwrite_r+0x2d8>
 180aee8:	e009883a 	mov	r4,fp
 180aeec:	900b883a 	mov	r5,r18
 180aef0:	180a2800 	call	180a280 <_fflush_r>
 180aef4:	103fc31e 	bne	r2,zero,180ae04 <__sfvwrite_r+0x254>
 180aef8:	d8000015 	stw	zero,0(sp)
 180aefc:	003fe206 	br	180ae88 <__sfvwrite_r+0x2d8>
 180af00:	91000017 	ldw	r4,0(r18)
 180af04:	90800417 	ldw	r2,16(r18)
 180af08:	1100022e 	bgeu	r2,r4,180af14 <__sfvwrite_r+0x364>
 180af0c:	8023883a 	mov	r17,r16
 180af10:	85003136 	bltu	r16,r20,180afd8 <__sfvwrite_r+0x428>
 180af14:	91c00517 	ldw	r7,20(r18)
 180af18:	a1c01836 	bltu	r20,r7,180af7c <__sfvwrite_r+0x3cc>
 180af1c:	90c00917 	ldw	r3,36(r18)
 180af20:	91400717 	ldw	r5,28(r18)
 180af24:	e009883a 	mov	r4,fp
 180af28:	b80d883a 	mov	r6,r23
 180af2c:	183ee83a 	callr	r3
 180af30:	1021883a 	mov	r16,r2
 180af34:	00bfb30e 	bge	zero,r2,180ae04 <__sfvwrite_r+0x254>
 180af38:	1023883a 	mov	r17,r2
 180af3c:	1027883a 	mov	r19,r2
 180af40:	003f9b06 	br	180adb0 <__sfvwrite_r+0x200>
 180af44:	b80b883a 	mov	r5,r23
 180af48:	800d883a 	mov	r6,r16
 180af4c:	180bc480 	call	180bc48 <memmove>
 180af50:	90c00217 	ldw	r3,8(r18)
 180af54:	90800017 	ldw	r2,0(r18)
 180af58:	8023883a 	mov	r17,r16
 180af5c:	1c07c83a 	sub	r3,r3,r16
 180af60:	1405883a 	add	r2,r2,r16
 180af64:	90c00215 	stw	r3,8(r18)
 180af68:	90800015 	stw	r2,0(r18)
 180af6c:	003fc406 	br	180ae80 <__sfvwrite_r+0x2d0>
 180af70:	a00d883a 	mov	r6,r20
 180af74:	a021883a 	mov	r16,r20
 180af78:	003f8106 	br	180ad80 <__sfvwrite_r+0x1d0>
 180af7c:	b80b883a 	mov	r5,r23
 180af80:	a00d883a 	mov	r6,r20
 180af84:	180bc480 	call	180bc48 <memmove>
 180af88:	90c00217 	ldw	r3,8(r18)
 180af8c:	90800017 	ldw	r2,0(r18)
 180af90:	a021883a 	mov	r16,r20
 180af94:	1d07c83a 	sub	r3,r3,r20
 180af98:	1505883a 	add	r2,r2,r20
 180af9c:	a023883a 	mov	r17,r20
 180afa0:	a027883a 	mov	r19,r20
 180afa4:	90c00215 	stw	r3,8(r18)
 180afa8:	90800015 	stw	r2,0(r18)
 180afac:	003f8006 	br	180adb0 <__sfvwrite_r+0x200>
 180afb0:	b809883a 	mov	r4,r23
 180afb4:	01400284 	movi	r5,10
 180afb8:	980d883a 	mov	r6,r19
 180afbc:	180bb640 	call	180bb64 <memchr>
 180afc0:	10001726 	beq	r2,zero,180b020 <__sfvwrite_r+0x470>
 180afc4:	15c5c83a 	sub	r2,r2,r23
 180afc8:	15000044 	addi	r20,r2,1
 180afcc:	00800044 	movi	r2,1
 180afd0:	d8800015 	stw	r2,0(sp)
 180afd4:	003f9806 	br	180ae38 <__sfvwrite_r+0x288>
 180afd8:	b80b883a 	mov	r5,r23
 180afdc:	800d883a 	mov	r6,r16
 180afe0:	180bc480 	call	180bc48 <memmove>
 180afe4:	90c00017 	ldw	r3,0(r18)
 180afe8:	e009883a 	mov	r4,fp
 180afec:	900b883a 	mov	r5,r18
 180aff0:	1c07883a 	add	r3,r3,r16
 180aff4:	90c00015 	stw	r3,0(r18)
 180aff8:	8027883a 	mov	r19,r16
 180affc:	180a2800 	call	180a280 <_fflush_r>
 180b000:	103f6b26 	beq	r2,zero,180adb0 <__sfvwrite_r+0x200>
 180b004:	003f7f06 	br	180ae04 <__sfvwrite_r+0x254>
 180b008:	400b883a 	mov	r5,r8
 180b00c:	e009883a 	mov	r4,fp
 180b010:	180cdb40 	call	180cdb4 <_realloc_r>
 180b014:	103f7626 	beq	r2,zero,180adf0 <__sfvwrite_r+0x240>
 180b018:	1023883a 	mov	r17,r2
 180b01c:	003f5006 	br	180ad60 <__sfvwrite_r+0x1b0>
 180b020:	00c00044 	movi	r3,1
 180b024:	9d000044 	addi	r20,r19,1
 180b028:	d8c00015 	stw	r3,0(sp)
 180b02c:	003f8206 	br	180ae38 <__sfvwrite_r+0x288>
 180b030:	9080030b 	ldhu	r2,12(r18)
 180b034:	00c00244 	movi	r3,9
 180b038:	013fffc4 	movi	r4,-1
 180b03c:	10801014 	ori	r2,r2,64
 180b040:	9080030d 	sth	r2,12(r18)
 180b044:	e0c00015 	stw	r3,0(fp)
 180b048:	003f0606 	br	180ac64 <__sfvwrite_r+0xb4>

0180b04c <_fwalk_reent>:
 180b04c:	defff704 	addi	sp,sp,-36
 180b050:	dcc00315 	stw	r19,12(sp)
 180b054:	24c0b804 	addi	r19,r4,736
 180b058:	dd800615 	stw	r22,24(sp)
 180b05c:	dd400515 	stw	r21,20(sp)
 180b060:	dfc00815 	stw	ra,32(sp)
 180b064:	ddc00715 	stw	r23,28(sp)
 180b068:	dd000415 	stw	r20,16(sp)
 180b06c:	dc800215 	stw	r18,8(sp)
 180b070:	dc400115 	stw	r17,4(sp)
 180b074:	dc000015 	stw	r16,0(sp)
 180b078:	202b883a 	mov	r21,r4
 180b07c:	282d883a 	mov	r22,r5
 180b080:	180a5080 	call	180a508 <__sfp_lock_acquire>
 180b084:	98002126 	beq	r19,zero,180b10c <_fwalk_reent+0xc0>
 180b088:	002f883a 	mov	r23,zero
 180b08c:	9c800117 	ldw	r18,4(r19)
 180b090:	9c000217 	ldw	r16,8(r19)
 180b094:	90bfffc4 	addi	r2,r18,-1
 180b098:	10000d16 	blt	r2,zero,180b0d0 <_fwalk_reent+0x84>
 180b09c:	0023883a 	mov	r17,zero
 180b0a0:	053fffc4 	movi	r20,-1
 180b0a4:	8080030f 	ldh	r2,12(r16)
 180b0a8:	8c400044 	addi	r17,r17,1
 180b0ac:	10000626 	beq	r2,zero,180b0c8 <_fwalk_reent+0x7c>
 180b0b0:	8080038f 	ldh	r2,14(r16)
 180b0b4:	800b883a 	mov	r5,r16
 180b0b8:	a809883a 	mov	r4,r21
 180b0bc:	15000226 	beq	r2,r20,180b0c8 <_fwalk_reent+0x7c>
 180b0c0:	b03ee83a 	callr	r22
 180b0c4:	b8aeb03a 	or	r23,r23,r2
 180b0c8:	84001704 	addi	r16,r16,92
 180b0cc:	947ff51e 	bne	r18,r17,180b0a4 <_fwalk_reent+0x58>
 180b0d0:	9cc00017 	ldw	r19,0(r19)
 180b0d4:	983fed1e 	bne	r19,zero,180b08c <_fwalk_reent+0x40>
 180b0d8:	180a50c0 	call	180a50c <__sfp_lock_release>
 180b0dc:	b805883a 	mov	r2,r23
 180b0e0:	dfc00817 	ldw	ra,32(sp)
 180b0e4:	ddc00717 	ldw	r23,28(sp)
 180b0e8:	dd800617 	ldw	r22,24(sp)
 180b0ec:	dd400517 	ldw	r21,20(sp)
 180b0f0:	dd000417 	ldw	r20,16(sp)
 180b0f4:	dcc00317 	ldw	r19,12(sp)
 180b0f8:	dc800217 	ldw	r18,8(sp)
 180b0fc:	dc400117 	ldw	r17,4(sp)
 180b100:	dc000017 	ldw	r16,0(sp)
 180b104:	dec00904 	addi	sp,sp,36
 180b108:	f800283a 	ret
 180b10c:	002f883a 	mov	r23,zero
 180b110:	003ff106 	br	180b0d8 <_fwalk_reent+0x8c>

0180b114 <_fwalk>:
 180b114:	defff804 	addi	sp,sp,-32
 180b118:	dcc00315 	stw	r19,12(sp)
 180b11c:	24c0b804 	addi	r19,r4,736
 180b120:	dd400515 	stw	r21,20(sp)
 180b124:	dfc00715 	stw	ra,28(sp)
 180b128:	dd800615 	stw	r22,24(sp)
 180b12c:	dd000415 	stw	r20,16(sp)
 180b130:	dc800215 	stw	r18,8(sp)
 180b134:	dc400115 	stw	r17,4(sp)
 180b138:	dc000015 	stw	r16,0(sp)
 180b13c:	282b883a 	mov	r21,r5
 180b140:	180a5080 	call	180a508 <__sfp_lock_acquire>
 180b144:	98001f26 	beq	r19,zero,180b1c4 <_fwalk+0xb0>
 180b148:	002d883a 	mov	r22,zero
 180b14c:	9c800117 	ldw	r18,4(r19)
 180b150:	9c000217 	ldw	r16,8(r19)
 180b154:	90bfffc4 	addi	r2,r18,-1
 180b158:	10000c16 	blt	r2,zero,180b18c <_fwalk+0x78>
 180b15c:	0023883a 	mov	r17,zero
 180b160:	053fffc4 	movi	r20,-1
 180b164:	8080030f 	ldh	r2,12(r16)
 180b168:	8c400044 	addi	r17,r17,1
 180b16c:	10000526 	beq	r2,zero,180b184 <_fwalk+0x70>
 180b170:	8080038f 	ldh	r2,14(r16)
 180b174:	8009883a 	mov	r4,r16
 180b178:	15000226 	beq	r2,r20,180b184 <_fwalk+0x70>
 180b17c:	a83ee83a 	callr	r21
 180b180:	b0acb03a 	or	r22,r22,r2
 180b184:	84001704 	addi	r16,r16,92
 180b188:	947ff61e 	bne	r18,r17,180b164 <_fwalk+0x50>
 180b18c:	9cc00017 	ldw	r19,0(r19)
 180b190:	983fee1e 	bne	r19,zero,180b14c <_fwalk+0x38>
 180b194:	180a50c0 	call	180a50c <__sfp_lock_release>
 180b198:	b005883a 	mov	r2,r22
 180b19c:	dfc00717 	ldw	ra,28(sp)
 180b1a0:	dd800617 	ldw	r22,24(sp)
 180b1a4:	dd400517 	ldw	r21,20(sp)
 180b1a8:	dd000417 	ldw	r20,16(sp)
 180b1ac:	dcc00317 	ldw	r19,12(sp)
 180b1b0:	dc800217 	ldw	r18,8(sp)
 180b1b4:	dc400117 	ldw	r17,4(sp)
 180b1b8:	dc000017 	ldw	r16,0(sp)
 180b1bc:	dec00804 	addi	sp,sp,32
 180b1c0:	f800283a 	ret
 180b1c4:	002d883a 	mov	r22,zero
 180b1c8:	003ff206 	br	180b194 <_fwalk+0x80>

0180b1cc <__locale_charset>:
 180b1cc:	d0a00417 	ldw	r2,-32752(gp)
 180b1d0:	f800283a 	ret

0180b1d4 <_localeconv_r>:
 180b1d4:	00806074 	movhi	r2,385
 180b1d8:	10968204 	addi	r2,r2,23048
 180b1dc:	f800283a 	ret

0180b1e0 <localeconv>:
 180b1e0:	00806074 	movhi	r2,385
 180b1e4:	109ec404 	addi	r2,r2,31504
 180b1e8:	11000017 	ldw	r4,0(r2)
 180b1ec:	180b1d41 	jmpi	180b1d4 <_localeconv_r>

0180b1f0 <_setlocale_r>:
 180b1f0:	defffc04 	addi	sp,sp,-16
 180b1f4:	00c06074 	movhi	r3,385
 180b1f8:	18d65904 	addi	r3,r3,22884
 180b1fc:	dc800215 	stw	r18,8(sp)
 180b200:	dc400115 	stw	r17,4(sp)
 180b204:	dc000015 	stw	r16,0(sp)
 180b208:	2023883a 	mov	r17,r4
 180b20c:	2825883a 	mov	r18,r5
 180b210:	dfc00315 	stw	ra,12(sp)
 180b214:	3021883a 	mov	r16,r6
 180b218:	3009883a 	mov	r4,r6
 180b21c:	180b883a 	mov	r5,r3
 180b220:	30000926 	beq	r6,zero,180b248 <_setlocale_r+0x58>
 180b224:	180d5a40 	call	180d5a4 <strcmp>
 180b228:	8009883a 	mov	r4,r16
 180b22c:	01406074 	movhi	r5,385
 180b230:	29566904 	addi	r5,r5,22948
 180b234:	10000b1e 	bne	r2,zero,180b264 <_setlocale_r+0x74>
 180b238:	8c000d15 	stw	r16,52(r17)
 180b23c:	8c800c15 	stw	r18,48(r17)
 180b240:	00c06074 	movhi	r3,385
 180b244:	18d65904 	addi	r3,r3,22884
 180b248:	1805883a 	mov	r2,r3
 180b24c:	dfc00317 	ldw	ra,12(sp)
 180b250:	dc800217 	ldw	r18,8(sp)
 180b254:	dc400117 	ldw	r17,4(sp)
 180b258:	dc000017 	ldw	r16,0(sp)
 180b25c:	dec00404 	addi	sp,sp,16
 180b260:	f800283a 	ret
 180b264:	180d5a40 	call	180d5a4 <strcmp>
 180b268:	0007883a 	mov	r3,zero
 180b26c:	103ff226 	beq	r2,zero,180b238 <_setlocale_r+0x48>
 180b270:	003ff506 	br	180b248 <_setlocale_r+0x58>

0180b274 <setlocale>:
 180b274:	01806074 	movhi	r6,385
 180b278:	319ec404 	addi	r6,r6,31504
 180b27c:	2007883a 	mov	r3,r4
 180b280:	31000017 	ldw	r4,0(r6)
 180b284:	280d883a 	mov	r6,r5
 180b288:	180b883a 	mov	r5,r3
 180b28c:	180b1f01 	jmpi	180b1f0 <_setlocale_r>

0180b290 <__smakebuf_r>:
 180b290:	2880030b 	ldhu	r2,12(r5)
 180b294:	deffed04 	addi	sp,sp,-76
 180b298:	dc401015 	stw	r17,64(sp)
 180b29c:	1080008c 	andi	r2,r2,2
 180b2a0:	dc000f15 	stw	r16,60(sp)
 180b2a4:	dfc01215 	stw	ra,72(sp)
 180b2a8:	dc801115 	stw	r18,68(sp)
 180b2ac:	2821883a 	mov	r16,r5
 180b2b0:	2023883a 	mov	r17,r4
 180b2b4:	10000b26 	beq	r2,zero,180b2e4 <__smakebuf_r+0x54>
 180b2b8:	28c010c4 	addi	r3,r5,67
 180b2bc:	00800044 	movi	r2,1
 180b2c0:	28800515 	stw	r2,20(r5)
 180b2c4:	28c00415 	stw	r3,16(r5)
 180b2c8:	28c00015 	stw	r3,0(r5)
 180b2cc:	dfc01217 	ldw	ra,72(sp)
 180b2d0:	dc801117 	ldw	r18,68(sp)
 180b2d4:	dc401017 	ldw	r17,64(sp)
 180b2d8:	dc000f17 	ldw	r16,60(sp)
 180b2dc:	dec01304 	addi	sp,sp,76
 180b2e0:	f800283a 	ret
 180b2e4:	2940038f 	ldh	r5,14(r5)
 180b2e8:	28002116 	blt	r5,zero,180b370 <__smakebuf_r+0xe0>
 180b2ec:	d80d883a 	mov	r6,sp
 180b2f0:	180d9940 	call	180d994 <_fstat_r>
 180b2f4:	10001e16 	blt	r2,zero,180b370 <__smakebuf_r+0xe0>
 180b2f8:	d8800117 	ldw	r2,4(sp)
 180b2fc:	00e00014 	movui	r3,32768
 180b300:	113c000c 	andi	r4,r2,61440
 180b304:	20c03126 	beq	r4,r3,180b3cc <__smakebuf_r+0x13c>
 180b308:	8080030b 	ldhu	r2,12(r16)
 180b30c:	00c80004 	movi	r3,8192
 180b310:	10820014 	ori	r2,r2,2048
 180b314:	8080030d 	sth	r2,12(r16)
 180b318:	20c01e26 	beq	r4,r3,180b394 <__smakebuf_r+0x104>
 180b31c:	04810004 	movi	r18,1024
 180b320:	8809883a 	mov	r4,r17
 180b324:	900b883a 	mov	r5,r18
 180b328:	180b4240 	call	180b424 <_malloc_r>
 180b32c:	1009883a 	mov	r4,r2
 180b330:	10003126 	beq	r2,zero,180b3f8 <__smakebuf_r+0x168>
 180b334:	80c0030b 	ldhu	r3,12(r16)
 180b338:	00806074 	movhi	r2,385
 180b33c:	10a97f04 	addi	r2,r2,-23044
 180b340:	88800f15 	stw	r2,60(r17)
 180b344:	18c02014 	ori	r3,r3,128
 180b348:	84800515 	stw	r18,20(r16)
 180b34c:	80c0030d 	sth	r3,12(r16)
 180b350:	81000415 	stw	r4,16(r16)
 180b354:	81000015 	stw	r4,0(r16)
 180b358:	dfc01217 	ldw	ra,72(sp)
 180b35c:	dc801117 	ldw	r18,68(sp)
 180b360:	dc401017 	ldw	r17,64(sp)
 180b364:	dc000f17 	ldw	r16,60(sp)
 180b368:	dec01304 	addi	sp,sp,76
 180b36c:	f800283a 	ret
 180b370:	80c0030b 	ldhu	r3,12(r16)
 180b374:	1880200c 	andi	r2,r3,128
 180b378:	10000426 	beq	r2,zero,180b38c <__smakebuf_r+0xfc>
 180b37c:	04801004 	movi	r18,64
 180b380:	18820014 	ori	r2,r3,2048
 180b384:	8080030d 	sth	r2,12(r16)
 180b388:	003fe506 	br	180b320 <__smakebuf_r+0x90>
 180b38c:	04810004 	movi	r18,1024
 180b390:	003ffb06 	br	180b380 <__smakebuf_r+0xf0>
 180b394:	8140038f 	ldh	r5,14(r16)
 180b398:	8809883a 	mov	r4,r17
 180b39c:	180da080 	call	180da08 <_isatty_r>
 180b3a0:	103fde26 	beq	r2,zero,180b31c <__smakebuf_r+0x8c>
 180b3a4:	8080030b 	ldhu	r2,12(r16)
 180b3a8:	80c010c4 	addi	r3,r16,67
 180b3ac:	04810004 	movi	r18,1024
 180b3b0:	10800054 	ori	r2,r2,1
 180b3b4:	8080030d 	sth	r2,12(r16)
 180b3b8:	00800044 	movi	r2,1
 180b3bc:	80c00415 	stw	r3,16(r16)
 180b3c0:	80800515 	stw	r2,20(r16)
 180b3c4:	80c00015 	stw	r3,0(r16)
 180b3c8:	003fd506 	br	180b320 <__smakebuf_r+0x90>
 180b3cc:	80c00a17 	ldw	r3,40(r16)
 180b3d0:	00806074 	movhi	r2,385
 180b3d4:	10b51804 	addi	r2,r2,-11168
 180b3d8:	18bfcb1e 	bne	r3,r2,180b308 <__smakebuf_r+0x78>
 180b3dc:	8080030b 	ldhu	r2,12(r16)
 180b3e0:	00c10004 	movi	r3,1024
 180b3e4:	1825883a 	mov	r18,r3
 180b3e8:	10c4b03a 	or	r2,r2,r3
 180b3ec:	8080030d 	sth	r2,12(r16)
 180b3f0:	80c01315 	stw	r3,76(r16)
 180b3f4:	003fca06 	br	180b320 <__smakebuf_r+0x90>
 180b3f8:	8100030b 	ldhu	r4,12(r16)
 180b3fc:	2080800c 	andi	r2,r4,512
 180b400:	103fb21e 	bne	r2,zero,180b2cc <__smakebuf_r+0x3c>
 180b404:	80c010c4 	addi	r3,r16,67
 180b408:	21000094 	ori	r4,r4,2
 180b40c:	00800044 	movi	r2,1
 180b410:	80800515 	stw	r2,20(r16)
 180b414:	8100030d 	sth	r4,12(r16)
 180b418:	80c00415 	stw	r3,16(r16)
 180b41c:	80c00015 	stw	r3,0(r16)
 180b420:	003faa06 	br	180b2cc <__smakebuf_r+0x3c>

0180b424 <_malloc_r>:
 180b424:	defff604 	addi	sp,sp,-40
 180b428:	28c002c4 	addi	r3,r5,11
 180b42c:	00800584 	movi	r2,22
 180b430:	dc800215 	stw	r18,8(sp)
 180b434:	dfc00915 	stw	ra,36(sp)
 180b438:	df000815 	stw	fp,32(sp)
 180b43c:	ddc00715 	stw	r23,28(sp)
 180b440:	dd800615 	stw	r22,24(sp)
 180b444:	dd400515 	stw	r21,20(sp)
 180b448:	dd000415 	stw	r20,16(sp)
 180b44c:	dcc00315 	stw	r19,12(sp)
 180b450:	dc400115 	stw	r17,4(sp)
 180b454:	dc000015 	stw	r16,0(sp)
 180b458:	2025883a 	mov	r18,r4
 180b45c:	10c01236 	bltu	r2,r3,180b4a8 <_malloc_r+0x84>
 180b460:	04400404 	movi	r17,16
 180b464:	8940142e 	bgeu	r17,r5,180b4b8 <_malloc_r+0x94>
 180b468:	00800304 	movi	r2,12
 180b46c:	0007883a 	mov	r3,zero
 180b470:	90800015 	stw	r2,0(r18)
 180b474:	1805883a 	mov	r2,r3
 180b478:	dfc00917 	ldw	ra,36(sp)
 180b47c:	df000817 	ldw	fp,32(sp)
 180b480:	ddc00717 	ldw	r23,28(sp)
 180b484:	dd800617 	ldw	r22,24(sp)
 180b488:	dd400517 	ldw	r21,20(sp)
 180b48c:	dd000417 	ldw	r20,16(sp)
 180b490:	dcc00317 	ldw	r19,12(sp)
 180b494:	dc800217 	ldw	r18,8(sp)
 180b498:	dc400117 	ldw	r17,4(sp)
 180b49c:	dc000017 	ldw	r16,0(sp)
 180b4a0:	dec00a04 	addi	sp,sp,40
 180b4a4:	f800283a 	ret
 180b4a8:	00bffe04 	movi	r2,-8
 180b4ac:	18a2703a 	and	r17,r3,r2
 180b4b0:	883fed16 	blt	r17,zero,180b468 <_malloc_r+0x44>
 180b4b4:	897fec36 	bltu	r17,r5,180b468 <_malloc_r+0x44>
 180b4b8:	9009883a 	mov	r4,r18
 180b4bc:	180eea80 	call	180eea8 <__malloc_lock>
 180b4c0:	00807dc4 	movi	r2,503
 180b4c4:	14402b2e 	bgeu	r2,r17,180b574 <_malloc_r+0x150>
 180b4c8:	8806d27a 	srli	r3,r17,9
 180b4cc:	18003f1e 	bne	r3,zero,180b5cc <_malloc_r+0x1a8>
 180b4d0:	880cd0fa 	srli	r6,r17,3
 180b4d4:	300490fa 	slli	r2,r6,3
 180b4d8:	02c06074 	movhi	r11,385
 180b4dc:	5ad89004 	addi	r11,r11,25152
 180b4e0:	12cb883a 	add	r5,r2,r11
 180b4e4:	2c000317 	ldw	r16,12(r5)
 180b4e8:	580f883a 	mov	r7,r11
 180b4ec:	2c00041e 	bne	r5,r16,180b500 <_malloc_r+0xdc>
 180b4f0:	00000a06 	br	180b51c <_malloc_r+0xf8>
 180b4f4:	1800860e 	bge	r3,zero,180b710 <_malloc_r+0x2ec>
 180b4f8:	84000317 	ldw	r16,12(r16)
 180b4fc:	2c000726 	beq	r5,r16,180b51c <_malloc_r+0xf8>
 180b500:	80800117 	ldw	r2,4(r16)
 180b504:	00ffff04 	movi	r3,-4
 180b508:	10c8703a 	and	r4,r2,r3
 180b50c:	2447c83a 	sub	r3,r4,r17
 180b510:	008003c4 	movi	r2,15
 180b514:	10fff70e 	bge	r2,r3,180b4f4 <_malloc_r+0xd0>
 180b518:	31bfffc4 	addi	r6,r6,-1
 180b51c:	32400044 	addi	r9,r6,1
 180b520:	02806074 	movhi	r10,385
 180b524:	52989204 	addi	r10,r10,25160
 180b528:	54000217 	ldw	r16,8(r10)
 180b52c:	8280a026 	beq	r16,r10,180b7b0 <_malloc_r+0x38c>
 180b530:	80800117 	ldw	r2,4(r16)
 180b534:	00ffff04 	movi	r3,-4
 180b538:	10ca703a 	and	r5,r2,r3
 180b53c:	2c4dc83a 	sub	r6,r5,r17
 180b540:	008003c4 	movi	r2,15
 180b544:	11808316 	blt	r2,r6,180b754 <_malloc_r+0x330>
 180b548:	52800315 	stw	r10,12(r10)
 180b54c:	52800215 	stw	r10,8(r10)
 180b550:	30002916 	blt	r6,zero,180b5f8 <_malloc_r+0x1d4>
 180b554:	8147883a 	add	r3,r16,r5
 180b558:	18800117 	ldw	r2,4(r3)
 180b55c:	9009883a 	mov	r4,r18
 180b560:	10800054 	ori	r2,r2,1
 180b564:	18800115 	stw	r2,4(r3)
 180b568:	180eec80 	call	180eec8 <__malloc_unlock>
 180b56c:	80c00204 	addi	r3,r16,8
 180b570:	003fc006 	br	180b474 <_malloc_r+0x50>
 180b574:	02c06074 	movhi	r11,385
 180b578:	5ad89004 	addi	r11,r11,25152
 180b57c:	8ac5883a 	add	r2,r17,r11
 180b580:	14000317 	ldw	r16,12(r2)
 180b584:	580f883a 	mov	r7,r11
 180b588:	8806d0fa 	srli	r3,r17,3
 180b58c:	14006c26 	beq	r2,r16,180b740 <_malloc_r+0x31c>
 180b590:	80c00117 	ldw	r3,4(r16)
 180b594:	00bfff04 	movi	r2,-4
 180b598:	81800317 	ldw	r6,12(r16)
 180b59c:	1886703a 	and	r3,r3,r2
 180b5a0:	80c7883a 	add	r3,r16,r3
 180b5a4:	18800117 	ldw	r2,4(r3)
 180b5a8:	81400217 	ldw	r5,8(r16)
 180b5ac:	9009883a 	mov	r4,r18
 180b5b0:	10800054 	ori	r2,r2,1
 180b5b4:	18800115 	stw	r2,4(r3)
 180b5b8:	31400215 	stw	r5,8(r6)
 180b5bc:	29800315 	stw	r6,12(r5)
 180b5c0:	180eec80 	call	180eec8 <__malloc_unlock>
 180b5c4:	80c00204 	addi	r3,r16,8
 180b5c8:	003faa06 	br	180b474 <_malloc_r+0x50>
 180b5cc:	00800104 	movi	r2,4
 180b5d0:	10c0052e 	bgeu	r2,r3,180b5e8 <_malloc_r+0x1c4>
 180b5d4:	00800504 	movi	r2,20
 180b5d8:	10c07836 	bltu	r2,r3,180b7bc <_malloc_r+0x398>
 180b5dc:	198016c4 	addi	r6,r3,91
 180b5e0:	300490fa 	slli	r2,r6,3
 180b5e4:	003fbc06 	br	180b4d8 <_malloc_r+0xb4>
 180b5e8:	8804d1ba 	srli	r2,r17,6
 180b5ec:	11800e04 	addi	r6,r2,56
 180b5f0:	300490fa 	slli	r2,r6,3
 180b5f4:	003fb806 	br	180b4d8 <_malloc_r+0xb4>
 180b5f8:	00807fc4 	movi	r2,511
 180b5fc:	1140bb36 	bltu	r2,r5,180b8ec <_malloc_r+0x4c8>
 180b600:	2806d0fa 	srli	r3,r5,3
 180b604:	573ffe04 	addi	fp,r10,-8
 180b608:	00800044 	movi	r2,1
 180b60c:	180890fa 	slli	r4,r3,3
 180b610:	1807d0ba 	srai	r3,r3,2
 180b614:	e1c00117 	ldw	r7,4(fp)
 180b618:	5909883a 	add	r4,r11,r4
 180b61c:	21400217 	ldw	r5,8(r4)
 180b620:	10c4983a 	sll	r2,r2,r3
 180b624:	81000315 	stw	r4,12(r16)
 180b628:	81400215 	stw	r5,8(r16)
 180b62c:	388eb03a 	or	r7,r7,r2
 180b630:	2c000315 	stw	r16,12(r5)
 180b634:	24000215 	stw	r16,8(r4)
 180b638:	e1c00115 	stw	r7,4(fp)
 180b63c:	4807883a 	mov	r3,r9
 180b640:	4800cd16 	blt	r9,zero,180b978 <_malloc_r+0x554>
 180b644:	1807d0ba 	srai	r3,r3,2
 180b648:	00800044 	movi	r2,1
 180b64c:	10c8983a 	sll	r4,r2,r3
 180b650:	39004436 	bltu	r7,r4,180b764 <_malloc_r+0x340>
 180b654:	21c4703a 	and	r2,r4,r7
 180b658:	10000a1e 	bne	r2,zero,180b684 <_malloc_r+0x260>
 180b65c:	2109883a 	add	r4,r4,r4
 180b660:	00bfff04 	movi	r2,-4
 180b664:	4884703a 	and	r2,r9,r2
 180b668:	3906703a 	and	r3,r7,r4
 180b66c:	12400104 	addi	r9,r2,4
 180b670:	1800041e 	bne	r3,zero,180b684 <_malloc_r+0x260>
 180b674:	2109883a 	add	r4,r4,r4
 180b678:	3904703a 	and	r2,r7,r4
 180b67c:	4a400104 	addi	r9,r9,4
 180b680:	103ffc26 	beq	r2,zero,180b674 <_malloc_r+0x250>
 180b684:	480490fa 	slli	r2,r9,3
 180b688:	4819883a 	mov	r12,r9
 180b68c:	023fff04 	movi	r8,-4
 180b690:	589b883a 	add	r13,r11,r2
 180b694:	6807883a 	mov	r3,r13
 180b698:	014003c4 	movi	r5,15
 180b69c:	1c000317 	ldw	r16,12(r3)
 180b6a0:	1c00041e 	bne	r3,r16,180b6b4 <_malloc_r+0x290>
 180b6a4:	0000a706 	br	180b944 <_malloc_r+0x520>
 180b6a8:	3000ab0e 	bge	r6,zero,180b958 <_malloc_r+0x534>
 180b6ac:	84000317 	ldw	r16,12(r16)
 180b6b0:	1c00a426 	beq	r3,r16,180b944 <_malloc_r+0x520>
 180b6b4:	80800117 	ldw	r2,4(r16)
 180b6b8:	1204703a 	and	r2,r2,r8
 180b6bc:	144dc83a 	sub	r6,r2,r17
 180b6c0:	29bff90e 	bge	r5,r6,180b6a8 <_malloc_r+0x284>
 180b6c4:	81000317 	ldw	r4,12(r16)
 180b6c8:	80c00217 	ldw	r3,8(r16)
 180b6cc:	89400054 	ori	r5,r17,1
 180b6d0:	8445883a 	add	r2,r16,r17
 180b6d4:	20c00215 	stw	r3,8(r4)
 180b6d8:	19000315 	stw	r4,12(r3)
 180b6dc:	81400115 	stw	r5,4(r16)
 180b6e0:	1187883a 	add	r3,r2,r6
 180b6e4:	31000054 	ori	r4,r6,1
 180b6e8:	50800315 	stw	r2,12(r10)
 180b6ec:	50800215 	stw	r2,8(r10)
 180b6f0:	19800015 	stw	r6,0(r3)
 180b6f4:	11000115 	stw	r4,4(r2)
 180b6f8:	12800215 	stw	r10,8(r2)
 180b6fc:	12800315 	stw	r10,12(r2)
 180b700:	9009883a 	mov	r4,r18
 180b704:	180eec80 	call	180eec8 <__malloc_unlock>
 180b708:	80c00204 	addi	r3,r16,8
 180b70c:	003f5906 	br	180b474 <_malloc_r+0x50>
 180b710:	8109883a 	add	r4,r16,r4
 180b714:	20800117 	ldw	r2,4(r4)
 180b718:	80c00217 	ldw	r3,8(r16)
 180b71c:	81400317 	ldw	r5,12(r16)
 180b720:	10800054 	ori	r2,r2,1
 180b724:	20800115 	stw	r2,4(r4)
 180b728:	28c00215 	stw	r3,8(r5)
 180b72c:	19400315 	stw	r5,12(r3)
 180b730:	9009883a 	mov	r4,r18
 180b734:	180eec80 	call	180eec8 <__malloc_unlock>
 180b738:	80c00204 	addi	r3,r16,8
 180b73c:	003f4d06 	br	180b474 <_malloc_r+0x50>
 180b740:	80800204 	addi	r2,r16,8
 180b744:	14000317 	ldw	r16,12(r2)
 180b748:	143f911e 	bne	r2,r16,180b590 <_malloc_r+0x16c>
 180b74c:	1a400084 	addi	r9,r3,2
 180b750:	003f7306 	br	180b520 <_malloc_r+0xfc>
 180b754:	88c00054 	ori	r3,r17,1
 180b758:	8445883a 	add	r2,r16,r17
 180b75c:	80c00115 	stw	r3,4(r16)
 180b760:	003fdf06 	br	180b6e0 <_malloc_r+0x2bc>
 180b764:	e4000217 	ldw	r16,8(fp)
 180b768:	00bfff04 	movi	r2,-4
 180b76c:	80c00117 	ldw	r3,4(r16)
 180b770:	802d883a 	mov	r22,r16
 180b774:	18aa703a 	and	r21,r3,r2
 180b778:	ac401636 	bltu	r21,r17,180b7d4 <_malloc_r+0x3b0>
 180b77c:	ac49c83a 	sub	r4,r21,r17
 180b780:	008003c4 	movi	r2,15
 180b784:	1100130e 	bge	r2,r4,180b7d4 <_malloc_r+0x3b0>
 180b788:	88800054 	ori	r2,r17,1
 180b78c:	8447883a 	add	r3,r16,r17
 180b790:	80800115 	stw	r2,4(r16)
 180b794:	20800054 	ori	r2,r4,1
 180b798:	18800115 	stw	r2,4(r3)
 180b79c:	e0c00215 	stw	r3,8(fp)
 180b7a0:	9009883a 	mov	r4,r18
 180b7a4:	180eec80 	call	180eec8 <__malloc_unlock>
 180b7a8:	80c00204 	addi	r3,r16,8
 180b7ac:	003f3106 	br	180b474 <_malloc_r+0x50>
 180b7b0:	39c00117 	ldw	r7,4(r7)
 180b7b4:	573ffe04 	addi	fp,r10,-8
 180b7b8:	003fa006 	br	180b63c <_malloc_r+0x218>
 180b7bc:	00801504 	movi	r2,84
 180b7c0:	10c06736 	bltu	r2,r3,180b960 <_malloc_r+0x53c>
 180b7c4:	8804d33a 	srli	r2,r17,12
 180b7c8:	11801b84 	addi	r6,r2,110
 180b7cc:	300490fa 	slli	r2,r6,3
 180b7d0:	003f4106 	br	180b4d8 <_malloc_r+0xb4>
 180b7d4:	d0a01817 	ldw	r2,-32672(gp)
 180b7d8:	d0e00617 	ldw	r3,-32744(gp)
 180b7dc:	053fffc4 	movi	r20,-1
 180b7e0:	10800404 	addi	r2,r2,16
 180b7e4:	88a7883a 	add	r19,r17,r2
 180b7e8:	1d000326 	beq	r3,r20,180b7f8 <_malloc_r+0x3d4>
 180b7ec:	98c3ffc4 	addi	r3,r19,4095
 180b7f0:	00bc0004 	movi	r2,-4096
 180b7f4:	18a6703a 	and	r19,r3,r2
 180b7f8:	9009883a 	mov	r4,r18
 180b7fc:	980b883a 	mov	r5,r19
 180b800:	180d3e80 	call	180d3e8 <_sbrk_r>
 180b804:	1009883a 	mov	r4,r2
 180b808:	15000426 	beq	r2,r20,180b81c <_malloc_r+0x3f8>
 180b80c:	854b883a 	add	r5,r16,r21
 180b810:	1029883a 	mov	r20,r2
 180b814:	11405a2e 	bgeu	r2,r5,180b980 <_malloc_r+0x55c>
 180b818:	87000c26 	beq	r16,fp,180b84c <_malloc_r+0x428>
 180b81c:	e4000217 	ldw	r16,8(fp)
 180b820:	80c00117 	ldw	r3,4(r16)
 180b824:	00bfff04 	movi	r2,-4
 180b828:	1884703a 	and	r2,r3,r2
 180b82c:	14400336 	bltu	r2,r17,180b83c <_malloc_r+0x418>
 180b830:	1449c83a 	sub	r4,r2,r17
 180b834:	008003c4 	movi	r2,15
 180b838:	113fd316 	blt	r2,r4,180b788 <_malloc_r+0x364>
 180b83c:	9009883a 	mov	r4,r18
 180b840:	180eec80 	call	180eec8 <__malloc_unlock>
 180b844:	0007883a 	mov	r3,zero
 180b848:	003f0a06 	br	180b474 <_malloc_r+0x50>
 180b84c:	05c06074 	movhi	r23,385
 180b850:	bddee804 	addi	r23,r23,31648
 180b854:	b8800017 	ldw	r2,0(r23)
 180b858:	988d883a 	add	r6,r19,r2
 180b85c:	b9800015 	stw	r6,0(r23)
 180b860:	d0e00617 	ldw	r3,-32744(gp)
 180b864:	00bfffc4 	movi	r2,-1
 180b868:	18808e26 	beq	r3,r2,180baa4 <_malloc_r+0x680>
 180b86c:	2145c83a 	sub	r2,r4,r5
 180b870:	3085883a 	add	r2,r6,r2
 180b874:	b8800015 	stw	r2,0(r23)
 180b878:	20c001cc 	andi	r3,r4,7
 180b87c:	18005f1e 	bne	r3,zero,180b9fc <_malloc_r+0x5d8>
 180b880:	000b883a 	mov	r5,zero
 180b884:	a4c5883a 	add	r2,r20,r19
 180b888:	1083ffcc 	andi	r2,r2,4095
 180b88c:	00c40004 	movi	r3,4096
 180b890:	1887c83a 	sub	r3,r3,r2
 180b894:	28e7883a 	add	r19,r5,r3
 180b898:	9009883a 	mov	r4,r18
 180b89c:	980b883a 	mov	r5,r19
 180b8a0:	180d3e80 	call	180d3e8 <_sbrk_r>
 180b8a4:	1007883a 	mov	r3,r2
 180b8a8:	00bfffc4 	movi	r2,-1
 180b8ac:	18807a26 	beq	r3,r2,180ba98 <_malloc_r+0x674>
 180b8b0:	1d05c83a 	sub	r2,r3,r20
 180b8b4:	9885883a 	add	r2,r19,r2
 180b8b8:	10c00054 	ori	r3,r2,1
 180b8bc:	b8800017 	ldw	r2,0(r23)
 180b8c0:	a021883a 	mov	r16,r20
 180b8c4:	a0c00115 	stw	r3,4(r20)
 180b8c8:	9885883a 	add	r2,r19,r2
 180b8cc:	b8800015 	stw	r2,0(r23)
 180b8d0:	e5000215 	stw	r20,8(fp)
 180b8d4:	b7003626 	beq	r22,fp,180b9b0 <_malloc_r+0x58c>
 180b8d8:	018003c4 	movi	r6,15
 180b8dc:	35404b36 	bltu	r6,r21,180ba0c <_malloc_r+0x5e8>
 180b8e0:	00800044 	movi	r2,1
 180b8e4:	a0800115 	stw	r2,4(r20)
 180b8e8:	003fcd06 	br	180b820 <_malloc_r+0x3fc>
 180b8ec:	2808d27a 	srli	r4,r5,9
 180b8f0:	2000371e 	bne	r4,zero,180b9d0 <_malloc_r+0x5ac>
 180b8f4:	2808d0fa 	srli	r4,r5,3
 180b8f8:	200690fa 	slli	r3,r4,3
 180b8fc:	1ad1883a 	add	r8,r3,r11
 180b900:	41800217 	ldw	r6,8(r8)
 180b904:	41805b26 	beq	r8,r6,180ba74 <_malloc_r+0x650>
 180b908:	30800117 	ldw	r2,4(r6)
 180b90c:	00ffff04 	movi	r3,-4
 180b910:	10c4703a 	and	r2,r2,r3
 180b914:	2880022e 	bgeu	r5,r2,180b920 <_malloc_r+0x4fc>
 180b918:	31800217 	ldw	r6,8(r6)
 180b91c:	41bffa1e 	bne	r8,r6,180b908 <_malloc_r+0x4e4>
 180b920:	32000317 	ldw	r8,12(r6)
 180b924:	39c00117 	ldw	r7,4(r7)
 180b928:	82000315 	stw	r8,12(r16)
 180b92c:	81800215 	stw	r6,8(r16)
 180b930:	07006074 	movhi	fp,385
 180b934:	e7189004 	addi	fp,fp,25152
 180b938:	34000315 	stw	r16,12(r6)
 180b93c:	44000215 	stw	r16,8(r8)
 180b940:	003f3e06 	br	180b63c <_malloc_r+0x218>
 180b944:	63000044 	addi	r12,r12,1
 180b948:	608000cc 	andi	r2,r12,3
 180b94c:	10005d26 	beq	r2,zero,180bac4 <_malloc_r+0x6a0>
 180b950:	18c00204 	addi	r3,r3,8
 180b954:	003f5106 	br	180b69c <_malloc_r+0x278>
 180b958:	8089883a 	add	r4,r16,r2
 180b95c:	003f6d06 	br	180b714 <_malloc_r+0x2f0>
 180b960:	00805504 	movi	r2,340
 180b964:	10c02036 	bltu	r2,r3,180b9e8 <_malloc_r+0x5c4>
 180b968:	8804d3fa 	srli	r2,r17,15
 180b96c:	11801dc4 	addi	r6,r2,119
 180b970:	300490fa 	slli	r2,r6,3
 180b974:	003ed806 	br	180b4d8 <_malloc_r+0xb4>
 180b978:	48c000c4 	addi	r3,r9,3
 180b97c:	003f3106 	br	180b644 <_malloc_r+0x220>
 180b980:	05c06074 	movhi	r23,385
 180b984:	bddee804 	addi	r23,r23,31648
 180b988:	b8800017 	ldw	r2,0(r23)
 180b98c:	988d883a 	add	r6,r19,r2
 180b990:	b9800015 	stw	r6,0(r23)
 180b994:	293fb21e 	bne	r5,r4,180b860 <_malloc_r+0x43c>
 180b998:	2083ffcc 	andi	r2,r4,4095
 180b99c:	103fb01e 	bne	r2,zero,180b860 <_malloc_r+0x43c>
 180b9a0:	e4000217 	ldw	r16,8(fp)
 180b9a4:	9d45883a 	add	r2,r19,r21
 180b9a8:	10800054 	ori	r2,r2,1
 180b9ac:	80800115 	stw	r2,4(r16)
 180b9b0:	b8c00017 	ldw	r3,0(r23)
 180b9b4:	d0a01917 	ldw	r2,-32668(gp)
 180b9b8:	10c0012e 	bgeu	r2,r3,180b9c0 <_malloc_r+0x59c>
 180b9bc:	d0e01915 	stw	r3,-32668(gp)
 180b9c0:	d0a01a17 	ldw	r2,-32664(gp)
 180b9c4:	10ff962e 	bgeu	r2,r3,180b820 <_malloc_r+0x3fc>
 180b9c8:	d0e01a15 	stw	r3,-32664(gp)
 180b9cc:	003f9406 	br	180b820 <_malloc_r+0x3fc>
 180b9d0:	00800104 	movi	r2,4
 180b9d4:	11001e36 	bltu	r2,r4,180ba50 <_malloc_r+0x62c>
 180b9d8:	2804d1ba 	srli	r2,r5,6
 180b9dc:	11000e04 	addi	r4,r2,56
 180b9e0:	200690fa 	slli	r3,r4,3
 180b9e4:	003fc506 	br	180b8fc <_malloc_r+0x4d8>
 180b9e8:	00815504 	movi	r2,1364
 180b9ec:	10c01d2e 	bgeu	r2,r3,180ba64 <_malloc_r+0x640>
 180b9f0:	01801f84 	movi	r6,126
 180b9f4:	0080fc04 	movi	r2,1008
 180b9f8:	003eb706 	br	180b4d8 <_malloc_r+0xb4>
 180b9fc:	00800204 	movi	r2,8
 180ba00:	10cbc83a 	sub	r5,r2,r3
 180ba04:	2169883a 	add	r20,r4,r5
 180ba08:	003f9e06 	br	180b884 <_malloc_r+0x460>
 180ba0c:	00bffe04 	movi	r2,-8
 180ba10:	a93ffd04 	addi	r4,r21,-12
 180ba14:	2088703a 	and	r4,r4,r2
 180ba18:	b10b883a 	add	r5,r22,r4
 180ba1c:	00c00144 	movi	r3,5
 180ba20:	28c00215 	stw	r3,8(r5)
 180ba24:	28c00115 	stw	r3,4(r5)
 180ba28:	b0800117 	ldw	r2,4(r22)
 180ba2c:	1080004c 	andi	r2,r2,1
 180ba30:	2084b03a 	or	r2,r4,r2
 180ba34:	b0800115 	stw	r2,4(r22)
 180ba38:	313fdd2e 	bgeu	r6,r4,180b9b0 <_malloc_r+0x58c>
 180ba3c:	b1400204 	addi	r5,r22,8
 180ba40:	9009883a 	mov	r4,r18
 180ba44:	180a89c0 	call	180a89c <_free_r>
 180ba48:	e4000217 	ldw	r16,8(fp)
 180ba4c:	003fd806 	br	180b9b0 <_malloc_r+0x58c>
 180ba50:	00800504 	movi	r2,20
 180ba54:	11001536 	bltu	r2,r4,180baac <_malloc_r+0x688>
 180ba58:	210016c4 	addi	r4,r4,91
 180ba5c:	200690fa 	slli	r3,r4,3
 180ba60:	003fa606 	br	180b8fc <_malloc_r+0x4d8>
 180ba64:	8804d4ba 	srli	r2,r17,18
 180ba68:	11801f04 	addi	r6,r2,124
 180ba6c:	300490fa 	slli	r2,r6,3
 180ba70:	003e9906 	br	180b4d8 <_malloc_r+0xb4>
 180ba74:	2009d0ba 	srai	r4,r4,2
 180ba78:	01406074 	movhi	r5,385
 180ba7c:	29589004 	addi	r5,r5,25152
 180ba80:	00c00044 	movi	r3,1
 180ba84:	28800117 	ldw	r2,4(r5)
 180ba88:	1906983a 	sll	r3,r3,r4
 180ba8c:	10c4b03a 	or	r2,r2,r3
 180ba90:	28800115 	stw	r2,4(r5)
 180ba94:	003fa306 	br	180b924 <_malloc_r+0x500>
 180ba98:	0027883a 	mov	r19,zero
 180ba9c:	00c00044 	movi	r3,1
 180baa0:	003f8606 	br	180b8bc <_malloc_r+0x498>
 180baa4:	d1200615 	stw	r4,-32744(gp)
 180baa8:	003f7306 	br	180b878 <_malloc_r+0x454>
 180baac:	00801504 	movi	r2,84
 180bab0:	11001936 	bltu	r2,r4,180bb18 <_malloc_r+0x6f4>
 180bab4:	2804d33a 	srli	r2,r5,12
 180bab8:	11001b84 	addi	r4,r2,110
 180babc:	200690fa 	slli	r3,r4,3
 180bac0:	003f8e06 	br	180b8fc <_malloc_r+0x4d8>
 180bac4:	480b883a 	mov	r5,r9
 180bac8:	6807883a 	mov	r3,r13
 180bacc:	288000cc 	andi	r2,r5,3
 180bad0:	18fffe04 	addi	r3,r3,-8
 180bad4:	297fffc4 	addi	r5,r5,-1
 180bad8:	10001526 	beq	r2,zero,180bb30 <_malloc_r+0x70c>
 180badc:	18800217 	ldw	r2,8(r3)
 180bae0:	10fffa26 	beq	r2,r3,180bacc <_malloc_r+0x6a8>
 180bae4:	2109883a 	add	r4,r4,r4
 180bae8:	393f1e36 	bltu	r7,r4,180b764 <_malloc_r+0x340>
 180baec:	203f1d26 	beq	r4,zero,180b764 <_malloc_r+0x340>
 180baf0:	21c4703a 	and	r2,r4,r7
 180baf4:	10000226 	beq	r2,zero,180bb00 <_malloc_r+0x6dc>
 180baf8:	6013883a 	mov	r9,r12
 180bafc:	003ee106 	br	180b684 <_malloc_r+0x260>
 180bb00:	2109883a 	add	r4,r4,r4
 180bb04:	3904703a 	and	r2,r7,r4
 180bb08:	63000104 	addi	r12,r12,4
 180bb0c:	103ffc26 	beq	r2,zero,180bb00 <_malloc_r+0x6dc>
 180bb10:	6013883a 	mov	r9,r12
 180bb14:	003edb06 	br	180b684 <_malloc_r+0x260>
 180bb18:	00805504 	movi	r2,340
 180bb1c:	11000836 	bltu	r2,r4,180bb40 <_malloc_r+0x71c>
 180bb20:	2804d3fa 	srli	r2,r5,15
 180bb24:	11001dc4 	addi	r4,r2,119
 180bb28:	200690fa 	slli	r3,r4,3
 180bb2c:	003f7306 	br	180b8fc <_malloc_r+0x4d8>
 180bb30:	0104303a 	nor	r2,zero,r4
 180bb34:	388e703a 	and	r7,r7,r2
 180bb38:	e1c00115 	stw	r7,4(fp)
 180bb3c:	003fe906 	br	180bae4 <_malloc_r+0x6c0>
 180bb40:	00815504 	movi	r2,1364
 180bb44:	1100032e 	bgeu	r2,r4,180bb54 <_malloc_r+0x730>
 180bb48:	01001f84 	movi	r4,126
 180bb4c:	00c0fc04 	movi	r3,1008
 180bb50:	003f6a06 	br	180b8fc <_malloc_r+0x4d8>
 180bb54:	2804d4ba 	srli	r2,r5,18
 180bb58:	11001f04 	addi	r4,r2,124
 180bb5c:	200690fa 	slli	r3,r4,3
 180bb60:	003f6606 	br	180b8fc <_malloc_r+0x4d8>

0180bb64 <memchr>:
 180bb64:	008000c4 	movi	r2,3
 180bb68:	29403fcc 	andi	r5,r5,255
 180bb6c:	2007883a 	mov	r3,r4
 180bb70:	1180022e 	bgeu	r2,r6,180bb7c <memchr+0x18>
 180bb74:	2084703a 	and	r2,r4,r2
 180bb78:	10000b26 	beq	r2,zero,180bba8 <memchr+0x44>
 180bb7c:	313fffc4 	addi	r4,r6,-1
 180bb80:	3000051e 	bne	r6,zero,180bb98 <memchr+0x34>
 180bb84:	00002c06 	br	180bc38 <memchr+0xd4>
 180bb88:	213fffc4 	addi	r4,r4,-1
 180bb8c:	00bfffc4 	movi	r2,-1
 180bb90:	18c00044 	addi	r3,r3,1
 180bb94:	20802826 	beq	r4,r2,180bc38 <memchr+0xd4>
 180bb98:	18800003 	ldbu	r2,0(r3)
 180bb9c:	28bffa1e 	bne	r5,r2,180bb88 <memchr+0x24>
 180bba0:	1805883a 	mov	r2,r3
 180bba4:	f800283a 	ret
 180bba8:	0011883a 	mov	r8,zero
 180bbac:	0007883a 	mov	r3,zero
 180bbb0:	01c00104 	movi	r7,4
 180bbb4:	4004923a 	slli	r2,r8,8
 180bbb8:	18c00044 	addi	r3,r3,1
 180bbbc:	1151883a 	add	r8,r2,r5
 180bbc0:	19fffc1e 	bne	r3,r7,180bbb4 <memchr+0x50>
 180bbc4:	02bfbff4 	movhi	r10,65279
 180bbc8:	52bfbfc4 	addi	r10,r10,-257
 180bbcc:	02602074 	movhi	r9,32897
 180bbd0:	4a602004 	addi	r9,r9,-32640
 180bbd4:	02c000c4 	movi	r11,3
 180bbd8:	20800017 	ldw	r2,0(r4)
 180bbdc:	31bfff04 	addi	r6,r6,-4
 180bbe0:	200f883a 	mov	r7,r4
 180bbe4:	1204f03a 	xor	r2,r2,r8
 180bbe8:	1287883a 	add	r3,r2,r10
 180bbec:	1a46703a 	and	r3,r3,r9
 180bbf0:	0084303a 	nor	r2,zero,r2
 180bbf4:	10c4703a 	and	r2,r2,r3
 180bbf8:	10000b26 	beq	r2,zero,180bc28 <memchr+0xc4>
 180bbfc:	20800003 	ldbu	r2,0(r4)
 180bc00:	28800f26 	beq	r5,r2,180bc40 <memchr+0xdc>
 180bc04:	20800043 	ldbu	r2,1(r4)
 180bc08:	21c00044 	addi	r7,r4,1
 180bc0c:	28800c26 	beq	r5,r2,180bc40 <memchr+0xdc>
 180bc10:	20800083 	ldbu	r2,2(r4)
 180bc14:	21c00084 	addi	r7,r4,2
 180bc18:	28800926 	beq	r5,r2,180bc40 <memchr+0xdc>
 180bc1c:	208000c3 	ldbu	r2,3(r4)
 180bc20:	21c000c4 	addi	r7,r4,3
 180bc24:	28800626 	beq	r5,r2,180bc40 <memchr+0xdc>
 180bc28:	21000104 	addi	r4,r4,4
 180bc2c:	59bfea36 	bltu	r11,r6,180bbd8 <memchr+0x74>
 180bc30:	2007883a 	mov	r3,r4
 180bc34:	003fd106 	br	180bb7c <memchr+0x18>
 180bc38:	0005883a 	mov	r2,zero
 180bc3c:	f800283a 	ret
 180bc40:	3805883a 	mov	r2,r7
 180bc44:	f800283a 	ret

0180bc48 <memmove>:
 180bc48:	2807883a 	mov	r3,r5
 180bc4c:	2011883a 	mov	r8,r4
 180bc50:	29000c2e 	bgeu	r5,r4,180bc84 <memmove+0x3c>
 180bc54:	298f883a 	add	r7,r5,r6
 180bc58:	21c00a2e 	bgeu	r4,r7,180bc84 <memmove+0x3c>
 180bc5c:	30000726 	beq	r6,zero,180bc7c <memmove+0x34>
 180bc60:	2187883a 	add	r3,r4,r6
 180bc64:	198dc83a 	sub	r6,r3,r6
 180bc68:	39ffffc4 	addi	r7,r7,-1
 180bc6c:	38800003 	ldbu	r2,0(r7)
 180bc70:	18ffffc4 	addi	r3,r3,-1
 180bc74:	18800005 	stb	r2,0(r3)
 180bc78:	19bffb1e 	bne	r3,r6,180bc68 <memmove+0x20>
 180bc7c:	2005883a 	mov	r2,r4
 180bc80:	f800283a 	ret
 180bc84:	01c003c4 	movi	r7,15
 180bc88:	39800a36 	bltu	r7,r6,180bcb4 <memmove+0x6c>
 180bc8c:	303ffb26 	beq	r6,zero,180bc7c <memmove+0x34>
 180bc90:	400f883a 	mov	r7,r8
 180bc94:	320d883a 	add	r6,r6,r8
 180bc98:	28800003 	ldbu	r2,0(r5)
 180bc9c:	29400044 	addi	r5,r5,1
 180bca0:	38800005 	stb	r2,0(r7)
 180bca4:	39c00044 	addi	r7,r7,1
 180bca8:	39bffb1e 	bne	r7,r6,180bc98 <memmove+0x50>
 180bcac:	2005883a 	mov	r2,r4
 180bcb0:	f800283a 	ret
 180bcb4:	1904b03a 	or	r2,r3,r4
 180bcb8:	108000cc 	andi	r2,r2,3
 180bcbc:	103ff31e 	bne	r2,zero,180bc8c <memmove+0x44>
 180bcc0:	3811883a 	mov	r8,r7
 180bcc4:	180b883a 	mov	r5,r3
 180bcc8:	200f883a 	mov	r7,r4
 180bccc:	28c00017 	ldw	r3,0(r5)
 180bcd0:	31bffc04 	addi	r6,r6,-16
 180bcd4:	38c00015 	stw	r3,0(r7)
 180bcd8:	28800117 	ldw	r2,4(r5)
 180bcdc:	38800115 	stw	r2,4(r7)
 180bce0:	28c00217 	ldw	r3,8(r5)
 180bce4:	38c00215 	stw	r3,8(r7)
 180bce8:	28800317 	ldw	r2,12(r5)
 180bcec:	29400404 	addi	r5,r5,16
 180bcf0:	38800315 	stw	r2,12(r7)
 180bcf4:	39c00404 	addi	r7,r7,16
 180bcf8:	41bff436 	bltu	r8,r6,180bccc <memmove+0x84>
 180bcfc:	008000c4 	movi	r2,3
 180bd00:	1180072e 	bgeu	r2,r6,180bd20 <memmove+0xd8>
 180bd04:	1007883a 	mov	r3,r2
 180bd08:	28800017 	ldw	r2,0(r5)
 180bd0c:	31bfff04 	addi	r6,r6,-4
 180bd10:	29400104 	addi	r5,r5,4
 180bd14:	38800015 	stw	r2,0(r7)
 180bd18:	39c00104 	addi	r7,r7,4
 180bd1c:	19bffa36 	bltu	r3,r6,180bd08 <memmove+0xc0>
 180bd20:	3811883a 	mov	r8,r7
 180bd24:	003fd906 	br	180bc8c <memmove+0x44>

0180bd28 <memset>:
 180bd28:	008000c4 	movi	r2,3
 180bd2c:	29403fcc 	andi	r5,r5,255
 180bd30:	2007883a 	mov	r3,r4
 180bd34:	1180022e 	bgeu	r2,r6,180bd40 <memset+0x18>
 180bd38:	2084703a 	and	r2,r4,r2
 180bd3c:	10000826 	beq	r2,zero,180bd60 <memset+0x38>
 180bd40:	30000526 	beq	r6,zero,180bd58 <memset+0x30>
 180bd44:	2805883a 	mov	r2,r5
 180bd48:	30cd883a 	add	r6,r6,r3
 180bd4c:	18800005 	stb	r2,0(r3)
 180bd50:	18c00044 	addi	r3,r3,1
 180bd54:	19bffd1e 	bne	r3,r6,180bd4c <memset+0x24>
 180bd58:	2005883a 	mov	r2,r4
 180bd5c:	f800283a 	ret
 180bd60:	2804923a 	slli	r2,r5,8
 180bd64:	020003c4 	movi	r8,15
 180bd68:	200f883a 	mov	r7,r4
 180bd6c:	2884b03a 	or	r2,r5,r2
 180bd70:	1006943a 	slli	r3,r2,16
 180bd74:	10c6b03a 	or	r3,r2,r3
 180bd78:	41800a2e 	bgeu	r8,r6,180bda4 <memset+0x7c>
 180bd7c:	4005883a 	mov	r2,r8
 180bd80:	31bffc04 	addi	r6,r6,-16
 180bd84:	38c00015 	stw	r3,0(r7)
 180bd88:	38c00115 	stw	r3,4(r7)
 180bd8c:	38c00215 	stw	r3,8(r7)
 180bd90:	38c00315 	stw	r3,12(r7)
 180bd94:	39c00404 	addi	r7,r7,16
 180bd98:	11bff936 	bltu	r2,r6,180bd80 <memset+0x58>
 180bd9c:	008000c4 	movi	r2,3
 180bda0:	1180052e 	bgeu	r2,r6,180bdb8 <memset+0x90>
 180bda4:	31bfff04 	addi	r6,r6,-4
 180bda8:	008000c4 	movi	r2,3
 180bdac:	38c00015 	stw	r3,0(r7)
 180bdb0:	39c00104 	addi	r7,r7,4
 180bdb4:	11bffb36 	bltu	r2,r6,180bda4 <memset+0x7c>
 180bdb8:	3807883a 	mov	r3,r7
 180bdbc:	003fe006 	br	180bd40 <memset+0x18>

0180bdc0 <_Bfree>:
 180bdc0:	28000826 	beq	r5,zero,180bde4 <_Bfree+0x24>
 180bdc4:	28800117 	ldw	r2,4(r5)
 180bdc8:	21001317 	ldw	r4,76(r4)
 180bdcc:	1085883a 	add	r2,r2,r2
 180bdd0:	1085883a 	add	r2,r2,r2
 180bdd4:	1105883a 	add	r2,r2,r4
 180bdd8:	10c00017 	ldw	r3,0(r2)
 180bddc:	28c00015 	stw	r3,0(r5)
 180bde0:	11400015 	stw	r5,0(r2)
 180bde4:	f800283a 	ret

0180bde8 <__hi0bits>:
 180bde8:	20bfffec 	andhi	r2,r4,65535
 180bdec:	10001426 	beq	r2,zero,180be40 <__hi0bits+0x58>
 180bdf0:	0007883a 	mov	r3,zero
 180bdf4:	20bfc02c 	andhi	r2,r4,65280
 180bdf8:	1000021e 	bne	r2,zero,180be04 <__hi0bits+0x1c>
 180bdfc:	2008923a 	slli	r4,r4,8
 180be00:	18c00204 	addi	r3,r3,8
 180be04:	20bc002c 	andhi	r2,r4,61440
 180be08:	1000021e 	bne	r2,zero,180be14 <__hi0bits+0x2c>
 180be0c:	2008913a 	slli	r4,r4,4
 180be10:	18c00104 	addi	r3,r3,4
 180be14:	20b0002c 	andhi	r2,r4,49152
 180be18:	1000031e 	bne	r2,zero,180be28 <__hi0bits+0x40>
 180be1c:	2105883a 	add	r2,r4,r4
 180be20:	18c00084 	addi	r3,r3,2
 180be24:	1089883a 	add	r4,r2,r2
 180be28:	20000316 	blt	r4,zero,180be38 <__hi0bits+0x50>
 180be2c:	2090002c 	andhi	r2,r4,16384
 180be30:	10000626 	beq	r2,zero,180be4c <__hi0bits+0x64>
 180be34:	18c00044 	addi	r3,r3,1
 180be38:	1805883a 	mov	r2,r3
 180be3c:	f800283a 	ret
 180be40:	2008943a 	slli	r4,r4,16
 180be44:	00c00404 	movi	r3,16
 180be48:	003fea06 	br	180bdf4 <__hi0bits+0xc>
 180be4c:	00c00804 	movi	r3,32
 180be50:	1805883a 	mov	r2,r3
 180be54:	f800283a 	ret

0180be58 <__lo0bits>:
 180be58:	20c00017 	ldw	r3,0(r4)
 180be5c:	188001cc 	andi	r2,r3,7
 180be60:	10000a26 	beq	r2,zero,180be8c <__lo0bits+0x34>
 180be64:	1880004c 	andi	r2,r3,1
 180be68:	1005003a 	cmpeq	r2,r2,zero
 180be6c:	10002126 	beq	r2,zero,180bef4 <__lo0bits+0x9c>
 180be70:	1880008c 	andi	r2,r3,2
 180be74:	1000251e 	bne	r2,zero,180bf0c <__lo0bits+0xb4>
 180be78:	1804d0ba 	srli	r2,r3,2
 180be7c:	01400084 	movi	r5,2
 180be80:	20800015 	stw	r2,0(r4)
 180be84:	2805883a 	mov	r2,r5
 180be88:	f800283a 	ret
 180be8c:	18bfffcc 	andi	r2,r3,65535
 180be90:	10001526 	beq	r2,zero,180bee8 <__lo0bits+0x90>
 180be94:	000b883a 	mov	r5,zero
 180be98:	18803fcc 	andi	r2,r3,255
 180be9c:	1000021e 	bne	r2,zero,180bea8 <__lo0bits+0x50>
 180bea0:	1806d23a 	srli	r3,r3,8
 180bea4:	29400204 	addi	r5,r5,8
 180bea8:	188003cc 	andi	r2,r3,15
 180beac:	1000021e 	bne	r2,zero,180beb8 <__lo0bits+0x60>
 180beb0:	1806d13a 	srli	r3,r3,4
 180beb4:	29400104 	addi	r5,r5,4
 180beb8:	188000cc 	andi	r2,r3,3
 180bebc:	1000021e 	bne	r2,zero,180bec8 <__lo0bits+0x70>
 180bec0:	1806d0ba 	srli	r3,r3,2
 180bec4:	29400084 	addi	r5,r5,2
 180bec8:	1880004c 	andi	r2,r3,1
 180becc:	1000031e 	bne	r2,zero,180bedc <__lo0bits+0x84>
 180bed0:	1806d07a 	srli	r3,r3,1
 180bed4:	18000a26 	beq	r3,zero,180bf00 <__lo0bits+0xa8>
 180bed8:	29400044 	addi	r5,r5,1
 180bedc:	2805883a 	mov	r2,r5
 180bee0:	20c00015 	stw	r3,0(r4)
 180bee4:	f800283a 	ret
 180bee8:	1806d43a 	srli	r3,r3,16
 180beec:	01400404 	movi	r5,16
 180bef0:	003fe906 	br	180be98 <__lo0bits+0x40>
 180bef4:	000b883a 	mov	r5,zero
 180bef8:	2805883a 	mov	r2,r5
 180befc:	f800283a 	ret
 180bf00:	01400804 	movi	r5,32
 180bf04:	2805883a 	mov	r2,r5
 180bf08:	f800283a 	ret
 180bf0c:	1804d07a 	srli	r2,r3,1
 180bf10:	01400044 	movi	r5,1
 180bf14:	20800015 	stw	r2,0(r4)
 180bf18:	003fda06 	br	180be84 <__lo0bits+0x2c>

0180bf1c <__mcmp>:
 180bf1c:	20800417 	ldw	r2,16(r4)
 180bf20:	28c00417 	ldw	r3,16(r5)
 180bf24:	10cfc83a 	sub	r7,r2,r3
 180bf28:	38000c1e 	bne	r7,zero,180bf5c <__mcmp+0x40>
 180bf2c:	18c5883a 	add	r2,r3,r3
 180bf30:	1085883a 	add	r2,r2,r2
 180bf34:	10c00504 	addi	r3,r2,20
 180bf38:	21000504 	addi	r4,r4,20
 180bf3c:	28cb883a 	add	r5,r5,r3
 180bf40:	2085883a 	add	r2,r4,r2
 180bf44:	10bfff04 	addi	r2,r2,-4
 180bf48:	297fff04 	addi	r5,r5,-4
 180bf4c:	11800017 	ldw	r6,0(r2)
 180bf50:	28c00017 	ldw	r3,0(r5)
 180bf54:	30c0031e 	bne	r6,r3,180bf64 <__mcmp+0x48>
 180bf58:	20bffa36 	bltu	r4,r2,180bf44 <__mcmp+0x28>
 180bf5c:	3805883a 	mov	r2,r7
 180bf60:	f800283a 	ret
 180bf64:	30c00336 	bltu	r6,r3,180bf74 <__mcmp+0x58>
 180bf68:	01c00044 	movi	r7,1
 180bf6c:	3805883a 	mov	r2,r7
 180bf70:	f800283a 	ret
 180bf74:	01ffffc4 	movi	r7,-1
 180bf78:	003ff806 	br	180bf5c <__mcmp+0x40>

0180bf7c <__ulp>:
 180bf7c:	295ffc2c 	andhi	r5,r5,32752
 180bf80:	013f3034 	movhi	r4,64704
 180bf84:	290b883a 	add	r5,r5,r4
 180bf88:	0145c83a 	sub	r2,zero,r5
 180bf8c:	1007d53a 	srai	r3,r2,20
 180bf90:	000d883a 	mov	r6,zero
 180bf94:	0140040e 	bge	zero,r5,180bfa8 <__ulp+0x2c>
 180bf98:	280f883a 	mov	r7,r5
 180bf9c:	3807883a 	mov	r3,r7
 180bfa0:	3005883a 	mov	r2,r6
 180bfa4:	f800283a 	ret
 180bfa8:	008004c4 	movi	r2,19
 180bfac:	193ffb04 	addi	r4,r3,-20
 180bfb0:	10c00c0e 	bge	r2,r3,180bfe4 <__ulp+0x68>
 180bfb4:	008007c4 	movi	r2,31
 180bfb8:	1107c83a 	sub	r3,r2,r4
 180bfbc:	00800784 	movi	r2,30
 180bfc0:	01400044 	movi	r5,1
 180bfc4:	11000216 	blt	r2,r4,180bfd0 <__ulp+0x54>
 180bfc8:	00800044 	movi	r2,1
 180bfcc:	10ca983a 	sll	r5,r2,r3
 180bfd0:	000f883a 	mov	r7,zero
 180bfd4:	280d883a 	mov	r6,r5
 180bfd8:	3807883a 	mov	r3,r7
 180bfdc:	3005883a 	mov	r2,r6
 180bfe0:	f800283a 	ret
 180bfe4:	00800234 	movhi	r2,8
 180bfe8:	10cfd83a 	sra	r7,r2,r3
 180bfec:	000d883a 	mov	r6,zero
 180bff0:	3005883a 	mov	r2,r6
 180bff4:	3807883a 	mov	r3,r7
 180bff8:	f800283a 	ret

0180bffc <__b2d>:
 180bffc:	20800417 	ldw	r2,16(r4)
 180c000:	defff904 	addi	sp,sp,-28
 180c004:	dd000415 	stw	r20,16(sp)
 180c008:	1085883a 	add	r2,r2,r2
 180c00c:	25000504 	addi	r20,r4,20
 180c010:	1085883a 	add	r2,r2,r2
 180c014:	dc000015 	stw	r16,0(sp)
 180c018:	a0a1883a 	add	r16,r20,r2
 180c01c:	dd400515 	stw	r21,20(sp)
 180c020:	857fff17 	ldw	r21,-4(r16)
 180c024:	dc400115 	stw	r17,4(sp)
 180c028:	dfc00615 	stw	ra,24(sp)
 180c02c:	a809883a 	mov	r4,r21
 180c030:	2823883a 	mov	r17,r5
 180c034:	dcc00315 	stw	r19,12(sp)
 180c038:	dc800215 	stw	r18,8(sp)
 180c03c:	180bde80 	call	180bde8 <__hi0bits>
 180c040:	100b883a 	mov	r5,r2
 180c044:	00800804 	movi	r2,32
 180c048:	1145c83a 	sub	r2,r2,r5
 180c04c:	88800015 	stw	r2,0(r17)
 180c050:	00800284 	movi	r2,10
 180c054:	80ffff04 	addi	r3,r16,-4
 180c058:	11401416 	blt	r2,r5,180c0ac <__b2d+0xb0>
 180c05c:	008002c4 	movi	r2,11
 180c060:	1149c83a 	sub	r4,r2,r5
 180c064:	a0c02736 	bltu	r20,r3,180c104 <__b2d+0x108>
 180c068:	000d883a 	mov	r6,zero
 180c06c:	28800544 	addi	r2,r5,21
 180c070:	a906d83a 	srl	r3,r21,r4
 180c074:	a884983a 	sll	r2,r21,r2
 180c078:	1ccffc34 	orhi	r19,r3,16368
 180c07c:	11a4b03a 	or	r18,r2,r6
 180c080:	9005883a 	mov	r2,r18
 180c084:	9807883a 	mov	r3,r19
 180c088:	dfc00617 	ldw	ra,24(sp)
 180c08c:	dd400517 	ldw	r21,20(sp)
 180c090:	dd000417 	ldw	r20,16(sp)
 180c094:	dcc00317 	ldw	r19,12(sp)
 180c098:	dc800217 	ldw	r18,8(sp)
 180c09c:	dc400117 	ldw	r17,4(sp)
 180c0a0:	dc000017 	ldw	r16,0(sp)
 180c0a4:	dec00704 	addi	sp,sp,28
 180c0a8:	f800283a 	ret
 180c0ac:	a0c00e36 	bltu	r20,r3,180c0e8 <__b2d+0xec>
 180c0b0:	293ffd44 	addi	r4,r5,-11
 180c0b4:	000d883a 	mov	r6,zero
 180c0b8:	20000f26 	beq	r4,zero,180c0f8 <__b2d+0xfc>
 180c0bc:	00800804 	movi	r2,32
 180c0c0:	110bc83a 	sub	r5,r2,r4
 180c0c4:	a0c01236 	bltu	r20,r3,180c110 <__b2d+0x114>
 180c0c8:	000f883a 	mov	r7,zero
 180c0cc:	a904983a 	sll	r2,r21,r4
 180c0d0:	3146d83a 	srl	r3,r6,r5
 180c0d4:	3108983a 	sll	r4,r6,r4
 180c0d8:	108ffc34 	orhi	r2,r2,16368
 180c0dc:	18a6b03a 	or	r19,r3,r2
 180c0e0:	3924b03a 	or	r18,r7,r4
 180c0e4:	003fe606 	br	180c080 <__b2d+0x84>
 180c0e8:	293ffd44 	addi	r4,r5,-11
 180c0ec:	81bffe17 	ldw	r6,-8(r16)
 180c0f0:	80fffe04 	addi	r3,r16,-8
 180c0f4:	203ff11e 	bne	r4,zero,180c0bc <__b2d+0xc0>
 180c0f8:	accffc34 	orhi	r19,r21,16368
 180c0fc:	3025883a 	mov	r18,r6
 180c100:	003fdf06 	br	180c080 <__b2d+0x84>
 180c104:	18bfff17 	ldw	r2,-4(r3)
 180c108:	110cd83a 	srl	r6,r2,r4
 180c10c:	003fd706 	br	180c06c <__b2d+0x70>
 180c110:	18bfff17 	ldw	r2,-4(r3)
 180c114:	114ed83a 	srl	r7,r2,r5
 180c118:	003fec06 	br	180c0cc <__b2d+0xd0>

0180c11c <__ratio>:
 180c11c:	defff904 	addi	sp,sp,-28
 180c120:	dc400215 	stw	r17,8(sp)
 180c124:	2823883a 	mov	r17,r5
 180c128:	d80b883a 	mov	r5,sp
 180c12c:	dfc00615 	stw	ra,24(sp)
 180c130:	dd000515 	stw	r20,20(sp)
 180c134:	dcc00415 	stw	r19,16(sp)
 180c138:	dc800315 	stw	r18,12(sp)
 180c13c:	2025883a 	mov	r18,r4
 180c140:	180bffc0 	call	180bffc <__b2d>
 180c144:	8809883a 	mov	r4,r17
 180c148:	d9400104 	addi	r5,sp,4
 180c14c:	1027883a 	mov	r19,r2
 180c150:	1829883a 	mov	r20,r3
 180c154:	180bffc0 	call	180bffc <__b2d>
 180c158:	89000417 	ldw	r4,16(r17)
 180c15c:	91c00417 	ldw	r7,16(r18)
 180c160:	d9800117 	ldw	r6,4(sp)
 180c164:	180b883a 	mov	r5,r3
 180c168:	390fc83a 	sub	r7,r7,r4
 180c16c:	1009883a 	mov	r4,r2
 180c170:	d8800017 	ldw	r2,0(sp)
 180c174:	380e917a 	slli	r7,r7,5
 180c178:	2011883a 	mov	r8,r4
 180c17c:	1185c83a 	sub	r2,r2,r6
 180c180:	11c5883a 	add	r2,r2,r7
 180c184:	1006953a 	slli	r3,r2,20
 180c188:	2813883a 	mov	r9,r5
 180c18c:	00800d0e 	bge	zero,r2,180c1c4 <__ratio+0xa8>
 180c190:	1d29883a 	add	r20,r3,r20
 180c194:	a00b883a 	mov	r5,r20
 180c198:	480f883a 	mov	r7,r9
 180c19c:	9809883a 	mov	r4,r19
 180c1a0:	400d883a 	mov	r6,r8
 180c1a4:	18058680 	call	1805868 <__divdf3>
 180c1a8:	dfc00617 	ldw	ra,24(sp)
 180c1ac:	dd000517 	ldw	r20,20(sp)
 180c1b0:	dcc00417 	ldw	r19,16(sp)
 180c1b4:	dc800317 	ldw	r18,12(sp)
 180c1b8:	dc400217 	ldw	r17,8(sp)
 180c1bc:	dec00704 	addi	sp,sp,28
 180c1c0:	f800283a 	ret
 180c1c4:	28d3c83a 	sub	r9,r5,r3
 180c1c8:	003ff206 	br	180c194 <__ratio+0x78>

0180c1cc <_mprec_log10>:
 180c1cc:	defffe04 	addi	sp,sp,-8
 180c1d0:	008005c4 	movi	r2,23
 180c1d4:	dc000015 	stw	r16,0(sp)
 180c1d8:	dfc00115 	stw	ra,4(sp)
 180c1dc:	2021883a 	mov	r16,r4
 180c1e0:	11000c16 	blt	r2,r4,180c214 <_mprec_log10+0x48>
 180c1e4:	200490fa 	slli	r2,r4,3
 180c1e8:	00c06074 	movhi	r3,385
 180c1ec:	18d68e04 	addi	r3,r3,23096
 180c1f0:	10c5883a 	add	r2,r2,r3
 180c1f4:	12400117 	ldw	r9,4(r2)
 180c1f8:	12000017 	ldw	r8,0(r2)
 180c1fc:	4807883a 	mov	r3,r9
 180c200:	4005883a 	mov	r2,r8
 180c204:	dfc00117 	ldw	ra,4(sp)
 180c208:	dc000017 	ldw	r16,0(sp)
 180c20c:	dec00204 	addi	sp,sp,8
 180c210:	f800283a 	ret
 180c214:	0011883a 	mov	r8,zero
 180c218:	024ffc34 	movhi	r9,16368
 180c21c:	0005883a 	mov	r2,zero
 180c220:	00d00934 	movhi	r3,16420
 180c224:	480b883a 	mov	r5,r9
 180c228:	4009883a 	mov	r4,r8
 180c22c:	180f883a 	mov	r7,r3
 180c230:	100d883a 	mov	r6,r2
 180c234:	18054a40 	call	18054a4 <__muldf3>
 180c238:	843fffc4 	addi	r16,r16,-1
 180c23c:	1011883a 	mov	r8,r2
 180c240:	1813883a 	mov	r9,r3
 180c244:	803ff51e 	bne	r16,zero,180c21c <_mprec_log10+0x50>
 180c248:	4005883a 	mov	r2,r8
 180c24c:	4807883a 	mov	r3,r9
 180c250:	dfc00117 	ldw	ra,4(sp)
 180c254:	dc000017 	ldw	r16,0(sp)
 180c258:	dec00204 	addi	sp,sp,8
 180c25c:	f800283a 	ret

0180c260 <__copybits>:
 180c260:	297fffc4 	addi	r5,r5,-1
 180c264:	30800417 	ldw	r2,16(r6)
 180c268:	280bd17a 	srai	r5,r5,5
 180c26c:	31800504 	addi	r6,r6,20
 180c270:	1085883a 	add	r2,r2,r2
 180c274:	294b883a 	add	r5,r5,r5
 180c278:	294b883a 	add	r5,r5,r5
 180c27c:	1085883a 	add	r2,r2,r2
 180c280:	290b883a 	add	r5,r5,r4
 180c284:	3087883a 	add	r3,r6,r2
 180c288:	29400104 	addi	r5,r5,4
 180c28c:	30c0052e 	bgeu	r6,r3,180c2a4 <__copybits+0x44>
 180c290:	30800017 	ldw	r2,0(r6)
 180c294:	31800104 	addi	r6,r6,4
 180c298:	20800015 	stw	r2,0(r4)
 180c29c:	21000104 	addi	r4,r4,4
 180c2a0:	30fffb36 	bltu	r6,r3,180c290 <__copybits+0x30>
 180c2a4:	2140032e 	bgeu	r4,r5,180c2b4 <__copybits+0x54>
 180c2a8:	20000015 	stw	zero,0(r4)
 180c2ac:	21000104 	addi	r4,r4,4
 180c2b0:	217ffd36 	bltu	r4,r5,180c2a8 <__copybits+0x48>
 180c2b4:	f800283a 	ret

0180c2b8 <__any_on>:
 180c2b8:	20800417 	ldw	r2,16(r4)
 180c2bc:	2807d17a 	srai	r3,r5,5
 180c2c0:	21000504 	addi	r4,r4,20
 180c2c4:	10c00d0e 	bge	r2,r3,180c2fc <__any_on+0x44>
 180c2c8:	1085883a 	add	r2,r2,r2
 180c2cc:	1085883a 	add	r2,r2,r2
 180c2d0:	208d883a 	add	r6,r4,r2
 180c2d4:	2180182e 	bgeu	r4,r6,180c338 <__any_on+0x80>
 180c2d8:	30bfff17 	ldw	r2,-4(r6)
 180c2dc:	30ffff04 	addi	r3,r6,-4
 180c2e0:	1000041e 	bne	r2,zero,180c2f4 <__any_on+0x3c>
 180c2e4:	20c0142e 	bgeu	r4,r3,180c338 <__any_on+0x80>
 180c2e8:	18ffff04 	addi	r3,r3,-4
 180c2ec:	18800017 	ldw	r2,0(r3)
 180c2f0:	103ffc26 	beq	r2,zero,180c2e4 <__any_on+0x2c>
 180c2f4:	00800044 	movi	r2,1
 180c2f8:	f800283a 	ret
 180c2fc:	18800a0e 	bge	r3,r2,180c328 <__any_on+0x70>
 180c300:	294007cc 	andi	r5,r5,31
 180c304:	28000826 	beq	r5,zero,180c328 <__any_on+0x70>
 180c308:	18c5883a 	add	r2,r3,r3
 180c30c:	1085883a 	add	r2,r2,r2
 180c310:	208d883a 	add	r6,r4,r2
 180c314:	30c00017 	ldw	r3,0(r6)
 180c318:	1944d83a 	srl	r2,r3,r5
 180c31c:	1144983a 	sll	r2,r2,r5
 180c320:	18bff41e 	bne	r3,r2,180c2f4 <__any_on+0x3c>
 180c324:	003feb06 	br	180c2d4 <__any_on+0x1c>
 180c328:	18c5883a 	add	r2,r3,r3
 180c32c:	1085883a 	add	r2,r2,r2
 180c330:	208d883a 	add	r6,r4,r2
 180c334:	003fe706 	br	180c2d4 <__any_on+0x1c>
 180c338:	0005883a 	mov	r2,zero
 180c33c:	f800283a 	ret

0180c340 <_Balloc>:
 180c340:	20c01317 	ldw	r3,76(r4)
 180c344:	defffb04 	addi	sp,sp,-20
 180c348:	dcc00315 	stw	r19,12(sp)
 180c34c:	dc800215 	stw	r18,8(sp)
 180c350:	dfc00415 	stw	ra,16(sp)
 180c354:	2825883a 	mov	r18,r5
 180c358:	dc400115 	stw	r17,4(sp)
 180c35c:	dc000015 	stw	r16,0(sp)
 180c360:	2027883a 	mov	r19,r4
 180c364:	01800404 	movi	r6,16
 180c368:	01400104 	movi	r5,4
 180c36c:	18001726 	beq	r3,zero,180c3cc <_Balloc+0x8c>
 180c370:	01400044 	movi	r5,1
 180c374:	9485883a 	add	r2,r18,r18
 180c378:	2ca2983a 	sll	r17,r5,r18
 180c37c:	1085883a 	add	r2,r2,r2
 180c380:	10c7883a 	add	r3,r2,r3
 180c384:	1c000017 	ldw	r16,0(r3)
 180c388:	8c4d883a 	add	r6,r17,r17
 180c38c:	318d883a 	add	r6,r6,r6
 180c390:	9809883a 	mov	r4,r19
 180c394:	31800504 	addi	r6,r6,20
 180c398:	80001226 	beq	r16,zero,180c3e4 <_Balloc+0xa4>
 180c39c:	80800017 	ldw	r2,0(r16)
 180c3a0:	18800015 	stw	r2,0(r3)
 180c3a4:	80000415 	stw	zero,16(r16)
 180c3a8:	80000315 	stw	zero,12(r16)
 180c3ac:	8005883a 	mov	r2,r16
 180c3b0:	dfc00417 	ldw	ra,16(sp)
 180c3b4:	dcc00317 	ldw	r19,12(sp)
 180c3b8:	dc800217 	ldw	r18,8(sp)
 180c3bc:	dc400117 	ldw	r17,4(sp)
 180c3c0:	dc000017 	ldw	r16,0(sp)
 180c3c4:	dec00504 	addi	sp,sp,20
 180c3c8:	f800283a 	ret
 180c3cc:	180d74c0 	call	180d74c <_calloc_r>
 180c3d0:	1007883a 	mov	r3,r2
 180c3d4:	0021883a 	mov	r16,zero
 180c3d8:	98801315 	stw	r2,76(r19)
 180c3dc:	103fe41e 	bne	r2,zero,180c370 <_Balloc+0x30>
 180c3e0:	003ff206 	br	180c3ac <_Balloc+0x6c>
 180c3e4:	180d74c0 	call	180d74c <_calloc_r>
 180c3e8:	103ff026 	beq	r2,zero,180c3ac <_Balloc+0x6c>
 180c3ec:	1021883a 	mov	r16,r2
 180c3f0:	14800115 	stw	r18,4(r2)
 180c3f4:	14400215 	stw	r17,8(r2)
 180c3f8:	003fea06 	br	180c3a4 <_Balloc+0x64>

0180c3fc <__d2b>:
 180c3fc:	defff504 	addi	sp,sp,-44
 180c400:	dcc00515 	stw	r19,20(sp)
 180c404:	04c00044 	movi	r19,1
 180c408:	dc000215 	stw	r16,8(sp)
 180c40c:	2821883a 	mov	r16,r5
 180c410:	980b883a 	mov	r5,r19
 180c414:	ddc00915 	stw	r23,36(sp)
 180c418:	dd800815 	stw	r22,32(sp)
 180c41c:	dd400715 	stw	r21,28(sp)
 180c420:	dd000615 	stw	r20,24(sp)
 180c424:	dc800415 	stw	r18,16(sp)
 180c428:	dc400315 	stw	r17,12(sp)
 180c42c:	dfc00a15 	stw	ra,40(sp)
 180c430:	3023883a 	mov	r17,r6
 180c434:	382d883a 	mov	r22,r7
 180c438:	ddc00b17 	ldw	r23,44(sp)
 180c43c:	180c3400 	call	180c340 <_Balloc>
 180c440:	1025883a 	mov	r18,r2
 180c444:	00a00034 	movhi	r2,32768
 180c448:	10bfffc4 	addi	r2,r2,-1
 180c44c:	8888703a 	and	r4,r17,r2
 180c450:	202ad53a 	srli	r21,r4,20
 180c454:	00800434 	movhi	r2,16
 180c458:	10bfffc4 	addi	r2,r2,-1
 180c45c:	8886703a 	and	r3,r17,r2
 180c460:	a829003a 	cmpeq	r20,r21,zero
 180c464:	800b883a 	mov	r5,r16
 180c468:	d8c00115 	stw	r3,4(sp)
 180c46c:	94000504 	addi	r16,r18,20
 180c470:	a000021e 	bne	r20,zero,180c47c <__d2b+0x80>
 180c474:	18c00434 	orhi	r3,r3,16
 180c478:	d8c00115 	stw	r3,4(sp)
 180c47c:	28002726 	beq	r5,zero,180c51c <__d2b+0x120>
 180c480:	d809883a 	mov	r4,sp
 180c484:	d9400015 	stw	r5,0(sp)
 180c488:	180be580 	call	180be58 <__lo0bits>
 180c48c:	100d883a 	mov	r6,r2
 180c490:	10003526 	beq	r2,zero,180c568 <__d2b+0x16c>
 180c494:	d8c00117 	ldw	r3,4(sp)
 180c498:	00800804 	movi	r2,32
 180c49c:	1185c83a 	sub	r2,r2,r6
 180c4a0:	d9000017 	ldw	r4,0(sp)
 180c4a4:	1886983a 	sll	r3,r3,r2
 180c4a8:	1906b03a 	or	r3,r3,r4
 180c4ac:	90c00515 	stw	r3,20(r18)
 180c4b0:	d8c00117 	ldw	r3,4(sp)
 180c4b4:	1986d83a 	srl	r3,r3,r6
 180c4b8:	d8c00115 	stw	r3,4(sp)
 180c4bc:	180b003a 	cmpeq	r5,r3,zero
 180c4c0:	00800084 	movi	r2,2
 180c4c4:	114bc83a 	sub	r5,r2,r5
 180c4c8:	80c00115 	stw	r3,4(r16)
 180c4cc:	91400415 	stw	r5,16(r18)
 180c4d0:	a0001a1e 	bne	r20,zero,180c53c <__d2b+0x140>
 180c4d4:	3545883a 	add	r2,r6,r21
 180c4d8:	10bef344 	addi	r2,r2,-1075
 180c4dc:	00c00d44 	movi	r3,53
 180c4e0:	b0800015 	stw	r2,0(r22)
 180c4e4:	1987c83a 	sub	r3,r3,r6
 180c4e8:	b8c00015 	stw	r3,0(r23)
 180c4ec:	9005883a 	mov	r2,r18
 180c4f0:	dfc00a17 	ldw	ra,40(sp)
 180c4f4:	ddc00917 	ldw	r23,36(sp)
 180c4f8:	dd800817 	ldw	r22,32(sp)
 180c4fc:	dd400717 	ldw	r21,28(sp)
 180c500:	dd000617 	ldw	r20,24(sp)
 180c504:	dcc00517 	ldw	r19,20(sp)
 180c508:	dc800417 	ldw	r18,16(sp)
 180c50c:	dc400317 	ldw	r17,12(sp)
 180c510:	dc000217 	ldw	r16,8(sp)
 180c514:	dec00b04 	addi	sp,sp,44
 180c518:	f800283a 	ret
 180c51c:	d9000104 	addi	r4,sp,4
 180c520:	180be580 	call	180be58 <__lo0bits>
 180c524:	11800804 	addi	r6,r2,32
 180c528:	d8800117 	ldw	r2,4(sp)
 180c52c:	94c00415 	stw	r19,16(r18)
 180c530:	980b883a 	mov	r5,r19
 180c534:	90800515 	stw	r2,20(r18)
 180c538:	a03fe626 	beq	r20,zero,180c4d4 <__d2b+0xd8>
 180c53c:	2945883a 	add	r2,r5,r5
 180c540:	1085883a 	add	r2,r2,r2
 180c544:	1405883a 	add	r2,r2,r16
 180c548:	113fff17 	ldw	r4,-4(r2)
 180c54c:	30fef384 	addi	r3,r6,-1074
 180c550:	2820917a 	slli	r16,r5,5
 180c554:	b0c00015 	stw	r3,0(r22)
 180c558:	180bde80 	call	180bde8 <__hi0bits>
 180c55c:	80a1c83a 	sub	r16,r16,r2
 180c560:	bc000015 	stw	r16,0(r23)
 180c564:	003fe106 	br	180c4ec <__d2b+0xf0>
 180c568:	d8800017 	ldw	r2,0(sp)
 180c56c:	90800515 	stw	r2,20(r18)
 180c570:	d8c00117 	ldw	r3,4(sp)
 180c574:	003fd106 	br	180c4bc <__d2b+0xc0>

0180c578 <__mdiff>:
 180c578:	defffb04 	addi	sp,sp,-20
 180c57c:	dc000015 	stw	r16,0(sp)
 180c580:	2821883a 	mov	r16,r5
 180c584:	dc800215 	stw	r18,8(sp)
 180c588:	300b883a 	mov	r5,r6
 180c58c:	2025883a 	mov	r18,r4
 180c590:	8009883a 	mov	r4,r16
 180c594:	dc400115 	stw	r17,4(sp)
 180c598:	dfc00415 	stw	ra,16(sp)
 180c59c:	dcc00315 	stw	r19,12(sp)
 180c5a0:	3023883a 	mov	r17,r6
 180c5a4:	180bf1c0 	call	180bf1c <__mcmp>
 180c5a8:	10004226 	beq	r2,zero,180c6b4 <__mdiff+0x13c>
 180c5ac:	10005016 	blt	r2,zero,180c6f0 <__mdiff+0x178>
 180c5b0:	0027883a 	mov	r19,zero
 180c5b4:	81400117 	ldw	r5,4(r16)
 180c5b8:	9009883a 	mov	r4,r18
 180c5bc:	180c3400 	call	180c340 <_Balloc>
 180c5c0:	1019883a 	mov	r12,r2
 180c5c4:	82800417 	ldw	r10,16(r16)
 180c5c8:	88800417 	ldw	r2,16(r17)
 180c5cc:	81800504 	addi	r6,r16,20
 180c5d0:	5287883a 	add	r3,r10,r10
 180c5d4:	1085883a 	add	r2,r2,r2
 180c5d8:	18c7883a 	add	r3,r3,r3
 180c5dc:	1085883a 	add	r2,r2,r2
 180c5e0:	8a000504 	addi	r8,r17,20
 180c5e4:	64c00315 	stw	r19,12(r12)
 180c5e8:	30db883a 	add	r13,r6,r3
 180c5ec:	4097883a 	add	r11,r8,r2
 180c5f0:	61c00504 	addi	r7,r12,20
 180c5f4:	0013883a 	mov	r9,zero
 180c5f8:	31000017 	ldw	r4,0(r6)
 180c5fc:	41400017 	ldw	r5,0(r8)
 180c600:	42000104 	addi	r8,r8,4
 180c604:	20bfffcc 	andi	r2,r4,65535
 180c608:	28ffffcc 	andi	r3,r5,65535
 180c60c:	10c5c83a 	sub	r2,r2,r3
 180c610:	1245883a 	add	r2,r2,r9
 180c614:	2008d43a 	srli	r4,r4,16
 180c618:	280ad43a 	srli	r5,r5,16
 180c61c:	1007d43a 	srai	r3,r2,16
 180c620:	3880000d 	sth	r2,0(r7)
 180c624:	2149c83a 	sub	r4,r4,r5
 180c628:	20c9883a 	add	r4,r4,r3
 180c62c:	3900008d 	sth	r4,2(r7)
 180c630:	31800104 	addi	r6,r6,4
 180c634:	39c00104 	addi	r7,r7,4
 180c638:	2013d43a 	srai	r9,r4,16
 180c63c:	42ffee36 	bltu	r8,r11,180c5f8 <__mdiff+0x80>
 180c640:	33400c2e 	bgeu	r6,r13,180c674 <__mdiff+0xfc>
 180c644:	30800017 	ldw	r2,0(r6)
 180c648:	31800104 	addi	r6,r6,4
 180c64c:	10ffffcc 	andi	r3,r2,65535
 180c650:	1a47883a 	add	r3,r3,r9
 180c654:	1004d43a 	srli	r2,r2,16
 180c658:	1809d43a 	srai	r4,r3,16
 180c65c:	38c0000d 	sth	r3,0(r7)
 180c660:	1105883a 	add	r2,r2,r4
 180c664:	3880008d 	sth	r2,2(r7)
 180c668:	1013d43a 	srai	r9,r2,16
 180c66c:	39c00104 	addi	r7,r7,4
 180c670:	337ff436 	bltu	r6,r13,180c644 <__mdiff+0xcc>
 180c674:	38bfff17 	ldw	r2,-4(r7)
 180c678:	38ffff04 	addi	r3,r7,-4
 180c67c:	1000041e 	bne	r2,zero,180c690 <__mdiff+0x118>
 180c680:	18ffff04 	addi	r3,r3,-4
 180c684:	18800017 	ldw	r2,0(r3)
 180c688:	52bfffc4 	addi	r10,r10,-1
 180c68c:	103ffc26 	beq	r2,zero,180c680 <__mdiff+0x108>
 180c690:	6005883a 	mov	r2,r12
 180c694:	62800415 	stw	r10,16(r12)
 180c698:	dfc00417 	ldw	ra,16(sp)
 180c69c:	dcc00317 	ldw	r19,12(sp)
 180c6a0:	dc800217 	ldw	r18,8(sp)
 180c6a4:	dc400117 	ldw	r17,4(sp)
 180c6a8:	dc000017 	ldw	r16,0(sp)
 180c6ac:	dec00504 	addi	sp,sp,20
 180c6b0:	f800283a 	ret
 180c6b4:	9009883a 	mov	r4,r18
 180c6b8:	000b883a 	mov	r5,zero
 180c6bc:	180c3400 	call	180c340 <_Balloc>
 180c6c0:	1019883a 	mov	r12,r2
 180c6c4:	00800044 	movi	r2,1
 180c6c8:	60800415 	stw	r2,16(r12)
 180c6cc:	6005883a 	mov	r2,r12
 180c6d0:	60000515 	stw	zero,20(r12)
 180c6d4:	dfc00417 	ldw	ra,16(sp)
 180c6d8:	dcc00317 	ldw	r19,12(sp)
 180c6dc:	dc800217 	ldw	r18,8(sp)
 180c6e0:	dc400117 	ldw	r17,4(sp)
 180c6e4:	dc000017 	ldw	r16,0(sp)
 180c6e8:	dec00504 	addi	sp,sp,20
 180c6ec:	f800283a 	ret
 180c6f0:	880d883a 	mov	r6,r17
 180c6f4:	04c00044 	movi	r19,1
 180c6f8:	8023883a 	mov	r17,r16
 180c6fc:	3021883a 	mov	r16,r6
 180c700:	003fac06 	br	180c5b4 <__mdiff+0x3c>

0180c704 <__lshift>:
 180c704:	defff904 	addi	sp,sp,-28
 180c708:	28800417 	ldw	r2,16(r5)
 180c70c:	dc000015 	stw	r16,0(sp)
 180c710:	3021d17a 	srai	r16,r6,5
 180c714:	28c00217 	ldw	r3,8(r5)
 180c718:	10800044 	addi	r2,r2,1
 180c71c:	dc400115 	stw	r17,4(sp)
 180c720:	80a3883a 	add	r17,r16,r2
 180c724:	dd400515 	stw	r21,20(sp)
 180c728:	dd000415 	stw	r20,16(sp)
 180c72c:	dc800215 	stw	r18,8(sp)
 180c730:	dfc00615 	stw	ra,24(sp)
 180c734:	2825883a 	mov	r18,r5
 180c738:	dcc00315 	stw	r19,12(sp)
 180c73c:	3029883a 	mov	r20,r6
 180c740:	202b883a 	mov	r21,r4
 180c744:	29400117 	ldw	r5,4(r5)
 180c748:	1c40030e 	bge	r3,r17,180c758 <__lshift+0x54>
 180c74c:	18c7883a 	add	r3,r3,r3
 180c750:	29400044 	addi	r5,r5,1
 180c754:	1c7ffd16 	blt	r3,r17,180c74c <__lshift+0x48>
 180c758:	a809883a 	mov	r4,r21
 180c75c:	180c3400 	call	180c340 <_Balloc>
 180c760:	1027883a 	mov	r19,r2
 180c764:	11400504 	addi	r5,r2,20
 180c768:	0400090e 	bge	zero,r16,180c790 <__lshift+0x8c>
 180c76c:	2805883a 	mov	r2,r5
 180c770:	0007883a 	mov	r3,zero
 180c774:	18c00044 	addi	r3,r3,1
 180c778:	10000015 	stw	zero,0(r2)
 180c77c:	10800104 	addi	r2,r2,4
 180c780:	80fffc1e 	bne	r16,r3,180c774 <__lshift+0x70>
 180c784:	8405883a 	add	r2,r16,r16
 180c788:	1085883a 	add	r2,r2,r2
 180c78c:	288b883a 	add	r5,r5,r2
 180c790:	90800417 	ldw	r2,16(r18)
 180c794:	91000504 	addi	r4,r18,20
 180c798:	a18007cc 	andi	r6,r20,31
 180c79c:	1085883a 	add	r2,r2,r2
 180c7a0:	1085883a 	add	r2,r2,r2
 180c7a4:	208f883a 	add	r7,r4,r2
 180c7a8:	30001e26 	beq	r6,zero,180c824 <__lshift+0x120>
 180c7ac:	00800804 	movi	r2,32
 180c7b0:	1191c83a 	sub	r8,r2,r6
 180c7b4:	0007883a 	mov	r3,zero
 180c7b8:	20800017 	ldw	r2,0(r4)
 180c7bc:	1184983a 	sll	r2,r2,r6
 180c7c0:	1884b03a 	or	r2,r3,r2
 180c7c4:	28800015 	stw	r2,0(r5)
 180c7c8:	20c00017 	ldw	r3,0(r4)
 180c7cc:	21000104 	addi	r4,r4,4
 180c7d0:	29400104 	addi	r5,r5,4
 180c7d4:	1a06d83a 	srl	r3,r3,r8
 180c7d8:	21fff736 	bltu	r4,r7,180c7b8 <__lshift+0xb4>
 180c7dc:	28c00015 	stw	r3,0(r5)
 180c7e0:	18000126 	beq	r3,zero,180c7e8 <__lshift+0xe4>
 180c7e4:	8c400044 	addi	r17,r17,1
 180c7e8:	88bfffc4 	addi	r2,r17,-1
 180c7ec:	98800415 	stw	r2,16(r19)
 180c7f0:	a809883a 	mov	r4,r21
 180c7f4:	900b883a 	mov	r5,r18
 180c7f8:	180bdc00 	call	180bdc0 <_Bfree>
 180c7fc:	9805883a 	mov	r2,r19
 180c800:	dfc00617 	ldw	ra,24(sp)
 180c804:	dd400517 	ldw	r21,20(sp)
 180c808:	dd000417 	ldw	r20,16(sp)
 180c80c:	dcc00317 	ldw	r19,12(sp)
 180c810:	dc800217 	ldw	r18,8(sp)
 180c814:	dc400117 	ldw	r17,4(sp)
 180c818:	dc000017 	ldw	r16,0(sp)
 180c81c:	dec00704 	addi	sp,sp,28
 180c820:	f800283a 	ret
 180c824:	20800017 	ldw	r2,0(r4)
 180c828:	21000104 	addi	r4,r4,4
 180c82c:	28800015 	stw	r2,0(r5)
 180c830:	29400104 	addi	r5,r5,4
 180c834:	21ffec2e 	bgeu	r4,r7,180c7e8 <__lshift+0xe4>
 180c838:	20800017 	ldw	r2,0(r4)
 180c83c:	21000104 	addi	r4,r4,4
 180c840:	28800015 	stw	r2,0(r5)
 180c844:	29400104 	addi	r5,r5,4
 180c848:	21fff636 	bltu	r4,r7,180c824 <__lshift+0x120>
 180c84c:	003fe606 	br	180c7e8 <__lshift+0xe4>

0180c850 <__multiply>:
 180c850:	defff904 	addi	sp,sp,-28
 180c854:	dcc00315 	stw	r19,12(sp)
 180c858:	dc800215 	stw	r18,8(sp)
 180c85c:	2cc00417 	ldw	r19,16(r5)
 180c860:	34800417 	ldw	r18,16(r6)
 180c864:	dd000415 	stw	r20,16(sp)
 180c868:	dc400115 	stw	r17,4(sp)
 180c86c:	dfc00615 	stw	ra,24(sp)
 180c870:	dd400515 	stw	r21,20(sp)
 180c874:	dc000015 	stw	r16,0(sp)
 180c878:	2823883a 	mov	r17,r5
 180c87c:	3029883a 	mov	r20,r6
 180c880:	9c80040e 	bge	r19,r18,180c894 <__multiply+0x44>
 180c884:	9027883a 	mov	r19,r18
 180c888:	2c800417 	ldw	r18,16(r5)
 180c88c:	2829883a 	mov	r20,r5
 180c890:	3023883a 	mov	r17,r6
 180c894:	88800217 	ldw	r2,8(r17)
 180c898:	9ca1883a 	add	r16,r19,r18
 180c89c:	89400117 	ldw	r5,4(r17)
 180c8a0:	1400010e 	bge	r2,r16,180c8a8 <__multiply+0x58>
 180c8a4:	29400044 	addi	r5,r5,1
 180c8a8:	180c3400 	call	180c340 <_Balloc>
 180c8ac:	102b883a 	mov	r21,r2
 180c8b0:	8405883a 	add	r2,r16,r16
 180c8b4:	1085883a 	add	r2,r2,r2
 180c8b8:	a9000504 	addi	r4,r21,20
 180c8bc:	209d883a 	add	r14,r4,r2
 180c8c0:	2380042e 	bgeu	r4,r14,180c8d4 <__multiply+0x84>
 180c8c4:	2005883a 	mov	r2,r4
 180c8c8:	10000015 	stw	zero,0(r2)
 180c8cc:	10800104 	addi	r2,r2,4
 180c8d0:	13bffd36 	bltu	r2,r14,180c8c8 <__multiply+0x78>
 180c8d4:	9485883a 	add	r2,r18,r18
 180c8d8:	9cc7883a 	add	r3,r19,r19
 180c8dc:	a1800504 	addi	r6,r20,20
 180c8e0:	1085883a 	add	r2,r2,r2
 180c8e4:	8b400504 	addi	r13,r17,20
 180c8e8:	18c7883a 	add	r3,r3,r3
 180c8ec:	309f883a 	add	r15,r6,r2
 180c8f0:	68d7883a 	add	r11,r13,r3
 180c8f4:	33c03b2e 	bgeu	r6,r15,180c9e4 <__multiply+0x194>
 180c8f8:	2019883a 	mov	r12,r4
 180c8fc:	30800017 	ldw	r2,0(r6)
 180c900:	127fffcc 	andi	r9,r2,65535
 180c904:	48001826 	beq	r9,zero,180c968 <__multiply+0x118>
 180c908:	6811883a 	mov	r8,r13
 180c90c:	600f883a 	mov	r7,r12
 180c910:	0015883a 	mov	r10,zero
 180c914:	40c00017 	ldw	r3,0(r8)
 180c918:	39400017 	ldw	r5,0(r7)
 180c91c:	42000104 	addi	r8,r8,4
 180c920:	193fffcc 	andi	r4,r3,65535
 180c924:	4909383a 	mul	r4,r9,r4
 180c928:	1806d43a 	srli	r3,r3,16
 180c92c:	28bfffcc 	andi	r2,r5,65535
 180c930:	5085883a 	add	r2,r10,r2
 180c934:	2089883a 	add	r4,r4,r2
 180c938:	48c7383a 	mul	r3,r9,r3
 180c93c:	280ad43a 	srli	r5,r5,16
 180c940:	2004d43a 	srli	r2,r4,16
 180c944:	3900000d 	sth	r4,0(r7)
 180c948:	1947883a 	add	r3,r3,r5
 180c94c:	10c5883a 	add	r2,r2,r3
 180c950:	3880008d 	sth	r2,2(r7)
 180c954:	1014d43a 	srli	r10,r2,16
 180c958:	39c00104 	addi	r7,r7,4
 180c95c:	42ffed36 	bltu	r8,r11,180c914 <__multiply+0xc4>
 180c960:	3a800015 	stw	r10,0(r7)
 180c964:	30800017 	ldw	r2,0(r6)
 180c968:	1012d43a 	srli	r9,r2,16
 180c96c:	48001926 	beq	r9,zero,180c9d4 <__multiply+0x184>
 180c970:	60800017 	ldw	r2,0(r12)
 180c974:	6811883a 	mov	r8,r13
 180c978:	600f883a 	mov	r7,r12
 180c97c:	0015883a 	mov	r10,zero
 180c980:	100b883a 	mov	r5,r2
 180c984:	41000017 	ldw	r4,0(r8)
 180c988:	2806d43a 	srli	r3,r5,16
 180c98c:	3880000d 	sth	r2,0(r7)
 180c990:	20bfffcc 	andi	r2,r4,65535
 180c994:	4885383a 	mul	r2,r9,r2
 180c998:	50c7883a 	add	r3,r10,r3
 180c99c:	2008d43a 	srli	r4,r4,16
 180c9a0:	10c5883a 	add	r2,r2,r3
 180c9a4:	3880008d 	sth	r2,2(r7)
 180c9a8:	39c00104 	addi	r7,r7,4
 180c9ac:	39400017 	ldw	r5,0(r7)
 180c9b0:	4909383a 	mul	r4,r9,r4
 180c9b4:	1004d43a 	srli	r2,r2,16
 180c9b8:	28ffffcc 	andi	r3,r5,65535
 180c9bc:	20c9883a 	add	r4,r4,r3
 180c9c0:	1105883a 	add	r2,r2,r4
 180c9c4:	42000104 	addi	r8,r8,4
 180c9c8:	1014d43a 	srli	r10,r2,16
 180c9cc:	42ffed36 	bltu	r8,r11,180c984 <__multiply+0x134>
 180c9d0:	38800015 	stw	r2,0(r7)
 180c9d4:	31800104 	addi	r6,r6,4
 180c9d8:	33c0022e 	bgeu	r6,r15,180c9e4 <__multiply+0x194>
 180c9dc:	63000104 	addi	r12,r12,4
 180c9e0:	003fc606 	br	180c8fc <__multiply+0xac>
 180c9e4:	0400090e 	bge	zero,r16,180ca0c <__multiply+0x1bc>
 180c9e8:	70bfff17 	ldw	r2,-4(r14)
 180c9ec:	70ffff04 	addi	r3,r14,-4
 180c9f0:	10000326 	beq	r2,zero,180ca00 <__multiply+0x1b0>
 180c9f4:	00000506 	br	180ca0c <__multiply+0x1bc>
 180c9f8:	18800017 	ldw	r2,0(r3)
 180c9fc:	1000031e 	bne	r2,zero,180ca0c <__multiply+0x1bc>
 180ca00:	843fffc4 	addi	r16,r16,-1
 180ca04:	18ffff04 	addi	r3,r3,-4
 180ca08:	803ffb1e 	bne	r16,zero,180c9f8 <__multiply+0x1a8>
 180ca0c:	a805883a 	mov	r2,r21
 180ca10:	ac000415 	stw	r16,16(r21)
 180ca14:	dfc00617 	ldw	ra,24(sp)
 180ca18:	dd400517 	ldw	r21,20(sp)
 180ca1c:	dd000417 	ldw	r20,16(sp)
 180ca20:	dcc00317 	ldw	r19,12(sp)
 180ca24:	dc800217 	ldw	r18,8(sp)
 180ca28:	dc400117 	ldw	r17,4(sp)
 180ca2c:	dc000017 	ldw	r16,0(sp)
 180ca30:	dec00704 	addi	sp,sp,28
 180ca34:	f800283a 	ret

0180ca38 <__i2b>:
 180ca38:	defffd04 	addi	sp,sp,-12
 180ca3c:	dc000015 	stw	r16,0(sp)
 180ca40:	04000044 	movi	r16,1
 180ca44:	dc800115 	stw	r18,4(sp)
 180ca48:	2825883a 	mov	r18,r5
 180ca4c:	800b883a 	mov	r5,r16
 180ca50:	dfc00215 	stw	ra,8(sp)
 180ca54:	180c3400 	call	180c340 <_Balloc>
 180ca58:	14000415 	stw	r16,16(r2)
 180ca5c:	14800515 	stw	r18,20(r2)
 180ca60:	dfc00217 	ldw	ra,8(sp)
 180ca64:	dc800117 	ldw	r18,4(sp)
 180ca68:	dc000017 	ldw	r16,0(sp)
 180ca6c:	dec00304 	addi	sp,sp,12
 180ca70:	f800283a 	ret

0180ca74 <__multadd>:
 180ca74:	defffa04 	addi	sp,sp,-24
 180ca78:	dc800215 	stw	r18,8(sp)
 180ca7c:	2c800417 	ldw	r18,16(r5)
 180ca80:	dd000415 	stw	r20,16(sp)
 180ca84:	dcc00315 	stw	r19,12(sp)
 180ca88:	dc000015 	stw	r16,0(sp)
 180ca8c:	dfc00515 	stw	ra,20(sp)
 180ca90:	3821883a 	mov	r16,r7
 180ca94:	dc400115 	stw	r17,4(sp)
 180ca98:	2827883a 	mov	r19,r5
 180ca9c:	2029883a 	mov	r20,r4
 180caa0:	2a000504 	addi	r8,r5,20
 180caa4:	000f883a 	mov	r7,zero
 180caa8:	40800017 	ldw	r2,0(r8)
 180caac:	39c00044 	addi	r7,r7,1
 180cab0:	10ffffcc 	andi	r3,r2,65535
 180cab4:	1987383a 	mul	r3,r3,r6
 180cab8:	1004d43a 	srli	r2,r2,16
 180cabc:	1c07883a 	add	r3,r3,r16
 180cac0:	180ad43a 	srli	r5,r3,16
 180cac4:	1185383a 	mul	r2,r2,r6
 180cac8:	18ffffcc 	andi	r3,r3,65535
 180cacc:	1145883a 	add	r2,r2,r5
 180cad0:	1008943a 	slli	r4,r2,16
 180cad4:	1020d43a 	srli	r16,r2,16
 180cad8:	20c9883a 	add	r4,r4,r3
 180cadc:	41000015 	stw	r4,0(r8)
 180cae0:	42000104 	addi	r8,r8,4
 180cae4:	3cbff016 	blt	r7,r18,180caa8 <__multadd+0x34>
 180cae8:	80000826 	beq	r16,zero,180cb0c <__multadd+0x98>
 180caec:	98800217 	ldw	r2,8(r19)
 180caf0:	90800f0e 	bge	r18,r2,180cb30 <__multadd+0xbc>
 180caf4:	9485883a 	add	r2,r18,r18
 180caf8:	1085883a 	add	r2,r2,r2
 180cafc:	14c5883a 	add	r2,r2,r19
 180cb00:	90c00044 	addi	r3,r18,1
 180cb04:	14000515 	stw	r16,20(r2)
 180cb08:	98c00415 	stw	r3,16(r19)
 180cb0c:	9805883a 	mov	r2,r19
 180cb10:	dfc00517 	ldw	ra,20(sp)
 180cb14:	dd000417 	ldw	r20,16(sp)
 180cb18:	dcc00317 	ldw	r19,12(sp)
 180cb1c:	dc800217 	ldw	r18,8(sp)
 180cb20:	dc400117 	ldw	r17,4(sp)
 180cb24:	dc000017 	ldw	r16,0(sp)
 180cb28:	dec00604 	addi	sp,sp,24
 180cb2c:	f800283a 	ret
 180cb30:	99400117 	ldw	r5,4(r19)
 180cb34:	a009883a 	mov	r4,r20
 180cb38:	29400044 	addi	r5,r5,1
 180cb3c:	180c3400 	call	180c340 <_Balloc>
 180cb40:	99800417 	ldw	r6,16(r19)
 180cb44:	99400304 	addi	r5,r19,12
 180cb48:	11000304 	addi	r4,r2,12
 180cb4c:	318d883a 	add	r6,r6,r6
 180cb50:	318d883a 	add	r6,r6,r6
 180cb54:	31800204 	addi	r6,r6,8
 180cb58:	1023883a 	mov	r17,r2
 180cb5c:	18069380 	call	1806938 <memcpy>
 180cb60:	980b883a 	mov	r5,r19
 180cb64:	a009883a 	mov	r4,r20
 180cb68:	180bdc00 	call	180bdc0 <_Bfree>
 180cb6c:	8827883a 	mov	r19,r17
 180cb70:	003fe006 	br	180caf4 <__multadd+0x80>

0180cb74 <__pow5mult>:
 180cb74:	defffa04 	addi	sp,sp,-24
 180cb78:	308000cc 	andi	r2,r6,3
 180cb7c:	dd000415 	stw	r20,16(sp)
 180cb80:	dcc00315 	stw	r19,12(sp)
 180cb84:	dc000015 	stw	r16,0(sp)
 180cb88:	dfc00515 	stw	ra,20(sp)
 180cb8c:	dc800215 	stw	r18,8(sp)
 180cb90:	dc400115 	stw	r17,4(sp)
 180cb94:	3021883a 	mov	r16,r6
 180cb98:	2027883a 	mov	r19,r4
 180cb9c:	2829883a 	mov	r20,r5
 180cba0:	10002b1e 	bne	r2,zero,180cc50 <__pow5mult+0xdc>
 180cba4:	8025d0ba 	srai	r18,r16,2
 180cba8:	90001b26 	beq	r18,zero,180cc18 <__pow5mult+0xa4>
 180cbac:	9c001217 	ldw	r16,72(r19)
 180cbb0:	8000081e 	bne	r16,zero,180cbd4 <__pow5mult+0x60>
 180cbb4:	00003006 	br	180cc78 <__pow5mult+0x104>
 180cbb8:	800b883a 	mov	r5,r16
 180cbbc:	800d883a 	mov	r6,r16
 180cbc0:	9809883a 	mov	r4,r19
 180cbc4:	90001426 	beq	r18,zero,180cc18 <__pow5mult+0xa4>
 180cbc8:	80800017 	ldw	r2,0(r16)
 180cbcc:	10001b26 	beq	r2,zero,180cc3c <__pow5mult+0xc8>
 180cbd0:	1021883a 	mov	r16,r2
 180cbd4:	9080004c 	andi	r2,r18,1
 180cbd8:	1005003a 	cmpeq	r2,r2,zero
 180cbdc:	9025d07a 	srai	r18,r18,1
 180cbe0:	800d883a 	mov	r6,r16
 180cbe4:	9809883a 	mov	r4,r19
 180cbe8:	a00b883a 	mov	r5,r20
 180cbec:	103ff21e 	bne	r2,zero,180cbb8 <__pow5mult+0x44>
 180cbf0:	180c8500 	call	180c850 <__multiply>
 180cbf4:	a00b883a 	mov	r5,r20
 180cbf8:	9809883a 	mov	r4,r19
 180cbfc:	1023883a 	mov	r17,r2
 180cc00:	180bdc00 	call	180bdc0 <_Bfree>
 180cc04:	8829883a 	mov	r20,r17
 180cc08:	800b883a 	mov	r5,r16
 180cc0c:	800d883a 	mov	r6,r16
 180cc10:	9809883a 	mov	r4,r19
 180cc14:	903fec1e 	bne	r18,zero,180cbc8 <__pow5mult+0x54>
 180cc18:	a005883a 	mov	r2,r20
 180cc1c:	dfc00517 	ldw	ra,20(sp)
 180cc20:	dd000417 	ldw	r20,16(sp)
 180cc24:	dcc00317 	ldw	r19,12(sp)
 180cc28:	dc800217 	ldw	r18,8(sp)
 180cc2c:	dc400117 	ldw	r17,4(sp)
 180cc30:	dc000017 	ldw	r16,0(sp)
 180cc34:	dec00604 	addi	sp,sp,24
 180cc38:	f800283a 	ret
 180cc3c:	180c8500 	call	180c850 <__multiply>
 180cc40:	80800015 	stw	r2,0(r16)
 180cc44:	1021883a 	mov	r16,r2
 180cc48:	10000015 	stw	zero,0(r2)
 180cc4c:	003fe106 	br	180cbd4 <__pow5mult+0x60>
 180cc50:	1085883a 	add	r2,r2,r2
 180cc54:	00c06074 	movhi	r3,385
 180cc58:	18d6d404 	addi	r3,r3,23376
 180cc5c:	1085883a 	add	r2,r2,r2
 180cc60:	10c5883a 	add	r2,r2,r3
 180cc64:	11bfff17 	ldw	r6,-4(r2)
 180cc68:	000f883a 	mov	r7,zero
 180cc6c:	180ca740 	call	180ca74 <__multadd>
 180cc70:	1029883a 	mov	r20,r2
 180cc74:	003fcb06 	br	180cba4 <__pow5mult+0x30>
 180cc78:	9809883a 	mov	r4,r19
 180cc7c:	01409c44 	movi	r5,625
 180cc80:	180ca380 	call	180ca38 <__i2b>
 180cc84:	98801215 	stw	r2,72(r19)
 180cc88:	1021883a 	mov	r16,r2
 180cc8c:	10000015 	stw	zero,0(r2)
 180cc90:	003fd006 	br	180cbd4 <__pow5mult+0x60>

0180cc94 <__s2b>:
 180cc94:	defff904 	addi	sp,sp,-28
 180cc98:	dcc00315 	stw	r19,12(sp)
 180cc9c:	dc800215 	stw	r18,8(sp)
 180cca0:	2827883a 	mov	r19,r5
 180cca4:	2025883a 	mov	r18,r4
 180cca8:	01400244 	movi	r5,9
 180ccac:	39000204 	addi	r4,r7,8
 180ccb0:	dd000415 	stw	r20,16(sp)
 180ccb4:	dc400115 	stw	r17,4(sp)
 180ccb8:	dfc00615 	stw	ra,24(sp)
 180ccbc:	dd400515 	stw	r21,20(sp)
 180ccc0:	dc000015 	stw	r16,0(sp)
 180ccc4:	3829883a 	mov	r20,r7
 180ccc8:	3023883a 	mov	r17,r6
 180cccc:	1805fd80 	call	1805fd8 <__divsi3>
 180ccd0:	00c00044 	movi	r3,1
 180ccd4:	1880350e 	bge	r3,r2,180cdac <__s2b+0x118>
 180ccd8:	000b883a 	mov	r5,zero
 180ccdc:	18c7883a 	add	r3,r3,r3
 180cce0:	29400044 	addi	r5,r5,1
 180cce4:	18bffd16 	blt	r3,r2,180ccdc <__s2b+0x48>
 180cce8:	9009883a 	mov	r4,r18
 180ccec:	180c3400 	call	180c340 <_Balloc>
 180ccf0:	1011883a 	mov	r8,r2
 180ccf4:	d8800717 	ldw	r2,28(sp)
 180ccf8:	00c00044 	movi	r3,1
 180ccfc:	01800244 	movi	r6,9
 180cd00:	40800515 	stw	r2,20(r8)
 180cd04:	40c00415 	stw	r3,16(r8)
 180cd08:	3440260e 	bge	r6,r17,180cda4 <__s2b+0x110>
 180cd0c:	3021883a 	mov	r16,r6
 180cd10:	99ab883a 	add	r21,r19,r6
 180cd14:	9c05883a 	add	r2,r19,r16
 180cd18:	11c00007 	ldb	r7,0(r2)
 180cd1c:	400b883a 	mov	r5,r8
 180cd20:	9009883a 	mov	r4,r18
 180cd24:	39fff404 	addi	r7,r7,-48
 180cd28:	01800284 	movi	r6,10
 180cd2c:	180ca740 	call	180ca74 <__multadd>
 180cd30:	84000044 	addi	r16,r16,1
 180cd34:	1011883a 	mov	r8,r2
 180cd38:	8c3ff61e 	bne	r17,r16,180cd14 <__s2b+0x80>
 180cd3c:	ac45883a 	add	r2,r21,r17
 180cd40:	117ffe04 	addi	r5,r2,-8
 180cd44:	880d883a 	mov	r6,r17
 180cd48:	35000c0e 	bge	r6,r20,180cd7c <__s2b+0xe8>
 180cd4c:	a185c83a 	sub	r2,r20,r6
 180cd50:	2821883a 	mov	r16,r5
 180cd54:	28a3883a 	add	r17,r5,r2
 180cd58:	81c00007 	ldb	r7,0(r16)
 180cd5c:	400b883a 	mov	r5,r8
 180cd60:	9009883a 	mov	r4,r18
 180cd64:	39fff404 	addi	r7,r7,-48
 180cd68:	01800284 	movi	r6,10
 180cd6c:	180ca740 	call	180ca74 <__multadd>
 180cd70:	84000044 	addi	r16,r16,1
 180cd74:	1011883a 	mov	r8,r2
 180cd78:	847ff71e 	bne	r16,r17,180cd58 <__s2b+0xc4>
 180cd7c:	4005883a 	mov	r2,r8
 180cd80:	dfc00617 	ldw	ra,24(sp)
 180cd84:	dd400517 	ldw	r21,20(sp)
 180cd88:	dd000417 	ldw	r20,16(sp)
 180cd8c:	dcc00317 	ldw	r19,12(sp)
 180cd90:	dc800217 	ldw	r18,8(sp)
 180cd94:	dc400117 	ldw	r17,4(sp)
 180cd98:	dc000017 	ldw	r16,0(sp)
 180cd9c:	dec00704 	addi	sp,sp,28
 180cda0:	f800283a 	ret
 180cda4:	99400284 	addi	r5,r19,10
 180cda8:	003fe706 	br	180cd48 <__s2b+0xb4>
 180cdac:	000b883a 	mov	r5,zero
 180cdb0:	003fcd06 	br	180cce8 <__s2b+0x54>

0180cdb4 <_realloc_r>:
 180cdb4:	defff404 	addi	sp,sp,-48
 180cdb8:	dd800815 	stw	r22,32(sp)
 180cdbc:	dc800415 	stw	r18,16(sp)
 180cdc0:	dc400315 	stw	r17,12(sp)
 180cdc4:	dfc00b15 	stw	ra,44(sp)
 180cdc8:	df000a15 	stw	fp,40(sp)
 180cdcc:	ddc00915 	stw	r23,36(sp)
 180cdd0:	dd400715 	stw	r21,28(sp)
 180cdd4:	dd000615 	stw	r20,24(sp)
 180cdd8:	dcc00515 	stw	r19,20(sp)
 180cddc:	dc000215 	stw	r16,8(sp)
 180cde0:	2825883a 	mov	r18,r5
 180cde4:	3023883a 	mov	r17,r6
 180cde8:	202d883a 	mov	r22,r4
 180cdec:	2800c926 	beq	r5,zero,180d114 <_realloc_r+0x360>
 180cdf0:	180eea80 	call	180eea8 <__malloc_lock>
 180cdf4:	943ffe04 	addi	r16,r18,-8
 180cdf8:	88c002c4 	addi	r3,r17,11
 180cdfc:	00800584 	movi	r2,22
 180ce00:	82000117 	ldw	r8,4(r16)
 180ce04:	10c01b2e 	bgeu	r2,r3,180ce74 <_realloc_r+0xc0>
 180ce08:	00bffe04 	movi	r2,-8
 180ce0c:	188e703a 	and	r7,r3,r2
 180ce10:	3839883a 	mov	fp,r7
 180ce14:	38001a16 	blt	r7,zero,180ce80 <_realloc_r+0xcc>
 180ce18:	e4401936 	bltu	fp,r17,180ce80 <_realloc_r+0xcc>
 180ce1c:	013fff04 	movi	r4,-4
 180ce20:	4126703a 	and	r19,r8,r4
 180ce24:	99c02616 	blt	r19,r7,180cec0 <_realloc_r+0x10c>
 180ce28:	802b883a 	mov	r21,r16
 180ce2c:	9829883a 	mov	r20,r19
 180ce30:	84000204 	addi	r16,r16,8
 180ce34:	a80f883a 	mov	r7,r21
 180ce38:	a70dc83a 	sub	r6,r20,fp
 180ce3c:	008003c4 	movi	r2,15
 180ce40:	1180c136 	bltu	r2,r6,180d148 <_realloc_r+0x394>
 180ce44:	38800117 	ldw	r2,4(r7)
 180ce48:	a549883a 	add	r4,r20,r21
 180ce4c:	1080004c 	andi	r2,r2,1
 180ce50:	a084b03a 	or	r2,r20,r2
 180ce54:	38800115 	stw	r2,4(r7)
 180ce58:	20c00117 	ldw	r3,4(r4)
 180ce5c:	18c00054 	ori	r3,r3,1
 180ce60:	20c00115 	stw	r3,4(r4)
 180ce64:	b009883a 	mov	r4,r22
 180ce68:	180eec80 	call	180eec8 <__malloc_unlock>
 180ce6c:	8023883a 	mov	r17,r16
 180ce70:	00000606 	br	180ce8c <_realloc_r+0xd8>
 180ce74:	01c00404 	movi	r7,16
 180ce78:	3839883a 	mov	fp,r7
 180ce7c:	e47fe72e 	bgeu	fp,r17,180ce1c <_realloc_r+0x68>
 180ce80:	00800304 	movi	r2,12
 180ce84:	0023883a 	mov	r17,zero
 180ce88:	b0800015 	stw	r2,0(r22)
 180ce8c:	8805883a 	mov	r2,r17
 180ce90:	dfc00b17 	ldw	ra,44(sp)
 180ce94:	df000a17 	ldw	fp,40(sp)
 180ce98:	ddc00917 	ldw	r23,36(sp)
 180ce9c:	dd800817 	ldw	r22,32(sp)
 180cea0:	dd400717 	ldw	r21,28(sp)
 180cea4:	dd000617 	ldw	r20,24(sp)
 180cea8:	dcc00517 	ldw	r19,20(sp)
 180ceac:	dc800417 	ldw	r18,16(sp)
 180ceb0:	dc400317 	ldw	r17,12(sp)
 180ceb4:	dc000217 	ldw	r16,8(sp)
 180ceb8:	dec00c04 	addi	sp,sp,48
 180cebc:	f800283a 	ret
 180cec0:	00806074 	movhi	r2,385
 180cec4:	10989004 	addi	r2,r2,25152
 180cec8:	12400217 	ldw	r9,8(r2)
 180cecc:	84cd883a 	add	r6,r16,r19
 180ced0:	802b883a 	mov	r21,r16
 180ced4:	3240b926 	beq	r6,r9,180d1bc <_realloc_r+0x408>
 180ced8:	31400117 	ldw	r5,4(r6)
 180cedc:	00bfff84 	movi	r2,-2
 180cee0:	2884703a 	and	r2,r5,r2
 180cee4:	1185883a 	add	r2,r2,r6
 180cee8:	10c00117 	ldw	r3,4(r2)
 180ceec:	18c0004c 	andi	r3,r3,1
 180cef0:	1807003a 	cmpeq	r3,r3,zero
 180cef4:	1800a326 	beq	r3,zero,180d184 <_realloc_r+0x3d0>
 180cef8:	2908703a 	and	r4,r5,r4
 180cefc:	9929883a 	add	r20,r19,r4
 180cf00:	a1c0a30e 	bge	r20,r7,180d190 <_realloc_r+0x3dc>
 180cf04:	4080004c 	andi	r2,r8,1
 180cf08:	1000551e 	bne	r2,zero,180d060 <_realloc_r+0x2ac>
 180cf0c:	80800017 	ldw	r2,0(r16)
 180cf10:	80afc83a 	sub	r23,r16,r2
 180cf14:	b8c00117 	ldw	r3,4(r23)
 180cf18:	00bfff04 	movi	r2,-4
 180cf1c:	1884703a 	and	r2,r3,r2
 180cf20:	30002e26 	beq	r6,zero,180cfdc <_realloc_r+0x228>
 180cf24:	3240b926 	beq	r6,r9,180d20c <_realloc_r+0x458>
 180cf28:	98a9883a 	add	r20,r19,r2
 180cf2c:	2509883a 	add	r4,r4,r20
 180cf30:	d9000015 	stw	r4,0(sp)
 180cf34:	21c02a16 	blt	r4,r7,180cfe0 <_realloc_r+0x22c>
 180cf38:	30800317 	ldw	r2,12(r6)
 180cf3c:	30c00217 	ldw	r3,8(r6)
 180cf40:	01400904 	movi	r5,36
 180cf44:	99bfff04 	addi	r6,r19,-4
 180cf48:	18800315 	stw	r2,12(r3)
 180cf4c:	10c00215 	stw	r3,8(r2)
 180cf50:	b9000317 	ldw	r4,12(r23)
 180cf54:	b8800217 	ldw	r2,8(r23)
 180cf58:	b82b883a 	mov	r21,r23
 180cf5c:	bc000204 	addi	r16,r23,8
 180cf60:	20800215 	stw	r2,8(r4)
 180cf64:	11000315 	stw	r4,12(r2)
 180cf68:	2980e436 	bltu	r5,r6,180d2fc <_realloc_r+0x548>
 180cf6c:	008004c4 	movi	r2,19
 180cf70:	9009883a 	mov	r4,r18
 180cf74:	8011883a 	mov	r8,r16
 180cf78:	11800f2e 	bgeu	r2,r6,180cfb8 <_realloc_r+0x204>
 180cf7c:	90800017 	ldw	r2,0(r18)
 180cf80:	ba000404 	addi	r8,r23,16
 180cf84:	91000204 	addi	r4,r18,8
 180cf88:	b8800215 	stw	r2,8(r23)
 180cf8c:	90c00117 	ldw	r3,4(r18)
 180cf90:	008006c4 	movi	r2,27
 180cf94:	b8c00315 	stw	r3,12(r23)
 180cf98:	1180072e 	bgeu	r2,r6,180cfb8 <_realloc_r+0x204>
 180cf9c:	90c00217 	ldw	r3,8(r18)
 180cfa0:	ba000604 	addi	r8,r23,24
 180cfa4:	91000404 	addi	r4,r18,16
 180cfa8:	b8c00415 	stw	r3,16(r23)
 180cfac:	90800317 	ldw	r2,12(r18)
 180cfb0:	b8800515 	stw	r2,20(r23)
 180cfb4:	3140e726 	beq	r6,r5,180d354 <_realloc_r+0x5a0>
 180cfb8:	20800017 	ldw	r2,0(r4)
 180cfbc:	dd000017 	ldw	r20,0(sp)
 180cfc0:	b80f883a 	mov	r7,r23
 180cfc4:	40800015 	stw	r2,0(r8)
 180cfc8:	20c00117 	ldw	r3,4(r4)
 180cfcc:	40c00115 	stw	r3,4(r8)
 180cfd0:	20800217 	ldw	r2,8(r4)
 180cfd4:	40800215 	stw	r2,8(r8)
 180cfd8:	003f9706 	br	180ce38 <_realloc_r+0x84>
 180cfdc:	98a9883a 	add	r20,r19,r2
 180cfe0:	a1c01f16 	blt	r20,r7,180d060 <_realloc_r+0x2ac>
 180cfe4:	b8c00317 	ldw	r3,12(r23)
 180cfe8:	b8800217 	ldw	r2,8(r23)
 180cfec:	99bfff04 	addi	r6,r19,-4
 180cff0:	01400904 	movi	r5,36
 180cff4:	b82b883a 	mov	r21,r23
 180cff8:	18800215 	stw	r2,8(r3)
 180cffc:	10c00315 	stw	r3,12(r2)
 180d000:	bc000204 	addi	r16,r23,8
 180d004:	2980c336 	bltu	r5,r6,180d314 <_realloc_r+0x560>
 180d008:	008004c4 	movi	r2,19
 180d00c:	9009883a 	mov	r4,r18
 180d010:	8011883a 	mov	r8,r16
 180d014:	11800f2e 	bgeu	r2,r6,180d054 <_realloc_r+0x2a0>
 180d018:	90800017 	ldw	r2,0(r18)
 180d01c:	ba000404 	addi	r8,r23,16
 180d020:	91000204 	addi	r4,r18,8
 180d024:	b8800215 	stw	r2,8(r23)
 180d028:	90c00117 	ldw	r3,4(r18)
 180d02c:	008006c4 	movi	r2,27
 180d030:	b8c00315 	stw	r3,12(r23)
 180d034:	1180072e 	bgeu	r2,r6,180d054 <_realloc_r+0x2a0>
 180d038:	90c00217 	ldw	r3,8(r18)
 180d03c:	ba000604 	addi	r8,r23,24
 180d040:	91000404 	addi	r4,r18,16
 180d044:	b8c00415 	stw	r3,16(r23)
 180d048:	90800317 	ldw	r2,12(r18)
 180d04c:	b8800515 	stw	r2,20(r23)
 180d050:	3140c726 	beq	r6,r5,180d370 <_realloc_r+0x5bc>
 180d054:	20800017 	ldw	r2,0(r4)
 180d058:	b80f883a 	mov	r7,r23
 180d05c:	003fd906 	br	180cfc4 <_realloc_r+0x210>
 180d060:	880b883a 	mov	r5,r17
 180d064:	b009883a 	mov	r4,r22
 180d068:	180b4240 	call	180b424 <_malloc_r>
 180d06c:	1023883a 	mov	r17,r2
 180d070:	10002526 	beq	r2,zero,180d108 <_realloc_r+0x354>
 180d074:	80800117 	ldw	r2,4(r16)
 180d078:	00ffff84 	movi	r3,-2
 180d07c:	893ffe04 	addi	r4,r17,-8
 180d080:	10c4703a 	and	r2,r2,r3
 180d084:	8085883a 	add	r2,r16,r2
 180d088:	20809526 	beq	r4,r2,180d2e0 <_realloc_r+0x52c>
 180d08c:	99bfff04 	addi	r6,r19,-4
 180d090:	01c00904 	movi	r7,36
 180d094:	39804536 	bltu	r7,r6,180d1ac <_realloc_r+0x3f8>
 180d098:	008004c4 	movi	r2,19
 180d09c:	9009883a 	mov	r4,r18
 180d0a0:	880b883a 	mov	r5,r17
 180d0a4:	11800f2e 	bgeu	r2,r6,180d0e4 <_realloc_r+0x330>
 180d0a8:	90800017 	ldw	r2,0(r18)
 180d0ac:	89400204 	addi	r5,r17,8
 180d0b0:	91000204 	addi	r4,r18,8
 180d0b4:	88800015 	stw	r2,0(r17)
 180d0b8:	90c00117 	ldw	r3,4(r18)
 180d0bc:	008006c4 	movi	r2,27
 180d0c0:	88c00115 	stw	r3,4(r17)
 180d0c4:	1180072e 	bgeu	r2,r6,180d0e4 <_realloc_r+0x330>
 180d0c8:	90c00217 	ldw	r3,8(r18)
 180d0cc:	89400404 	addi	r5,r17,16
 180d0d0:	91000404 	addi	r4,r18,16
 180d0d4:	88c00215 	stw	r3,8(r17)
 180d0d8:	90800317 	ldw	r2,12(r18)
 180d0dc:	88800315 	stw	r2,12(r17)
 180d0e0:	31c09126 	beq	r6,r7,180d328 <_realloc_r+0x574>
 180d0e4:	20800017 	ldw	r2,0(r4)
 180d0e8:	28800015 	stw	r2,0(r5)
 180d0ec:	20c00117 	ldw	r3,4(r4)
 180d0f0:	28c00115 	stw	r3,4(r5)
 180d0f4:	20800217 	ldw	r2,8(r4)
 180d0f8:	28800215 	stw	r2,8(r5)
 180d0fc:	900b883a 	mov	r5,r18
 180d100:	b009883a 	mov	r4,r22
 180d104:	180a89c0 	call	180a89c <_free_r>
 180d108:	b009883a 	mov	r4,r22
 180d10c:	180eec80 	call	180eec8 <__malloc_unlock>
 180d110:	003f5e06 	br	180ce8c <_realloc_r+0xd8>
 180d114:	300b883a 	mov	r5,r6
 180d118:	dfc00b17 	ldw	ra,44(sp)
 180d11c:	df000a17 	ldw	fp,40(sp)
 180d120:	ddc00917 	ldw	r23,36(sp)
 180d124:	dd800817 	ldw	r22,32(sp)
 180d128:	dd400717 	ldw	r21,28(sp)
 180d12c:	dd000617 	ldw	r20,24(sp)
 180d130:	dcc00517 	ldw	r19,20(sp)
 180d134:	dc800417 	ldw	r18,16(sp)
 180d138:	dc400317 	ldw	r17,12(sp)
 180d13c:	dc000217 	ldw	r16,8(sp)
 180d140:	dec00c04 	addi	sp,sp,48
 180d144:	180b4241 	jmpi	180b424 <_malloc_r>
 180d148:	38800117 	ldw	r2,4(r7)
 180d14c:	e54b883a 	add	r5,fp,r21
 180d150:	31000054 	ori	r4,r6,1
 180d154:	1080004c 	andi	r2,r2,1
 180d158:	1704b03a 	or	r2,r2,fp
 180d15c:	38800115 	stw	r2,4(r7)
 180d160:	29000115 	stw	r4,4(r5)
 180d164:	2987883a 	add	r3,r5,r6
 180d168:	18800117 	ldw	r2,4(r3)
 180d16c:	29400204 	addi	r5,r5,8
 180d170:	b009883a 	mov	r4,r22
 180d174:	10800054 	ori	r2,r2,1
 180d178:	18800115 	stw	r2,4(r3)
 180d17c:	180a89c0 	call	180a89c <_free_r>
 180d180:	003f3806 	br	180ce64 <_realloc_r+0xb0>
 180d184:	000d883a 	mov	r6,zero
 180d188:	0009883a 	mov	r4,zero
 180d18c:	003f5d06 	br	180cf04 <_realloc_r+0x150>
 180d190:	30c00217 	ldw	r3,8(r6)
 180d194:	30800317 	ldw	r2,12(r6)
 180d198:	800f883a 	mov	r7,r16
 180d19c:	84000204 	addi	r16,r16,8
 180d1a0:	10c00215 	stw	r3,8(r2)
 180d1a4:	18800315 	stw	r2,12(r3)
 180d1a8:	003f2306 	br	180ce38 <_realloc_r+0x84>
 180d1ac:	8809883a 	mov	r4,r17
 180d1b0:	900b883a 	mov	r5,r18
 180d1b4:	180bc480 	call	180bc48 <memmove>
 180d1b8:	003fd006 	br	180d0fc <_realloc_r+0x348>
 180d1bc:	30800117 	ldw	r2,4(r6)
 180d1c0:	e0c00404 	addi	r3,fp,16
 180d1c4:	1108703a 	and	r4,r2,r4
 180d1c8:	9905883a 	add	r2,r19,r4
 180d1cc:	10ff4d16 	blt	r2,r3,180cf04 <_realloc_r+0x150>
 180d1d0:	1705c83a 	sub	r2,r2,fp
 180d1d4:	870b883a 	add	r5,r16,fp
 180d1d8:	10800054 	ori	r2,r2,1
 180d1dc:	28800115 	stw	r2,4(r5)
 180d1e0:	80c00117 	ldw	r3,4(r16)
 180d1e4:	00806074 	movhi	r2,385
 180d1e8:	10989004 	addi	r2,r2,25152
 180d1ec:	b009883a 	mov	r4,r22
 180d1f0:	18c0004c 	andi	r3,r3,1
 180d1f4:	e0c6b03a 	or	r3,fp,r3
 180d1f8:	11400215 	stw	r5,8(r2)
 180d1fc:	80c00115 	stw	r3,4(r16)
 180d200:	180eec80 	call	180eec8 <__malloc_unlock>
 180d204:	84400204 	addi	r17,r16,8
 180d208:	003f2006 	br	180ce8c <_realloc_r+0xd8>
 180d20c:	98a9883a 	add	r20,r19,r2
 180d210:	2509883a 	add	r4,r4,r20
 180d214:	e0800404 	addi	r2,fp,16
 180d218:	d9000115 	stw	r4,4(sp)
 180d21c:	20bf7016 	blt	r4,r2,180cfe0 <_realloc_r+0x22c>
 180d220:	b8c00317 	ldw	r3,12(r23)
 180d224:	b8800217 	ldw	r2,8(r23)
 180d228:	99bfff04 	addi	r6,r19,-4
 180d22c:	01400904 	movi	r5,36
 180d230:	18800215 	stw	r2,8(r3)
 180d234:	10c00315 	stw	r3,12(r2)
 180d238:	bc400204 	addi	r17,r23,8
 180d23c:	29804136 	bltu	r5,r6,180d344 <_realloc_r+0x590>
 180d240:	008004c4 	movi	r2,19
 180d244:	9009883a 	mov	r4,r18
 180d248:	880f883a 	mov	r7,r17
 180d24c:	11800f2e 	bgeu	r2,r6,180d28c <_realloc_r+0x4d8>
 180d250:	90800017 	ldw	r2,0(r18)
 180d254:	b9c00404 	addi	r7,r23,16
 180d258:	91000204 	addi	r4,r18,8
 180d25c:	b8800215 	stw	r2,8(r23)
 180d260:	90c00117 	ldw	r3,4(r18)
 180d264:	008006c4 	movi	r2,27
 180d268:	b8c00315 	stw	r3,12(r23)
 180d26c:	1180072e 	bgeu	r2,r6,180d28c <_realloc_r+0x4d8>
 180d270:	90c00217 	ldw	r3,8(r18)
 180d274:	b9c00604 	addi	r7,r23,24
 180d278:	91000404 	addi	r4,r18,16
 180d27c:	b8c00415 	stw	r3,16(r23)
 180d280:	90800317 	ldw	r2,12(r18)
 180d284:	b8800515 	stw	r2,20(r23)
 180d288:	31404026 	beq	r6,r5,180d38c <_realloc_r+0x5d8>
 180d28c:	20800017 	ldw	r2,0(r4)
 180d290:	38800015 	stw	r2,0(r7)
 180d294:	20c00117 	ldw	r3,4(r4)
 180d298:	38c00115 	stw	r3,4(r7)
 180d29c:	20800217 	ldw	r2,8(r4)
 180d2a0:	38800215 	stw	r2,8(r7)
 180d2a4:	d8c00117 	ldw	r3,4(sp)
 180d2a8:	bf0b883a 	add	r5,r23,fp
 180d2ac:	b009883a 	mov	r4,r22
 180d2b0:	1f05c83a 	sub	r2,r3,fp
 180d2b4:	10800054 	ori	r2,r2,1
 180d2b8:	28800115 	stw	r2,4(r5)
 180d2bc:	b8c00117 	ldw	r3,4(r23)
 180d2c0:	00806074 	movhi	r2,385
 180d2c4:	10989004 	addi	r2,r2,25152
 180d2c8:	11400215 	stw	r5,8(r2)
 180d2cc:	18c0004c 	andi	r3,r3,1
 180d2d0:	e0c6b03a 	or	r3,fp,r3
 180d2d4:	b8c00115 	stw	r3,4(r23)
 180d2d8:	180eec80 	call	180eec8 <__malloc_unlock>
 180d2dc:	003eeb06 	br	180ce8c <_realloc_r+0xd8>
 180d2e0:	20800117 	ldw	r2,4(r4)
 180d2e4:	00ffff04 	movi	r3,-4
 180d2e8:	800f883a 	mov	r7,r16
 180d2ec:	10c4703a 	and	r2,r2,r3
 180d2f0:	98a9883a 	add	r20,r19,r2
 180d2f4:	84000204 	addi	r16,r16,8
 180d2f8:	003ecf06 	br	180ce38 <_realloc_r+0x84>
 180d2fc:	900b883a 	mov	r5,r18
 180d300:	8009883a 	mov	r4,r16
 180d304:	180bc480 	call	180bc48 <memmove>
 180d308:	dd000017 	ldw	r20,0(sp)
 180d30c:	b80f883a 	mov	r7,r23
 180d310:	003ec906 	br	180ce38 <_realloc_r+0x84>
 180d314:	900b883a 	mov	r5,r18
 180d318:	8009883a 	mov	r4,r16
 180d31c:	180bc480 	call	180bc48 <memmove>
 180d320:	b80f883a 	mov	r7,r23
 180d324:	003ec406 	br	180ce38 <_realloc_r+0x84>
 180d328:	90c00417 	ldw	r3,16(r18)
 180d32c:	89400604 	addi	r5,r17,24
 180d330:	91000604 	addi	r4,r18,24
 180d334:	88c00415 	stw	r3,16(r17)
 180d338:	90800517 	ldw	r2,20(r18)
 180d33c:	88800515 	stw	r2,20(r17)
 180d340:	003f6806 	br	180d0e4 <_realloc_r+0x330>
 180d344:	900b883a 	mov	r5,r18
 180d348:	8809883a 	mov	r4,r17
 180d34c:	180bc480 	call	180bc48 <memmove>
 180d350:	003fd406 	br	180d2a4 <_realloc_r+0x4f0>
 180d354:	90c00417 	ldw	r3,16(r18)
 180d358:	91000604 	addi	r4,r18,24
 180d35c:	ba000804 	addi	r8,r23,32
 180d360:	b8c00615 	stw	r3,24(r23)
 180d364:	90800517 	ldw	r2,20(r18)
 180d368:	b8800715 	stw	r2,28(r23)
 180d36c:	003f1206 	br	180cfb8 <_realloc_r+0x204>
 180d370:	90c00417 	ldw	r3,16(r18)
 180d374:	91000604 	addi	r4,r18,24
 180d378:	ba000804 	addi	r8,r23,32
 180d37c:	b8c00615 	stw	r3,24(r23)
 180d380:	90800517 	ldw	r2,20(r18)
 180d384:	b8800715 	stw	r2,28(r23)
 180d388:	003f3206 	br	180d054 <_realloc_r+0x2a0>
 180d38c:	90c00417 	ldw	r3,16(r18)
 180d390:	91000604 	addi	r4,r18,24
 180d394:	b9c00804 	addi	r7,r23,32
 180d398:	b8c00615 	stw	r3,24(r23)
 180d39c:	90800517 	ldw	r2,20(r18)
 180d3a0:	b8800715 	stw	r2,28(r23)
 180d3a4:	003fb906 	br	180d28c <_realloc_r+0x4d8>

0180d3a8 <__isinfd>:
 180d3a8:	200d883a 	mov	r6,r4
 180d3ac:	0109c83a 	sub	r4,zero,r4
 180d3b0:	2188b03a 	or	r4,r4,r6
 180d3b4:	2008d7fa 	srli	r4,r4,31
 180d3b8:	00a00034 	movhi	r2,32768
 180d3bc:	10bfffc4 	addi	r2,r2,-1
 180d3c0:	1144703a 	and	r2,r2,r5
 180d3c4:	2088b03a 	or	r4,r4,r2
 180d3c8:	009ffc34 	movhi	r2,32752
 180d3cc:	1105c83a 	sub	r2,r2,r4
 180d3d0:	0087c83a 	sub	r3,zero,r2
 180d3d4:	10c4b03a 	or	r2,r2,r3
 180d3d8:	1004d7fa 	srli	r2,r2,31
 180d3dc:	00c00044 	movi	r3,1
 180d3e0:	1885c83a 	sub	r2,r3,r2
 180d3e4:	f800283a 	ret

0180d3e8 <_sbrk_r>:
 180d3e8:	defffd04 	addi	sp,sp,-12
 180d3ec:	dc000015 	stw	r16,0(sp)
 180d3f0:	04006074 	movhi	r16,385
 180d3f4:	841ede04 	addi	r16,r16,31608
 180d3f8:	dc400115 	stw	r17,4(sp)
 180d3fc:	80000015 	stw	zero,0(r16)
 180d400:	2023883a 	mov	r17,r4
 180d404:	2809883a 	mov	r4,r5
 180d408:	dfc00215 	stw	ra,8(sp)
 180d40c:	180f0c80 	call	180f0c8 <sbrk>
 180d410:	1007883a 	mov	r3,r2
 180d414:	00bfffc4 	movi	r2,-1
 180d418:	18800626 	beq	r3,r2,180d434 <_sbrk_r+0x4c>
 180d41c:	1805883a 	mov	r2,r3
 180d420:	dfc00217 	ldw	ra,8(sp)
 180d424:	dc400117 	ldw	r17,4(sp)
 180d428:	dc000017 	ldw	r16,0(sp)
 180d42c:	dec00304 	addi	sp,sp,12
 180d430:	f800283a 	ret
 180d434:	80800017 	ldw	r2,0(r16)
 180d438:	103ff826 	beq	r2,zero,180d41c <_sbrk_r+0x34>
 180d43c:	88800015 	stw	r2,0(r17)
 180d440:	1805883a 	mov	r2,r3
 180d444:	dfc00217 	ldw	ra,8(sp)
 180d448:	dc400117 	ldw	r17,4(sp)
 180d44c:	dc000017 	ldw	r16,0(sp)
 180d450:	dec00304 	addi	sp,sp,12
 180d454:	f800283a 	ret

0180d458 <__sclose>:
 180d458:	2940038f 	ldh	r5,14(r5)
 180d45c:	180d8001 	jmpi	180d800 <_close_r>

0180d460 <__sseek>:
 180d460:	defffe04 	addi	sp,sp,-8
 180d464:	dc000015 	stw	r16,0(sp)
 180d468:	2821883a 	mov	r16,r5
 180d46c:	2940038f 	ldh	r5,14(r5)
 180d470:	dfc00115 	stw	ra,4(sp)
 180d474:	180da780 	call	180da78 <_lseek_r>
 180d478:	1007883a 	mov	r3,r2
 180d47c:	00bfffc4 	movi	r2,-1
 180d480:	18800926 	beq	r3,r2,180d4a8 <__sseek+0x48>
 180d484:	8080030b 	ldhu	r2,12(r16)
 180d488:	80c01415 	stw	r3,80(r16)
 180d48c:	10840014 	ori	r2,r2,4096
 180d490:	8080030d 	sth	r2,12(r16)
 180d494:	1805883a 	mov	r2,r3
 180d498:	dfc00117 	ldw	ra,4(sp)
 180d49c:	dc000017 	ldw	r16,0(sp)
 180d4a0:	dec00204 	addi	sp,sp,8
 180d4a4:	f800283a 	ret
 180d4a8:	8080030b 	ldhu	r2,12(r16)
 180d4ac:	10bbffcc 	andi	r2,r2,61439
 180d4b0:	8080030d 	sth	r2,12(r16)
 180d4b4:	1805883a 	mov	r2,r3
 180d4b8:	dfc00117 	ldw	ra,4(sp)
 180d4bc:	dc000017 	ldw	r16,0(sp)
 180d4c0:	dec00204 	addi	sp,sp,8
 180d4c4:	f800283a 	ret

0180d4c8 <__swrite>:
 180d4c8:	2880030b 	ldhu	r2,12(r5)
 180d4cc:	defffb04 	addi	sp,sp,-20
 180d4d0:	dcc00315 	stw	r19,12(sp)
 180d4d4:	1080400c 	andi	r2,r2,256
 180d4d8:	dc800215 	stw	r18,8(sp)
 180d4dc:	dc400115 	stw	r17,4(sp)
 180d4e0:	dc000015 	stw	r16,0(sp)
 180d4e4:	3027883a 	mov	r19,r6
 180d4e8:	3825883a 	mov	r18,r7
 180d4ec:	dfc00415 	stw	ra,16(sp)
 180d4f0:	2821883a 	mov	r16,r5
 180d4f4:	000d883a 	mov	r6,zero
 180d4f8:	01c00084 	movi	r7,2
 180d4fc:	2023883a 	mov	r17,r4
 180d500:	10000226 	beq	r2,zero,180d50c <__swrite+0x44>
 180d504:	2940038f 	ldh	r5,14(r5)
 180d508:	180da780 	call	180da78 <_lseek_r>
 180d50c:	8080030b 	ldhu	r2,12(r16)
 180d510:	8140038f 	ldh	r5,14(r16)
 180d514:	8809883a 	mov	r4,r17
 180d518:	10bbffcc 	andi	r2,r2,61439
 180d51c:	980d883a 	mov	r6,r19
 180d520:	900f883a 	mov	r7,r18
 180d524:	8080030d 	sth	r2,12(r16)
 180d528:	dfc00417 	ldw	ra,16(sp)
 180d52c:	dcc00317 	ldw	r19,12(sp)
 180d530:	dc800217 	ldw	r18,8(sp)
 180d534:	dc400117 	ldw	r17,4(sp)
 180d538:	dc000017 	ldw	r16,0(sp)
 180d53c:	dec00504 	addi	sp,sp,20
 180d540:	180d6d41 	jmpi	180d6d4 <_write_r>

0180d544 <__sread>:
 180d544:	defffe04 	addi	sp,sp,-8
 180d548:	dc000015 	stw	r16,0(sp)
 180d54c:	2821883a 	mov	r16,r5
 180d550:	2940038f 	ldh	r5,14(r5)
 180d554:	dfc00115 	stw	ra,4(sp)
 180d558:	180daf00 	call	180daf0 <_read_r>
 180d55c:	1007883a 	mov	r3,r2
 180d560:	10000816 	blt	r2,zero,180d584 <__sread+0x40>
 180d564:	80801417 	ldw	r2,80(r16)
 180d568:	10c5883a 	add	r2,r2,r3
 180d56c:	80801415 	stw	r2,80(r16)
 180d570:	1805883a 	mov	r2,r3
 180d574:	dfc00117 	ldw	ra,4(sp)
 180d578:	dc000017 	ldw	r16,0(sp)
 180d57c:	dec00204 	addi	sp,sp,8
 180d580:	f800283a 	ret
 180d584:	8080030b 	ldhu	r2,12(r16)
 180d588:	10bbffcc 	andi	r2,r2,61439
 180d58c:	8080030d 	sth	r2,12(r16)
 180d590:	1805883a 	mov	r2,r3
 180d594:	dfc00117 	ldw	ra,4(sp)
 180d598:	dc000017 	ldw	r16,0(sp)
 180d59c:	dec00204 	addi	sp,sp,8
 180d5a0:	f800283a 	ret

0180d5a4 <strcmp>:
 180d5a4:	2144b03a 	or	r2,r4,r5
 180d5a8:	108000cc 	andi	r2,r2,3
 180d5ac:	10001d1e 	bne	r2,zero,180d624 <strcmp+0x80>
 180d5b0:	200f883a 	mov	r7,r4
 180d5b4:	28800017 	ldw	r2,0(r5)
 180d5b8:	21000017 	ldw	r4,0(r4)
 180d5bc:	280d883a 	mov	r6,r5
 180d5c0:	2080161e 	bne	r4,r2,180d61c <strcmp+0x78>
 180d5c4:	023fbff4 	movhi	r8,65279
 180d5c8:	423fbfc4 	addi	r8,r8,-257
 180d5cc:	2207883a 	add	r3,r4,r8
 180d5d0:	01602074 	movhi	r5,32897
 180d5d4:	29602004 	addi	r5,r5,-32640
 180d5d8:	1946703a 	and	r3,r3,r5
 180d5dc:	0104303a 	nor	r2,zero,r4
 180d5e0:	10c4703a 	and	r2,r2,r3
 180d5e4:	10001c1e 	bne	r2,zero,180d658 <strcmp+0xb4>
 180d5e8:	4013883a 	mov	r9,r8
 180d5ec:	2811883a 	mov	r8,r5
 180d5f0:	00000106 	br	180d5f8 <strcmp+0x54>
 180d5f4:	1800181e 	bne	r3,zero,180d658 <strcmp+0xb4>
 180d5f8:	39c00104 	addi	r7,r7,4
 180d5fc:	39000017 	ldw	r4,0(r7)
 180d600:	31800104 	addi	r6,r6,4
 180d604:	31400017 	ldw	r5,0(r6)
 180d608:	2245883a 	add	r2,r4,r9
 180d60c:	1204703a 	and	r2,r2,r8
 180d610:	0106303a 	nor	r3,zero,r4
 180d614:	1886703a 	and	r3,r3,r2
 180d618:	217ff626 	beq	r4,r5,180d5f4 <strcmp+0x50>
 180d61c:	3809883a 	mov	r4,r7
 180d620:	300b883a 	mov	r5,r6
 180d624:	20c00007 	ldb	r3,0(r4)
 180d628:	1800051e 	bne	r3,zero,180d640 <strcmp+0x9c>
 180d62c:	00000606 	br	180d648 <strcmp+0xa4>
 180d630:	21000044 	addi	r4,r4,1
 180d634:	20c00007 	ldb	r3,0(r4)
 180d638:	29400044 	addi	r5,r5,1
 180d63c:	18000226 	beq	r3,zero,180d648 <strcmp+0xa4>
 180d640:	28800007 	ldb	r2,0(r5)
 180d644:	18bffa26 	beq	r3,r2,180d630 <strcmp+0x8c>
 180d648:	20c00003 	ldbu	r3,0(r4)
 180d64c:	28800003 	ldbu	r2,0(r5)
 180d650:	1885c83a 	sub	r2,r3,r2
 180d654:	f800283a 	ret
 180d658:	0005883a 	mov	r2,zero
 180d65c:	f800283a 	ret

0180d660 <strlen>:
 180d660:	208000cc 	andi	r2,r4,3
 180d664:	2011883a 	mov	r8,r4
 180d668:	1000161e 	bne	r2,zero,180d6c4 <strlen+0x64>
 180d66c:	20c00017 	ldw	r3,0(r4)
 180d670:	017fbff4 	movhi	r5,65279
 180d674:	297fbfc4 	addi	r5,r5,-257
 180d678:	01e02074 	movhi	r7,32897
 180d67c:	39e02004 	addi	r7,r7,-32640
 180d680:	1945883a 	add	r2,r3,r5
 180d684:	11c4703a 	and	r2,r2,r7
 180d688:	00c6303a 	nor	r3,zero,r3
 180d68c:	1886703a 	and	r3,r3,r2
 180d690:	18000c1e 	bne	r3,zero,180d6c4 <strlen+0x64>
 180d694:	280d883a 	mov	r6,r5
 180d698:	380b883a 	mov	r5,r7
 180d69c:	21000104 	addi	r4,r4,4
 180d6a0:	20800017 	ldw	r2,0(r4)
 180d6a4:	1187883a 	add	r3,r2,r6
 180d6a8:	1946703a 	and	r3,r3,r5
 180d6ac:	0084303a 	nor	r2,zero,r2
 180d6b0:	10c4703a 	and	r2,r2,r3
 180d6b4:	103ff926 	beq	r2,zero,180d69c <strlen+0x3c>
 180d6b8:	20800007 	ldb	r2,0(r4)
 180d6bc:	10000326 	beq	r2,zero,180d6cc <strlen+0x6c>
 180d6c0:	21000044 	addi	r4,r4,1
 180d6c4:	20800007 	ldb	r2,0(r4)
 180d6c8:	103ffd1e 	bne	r2,zero,180d6c0 <strlen+0x60>
 180d6cc:	2205c83a 	sub	r2,r4,r8
 180d6d0:	f800283a 	ret

0180d6d4 <_write_r>:
 180d6d4:	defffd04 	addi	sp,sp,-12
 180d6d8:	dc000015 	stw	r16,0(sp)
 180d6dc:	04006074 	movhi	r16,385
 180d6e0:	841ede04 	addi	r16,r16,31608
 180d6e4:	dc400115 	stw	r17,4(sp)
 180d6e8:	80000015 	stw	zero,0(r16)
 180d6ec:	2023883a 	mov	r17,r4
 180d6f0:	2809883a 	mov	r4,r5
 180d6f4:	300b883a 	mov	r5,r6
 180d6f8:	380d883a 	mov	r6,r7
 180d6fc:	dfc00215 	stw	ra,8(sp)
 180d700:	180f1b40 	call	180f1b4 <write>
 180d704:	1007883a 	mov	r3,r2
 180d708:	00bfffc4 	movi	r2,-1
 180d70c:	18800626 	beq	r3,r2,180d728 <_write_r+0x54>
 180d710:	1805883a 	mov	r2,r3
 180d714:	dfc00217 	ldw	ra,8(sp)
 180d718:	dc400117 	ldw	r17,4(sp)
 180d71c:	dc000017 	ldw	r16,0(sp)
 180d720:	dec00304 	addi	sp,sp,12
 180d724:	f800283a 	ret
 180d728:	80800017 	ldw	r2,0(r16)
 180d72c:	103ff826 	beq	r2,zero,180d710 <_write_r+0x3c>
 180d730:	88800015 	stw	r2,0(r17)
 180d734:	1805883a 	mov	r2,r3
 180d738:	dfc00217 	ldw	ra,8(sp)
 180d73c:	dc400117 	ldw	r17,4(sp)
 180d740:	dc000017 	ldw	r16,0(sp)
 180d744:	dec00304 	addi	sp,sp,12
 180d748:	f800283a 	ret

0180d74c <_calloc_r>:
 180d74c:	298b383a 	mul	r5,r5,r6
 180d750:	defffe04 	addi	sp,sp,-8
 180d754:	dc000015 	stw	r16,0(sp)
 180d758:	dfc00115 	stw	ra,4(sp)
 180d75c:	180b4240 	call	180b424 <_malloc_r>
 180d760:	1021883a 	mov	r16,r2
 180d764:	01c00904 	movi	r7,36
 180d768:	10000d26 	beq	r2,zero,180d7a0 <_calloc_r+0x54>
 180d76c:	10ffff17 	ldw	r3,-4(r2)
 180d770:	1009883a 	mov	r4,r2
 180d774:	00bfff04 	movi	r2,-4
 180d778:	1886703a 	and	r3,r3,r2
 180d77c:	1887883a 	add	r3,r3,r2
 180d780:	180d883a 	mov	r6,r3
 180d784:	000b883a 	mov	r5,zero
 180d788:	38c01736 	bltu	r7,r3,180d7e8 <_calloc_r+0x9c>
 180d78c:	008004c4 	movi	r2,19
 180d790:	10c00836 	bltu	r2,r3,180d7b4 <_calloc_r+0x68>
 180d794:	20000215 	stw	zero,8(r4)
 180d798:	20000015 	stw	zero,0(r4)
 180d79c:	20000115 	stw	zero,4(r4)
 180d7a0:	8005883a 	mov	r2,r16
 180d7a4:	dfc00117 	ldw	ra,4(sp)
 180d7a8:	dc000017 	ldw	r16,0(sp)
 180d7ac:	dec00204 	addi	sp,sp,8
 180d7b0:	f800283a 	ret
 180d7b4:	008006c4 	movi	r2,27
 180d7b8:	80000015 	stw	zero,0(r16)
 180d7bc:	80000115 	stw	zero,4(r16)
 180d7c0:	81000204 	addi	r4,r16,8
 180d7c4:	10fff32e 	bgeu	r2,r3,180d794 <_calloc_r+0x48>
 180d7c8:	80000215 	stw	zero,8(r16)
 180d7cc:	80000315 	stw	zero,12(r16)
 180d7d0:	81000404 	addi	r4,r16,16
 180d7d4:	19ffef1e 	bne	r3,r7,180d794 <_calloc_r+0x48>
 180d7d8:	81000604 	addi	r4,r16,24
 180d7dc:	80000415 	stw	zero,16(r16)
 180d7e0:	80000515 	stw	zero,20(r16)
 180d7e4:	003feb06 	br	180d794 <_calloc_r+0x48>
 180d7e8:	180bd280 	call	180bd28 <memset>
 180d7ec:	8005883a 	mov	r2,r16
 180d7f0:	dfc00117 	ldw	ra,4(sp)
 180d7f4:	dc000017 	ldw	r16,0(sp)
 180d7f8:	dec00204 	addi	sp,sp,8
 180d7fc:	f800283a 	ret

0180d800 <_close_r>:
 180d800:	defffd04 	addi	sp,sp,-12
 180d804:	dc000015 	stw	r16,0(sp)
 180d808:	04006074 	movhi	r16,385
 180d80c:	841ede04 	addi	r16,r16,31608
 180d810:	dc400115 	stw	r17,4(sp)
 180d814:	80000015 	stw	zero,0(r16)
 180d818:	2023883a 	mov	r17,r4
 180d81c:	2809883a 	mov	r4,r5
 180d820:	dfc00215 	stw	ra,8(sp)
 180d824:	180e9100 	call	180e910 <close>
 180d828:	1007883a 	mov	r3,r2
 180d82c:	00bfffc4 	movi	r2,-1
 180d830:	18800626 	beq	r3,r2,180d84c <_close_r+0x4c>
 180d834:	1805883a 	mov	r2,r3
 180d838:	dfc00217 	ldw	ra,8(sp)
 180d83c:	dc400117 	ldw	r17,4(sp)
 180d840:	dc000017 	ldw	r16,0(sp)
 180d844:	dec00304 	addi	sp,sp,12
 180d848:	f800283a 	ret
 180d84c:	80800017 	ldw	r2,0(r16)
 180d850:	103ff826 	beq	r2,zero,180d834 <_close_r+0x34>
 180d854:	88800015 	stw	r2,0(r17)
 180d858:	1805883a 	mov	r2,r3
 180d85c:	dfc00217 	ldw	ra,8(sp)
 180d860:	dc400117 	ldw	r17,4(sp)
 180d864:	dc000017 	ldw	r16,0(sp)
 180d868:	dec00304 	addi	sp,sp,12
 180d86c:	f800283a 	ret

0180d870 <_fclose_r>:
 180d870:	defffc04 	addi	sp,sp,-16
 180d874:	dc400115 	stw	r17,4(sp)
 180d878:	dc000015 	stw	r16,0(sp)
 180d87c:	dfc00315 	stw	ra,12(sp)
 180d880:	dc800215 	stw	r18,8(sp)
 180d884:	2821883a 	mov	r16,r5
 180d888:	2023883a 	mov	r17,r4
 180d88c:	28002926 	beq	r5,zero,180d934 <_fclose_r+0xc4>
 180d890:	180a5080 	call	180a508 <__sfp_lock_acquire>
 180d894:	88000226 	beq	r17,zero,180d8a0 <_fclose_r+0x30>
 180d898:	88800e17 	ldw	r2,56(r17)
 180d89c:	10002d26 	beq	r2,zero,180d954 <_fclose_r+0xe4>
 180d8a0:	8080030f 	ldh	r2,12(r16)
 180d8a4:	10002226 	beq	r2,zero,180d930 <_fclose_r+0xc0>
 180d8a8:	8809883a 	mov	r4,r17
 180d8ac:	800b883a 	mov	r5,r16
 180d8b0:	180a2800 	call	180a280 <_fflush_r>
 180d8b4:	1025883a 	mov	r18,r2
 180d8b8:	80800b17 	ldw	r2,44(r16)
 180d8bc:	10000426 	beq	r2,zero,180d8d0 <_fclose_r+0x60>
 180d8c0:	81400717 	ldw	r5,28(r16)
 180d8c4:	8809883a 	mov	r4,r17
 180d8c8:	103ee83a 	callr	r2
 180d8cc:	10002a16 	blt	r2,zero,180d978 <_fclose_r+0x108>
 180d8d0:	8080030b 	ldhu	r2,12(r16)
 180d8d4:	1080200c 	andi	r2,r2,128
 180d8d8:	1000231e 	bne	r2,zero,180d968 <_fclose_r+0xf8>
 180d8dc:	81400c17 	ldw	r5,48(r16)
 180d8e0:	28000526 	beq	r5,zero,180d8f8 <_fclose_r+0x88>
 180d8e4:	80801004 	addi	r2,r16,64
 180d8e8:	28800226 	beq	r5,r2,180d8f4 <_fclose_r+0x84>
 180d8ec:	8809883a 	mov	r4,r17
 180d8f0:	180a89c0 	call	180a89c <_free_r>
 180d8f4:	80000c15 	stw	zero,48(r16)
 180d8f8:	81401117 	ldw	r5,68(r16)
 180d8fc:	28000326 	beq	r5,zero,180d90c <_fclose_r+0x9c>
 180d900:	8809883a 	mov	r4,r17
 180d904:	180a89c0 	call	180a89c <_free_r>
 180d908:	80001115 	stw	zero,68(r16)
 180d90c:	8000030d 	sth	zero,12(r16)
 180d910:	180a50c0 	call	180a50c <__sfp_lock_release>
 180d914:	9005883a 	mov	r2,r18
 180d918:	dfc00317 	ldw	ra,12(sp)
 180d91c:	dc800217 	ldw	r18,8(sp)
 180d920:	dc400117 	ldw	r17,4(sp)
 180d924:	dc000017 	ldw	r16,0(sp)
 180d928:	dec00404 	addi	sp,sp,16
 180d92c:	f800283a 	ret
 180d930:	180a50c0 	call	180a50c <__sfp_lock_release>
 180d934:	0025883a 	mov	r18,zero
 180d938:	9005883a 	mov	r2,r18
 180d93c:	dfc00317 	ldw	ra,12(sp)
 180d940:	dc800217 	ldw	r18,8(sp)
 180d944:	dc400117 	ldw	r17,4(sp)
 180d948:	dc000017 	ldw	r16,0(sp)
 180d94c:	dec00404 	addi	sp,sp,16
 180d950:	f800283a 	ret
 180d954:	8809883a 	mov	r4,r17
 180d958:	180a5180 	call	180a518 <__sinit>
 180d95c:	8080030f 	ldh	r2,12(r16)
 180d960:	103fd11e 	bne	r2,zero,180d8a8 <_fclose_r+0x38>
 180d964:	003ff206 	br	180d930 <_fclose_r+0xc0>
 180d968:	81400417 	ldw	r5,16(r16)
 180d96c:	8809883a 	mov	r4,r17
 180d970:	180a89c0 	call	180a89c <_free_r>
 180d974:	003fd906 	br	180d8dc <_fclose_r+0x6c>
 180d978:	04bfffc4 	movi	r18,-1
 180d97c:	003fd406 	br	180d8d0 <_fclose_r+0x60>

0180d980 <fclose>:
 180d980:	00806074 	movhi	r2,385
 180d984:	109ec404 	addi	r2,r2,31504
 180d988:	200b883a 	mov	r5,r4
 180d98c:	11000017 	ldw	r4,0(r2)
 180d990:	180d8701 	jmpi	180d870 <_fclose_r>

0180d994 <_fstat_r>:
 180d994:	defffd04 	addi	sp,sp,-12
 180d998:	dc000015 	stw	r16,0(sp)
 180d99c:	04006074 	movhi	r16,385
 180d9a0:	841ede04 	addi	r16,r16,31608
 180d9a4:	dc400115 	stw	r17,4(sp)
 180d9a8:	80000015 	stw	zero,0(r16)
 180d9ac:	2023883a 	mov	r17,r4
 180d9b0:	2809883a 	mov	r4,r5
 180d9b4:	300b883a 	mov	r5,r6
 180d9b8:	dfc00215 	stw	ra,8(sp)
 180d9bc:	180ea980 	call	180ea98 <fstat>
 180d9c0:	1007883a 	mov	r3,r2
 180d9c4:	00bfffc4 	movi	r2,-1
 180d9c8:	18800626 	beq	r3,r2,180d9e4 <_fstat_r+0x50>
 180d9cc:	1805883a 	mov	r2,r3
 180d9d0:	dfc00217 	ldw	ra,8(sp)
 180d9d4:	dc400117 	ldw	r17,4(sp)
 180d9d8:	dc000017 	ldw	r16,0(sp)
 180d9dc:	dec00304 	addi	sp,sp,12
 180d9e0:	f800283a 	ret
 180d9e4:	80800017 	ldw	r2,0(r16)
 180d9e8:	103ff826 	beq	r2,zero,180d9cc <_fstat_r+0x38>
 180d9ec:	88800015 	stw	r2,0(r17)
 180d9f0:	1805883a 	mov	r2,r3
 180d9f4:	dfc00217 	ldw	ra,8(sp)
 180d9f8:	dc400117 	ldw	r17,4(sp)
 180d9fc:	dc000017 	ldw	r16,0(sp)
 180da00:	dec00304 	addi	sp,sp,12
 180da04:	f800283a 	ret

0180da08 <_isatty_r>:
 180da08:	defffd04 	addi	sp,sp,-12
 180da0c:	dc000015 	stw	r16,0(sp)
 180da10:	04006074 	movhi	r16,385
 180da14:	841ede04 	addi	r16,r16,31608
 180da18:	dc400115 	stw	r17,4(sp)
 180da1c:	80000015 	stw	zero,0(r16)
 180da20:	2023883a 	mov	r17,r4
 180da24:	2809883a 	mov	r4,r5
 180da28:	dfc00215 	stw	ra,8(sp)
 180da2c:	180ebcc0 	call	180ebcc <isatty>
 180da30:	1007883a 	mov	r3,r2
 180da34:	00bfffc4 	movi	r2,-1
 180da38:	18800626 	beq	r3,r2,180da54 <_isatty_r+0x4c>
 180da3c:	1805883a 	mov	r2,r3
 180da40:	dfc00217 	ldw	ra,8(sp)
 180da44:	dc400117 	ldw	r17,4(sp)
 180da48:	dc000017 	ldw	r16,0(sp)
 180da4c:	dec00304 	addi	sp,sp,12
 180da50:	f800283a 	ret
 180da54:	80800017 	ldw	r2,0(r16)
 180da58:	103ff826 	beq	r2,zero,180da3c <_isatty_r+0x34>
 180da5c:	88800015 	stw	r2,0(r17)
 180da60:	1805883a 	mov	r2,r3
 180da64:	dfc00217 	ldw	ra,8(sp)
 180da68:	dc400117 	ldw	r17,4(sp)
 180da6c:	dc000017 	ldw	r16,0(sp)
 180da70:	dec00304 	addi	sp,sp,12
 180da74:	f800283a 	ret

0180da78 <_lseek_r>:
 180da78:	defffd04 	addi	sp,sp,-12
 180da7c:	dc000015 	stw	r16,0(sp)
 180da80:	04006074 	movhi	r16,385
 180da84:	841ede04 	addi	r16,r16,31608
 180da88:	dc400115 	stw	r17,4(sp)
 180da8c:	80000015 	stw	zero,0(r16)
 180da90:	2023883a 	mov	r17,r4
 180da94:	2809883a 	mov	r4,r5
 180da98:	300b883a 	mov	r5,r6
 180da9c:	380d883a 	mov	r6,r7
 180daa0:	dfc00215 	stw	ra,8(sp)
 180daa4:	180ecec0 	call	180ecec <lseek>
 180daa8:	1007883a 	mov	r3,r2
 180daac:	00bfffc4 	movi	r2,-1
 180dab0:	18800626 	beq	r3,r2,180dacc <_lseek_r+0x54>
 180dab4:	1805883a 	mov	r2,r3
 180dab8:	dfc00217 	ldw	ra,8(sp)
 180dabc:	dc400117 	ldw	r17,4(sp)
 180dac0:	dc000017 	ldw	r16,0(sp)
 180dac4:	dec00304 	addi	sp,sp,12
 180dac8:	f800283a 	ret
 180dacc:	80800017 	ldw	r2,0(r16)
 180dad0:	103ff826 	beq	r2,zero,180dab4 <_lseek_r+0x3c>
 180dad4:	88800015 	stw	r2,0(r17)
 180dad8:	1805883a 	mov	r2,r3
 180dadc:	dfc00217 	ldw	ra,8(sp)
 180dae0:	dc400117 	ldw	r17,4(sp)
 180dae4:	dc000017 	ldw	r16,0(sp)
 180dae8:	dec00304 	addi	sp,sp,12
 180daec:	f800283a 	ret

0180daf0 <_read_r>:
 180daf0:	defffd04 	addi	sp,sp,-12
 180daf4:	dc000015 	stw	r16,0(sp)
 180daf8:	04006074 	movhi	r16,385
 180dafc:	841ede04 	addi	r16,r16,31608
 180db00:	dc400115 	stw	r17,4(sp)
 180db04:	80000015 	stw	zero,0(r16)
 180db08:	2023883a 	mov	r17,r4
 180db0c:	2809883a 	mov	r4,r5
 180db10:	300b883a 	mov	r5,r6
 180db14:	380d883a 	mov	r6,r7
 180db18:	dfc00215 	stw	ra,8(sp)
 180db1c:	180eee80 	call	180eee8 <read>
 180db20:	1007883a 	mov	r3,r2
 180db24:	00bfffc4 	movi	r2,-1
 180db28:	18800626 	beq	r3,r2,180db44 <_read_r+0x54>
 180db2c:	1805883a 	mov	r2,r3
 180db30:	dfc00217 	ldw	ra,8(sp)
 180db34:	dc400117 	ldw	r17,4(sp)
 180db38:	dc000017 	ldw	r16,0(sp)
 180db3c:	dec00304 	addi	sp,sp,12
 180db40:	f800283a 	ret
 180db44:	80800017 	ldw	r2,0(r16)
 180db48:	103ff826 	beq	r2,zero,180db2c <_read_r+0x3c>
 180db4c:	88800015 	stw	r2,0(r17)
 180db50:	1805883a 	mov	r2,r3
 180db54:	dfc00217 	ldw	ra,8(sp)
 180db58:	dc400117 	ldw	r17,4(sp)
 180db5c:	dc000017 	ldw	r16,0(sp)
 180db60:	dec00304 	addi	sp,sp,12
 180db64:	f800283a 	ret

0180db68 <__udivdi3>:
 180db68:	defff004 	addi	sp,sp,-64
 180db6c:	2005883a 	mov	r2,r4
 180db70:	3011883a 	mov	r8,r6
 180db74:	df000e15 	stw	fp,56(sp)
 180db78:	dd000a15 	stw	r20,40(sp)
 180db7c:	dc000615 	stw	r16,24(sp)
 180db80:	dfc00f15 	stw	ra,60(sp)
 180db84:	ddc00d15 	stw	r23,52(sp)
 180db88:	dd800c15 	stw	r22,48(sp)
 180db8c:	dd400b15 	stw	r21,44(sp)
 180db90:	dcc00915 	stw	r19,36(sp)
 180db94:	dc800815 	stw	r18,32(sp)
 180db98:	dc400715 	stw	r17,28(sp)
 180db9c:	4021883a 	mov	r16,r8
 180dba0:	1039883a 	mov	fp,r2
 180dba4:	2829883a 	mov	r20,r5
 180dba8:	38003b1e 	bne	r7,zero,180dc98 <__udivdi3+0x130>
 180dbac:	2a005c36 	bltu	r5,r8,180dd20 <__udivdi3+0x1b8>
 180dbb0:	4000a626 	beq	r8,zero,180de4c <__udivdi3+0x2e4>
 180dbb4:	00bfffd4 	movui	r2,65535
 180dbb8:	14009e36 	bltu	r2,r16,180de34 <__udivdi3+0x2cc>
 180dbbc:	00803fc4 	movi	r2,255
 180dbc0:	14013d36 	bltu	r2,r16,180e0b8 <__udivdi3+0x550>
 180dbc4:	000b883a 	mov	r5,zero
 180dbc8:	0005883a 	mov	r2,zero
 180dbcc:	8084d83a 	srl	r2,r16,r2
 180dbd0:	01006074 	movhi	r4,385
 180dbd4:	21161904 	addi	r4,r4,22628
 180dbd8:	01800804 	movi	r6,32
 180dbdc:	1105883a 	add	r2,r2,r4
 180dbe0:	10c00003 	ldbu	r3,0(r2)
 180dbe4:	28c7883a 	add	r3,r5,r3
 180dbe8:	30edc83a 	sub	r22,r6,r3
 180dbec:	b000ee1e 	bne	r22,zero,180dfa8 <__udivdi3+0x440>
 180dbf0:	802ad43a 	srli	r21,r16,16
 180dbf4:	00800044 	movi	r2,1
 180dbf8:	a423c83a 	sub	r17,r20,r16
 180dbfc:	85ffffcc 	andi	r23,r16,65535
 180dc00:	d8800315 	stw	r2,12(sp)
 180dc04:	8809883a 	mov	r4,r17
 180dc08:	a80b883a 	mov	r5,r21
 180dc0c:	18060980 	call	1806098 <__udivsi3>
 180dc10:	8809883a 	mov	r4,r17
 180dc14:	a80b883a 	mov	r5,r21
 180dc18:	102d883a 	mov	r22,r2
 180dc1c:	18060a00 	call	18060a0 <__umodsi3>
 180dc20:	1004943a 	slli	r2,r2,16
 180dc24:	e006d43a 	srli	r3,fp,16
 180dc28:	bda3383a 	mul	r17,r23,r22
 180dc2c:	10c4b03a 	or	r2,r2,r3
 180dc30:	1440042e 	bgeu	r2,r17,180dc44 <__udivdi3+0xdc>
 180dc34:	1405883a 	add	r2,r2,r16
 180dc38:	b5bfffc4 	addi	r22,r22,-1
 180dc3c:	14000136 	bltu	r2,r16,180dc44 <__udivdi3+0xdc>
 180dc40:	14413d36 	bltu	r2,r17,180e138 <__udivdi3+0x5d0>
 180dc44:	1463c83a 	sub	r17,r2,r17
 180dc48:	8809883a 	mov	r4,r17
 180dc4c:	a80b883a 	mov	r5,r21
 180dc50:	18060980 	call	1806098 <__udivsi3>
 180dc54:	8809883a 	mov	r4,r17
 180dc58:	a80b883a 	mov	r5,r21
 180dc5c:	1029883a 	mov	r20,r2
 180dc60:	18060a00 	call	18060a0 <__umodsi3>
 180dc64:	1004943a 	slli	r2,r2,16
 180dc68:	bd09383a 	mul	r4,r23,r20
 180dc6c:	e0ffffcc 	andi	r3,fp,65535
 180dc70:	10c4b03a 	or	r2,r2,r3
 180dc74:	1100042e 	bgeu	r2,r4,180dc88 <__udivdi3+0x120>
 180dc78:	8085883a 	add	r2,r16,r2
 180dc7c:	a53fffc4 	addi	r20,r20,-1
 180dc80:	14000136 	bltu	r2,r16,180dc88 <__udivdi3+0x120>
 180dc84:	11012036 	bltu	r2,r4,180e108 <__udivdi3+0x5a0>
 180dc88:	b004943a 	slli	r2,r22,16
 180dc8c:	d9000317 	ldw	r4,12(sp)
 180dc90:	a084b03a 	or	r2,r20,r2
 180dc94:	00001506 	br	180dcec <__udivdi3+0x184>
 180dc98:	380d883a 	mov	r6,r7
 180dc9c:	29c06236 	bltu	r5,r7,180de28 <__udivdi3+0x2c0>
 180dca0:	00bfffd4 	movui	r2,65535
 180dca4:	11c05a36 	bltu	r2,r7,180de10 <__udivdi3+0x2a8>
 180dca8:	00803fc4 	movi	r2,255
 180dcac:	11c0fc36 	bltu	r2,r7,180e0a0 <__udivdi3+0x538>
 180dcb0:	000b883a 	mov	r5,zero
 180dcb4:	0005883a 	mov	r2,zero
 180dcb8:	3084d83a 	srl	r2,r6,r2
 180dcbc:	01006074 	movhi	r4,385
 180dcc0:	21161904 	addi	r4,r4,22628
 180dcc4:	01c00804 	movi	r7,32
 180dcc8:	1105883a 	add	r2,r2,r4
 180dccc:	10c00003 	ldbu	r3,0(r2)
 180dcd0:	28c7883a 	add	r3,r5,r3
 180dcd4:	38efc83a 	sub	r23,r7,r3
 180dcd8:	b800691e 	bne	r23,zero,180de80 <__udivdi3+0x318>
 180dcdc:	35000136 	bltu	r6,r20,180dce4 <__udivdi3+0x17c>
 180dce0:	e4005136 	bltu	fp,r16,180de28 <__udivdi3+0x2c0>
 180dce4:	00800044 	movi	r2,1
 180dce8:	0009883a 	mov	r4,zero
 180dcec:	2007883a 	mov	r3,r4
 180dcf0:	dfc00f17 	ldw	ra,60(sp)
 180dcf4:	df000e17 	ldw	fp,56(sp)
 180dcf8:	ddc00d17 	ldw	r23,52(sp)
 180dcfc:	dd800c17 	ldw	r22,48(sp)
 180dd00:	dd400b17 	ldw	r21,44(sp)
 180dd04:	dd000a17 	ldw	r20,40(sp)
 180dd08:	dcc00917 	ldw	r19,36(sp)
 180dd0c:	dc800817 	ldw	r18,32(sp)
 180dd10:	dc400717 	ldw	r17,28(sp)
 180dd14:	dc000617 	ldw	r16,24(sp)
 180dd18:	dec01004 	addi	sp,sp,64
 180dd1c:	f800283a 	ret
 180dd20:	00bfffd4 	movui	r2,65535
 180dd24:	12005036 	bltu	r2,r8,180de68 <__udivdi3+0x300>
 180dd28:	00803fc4 	movi	r2,255
 180dd2c:	1200e836 	bltu	r2,r8,180e0d0 <__udivdi3+0x568>
 180dd30:	000b883a 	mov	r5,zero
 180dd34:	0005883a 	mov	r2,zero
 180dd38:	8084d83a 	srl	r2,r16,r2
 180dd3c:	01006074 	movhi	r4,385
 180dd40:	21161904 	addi	r4,r4,22628
 180dd44:	01800804 	movi	r6,32
 180dd48:	1105883a 	add	r2,r2,r4
 180dd4c:	10c00003 	ldbu	r3,0(r2)
 180dd50:	28c7883a 	add	r3,r5,r3
 180dd54:	30cbc83a 	sub	r5,r6,r3
 180dd58:	28000626 	beq	r5,zero,180dd74 <__udivdi3+0x20c>
 180dd5c:	3145c83a 	sub	r2,r6,r5
 180dd60:	e084d83a 	srl	r2,fp,r2
 180dd64:	a146983a 	sll	r3,r20,r5
 180dd68:	e178983a 	sll	fp,fp,r5
 180dd6c:	8160983a 	sll	r16,r16,r5
 180dd70:	18a8b03a 	or	r20,r3,r2
 180dd74:	802ad43a 	srli	r21,r16,16
 180dd78:	a009883a 	mov	r4,r20
 180dd7c:	85ffffcc 	andi	r23,r16,65535
 180dd80:	a80b883a 	mov	r5,r21
 180dd84:	18060980 	call	1806098 <__udivsi3>
 180dd88:	a009883a 	mov	r4,r20
 180dd8c:	a80b883a 	mov	r5,r21
 180dd90:	102d883a 	mov	r22,r2
 180dd94:	18060a00 	call	18060a0 <__umodsi3>
 180dd98:	1004943a 	slli	r2,r2,16
 180dd9c:	e006d43a 	srli	r3,fp,16
 180dda0:	bda3383a 	mul	r17,r23,r22
 180dda4:	10c4b03a 	or	r2,r2,r3
 180dda8:	1440042e 	bgeu	r2,r17,180ddbc <__udivdi3+0x254>
 180ddac:	1405883a 	add	r2,r2,r16
 180ddb0:	b5bfffc4 	addi	r22,r22,-1
 180ddb4:	14000136 	bltu	r2,r16,180ddbc <__udivdi3+0x254>
 180ddb8:	1440d536 	bltu	r2,r17,180e110 <__udivdi3+0x5a8>
 180ddbc:	1463c83a 	sub	r17,r2,r17
 180ddc0:	8809883a 	mov	r4,r17
 180ddc4:	a80b883a 	mov	r5,r21
 180ddc8:	18060980 	call	1806098 <__udivsi3>
 180ddcc:	8809883a 	mov	r4,r17
 180ddd0:	a80b883a 	mov	r5,r21
 180ddd4:	1029883a 	mov	r20,r2
 180ddd8:	18060a00 	call	18060a0 <__umodsi3>
 180dddc:	1004943a 	slli	r2,r2,16
 180dde0:	bd09383a 	mul	r4,r23,r20
 180dde4:	e0ffffcc 	andi	r3,fp,65535
 180dde8:	10c4b03a 	or	r2,r2,r3
 180ddec:	1100042e 	bgeu	r2,r4,180de00 <__udivdi3+0x298>
 180ddf0:	8085883a 	add	r2,r16,r2
 180ddf4:	a53fffc4 	addi	r20,r20,-1
 180ddf8:	14000136 	bltu	r2,r16,180de00 <__udivdi3+0x298>
 180ddfc:	1100c736 	bltu	r2,r4,180e11c <__udivdi3+0x5b4>
 180de00:	b004943a 	slli	r2,r22,16
 180de04:	0009883a 	mov	r4,zero
 180de08:	a084b03a 	or	r2,r20,r2
 180de0c:	003fb706 	br	180dcec <__udivdi3+0x184>
 180de10:	00804034 	movhi	r2,256
 180de14:	10bfffc4 	addi	r2,r2,-1
 180de18:	11c0a436 	bltu	r2,r7,180e0ac <__udivdi3+0x544>
 180de1c:	01400404 	movi	r5,16
 180de20:	2805883a 	mov	r2,r5
 180de24:	003fa406 	br	180dcb8 <__udivdi3+0x150>
 180de28:	0005883a 	mov	r2,zero
 180de2c:	0009883a 	mov	r4,zero
 180de30:	003fae06 	br	180dcec <__udivdi3+0x184>
 180de34:	00804034 	movhi	r2,256
 180de38:	10bfffc4 	addi	r2,r2,-1
 180de3c:	1400a136 	bltu	r2,r16,180e0c4 <__udivdi3+0x55c>
 180de40:	01400404 	movi	r5,16
 180de44:	2805883a 	mov	r2,r5
 180de48:	003f6006 	br	180dbcc <__udivdi3+0x64>
 180de4c:	01000044 	movi	r4,1
 180de50:	000b883a 	mov	r5,zero
 180de54:	18060980 	call	1806098 <__udivsi3>
 180de58:	1021883a 	mov	r16,r2
 180de5c:	00bfffd4 	movui	r2,65535
 180de60:	143ff436 	bltu	r2,r16,180de34 <__udivdi3+0x2cc>
 180de64:	003f5506 	br	180dbbc <__udivdi3+0x54>
 180de68:	00804034 	movhi	r2,256
 180de6c:	10bfffc4 	addi	r2,r2,-1
 180de70:	12009a36 	bltu	r2,r8,180e0dc <__udivdi3+0x574>
 180de74:	01400404 	movi	r5,16
 180de78:	2805883a 	mov	r2,r5
 180de7c:	003fae06 	br	180dd38 <__udivdi3+0x1d0>
 180de80:	3dc5c83a 	sub	r2,r7,r23
 180de84:	35c8983a 	sll	r4,r6,r23
 180de88:	8086d83a 	srl	r3,r16,r2
 180de8c:	a0a2d83a 	srl	r17,r20,r2
 180de90:	e084d83a 	srl	r2,fp,r2
 180de94:	20eab03a 	or	r21,r4,r3
 180de98:	a82cd43a 	srli	r22,r21,16
 180de9c:	a5c6983a 	sll	r3,r20,r23
 180dea0:	8809883a 	mov	r4,r17
 180dea4:	b00b883a 	mov	r5,r22
 180dea8:	1886b03a 	or	r3,r3,r2
 180deac:	d8c00215 	stw	r3,8(sp)
 180deb0:	18060980 	call	1806098 <__udivsi3>
 180deb4:	8809883a 	mov	r4,r17
 180deb8:	b00b883a 	mov	r5,r22
 180debc:	1029883a 	mov	r20,r2
 180dec0:	18060a00 	call	18060a0 <__umodsi3>
 180dec4:	a8ffffcc 	andi	r3,r21,65535
 180dec8:	d8c00515 	stw	r3,20(sp)
 180decc:	d9000217 	ldw	r4,8(sp)
 180ded0:	d9400517 	ldw	r5,20(sp)
 180ded4:	1004943a 	slli	r2,r2,16
 180ded8:	2006d43a 	srli	r3,r4,16
 180dedc:	85e0983a 	sll	r16,r16,r23
 180dee0:	2d23383a 	mul	r17,r5,r20
 180dee4:	10c4b03a 	or	r2,r2,r3
 180dee8:	dc000015 	stw	r16,0(sp)
 180deec:	1440032e 	bgeu	r2,r17,180defc <__udivdi3+0x394>
 180def0:	1545883a 	add	r2,r2,r21
 180def4:	a53fffc4 	addi	r20,r20,-1
 180def8:	15407f2e 	bgeu	r2,r21,180e0f8 <__udivdi3+0x590>
 180defc:	1463c83a 	sub	r17,r2,r17
 180df00:	8809883a 	mov	r4,r17
 180df04:	b00b883a 	mov	r5,r22
 180df08:	18060980 	call	1806098 <__udivsi3>
 180df0c:	8809883a 	mov	r4,r17
 180df10:	b00b883a 	mov	r5,r22
 180df14:	1021883a 	mov	r16,r2
 180df18:	18060a00 	call	18060a0 <__umodsi3>
 180df1c:	d8c00517 	ldw	r3,20(sp)
 180df20:	d9000217 	ldw	r4,8(sp)
 180df24:	1004943a 	slli	r2,r2,16
 180df28:	1c0f383a 	mul	r7,r3,r16
 180df2c:	20ffffcc 	andi	r3,r4,65535
 180df30:	10e2b03a 	or	r17,r2,r3
 180df34:	89c0032e 	bgeu	r17,r7,180df44 <__udivdi3+0x3dc>
 180df38:	8d63883a 	add	r17,r17,r21
 180df3c:	843fffc4 	addi	r16,r16,-1
 180df40:	8d40692e 	bgeu	r17,r21,180e0e8 <__udivdi3+0x580>
 180df44:	a008943a 	slli	r4,r20,16
 180df48:	d9400017 	ldw	r5,0(sp)
 180df4c:	89e3c83a 	sub	r17,r17,r7
 180df50:	8110b03a 	or	r8,r16,r4
 180df54:	280cd43a 	srli	r6,r5,16
 180df58:	28ffffcc 	andi	r3,r5,65535
 180df5c:	40bfffcc 	andi	r2,r8,65535
 180df60:	400ad43a 	srli	r5,r8,16
 180df64:	10d3383a 	mul	r9,r2,r3
 180df68:	1185383a 	mul	r2,r2,r6
 180df6c:	28c7383a 	mul	r3,r5,r3
 180df70:	4808d43a 	srli	r4,r9,16
 180df74:	298b383a 	mul	r5,r5,r6
 180df78:	10c5883a 	add	r2,r2,r3
 180df7c:	2089883a 	add	r4,r4,r2
 180df80:	20c0022e 	bgeu	r4,r3,180df8c <__udivdi3+0x424>
 180df84:	00800074 	movhi	r2,1
 180df88:	288b883a 	add	r5,r5,r2
 180df8c:	2004d43a 	srli	r2,r4,16
 180df90:	288b883a 	add	r5,r5,r2
 180df94:	89403f36 	bltu	r17,r5,180e094 <__udivdi3+0x52c>
 180df98:	89403926 	beq	r17,r5,180e080 <__udivdi3+0x518>
 180df9c:	4005883a 	mov	r2,r8
 180dfa0:	0009883a 	mov	r4,zero
 180dfa4:	003f5106 	br	180dcec <__udivdi3+0x184>
 180dfa8:	85a0983a 	sll	r16,r16,r22
 180dfac:	3585c83a 	sub	r2,r6,r22
 180dfb0:	a0a2d83a 	srl	r17,r20,r2
 180dfb4:	802ad43a 	srli	r21,r16,16
 180dfb8:	e084d83a 	srl	r2,fp,r2
 180dfbc:	a586983a 	sll	r3,r20,r22
 180dfc0:	8809883a 	mov	r4,r17
 180dfc4:	a80b883a 	mov	r5,r21
 180dfc8:	1886b03a 	or	r3,r3,r2
 180dfcc:	d8c00115 	stw	r3,4(sp)
 180dfd0:	18060980 	call	1806098 <__udivsi3>
 180dfd4:	8809883a 	mov	r4,r17
 180dfd8:	a80b883a 	mov	r5,r21
 180dfdc:	d8800415 	stw	r2,16(sp)
 180dfe0:	18060a00 	call	18060a0 <__umodsi3>
 180dfe4:	d9000117 	ldw	r4,4(sp)
 180dfe8:	d9400417 	ldw	r5,16(sp)
 180dfec:	1004943a 	slli	r2,r2,16
 180dff0:	85ffffcc 	andi	r23,r16,65535
 180dff4:	2006d43a 	srli	r3,r4,16
 180dff8:	b963383a 	mul	r17,r23,r5
 180dffc:	10c4b03a 	or	r2,r2,r3
 180e000:	1440042e 	bgeu	r2,r17,180e014 <__udivdi3+0x4ac>
 180e004:	297fffc4 	addi	r5,r5,-1
 180e008:	1405883a 	add	r2,r2,r16
 180e00c:	d9400415 	stw	r5,16(sp)
 180e010:	1400442e 	bgeu	r2,r16,180e124 <__udivdi3+0x5bc>
 180e014:	1463c83a 	sub	r17,r2,r17
 180e018:	8809883a 	mov	r4,r17
 180e01c:	a80b883a 	mov	r5,r21
 180e020:	18060980 	call	1806098 <__udivsi3>
 180e024:	8809883a 	mov	r4,r17
 180e028:	a80b883a 	mov	r5,r21
 180e02c:	1029883a 	mov	r20,r2
 180e030:	18060a00 	call	18060a0 <__umodsi3>
 180e034:	d9400117 	ldw	r5,4(sp)
 180e038:	1004943a 	slli	r2,r2,16
 180e03c:	bd09383a 	mul	r4,r23,r20
 180e040:	28ffffcc 	andi	r3,r5,65535
 180e044:	10c6b03a 	or	r3,r2,r3
 180e048:	1900062e 	bgeu	r3,r4,180e064 <__udivdi3+0x4fc>
 180e04c:	1c07883a 	add	r3,r3,r16
 180e050:	a53fffc4 	addi	r20,r20,-1
 180e054:	1c000336 	bltu	r3,r16,180e064 <__udivdi3+0x4fc>
 180e058:	1900022e 	bgeu	r3,r4,180e064 <__udivdi3+0x4fc>
 180e05c:	a53fffc4 	addi	r20,r20,-1
 180e060:	1c07883a 	add	r3,r3,r16
 180e064:	d9400417 	ldw	r5,16(sp)
 180e068:	e5b8983a 	sll	fp,fp,r22
 180e06c:	1923c83a 	sub	r17,r3,r4
 180e070:	2804943a 	slli	r2,r5,16
 180e074:	a0a8b03a 	or	r20,r20,r2
 180e078:	dd000315 	stw	r20,12(sp)
 180e07c:	003ee106 	br	180dc04 <__udivdi3+0x9c>
 180e080:	2004943a 	slli	r2,r4,16
 180e084:	e5c8983a 	sll	r4,fp,r23
 180e088:	48ffffcc 	andi	r3,r9,65535
 180e08c:	10c5883a 	add	r2,r2,r3
 180e090:	20bfc22e 	bgeu	r4,r2,180df9c <__udivdi3+0x434>
 180e094:	40bfffc4 	addi	r2,r8,-1
 180e098:	0009883a 	mov	r4,zero
 180e09c:	003f1306 	br	180dcec <__udivdi3+0x184>
 180e0a0:	01400204 	movi	r5,8
 180e0a4:	2805883a 	mov	r2,r5
 180e0a8:	003f0306 	br	180dcb8 <__udivdi3+0x150>
 180e0ac:	01400604 	movi	r5,24
 180e0b0:	2805883a 	mov	r2,r5
 180e0b4:	003f0006 	br	180dcb8 <__udivdi3+0x150>
 180e0b8:	01400204 	movi	r5,8
 180e0bc:	2805883a 	mov	r2,r5
 180e0c0:	003ec206 	br	180dbcc <__udivdi3+0x64>
 180e0c4:	01400604 	movi	r5,24
 180e0c8:	2805883a 	mov	r2,r5
 180e0cc:	003ebf06 	br	180dbcc <__udivdi3+0x64>
 180e0d0:	01400204 	movi	r5,8
 180e0d4:	2805883a 	mov	r2,r5
 180e0d8:	003f1706 	br	180dd38 <__udivdi3+0x1d0>
 180e0dc:	01400604 	movi	r5,24
 180e0e0:	2805883a 	mov	r2,r5
 180e0e4:	003f1406 	br	180dd38 <__udivdi3+0x1d0>
 180e0e8:	89ff962e 	bgeu	r17,r7,180df44 <__udivdi3+0x3dc>
 180e0ec:	8d63883a 	add	r17,r17,r21
 180e0f0:	843fffc4 	addi	r16,r16,-1
 180e0f4:	003f9306 	br	180df44 <__udivdi3+0x3dc>
 180e0f8:	147f802e 	bgeu	r2,r17,180defc <__udivdi3+0x394>
 180e0fc:	a53fffc4 	addi	r20,r20,-1
 180e100:	1545883a 	add	r2,r2,r21
 180e104:	003f7d06 	br	180defc <__udivdi3+0x394>
 180e108:	a53fffc4 	addi	r20,r20,-1
 180e10c:	003ede06 	br	180dc88 <__udivdi3+0x120>
 180e110:	b5bfffc4 	addi	r22,r22,-1
 180e114:	1405883a 	add	r2,r2,r16
 180e118:	003f2806 	br	180ddbc <__udivdi3+0x254>
 180e11c:	a53fffc4 	addi	r20,r20,-1
 180e120:	003f3706 	br	180de00 <__udivdi3+0x298>
 180e124:	147fbb2e 	bgeu	r2,r17,180e014 <__udivdi3+0x4ac>
 180e128:	297fffc4 	addi	r5,r5,-1
 180e12c:	1405883a 	add	r2,r2,r16
 180e130:	d9400415 	stw	r5,16(sp)
 180e134:	003fb706 	br	180e014 <__udivdi3+0x4ac>
 180e138:	b5bfffc4 	addi	r22,r22,-1
 180e13c:	1405883a 	add	r2,r2,r16
 180e140:	003ec006 	br	180dc44 <__udivdi3+0xdc>

0180e144 <__umoddi3>:
 180e144:	defff104 	addi	sp,sp,-60
 180e148:	dd800b15 	stw	r22,44(sp)
 180e14c:	dd000915 	stw	r20,36(sp)
 180e150:	dc000515 	stw	r16,20(sp)
 180e154:	dfc00e15 	stw	ra,56(sp)
 180e158:	df000d15 	stw	fp,52(sp)
 180e15c:	ddc00c15 	stw	r23,48(sp)
 180e160:	dd400a15 	stw	r21,40(sp)
 180e164:	dcc00815 	stw	r19,32(sp)
 180e168:	dc800715 	stw	r18,28(sp)
 180e16c:	dc400615 	stw	r17,24(sp)
 180e170:	3021883a 	mov	r16,r6
 180e174:	202d883a 	mov	r22,r4
 180e178:	2829883a 	mov	r20,r5
 180e17c:	38002b1e 	bne	r7,zero,180e22c <__umoddi3+0xe8>
 180e180:	29805036 	bltu	r5,r6,180e2c4 <__umoddi3+0x180>
 180e184:	30008a26 	beq	r6,zero,180e3b0 <__umoddi3+0x26c>
 180e188:	00bfffd4 	movui	r2,65535
 180e18c:	14008236 	bltu	r2,r16,180e398 <__umoddi3+0x254>
 180e190:	00803fc4 	movi	r2,255
 180e194:	14013636 	bltu	r2,r16,180e670 <__umoddi3+0x52c>
 180e198:	000b883a 	mov	r5,zero
 180e19c:	0005883a 	mov	r2,zero
 180e1a0:	8084d83a 	srl	r2,r16,r2
 180e1a4:	01006074 	movhi	r4,385
 180e1a8:	21161904 	addi	r4,r4,22628
 180e1ac:	01800804 	movi	r6,32
 180e1b0:	1105883a 	add	r2,r2,r4
 180e1b4:	10c00003 	ldbu	r3,0(r2)
 180e1b8:	28c7883a 	add	r3,r5,r3
 180e1bc:	30efc83a 	sub	r23,r6,r3
 180e1c0:	b800941e 	bne	r23,zero,180e414 <__umoddi3+0x2d0>
 180e1c4:	802ad43a 	srli	r21,r16,16
 180e1c8:	a423c83a 	sub	r17,r20,r16
 180e1cc:	0039883a 	mov	fp,zero
 180e1d0:	853fffcc 	andi	r20,r16,65535
 180e1d4:	8809883a 	mov	r4,r17
 180e1d8:	a80b883a 	mov	r5,r21
 180e1dc:	18060980 	call	1806098 <__udivsi3>
 180e1e0:	8809883a 	mov	r4,r17
 180e1e4:	a80b883a 	mov	r5,r21
 180e1e8:	a0a3383a 	mul	r17,r20,r2
 180e1ec:	18060a00 	call	18060a0 <__umodsi3>
 180e1f0:	1004943a 	slli	r2,r2,16
 180e1f4:	b006d43a 	srli	r3,r22,16
 180e1f8:	10c4b03a 	or	r2,r2,r3
 180e1fc:	1440032e 	bgeu	r2,r17,180e20c <__umoddi3+0xc8>
 180e200:	1405883a 	add	r2,r2,r16
 180e204:	14000136 	bltu	r2,r16,180e20c <__umoddi3+0xc8>
 180e208:	14413536 	bltu	r2,r17,180e6e0 <__umoddi3+0x59c>
 180e20c:	1463c83a 	sub	r17,r2,r17
 180e210:	8809883a 	mov	r4,r17
 180e214:	a80b883a 	mov	r5,r21
 180e218:	18060980 	call	1806098 <__udivsi3>
 180e21c:	8809883a 	mov	r4,r17
 180e220:	a0a3383a 	mul	r17,r20,r2
 180e224:	a80b883a 	mov	r5,r21
 180e228:	00004d06 	br	180e360 <__umoddi3+0x21c>
 180e22c:	380d883a 	mov	r6,r7
 180e230:	29c0102e 	bgeu	r5,r7,180e274 <__umoddi3+0x130>
 180e234:	2011883a 	mov	r8,r4
 180e238:	2813883a 	mov	r9,r5
 180e23c:	4005883a 	mov	r2,r8
 180e240:	4807883a 	mov	r3,r9
 180e244:	dfc00e17 	ldw	ra,56(sp)
 180e248:	df000d17 	ldw	fp,52(sp)
 180e24c:	ddc00c17 	ldw	r23,48(sp)
 180e250:	dd800b17 	ldw	r22,44(sp)
 180e254:	dd400a17 	ldw	r21,40(sp)
 180e258:	dd000917 	ldw	r20,36(sp)
 180e25c:	dcc00817 	ldw	r19,32(sp)
 180e260:	dc800717 	ldw	r18,28(sp)
 180e264:	dc400617 	ldw	r17,24(sp)
 180e268:	dc000517 	ldw	r16,20(sp)
 180e26c:	dec00f04 	addi	sp,sp,60
 180e270:	f800283a 	ret
 180e274:	00bfffd4 	movui	r2,65535
 180e278:	11c05a36 	bltu	r2,r7,180e3e4 <__umoddi3+0x2a0>
 180e27c:	00803fc4 	movi	r2,255
 180e280:	11c0fe36 	bltu	r2,r7,180e67c <__umoddi3+0x538>
 180e284:	000b883a 	mov	r5,zero
 180e288:	0005883a 	mov	r2,zero
 180e28c:	3084d83a 	srl	r2,r6,r2
 180e290:	01006074 	movhi	r4,385
 180e294:	21161904 	addi	r4,r4,22628
 180e298:	01c00804 	movi	r7,32
 180e29c:	1105883a 	add	r2,r2,r4
 180e2a0:	10c00003 	ldbu	r3,0(r2)
 180e2a4:	28c7883a 	add	r3,r5,r3
 180e2a8:	38ebc83a 	sub	r21,r7,r3
 180e2ac:	a800851e 	bne	r21,zero,180e4c4 <__umoddi3+0x380>
 180e2b0:	35005236 	bltu	r6,r20,180e3fc <__umoddi3+0x2b8>
 180e2b4:	b400512e 	bgeu	r22,r16,180e3fc <__umoddi3+0x2b8>
 180e2b8:	b011883a 	mov	r8,r22
 180e2bc:	a013883a 	mov	r9,r20
 180e2c0:	003fde06 	br	180e23c <__umoddi3+0xf8>
 180e2c4:	00bfffd4 	movui	r2,65535
 180e2c8:	11804036 	bltu	r2,r6,180e3cc <__umoddi3+0x288>
 180e2cc:	00803fc4 	movi	r2,255
 180e2d0:	1180ed36 	bltu	r2,r6,180e688 <__umoddi3+0x544>
 180e2d4:	000b883a 	mov	r5,zero
 180e2d8:	0005883a 	mov	r2,zero
 180e2dc:	8084d83a 	srl	r2,r16,r2
 180e2e0:	01006074 	movhi	r4,385
 180e2e4:	21161904 	addi	r4,r4,22628
 180e2e8:	01800804 	movi	r6,32
 180e2ec:	1105883a 	add	r2,r2,r4
 180e2f0:	10c00003 	ldbu	r3,0(r2)
 180e2f4:	28c7883a 	add	r3,r5,r3
 180e2f8:	30c7c83a 	sub	r3,r6,r3
 180e2fc:	1800bf1e 	bne	r3,zero,180e5fc <__umoddi3+0x4b8>
 180e300:	0039883a 	mov	fp,zero
 180e304:	802ad43a 	srli	r21,r16,16
 180e308:	a009883a 	mov	r4,r20
 180e30c:	85ffffcc 	andi	r23,r16,65535
 180e310:	a80b883a 	mov	r5,r21
 180e314:	18060980 	call	1806098 <__udivsi3>
 180e318:	a009883a 	mov	r4,r20
 180e31c:	a80b883a 	mov	r5,r21
 180e320:	b8a3383a 	mul	r17,r23,r2
 180e324:	18060a00 	call	18060a0 <__umodsi3>
 180e328:	1004943a 	slli	r2,r2,16
 180e32c:	b006d43a 	srli	r3,r22,16
 180e330:	10c4b03a 	or	r2,r2,r3
 180e334:	1440032e 	bgeu	r2,r17,180e344 <__umoddi3+0x200>
 180e338:	1405883a 	add	r2,r2,r16
 180e33c:	14000136 	bltu	r2,r16,180e344 <__umoddi3+0x200>
 180e340:	1440e536 	bltu	r2,r17,180e6d8 <__umoddi3+0x594>
 180e344:	1463c83a 	sub	r17,r2,r17
 180e348:	8809883a 	mov	r4,r17
 180e34c:	a80b883a 	mov	r5,r21
 180e350:	18060980 	call	1806098 <__udivsi3>
 180e354:	8809883a 	mov	r4,r17
 180e358:	b8a3383a 	mul	r17,r23,r2
 180e35c:	a80b883a 	mov	r5,r21
 180e360:	18060a00 	call	18060a0 <__umodsi3>
 180e364:	1004943a 	slli	r2,r2,16
 180e368:	b0ffffcc 	andi	r3,r22,65535
 180e36c:	10c4b03a 	or	r2,r2,r3
 180e370:	1440042e 	bgeu	r2,r17,180e384 <__umoddi3+0x240>
 180e374:	1405883a 	add	r2,r2,r16
 180e378:	14000236 	bltu	r2,r16,180e384 <__umoddi3+0x240>
 180e37c:	1440012e 	bgeu	r2,r17,180e384 <__umoddi3+0x240>
 180e380:	1405883a 	add	r2,r2,r16
 180e384:	1445c83a 	sub	r2,r2,r17
 180e388:	1724d83a 	srl	r18,r2,fp
 180e38c:	0013883a 	mov	r9,zero
 180e390:	9011883a 	mov	r8,r18
 180e394:	003fa906 	br	180e23c <__umoddi3+0xf8>
 180e398:	00804034 	movhi	r2,256
 180e39c:	10bfffc4 	addi	r2,r2,-1
 180e3a0:	1400b036 	bltu	r2,r16,180e664 <__umoddi3+0x520>
 180e3a4:	01400404 	movi	r5,16
 180e3a8:	2805883a 	mov	r2,r5
 180e3ac:	003f7c06 	br	180e1a0 <__umoddi3+0x5c>
 180e3b0:	01000044 	movi	r4,1
 180e3b4:	000b883a 	mov	r5,zero
 180e3b8:	18060980 	call	1806098 <__udivsi3>
 180e3bc:	1021883a 	mov	r16,r2
 180e3c0:	00bfffd4 	movui	r2,65535
 180e3c4:	143ff436 	bltu	r2,r16,180e398 <__umoddi3+0x254>
 180e3c8:	003f7106 	br	180e190 <__umoddi3+0x4c>
 180e3cc:	00804034 	movhi	r2,256
 180e3d0:	10bfffc4 	addi	r2,r2,-1
 180e3d4:	1180af36 	bltu	r2,r6,180e694 <__umoddi3+0x550>
 180e3d8:	01400404 	movi	r5,16
 180e3dc:	2805883a 	mov	r2,r5
 180e3e0:	003fbe06 	br	180e2dc <__umoddi3+0x198>
 180e3e4:	00804034 	movhi	r2,256
 180e3e8:	10bfffc4 	addi	r2,r2,-1
 180e3ec:	11c0ac36 	bltu	r2,r7,180e6a0 <__umoddi3+0x55c>
 180e3f0:	01400404 	movi	r5,16
 180e3f4:	2805883a 	mov	r2,r5
 180e3f8:	003fa406 	br	180e28c <__umoddi3+0x148>
 180e3fc:	b409c83a 	sub	r4,r22,r16
 180e400:	b105803a 	cmpltu	r2,r22,r4
 180e404:	a187c83a 	sub	r3,r20,r6
 180e408:	18a9c83a 	sub	r20,r3,r2
 180e40c:	202d883a 	mov	r22,r4
 180e410:	003fa906 	br	180e2b8 <__umoddi3+0x174>
 180e414:	85e0983a 	sll	r16,r16,r23
 180e418:	35c5c83a 	sub	r2,r6,r23
 180e41c:	a0a2d83a 	srl	r17,r20,r2
 180e420:	802ad43a 	srli	r21,r16,16
 180e424:	b084d83a 	srl	r2,r22,r2
 180e428:	a5c6983a 	sll	r3,r20,r23
 180e42c:	8809883a 	mov	r4,r17
 180e430:	a80b883a 	mov	r5,r21
 180e434:	1886b03a 	or	r3,r3,r2
 180e438:	d8c00115 	stw	r3,4(sp)
 180e43c:	853fffcc 	andi	r20,r16,65535
 180e440:	18060980 	call	1806098 <__udivsi3>
 180e444:	8809883a 	mov	r4,r17
 180e448:	a80b883a 	mov	r5,r21
 180e44c:	a0a3383a 	mul	r17,r20,r2
 180e450:	18060a00 	call	18060a0 <__umodsi3>
 180e454:	d9000117 	ldw	r4,4(sp)
 180e458:	1004943a 	slli	r2,r2,16
 180e45c:	b839883a 	mov	fp,r23
 180e460:	2006d43a 	srli	r3,r4,16
 180e464:	10c4b03a 	or	r2,r2,r3
 180e468:	1440022e 	bgeu	r2,r17,180e474 <__umoddi3+0x330>
 180e46c:	1405883a 	add	r2,r2,r16
 180e470:	1400962e 	bgeu	r2,r16,180e6cc <__umoddi3+0x588>
 180e474:	1463c83a 	sub	r17,r2,r17
 180e478:	8809883a 	mov	r4,r17
 180e47c:	a80b883a 	mov	r5,r21
 180e480:	18060980 	call	1806098 <__udivsi3>
 180e484:	8809883a 	mov	r4,r17
 180e488:	a80b883a 	mov	r5,r21
 180e48c:	a0a3383a 	mul	r17,r20,r2
 180e490:	18060a00 	call	18060a0 <__umodsi3>
 180e494:	d9400117 	ldw	r5,4(sp)
 180e498:	1004943a 	slli	r2,r2,16
 180e49c:	28ffffcc 	andi	r3,r5,65535
 180e4a0:	10c4b03a 	or	r2,r2,r3
 180e4a4:	1440042e 	bgeu	r2,r17,180e4b8 <__umoddi3+0x374>
 180e4a8:	1405883a 	add	r2,r2,r16
 180e4ac:	14000236 	bltu	r2,r16,180e4b8 <__umoddi3+0x374>
 180e4b0:	1440012e 	bgeu	r2,r17,180e4b8 <__umoddi3+0x374>
 180e4b4:	1405883a 	add	r2,r2,r16
 180e4b8:	b5ec983a 	sll	r22,r22,r23
 180e4bc:	1463c83a 	sub	r17,r2,r17
 180e4c0:	003f4406 	br	180e1d4 <__umoddi3+0x90>
 180e4c4:	3d4fc83a 	sub	r7,r7,r21
 180e4c8:	3546983a 	sll	r3,r6,r21
 180e4cc:	81c4d83a 	srl	r2,r16,r7
 180e4d0:	a1e2d83a 	srl	r17,r20,r7
 180e4d4:	a54c983a 	sll	r6,r20,r21
 180e4d8:	18aeb03a 	or	r23,r3,r2
 180e4dc:	b828d43a 	srli	r20,r23,16
 180e4e0:	b1c4d83a 	srl	r2,r22,r7
 180e4e4:	8809883a 	mov	r4,r17
 180e4e8:	a00b883a 	mov	r5,r20
 180e4ec:	308cb03a 	or	r6,r6,r2
 180e4f0:	d9c00315 	stw	r7,12(sp)
 180e4f4:	d9800215 	stw	r6,8(sp)
 180e4f8:	18060980 	call	1806098 <__udivsi3>
 180e4fc:	8809883a 	mov	r4,r17
 180e500:	a00b883a 	mov	r5,r20
 180e504:	1039883a 	mov	fp,r2
 180e508:	18060a00 	call	18060a0 <__umodsi3>
 180e50c:	b8ffffcc 	andi	r3,r23,65535
 180e510:	d8c00415 	stw	r3,16(sp)
 180e514:	d9000217 	ldw	r4,8(sp)
 180e518:	d9400417 	ldw	r5,16(sp)
 180e51c:	1004943a 	slli	r2,r2,16
 180e520:	2006d43a 	srli	r3,r4,16
 180e524:	8560983a 	sll	r16,r16,r21
 180e528:	2f23383a 	mul	r17,r5,fp
 180e52c:	10c4b03a 	or	r2,r2,r3
 180e530:	dc000015 	stw	r16,0(sp)
 180e534:	b56c983a 	sll	r22,r22,r21
 180e538:	1440032e 	bgeu	r2,r17,180e548 <__umoddi3+0x404>
 180e53c:	15c5883a 	add	r2,r2,r23
 180e540:	e73fffc4 	addi	fp,fp,-1
 180e544:	15c05d2e 	bgeu	r2,r23,180e6bc <__umoddi3+0x578>
 180e548:	1463c83a 	sub	r17,r2,r17
 180e54c:	8809883a 	mov	r4,r17
 180e550:	a00b883a 	mov	r5,r20
 180e554:	18060980 	call	1806098 <__udivsi3>
 180e558:	8809883a 	mov	r4,r17
 180e55c:	a00b883a 	mov	r5,r20
 180e560:	1021883a 	mov	r16,r2
 180e564:	18060a00 	call	18060a0 <__umodsi3>
 180e568:	d8c00417 	ldw	r3,16(sp)
 180e56c:	d9000217 	ldw	r4,8(sp)
 180e570:	1004943a 	slli	r2,r2,16
 180e574:	1c23383a 	mul	r17,r3,r16
 180e578:	20ffffcc 	andi	r3,r4,65535
 180e57c:	10ceb03a 	or	r7,r2,r3
 180e580:	3c40032e 	bgeu	r7,r17,180e590 <__umoddi3+0x44c>
 180e584:	3dcf883a 	add	r7,r7,r23
 180e588:	843fffc4 	addi	r16,r16,-1
 180e58c:	3dc0472e 	bgeu	r7,r23,180e6ac <__umoddi3+0x568>
 180e590:	e004943a 	slli	r2,fp,16
 180e594:	d9400017 	ldw	r5,0(sp)
 180e598:	3c4fc83a 	sub	r7,r7,r17
 180e59c:	8084b03a 	or	r2,r16,r2
 180e5a0:	28ffffcc 	andi	r3,r5,65535
 180e5a4:	280cd43a 	srli	r6,r5,16
 180e5a8:	100ad43a 	srli	r5,r2,16
 180e5ac:	10bfffcc 	andi	r2,r2,65535
 180e5b0:	10d1383a 	mul	r8,r2,r3
 180e5b4:	28c7383a 	mul	r3,r5,r3
 180e5b8:	1185383a 	mul	r2,r2,r6
 180e5bc:	4008d43a 	srli	r4,r8,16
 180e5c0:	298b383a 	mul	r5,r5,r6
 180e5c4:	10c5883a 	add	r2,r2,r3
 180e5c8:	2089883a 	add	r4,r4,r2
 180e5cc:	20c0022e 	bgeu	r4,r3,180e5d8 <__umoddi3+0x494>
 180e5d0:	00800074 	movhi	r2,1
 180e5d4:	288b883a 	add	r5,r5,r2
 180e5d8:	2004d43a 	srli	r2,r4,16
 180e5dc:	2008943a 	slli	r4,r4,16
 180e5e0:	40ffffcc 	andi	r3,r8,65535
 180e5e4:	288b883a 	add	r5,r5,r2
 180e5e8:	20c9883a 	add	r4,r4,r3
 180e5ec:	39400b36 	bltu	r7,r5,180e61c <__umoddi3+0x4d8>
 180e5f0:	39403d26 	beq	r7,r5,180e6e8 <__umoddi3+0x5a4>
 180e5f4:	394bc83a 	sub	r5,r7,r5
 180e5f8:	00000f06 	br	180e638 <__umoddi3+0x4f4>
 180e5fc:	30c5c83a 	sub	r2,r6,r3
 180e600:	1839883a 	mov	fp,r3
 180e604:	b084d83a 	srl	r2,r22,r2
 180e608:	a0c6983a 	sll	r3,r20,r3
 180e60c:	8720983a 	sll	r16,r16,fp
 180e610:	b72c983a 	sll	r22,r22,fp
 180e614:	18a8b03a 	or	r20,r3,r2
 180e618:	003f3a06 	br	180e304 <__umoddi3+0x1c0>
 180e61c:	d8c00017 	ldw	r3,0(sp)
 180e620:	20c5c83a 	sub	r2,r4,r3
 180e624:	2089803a 	cmpltu	r4,r4,r2
 180e628:	2dc7c83a 	sub	r3,r5,r23
 180e62c:	1907c83a 	sub	r3,r3,r4
 180e630:	38cbc83a 	sub	r5,r7,r3
 180e634:	1009883a 	mov	r4,r2
 180e638:	b105c83a 	sub	r2,r22,r4
 180e63c:	b087803a 	cmpltu	r3,r22,r2
 180e640:	28c7c83a 	sub	r3,r5,r3
 180e644:	d9400317 	ldw	r5,12(sp)
 180e648:	1544d83a 	srl	r2,r2,r21
 180e64c:	1948983a 	sll	r4,r3,r5
 180e650:	1d46d83a 	srl	r3,r3,r21
 180e654:	20a4b03a 	or	r18,r4,r2
 180e658:	9011883a 	mov	r8,r18
 180e65c:	1813883a 	mov	r9,r3
 180e660:	003ef606 	br	180e23c <__umoddi3+0xf8>
 180e664:	01400604 	movi	r5,24
 180e668:	2805883a 	mov	r2,r5
 180e66c:	003ecc06 	br	180e1a0 <__umoddi3+0x5c>
 180e670:	01400204 	movi	r5,8
 180e674:	2805883a 	mov	r2,r5
 180e678:	003ec906 	br	180e1a0 <__umoddi3+0x5c>
 180e67c:	01400204 	movi	r5,8
 180e680:	2805883a 	mov	r2,r5
 180e684:	003f0106 	br	180e28c <__umoddi3+0x148>
 180e688:	01400204 	movi	r5,8
 180e68c:	2805883a 	mov	r2,r5
 180e690:	003f1206 	br	180e2dc <__umoddi3+0x198>
 180e694:	01400604 	movi	r5,24
 180e698:	2805883a 	mov	r2,r5
 180e69c:	003f0f06 	br	180e2dc <__umoddi3+0x198>
 180e6a0:	01400604 	movi	r5,24
 180e6a4:	2805883a 	mov	r2,r5
 180e6a8:	003ef806 	br	180e28c <__umoddi3+0x148>
 180e6ac:	3c7fb82e 	bgeu	r7,r17,180e590 <__umoddi3+0x44c>
 180e6b0:	843fffc4 	addi	r16,r16,-1
 180e6b4:	3dcf883a 	add	r7,r7,r23
 180e6b8:	003fb506 	br	180e590 <__umoddi3+0x44c>
 180e6bc:	147fa22e 	bgeu	r2,r17,180e548 <__umoddi3+0x404>
 180e6c0:	e73fffc4 	addi	fp,fp,-1
 180e6c4:	15c5883a 	add	r2,r2,r23
 180e6c8:	003f9f06 	br	180e548 <__umoddi3+0x404>
 180e6cc:	147f692e 	bgeu	r2,r17,180e474 <__umoddi3+0x330>
 180e6d0:	1405883a 	add	r2,r2,r16
 180e6d4:	003f6706 	br	180e474 <__umoddi3+0x330>
 180e6d8:	1405883a 	add	r2,r2,r16
 180e6dc:	003f1906 	br	180e344 <__umoddi3+0x200>
 180e6e0:	1405883a 	add	r2,r2,r16
 180e6e4:	003ec906 	br	180e20c <__umoddi3+0xc8>
 180e6e8:	b13fcc36 	bltu	r22,r4,180e61c <__umoddi3+0x4d8>
 180e6ec:	000b883a 	mov	r5,zero
 180e6f0:	003fd106 	br	180e638 <__umoddi3+0x4f4>

0180e6f4 <__nedf2>:
 180e6f4:	deffef04 	addi	sp,sp,-68
 180e6f8:	dc400f15 	stw	r17,60(sp)
 180e6fc:	dc400404 	addi	r17,sp,16
 180e700:	2005883a 	mov	r2,r4
 180e704:	2807883a 	mov	r3,r5
 180e708:	dc000e15 	stw	r16,56(sp)
 180e70c:	d809883a 	mov	r4,sp
 180e710:	880b883a 	mov	r5,r17
 180e714:	dc000904 	addi	r16,sp,36
 180e718:	d8c00115 	stw	r3,4(sp)
 180e71c:	d8800015 	stw	r2,0(sp)
 180e720:	d9800215 	stw	r6,8(sp)
 180e724:	dfc01015 	stw	ra,64(sp)
 180e728:	d9c00315 	stw	r7,12(sp)
 180e72c:	18067280 	call	1806728 <__unpack_d>
 180e730:	d9000204 	addi	r4,sp,8
 180e734:	800b883a 	mov	r5,r16
 180e738:	18067280 	call	1806728 <__unpack_d>
 180e73c:	d8800417 	ldw	r2,16(sp)
 180e740:	00c00044 	movi	r3,1
 180e744:	180d883a 	mov	r6,r3
 180e748:	1880062e 	bgeu	r3,r2,180e764 <__nedf2+0x70>
 180e74c:	d8800917 	ldw	r2,36(sp)
 180e750:	8809883a 	mov	r4,r17
 180e754:	800b883a 	mov	r5,r16
 180e758:	1880022e 	bgeu	r3,r2,180e764 <__nedf2+0x70>
 180e75c:	18068600 	call	1806860 <__fpcmp_parts_d>
 180e760:	100d883a 	mov	r6,r2
 180e764:	3005883a 	mov	r2,r6
 180e768:	dfc01017 	ldw	ra,64(sp)
 180e76c:	dc400f17 	ldw	r17,60(sp)
 180e770:	dc000e17 	ldw	r16,56(sp)
 180e774:	dec01104 	addi	sp,sp,68
 180e778:	f800283a 	ret

0180e77c <__floatunsidf>:
 180e77c:	defff204 	addi	sp,sp,-56
 180e780:	dfc00d15 	stw	ra,52(sp)
 180e784:	ddc00c15 	stw	r23,48(sp)
 180e788:	dd800b15 	stw	r22,44(sp)
 180e78c:	dd400a15 	stw	r21,40(sp)
 180e790:	dd000915 	stw	r20,36(sp)
 180e794:	dcc00815 	stw	r19,32(sp)
 180e798:	dc800715 	stw	r18,28(sp)
 180e79c:	dc400615 	stw	r17,24(sp)
 180e7a0:	dc000515 	stw	r16,20(sp)
 180e7a4:	d8000115 	stw	zero,4(sp)
 180e7a8:	20000f1e 	bne	r4,zero,180e7e8 <__floatunsidf+0x6c>
 180e7ac:	00800084 	movi	r2,2
 180e7b0:	d8800015 	stw	r2,0(sp)
 180e7b4:	d809883a 	mov	r4,sp
 180e7b8:	18064140 	call	1806414 <__pack_d>
 180e7bc:	dfc00d17 	ldw	ra,52(sp)
 180e7c0:	ddc00c17 	ldw	r23,48(sp)
 180e7c4:	dd800b17 	ldw	r22,44(sp)
 180e7c8:	dd400a17 	ldw	r21,40(sp)
 180e7cc:	dd000917 	ldw	r20,36(sp)
 180e7d0:	dcc00817 	ldw	r19,32(sp)
 180e7d4:	dc800717 	ldw	r18,28(sp)
 180e7d8:	dc400617 	ldw	r17,24(sp)
 180e7dc:	dc000517 	ldw	r16,20(sp)
 180e7e0:	dec00e04 	addi	sp,sp,56
 180e7e4:	f800283a 	ret
 180e7e8:	008000c4 	movi	r2,3
 180e7ec:	00c00f04 	movi	r3,60
 180e7f0:	002f883a 	mov	r23,zero
 180e7f4:	202d883a 	mov	r22,r4
 180e7f8:	d8800015 	stw	r2,0(sp)
 180e7fc:	d8c00215 	stw	r3,8(sp)
 180e800:	d9000315 	stw	r4,12(sp)
 180e804:	ddc00415 	stw	r23,16(sp)
 180e808:	18061400 	call	1806140 <__clzsi2>
 180e80c:	12400744 	addi	r9,r2,29
 180e810:	48000b16 	blt	r9,zero,180e840 <__floatunsidf+0xc4>
 180e814:	483fe726 	beq	r9,zero,180e7b4 <__floatunsidf+0x38>
 180e818:	10bfff44 	addi	r2,r2,-3
 180e81c:	10002e16 	blt	r2,zero,180e8d8 <__floatunsidf+0x15c>
 180e820:	b0a2983a 	sll	r17,r22,r2
 180e824:	0021883a 	mov	r16,zero
 180e828:	d8800217 	ldw	r2,8(sp)
 180e82c:	dc400415 	stw	r17,16(sp)
 180e830:	dc000315 	stw	r16,12(sp)
 180e834:	1245c83a 	sub	r2,r2,r9
 180e838:	d8800215 	stw	r2,8(sp)
 180e83c:	003fdd06 	br	180e7b4 <__floatunsidf+0x38>
 180e840:	0255c83a 	sub	r10,zero,r9
 180e844:	51bff804 	addi	r6,r10,-32
 180e848:	30001b16 	blt	r6,zero,180e8b8 <__floatunsidf+0x13c>
 180e84c:	b9a8d83a 	srl	r20,r23,r6
 180e850:	002b883a 	mov	r21,zero
 180e854:	000f883a 	mov	r7,zero
 180e858:	01000044 	movi	r4,1
 180e85c:	0011883a 	mov	r8,zero
 180e860:	30002516 	blt	r6,zero,180e8f8 <__floatunsidf+0x17c>
 180e864:	21a6983a 	sll	r19,r4,r6
 180e868:	0025883a 	mov	r18,zero
 180e86c:	00bfffc4 	movi	r2,-1
 180e870:	9089883a 	add	r4,r18,r2
 180e874:	988b883a 	add	r5,r19,r2
 180e878:	248d803a 	cmpltu	r6,r4,r18
 180e87c:	314b883a 	add	r5,r6,r5
 180e880:	b104703a 	and	r2,r22,r4
 180e884:	b946703a 	and	r3,r23,r5
 180e888:	10c4b03a 	or	r2,r2,r3
 180e88c:	10000226 	beq	r2,zero,180e898 <__floatunsidf+0x11c>
 180e890:	01c00044 	movi	r7,1
 180e894:	0011883a 	mov	r8,zero
 180e898:	d9000217 	ldw	r4,8(sp)
 180e89c:	a1c4b03a 	or	r2,r20,r7
 180e8a0:	aa06b03a 	or	r3,r21,r8
 180e8a4:	2249c83a 	sub	r4,r4,r9
 180e8a8:	d8c00415 	stw	r3,16(sp)
 180e8ac:	d9000215 	stw	r4,8(sp)
 180e8b0:	d8800315 	stw	r2,12(sp)
 180e8b4:	003fbf06 	br	180e7b4 <__floatunsidf+0x38>
 180e8b8:	bdc7883a 	add	r3,r23,r23
 180e8bc:	008007c4 	movi	r2,31
 180e8c0:	1285c83a 	sub	r2,r2,r10
 180e8c4:	1886983a 	sll	r3,r3,r2
 180e8c8:	b2a8d83a 	srl	r20,r22,r10
 180e8cc:	baaad83a 	srl	r21,r23,r10
 180e8d0:	1d28b03a 	or	r20,r3,r20
 180e8d4:	003fdf06 	br	180e854 <__floatunsidf+0xd8>
 180e8d8:	b006d07a 	srli	r3,r22,1
 180e8dc:	008007c4 	movi	r2,31
 180e8e0:	1245c83a 	sub	r2,r2,r9
 180e8e4:	1886d83a 	srl	r3,r3,r2
 180e8e8:	ba62983a 	sll	r17,r23,r9
 180e8ec:	b260983a 	sll	r16,r22,r9
 180e8f0:	1c62b03a 	or	r17,r3,r17
 180e8f4:	003fcc06 	br	180e828 <__floatunsidf+0xac>
 180e8f8:	2006d07a 	srli	r3,r4,1
 180e8fc:	008007c4 	movi	r2,31
 180e900:	1285c83a 	sub	r2,r2,r10
 180e904:	18a6d83a 	srl	r19,r3,r2
 180e908:	22a4983a 	sll	r18,r4,r10
 180e90c:	003fd706 	br	180e86c <__floatunsidf+0xf0>

0180e910 <close>:
 *
 * ALT_CLOSE is mapped onto the close() system call in alt_syscall.h
 */
 
int ALT_CLOSE (int fildes)
{
 180e910:	defff804 	addi	sp,sp,-32
 180e914:	dfc00715 	stw	ra,28(sp)
 180e918:	df000615 	stw	fp,24(sp)
 180e91c:	df000604 	addi	fp,sp,24
 180e920:	e13ffc15 	stw	r4,-16(fp)
   * A common error case is that when the file descriptor was created, the call
   * to open() failed resulting in a negative file descriptor. This is trapped
   * below so that we don't try and process an invalid file descriptor.
   */

  fd = (fildes < 0) ? NULL : &alt_fd_list[fildes];
 180e924:	e0bffc17 	ldw	r2,-16(fp)
 180e928:	1004803a 	cmplt	r2,r2,zero
 180e92c:	1000081e 	bne	r2,zero,180e950 <close+0x40>
 180e930:	e0bffc17 	ldw	r2,-16(fp)
 180e934:	10800324 	muli	r2,r2,12
 180e938:	1007883a 	mov	r3,r2
 180e93c:	00806074 	movhi	r2,385
 180e940:	10999c04 	addi	r2,r2,26224
 180e944:	1887883a 	add	r3,r3,r2
 180e948:	e0ffff15 	stw	r3,-4(fp)
 180e94c:	00000106 	br	180e954 <close+0x44>
 180e950:	e03fff15 	stw	zero,-4(fp)
 180e954:	e0bfff17 	ldw	r2,-4(fp)
 180e958:	e0bffb15 	stw	r2,-20(fp)

  if (fd)
 180e95c:	e0bffb17 	ldw	r2,-20(fp)
 180e960:	1005003a 	cmpeq	r2,r2,zero
 180e964:	10001d1e 	bne	r2,zero,180e9dc <close+0xcc>
    /*
     * If the associated file system/device has a close function, call it so 
     * that any necessary cleanup code can run.
     */

    rval = (fd->dev->close) ? fd->dev->close(fd) : 0;
 180e968:	e0bffb17 	ldw	r2,-20(fp)
 180e96c:	10800017 	ldw	r2,0(r2)
 180e970:	10800417 	ldw	r2,16(r2)
 180e974:	1005003a 	cmpeq	r2,r2,zero
 180e978:	1000071e 	bne	r2,zero,180e998 <close+0x88>
 180e97c:	e0bffb17 	ldw	r2,-20(fp)
 180e980:	10800017 	ldw	r2,0(r2)
 180e984:	10800417 	ldw	r2,16(r2)
 180e988:	e13ffb17 	ldw	r4,-20(fp)
 180e98c:	103ee83a 	callr	r2
 180e990:	e0bffe15 	stw	r2,-8(fp)
 180e994:	00000106 	br	180e99c <close+0x8c>
 180e998:	e03ffe15 	stw	zero,-8(fp)
 180e99c:	e0bffe17 	ldw	r2,-8(fp)
 180e9a0:	e0bffa15 	stw	r2,-24(fp)

    /* Free the file descriptor structure and return. */

    alt_release_fd (fildes);
 180e9a4:	e13ffc17 	ldw	r4,-16(fp)
 180e9a8:	180f0680 	call	180f068 <alt_release_fd>
    if (rval < 0)
 180e9ac:	e0bffa17 	ldw	r2,-24(fp)
 180e9b0:	1004403a 	cmpge	r2,r2,zero
 180e9b4:	1000071e 	bne	r2,zero,180e9d4 <close+0xc4>
    {
      ALT_ERRNO = -rval;
 180e9b8:	180ea0c0 	call	180ea0c <alt_get_errno>
 180e9bc:	e0fffa17 	ldw	r3,-24(fp)
 180e9c0:	00c7c83a 	sub	r3,zero,r3
 180e9c4:	10c00015 	stw	r3,0(r2)
      return -1;
 180e9c8:	00bfffc4 	movi	r2,-1
 180e9cc:	e0bffd15 	stw	r2,-12(fp)
 180e9d0:	00000806 	br	180e9f4 <close+0xe4>
    }
    return 0;
 180e9d4:	e03ffd15 	stw	zero,-12(fp)
 180e9d8:	00000606 	br	180e9f4 <close+0xe4>
  }
  else
  {
    ALT_ERRNO = EBADFD;
 180e9dc:	180ea0c0 	call	180ea0c <alt_get_errno>
 180e9e0:	1007883a 	mov	r3,r2
 180e9e4:	00801444 	movi	r2,81
 180e9e8:	18800015 	stw	r2,0(r3)
    return -1;
 180e9ec:	00bfffc4 	movi	r2,-1
 180e9f0:	e0bffd15 	stw	r2,-12(fp)
 180e9f4:	e0bffd17 	ldw	r2,-12(fp)
  }
}
 180e9f8:	e037883a 	mov	sp,fp
 180e9fc:	dfc00117 	ldw	ra,4(sp)
 180ea00:	df000017 	ldw	fp,0(sp)
 180ea04:	dec00204 	addi	sp,sp,8
 180ea08:	f800283a 	ret

0180ea0c <alt_get_errno>:
#undef errno

extern int errno;

static ALT_INLINE int* alt_get_errno(void)
{
 180ea0c:	defffd04 	addi	sp,sp,-12
 180ea10:	dfc00215 	stw	ra,8(sp)
 180ea14:	df000115 	stw	fp,4(sp)
 180ea18:	df000104 	addi	fp,sp,4
  return ((alt_errno) ? alt_errno() : &errno);
 180ea1c:	00806074 	movhi	r2,385
 180ea20:	109ecf04 	addi	r2,r2,31548
 180ea24:	10800017 	ldw	r2,0(r2)
 180ea28:	1005003a 	cmpeq	r2,r2,zero
 180ea2c:	1000061e 	bne	r2,zero,180ea48 <alt_get_errno+0x3c>
 180ea30:	00806074 	movhi	r2,385
 180ea34:	109ecf04 	addi	r2,r2,31548
 180ea38:	10800017 	ldw	r2,0(r2)
 180ea3c:	103ee83a 	callr	r2
 180ea40:	e0bfff15 	stw	r2,-4(fp)
 180ea44:	00000306 	br	180ea54 <alt_get_errno+0x48>
 180ea48:	00806074 	movhi	r2,385
 180ea4c:	109ede04 	addi	r2,r2,31608
 180ea50:	e0bfff15 	stw	r2,-4(fp)
 180ea54:	e0bfff17 	ldw	r2,-4(fp)
}
 180ea58:	e037883a 	mov	sp,fp
 180ea5c:	dfc00117 	ldw	ra,4(sp)
 180ea60:	df000017 	ldw	fp,0(sp)
 180ea64:	dec00204 	addi	sp,sp,8
 180ea68:	f800283a 	ret

0180ea6c <alt_dev_null_write>:
 * by the alt_dev_null device. It simple discards all data passed to it, and
 * indicates that the data has been successfully transmitted.
 */

static int alt_dev_null_write (alt_fd* fd, const char* ptr, int len)
{
 180ea6c:	defffc04 	addi	sp,sp,-16
 180ea70:	df000315 	stw	fp,12(sp)
 180ea74:	df000304 	addi	fp,sp,12
 180ea78:	e13ffd15 	stw	r4,-12(fp)
 180ea7c:	e17ffe15 	stw	r5,-8(fp)
 180ea80:	e1bfff15 	stw	r6,-4(fp)
  return len;
 180ea84:	e0bfff17 	ldw	r2,-4(fp)
}
 180ea88:	e037883a 	mov	sp,fp
 180ea8c:	df000017 	ldw	fp,0(sp)
 180ea90:	dec00104 	addi	sp,sp,4
 180ea94:	f800283a 	ret

0180ea98 <fstat>:
}

#else /* !ALT_USE_DIRECT_DRIVERS */

int ALT_FSTAT (int file, struct stat *st)
{
 180ea98:	defff904 	addi	sp,sp,-28
 180ea9c:	dfc00615 	stw	ra,24(sp)
 180eaa0:	df000515 	stw	fp,20(sp)
 180eaa4:	df000504 	addi	fp,sp,20
 180eaa8:	e13ffc15 	stw	r4,-16(fp)
 180eaac:	e17ffd15 	stw	r5,-12(fp)
   * A common error case is that when the file descriptor was created, the call
   * to open() failed resulting in a negative file descriptor. This is trapped
   * below so that we don't try and process an invalid file descriptor.
   */

  fd = (file < 0) ? NULL : &alt_fd_list[file];
 180eab0:	e0bffc17 	ldw	r2,-16(fp)
 180eab4:	1004803a 	cmplt	r2,r2,zero
 180eab8:	1000081e 	bne	r2,zero,180eadc <fstat+0x44>
 180eabc:	e0bffc17 	ldw	r2,-16(fp)
 180eac0:	10800324 	muli	r2,r2,12
 180eac4:	1007883a 	mov	r3,r2
 180eac8:	00806074 	movhi	r2,385
 180eacc:	10999c04 	addi	r2,r2,26224
 180ead0:	1887883a 	add	r3,r3,r2
 180ead4:	e0ffff15 	stw	r3,-4(fp)
 180ead8:	00000106 	br	180eae0 <fstat+0x48>
 180eadc:	e03fff15 	stw	zero,-4(fp)
 180eae0:	e0bfff17 	ldw	r2,-4(fp)
 180eae4:	e0bffb15 	stw	r2,-20(fp)
  
  if (fd)
 180eae8:	e0bffb17 	ldw	r2,-20(fp)
 180eaec:	1005003a 	cmpeq	r2,r2,zero
 180eaf0:	1000121e 	bne	r2,zero,180eb3c <fstat+0xa4>
  {
    /* Call the drivers fstat() function to fill out the "st" structure. */

    if (fd->dev->fstat)
 180eaf4:	e0bffb17 	ldw	r2,-20(fp)
 180eaf8:	10800017 	ldw	r2,0(r2)
 180eafc:	10800817 	ldw	r2,32(r2)
 180eb00:	1005003a 	cmpeq	r2,r2,zero
 180eb04:	1000081e 	bne	r2,zero,180eb28 <fstat+0x90>
    {
      return fd->dev->fstat(fd, st);
 180eb08:	e0bffb17 	ldw	r2,-20(fp)
 180eb0c:	10800017 	ldw	r2,0(r2)
 180eb10:	10800817 	ldw	r2,32(r2)
 180eb14:	e13ffb17 	ldw	r4,-20(fp)
 180eb18:	e17ffd17 	ldw	r5,-12(fp)
 180eb1c:	103ee83a 	callr	r2
 180eb20:	e0bffe15 	stw	r2,-8(fp)
 180eb24:	00000b06 	br	180eb54 <fstat+0xbc>
     * device.
     */
 
    else
    {
      st->st_mode = _IFCHR;
 180eb28:	e0fffd17 	ldw	r3,-12(fp)
 180eb2c:	00880004 	movi	r2,8192
 180eb30:	18800115 	stw	r2,4(r3)
      return 0;
 180eb34:	e03ffe15 	stw	zero,-8(fp)
 180eb38:	00000606 	br	180eb54 <fstat+0xbc>
    }
  }
  else
  {
    ALT_ERRNO = EBADFD;
 180eb3c:	180eb6c0 	call	180eb6c <alt_get_errno>
 180eb40:	1007883a 	mov	r3,r2
 180eb44:	00801444 	movi	r2,81
 180eb48:	18800015 	stw	r2,0(r3)
    return -1;
 180eb4c:	00bfffc4 	movi	r2,-1
 180eb50:	e0bffe15 	stw	r2,-8(fp)
 180eb54:	e0bffe17 	ldw	r2,-8(fp)
  }
}
 180eb58:	e037883a 	mov	sp,fp
 180eb5c:	dfc00117 	ldw	ra,4(sp)
 180eb60:	df000017 	ldw	fp,0(sp)
 180eb64:	dec00204 	addi	sp,sp,8
 180eb68:	f800283a 	ret

0180eb6c <alt_get_errno>:
#undef errno

extern int errno;

static ALT_INLINE int* alt_get_errno(void)
{
 180eb6c:	defffd04 	addi	sp,sp,-12
 180eb70:	dfc00215 	stw	ra,8(sp)
 180eb74:	df000115 	stw	fp,4(sp)
 180eb78:	df000104 	addi	fp,sp,4
  return ((alt_errno) ? alt_errno() : &errno);
 180eb7c:	00806074 	movhi	r2,385
 180eb80:	109ecf04 	addi	r2,r2,31548
 180eb84:	10800017 	ldw	r2,0(r2)
 180eb88:	1005003a 	cmpeq	r2,r2,zero
 180eb8c:	1000061e 	bne	r2,zero,180eba8 <alt_get_errno+0x3c>
 180eb90:	00806074 	movhi	r2,385
 180eb94:	109ecf04 	addi	r2,r2,31548
 180eb98:	10800017 	ldw	r2,0(r2)
 180eb9c:	103ee83a 	callr	r2
 180eba0:	e0bfff15 	stw	r2,-4(fp)
 180eba4:	00000306 	br	180ebb4 <alt_get_errno+0x48>
 180eba8:	00806074 	movhi	r2,385
 180ebac:	109ede04 	addi	r2,r2,31608
 180ebb0:	e0bfff15 	stw	r2,-4(fp)
 180ebb4:	e0bfff17 	ldw	r2,-4(fp)
}
 180ebb8:	e037883a 	mov	sp,fp
 180ebbc:	dfc00117 	ldw	ra,4(sp)
 180ebc0:	df000017 	ldw	fp,0(sp)
 180ebc4:	dec00204 	addi	sp,sp,8
 180ebc8:	f800283a 	ret

0180ebcc <isatty>:
 *
 * ALT_ISATTY is mapped onto the isatty() system call in alt_syscall.h
 */
 
int ALT_ISATTY (int file)
{
 180ebcc:	deffeb04 	addi	sp,sp,-84
 180ebd0:	dfc01415 	stw	ra,80(sp)
 180ebd4:	df001315 	stw	fp,76(sp)
 180ebd8:	df001304 	addi	fp,sp,76
 180ebdc:	e13ffd15 	stw	r4,-12(fp)
   * A common error case is that when the file descriptor was created, the call
   * to open() failed resulting in a negative file descriptor. This is trapped
   * below so that we don't try and process an invalid file descriptor.
   */

  fd = (file < 0) ? NULL : &alt_fd_list[file];
 180ebe0:	e0bffd17 	ldw	r2,-12(fp)
 180ebe4:	1004803a 	cmplt	r2,r2,zero
 180ebe8:	1000081e 	bne	r2,zero,180ec0c <isatty+0x40>
 180ebec:	e0bffd17 	ldw	r2,-12(fp)
 180ebf0:	10800324 	muli	r2,r2,12
 180ebf4:	1007883a 	mov	r3,r2
 180ebf8:	00806074 	movhi	r2,385
 180ebfc:	10999c04 	addi	r2,r2,26224
 180ec00:	1887883a 	add	r3,r3,r2
 180ec04:	e0ffff15 	stw	r3,-4(fp)
 180ec08:	00000106 	br	180ec10 <isatty+0x44>
 180ec0c:	e03fff15 	stw	zero,-4(fp)
 180ec10:	e0bfff17 	ldw	r2,-4(fp)
 180ec14:	e0bfed15 	stw	r2,-76(fp)
  
  if (fd)
 180ec18:	e0bfed17 	ldw	r2,-76(fp)
 180ec1c:	1005003a 	cmpeq	r2,r2,zero
 180ec20:	10000f1e 	bne	r2,zero,180ec60 <isatty+0x94>
    /*
     * If a device driver does not provide an fstat() function, then it is 
     * treated as a terminal device by default.
     */

    if (!fd->dev->fstat)
 180ec24:	e0bfed17 	ldw	r2,-76(fp)
 180ec28:	10800017 	ldw	r2,0(r2)
 180ec2c:	10800817 	ldw	r2,32(r2)
 180ec30:	1004c03a 	cmpne	r2,r2,zero
 180ec34:	1000031e 	bne	r2,zero,180ec44 <isatty+0x78>
    {
      return 1;
 180ec38:	00800044 	movi	r2,1
 180ec3c:	e0bffe15 	stw	r2,-8(fp)
 180ec40:	00000c06 	br	180ec74 <isatty+0xa8>
     * this is called so that the device can identify itself.
     */ 

    else
    {
      fstat (file, &stat);
 180ec44:	e17fee04 	addi	r5,fp,-72
 180ec48:	e13ffd17 	ldw	r4,-12(fp)
 180ec4c:	180ea980 	call	180ea98 <fstat>
      return (stat.st_mode == _IFCHR) ? 1 : 0;
 180ec50:	e0bfef17 	ldw	r2,-68(fp)
 180ec54:	10880020 	cmpeqi	r2,r2,8192
 180ec58:	e0bffe15 	stw	r2,-8(fp)
 180ec5c:	00000506 	br	180ec74 <isatty+0xa8>
    }
  }
  else
  {
    ALT_ERRNO = EBADFD;
 180ec60:	180ec8c0 	call	180ec8c <alt_get_errno>
 180ec64:	1007883a 	mov	r3,r2
 180ec68:	00801444 	movi	r2,81
 180ec6c:	18800015 	stw	r2,0(r3)
    return 0;
 180ec70:	e03ffe15 	stw	zero,-8(fp)
 180ec74:	e0bffe17 	ldw	r2,-8(fp)
  }
}
 180ec78:	e037883a 	mov	sp,fp
 180ec7c:	dfc00117 	ldw	ra,4(sp)
 180ec80:	df000017 	ldw	fp,0(sp)
 180ec84:	dec00204 	addi	sp,sp,8
 180ec88:	f800283a 	ret

0180ec8c <alt_get_errno>:
#undef errno

extern int errno;

static ALT_INLINE int* alt_get_errno(void)
{
 180ec8c:	defffd04 	addi	sp,sp,-12
 180ec90:	dfc00215 	stw	ra,8(sp)
 180ec94:	df000115 	stw	fp,4(sp)
 180ec98:	df000104 	addi	fp,sp,4
  return ((alt_errno) ? alt_errno() : &errno);
 180ec9c:	00806074 	movhi	r2,385
 180eca0:	109ecf04 	addi	r2,r2,31548
 180eca4:	10800017 	ldw	r2,0(r2)
 180eca8:	1005003a 	cmpeq	r2,r2,zero
 180ecac:	1000061e 	bne	r2,zero,180ecc8 <alt_get_errno+0x3c>
 180ecb0:	00806074 	movhi	r2,385
 180ecb4:	109ecf04 	addi	r2,r2,31548
 180ecb8:	10800017 	ldw	r2,0(r2)
 180ecbc:	103ee83a 	callr	r2
 180ecc0:	e0bfff15 	stw	r2,-4(fp)
 180ecc4:	00000306 	br	180ecd4 <alt_get_errno+0x48>
 180ecc8:	00806074 	movhi	r2,385
 180eccc:	109ede04 	addi	r2,r2,31608
 180ecd0:	e0bfff15 	stw	r2,-4(fp)
 180ecd4:	e0bfff17 	ldw	r2,-4(fp)
}
 180ecd8:	e037883a 	mov	sp,fp
 180ecdc:	dfc00117 	ldw	ra,4(sp)
 180ece0:	df000017 	ldw	fp,0(sp)
 180ece4:	dec00204 	addi	sp,sp,8
 180ece8:	f800283a 	ret

0180ecec <lseek>:
 * ALT_LSEEK is mapped onto the lseek() system call in alt_syscall.h
 *
 */

off_t ALT_LSEEK (int file, off_t ptr, int dir)
{
 180ecec:	defff804 	addi	sp,sp,-32
 180ecf0:	dfc00715 	stw	ra,28(sp)
 180ecf4:	df000615 	stw	fp,24(sp)
 180ecf8:	df000604 	addi	fp,sp,24
 180ecfc:	e13ffc15 	stw	r4,-16(fp)
 180ed00:	e17ffd15 	stw	r5,-12(fp)
 180ed04:	e1bffe15 	stw	r6,-8(fp)
  alt_fd* fd;
  off_t   rc = 0; 
 180ed08:	e03ffa15 	stw	zero,-24(fp)
   * A common error case is that when the file descriptor was created, the call
   * to open() failed resulting in a negative file descriptor. This is trapped
   * below so that we don't try and process an invalid file descriptor.
   */

  fd = (file < 0) ? NULL : &alt_fd_list[file];
 180ed0c:	e0bffc17 	ldw	r2,-16(fp)
 180ed10:	1004803a 	cmplt	r2,r2,zero
 180ed14:	1000081e 	bne	r2,zero,180ed38 <lseek+0x4c>
 180ed18:	e0bffc17 	ldw	r2,-16(fp)
 180ed1c:	10800324 	muli	r2,r2,12
 180ed20:	1007883a 	mov	r3,r2
 180ed24:	00806074 	movhi	r2,385
 180ed28:	10999c04 	addi	r2,r2,26224
 180ed2c:	1887883a 	add	r3,r3,r2
 180ed30:	e0ffff15 	stw	r3,-4(fp)
 180ed34:	00000106 	br	180ed3c <lseek+0x50>
 180ed38:	e03fff15 	stw	zero,-4(fp)
 180ed3c:	e0bfff17 	ldw	r2,-4(fp)
 180ed40:	e0bffb15 	stw	r2,-20(fp)
  
  if (fd) 
 180ed44:	e0bffb17 	ldw	r2,-20(fp)
 180ed48:	1005003a 	cmpeq	r2,r2,zero
 180ed4c:	1000111e 	bne	r2,zero,180ed94 <lseek+0xa8>
    /*
     * If the device driver provides an implementation of the lseek() function,
     * then call that to process the request.
     */
 
    if (fd->dev->lseek)
 180ed50:	e0bffb17 	ldw	r2,-20(fp)
 180ed54:	10800017 	ldw	r2,0(r2)
 180ed58:	10800717 	ldw	r2,28(r2)
 180ed5c:	1005003a 	cmpeq	r2,r2,zero
 180ed60:	1000091e 	bne	r2,zero,180ed88 <lseek+0x9c>
    {
      rc = fd->dev->lseek(fd, ptr, dir);
 180ed64:	e0bffb17 	ldw	r2,-20(fp)
 180ed68:	10800017 	ldw	r2,0(r2)
 180ed6c:	10800717 	ldw	r2,28(r2)
 180ed70:	e13ffb17 	ldw	r4,-20(fp)
 180ed74:	e17ffd17 	ldw	r5,-12(fp)
 180ed78:	e1bffe17 	ldw	r6,-8(fp)
 180ed7c:	103ee83a 	callr	r2
 180ed80:	e0bffa15 	stw	r2,-24(fp)
 180ed84:	00000506 	br	180ed9c <lseek+0xb0>
     * Otherwise return an error.
     */

    else
    {
      rc = -ENOTSUP;
 180ed88:	00bfde84 	movi	r2,-134
 180ed8c:	e0bffa15 	stw	r2,-24(fp)
 180ed90:	00000206 	br	180ed9c <lseek+0xb0>
    }
  }
  else  
  {
    rc = -EBADFD;
 180ed94:	00bfebc4 	movi	r2,-81
 180ed98:	e0bffa15 	stw	r2,-24(fp)
  }

  if (rc < 0)
 180ed9c:	e0bffa17 	ldw	r2,-24(fp)
 180eda0:	1004403a 	cmpge	r2,r2,zero
 180eda4:	1000071e 	bne	r2,zero,180edc4 <lseek+0xd8>
  {
    ALT_ERRNO = -rc;
 180eda8:	180eddc0 	call	180eddc <alt_get_errno>
 180edac:	1007883a 	mov	r3,r2
 180edb0:	e0bffa17 	ldw	r2,-24(fp)
 180edb4:	0085c83a 	sub	r2,zero,r2
 180edb8:	18800015 	stw	r2,0(r3)
    rc = -1;
 180edbc:	00bfffc4 	movi	r2,-1
 180edc0:	e0bffa15 	stw	r2,-24(fp)
  }

  return rc;
 180edc4:	e0bffa17 	ldw	r2,-24(fp)
}
 180edc8:	e037883a 	mov	sp,fp
 180edcc:	dfc00117 	ldw	ra,4(sp)
 180edd0:	df000017 	ldw	fp,0(sp)
 180edd4:	dec00204 	addi	sp,sp,8
 180edd8:	f800283a 	ret

0180eddc <alt_get_errno>:
#undef errno

extern int errno;

static ALT_INLINE int* alt_get_errno(void)
{
 180eddc:	defffd04 	addi	sp,sp,-12
 180ede0:	dfc00215 	stw	ra,8(sp)
 180ede4:	df000115 	stw	fp,4(sp)
 180ede8:	df000104 	addi	fp,sp,4
  return ((alt_errno) ? alt_errno() : &errno);
 180edec:	00806074 	movhi	r2,385
 180edf0:	109ecf04 	addi	r2,r2,31548
 180edf4:	10800017 	ldw	r2,0(r2)
 180edf8:	1005003a 	cmpeq	r2,r2,zero
 180edfc:	1000061e 	bne	r2,zero,180ee18 <alt_get_errno+0x3c>
 180ee00:	00806074 	movhi	r2,385
 180ee04:	109ecf04 	addi	r2,r2,31548
 180ee08:	10800017 	ldw	r2,0(r2)
 180ee0c:	103ee83a 	callr	r2
 180ee10:	e0bfff15 	stw	r2,-4(fp)
 180ee14:	00000306 	br	180ee24 <alt_get_errno+0x48>
 180ee18:	00806074 	movhi	r2,385
 180ee1c:	109ede04 	addi	r2,r2,31608
 180ee20:	e0bfff15 	stw	r2,-4(fp)
 180ee24:	e0bfff17 	ldw	r2,-4(fp)
}
 180ee28:	e037883a 	mov	sp,fp
 180ee2c:	dfc00117 	ldw	ra,4(sp)
 180ee30:	df000017 	ldw	fp,0(sp)
 180ee34:	dec00204 	addi	sp,sp,8
 180ee38:	f800283a 	ret

0180ee3c <alt_main>:
 * devices/filesystems/components in the system; and call the entry point for
 * the users application, i.e. main().
 */

void alt_main (void)
{
 180ee3c:	defffd04 	addi	sp,sp,-12
 180ee40:	dfc00215 	stw	ra,8(sp)
 180ee44:	df000115 	stw	fp,4(sp)
 180ee48:	df000104 	addi	fp,sp,4
#endif

  /* ALT LOG - please see HAL/sys/alt_log_printf.h for details */
  ALT_LOG_PRINT_BOOT("[alt_main.c] Entering alt_main, calling alt_irq_init.\r\n");
  /* Initialize the interrupt controller. */
  alt_irq_init (NULL);
 180ee4c:	0009883a 	mov	r4,zero
 180ee50:	180f3340 	call	180f334 <alt_irq_init>
  ALT_LOG_PRINT_BOOT("[alt_main.c] Done OS Init, calling alt_sem_create.\r\n");
  ALT_SEM_CREATE (&alt_fd_list_lock, 1);

  /* Initialize the device drivers/software components. */
  ALT_LOG_PRINT_BOOT("[alt_main.c] Calling alt_sys_init.\r\n");
  alt_sys_init();
 180ee54:	180f3680 	call	180f368 <alt_sys_init>
   * devices be present (not equal to /dev/null) and if direct drivers
   * aren't being used.
   */

    ALT_LOG_PRINT_BOOT("[alt_main.c] Redirecting IO.\r\n");
    alt_io_redirect(ALT_STDOUT, ALT_STDIN, ALT_STDERR);
 180ee58:	01006074 	movhi	r4,385
 180ee5c:	2116da04 	addi	r4,r4,23400
 180ee60:	01406074 	movhi	r5,385
 180ee64:	2956da04 	addi	r5,r5,23400
 180ee68:	01806074 	movhi	r6,385
 180ee6c:	3196da04 	addi	r6,r6,23400
 180ee70:	1813f440 	call	1813f44 <alt_io_redirect>
  /* 
   * Call the C++ constructors 
   */

  ALT_LOG_PRINT_BOOT("[alt_main.c] Calling C++ constructors.\r\n");
  _do_ctors ();
 180ee74:	1813a1c0 	call	1813a1c <_do_ctors>
   * redefined as _exit()). This is in the interest of reducing code footprint,
   * in that the atexit() overhead is removed when it's not needed.
   */

  ALT_LOG_PRINT_BOOT("[alt_main.c] Calling atexit.\r\n");
  atexit (_do_dtors);
 180ee78:	01006074 	movhi	r4,385
 180ee7c:	210ea004 	addi	r4,r4,14976
 180ee80:	181504c0 	call	181504c <atexit>
  ALT_LOG_PRINT_BOOT("[alt_main.c] Calling main.\r\n");

#ifdef ALT_NO_EXIT
  main (alt_argc, alt_argv, alt_envp);
#else
  result = main (alt_argc, alt_argv, alt_envp);
 180ee84:	d1201c17 	ldw	r4,-32656(gp)
 180ee88:	d1601d17 	ldw	r5,-32652(gp)
 180ee8c:	d1a01e17 	ldw	r6,-32648(gp)
 180ee90:	1800dd40 	call	1800dd4 <main>
 180ee94:	e0bfff15 	stw	r2,-4(fp)
  close(STDOUT_FILENO);
 180ee98:	01000044 	movi	r4,1
 180ee9c:	180e9100 	call	180e910 <close>
  exit (result);
 180eea0:	e13fff17 	ldw	r4,-4(fp)
 180eea4:	18150600 	call	1815060 <exit>

0180eea8 <__malloc_lock>:
 * configuration is single threaded, so there is nothing to do here. Note that 
 * this requires that malloc is never called by an interrupt service routine.
 */

void __malloc_lock ( struct _reent *_r )
{
 180eea8:	defffe04 	addi	sp,sp,-8
 180eeac:	df000115 	stw	fp,4(sp)
 180eeb0:	df000104 	addi	fp,sp,4
 180eeb4:	e13fff15 	stw	r4,-4(fp)
}
 180eeb8:	e037883a 	mov	sp,fp
 180eebc:	df000017 	ldw	fp,0(sp)
 180eec0:	dec00104 	addi	sp,sp,4
 180eec4:	f800283a 	ret

0180eec8 <__malloc_unlock>:
/*
 *
 */

void __malloc_unlock ( struct _reent *_r )
{
 180eec8:	defffe04 	addi	sp,sp,-8
 180eecc:	df000115 	stw	fp,4(sp)
 180eed0:	df000104 	addi	fp,sp,4
 180eed4:	e13fff15 	stw	r4,-4(fp)
}
 180eed8:	e037883a 	mov	sp,fp
 180eedc:	df000017 	ldw	fp,0(sp)
 180eee0:	dec00104 	addi	sp,sp,4
 180eee4:	f800283a 	ret

0180eee8 <read>:
}

#else /* !ALT_USE_DIRECT_DRIVERS */

int ALT_READ (int file, void *ptr, size_t len)
{
 180eee8:	defff704 	addi	sp,sp,-36
 180eeec:	dfc00815 	stw	ra,32(sp)
 180eef0:	df000715 	stw	fp,28(sp)
 180eef4:	df000704 	addi	fp,sp,28
 180eef8:	e13ffb15 	stw	r4,-20(fp)
 180eefc:	e17ffc15 	stw	r5,-16(fp)
 180ef00:	e1bffd15 	stw	r6,-12(fp)
   * A common error case is that when the file descriptor was created, the call
   * to open() failed resulting in a negative file descriptor. This is trapped
   * below so that we don't try and process an invalid file descriptor.
   */

  fd = (file < 0) ? NULL : &alt_fd_list[file];
 180ef04:	e0bffb17 	ldw	r2,-20(fp)
 180ef08:	1004803a 	cmplt	r2,r2,zero
 180ef0c:	1000081e 	bne	r2,zero,180ef30 <read+0x48>
 180ef10:	e0bffb17 	ldw	r2,-20(fp)
 180ef14:	10800324 	muli	r2,r2,12
 180ef18:	1007883a 	mov	r3,r2
 180ef1c:	00806074 	movhi	r2,385
 180ef20:	10999c04 	addi	r2,r2,26224
 180ef24:	1887883a 	add	r3,r3,r2
 180ef28:	e0ffff15 	stw	r3,-4(fp)
 180ef2c:	00000106 	br	180ef34 <read+0x4c>
 180ef30:	e03fff15 	stw	zero,-4(fp)
 180ef34:	e0bfff17 	ldw	r2,-4(fp)
 180ef38:	e0bffa15 	stw	r2,-24(fp)
  
  if (fd)
 180ef3c:	e0bffa17 	ldw	r2,-24(fp)
 180ef40:	1005003a 	cmpeq	r2,r2,zero
 180ef44:	1000241e 	bne	r2,zero,180efd8 <read+0xf0>
     * If the file has not been opened with read access, or if the driver does
     * not provide an implementation of read(), generate an error. Otherwise
     * call the drivers read() function to process the request.
     */

    if (((fd->fd_flags & O_ACCMODE) != O_WRONLY) && 
 180ef48:	e0bffa17 	ldw	r2,-24(fp)
 180ef4c:	10800217 	ldw	r2,8(r2)
 180ef50:	108000cc 	andi	r2,r2,3
 180ef54:	10800060 	cmpeqi	r2,r2,1
 180ef58:	10001a1e 	bne	r2,zero,180efc4 <read+0xdc>
 180ef5c:	e0bffa17 	ldw	r2,-24(fp)
 180ef60:	10800017 	ldw	r2,0(r2)
 180ef64:	10800517 	ldw	r2,20(r2)
 180ef68:	1005003a 	cmpeq	r2,r2,zero
 180ef6c:	1000151e 	bne	r2,zero,180efc4 <read+0xdc>
        (fd->dev->read))
      {
        if ((rval = fd->dev->read(fd, ptr, len)) < 0)
 180ef70:	e0bffa17 	ldw	r2,-24(fp)
 180ef74:	10800017 	ldw	r2,0(r2)
 180ef78:	10800517 	ldw	r2,20(r2)
 180ef7c:	e17ffc17 	ldw	r5,-16(fp)
 180ef80:	e1bffd17 	ldw	r6,-12(fp)
 180ef84:	e13ffa17 	ldw	r4,-24(fp)
 180ef88:	103ee83a 	callr	r2
 180ef8c:	e0bff915 	stw	r2,-28(fp)
 180ef90:	e0bff917 	ldw	r2,-28(fp)
 180ef94:	1004403a 	cmpge	r2,r2,zero
 180ef98:	1000071e 	bne	r2,zero,180efb8 <read+0xd0>
        {
          ALT_ERRNO = -rval;
 180ef9c:	180f0080 	call	180f008 <alt_get_errno>
 180efa0:	e0fff917 	ldw	r3,-28(fp)
 180efa4:	00c7c83a 	sub	r3,zero,r3
 180efa8:	10c00015 	stw	r3,0(r2)
          return -1;
 180efac:	00bfffc4 	movi	r2,-1
 180efb0:	e0bffe15 	stw	r2,-8(fp)
 180efb4:	00000e06 	br	180eff0 <read+0x108>
        }
        return rval;
 180efb8:	e0bff917 	ldw	r2,-28(fp)
 180efbc:	e0bffe15 	stw	r2,-8(fp)
 180efc0:	00000b06 	br	180eff0 <read+0x108>
      }
      else
      {
        ALT_ERRNO = EACCES;
 180efc4:	180f0080 	call	180f008 <alt_get_errno>
 180efc8:	1007883a 	mov	r3,r2
 180efcc:	00800344 	movi	r2,13
 180efd0:	18800015 	stw	r2,0(r3)
 180efd4:	00000406 	br	180efe8 <read+0x100>
      }
    }
  else
  {
    ALT_ERRNO = EBADFD;
 180efd8:	180f0080 	call	180f008 <alt_get_errno>
 180efdc:	1007883a 	mov	r3,r2
 180efe0:	00801444 	movi	r2,81
 180efe4:	18800015 	stw	r2,0(r3)
  }
  return -1;
 180efe8:	00bfffc4 	movi	r2,-1
 180efec:	e0bffe15 	stw	r2,-8(fp)
 180eff0:	e0bffe17 	ldw	r2,-8(fp)
}
 180eff4:	e037883a 	mov	sp,fp
 180eff8:	dfc00117 	ldw	ra,4(sp)
 180effc:	df000017 	ldw	fp,0(sp)
 180f000:	dec00204 	addi	sp,sp,8
 180f004:	f800283a 	ret

0180f008 <alt_get_errno>:
#undef errno

extern int errno;

static ALT_INLINE int* alt_get_errno(void)
{
 180f008:	defffd04 	addi	sp,sp,-12
 180f00c:	dfc00215 	stw	ra,8(sp)
 180f010:	df000115 	stw	fp,4(sp)
 180f014:	df000104 	addi	fp,sp,4
  return ((alt_errno) ? alt_errno() : &errno);
 180f018:	00806074 	movhi	r2,385
 180f01c:	109ecf04 	addi	r2,r2,31548
 180f020:	10800017 	ldw	r2,0(r2)
 180f024:	1005003a 	cmpeq	r2,r2,zero
 180f028:	1000061e 	bne	r2,zero,180f044 <alt_get_errno+0x3c>
 180f02c:	00806074 	movhi	r2,385
 180f030:	109ecf04 	addi	r2,r2,31548
 180f034:	10800017 	ldw	r2,0(r2)
 180f038:	103ee83a 	callr	r2
 180f03c:	e0bfff15 	stw	r2,-4(fp)
 180f040:	00000306 	br	180f050 <alt_get_errno+0x48>
 180f044:	00806074 	movhi	r2,385
 180f048:	109ede04 	addi	r2,r2,31608
 180f04c:	e0bfff15 	stw	r2,-4(fp)
 180f050:	e0bfff17 	ldw	r2,-4(fp)
}
 180f054:	e037883a 	mov	sp,fp
 180f058:	dfc00117 	ldw	ra,4(sp)
 180f05c:	df000017 	ldw	fp,0(sp)
 180f060:	dec00204 	addi	sp,sp,8
 180f064:	f800283a 	ret

0180f068 <alt_release_fd>:
 * File descriptors correcponding to standard in, standard out and standard 
 * error cannont be released backed to the pool. They are always reserved.
 */

void alt_release_fd (int fd)
{
 180f068:	defffe04 	addi	sp,sp,-8
 180f06c:	df000115 	stw	fp,4(sp)
 180f070:	df000104 	addi	fp,sp,4
 180f074:	e13fff15 	stw	r4,-4(fp)
  if (fd > 2)
 180f078:	e0bfff17 	ldw	r2,-4(fp)
 180f07c:	108000d0 	cmplti	r2,r2,3
 180f080:	10000d1e 	bne	r2,zero,180f0b8 <alt_release_fd+0x50>
  {
    alt_fd_list[fd].fd_flags = 0;
 180f084:	e0bfff17 	ldw	r2,-4(fp)
 180f088:	00c06074 	movhi	r3,385
 180f08c:	18d99c04 	addi	r3,r3,26224
 180f090:	10800324 	muli	r2,r2,12
 180f094:	10c5883a 	add	r2,r2,r3
 180f098:	10800204 	addi	r2,r2,8
 180f09c:	10000015 	stw	zero,0(r2)
    alt_fd_list[fd].dev      = 0;
 180f0a0:	e0bfff17 	ldw	r2,-4(fp)
 180f0a4:	00c06074 	movhi	r3,385
 180f0a8:	18d99c04 	addi	r3,r3,26224
 180f0ac:	10800324 	muli	r2,r2,12
 180f0b0:	10c5883a 	add	r2,r2,r3
 180f0b4:	10000015 	stw	zero,0(r2)
  }
}
 180f0b8:	e037883a 	mov	sp,fp
 180f0bc:	df000017 	ldw	fp,0(sp)
 180f0c0:	dec00104 	addi	sp,sp,4
 180f0c4:	f800283a 	ret

0180f0c8 <sbrk>:
#endif
 
caddr_t ALT_SBRK (int incr) __attribute__ ((no_instrument_function ));

caddr_t ALT_SBRK (int incr)
{ 
 180f0c8:	defff804 	addi	sp,sp,-32
 180f0cc:	df000715 	stw	fp,28(sp)
 180f0d0:	df000704 	addi	fp,sp,28
 180f0d4:	e13ffe15 	stw	r4,-8(fp)
static ALT_INLINE alt_irq_context ALT_ALWAYS_INLINE 
       alt_irq_disable_all (void)
{
  alt_irq_context context;

  NIOS2_READ_STATUS (context);
 180f0d8:	0005303a 	rdctl	r2,status
 180f0dc:	e0bffb15 	stw	r2,-20(fp)

  NIOS2_WRITE_STATUS (context & ~NIOS2_STATUS_PIE_MSK);
 180f0e0:	e0fffb17 	ldw	r3,-20(fp)
 180f0e4:	00bfff84 	movi	r2,-2
 180f0e8:	1884703a 	and	r2,r3,r2
 180f0ec:	1001703a 	wrctl	status,r2
  
  return context;
 180f0f0:	e0bffb17 	ldw	r2,-20(fp)
  alt_irq_context context;
  char *prev_heap_end; 

  context = alt_irq_disable_all();
 180f0f4:	e0bffd15 	stw	r2,-12(fp)

  /* Always return data aligned on a word boundary */
  heap_end = (char *)(((unsigned int)heap_end + 3) & ~3);
 180f0f8:	d0a00d17 	ldw	r2,-32716(gp)
 180f0fc:	10c000c4 	addi	r3,r2,3
 180f100:	00bfff04 	movi	r2,-4
 180f104:	1884703a 	and	r2,r3,r2
 180f108:	d0a00d15 	stw	r2,-32716(gp)
  if (((heap_end + incr) - __alt_heap_start) > ALT_MAX_HEAP_BYTES) {
    alt_irq_enable_all(context);
    return (caddr_t)-1;
  }
#else
  if ((heap_end + incr) > __alt_heap_limit) {
 180f10c:	d0e00d17 	ldw	r3,-32716(gp)
 180f110:	e0bffe17 	ldw	r2,-8(fp)
 180f114:	1887883a 	add	r3,r3,r2
 180f118:	00808034 	movhi	r2,512
 180f11c:	10800004 	addi	r2,r2,0
 180f120:	10c0072e 	bgeu	r2,r3,180f140 <sbrk+0x78>
 180f124:	e0bffd17 	ldw	r2,-12(fp)
 180f128:	e0bffa15 	stw	r2,-24(fp)
  status &= ~NIOS2_STATUS_PIE_MSK;
  status |= (context & NIOS2_STATUS_PIE_MSK);
  
  NIOS2_WRITE_STATUS (status);
#else
  NIOS2_WRITE_STATUS (context);
 180f12c:	e0bffa17 	ldw	r2,-24(fp)
 180f130:	1001703a 	wrctl	status,r2
    alt_irq_enable_all(context);
    return (caddr_t)-1;
 180f134:	00bfffc4 	movi	r2,-1
 180f138:	e0bfff15 	stw	r2,-4(fp)
 180f13c:	00000c06 	br	180f170 <sbrk+0xa8>
  }
#endif

  prev_heap_end = heap_end; 
 180f140:	d0a00d17 	ldw	r2,-32716(gp)
 180f144:	e0bffc15 	stw	r2,-16(fp)
  heap_end += incr; 
 180f148:	d0e00d17 	ldw	r3,-32716(gp)
 180f14c:	e0bffe17 	ldw	r2,-8(fp)
 180f150:	1885883a 	add	r2,r3,r2
 180f154:	d0a00d15 	stw	r2,-32716(gp)
 180f158:	e0bffd17 	ldw	r2,-12(fp)
 180f15c:	e0bff915 	stw	r2,-28(fp)
 180f160:	e0bff917 	ldw	r2,-28(fp)
 180f164:	1001703a 	wrctl	status,r2

#endif

  alt_irq_enable_all(context);

  return (caddr_t) prev_heap_end; 
 180f168:	e0bffc17 	ldw	r2,-16(fp)
 180f16c:	e0bfff15 	stw	r2,-4(fp)
 180f170:	e0bfff17 	ldw	r2,-4(fp)
} 
 180f174:	e037883a 	mov	sp,fp
 180f178:	df000017 	ldw	fp,0(sp)
 180f17c:	dec00104 	addi	sp,sp,4
 180f180:	f800283a 	ret

0180f184 <usleep>:
#if defined (__GNUC__) && __GNUC__ >= 4
int ALT_USLEEP (useconds_t us)
#else
unsigned int ALT_USLEEP (unsigned int us)
#endif
{
 180f184:	defffd04 	addi	sp,sp,-12
 180f188:	dfc00215 	stw	ra,8(sp)
 180f18c:	df000115 	stw	fp,4(sp)
 180f190:	df000104 	addi	fp,sp,4
 180f194:	e13fff15 	stw	r4,-4(fp)
  return alt_busy_sleep(us);
 180f198:	e13fff17 	ldw	r4,-4(fp)
 180f19c:	18137640 	call	1813764 <alt_busy_sleep>
}
 180f1a0:	e037883a 	mov	sp,fp
 180f1a4:	dfc00117 	ldw	ra,4(sp)
 180f1a8:	df000017 	ldw	fp,0(sp)
 180f1ac:	dec00204 	addi	sp,sp,8
 180f1b0:	f800283a 	ret

0180f1b4 <write>:
}

#else /* !ALT_USE_DIRECT_DRIVERS */

int ALT_WRITE (int file, const void *ptr, size_t len)
{
 180f1b4:	defff704 	addi	sp,sp,-36
 180f1b8:	dfc00815 	stw	ra,32(sp)
 180f1bc:	df000715 	stw	fp,28(sp)
 180f1c0:	df000704 	addi	fp,sp,28
 180f1c4:	e13ffb15 	stw	r4,-20(fp)
 180f1c8:	e17ffc15 	stw	r5,-16(fp)
 180f1cc:	e1bffd15 	stw	r6,-12(fp)
   * A common error case is that when the file descriptor was created, the call
   * to open() failed resulting in a negative file descriptor. This is trapped
   * below so that we don't try and process an invalid file descriptor.
   */

  fd = (file < 0) ? NULL : &alt_fd_list[file];
 180f1d0:	e0bffb17 	ldw	r2,-20(fp)
 180f1d4:	1004803a 	cmplt	r2,r2,zero
 180f1d8:	1000081e 	bne	r2,zero,180f1fc <write+0x48>
 180f1dc:	e0bffb17 	ldw	r2,-20(fp)
 180f1e0:	10800324 	muli	r2,r2,12
 180f1e4:	1007883a 	mov	r3,r2
 180f1e8:	00806074 	movhi	r2,385
 180f1ec:	10999c04 	addi	r2,r2,26224
 180f1f0:	1887883a 	add	r3,r3,r2
 180f1f4:	e0ffff15 	stw	r3,-4(fp)
 180f1f8:	00000106 	br	180f200 <write+0x4c>
 180f1fc:	e03fff15 	stw	zero,-4(fp)
 180f200:	e0bfff17 	ldw	r2,-4(fp)
 180f204:	e0bffa15 	stw	r2,-24(fp)
  
  if (fd)
 180f208:	e0bffa17 	ldw	r2,-24(fp)
 180f20c:	1005003a 	cmpeq	r2,r2,zero
 180f210:	1000241e 	bne	r2,zero,180f2a4 <write+0xf0>
     * If the file has not been opened with write access, or if the driver does
     * not provide an implementation of write(), generate an error. Otherwise
     * call the drivers write() function to process the request.
     */

    if (((fd->fd_flags & O_ACCMODE) != O_RDONLY) && fd->dev->write)
 180f214:	e0bffa17 	ldw	r2,-24(fp)
 180f218:	10800217 	ldw	r2,8(r2)
 180f21c:	108000cc 	andi	r2,r2,3
 180f220:	1005003a 	cmpeq	r2,r2,zero
 180f224:	10001a1e 	bne	r2,zero,180f290 <write+0xdc>
 180f228:	e0bffa17 	ldw	r2,-24(fp)
 180f22c:	10800017 	ldw	r2,0(r2)
 180f230:	10800617 	ldw	r2,24(r2)
 180f234:	1005003a 	cmpeq	r2,r2,zero
 180f238:	1000151e 	bne	r2,zero,180f290 <write+0xdc>
    {
      
      /* ALT_LOG - see altera_hal/HAL/inc/sys/alt_log_printf.h */
      ALT_LOG_WRITE_FUNCTION(ptr,len);

      if ((rval = fd->dev->write(fd, ptr, len)) < 0)
 180f23c:	e0bffa17 	ldw	r2,-24(fp)
 180f240:	10800017 	ldw	r2,0(r2)
 180f244:	10800617 	ldw	r2,24(r2)
 180f248:	e17ffc17 	ldw	r5,-16(fp)
 180f24c:	e1bffd17 	ldw	r6,-12(fp)
 180f250:	e13ffa17 	ldw	r4,-24(fp)
 180f254:	103ee83a 	callr	r2
 180f258:	e0bff915 	stw	r2,-28(fp)
 180f25c:	e0bff917 	ldw	r2,-28(fp)
 180f260:	1004403a 	cmpge	r2,r2,zero
 180f264:	1000071e 	bne	r2,zero,180f284 <write+0xd0>
      {
        ALT_ERRNO = -rval;
 180f268:	180f2d40 	call	180f2d4 <alt_get_errno>
 180f26c:	e0fff917 	ldw	r3,-28(fp)
 180f270:	00c7c83a 	sub	r3,zero,r3
 180f274:	10c00015 	stw	r3,0(r2)
        return -1;
 180f278:	00bfffc4 	movi	r2,-1
 180f27c:	e0bffe15 	stw	r2,-8(fp)
 180f280:	00000e06 	br	180f2bc <write+0x108>
      }
      return rval;
 180f284:	e0bff917 	ldw	r2,-28(fp)
 180f288:	e0bffe15 	stw	r2,-8(fp)
 180f28c:	00000b06 	br	180f2bc <write+0x108>
    }
    else
    {
      ALT_ERRNO = EACCES;
 180f290:	180f2d40 	call	180f2d4 <alt_get_errno>
 180f294:	1007883a 	mov	r3,r2
 180f298:	00800344 	movi	r2,13
 180f29c:	18800015 	stw	r2,0(r3)
 180f2a0:	00000406 	br	180f2b4 <write+0x100>
    }
  }
  else  
  {
    ALT_ERRNO = EBADFD;
 180f2a4:	180f2d40 	call	180f2d4 <alt_get_errno>
 180f2a8:	1007883a 	mov	r3,r2
 180f2ac:	00801444 	movi	r2,81
 180f2b0:	18800015 	stw	r2,0(r3)
  }
  return -1;
 180f2b4:	00bfffc4 	movi	r2,-1
 180f2b8:	e0bffe15 	stw	r2,-8(fp)
 180f2bc:	e0bffe17 	ldw	r2,-8(fp)
}
 180f2c0:	e037883a 	mov	sp,fp
 180f2c4:	dfc00117 	ldw	ra,4(sp)
 180f2c8:	df000017 	ldw	fp,0(sp)
 180f2cc:	dec00204 	addi	sp,sp,8
 180f2d0:	f800283a 	ret

0180f2d4 <alt_get_errno>:
#undef errno

extern int errno;

static ALT_INLINE int* alt_get_errno(void)
{
 180f2d4:	defffd04 	addi	sp,sp,-12
 180f2d8:	dfc00215 	stw	ra,8(sp)
 180f2dc:	df000115 	stw	fp,4(sp)
 180f2e0:	df000104 	addi	fp,sp,4
  return ((alt_errno) ? alt_errno() : &errno);
 180f2e4:	00806074 	movhi	r2,385
 180f2e8:	109ecf04 	addi	r2,r2,31548
 180f2ec:	10800017 	ldw	r2,0(r2)
 180f2f0:	1005003a 	cmpeq	r2,r2,zero
 180f2f4:	1000061e 	bne	r2,zero,180f310 <alt_get_errno+0x3c>
 180f2f8:	00806074 	movhi	r2,385
 180f2fc:	109ecf04 	addi	r2,r2,31548
 180f300:	10800017 	ldw	r2,0(r2)
 180f304:	103ee83a 	callr	r2
 180f308:	e0bfff15 	stw	r2,-4(fp)
 180f30c:	00000306 	br	180f31c <alt_get_errno+0x48>
 180f310:	00806074 	movhi	r2,385
 180f314:	109ede04 	addi	r2,r2,31608
 180f318:	e0bfff15 	stw	r2,-4(fp)
 180f31c:	e0bfff17 	ldw	r2,-4(fp)
}
 180f320:	e037883a 	mov	sp,fp
 180f324:	dfc00117 	ldw	ra,4(sp)
 180f328:	df000017 	ldw	fp,0(sp)
 180f32c:	dec00204 	addi	sp,sp,8
 180f330:	f800283a 	ret

0180f334 <alt_irq_init>:
 * The "base" parameter is ignored and only
 * present for backwards-compatibility.
 */

void alt_irq_init ( const void* base )
{
 180f334:	defffd04 	addi	sp,sp,-12
 180f338:	dfc00215 	stw	ra,8(sp)
 180f33c:	df000115 	stw	fp,4(sp)
 180f340:	df000104 	addi	fp,sp,4
 180f344:	e13fff15 	stw	r4,-4(fp)
    ALTERA_NIOS2_IRQ_INIT ( CPU, cpu);
 180f348:	18144240 	call	1814424 <altera_nios2_irq_init>
 * alt_irq_cpu_enable_interrupts() enables the CPU to start taking interrupts.
 */
static ALT_INLINE void ALT_ALWAYS_INLINE 
       alt_irq_cpu_enable_interrupts ()
{
    NIOS2_WRITE_STATUS(NIOS2_STATUS_PIE_MSK
 180f34c:	00800044 	movi	r2,1
 180f350:	1001703a 	wrctl	status,r2
    alt_irq_cpu_enable_interrupts();
}
 180f354:	e037883a 	mov	sp,fp
 180f358:	dfc00117 	ldw	ra,4(sp)
 180f35c:	df000017 	ldw	fp,0(sp)
 180f360:	dec00204 	addi	sp,sp,8
 180f364:	f800283a 	ret

0180f368 <alt_sys_init>:
 * Initialize the non-interrupt controller devices.
 * Called after alt_irq_init().
 */

void alt_sys_init( void )
{
 180f368:	defffe04 	addi	sp,sp,-8
 180f36c:	dfc00115 	stw	ra,4(sp)
 180f370:	df000015 	stw	fp,0(sp)
 180f374:	d839883a 	mov	fp,sp
    ALTERA_AVALON_TIMER_INIT ( PROFILE_TIMER, profile_timer);
 180f378:	00806074 	movhi	r2,385
 180f37c:	109ee204 	addi	r2,r2,31624
 180f380:	10000015 	stw	zero,0(r2)
 180f384:	00c06074 	movhi	r3,385
 180f388:	18dee304 	addi	r3,r3,31628
 180f38c:	00802674 	movhi	r2,153
 180f390:	10a5a004 	addi	r2,r2,-27008
 180f394:	18800015 	stw	r2,0(r3)
    ALTERA_AVALON_TIMER_INIT ( TIMER, timer);
 180f398:	01001004 	movi	r4,64
 180f39c:	000b883a 	mov	r5,zero
 180f3a0:	01800084 	movi	r6,2
 180f3a4:	01c0fa04 	movi	r7,1000
 180f3a8:	1812bd00 	call	1812bd0 <alt_avalon_timer_sc_init>
    ALTERA_AVALON_TIMER_INIT ( USER_TIMER, user_timer);
    ALTERA_AVALON_CFI_FLASH_INIT ( CFI_FLASH, cfi_flash);
 180f3ac:	01006074 	movhi	r4,385
 180f3b0:	2119fc04 	addi	r4,r4,26608
 180f3b4:	180f45c0 	call	180f45c <alt_flash_cfi_init>
    ALTERA_AVALON_JTAG_UART_INIT ( JTAG_UART, jtag_uart);
 180f3b8:	01006074 	movhi	r4,385
 180f3bc:	211a3c04 	addi	r4,r4,26864
 180f3c0:	000b883a 	mov	r5,zero
 180f3c4:	000d883a 	mov	r6,zero
 180f3c8:	18112c40 	call	18112c4 <altera_avalon_jtag_uart_init>
 180f3cc:	01006074 	movhi	r4,385
 180f3d0:	211a3204 	addi	r4,r4,26824
 180f3d4:	180f4240 	call	180f424 <alt_dev_reg>
    ALTERA_AVALON_LCD_16207_INIT ( LCD, lcd);
 180f3d8:	01006074 	movhi	r4,385
 180f3dc:	211e5404 	addi	r4,r4,31056
 180f3e0:	18129cc0 	call	18129cc <altera_avalon_lcd_16207_init>
 180f3e4:	01006074 	movhi	r4,385
 180f3e8:	211e4a04 	addi	r4,r4,31016
 180f3ec:	180f4240 	call	180f424 <alt_dev_reg>
    ALTERA_AVALON_SYSID_INIT ( SYSID, sysid);
    ALTERA_AVALON_UART_INIT ( UART, uart);
 180f3f0:	01006074 	movhi	r4,385
 180f3f4:	211e9c04 	addi	r4,r4,31344
 180f3f8:	000b883a 	mov	r5,zero
 180f3fc:	01800044 	movi	r6,1
 180f400:	1812d580 	call	1812d58 <altera_avalon_uart_init>
 180f404:	01006074 	movhi	r4,385
 180f408:	211e9204 	addi	r4,r4,31304
 180f40c:	180f4240 	call	180f424 <alt_dev_reg>
}
 180f410:	e037883a 	mov	sp,fp
 180f414:	dfc00117 	ldw	ra,4(sp)
 180f418:	df000017 	ldw	fp,0(sp)
 180f41c:	dec00204 	addi	sp,sp,8
 180f420:	f800283a 	ret

0180f424 <alt_dev_reg>:
 */

extern int alt_fs_reg  (alt_dev* dev); 

static ALT_INLINE int alt_dev_reg (alt_dev* dev)
{
 180f424:	defffd04 	addi	sp,sp,-12
 180f428:	dfc00215 	stw	ra,8(sp)
 180f42c:	df000115 	stw	fp,4(sp)
 180f430:	df000104 	addi	fp,sp,4
 180f434:	e13fff15 	stw	r4,-4(fp)
  extern alt_llist alt_dev_list;

  return alt_dev_llist_insert ((alt_dev_llist*) dev, &alt_dev_list);
 180f438:	e13fff17 	ldw	r4,-4(fp)
 180f43c:	01406074 	movhi	r5,385
 180f440:	295ecc04 	addi	r5,r5,31536
 180f444:	18139080 	call	1813908 <alt_dev_llist_insert>
}
 180f448:	e037883a 	mov	sp,fp
 180f44c:	dfc00117 	ldw	ra,4(sp)
 180f450:	df000017 	ldw	fp,0(sp)
 180f454:	dec00204 	addi	sp,sp,8
 180f458:	f800283a 	ret

0180f45c <alt_flash_cfi_init>:
 * Read the CFI table and fill out the alt_flash_cfi_dev structure with all the 
 * information we need to program the flash.
 * 
 */
int alt_flash_cfi_init( alt_flash_cfi_dev* flash  )
{
 180f45c:	defffc04 	addi	sp,sp,-16
 180f460:	dfc00315 	stw	ra,12(sp)
 180f464:	df000215 	stw	fp,8(sp)
 180f468:	df000204 	addi	fp,sp,8
 180f46c:	e13fff15 	stw	r4,-4(fp)
  int ret_code = 0;
 180f470:	e03ffe15 	stw	zero,-8(fp)
 
  ret_code = alt_read_cfi_width( flash );
 180f474:	e13fff17 	ldw	r4,-4(fp)
 180f478:	18108f40 	call	18108f4 <alt_read_cfi_width>
 180f47c:	e0bffe15 	stw	r2,-8(fp)
  
  if (!ret_code)
 180f480:	e0bffe17 	ldw	r2,-8(fp)
 180f484:	1004c03a 	cmpne	r2,r2,zero
 180f488:	1000031e 	bne	r2,zero,180f498 <alt_flash_cfi_init+0x3c>
    ret_code = alt_set_flash_width_func( flash );
 180f48c:	e13fff17 	ldw	r4,-4(fp)
 180f490:	181006c0 	call	181006c <alt_set_flash_width_func>
 180f494:	e0bffe15 	stw	r2,-8(fp)
  
  if (!ret_code)
 180f498:	e0bffe17 	ldw	r2,-8(fp)
 180f49c:	1004c03a 	cmpne	r2,r2,zero
 180f4a0:	1000031e 	bne	r2,zero,180f4b0 <alt_flash_cfi_init+0x54>
    ret_code = alt_read_cfi_table( flash );
 180f4a4:	e13fff17 	ldw	r4,-4(fp)
 180f4a8:	18103740 	call	1810374 <alt_read_cfi_table>
 180f4ac:	e0bffe15 	stw	r2,-8(fp)

  if (!ret_code) 
 180f4b0:	e0bffe17 	ldw	r2,-8(fp)
 180f4b4:	1004c03a 	cmpne	r2,r2,zero
 180f4b8:	1000031e 	bne	r2,zero,180f4c8 <alt_flash_cfi_init+0x6c>
    ret_code = alt_set_flash_algorithm_func( flash);
 180f4bc:	e13fff17 	ldw	r4,-4(fp)
 180f4c0:	181024c0 	call	181024c <alt_set_flash_algorithm_func>
 180f4c4:	e0bffe15 	stw	r2,-8(fp)

  /*
  *  Register this device as a valid flash device type
  */ 
  if (!ret_code)
 180f4c8:	e0bffe17 	ldw	r2,-8(fp)
 180f4cc:	1004c03a 	cmpne	r2,r2,zero
 180f4d0:	1000031e 	bne	r2,zero,180f4e0 <alt_flash_cfi_init+0x84>
    ret_code = alt_flash_device_register(&(flash->dev));
 180f4d4:	e13fff17 	ldw	r4,-4(fp)
 180f4d8:	180f4f80 	call	180f4f8 <alt_flash_device_register>
 180f4dc:	e0bffe15 	stw	r2,-8(fp)
 
  return ret_code;
 180f4e0:	e0bffe17 	ldw	r2,-8(fp)
}
 180f4e4:	e037883a 	mov	sp,fp
 180f4e8:	dfc00117 	ldw	ra,4(sp)
 180f4ec:	df000017 	ldw	fp,0(sp)
 180f4f0:	dec00204 	addi	sp,sp,8
 180f4f4:	f800283a 	ret

0180f4f8 <alt_flash_device_register>:

typedef struct alt_flash_dev alt_flash_dev; 
typedef alt_flash_dev alt_flash_fd;

static ALT_INLINE int alt_flash_device_register( alt_flash_fd* fd)
{
 180f4f8:	defffd04 	addi	sp,sp,-12
 180f4fc:	dfc00215 	stw	ra,8(sp)
 180f500:	df000115 	stw	fp,4(sp)
 180f504:	df000104 	addi	fp,sp,4
 180f508:	e13fff15 	stw	r4,-4(fp)
  extern alt_llist alt_flash_dev_list;

  return alt_dev_llist_insert ((alt_dev_llist*) fd, &alt_flash_dev_list);
 180f50c:	e13fff17 	ldw	r4,-4(fp)
 180f510:	01406074 	movhi	r5,385
 180f514:	295ed204 	addi	r5,r5,31560
 180f518:	18139080 	call	1813908 <alt_dev_llist_insert>
}
 180f51c:	e037883a 	mov	sp,fp
 180f520:	dfc00117 	ldw	ra,4(sp)
 180f524:	df000017 	ldw	fp,0(sp)
 180f528:	dec00204 	addi	sp,sp,8
 180f52c:	f800283a 	ret

0180f530 <alt_flash_cfi_write>:
 * large buffer to tie up in our programming library, when not all users will 
 * want that functionality.
 */
 int alt_flash_cfi_write( alt_flash_dev* flash_info, int offset, 
                          const void* src_addr, int length )
 {
 180f530:	deffef04 	addi	sp,sp,-68
 180f534:	dfc01015 	stw	ra,64(sp)
 180f538:	df000f15 	stw	fp,60(sp)
 180f53c:	df000f04 	addi	fp,sp,60
 180f540:	e13ffa15 	stw	r4,-24(fp)
 180f544:	e17ffb15 	stw	r5,-20(fp)
 180f548:	e1bffc15 	stw	r6,-16(fp)
 180f54c:	e1fffd15 	stw	r7,-12(fp)
  int         ret_code = 0;
 180f550:	e03ff915 	stw	zero,-28(fp)
  int         i,j;
  int         data_to_write;
  int         full_length = length;
 180f554:	e0bffd17 	ldw	r2,-12(fp)
 180f558:	e0bff515 	stw	r2,-44(fp)
  int         current_offset;
  int         start_offset = offset;
 180f55c:	e0bffb17 	ldw	r2,-20(fp)
 180f560:	e0bff315 	stw	r2,-52(fp)
  alt_flash_cfi_dev* flash = (alt_flash_cfi_dev*)flash_info;
 180f564:	e0bffa17 	ldw	r2,-24(fp)
 180f568:	e0bff215 	stw	r2,-56(fp)

  /*
   * First and foremost which sectors are affected?
   */   
  for(i=0;i<flash->dev.number_of_regions;i++)
 180f56c:	e03ff815 	stw	zero,-32(fp)
 180f570:	00008e06 	br	180f7ac <alt_flash_cfi_write+0x27c>
  {
    /* Is it in this erase block region?*/
    if((offset >= flash->dev.region_info[i].offset) &&
 180f574:	e0bff817 	ldw	r2,-32(fp)
 180f578:	e0fff217 	ldw	r3,-56(fp)
 180f57c:	1004913a 	slli	r2,r2,4
 180f580:	10c5883a 	add	r2,r2,r3
 180f584:	10800d04 	addi	r2,r2,52
 180f588:	10c00017 	ldw	r3,0(r2)
 180f58c:	e0bffb17 	ldw	r2,-20(fp)
 180f590:	10c08316 	blt	r2,r3,180f7a0 <alt_flash_cfi_write+0x270>
 180f594:	e0bff817 	ldw	r2,-32(fp)
 180f598:	e0fff217 	ldw	r3,-56(fp)
 180f59c:	1004913a 	slli	r2,r2,4
 180f5a0:	10c5883a 	add	r2,r2,r3
 180f5a4:	10800d04 	addi	r2,r2,52
 180f5a8:	11000017 	ldw	r4,0(r2)
 180f5ac:	e0bff817 	ldw	r2,-32(fp)
 180f5b0:	e0fff217 	ldw	r3,-56(fp)
 180f5b4:	1004913a 	slli	r2,r2,4
 180f5b8:	10c5883a 	add	r2,r2,r3
 180f5bc:	10800e04 	addi	r2,r2,56
 180f5c0:	10800017 	ldw	r2,0(r2)
 180f5c4:	2087883a 	add	r3,r4,r2
 180f5c8:	e0bffb17 	ldw	r2,-20(fp)
 180f5cc:	10c0740e 	bge	r2,r3,180f7a0 <alt_flash_cfi_write+0x270>
      (offset < (flash->dev.region_info[i].offset + 
      flash->dev.region_info[i].region_size)))
    {
      current_offset = flash->dev.region_info[i].offset;
 180f5d0:	e0bff817 	ldw	r2,-32(fp)
 180f5d4:	e0fff217 	ldw	r3,-56(fp)
 180f5d8:	1004913a 	slli	r2,r2,4
 180f5dc:	10c5883a 	add	r2,r2,r3
 180f5e0:	10800d04 	addi	r2,r2,52
 180f5e4:	10800017 	ldw	r2,0(r2)
 180f5e8:	e0bff415 	stw	r2,-48(fp)

      for(j=0;j<flash->dev.region_info[i].number_of_blocks;j++)
 180f5ec:	e03ff715 	stw	zero,-36(fp)
 180f5f0:	00006306 	br	180f780 <alt_flash_cfi_write+0x250>
      {
        if ((offset >= current_offset ) && 
 180f5f4:	e0fffb17 	ldw	r3,-20(fp)
 180f5f8:	e0bff417 	ldw	r2,-48(fp)
 180f5fc:	18805416 	blt	r3,r2,180f750 <alt_flash_cfi_write+0x220>
 180f600:	e0bff817 	ldw	r2,-32(fp)
 180f604:	e0fff217 	ldw	r3,-56(fp)
 180f608:	1004913a 	slli	r2,r2,4
 180f60c:	10c5883a 	add	r2,r2,r3
 180f610:	10801004 	addi	r2,r2,64
 180f614:	10c00017 	ldw	r3,0(r2)
 180f618:	e0bff417 	ldw	r2,-48(fp)
 180f61c:	1887883a 	add	r3,r3,r2
 180f620:	e0bffb17 	ldw	r2,-20(fp)
 180f624:	10c04a0e 	bge	r2,r3,180f750 <alt_flash_cfi_write+0x220>
        {
          /*
           * Check if the contents of the block are different
           * from the data we wish to put there
           */
          data_to_write = ( current_offset + flash->dev.region_info[i].block_size 
 180f628:	e0bff817 	ldw	r2,-32(fp)
 180f62c:	e0fff217 	ldw	r3,-56(fp)
 180f630:	1004913a 	slli	r2,r2,4
 180f634:	10c5883a 	add	r2,r2,r3
 180f638:	10801004 	addi	r2,r2,64
 180f63c:	10c00017 	ldw	r3,0(r2)
 180f640:	e0bff417 	ldw	r2,-48(fp)
 180f644:	1887883a 	add	r3,r3,r2
 180f648:	e0bffb17 	ldw	r2,-20(fp)
 180f64c:	1885c83a 	sub	r2,r3,r2
 180f650:	e0bff615 	stw	r2,-40(fp)
                            - offset); 
          data_to_write = MIN(data_to_write, length);
 180f654:	e0bff617 	ldw	r2,-40(fp)
 180f658:	e0bfff15 	stw	r2,-4(fp)
 180f65c:	e0fffd17 	ldw	r3,-12(fp)
 180f660:	e0fffe15 	stw	r3,-8(fp)
 180f664:	e0bfff17 	ldw	r2,-4(fp)
 180f668:	e0fffe17 	ldw	r3,-8(fp)
 180f66c:	10c0020e 	bge	r2,r3,180f678 <alt_flash_cfi_write+0x148>
 180f670:	e0bfff17 	ldw	r2,-4(fp)
 180f674:	e0bffe15 	stw	r2,-8(fp)
 180f678:	e0fffe17 	ldw	r3,-8(fp)
 180f67c:	e0fff615 	stw	r3,-40(fp)
          if(memcmp(src_addr, 
 180f680:	e0bff217 	ldw	r2,-56(fp)
 180f684:	10800a17 	ldw	r2,40(r2)
 180f688:	1007883a 	mov	r3,r2
 180f68c:	e0bffb17 	ldw	r2,-20(fp)
 180f690:	188b883a 	add	r5,r3,r2
 180f694:	e1bff617 	ldw	r6,-40(fp)
 180f698:	e13ffc17 	ldw	r4,-16(fp)
 180f69c:	18150980 	call	1815098 <memcmp>
 180f6a0:	1005003a 	cmpeq	r2,r2,zero
 180f6a4:	1000131e 	bne	r2,zero,180f6f4 <alt_flash_cfi_write+0x1c4>
                    (alt_u8*)flash->dev.base_addr+offset,
                    data_to_write))
          {
            ret_code = (*flash->dev.erase_block)( &flash->dev, current_offset);
 180f6a8:	e0bff217 	ldw	r2,-56(fp)
 180f6ac:	10800817 	ldw	r2,32(r2)
 180f6b0:	e13ff217 	ldw	r4,-56(fp)
 180f6b4:	e17ff417 	ldw	r5,-48(fp)
 180f6b8:	103ee83a 	callr	r2
 180f6bc:	e0bff915 	stw	r2,-28(fp)

            if (!ret_code)
 180f6c0:	e0bff917 	ldw	r2,-28(fp)
 180f6c4:	1004c03a 	cmpne	r2,r2,zero
 180f6c8:	10000a1e 	bne	r2,zero,180f6f4 <alt_flash_cfi_write+0x1c4>
            {
              ret_code = (*flash->dev.write_block)( 
 180f6cc:	e0bff217 	ldw	r2,-56(fp)
 180f6d0:	10c00917 	ldw	r3,36(r2)
 180f6d4:	e13ff217 	ldw	r4,-56(fp)
 180f6d8:	e0bff617 	ldw	r2,-40(fp)
 180f6dc:	d8800015 	stw	r2,0(sp)
 180f6e0:	e17ff417 	ldw	r5,-48(fp)
 180f6e4:	e1bffb17 	ldw	r6,-20(fp)
 180f6e8:	e1fffc17 	ldw	r7,-16(fp)
 180f6ec:	183ee83a 	callr	r3
 180f6f0:	e0bff915 	stw	r2,-28(fp)
                                                  data_to_write);
            }
          }    
    
          /* Was this the last block? */    
          if ((length == data_to_write) || ret_code)
 180f6f4:	e0fffd17 	ldw	r3,-12(fp)
 180f6f8:	e0bff617 	ldw	r2,-40(fp)
 180f6fc:	18802f26 	beq	r3,r2,180f7bc <alt_flash_cfi_write+0x28c>
 180f700:	e0bff917 	ldw	r2,-28(fp)
 180f704:	1004c03a 	cmpne	r2,r2,zero
 180f708:	10002c1e 	bne	r2,zero,180f7bc <alt_flash_cfi_write+0x28c>
          {
            goto finished;
          }
          
          length -= data_to_write;
 180f70c:	e0fffd17 	ldw	r3,-12(fp)
 180f710:	e0bff617 	ldw	r2,-40(fp)
 180f714:	1885c83a 	sub	r2,r3,r2
 180f718:	e0bffd15 	stw	r2,-12(fp)
          offset = current_offset + flash->dev.region_info[i].block_size;
 180f71c:	e0bff817 	ldw	r2,-32(fp)
 180f720:	e0fff217 	ldw	r3,-56(fp)
 180f724:	1004913a 	slli	r2,r2,4
 180f728:	10c5883a 	add	r2,r2,r3
 180f72c:	10801004 	addi	r2,r2,64
 180f730:	10c00017 	ldw	r3,0(r2)
 180f734:	e0bff417 	ldw	r2,-48(fp)
 180f738:	1885883a 	add	r2,r3,r2
 180f73c:	e0bffb15 	stw	r2,-20(fp)
          src_addr = (alt_u8*)src_addr + data_to_write;
 180f740:	e0fffc17 	ldw	r3,-16(fp)
 180f744:	e0bff617 	ldw	r2,-40(fp)
 180f748:	1885883a 	add	r2,r3,r2
 180f74c:	e0bffc15 	stw	r2,-16(fp)
        }
        current_offset += flash->dev.region_info[i].block_size;
 180f750:	e0bff817 	ldw	r2,-32(fp)
 180f754:	e0fff217 	ldw	r3,-56(fp)
 180f758:	1004913a 	slli	r2,r2,4
 180f75c:	10c5883a 	add	r2,r2,r3
 180f760:	10801004 	addi	r2,r2,64
 180f764:	10c00017 	ldw	r3,0(r2)
 180f768:	e0bff417 	ldw	r2,-48(fp)
 180f76c:	10c5883a 	add	r2,r2,r3
 180f770:	e0bff415 	stw	r2,-48(fp)
      (offset < (flash->dev.region_info[i].offset + 
      flash->dev.region_info[i].region_size)))
    {
      current_offset = flash->dev.region_info[i].offset;

      for(j=0;j<flash->dev.region_info[i].number_of_blocks;j++)
 180f774:	e0bff717 	ldw	r2,-36(fp)
 180f778:	10800044 	addi	r2,r2,1
 180f77c:	e0bff715 	stw	r2,-36(fp)
 180f780:	e0bff817 	ldw	r2,-32(fp)
 180f784:	e0fff217 	ldw	r3,-56(fp)
 180f788:	1004913a 	slli	r2,r2,4
 180f78c:	10c5883a 	add	r2,r2,r3
 180f790:	10800f04 	addi	r2,r2,60
 180f794:	10c00017 	ldw	r3,0(r2)
 180f798:	e0bff717 	ldw	r2,-36(fp)
 180f79c:	10ff9516 	blt	r2,r3,180f5f4 <alt_flash_cfi_write+0xc4>
  alt_flash_cfi_dev* flash = (alt_flash_cfi_dev*)flash_info;

  /*
   * First and foremost which sectors are affected?
   */   
  for(i=0;i<flash->dev.number_of_regions;i++)
 180f7a0:	e0bff817 	ldw	r2,-32(fp)
 180f7a4:	10800044 	addi	r2,r2,1
 180f7a8:	e0bff815 	stw	r2,-32(fp)
 180f7ac:	e0bff217 	ldw	r2,-56(fp)
 180f7b0:	10c00c17 	ldw	r3,48(r2)
 180f7b4:	e0bff817 	ldw	r2,-32(fp)
 180f7b8:	10ff6e16 	blt	r2,r3,180f574 <alt_flash_cfi_write+0x44>
      }     
    } 
  }
finished:    

  alt_dcache_flush((alt_u8*)flash->dev.base_addr+start_offset, full_length);
 180f7bc:	e0bff217 	ldw	r2,-56(fp)
 180f7c0:	10800a17 	ldw	r2,40(r2)
 180f7c4:	1007883a 	mov	r3,r2
 180f7c8:	e0bff317 	ldw	r2,-52(fp)
 180f7cc:	1889883a 	add	r4,r3,r2
 180f7d0:	e17ff517 	ldw	r5,-44(fp)
 180f7d4:	18138900 	call	1813890 <alt_dcache_flush>
  return ret_code;
 180f7d8:	e0bff917 	ldw	r2,-28(fp)
}
 180f7dc:	e037883a 	mov	sp,fp
 180f7e0:	dfc00117 	ldw	ra,4(sp)
 180f7e4:	df000017 	ldw	fp,0(sp)
 180f7e8:	dec00204 	addi	sp,sp,8
 180f7ec:	f800283a 	ret

0180f7f0 <alt_flash_cfi_get_info>:
 * 
 *  Pass the table of erase blocks to the user
 */
int alt_flash_cfi_get_info( alt_flash_fd* fd, flash_region** info, 
                            int* number_of_regions)
{
 180f7f0:	defffa04 	addi	sp,sp,-24
 180f7f4:	df000515 	stw	fp,20(sp)
 180f7f8:	df000504 	addi	fp,sp,20
 180f7fc:	e13ffd15 	stw	r4,-12(fp)
 180f800:	e17ffe15 	stw	r5,-8(fp)
 180f804:	e1bfff15 	stw	r6,-4(fp)
  int ret_code = 0;
 180f808:	e03ffc15 	stw	zero,-16(fp)
  alt_flash_dev* flash = (alt_flash_dev*)fd;
 180f80c:	e0bffd17 	ldw	r2,-12(fp)
 180f810:	e0bffb15 	stw	r2,-20(fp)

  *number_of_regions = flash->number_of_regions;
 180f814:	e0bffb17 	ldw	r2,-20(fp)
 180f818:	10c00c17 	ldw	r3,48(r2)
 180f81c:	e0bfff17 	ldw	r2,-4(fp)
 180f820:	10c00015 	stw	r3,0(r2)

  if (!flash->number_of_regions)
 180f824:	e0bffb17 	ldw	r2,-20(fp)
 180f828:	10800c17 	ldw	r2,48(r2)
 180f82c:	1004c03a 	cmpne	r2,r2,zero
 180f830:	1000031e 	bne	r2,zero,180f840 <alt_flash_cfi_get_info+0x50>
  {
    ret_code = -EIO;
 180f834:	00bffec4 	movi	r2,-5
 180f838:	e0bffc15 	stw	r2,-16(fp)
 180f83c:	00000b06 	br	180f86c <alt_flash_cfi_get_info+0x7c>
  }
  else if (flash->number_of_regions > ALT_MAX_NUMBER_OF_FLASH_REGIONS)
 180f840:	e0bffb17 	ldw	r2,-20(fp)
 180f844:	10800c17 	ldw	r2,48(r2)
 180f848:	10800250 	cmplti	r2,r2,9
 180f84c:	1000031e 	bne	r2,zero,180f85c <alt_flash_cfi_get_info+0x6c>
  {
    ret_code = -ENOMEM;
 180f850:	00bffd04 	movi	r2,-12
 180f854:	e0bffc15 	stw	r2,-16(fp)
 180f858:	00000406 	br	180f86c <alt_flash_cfi_get_info+0x7c>
  }
  else
  {
    *info = &flash->region_info[0];
 180f85c:	e0bffb17 	ldw	r2,-20(fp)
 180f860:	10c00d04 	addi	r3,r2,52
 180f864:	e0bffe17 	ldw	r2,-8(fp)
 180f868:	10c00015 	stw	r3,0(r2)
  }

  return ret_code;
 180f86c:	e0bffc17 	ldw	r2,-16(fp)
}
 180f870:	e037883a 	mov	sp,fp
 180f874:	df000017 	ldw	fp,0(sp)
 180f878:	dec00104 	addi	sp,sp,4
 180f87c:	f800283a 	ret

0180f880 <alt_flash_cfi_read>:
 *  Read from an area in flash, you could use memcopy yourself
 *  for these flash types, but we're trying to be generic and future proof
 */
int alt_flash_cfi_read( alt_flash_dev* flash_info, int offset, 
                        void* dest_addr, int length )
{
 180f880:	defff904 	addi	sp,sp,-28
 180f884:	dfc00615 	stw	ra,24(sp)
 180f888:	df000515 	stw	fp,20(sp)
 180f88c:	df000504 	addi	fp,sp,20
 180f890:	e13ffc15 	stw	r4,-16(fp)
 180f894:	e17ffd15 	stw	r5,-12(fp)
 180f898:	e1bffe15 	stw	r6,-8(fp)
 180f89c:	e1ffff15 	stw	r7,-4(fp)
  alt_flash_cfi_dev* flash = (alt_flash_cfi_dev*)flash_info;
 180f8a0:	e0bffc17 	ldw	r2,-16(fp)
 180f8a4:	e0bffb15 	stw	r2,-20(fp)
  memcpy(dest_addr, (alt_u8*)flash->dev.base_addr+offset, length);
 180f8a8:	e0bffb17 	ldw	r2,-20(fp)
 180f8ac:	10800a17 	ldw	r2,40(r2)
 180f8b0:	1007883a 	mov	r3,r2
 180f8b4:	e0bffd17 	ldw	r2,-12(fp)
 180f8b8:	1887883a 	add	r3,r3,r2
 180f8bc:	e1bfff17 	ldw	r6,-4(fp)
 180f8c0:	e0bffe17 	ldw	r2,-8(fp)
 180f8c4:	1009883a 	mov	r4,r2
 180f8c8:	180b883a 	mov	r5,r3
 180f8cc:	18069380 	call	1806938 <memcpy>
  return 0;
 180f8d0:	0005883a 	mov	r2,zero
}
 180f8d4:	e037883a 	mov	sp,fp
 180f8d8:	dfc00117 	ldw	ra,4(sp)
 180f8dc:	df000017 	ldw	fp,0(sp)
 180f8e0:	dec00204 	addi	sp,sp,8
 180f8e4:	f800283a 	ret

0180f8e8 <alt_write_value_to_flash>:
* It writes the largest word size that the flash can support
* so if it's an 8 bit flash it writes bytes
* 16 bit half word etc.
*/
void alt_write_value_to_flash(alt_flash_cfi_dev* flash, int offset, const alt_u8* src_addr)
{
 180f8e8:	defffa04 	addi	sp,sp,-24
 180f8ec:	df000515 	stw	fp,20(sp)
 180f8f0:	df000504 	addi	fp,sp,20
 180f8f4:	e13ffd15 	stw	r4,-12(fp)
 180f8f8:	e17ffe15 	stw	r5,-8(fp)
 180f8fc:	e1bfff15 	stw	r6,-4(fp)
  alt_u16 half_word_value;
  alt_u32 word_value;

  if (flash->mode_width == 1)
 180f900:	e0bffd17 	ldw	r2,-12(fp)
 180f904:	10802e17 	ldw	r2,184(r2)
 180f908:	10800058 	cmpnei	r2,r2,1
 180f90c:	10000b1e 	bne	r2,zero,180f93c <alt_write_value_to_flash+0x54>
  {
    IOWR_8DIRECT(flash->dev.base_addr, offset, *src_addr);
 180f910:	e0bffd17 	ldw	r2,-12(fp)
 180f914:	10800a17 	ldw	r2,40(r2)
 180f918:	1007883a 	mov	r3,r2
 180f91c:	e0bffe17 	ldw	r2,-8(fp)
 180f920:	1889883a 	add	r4,r3,r2
 180f924:	e0bfff17 	ldw	r2,-4(fp)
 180f928:	10800003 	ldbu	r2,0(r2)
 180f92c:	10c03fcc 	andi	r3,r2,255
 180f930:	2005883a 	mov	r2,r4
 180f934:	10c00025 	stbio	r3,0(r2)
 180f938:	00004006 	br	180fa3c <alt_write_value_to_flash+0x154>
  }
  else if (flash->mode_width == 2)
 180f93c:	e0bffd17 	ldw	r2,-12(fp)
 180f940:	10802e17 	ldw	r2,184(r2)
 180f944:	10800098 	cmpnei	r2,r2,2
 180f948:	1000151e 	bne	r2,zero,180f9a0 <alt_write_value_to_flash+0xb8>
  {
    half_word_value = (alt_u16)(*src_addr);
 180f94c:	e0bfff17 	ldw	r2,-4(fp)
 180f950:	10800003 	ldbu	r2,0(r2)
 180f954:	10803fcc 	andi	r2,r2,255
 180f958:	e0bffc0d 	sth	r2,-16(fp)
    half_word_value |= (alt_u16)(*(src_addr + 1)) << 8;
 180f95c:	e0bfff17 	ldw	r2,-4(fp)
 180f960:	10800044 	addi	r2,r2,1
 180f964:	10800003 	ldbu	r2,0(r2)
 180f968:	10803fcc 	andi	r2,r2,255
 180f96c:	1004923a 	slli	r2,r2,8
 180f970:	1007883a 	mov	r3,r2
 180f974:	e0bffc0b 	ldhu	r2,-16(fp)
 180f978:	1884b03a 	or	r2,r3,r2
 180f97c:	e0bffc0d 	sth	r2,-16(fp)
    IOWR_16DIRECT(flash->dev.base_addr, offset, half_word_value);
 180f980:	e0bffd17 	ldw	r2,-12(fp)
 180f984:	10800a17 	ldw	r2,40(r2)
 180f988:	1007883a 	mov	r3,r2
 180f98c:	e0bffe17 	ldw	r2,-8(fp)
 180f990:	1885883a 	add	r2,r3,r2
 180f994:	e0fffc0b 	ldhu	r3,-16(fp)
 180f998:	10c0002d 	sthio	r3,0(r2)
 180f99c:	00002706 	br	180fa3c <alt_write_value_to_flash+0x154>
  }
  else if (flash->mode_width == 4)
 180f9a0:	e0bffd17 	ldw	r2,-12(fp)
 180f9a4:	10802e17 	ldw	r2,184(r2)
 180f9a8:	10800118 	cmpnei	r2,r2,4
 180f9ac:	1000231e 	bne	r2,zero,180fa3c <alt_write_value_to_flash+0x154>
  {
    word_value = (alt_u32)(*src_addr);
 180f9b0:	e0bfff17 	ldw	r2,-4(fp)
 180f9b4:	10800003 	ldbu	r2,0(r2)
 180f9b8:	10803fcc 	andi	r2,r2,255
 180f9bc:	e0bffb15 	stw	r2,-20(fp)
    word_value |= ((alt_u32)(*(src_addr + 1)) << 8);
 180f9c0:	e0bfff17 	ldw	r2,-4(fp)
 180f9c4:	10800044 	addi	r2,r2,1
 180f9c8:	10800003 	ldbu	r2,0(r2)
 180f9cc:	10803fcc 	andi	r2,r2,255
 180f9d0:	1006923a 	slli	r3,r2,8
 180f9d4:	e0bffb17 	ldw	r2,-20(fp)
 180f9d8:	10c4b03a 	or	r2,r2,r3
 180f9dc:	e0bffb15 	stw	r2,-20(fp)
    word_value |= ((alt_u32)(*(src_addr + 2)) << 16);
 180f9e0:	e0bfff17 	ldw	r2,-4(fp)
 180f9e4:	10800084 	addi	r2,r2,2
 180f9e8:	10800003 	ldbu	r2,0(r2)
 180f9ec:	10803fcc 	andi	r2,r2,255
 180f9f0:	1006943a 	slli	r3,r2,16
 180f9f4:	e0bffb17 	ldw	r2,-20(fp)
 180f9f8:	10c4b03a 	or	r2,r2,r3
 180f9fc:	e0bffb15 	stw	r2,-20(fp)
    word_value |= ((alt_u32)(*(src_addr + 3)) << 24);
 180fa00:	e0bfff17 	ldw	r2,-4(fp)
 180fa04:	108000c4 	addi	r2,r2,3
 180fa08:	10800003 	ldbu	r2,0(r2)
 180fa0c:	10803fcc 	andi	r2,r2,255
 180fa10:	1006963a 	slli	r3,r2,24
 180fa14:	e0bffb17 	ldw	r2,-20(fp)
 180fa18:	10c4b03a 	or	r2,r2,r3
 180fa1c:	e0bffb15 	stw	r2,-20(fp)
    IOWR_32DIRECT(flash->dev.base_addr, offset, word_value);
 180fa20:	e0bffd17 	ldw	r2,-12(fp)
 180fa24:	10800a17 	ldw	r2,40(r2)
 180fa28:	1007883a 	mov	r3,r2
 180fa2c:	e0bffe17 	ldw	r2,-8(fp)
 180fa30:	1885883a 	add	r2,r3,r2
 180fa34:	e0fffb17 	ldw	r3,-20(fp)
 180fa38:	10c00035 	stwio	r3,0(r2)
  }

  return;
}
 180fa3c:	e037883a 	mov	sp,fp
 180fa40:	df000017 	ldw	fp,0(sp)
 180fa44:	dec00104 	addi	sp,sp,4
 180fa48:	f800283a 	ret

0180fa4c <alt_flash_program_block>:
*/
int alt_flash_program_block(  alt_flash_cfi_dev* flash, const int offset, 
                        const alt_u8* src_addr, 
                        const int length,
                        alt_program_word_fn program_word_func)
{
 180fa4c:	defff304 	addi	sp,sp,-52
 180fa50:	dfc00c15 	stw	ra,48(sp)
 180fa54:	df000b15 	stw	fp,44(sp)
 180fa58:	df000b04 	addi	fp,sp,44
 180fa5c:	e13ffc15 	stw	r4,-16(fp)
 180fa60:	e17ffd15 	stw	r5,-12(fp)
 180fa64:	e1bffe15 	stw	r6,-8(fp)
 180fa68:	e1ffff15 	stw	r7,-4(fp)
  int     ret_code = 0;
 180fa6c:	e03ffa15 	stw	zero,-24(fp)

  /*
   * First take care of any writes which are on none native boundaries
   * as far as the flash is concerned.
   */
  bytes_to_preserve = ((int)((alt_u8*)flash->dev.base_addr + offset) % 
 180fa70:	e0bffc17 	ldw	r2,-16(fp)
 180fa74:	10800a17 	ldw	r2,40(r2)
 180fa78:	1007883a 	mov	r3,r2
 180fa7c:	e0bffd17 	ldw	r2,-12(fp)
 180fa80:	1885883a 	add	r2,r3,r2
 180fa84:	1009883a 	mov	r4,r2
 180fa88:	e0bffc17 	ldw	r2,-16(fp)
 180fa8c:	10c02e17 	ldw	r3,184(r2)
 180fa90:	20c5283a 	div	r2,r4,r3
 180fa94:	10c5383a 	mul	r2,r2,r3
 180fa98:	2085c83a 	sub	r2,r4,r2
 180fa9c:	e0bff915 	stw	r2,-28(fp)
                      flash->mode_width);
  if ( bytes_to_preserve != 0)
 180faa0:	e0bff917 	ldw	r2,-28(fp)
 180faa4:	1005003a 	cmpeq	r2,r2,zero
 180faa8:	10003a1e 	bne	r2,zero,180fb94 <alt_flash_program_block+0x148>
  {
    unaligned_bytes = flash->mode_width - bytes_to_preserve;
 180faac:	e0bffc17 	ldw	r2,-16(fp)
 180fab0:	10c02e17 	ldw	r3,184(r2)
 180fab4:	e0bff917 	ldw	r2,-28(fp)
 180fab8:	1885c83a 	sub	r2,r3,r2
 180fabc:	e0bff815 	stw	r2,-32(fp)
    /*
     * Read the bytes we wish to preserve out of flash
     */
    for (i=0;i<bytes_to_preserve;i++)
 180fac0:	e03ff615 	stw	zero,-40(fp)
 180fac4:	00001206 	br	180fb10 <alt_flash_program_block+0xc4>
    {
      unaligned[i] = IORD_8DIRECT(flash->dev.base_addr, 
 180fac8:	e17ff617 	ldw	r5,-40(fp)
 180facc:	e0bffc17 	ldw	r2,-16(fp)
 180fad0:	10800a17 	ldw	r2,40(r2)
 180fad4:	1009883a 	mov	r4,r2
 180fad8:	e0fffd17 	ldw	r3,-12(fp)
 180fadc:	e0bff917 	ldw	r2,-28(fp)
 180fae0:	1887c83a 	sub	r3,r3,r2
 180fae4:	e0bff617 	ldw	r2,-40(fp)
 180fae8:	1885883a 	add	r2,r3,r2
 180faec:	2085883a 	add	r2,r4,r2
 180faf0:	10800023 	ldbuio	r2,0(r2)
 180faf4:	1007883a 	mov	r3,r2
 180faf8:	e0bffb04 	addi	r2,fp,-20
 180fafc:	1145883a 	add	r2,r2,r5
 180fb00:	10c00005 	stb	r3,0(r2)
  {
    unaligned_bytes = flash->mode_width - bytes_to_preserve;
    /*
     * Read the bytes we wish to preserve out of flash
     */
    for (i=0;i<bytes_to_preserve;i++)
 180fb04:	e0bff617 	ldw	r2,-40(fp)
 180fb08:	10800044 	addi	r2,r2,1
 180fb0c:	e0bff615 	stw	r2,-40(fp)
 180fb10:	e0fff617 	ldw	r3,-40(fp)
 180fb14:	e0bff917 	ldw	r2,-28(fp)
 180fb18:	18bfeb16 	blt	r3,r2,180fac8 <alt_flash_program_block+0x7c>
    {
      unaligned[i] = IORD_8DIRECT(flash->dev.base_addr, 
                                offset-bytes_to_preserve+i);
    }

    for (i=0;i<unaligned_bytes;i++)
 180fb1c:	e03ff615 	stw	zero,-40(fp)
 180fb20:	00000e06 	br	180fb5c <alt_flash_program_block+0x110>
    {
      unaligned[bytes_to_preserve + i] = *(alt_u8*)(src_addr + i);
 180fb24:	e0fff917 	ldw	r3,-28(fp)
 180fb28:	e0bff617 	ldw	r2,-40(fp)
 180fb2c:	1889883a 	add	r4,r3,r2
 180fb30:	e0bff617 	ldw	r2,-40(fp)
 180fb34:	1007883a 	mov	r3,r2
 180fb38:	e0bffe17 	ldw	r2,-8(fp)
 180fb3c:	1885883a 	add	r2,r3,r2
 180fb40:	10c00003 	ldbu	r3,0(r2)
 180fb44:	e0bffb04 	addi	r2,fp,-20
 180fb48:	1105883a 	add	r2,r2,r4
 180fb4c:	10c00005 	stb	r3,0(r2)
    {
      unaligned[i] = IORD_8DIRECT(flash->dev.base_addr, 
                                offset-bytes_to_preserve+i);
    }

    for (i=0;i<unaligned_bytes;i++)
 180fb50:	e0bff617 	ldw	r2,-40(fp)
 180fb54:	10800044 	addi	r2,r2,1
 180fb58:	e0bff615 	stw	r2,-40(fp)
 180fb5c:	e0fff617 	ldw	r3,-40(fp)
 180fb60:	e0bff817 	ldw	r2,-32(fp)
 180fb64:	18bfef16 	blt	r3,r2,180fb24 <alt_flash_program_block+0xd8>
    {
      unaligned[bytes_to_preserve + i] = *(alt_u8*)(src_addr + i);
    }
    
    ret_code = (*program_word_func)(flash, offset-bytes_to_preserve, unaligned);
 180fb68:	e0fffd17 	ldw	r3,-12(fp)
 180fb6c:	e0bff917 	ldw	r2,-28(fp)
 180fb70:	188bc83a 	sub	r5,r3,r2
 180fb74:	e1bffb04 	addi	r6,fp,-20
 180fb78:	e0800217 	ldw	r2,8(fp)
 180fb7c:	e13ffc17 	ldw	r4,-16(fp)
 180fb80:	103ee83a 	callr	r2
 180fb84:	e0bffa15 	stw	r2,-24(fp)
    i = unaligned_bytes;
 180fb88:	e0bff817 	ldw	r2,-32(fp)
 180fb8c:	e0bff615 	stw	r2,-40(fp)
 180fb90:	00000106 	br	180fb98 <alt_flash_program_block+0x14c>
  }
  else
  {
    i = 0;
 180fb94:	e03ff615 	stw	zero,-40(fp)
  }

  unaligned_end_bytes = (offset+length) % flash->mode_width;
 180fb98:	e0fffd17 	ldw	r3,-12(fp)
 180fb9c:	e0bfff17 	ldw	r2,-4(fp)
 180fba0:	1889883a 	add	r4,r3,r2
 180fba4:	e0bffc17 	ldw	r2,-16(fp)
 180fba8:	10c02e17 	ldw	r3,184(r2)
 180fbac:	20c5283a 	div	r2,r4,r3
 180fbb0:	10c5383a 	mul	r2,r2,r3
 180fbb4:	2085c83a 	sub	r2,r4,r2
 180fbb8:	e0bff715 	stw	r2,-36(fp)
  while ((ret_code == 0) && (i < (length-unaligned_end_bytes)))
 180fbbc:	00001006 	br	180fc00 <alt_flash_program_block+0x1b4>
  {
    ret_code = (*program_word_func)(flash, offset+i, src_addr+i);
 180fbc0:	e0fffd17 	ldw	r3,-12(fp)
 180fbc4:	e0bff617 	ldw	r2,-40(fp)
 180fbc8:	188b883a 	add	r5,r3,r2
 180fbcc:	e0bff617 	ldw	r2,-40(fp)
 180fbd0:	1007883a 	mov	r3,r2
 180fbd4:	e0bffe17 	ldw	r2,-8(fp)
 180fbd8:	188d883a 	add	r6,r3,r2
 180fbdc:	e0800217 	ldw	r2,8(fp)
 180fbe0:	e13ffc17 	ldw	r4,-16(fp)
 180fbe4:	103ee83a 	callr	r2
 180fbe8:	e0bffa15 	stw	r2,-24(fp)
    i += flash->mode_width;     
 180fbec:	e0bffc17 	ldw	r2,-16(fp)
 180fbf0:	10c02e17 	ldw	r3,184(r2)
 180fbf4:	e0bff617 	ldw	r2,-40(fp)
 180fbf8:	10c5883a 	add	r2,r2,r3
 180fbfc:	e0bff615 	stw	r2,-40(fp)
  {
    i = 0;
  }

  unaligned_end_bytes = (offset+length) % flash->mode_width;
  while ((ret_code == 0) && (i < (length-unaligned_end_bytes)))
 180fc00:	e0bffa17 	ldw	r2,-24(fp)
 180fc04:	1004c03a 	cmpne	r2,r2,zero
 180fc08:	1000051e 	bne	r2,zero,180fc20 <alt_flash_program_block+0x1d4>
 180fc0c:	e0ffff17 	ldw	r3,-4(fp)
 180fc10:	e0bff717 	ldw	r2,-36(fp)
 180fc14:	1887c83a 	sub	r3,r3,r2
 180fc18:	e0bff617 	ldw	r2,-40(fp)
 180fc1c:	10ffe816 	blt	r2,r3,180fbc0 <alt_flash_program_block+0x174>

  /*
   * Now take care of any writes at the end of the buffer which are on none 
   * native boundaries as far as the flash is concerned.
   */
  if (unaligned_end_bytes && !ret_code)
 180fc20:	e0bff717 	ldw	r2,-36(fp)
 180fc24:	1005003a 	cmpeq	r2,r2,zero
 180fc28:	10003c1e 	bne	r2,zero,180fd1c <alt_flash_program_block+0x2d0>
 180fc2c:	e0bffa17 	ldw	r2,-24(fp)
 180fc30:	1004c03a 	cmpne	r2,r2,zero
 180fc34:	1000391e 	bne	r2,zero,180fd1c <alt_flash_program_block+0x2d0>
  {
    bytes_to_preserve = flash->mode_width - unaligned_end_bytes;
 180fc38:	e0bffc17 	ldw	r2,-16(fp)
 180fc3c:	10c02e17 	ldw	r3,184(r2)
 180fc40:	e0bff717 	ldw	r2,-36(fp)
 180fc44:	1885c83a 	sub	r2,r3,r2
 180fc48:	e0bff915 	stw	r2,-28(fp)
    
    for (j=0;j<unaligned_end_bytes;j++)
 180fc4c:	e03ff515 	stw	zero,-44(fp)
 180fc50:	00000e06 	br	180fc8c <alt_flash_program_block+0x240>
    {
      unaligned[j] = *(alt_u8*)(src_addr+i+j);
 180fc54:	e13ff517 	ldw	r4,-44(fp)
 180fc58:	e0bff617 	ldw	r2,-40(fp)
 180fc5c:	1007883a 	mov	r3,r2
 180fc60:	e0bffe17 	ldw	r2,-8(fp)
 180fc64:	1887883a 	add	r3,r3,r2
 180fc68:	e0bff517 	ldw	r2,-44(fp)
 180fc6c:	1885883a 	add	r2,r3,r2
 180fc70:	10c00003 	ldbu	r3,0(r2)
 180fc74:	e0bffb04 	addi	r2,fp,-20
 180fc78:	1105883a 	add	r2,r2,r4
 180fc7c:	10c00005 	stb	r3,0(r2)
   */
  if (unaligned_end_bytes && !ret_code)
  {
    bytes_to_preserve = flash->mode_width - unaligned_end_bytes;
    
    for (j=0;j<unaligned_end_bytes;j++)
 180fc80:	e0bff517 	ldw	r2,-44(fp)
 180fc84:	10800044 	addi	r2,r2,1
 180fc88:	e0bff515 	stw	r2,-44(fp)
 180fc8c:	e0fff517 	ldw	r3,-44(fp)
 180fc90:	e0bff717 	ldw	r2,-36(fp)
 180fc94:	18bfef16 	blt	r3,r2,180fc54 <alt_flash_program_block+0x208>
    {
      unaligned[j] = *(alt_u8*)(src_addr+i+j);
    }
    
    for (j=0;j<bytes_to_preserve;j++)
 180fc98:	e03ff515 	stw	zero,-44(fp)
 180fc9c:	00001406 	br	180fcf0 <alt_flash_program_block+0x2a4>
    {
      unaligned[unaligned_end_bytes+j] = IORD_8DIRECT(flash->dev.base_addr, 
 180fca0:	e0fff717 	ldw	r3,-36(fp)
 180fca4:	e0bff517 	ldw	r2,-44(fp)
 180fca8:	188b883a 	add	r5,r3,r2
 180fcac:	e0bffc17 	ldw	r2,-16(fp)
 180fcb0:	10800a17 	ldw	r2,40(r2)
 180fcb4:	1009883a 	mov	r4,r2
 180fcb8:	e0fffd17 	ldw	r3,-12(fp)
 180fcbc:	e0bfff17 	ldw	r2,-4(fp)
 180fcc0:	1887883a 	add	r3,r3,r2
 180fcc4:	e0bff517 	ldw	r2,-44(fp)
 180fcc8:	1885883a 	add	r2,r3,r2
 180fccc:	2085883a 	add	r2,r4,r2
 180fcd0:	10800023 	ldbuio	r2,0(r2)
 180fcd4:	1007883a 	mov	r3,r2
 180fcd8:	e0bffb04 	addi	r2,fp,-20
 180fcdc:	1145883a 	add	r2,r2,r5
 180fce0:	10c00005 	stb	r3,0(r2)
    for (j=0;j<unaligned_end_bytes;j++)
    {
      unaligned[j] = *(alt_u8*)(src_addr+i+j);
    }
    
    for (j=0;j<bytes_to_preserve;j++)
 180fce4:	e0bff517 	ldw	r2,-44(fp)
 180fce8:	10800044 	addi	r2,r2,1
 180fcec:	e0bff515 	stw	r2,-44(fp)
 180fcf0:	e0fff517 	ldw	r3,-44(fp)
 180fcf4:	e0bff917 	ldw	r2,-28(fp)
 180fcf8:	18bfe916 	blt	r3,r2,180fca0 <alt_flash_program_block+0x254>
    {
      unaligned[unaligned_end_bytes+j] = IORD_8DIRECT(flash->dev.base_addr, 
                                                      offset+length+j);
    }

    ret_code = (*program_word_func)(flash, offset+i, unaligned);      
 180fcfc:	e0fffd17 	ldw	r3,-12(fp)
 180fd00:	e0bff617 	ldw	r2,-40(fp)
 180fd04:	188b883a 	add	r5,r3,r2
 180fd08:	e1bffb04 	addi	r6,fp,-20
 180fd0c:	e0800217 	ldw	r2,8(fp)
 180fd10:	e13ffc17 	ldw	r4,-16(fp)
 180fd14:	103ee83a 	callr	r2
 180fd18:	e0bffa15 	stw	r2,-24(fp)
  }

  return ret_code;
 180fd1c:	e0bffa17 	ldw	r2,-24(fp)
}
 180fd20:	e037883a 	mov	sp,fp
 180fd24:	dfc00117 	ldw	ra,4(sp)
 180fd28:	df000017 	ldw	fp,0(sp)
 180fd2c:	dec00204 	addi	sp,sp,8
 180fd30:	f800283a 	ret

0180fd34 <alt_read_query_entry_8bit>:

/*
 *  Read an 8 bit value from the CFI query table in flash
 */
alt_u8 alt_read_query_entry_8bit( alt_flash_cfi_dev* flash, int address)
{
 180fd34:	defffd04 	addi	sp,sp,-12
 180fd38:	df000215 	stw	fp,8(sp)
 180fd3c:	df000204 	addi	fp,sp,8
 180fd40:	e13ffe15 	stw	r4,-8(fp)
 180fd44:	e17fff15 	stw	r5,-4(fp)
  return IORD_8DIRECT((alt_u8*)flash->dev.base_addr, address);
 180fd48:	e0bffe17 	ldw	r2,-8(fp)
 180fd4c:	10800a17 	ldw	r2,40(r2)
 180fd50:	1007883a 	mov	r3,r2
 180fd54:	e0bfff17 	ldw	r2,-4(fp)
 180fd58:	1885883a 	add	r2,r3,r2
 180fd5c:	10800023 	ldbuio	r2,0(r2)
 180fd60:	10803fcc 	andi	r2,r2,255
}
 180fd64:	e037883a 	mov	sp,fp
 180fd68:	df000017 	ldw	fp,0(sp)
 180fd6c:	dec00104 	addi	sp,sp,4
 180fd70:	f800283a 	ret

0180fd74 <alt_read_query_entry_16bit>:

alt_u8 alt_read_query_entry_16bit( alt_flash_cfi_dev* flash, int address)
{
 180fd74:	defffd04 	addi	sp,sp,-12
 180fd78:	df000215 	stw	fp,8(sp)
 180fd7c:	df000204 	addi	fp,sp,8
 180fd80:	e13ffe15 	stw	r4,-8(fp)
 180fd84:	e17fff15 	stw	r5,-4(fp)
  return (IORD_16DIRECT((alt_u8*)flash->dev.base_addr, address*2) & 0xff);
 180fd88:	e0bffe17 	ldw	r2,-8(fp)
 180fd8c:	10800a17 	ldw	r2,40(r2)
 180fd90:	1007883a 	mov	r3,r2
 180fd94:	e0bfff17 	ldw	r2,-4(fp)
 180fd98:	1085883a 	add	r2,r2,r2
 180fd9c:	1885883a 	add	r2,r3,r2
 180fda0:	1080002b 	ldhuio	r2,0(r2)
 180fda4:	10803fcc 	andi	r2,r2,255
}
 180fda8:	e037883a 	mov	sp,fp
 180fdac:	df000017 	ldw	fp,0(sp)
 180fdb0:	dec00104 	addi	sp,sp,4
 180fdb4:	f800283a 	ret

0180fdb8 <alt_read_query_entry_32bit>:

alt_u8 alt_read_query_entry_32bit( alt_flash_cfi_dev* flash, int address)
{
 180fdb8:	defffd04 	addi	sp,sp,-12
 180fdbc:	df000215 	stw	fp,8(sp)
 180fdc0:	df000204 	addi	fp,sp,8
 180fdc4:	e13ffe15 	stw	r4,-8(fp)
 180fdc8:	e17fff15 	stw	r5,-4(fp)
  return (IORD_32DIRECT((alt_u8*)flash->dev.base_addr, address*4) & 0xff);
 180fdcc:	e0bffe17 	ldw	r2,-8(fp)
 180fdd0:	10800a17 	ldw	r2,40(r2)
 180fdd4:	1007883a 	mov	r3,r2
 180fdd8:	e0bfff17 	ldw	r2,-4(fp)
 180fddc:	1085883a 	add	r2,r2,r2
 180fde0:	1085883a 	add	r2,r2,r2
 180fde4:	1885883a 	add	r2,r3,r2
 180fde8:	10800037 	ldwio	r2,0(r2)
 180fdec:	10803fcc 	andi	r2,r2,255
}
 180fdf0:	e037883a 	mov	sp,fp
 180fdf4:	df000017 	ldw	fp,0(sp)
 180fdf8:	dec00104 	addi	sp,sp,4
 180fdfc:	f800283a 	ret

0180fe00 <alt_write_flash_command_8bit_device_8bit_mode>:

/*
 * Write an 8 bit command to a flash
 */
void alt_write_flash_command_8bit_device_8bit_mode( void* base_addr, int offset, alt_u8 value)
{
 180fe00:	defffc04 	addi	sp,sp,-16
 180fe04:	df000315 	stw	fp,12(sp)
 180fe08:	df000304 	addi	fp,sp,12
 180fe0c:	e13ffd15 	stw	r4,-12(fp)
 180fe10:	e17ffe15 	stw	r5,-8(fp)
 180fe14:	e1bfff05 	stb	r6,-4(fp)
  IOWR_8DIRECT(base_addr, offset, value);
 180fe18:	e0fffd17 	ldw	r3,-12(fp)
 180fe1c:	e0bffe17 	ldw	r2,-8(fp)
 180fe20:	1885883a 	add	r2,r3,r2
 180fe24:	e0ffff03 	ldbu	r3,-4(fp)
 180fe28:	10c00025 	stbio	r3,0(r2)
  return;
}
 180fe2c:	e037883a 	mov	sp,fp
 180fe30:	df000017 	ldw	fp,0(sp)
 180fe34:	dec00104 	addi	sp,sp,4
 180fe38:	f800283a 	ret

0180fe3c <alt_write_flash_command_16bit_device_8bit_mode>:

void alt_write_flash_command_16bit_device_8bit_mode( void* base_addr, int offset, alt_u8 value)
{
 180fe3c:	defffc04 	addi	sp,sp,-16
 180fe40:	df000315 	stw	fp,12(sp)
 180fe44:	df000304 	addi	fp,sp,12
 180fe48:	e13ffd15 	stw	r4,-12(fp)
 180fe4c:	e17ffe15 	stw	r5,-8(fp)
 180fe50:	e1bfff05 	stb	r6,-4(fp)
  if (offset % 2)
 180fe54:	e0bffe17 	ldw	r2,-8(fp)
 180fe58:	1080004c 	andi	r2,r2,1
 180fe5c:	10803fcc 	andi	r2,r2,255
 180fe60:	1005003a 	cmpeq	r2,r2,zero
 180fe64:	1000081e 	bne	r2,zero,180fe88 <alt_write_flash_command_16bit_device_8bit_mode+0x4c>
  {
    IOWR_8DIRECT(base_addr, offset*2, value);
 180fe68:	e0bffe17 	ldw	r2,-8(fp)
 180fe6c:	1085883a 	add	r2,r2,r2
 180fe70:	1007883a 	mov	r3,r2
 180fe74:	e0bffd17 	ldw	r2,-12(fp)
 180fe78:	1885883a 	add	r2,r3,r2
 180fe7c:	e0ffff03 	ldbu	r3,-4(fp)
 180fe80:	10c00025 	stbio	r3,0(r2)
 180fe84:	00000806 	br	180fea8 <alt_write_flash_command_16bit_device_8bit_mode+0x6c>
  }
  else
  {
    IOWR_8DIRECT(base_addr, (offset*2)+1, value);
 180fe88:	e0bffe17 	ldw	r2,-8(fp)
 180fe8c:	1085883a 	add	r2,r2,r2
 180fe90:	1007883a 	mov	r3,r2
 180fe94:	e0bffd17 	ldw	r2,-12(fp)
 180fe98:	1885883a 	add	r2,r3,r2
 180fe9c:	10800044 	addi	r2,r2,1
 180fea0:	e0ffff03 	ldbu	r3,-4(fp)
 180fea4:	10c00025 	stbio	r3,0(r2)
  }
  return;
}
 180fea8:	e037883a 	mov	sp,fp
 180feac:	df000017 	ldw	fp,0(sp)
 180feb0:	dec00104 	addi	sp,sp,4
 180feb4:	f800283a 	ret

0180feb8 <alt_write_flash_command_32bit_device_8bit_mode>:

void alt_write_flash_command_32bit_device_8bit_mode( void* base_addr, int offset, alt_u8 value)
{
 180feb8:	defffc04 	addi	sp,sp,-16
 180febc:	df000315 	stw	fp,12(sp)
 180fec0:	df000304 	addi	fp,sp,12
 180fec4:	e13ffd15 	stw	r4,-12(fp)
 180fec8:	e17ffe15 	stw	r5,-8(fp)
 180fecc:	e1bfff05 	stb	r6,-4(fp)
  IOWR_8DIRECT(base_addr, offset*4, value);
 180fed0:	e0bffe17 	ldw	r2,-8(fp)
 180fed4:	1085883a 	add	r2,r2,r2
 180fed8:	1085883a 	add	r2,r2,r2
 180fedc:	1007883a 	mov	r3,r2
 180fee0:	e0bffd17 	ldw	r2,-12(fp)
 180fee4:	1885883a 	add	r2,r3,r2
 180fee8:	e0ffff03 	ldbu	r3,-4(fp)
 180feec:	10c00025 	stbio	r3,0(r2)
  return;
}
 180fef0:	e037883a 	mov	sp,fp
 180fef4:	df000017 	ldw	fp,0(sp)
 180fef8:	dec00104 	addi	sp,sp,4
 180fefc:	f800283a 	ret

0180ff00 <alt_write_flash_command_16bit_device_16bit_mode>:

void alt_write_flash_command_16bit_device_16bit_mode( void* base_addr, int offset, alt_u8 value)
{
 180ff00:	defffc04 	addi	sp,sp,-16
 180ff04:	df000315 	stw	fp,12(sp)
 180ff08:	df000304 	addi	fp,sp,12
 180ff0c:	e13ffd15 	stw	r4,-12(fp)
 180ff10:	e17ffe15 	stw	r5,-8(fp)
 180ff14:	e1bfff05 	stb	r6,-4(fp)
  IOWR_16DIRECT(base_addr, offset*2, ((alt_u16)value)& 0x00ff);
 180ff18:	e0bffe17 	ldw	r2,-8(fp)
 180ff1c:	1085883a 	add	r2,r2,r2
 180ff20:	1007883a 	mov	r3,r2
 180ff24:	e0bffd17 	ldw	r2,-12(fp)
 180ff28:	1885883a 	add	r2,r3,r2
 180ff2c:	e0ffff03 	ldbu	r3,-4(fp)
 180ff30:	10c0002d 	sthio	r3,0(r2)
  return;
}
 180ff34:	e037883a 	mov	sp,fp
 180ff38:	df000017 	ldw	fp,0(sp)
 180ff3c:	dec00104 	addi	sp,sp,4
 180ff40:	f800283a 	ret

0180ff44 <alt_write_flash_command_32bit_device_16bit_mode>:

void alt_write_flash_command_32bit_device_16bit_mode( void* base_addr, int offset, alt_u8 value)
{
 180ff44:	defffc04 	addi	sp,sp,-16
 180ff48:	df000315 	stw	fp,12(sp)
 180ff4c:	df000304 	addi	fp,sp,12
 180ff50:	e13ffd15 	stw	r4,-12(fp)
 180ff54:	e17ffe15 	stw	r5,-8(fp)
 180ff58:	e1bfff05 	stb	r6,-4(fp)
  IOWR_16DIRECT(base_addr, offset*4, ((alt_u16)value)& 0x00ff);
 180ff5c:	e0bffe17 	ldw	r2,-8(fp)
 180ff60:	1085883a 	add	r2,r2,r2
 180ff64:	1085883a 	add	r2,r2,r2
 180ff68:	1007883a 	mov	r3,r2
 180ff6c:	e0bffd17 	ldw	r2,-12(fp)
 180ff70:	1885883a 	add	r2,r3,r2
 180ff74:	e0ffff03 	ldbu	r3,-4(fp)
 180ff78:	10c0002d 	sthio	r3,0(r2)
  return;
}
 180ff7c:	e037883a 	mov	sp,fp
 180ff80:	df000017 	ldw	fp,0(sp)
 180ff84:	dec00104 	addi	sp,sp,4
 180ff88:	f800283a 	ret

0180ff8c <alt_write_flash_command_32bit_device_32bit_mode>:

void alt_write_flash_command_32bit_device_32bit_mode( void* base_addr, int offset, alt_u8 value)
{
 180ff8c:	defffc04 	addi	sp,sp,-16
 180ff90:	df000315 	stw	fp,12(sp)
 180ff94:	df000304 	addi	fp,sp,12
 180ff98:	e13ffd15 	stw	r4,-12(fp)
 180ff9c:	e17ffe15 	stw	r5,-8(fp)
 180ffa0:	e1bfff05 	stb	r6,-4(fp)
  IOWR_32DIRECT(base_addr, offset*4, ((alt_u32)value)& 0x000000ff);
 180ffa4:	e0bffe17 	ldw	r2,-8(fp)
 180ffa8:	1085883a 	add	r2,r2,r2
 180ffac:	1085883a 	add	r2,r2,r2
 180ffb0:	1007883a 	mov	r3,r2
 180ffb4:	e0bffd17 	ldw	r2,-12(fp)
 180ffb8:	1885883a 	add	r2,r3,r2
 180ffbc:	e0ffff03 	ldbu	r3,-4(fp)
 180ffc0:	10c00035 	stwio	r3,0(r2)
  return;
}
 180ffc4:	e037883a 	mov	sp,fp
 180ffc8:	df000017 	ldw	fp,0(sp)
 180ffcc:	dec00104 	addi	sp,sp,4
 180ffd0:	f800283a 	ret

0180ffd4 <alt_write_native_8bit>:

/*
 * Write the value passed to the flash
 */
void alt_write_native_8bit( void* address, alt_u32 value)
{
 180ffd4:	defffd04 	addi	sp,sp,-12
 180ffd8:	df000215 	stw	fp,8(sp)
 180ffdc:	df000204 	addi	fp,sp,8
 180ffe0:	e13ffe15 	stw	r4,-8(fp)
 180ffe4:	e17fff15 	stw	r5,-4(fp)
  IOWR_8DIRECT(address, 0, (alt_u8)(value&0xff));
 180ffe8:	e0bfff17 	ldw	r2,-4(fp)
 180ffec:	10c03fcc 	andi	r3,r2,255
 180fff0:	e0bffe17 	ldw	r2,-8(fp)
 180fff4:	10c00025 	stbio	r3,0(r2)
  return;
}
 180fff8:	e037883a 	mov	sp,fp
 180fffc:	df000017 	ldw	fp,0(sp)
 1810000:	dec00104 	addi	sp,sp,4
 1810004:	f800283a 	ret

01810008 <alt_write_native_16bit>:

void alt_write_native_16bit( void* address, alt_u32 value)
{
 1810008:	defffd04 	addi	sp,sp,-12
 181000c:	df000215 	stw	fp,8(sp)
 1810010:	df000204 	addi	fp,sp,8
 1810014:	e13ffe15 	stw	r4,-8(fp)
 1810018:	e17fff15 	stw	r5,-4(fp)
  IOWR_16DIRECT(address, 0, ((alt_u16)value)& 0xffff);
 181001c:	e0bfff17 	ldw	r2,-4(fp)
 1810020:	10ffffcc 	andi	r3,r2,65535
 1810024:	e0bffe17 	ldw	r2,-8(fp)
 1810028:	10c0002d 	sthio	r3,0(r2)
  return;
}
 181002c:	e037883a 	mov	sp,fp
 1810030:	df000017 	ldw	fp,0(sp)
 1810034:	dec00104 	addi	sp,sp,4
 1810038:	f800283a 	ret

0181003c <alt_write_native_32bit>:

void alt_write_native_32bit( void* address, alt_u32 value)
{
 181003c:	defffd04 	addi	sp,sp,-12
 1810040:	df000215 	stw	fp,8(sp)
 1810044:	df000204 	addi	fp,sp,8
 1810048:	e13ffe15 	stw	r4,-8(fp)
 181004c:	e17fff15 	stw	r5,-4(fp)
  IOWR_32DIRECT(address, 0, value);
 1810050:	e0ffff17 	ldw	r3,-4(fp)
 1810054:	e0bffe17 	ldw	r2,-8(fp)
 1810058:	10c00035 	stwio	r3,0(r2)
  return;
}
 181005c:	e037883a 	mov	sp,fp
 1810060:	df000017 	ldw	fp,0(sp)
 1810064:	dec00104 	addi	sp,sp,4
 1810068:	f800283a 	ret

0181006c <alt_set_flash_width_func>:
 * 
 * Setup the function pointers for writing a byte to the flash for the width
 * of the device
 */
int alt_set_flash_width_func( alt_flash_cfi_dev* flash)
{ 
 181006c:	defffb04 	addi	sp,sp,-20
 1810070:	df000415 	stw	fp,16(sp)
 1810074:	df000404 	addi	fp,sp,16
 1810078:	e13ffd15 	stw	r4,-12(fp)
  int ret_code = 0;
 181007c:	e03ffc15 	stw	zero,-16(fp)
  
  switch(flash->mode_width)
 1810080:	e0bffd17 	ldw	r2,-12(fp)
 1810084:	10802e17 	ldw	r2,184(r2)
 1810088:	e0bfff15 	stw	r2,-4(fp)
 181008c:	e0ffff17 	ldw	r3,-4(fp)
 1810090:	188000a0 	cmpeqi	r2,r3,2
 1810094:	1000261e 	bne	r2,zero,1810130 <alt_set_flash_width_func+0xc4>
 1810098:	e0ffff17 	ldw	r3,-4(fp)
 181009c:	18800120 	cmpeqi	r2,r3,4
 18100a0:	1000391e 	bne	r2,zero,1810188 <alt_set_flash_width_func+0x11c>
 18100a4:	e0ffff17 	ldw	r3,-4(fp)
 18100a8:	18800060 	cmpeqi	r2,r3,1
 18100ac:	1000011e 	bne	r2,zero,18100b4 <alt_set_flash_width_func+0x48>
 18100b0:	00003e06 	br	18101ac <alt_set_flash_width_func+0x140>
  {
    case 1:
    {
      flash->write_native = alt_write_native_8bit;
 18100b4:	e0fffd17 	ldw	r3,-12(fp)
 18100b8:	00806074 	movhi	r2,385
 18100bc:	10bff504 	addi	r2,r2,-44
 18100c0:	18803515 	stw	r2,212(r3)

      if (flash->device_width == 1)
 18100c4:	e0bffd17 	ldw	r2,-12(fp)
 18100c8:	10802f17 	ldw	r2,188(r2)
 18100cc:	10800058 	cmpnei	r2,r2,1
 18100d0:	1000051e 	bne	r2,zero,18100e8 <alt_set_flash_width_func+0x7c>
      {
        flash->write_command = alt_write_flash_command_8bit_device_8bit_mode;
 18100d4:	e0fffd17 	ldw	r3,-12(fp)
 18100d8:	00806074 	movhi	r2,385
 18100dc:	10bf8004 	addi	r2,r2,-512
 18100e0:	18803315 	stw	r2,204(r3)
 18100e4:	00003306 	br	18101b4 <alt_set_flash_width_func+0x148>
      }
      else if (flash->device_width == 2)
 18100e8:	e0bffd17 	ldw	r2,-12(fp)
 18100ec:	10802f17 	ldw	r2,188(r2)
 18100f0:	10800098 	cmpnei	r2,r2,2
 18100f4:	1000051e 	bne	r2,zero,181010c <alt_set_flash_width_func+0xa0>
      {
        flash->write_command = alt_write_flash_command_16bit_device_8bit_mode;
 18100f8:	e0fffd17 	ldw	r3,-12(fp)
 18100fc:	00806074 	movhi	r2,385
 1810100:	10bf8f04 	addi	r2,r2,-452
 1810104:	18803315 	stw	r2,204(r3)
 1810108:	00002a06 	br	18101b4 <alt_set_flash_width_func+0x148>
      }
      else if (flash->device_width == 4)
 181010c:	e0bffd17 	ldw	r2,-12(fp)
 1810110:	10802f17 	ldw	r2,188(r2)
 1810114:	10800118 	cmpnei	r2,r2,4
 1810118:	1000261e 	bne	r2,zero,18101b4 <alt_set_flash_width_func+0x148>
      {
        flash->write_command = alt_write_flash_command_32bit_device_8bit_mode;
 181011c:	e0fffd17 	ldw	r3,-12(fp)
 1810120:	00806074 	movhi	r2,385
 1810124:	10bfae04 	addi	r2,r2,-328
 1810128:	18803315 	stw	r2,204(r3)
      }
      break;
 181012c:	00002106 	br	18101b4 <alt_set_flash_width_func+0x148>
    }
    case 2:
    {
      flash->write_native = alt_write_native_16bit;
 1810130:	e0fffd17 	ldw	r3,-12(fp)
 1810134:	00806074 	movhi	r2,385
 1810138:	10800204 	addi	r2,r2,8
 181013c:	18803515 	stw	r2,212(r3)

      if (flash->device_width == 2)
 1810140:	e0bffd17 	ldw	r2,-12(fp)
 1810144:	10802f17 	ldw	r2,188(r2)
 1810148:	10800098 	cmpnei	r2,r2,2
 181014c:	1000051e 	bne	r2,zero,1810164 <alt_set_flash_width_func+0xf8>
      {
        flash->write_command = alt_write_flash_command_16bit_device_16bit_mode;
 1810150:	e0fffd17 	ldw	r3,-12(fp)
 1810154:	00806074 	movhi	r2,385
 1810158:	10bfc004 	addi	r2,r2,-256
 181015c:	18803315 	stw	r2,204(r3)
 1810160:	00001406 	br	18101b4 <alt_set_flash_width_func+0x148>
      }
      else if (flash->device_width == 4)
 1810164:	e0bffd17 	ldw	r2,-12(fp)
 1810168:	10802f17 	ldw	r2,188(r2)
 181016c:	10800118 	cmpnei	r2,r2,4
 1810170:	1000101e 	bne	r2,zero,18101b4 <alt_set_flash_width_func+0x148>
      {
        flash->write_command = alt_write_flash_command_32bit_device_16bit_mode;
 1810174:	e0fffd17 	ldw	r3,-12(fp)
 1810178:	00806074 	movhi	r2,385
 181017c:	10bfd104 	addi	r2,r2,-188
 1810180:	18803315 	stw	r2,204(r3)
      }

      break;
 1810184:	00000b06 	br	18101b4 <alt_set_flash_width_func+0x148>
    }
    case 4:
    {
      flash->write_native = alt_write_native_32bit;
 1810188:	e0fffd17 	ldw	r3,-12(fp)
 181018c:	00806074 	movhi	r2,385
 1810190:	10800f04 	addi	r2,r2,60
 1810194:	18803515 	stw	r2,212(r3)
      flash->write_command = alt_write_flash_command_32bit_device_32bit_mode;
 1810198:	e0fffd17 	ldw	r3,-12(fp)
 181019c:	00806074 	movhi	r2,385
 18101a0:	10bfe304 	addi	r2,r2,-116
 18101a4:	18803315 	stw	r2,204(r3)
      break;
 18101a8:	00000206 	br	18101b4 <alt_set_flash_width_func+0x148>
    }
    default:
    {
      ret_code = -EACCES;
 18101ac:	00bffcc4 	movi	r2,-13
 18101b0:	e0bffc15 	stw	r2,-16(fp)
    }
  }

  if (!ret_code)
 18101b4:	e0bffc17 	ldw	r2,-16(fp)
 18101b8:	1004c03a 	cmpne	r2,r2,zero
 18101bc:	10001e1e 	bne	r2,zero,1810238 <alt_set_flash_width_func+0x1cc>
  {
    switch(flash->device_width)
 18101c0:	e0bffd17 	ldw	r2,-12(fp)
 18101c4:	10802f17 	ldw	r2,188(r2)
 18101c8:	e0bffe15 	stw	r2,-8(fp)
 18101cc:	e0fffe17 	ldw	r3,-8(fp)
 18101d0:	188000a0 	cmpeqi	r2,r3,2
 18101d4:	10000c1e 	bne	r2,zero,1810208 <alt_set_flash_width_func+0x19c>
 18101d8:	e0fffe17 	ldw	r3,-8(fp)
 18101dc:	18800120 	cmpeqi	r2,r3,4
 18101e0:	10000e1e 	bne	r2,zero,181021c <alt_set_flash_width_func+0x1b0>
 18101e4:	e0fffe17 	ldw	r3,-8(fp)
 18101e8:	18800060 	cmpeqi	r2,r3,1
 18101ec:	1000011e 	bne	r2,zero,18101f4 <alt_set_flash_width_func+0x188>
 18101f0:	00000f06 	br	1810230 <alt_set_flash_width_func+0x1c4>
    {
      case 1:
      {
        flash->read_query = alt_read_query_entry_8bit;
 18101f4:	e0fffd17 	ldw	r3,-12(fp)
 18101f8:	00806074 	movhi	r2,385
 18101fc:	10bf4d04 	addi	r2,r2,-716
 1810200:	18803415 	stw	r2,208(r3)
        break;
 1810204:	00000c06 	br	1810238 <alt_set_flash_width_func+0x1cc>
      }
      case 2:
      {
        flash->read_query = alt_read_query_entry_16bit;
 1810208:	e0fffd17 	ldw	r3,-12(fp)
 181020c:	00806074 	movhi	r2,385
 1810210:	10bf5d04 	addi	r2,r2,-652
 1810214:	18803415 	stw	r2,208(r3)
        break;
 1810218:	00000706 	br	1810238 <alt_set_flash_width_func+0x1cc>
      }
      case 4:
      {
        flash->read_query = alt_read_query_entry_32bit;
 181021c:	e0fffd17 	ldw	r3,-12(fp)
 1810220:	00806074 	movhi	r2,385
 1810224:	10bf6e04 	addi	r2,r2,-584
 1810228:	18803415 	stw	r2,208(r3)
        break;
 181022c:	00000206 	br	1810238 <alt_set_flash_width_func+0x1cc>
      }
      default:
      {
        ret_code = -EACCES;
 1810230:	00bffcc4 	movi	r2,-13
 1810234:	e0bffc15 	stw	r2,-16(fp)
      }
    }
  }

  return ret_code;
 1810238:	e0bffc17 	ldw	r2,-16(fp)
}
 181023c:	e037883a 	mov	sp,fp
 1810240:	df000017 	ldw	fp,0(sp)
 1810244:	dec00104 	addi	sp,sp,4
 1810248:	f800283a 	ret

0181024c <alt_set_flash_algorithm_func>:
 * 
 * Setup the function pointers to the functions for this algorithm
 * 
 */
int alt_set_flash_algorithm_func( alt_flash_cfi_dev* flash)
{
 181024c:	defffc04 	addi	sp,sp,-16
 1810250:	df000315 	stw	fp,12(sp)
 1810254:	df000304 	addi	fp,sp,12
 1810258:	e13ffe15 	stw	r4,-8(fp)
  int ret_code = 0;
 181025c:	e03ffd15 	stw	zero,-12(fp)
 
  switch(flash->algorithm)
 1810260:	e0bffe17 	ldw	r2,-8(fp)
 1810264:	10802d17 	ldw	r2,180(r2)
 1810268:	e0bfff15 	stw	r2,-4(fp)
 181026c:	e0ffff17 	ldw	r3,-4(fp)
 1810270:	188000a0 	cmpeqi	r2,r3,2
 1810274:	1000071e 	bne	r2,zero,1810294 <alt_set_flash_algorithm_func+0x48>
 1810278:	e0ffff17 	ldw	r3,-4(fp)
 181027c:	188000e0 	cmpeqi	r2,r3,3
 1810280:	10000d1e 	bne	r2,zero,18102b8 <alt_set_flash_algorithm_func+0x6c>
 1810284:	e0ffff17 	ldw	r3,-4(fp)
 1810288:	18800060 	cmpeqi	r2,r3,1
 181028c:	10000a1e 	bne	r2,zero,18102b8 <alt_set_flash_algorithm_func+0x6c>
 1810290:	00001206 	br	18102dc <alt_set_flash_algorithm_func+0x90>
  {
    case CFI_ALG_AMD:
    {
      flash->dev.erase_block = alt_erase_block_amd;
 1810294:	e0fffe17 	ldw	r3,-8(fp)
 1810298:	00806074 	movhi	r2,385
 181029c:	10912b04 	addi	r2,r2,17580
 18102a0:	18800815 	stw	r2,32(r3)
      flash->dev.write_block = alt_program_amd;
 18102a4:	e0fffe17 	ldw	r3,-8(fp)
 18102a8:	00806074 	movhi	r2,385
 18102ac:	10911104 	addi	r2,r2,17476
 18102b0:	18800915 	stw	r2,36(r3)
      break;
 18102b4:	00000b06 	br	18102e4 <alt_set_flash_algorithm_func+0x98>
    }
    case CFI_ALG_INTEL:
    case CFI_ALG_INTEL_STRATA:
    {
      flash->dev.erase_block = alt_erase_block_intel;
 18102b8:	e0fffe17 	ldw	r3,-8(fp)
 18102bc:	00806074 	movhi	r2,385
 18102c0:	10924a04 	addi	r2,r2,18728
 18102c4:	18800815 	stw	r2,32(r3)
      flash->dev.write_block = alt_program_intel;
 18102c8:	e0fffe17 	ldw	r3,-8(fp)
 18102cc:	00806074 	movhi	r2,385
 18102d0:	10922904 	addi	r2,r2,18596
 18102d4:	18800915 	stw	r2,36(r3)
      break;
 18102d8:	00000206 	br	18102e4 <alt_set_flash_algorithm_func+0x98>
    }
    default:
    {
      ret_code = -EIO;
 18102dc:	00bffec4 	movi	r2,-5
 18102e0:	e0bffd15 	stw	r2,-12(fp)
    }
  } 
  return ret_code;  
 18102e4:	e0bffd17 	ldw	r2,-12(fp)
}
 18102e8:	e037883a 	mov	sp,fp
 18102ec:	df000017 	ldw	fp,0(sp)
 18102f0:	dec00104 	addi	sp,sp,4
 18102f4:	f800283a 	ret

018102f8 <alt_read_16bit_query_entry>:
 * read_16bit_query_entry
 * 
 * Read a 16 bit entry from the CFI Query table
 */
static alt_u16 alt_read_16bit_query_entry(alt_flash_cfi_dev* flash, int address)
{
 18102f8:	defffb04 	addi	sp,sp,-20
 18102fc:	dfc00415 	stw	ra,16(sp)
 1810300:	df000315 	stw	fp,12(sp)
 1810304:	df000304 	addi	fp,sp,12
 1810308:	e13ffe15 	stw	r4,-8(fp)
 181030c:	e17fff15 	stw	r5,-4(fp)
  alt_u16 ret_code;

  ret_code = (*flash->read_query)( flash, address);
 1810310:	e0bffe17 	ldw	r2,-8(fp)
 1810314:	10803417 	ldw	r2,208(r2)
 1810318:	e13ffe17 	ldw	r4,-8(fp)
 181031c:	e17fff17 	ldw	r5,-4(fp)
 1810320:	103ee83a 	callr	r2
 1810324:	10803fcc 	andi	r2,r2,255
 1810328:	e0bffd0d 	sth	r2,-12(fp)
  ret_code |= (((int)(*flash->read_query)(flash, address+1)) << 8);                   
 181032c:	e0bffe17 	ldw	r2,-8(fp)
 1810330:	10c03417 	ldw	r3,208(r2)
 1810334:	e0bfff17 	ldw	r2,-4(fp)
 1810338:	11400044 	addi	r5,r2,1
 181033c:	e13ffe17 	ldw	r4,-8(fp)
 1810340:	183ee83a 	callr	r3
 1810344:	10803fcc 	andi	r2,r2,255
 1810348:	1004923a 	slli	r2,r2,8
 181034c:	1007883a 	mov	r3,r2
 1810350:	e0bffd0b 	ldhu	r2,-12(fp)
 1810354:	1884b03a 	or	r2,r3,r2
 1810358:	e0bffd0d 	sth	r2,-12(fp)

  return ret_code;
 181035c:	e0bffd0b 	ldhu	r2,-12(fp)
}
 1810360:	e037883a 	mov	sp,fp
 1810364:	dfc00117 	ldw	ra,4(sp)
 1810368:	df000017 	ldw	fp,0(sp)
 181036c:	dec00204 	addi	sp,sp,8
 1810370:	f800283a 	ret

01810374 <alt_read_cfi_table>:
 * read_cfi_table
 * 
 * Read the CFI Table
 */
int alt_read_cfi_table(alt_flash_cfi_dev* flash)
{
 1810374:	defff204 	addi	sp,sp,-56
 1810378:	dfc00d15 	stw	ra,52(sp)
 181037c:	df000c15 	stw	fp,48(sp)
 1810380:	dc000b15 	stw	r16,44(sp)
 1810384:	df000b04 	addi	fp,sp,44
 1810388:	e13fff15 	stw	r4,-4(fp)
  int   i,j;
  int   device_size;
  int   ret_code = 0;
 181038c:	e03ffb15 	stw	zero,-20(fp)
  int   size = 0;
 1810390:	e03ffa15 	stw	zero,-24(fp)
  int   swap;
  int   typical_timeout;
  int   max_timeout;
  int   offset = 0;
 1810394:	e03ff615 	stw	zero,-40(fp)
   
  /*
  * Check that the Primary Vendor Specific table
  * starts with the letters PRI                                                         
  */
  ret_code = alt_check_primary_table(flash);
 1810398:	e13fff17 	ldw	r4,-4(fp)
 181039c:	18110a00 	call	18110a0 <alt_check_primary_table>
 18103a0:	e0bffb15 	stw	r2,-20(fp)

  if (!ret_code)
 18103a4:	e0bffb17 	ldw	r2,-20(fp)
 18103a8:	1004c03a 	cmpne	r2,r2,zero
 18103ac:	10014a1e 	bne	r2,zero,18108d8 <alt_read_cfi_table+0x564>
  {
    flash->algorithm = (*flash->read_query)(flash, 0x13);
 18103b0:	e0bfff17 	ldw	r2,-4(fp)
 18103b4:	10803417 	ldw	r2,208(r2)
 18103b8:	e13fff17 	ldw	r4,-4(fp)
 18103bc:	014004c4 	movi	r5,19
 18103c0:	103ee83a 	callr	r2
 18103c4:	10c03fcc 	andi	r3,r2,255
 18103c8:	e0bfff17 	ldw	r2,-4(fp)
 18103cc:	10c02d15 	stw	r3,180(r2)
  
    /* 
     * Let's read the write timeout values from the flash 
     * 
     */
    typical_timeout = (*flash->read_query)( flash, 0x1f);
 18103d0:	e0bfff17 	ldw	r2,-4(fp)
 18103d4:	10803417 	ldw	r2,208(r2)
 18103d8:	e13fff17 	ldw	r4,-4(fp)
 18103dc:	014007c4 	movi	r5,31
 18103e0:	103ee83a 	callr	r2
 18103e4:	10803fcc 	andi	r2,r2,255
 18103e8:	e0bff815 	stw	r2,-32(fp)
    max_timeout = (*flash->read_query)( flash, 0x23);
 18103ec:	e0bfff17 	ldw	r2,-4(fp)
 18103f0:	10803417 	ldw	r2,208(r2)
 18103f4:	e13fff17 	ldw	r4,-4(fp)
 18103f8:	014008c4 	movi	r5,35
 18103fc:	103ee83a 	callr	r2
 1810400:	10803fcc 	andi	r2,r2,255
 1810404:	e0bff715 	stw	r2,-36(fp)
    
    if ((typical_timeout == 0 ) || (max_timeout == 0))
 1810408:	e0bff817 	ldw	r2,-32(fp)
 181040c:	1005003a 	cmpeq	r2,r2,zero
 1810410:	1000031e 	bne	r2,zero,1810420 <alt_read_cfi_table+0xac>
 1810414:	e0bff717 	ldw	r2,-36(fp)
 1810418:	1004c03a 	cmpne	r2,r2,zero
 181041c:	1000041e 	bne	r2,zero,1810430 <alt_read_cfi_table+0xbc>
    {
      flash->write_timeout = 1000; /* 1ms should be more than enough */
 1810420:	e0ffff17 	ldw	r3,-4(fp)
 1810424:	0080fa04 	movi	r2,1000
 1810428:	18803015 	stw	r2,192(r3)
     * 
     */
    typical_timeout = (*flash->read_query)( flash, 0x1f);
    max_timeout = (*flash->read_query)( flash, 0x23);
    
    if ((typical_timeout == 0 ) || (max_timeout == 0))
 181042c:	00000706 	br	181044c <alt_read_cfi_table+0xd8>
    {
      flash->write_timeout = 1000; /* 1ms should be more than enough */
    }
    else
    {
      flash->write_timeout = (1 << typical_timeout) * (1 << max_timeout);
 1810430:	00c00044 	movi	r3,1
 1810434:	e0bff817 	ldw	r2,-32(fp)
 1810438:	1886983a 	sll	r3,r3,r2
 181043c:	e0bff717 	ldw	r2,-36(fp)
 1810440:	1886983a 	sll	r3,r3,r2
 1810444:	e0bfff17 	ldw	r2,-4(fp)
 1810448:	10c03015 	stw	r3,192(r2)
    }
   
    /* Let's read the block erase timeout values from the flash */
    typical_timeout = (*flash->read_query)( flash, 0x21);
 181044c:	e0bfff17 	ldw	r2,-4(fp)
 1810450:	10803417 	ldw	r2,208(r2)
 1810454:	e13fff17 	ldw	r4,-4(fp)
 1810458:	01400844 	movi	r5,33
 181045c:	103ee83a 	callr	r2
 1810460:	10803fcc 	andi	r2,r2,255
 1810464:	e0bff815 	stw	r2,-32(fp)
    max_timeout = (*flash->read_query)( flash, 0x25);
 1810468:	e0bfff17 	ldw	r2,-4(fp)
 181046c:	10803417 	ldw	r2,208(r2)
 1810470:	e13fff17 	ldw	r4,-4(fp)
 1810474:	01400944 	movi	r5,37
 1810478:	103ee83a 	callr	r2
 181047c:	10803fcc 	andi	r2,r2,255
 1810480:	e0bff715 	stw	r2,-36(fp)
    
    if ((typical_timeout == 0 ) || (max_timeout == 0))
 1810484:	e0bff817 	ldw	r2,-32(fp)
 1810488:	1005003a 	cmpeq	r2,r2,zero
 181048c:	1000031e 	bne	r2,zero,181049c <alt_read_cfi_table+0x128>
 1810490:	e0bff717 	ldw	r2,-36(fp)
 1810494:	1004c03a 	cmpne	r2,r2,zero
 1810498:	1000051e 	bne	r2,zero,18104b0 <alt_read_cfi_table+0x13c>
    {
      flash->erase_timeout = 20000000; /* 20s should be more than enough */
 181049c:	e0ffff17 	ldw	r3,-4(fp)
 18104a0:	00804c74 	movhi	r2,305
 18104a4:	108b4004 	addi	r2,r2,11520
 18104a8:	18803115 	stw	r2,196(r3)
   
    /* Let's read the block erase timeout values from the flash */
    typical_timeout = (*flash->read_query)( flash, 0x21);
    max_timeout = (*flash->read_query)( flash, 0x25);
    
    if ((typical_timeout == 0 ) || (max_timeout == 0))
 18104ac:	00000806 	br	18104d0 <alt_read_cfi_table+0x15c>
    {
      flash->erase_timeout = 20000000; /* 20s should be more than enough */
    }
    else
    {
      flash->erase_timeout = (1 << typical_timeout) * (1 << max_timeout) * 1000;
 18104b0:	00c00044 	movi	r3,1
 18104b4:	e0bff817 	ldw	r2,-32(fp)
 18104b8:	1886983a 	sll	r3,r3,r2
 18104bc:	e0bff717 	ldw	r2,-36(fp)
 18104c0:	1884983a 	sll	r2,r3,r2
 18104c4:	10c0fa24 	muli	r3,r2,1000
 18104c8:	e0bfff17 	ldw	r2,-4(fp)
 18104cc:	10c03115 	stw	r3,196(r2)
    }
   
    device_size = 0x1 << (*flash->read_query)( flash, 0x27);
 18104d0:	e0bfff17 	ldw	r2,-4(fp)
 18104d4:	10803417 	ldw	r2,208(r2)
 18104d8:	e13fff17 	ldw	r4,-4(fp)
 18104dc:	014009c4 	movi	r5,39
 18104e0:	103ee83a 	callr	r2
 18104e4:	10c03fcc 	andi	r3,r2,255
 18104e8:	00800044 	movi	r2,1
 18104ec:	10c4983a 	sll	r2,r2,r3
 18104f0:	e0bffc15 	stw	r2,-16(fp)
  
    flash->dev.number_of_regions = (*flash->read_query)(flash, 0x2c);
 18104f4:	e0bfff17 	ldw	r2,-4(fp)
 18104f8:	10803417 	ldw	r2,208(r2)
 18104fc:	e13fff17 	ldw	r4,-4(fp)
 1810500:	01400b04 	movi	r5,44
 1810504:	103ee83a 	callr	r2
 1810508:	10c03fcc 	andi	r3,r2,255
 181050c:	e0bfff17 	ldw	r2,-4(fp)
 1810510:	10c00c15 	stw	r3,48(r2)
    
    if (flash->dev.number_of_regions > ALT_MAX_NUMBER_OF_FLASH_REGIONS)
 1810514:	e0bfff17 	ldw	r2,-4(fp)
 1810518:	10800c17 	ldw	r2,48(r2)
 181051c:	10800250 	cmplti	r2,r2,9
 1810520:	1000031e 	bne	r2,zero,1810530 <alt_read_cfi_table+0x1bc>
    {
      ret_code = -ENOMEM;
 1810524:	00bffd04 	movi	r2,-12
 1810528:	e0bffb15 	stw	r2,-20(fp)
 181052c:	00005e06 	br	18106a8 <alt_read_cfi_table+0x334>
    }
    else
    {
      for(i=0;i<flash->dev.number_of_regions;i++)
 1810530:	e03ffe15 	stw	zero,-8(fp)
 1810534:	00005306 	br	1810684 <alt_read_cfi_table+0x310>
      {
        flash->dev.region_info[i].number_of_blocks =  alt_read_16bit_query_entry( 
 1810538:	e43ffe17 	ldw	r16,-8(fp)
 181053c:	e0bffe17 	ldw	r2,-8(fp)
 1810540:	1085883a 	add	r2,r2,r2
 1810544:	1085883a 	add	r2,r2,r2
 1810548:	11400b44 	addi	r5,r2,45
 181054c:	e13fff17 	ldw	r4,-4(fp)
 1810550:	18102f80 	call	18102f8 <alt_read_16bit_query_entry>
 1810554:	113fffcc 	andi	r4,r2,65535
 1810558:	e0ffff17 	ldw	r3,-4(fp)
 181055c:	8004913a 	slli	r2,r16,4
 1810560:	10c5883a 	add	r2,r2,r3
 1810564:	10800f04 	addi	r2,r2,60
 1810568:	11000015 	stw	r4,0(r2)
                                                            flash,
                                                            (0x2D+i*4));
        flash->dev.region_info[i].number_of_blocks += 1; 
 181056c:	e17ffe17 	ldw	r5,-8(fp)
 1810570:	e0bffe17 	ldw	r2,-8(fp)
 1810574:	e0ffff17 	ldw	r3,-4(fp)
 1810578:	1004913a 	slli	r2,r2,4
 181057c:	10c5883a 	add	r2,r2,r3
 1810580:	10800f04 	addi	r2,r2,60
 1810584:	10800017 	ldw	r2,0(r2)
 1810588:	11000044 	addi	r4,r2,1
 181058c:	e0ffff17 	ldw	r3,-4(fp)
 1810590:	2804913a 	slli	r2,r5,4
 1810594:	10c5883a 	add	r2,r2,r3
 1810598:	10800f04 	addi	r2,r2,60
 181059c:	11000015 	stw	r4,0(r2)
        flash->dev.region_info[i].block_size =  alt_read_16bit_query_entry( flash, 
 18105a0:	e43ffe17 	ldw	r16,-8(fp)
 18105a4:	e0bffe17 	ldw	r2,-8(fp)
 18105a8:	1085883a 	add	r2,r2,r2
 18105ac:	1085883a 	add	r2,r2,r2
 18105b0:	11400bc4 	addi	r5,r2,47
 18105b4:	e13fff17 	ldw	r4,-4(fp)
 18105b8:	18102f80 	call	18102f8 <alt_read_16bit_query_entry>
 18105bc:	113fffcc 	andi	r4,r2,65535
 18105c0:	e0ffff17 	ldw	r3,-4(fp)
 18105c4:	8004913a 	slli	r2,r16,4
 18105c8:	10c5883a 	add	r2,r2,r3
 18105cc:	10801004 	addi	r2,r2,64
 18105d0:	11000015 	stw	r4,0(r2)
                                                              (0x2F+i*4));
        flash->dev.region_info[i].block_size *= 256;
 18105d4:	e17ffe17 	ldw	r5,-8(fp)
 18105d8:	e0bffe17 	ldw	r2,-8(fp)
 18105dc:	e0ffff17 	ldw	r3,-4(fp)
 18105e0:	1004913a 	slli	r2,r2,4
 18105e4:	10c5883a 	add	r2,r2,r3
 18105e8:	10801004 	addi	r2,r2,64
 18105ec:	10800017 	ldw	r2,0(r2)
 18105f0:	1008923a 	slli	r4,r2,8
 18105f4:	e0ffff17 	ldw	r3,-4(fp)
 18105f8:	2804913a 	slli	r2,r5,4
 18105fc:	10c5883a 	add	r2,r2,r3
 1810600:	10801004 	addi	r2,r2,64
 1810604:	11000015 	stw	r4,0(r2)
        flash->dev.region_info[i].region_size = 
 1810608:	e17ffe17 	ldw	r5,-8(fp)
 181060c:	e0bffe17 	ldw	r2,-8(fp)
 1810610:	e0ffff17 	ldw	r3,-4(fp)
 1810614:	1004913a 	slli	r2,r2,4
 1810618:	10c5883a 	add	r2,r2,r3
 181061c:	10800f04 	addi	r2,r2,60
 1810620:	11000017 	ldw	r4,0(r2)
 1810624:	e0bffe17 	ldw	r2,-8(fp)
 1810628:	e0ffff17 	ldw	r3,-4(fp)
 181062c:	1004913a 	slli	r2,r2,4
 1810630:	10c5883a 	add	r2,r2,r3
 1810634:	10801004 	addi	r2,r2,64
 1810638:	10800017 	ldw	r2,0(r2)
 181063c:	2089383a 	mul	r4,r4,r2
 1810640:	e0ffff17 	ldw	r3,-4(fp)
 1810644:	2804913a 	slli	r2,r5,4
 1810648:	10c5883a 	add	r2,r2,r3
 181064c:	10800e04 	addi	r2,r2,56
 1810650:	11000015 	stw	r4,0(r2)
                                    flash->dev.region_info[i].number_of_blocks 
                                    * flash->dev.region_info[i].block_size;
        size += flash->dev.region_info[i].region_size;
 1810654:	e0bffe17 	ldw	r2,-8(fp)
 1810658:	e0ffff17 	ldw	r3,-4(fp)
 181065c:	1004913a 	slli	r2,r2,4
 1810660:	10c5883a 	add	r2,r2,r3
 1810664:	10800e04 	addi	r2,r2,56
 1810668:	10c00017 	ldw	r3,0(r2)
 181066c:	e0bffa17 	ldw	r2,-24(fp)
 1810670:	10c5883a 	add	r2,r2,r3
 1810674:	e0bffa15 	stw	r2,-24(fp)
    {
      ret_code = -ENOMEM;
    }
    else
    {
      for(i=0;i<flash->dev.number_of_regions;i++)
 1810678:	e0bffe17 	ldw	r2,-8(fp)
 181067c:	10800044 	addi	r2,r2,1
 1810680:	e0bffe15 	stw	r2,-8(fp)
 1810684:	e0bfff17 	ldw	r2,-4(fp)
 1810688:	10c00c17 	ldw	r3,48(r2)
 181068c:	e0bffe17 	ldw	r2,-8(fp)
 1810690:	10ffa916 	blt	r2,r3,1810538 <alt_read_cfi_table+0x1c4>
                                    flash->dev.region_info[i].number_of_blocks 
                                    * flash->dev.region_info[i].block_size;
        size += flash->dev.region_info[i].region_size;
      }
       
      if (size != device_size)
 1810694:	e0fffa17 	ldw	r3,-24(fp)
 1810698:	e0bffc17 	ldw	r2,-16(fp)
 181069c:	18800226 	beq	r3,r2,18106a8 <alt_read_cfi_table+0x334>
      {
        ret_code = -ENODEV;
 18106a0:	00bffb44 	movi	r2,-19
 18106a4:	e0bffb15 	stw	r2,-20(fp)
      }
    }
    
    boot_mode = (*flash->read_query)( flash, flash->primary_address + 0xf);
 18106a8:	e0bfff17 	ldw	r2,-4(fp)
 18106ac:	10c03417 	ldw	r3,208(r2)
 18106b0:	e0bfff17 	ldw	r2,-4(fp)
 18106b4:	10803217 	ldw	r2,200(r2)
 18106b8:	114003c4 	addi	r5,r2,15
 18106bc:	e13fff17 	ldw	r4,-4(fp)
 18106c0:	183ee83a 	callr	r3
 18106c4:	e0bff505 	stb	r2,-44(fp)
     * Intel Flash parts describe the sections in the order they appear
     * for AMD they just put all the small ones first then the bigger ones
     * So if it's a top boot part we have to reverse the order of the sectors
     * so they're in the correct order
     */
    if ((flash->algorithm == CFI_ALG_AMD) && (boot_mode == TOP_BOOT_DEVICE))
 18106c8:	e0bfff17 	ldw	r2,-4(fp)
 18106cc:	10802d17 	ldw	r2,180(r2)
 18106d0:	10800098 	cmpnei	r2,r2,2
 18106d4:	1000601e 	bne	r2,zero,1810858 <alt_read_cfi_table+0x4e4>
 18106d8:	e0bff503 	ldbu	r2,-44(fp)
 18106dc:	108000d8 	cmpnei	r2,r2,3
 18106e0:	10005d1e 	bne	r2,zero,1810858 <alt_read_cfi_table+0x4e4>
    {
      for(i=flash->dev.number_of_regions-1, j=0;
 18106e4:	e0bfff17 	ldw	r2,-4(fp)
 18106e8:	10800c17 	ldw	r2,48(r2)
 18106ec:	10bfffc4 	addi	r2,r2,-1
 18106f0:	e0bffe15 	stw	r2,-8(fp)
 18106f4:	e03ffd15 	stw	zero,-12(fp)
          j<=i;i--,j++)
 18106f8:	00005406 	br	181084c <alt_read_cfi_table+0x4d8>
      {
        swap = flash->dev.region_info[i].region_size;
 18106fc:	e0bffe17 	ldw	r2,-8(fp)
 1810700:	e0ffff17 	ldw	r3,-4(fp)
 1810704:	1004913a 	slli	r2,r2,4
 1810708:	10c5883a 	add	r2,r2,r3
 181070c:	10800e04 	addi	r2,r2,56
 1810710:	10800017 	ldw	r2,0(r2)
 1810714:	e0bff915 	stw	r2,-28(fp)
        flash->dev.region_info[i].region_size =  
 1810718:	e17ffe17 	ldw	r5,-8(fp)
 181071c:	e0bffd17 	ldw	r2,-12(fp)
 1810720:	e0ffff17 	ldw	r3,-4(fp)
 1810724:	1004913a 	slli	r2,r2,4
 1810728:	10c5883a 	add	r2,r2,r3
 181072c:	10800e04 	addi	r2,r2,56
 1810730:	11000017 	ldw	r4,0(r2)
 1810734:	e0ffff17 	ldw	r3,-4(fp)
 1810738:	2804913a 	slli	r2,r5,4
 181073c:	10c5883a 	add	r2,r2,r3
 1810740:	10800e04 	addi	r2,r2,56
 1810744:	11000015 	stw	r4,0(r2)
                                flash->dev.region_info[j].region_size;
        flash->dev.region_info[j].region_size = swap;
 1810748:	e0bffd17 	ldw	r2,-12(fp)
 181074c:	e0ffff17 	ldw	r3,-4(fp)
 1810750:	1004913a 	slli	r2,r2,4
 1810754:	10c5883a 	add	r2,r2,r3
 1810758:	10c00e04 	addi	r3,r2,56
 181075c:	e0bff917 	ldw	r2,-28(fp)
 1810760:	18800015 	stw	r2,0(r3)

        swap = flash->dev.region_info[i].block_size;
 1810764:	e0bffe17 	ldw	r2,-8(fp)
 1810768:	e0ffff17 	ldw	r3,-4(fp)
 181076c:	1004913a 	slli	r2,r2,4
 1810770:	10c5883a 	add	r2,r2,r3
 1810774:	10801004 	addi	r2,r2,64
 1810778:	10800017 	ldw	r2,0(r2)
 181077c:	e0bff915 	stw	r2,-28(fp)
        flash->dev.region_info[i].block_size =  
 1810780:	e17ffe17 	ldw	r5,-8(fp)
 1810784:	e0bffd17 	ldw	r2,-12(fp)
 1810788:	e0ffff17 	ldw	r3,-4(fp)
 181078c:	1004913a 	slli	r2,r2,4
 1810790:	10c5883a 	add	r2,r2,r3
 1810794:	10801004 	addi	r2,r2,64
 1810798:	11000017 	ldw	r4,0(r2)
 181079c:	e0ffff17 	ldw	r3,-4(fp)
 18107a0:	2804913a 	slli	r2,r5,4
 18107a4:	10c5883a 	add	r2,r2,r3
 18107a8:	10801004 	addi	r2,r2,64
 18107ac:	11000015 	stw	r4,0(r2)
                                flash->dev.region_info[j].block_size;
        flash->dev.region_info[j].block_size = swap;
 18107b0:	e0bffd17 	ldw	r2,-12(fp)
 18107b4:	e0ffff17 	ldw	r3,-4(fp)
 18107b8:	1004913a 	slli	r2,r2,4
 18107bc:	10c5883a 	add	r2,r2,r3
 18107c0:	10c01004 	addi	r3,r2,64
 18107c4:	e0bff917 	ldw	r2,-28(fp)
 18107c8:	18800015 	stw	r2,0(r3)
 
        swap = flash->dev.region_info[i].number_of_blocks;
 18107cc:	e0bffe17 	ldw	r2,-8(fp)
 18107d0:	e0ffff17 	ldw	r3,-4(fp)
 18107d4:	1004913a 	slli	r2,r2,4
 18107d8:	10c5883a 	add	r2,r2,r3
 18107dc:	10800f04 	addi	r2,r2,60
 18107e0:	10800017 	ldw	r2,0(r2)
 18107e4:	e0bff915 	stw	r2,-28(fp)
        flash->dev.region_info[i].number_of_blocks =  
 18107e8:	e17ffe17 	ldw	r5,-8(fp)
 18107ec:	e0bffd17 	ldw	r2,-12(fp)
 18107f0:	e0ffff17 	ldw	r3,-4(fp)
 18107f4:	1004913a 	slli	r2,r2,4
 18107f8:	10c5883a 	add	r2,r2,r3
 18107fc:	10800f04 	addi	r2,r2,60
 1810800:	11000017 	ldw	r4,0(r2)
 1810804:	e0ffff17 	ldw	r3,-4(fp)
 1810808:	2804913a 	slli	r2,r5,4
 181080c:	10c5883a 	add	r2,r2,r3
 1810810:	10800f04 	addi	r2,r2,60
 1810814:	11000015 	stw	r4,0(r2)
                                flash->dev.region_info[j].number_of_blocks;
        flash->dev.region_info[j].number_of_blocks = swap;
 1810818:	e0bffd17 	ldw	r2,-12(fp)
 181081c:	e0ffff17 	ldw	r3,-4(fp)
 1810820:	1004913a 	slli	r2,r2,4
 1810824:	10c5883a 	add	r2,r2,r3
 1810828:	10c00f04 	addi	r3,r2,60
 181082c:	e0bff917 	ldw	r2,-28(fp)
 1810830:	18800015 	stw	r2,0(r3)
     * so they're in the correct order
     */
    if ((flash->algorithm == CFI_ALG_AMD) && (boot_mode == TOP_BOOT_DEVICE))
    {
      for(i=flash->dev.number_of_regions-1, j=0;
          j<=i;i--,j++)
 1810834:	e0bffe17 	ldw	r2,-8(fp)
 1810838:	10bfffc4 	addi	r2,r2,-1
 181083c:	e0bffe15 	stw	r2,-8(fp)
 1810840:	e0bffd17 	ldw	r2,-12(fp)
 1810844:	10800044 	addi	r2,r2,1
 1810848:	e0bffd15 	stw	r2,-12(fp)
 181084c:	e0fffd17 	ldw	r3,-12(fp)
 1810850:	e0bffe17 	ldw	r2,-8(fp)
 1810854:	10ffa90e 	bge	r2,r3,18106fc <alt_read_cfi_table+0x388>
        flash->dev.region_info[j].number_of_blocks = swap;

      } 
    }
    
    for(i=0;i<flash->dev.number_of_regions;i++)
 1810858:	e03ffe15 	stw	zero,-8(fp)
 181085c:	00001306 	br	18108ac <alt_read_cfi_table+0x538>
    {
      flash->dev.region_info[i].offset = offset;
 1810860:	e0bffe17 	ldw	r2,-8(fp)
 1810864:	e0ffff17 	ldw	r3,-4(fp)
 1810868:	1004913a 	slli	r2,r2,4
 181086c:	10c5883a 	add	r2,r2,r3
 1810870:	10c00d04 	addi	r3,r2,52
 1810874:	e0bff617 	ldw	r2,-40(fp)
 1810878:	18800015 	stw	r2,0(r3)
      offset += flash->dev.region_info[i].region_size;
 181087c:	e0bffe17 	ldw	r2,-8(fp)
 1810880:	e0ffff17 	ldw	r3,-4(fp)
 1810884:	1004913a 	slli	r2,r2,4
 1810888:	10c5883a 	add	r2,r2,r3
 181088c:	10800e04 	addi	r2,r2,56
 1810890:	10c00017 	ldw	r3,0(r2)
 1810894:	e0bff617 	ldw	r2,-40(fp)
 1810898:	10c5883a 	add	r2,r2,r3
 181089c:	e0bff615 	stw	r2,-40(fp)
        flash->dev.region_info[j].number_of_blocks = swap;

      } 
    }
    
    for(i=0;i<flash->dev.number_of_regions;i++)
 18108a0:	e0bffe17 	ldw	r2,-8(fp)
 18108a4:	10800044 	addi	r2,r2,1
 18108a8:	e0bffe15 	stw	r2,-8(fp)
 18108ac:	e0bfff17 	ldw	r2,-4(fp)
 18108b0:	10c00c17 	ldw	r3,48(r2)
 18108b4:	e0bffe17 	ldw	r2,-8(fp)
 18108b8:	10ffe916 	blt	r2,r3,1810860 <alt_read_cfi_table+0x4ec>
    {
      flash->dev.region_info[i].offset = offset;
      offset += flash->dev.region_info[i].region_size;
    }
    
    (*flash->write_command)(flash->dev.base_addr, 
 18108bc:	e0bfff17 	ldw	r2,-4(fp)
 18108c0:	10c03317 	ldw	r3,204(r2)
 18108c4:	e0bfff17 	ldw	r2,-4(fp)
 18108c8:	11000a17 	ldw	r4,40(r2)
 18108cc:	01401544 	movi	r5,85
 18108d0:	01803fc4 	movi	r6,255
 18108d4:	183ee83a 	callr	r3
                            0x55, 
                            READ_ARRAY_MODE);
  }  

  return ret_code;
 18108d8:	e0bffb17 	ldw	r2,-20(fp)
}
 18108dc:	e037883a 	mov	sp,fp
 18108e0:	dfc00217 	ldw	ra,8(sp)
 18108e4:	df000117 	ldw	fp,4(sp)
 18108e8:	dc000017 	ldw	r16,0(sp)
 18108ec:	dec00304 	addi	sp,sp,12
 18108f0:	f800283a 	ret

018108f4 <alt_read_cfi_width>:
 * 
 * Work out the width of the device we're talking to and sanity check that we  
 * can read the CFI and the Primary Vendor specific Table
 */
int alt_read_cfi_width(alt_flash_cfi_dev* flash)
{
 18108f4:	defff704 	addi	sp,sp,-36
 18108f8:	dfc00815 	stw	ra,32(sp)
 18108fc:	df000715 	stw	fp,28(sp)
 1810900:	df000704 	addi	fp,sp,28
 1810904:	e13fff15 	stw	r4,-4(fp)
  int i;
  alt_u8 byte_id[12];
  alt_u16 iface;
  int ret_code = 0;
 1810908:	e03ff915 	stw	zero,-28(fp)

  /*
  * Check for 8 bit wide flash
  */
  alt_write_flash_command_8bit_device_8bit_mode(flash->dev.base_addr, 0x55, QUERY_MODE);
 181090c:	e0bfff17 	ldw	r2,-4(fp)
 1810910:	11000a17 	ldw	r4,40(r2)
 1810914:	01401544 	movi	r5,85
 1810918:	01802604 	movi	r6,152
 181091c:	180fe000 	call	180fe00 <alt_write_flash_command_8bit_device_8bit_mode>

  for(i=0;i<3;i++)
 1810920:	e03ffb15 	stw	zero,-20(fp)
 1810924:	00000f06 	br	1810964 <alt_read_cfi_width+0x70>
  {
    byte_id[i] = IORD_8DIRECT(flash->dev.base_addr, QUERY_ADDR+i);
 1810928:	e13ffb17 	ldw	r4,-20(fp)
 181092c:	e0bfff17 	ldw	r2,-4(fp)
 1810930:	10800a17 	ldw	r2,40(r2)
 1810934:	1007883a 	mov	r3,r2
 1810938:	e0bffb17 	ldw	r2,-20(fp)
 181093c:	1885883a 	add	r2,r3,r2
 1810940:	10800404 	addi	r2,r2,16
 1810944:	10800023 	ldbuio	r2,0(r2)
 1810948:	1007883a 	mov	r3,r2
 181094c:	e0bffc04 	addi	r2,fp,-16
 1810950:	1105883a 	add	r2,r2,r4
 1810954:	10c00005 	stb	r3,0(r2)
  /*
  * Check for 8 bit wide flash
  */
  alt_write_flash_command_8bit_device_8bit_mode(flash->dev.base_addr, 0x55, QUERY_MODE);

  for(i=0;i<3;i++)
 1810958:	e0bffb17 	ldw	r2,-20(fp)
 181095c:	10800044 	addi	r2,r2,1
 1810960:	e0bffb15 	stw	r2,-20(fp)
 1810964:	e0bffb17 	ldw	r2,-20(fp)
 1810968:	108000d0 	cmplti	r2,r2,3
 181096c:	103fee1e 	bne	r2,zero,1810928 <alt_read_cfi_width+0x34>
  {
    byte_id[i] = IORD_8DIRECT(flash->dev.base_addr, QUERY_ADDR+i);
  }

  if ((byte_id[0] == 'Q') &&
 1810970:	e0bffc03 	ldbu	r2,-16(fp)
 1810974:	10803fcc 	andi	r2,r2,255
 1810978:	10801458 	cmpnei	r2,r2,81
 181097c:	10001d1e 	bne	r2,zero,18109f4 <alt_read_cfi_width+0x100>
 1810980:	e0bffc43 	ldbu	r2,-15(fp)
 1810984:	10803fcc 	andi	r2,r2,255
 1810988:	10801498 	cmpnei	r2,r2,82
 181098c:	1000191e 	bne	r2,zero,18109f4 <alt_read_cfi_width+0x100>
 1810990:	e0bffc83 	ldbu	r2,-14(fp)
 1810994:	10803fcc 	andi	r2,r2,255
 1810998:	10801658 	cmpnei	r2,r2,89
 181099c:	1000151e 	bne	r2,zero,18109f4 <alt_read_cfi_width+0x100>
      (byte_id[1] == 'R') &&
      (byte_id[2] == 'Y'))
  {
    flash->mode_width = 1;
 18109a0:	e0ffff17 	ldw	r3,-4(fp)
 18109a4:	00800044 	movi	r2,1
 18109a8:	18802e15 	stw	r2,184(r3)
    flash->device_width = 1; 
 18109ac:	e0ffff17 	ldw	r3,-4(fp)
 18109b0:	00800044 	movi	r2,1
 18109b4:	18802f15 	stw	r2,188(r3)
    iface = IORD_16DIRECT(flash->dev.base_addr, INTERFACE_ADDR);
 18109b8:	e0bfff17 	ldw	r2,-4(fp)
 18109bc:	10800a17 	ldw	r2,40(r2)
 18109c0:	10800a04 	addi	r2,r2,40
 18109c4:	1080002b 	ldhuio	r2,0(r2)
 18109c8:	e0bffa0d 	sth	r2,-24(fp)
    iface += 1;
 18109cc:	e0bffa0b 	ldhu	r2,-24(fp)
 18109d0:	10800044 	addi	r2,r2,1
 18109d4:	e0bffa0d 	sth	r2,-24(fp)
    if (!(iface & 0x1))
 18109d8:	e0bffa0b 	ldhu	r2,-24(fp)
 18109dc:	1080004c 	andi	r2,r2,1
 18109e0:	1004c03a 	cmpne	r2,r2,zero
 18109e4:	1001a81e 	bne	r2,zero,1811088 <alt_read_cfi_width+0x794>
    {
      ret_code = -ENODEV;
 18109e8:	00bffb44 	movi	r2,-19
 18109ec:	e0bff915 	stw	r2,-28(fp)
  for(i=0;i<3;i++)
  {
    byte_id[i] = IORD_8DIRECT(flash->dev.base_addr, QUERY_ADDR+i);
  }

  if ((byte_id[0] == 'Q') &&
 18109f0:	0001a506 	br	1811088 <alt_read_cfi_width+0x794>
  else
  {
    /*
    * Check for 8/16 bit in byte wide mode
    */
    alt_write_flash_command_16bit_device_8bit_mode(flash->dev.base_addr, 0x55, QUERY_MODE);
 18109f4:	e0bfff17 	ldw	r2,-4(fp)
 18109f8:	11000a17 	ldw	r4,40(r2)
 18109fc:	01401544 	movi	r5,85
 1810a00:	01802604 	movi	r6,152
 1810a04:	180fe3c0 	call	180fe3c <alt_write_flash_command_16bit_device_8bit_mode>
    for(i=0;i<6;i++)
 1810a08:	e03ffb15 	stw	zero,-20(fp)
 1810a0c:	00000f06 	br	1810a4c <alt_read_cfi_width+0x158>
    {
      byte_id[i] = IORD_8DIRECT(flash->dev.base_addr, (QUERY_ADDR*2)+i);
 1810a10:	e13ffb17 	ldw	r4,-20(fp)
 1810a14:	e0bfff17 	ldw	r2,-4(fp)
 1810a18:	10800a17 	ldw	r2,40(r2)
 1810a1c:	1007883a 	mov	r3,r2
 1810a20:	e0bffb17 	ldw	r2,-20(fp)
 1810a24:	1885883a 	add	r2,r3,r2
 1810a28:	10800804 	addi	r2,r2,32
 1810a2c:	10800023 	ldbuio	r2,0(r2)
 1810a30:	1007883a 	mov	r3,r2
 1810a34:	e0bffc04 	addi	r2,fp,-16
 1810a38:	1105883a 	add	r2,r2,r4
 1810a3c:	10c00005 	stb	r3,0(r2)
  {
    /*
    * Check for 8/16 bit in byte wide mode
    */
    alt_write_flash_command_16bit_device_8bit_mode(flash->dev.base_addr, 0x55, QUERY_MODE);
    for(i=0;i<6;i++)
 1810a40:	e0bffb17 	ldw	r2,-20(fp)
 1810a44:	10800044 	addi	r2,r2,1
 1810a48:	e0bffb15 	stw	r2,-20(fp)
 1810a4c:	e0bffb17 	ldw	r2,-20(fp)
 1810a50:	10800190 	cmplti	r2,r2,6
 1810a54:	103fee1e 	bne	r2,zero,1810a10 <alt_read_cfi_width+0x11c>
    {
      byte_id[i] = IORD_8DIRECT(flash->dev.base_addr, (QUERY_ADDR*2)+i);
    }

    if ((byte_id[0] == 'Q') && 
 1810a58:	e0bffc03 	ldbu	r2,-16(fp)
 1810a5c:	10803fcc 	andi	r2,r2,255
 1810a60:	10801458 	cmpnei	r2,r2,81
 1810a64:	1000291e 	bne	r2,zero,1810b0c <alt_read_cfi_width+0x218>
 1810a68:	e0bffc43 	ldbu	r2,-15(fp)
 1810a6c:	10803fcc 	andi	r2,r2,255
 1810a70:	10801458 	cmpnei	r2,r2,81
 1810a74:	1000251e 	bne	r2,zero,1810b0c <alt_read_cfi_width+0x218>
 1810a78:	e0bffc83 	ldbu	r2,-14(fp)
 1810a7c:	10803fcc 	andi	r2,r2,255
 1810a80:	10801498 	cmpnei	r2,r2,82
 1810a84:	1000211e 	bne	r2,zero,1810b0c <alt_read_cfi_width+0x218>
 1810a88:	e0bffcc3 	ldbu	r2,-13(fp)
 1810a8c:	10803fcc 	andi	r2,r2,255
 1810a90:	10801498 	cmpnei	r2,r2,82
 1810a94:	10001d1e 	bne	r2,zero,1810b0c <alt_read_cfi_width+0x218>
 1810a98:	e0bffd03 	ldbu	r2,-12(fp)
 1810a9c:	10803fcc 	andi	r2,r2,255
 1810aa0:	10801658 	cmpnei	r2,r2,89
 1810aa4:	1000191e 	bne	r2,zero,1810b0c <alt_read_cfi_width+0x218>
 1810aa8:	e0bffd43 	ldbu	r2,-11(fp)
 1810aac:	10803fcc 	andi	r2,r2,255
 1810ab0:	10801658 	cmpnei	r2,r2,89
 1810ab4:	1000151e 	bne	r2,zero,1810b0c <alt_read_cfi_width+0x218>
        (byte_id[2] == 'R') &&
        (byte_id[3] == 'R') && 
        (byte_id[4] == 'Y') && 
        (byte_id[5] == 'Y'))
    {
      flash->mode_width = 1;
 1810ab8:	e0ffff17 	ldw	r3,-4(fp)
 1810abc:	00800044 	movi	r2,1
 1810ac0:	18802e15 	stw	r2,184(r3)
      flash->device_width = 2; 
 1810ac4:	e0ffff17 	ldw	r3,-4(fp)
 1810ac8:	00800084 	movi	r2,2
 1810acc:	18802f15 	stw	r2,188(r3)
      iface = IORD_16DIRECT(flash->dev.base_addr, INTERFACE_ADDR*2);
 1810ad0:	e0bfff17 	ldw	r2,-4(fp)
 1810ad4:	10800a17 	ldw	r2,40(r2)
 1810ad8:	10801404 	addi	r2,r2,80
 1810adc:	1080002b 	ldhuio	r2,0(r2)
 1810ae0:	e0bffa0d 	sth	r2,-24(fp)
      iface += 1;
 1810ae4:	e0bffa0b 	ldhu	r2,-24(fp)
 1810ae8:	10800044 	addi	r2,r2,1
 1810aec:	e0bffa0d 	sth	r2,-24(fp)
      if (!(iface & 0x1))
 1810af0:	e0bffa0b 	ldhu	r2,-24(fp)
 1810af4:	1080004c 	andi	r2,r2,1
 1810af8:	1004c03a 	cmpne	r2,r2,zero
 1810afc:	1001621e 	bne	r2,zero,1811088 <alt_read_cfi_width+0x794>
      {
        ret_code = -ENODEV;
 1810b00:	00bffb44 	movi	r2,-19
 1810b04:	e0bff915 	stw	r2,-28(fp)
    for(i=0;i<6;i++)
    {
      byte_id[i] = IORD_8DIRECT(flash->dev.base_addr, (QUERY_ADDR*2)+i);
    }

    if ((byte_id[0] == 'Q') && 
 1810b08:	00015f06 	br	1811088 <alt_read_cfi_width+0x794>
    else
    {
      /*
      * Check for 16 bit flash in word mode
      */
      alt_write_flash_command_16bit_device_16bit_mode(flash->dev.base_addr, 0x55, QUERY_MODE);
 1810b0c:	e0bfff17 	ldw	r2,-4(fp)
 1810b10:	11000a17 	ldw	r4,40(r2)
 1810b14:	01401544 	movi	r5,85
 1810b18:	01802604 	movi	r6,152
 1810b1c:	180ff000 	call	180ff00 <alt_write_flash_command_16bit_device_16bit_mode>
      for(i=0;i<6;i++)
 1810b20:	e03ffb15 	stw	zero,-20(fp)
 1810b24:	00000f06 	br	1810b64 <alt_read_cfi_width+0x270>
      {
        byte_id[i] = IORD_8DIRECT(flash->dev.base_addr, (QUERY_ADDR*2)+i);
 1810b28:	e13ffb17 	ldw	r4,-20(fp)
 1810b2c:	e0bfff17 	ldw	r2,-4(fp)
 1810b30:	10800a17 	ldw	r2,40(r2)
 1810b34:	1007883a 	mov	r3,r2
 1810b38:	e0bffb17 	ldw	r2,-20(fp)
 1810b3c:	1885883a 	add	r2,r3,r2
 1810b40:	10800804 	addi	r2,r2,32
 1810b44:	10800023 	ldbuio	r2,0(r2)
 1810b48:	1007883a 	mov	r3,r2
 1810b4c:	e0bffc04 	addi	r2,fp,-16
 1810b50:	1105883a 	add	r2,r2,r4
 1810b54:	10c00005 	stb	r3,0(r2)
    {
      /*
      * Check for 16 bit flash in word mode
      */
      alt_write_flash_command_16bit_device_16bit_mode(flash->dev.base_addr, 0x55, QUERY_MODE);
      for(i=0;i<6;i++)
 1810b58:	e0bffb17 	ldw	r2,-20(fp)
 1810b5c:	10800044 	addi	r2,r2,1
 1810b60:	e0bffb15 	stw	r2,-20(fp)
 1810b64:	e0bffb17 	ldw	r2,-20(fp)
 1810b68:	10800190 	cmplti	r2,r2,6
 1810b6c:	103fee1e 	bne	r2,zero,1810b28 <alt_read_cfi_width+0x234>
      {
        byte_id[i] = IORD_8DIRECT(flash->dev.base_addr, (QUERY_ADDR*2)+i);
      }

      if ((byte_id[0] == 'Q') && 
 1810b70:	e0bffc03 	ldbu	r2,-16(fp)
 1810b74:	10803fcc 	andi	r2,r2,255
 1810b78:	10801458 	cmpnei	r2,r2,81
 1810b7c:	1000291e 	bne	r2,zero,1810c24 <alt_read_cfi_width+0x330>
 1810b80:	e0bffc43 	ldbu	r2,-15(fp)
 1810b84:	10803fcc 	andi	r2,r2,255
 1810b88:	1004c03a 	cmpne	r2,r2,zero
 1810b8c:	1000251e 	bne	r2,zero,1810c24 <alt_read_cfi_width+0x330>
 1810b90:	e0bffc83 	ldbu	r2,-14(fp)
 1810b94:	10803fcc 	andi	r2,r2,255
 1810b98:	10801498 	cmpnei	r2,r2,82
 1810b9c:	1000211e 	bne	r2,zero,1810c24 <alt_read_cfi_width+0x330>
 1810ba0:	e0bffcc3 	ldbu	r2,-13(fp)
 1810ba4:	10803fcc 	andi	r2,r2,255
 1810ba8:	1004c03a 	cmpne	r2,r2,zero
 1810bac:	10001d1e 	bne	r2,zero,1810c24 <alt_read_cfi_width+0x330>
 1810bb0:	e0bffd03 	ldbu	r2,-12(fp)
 1810bb4:	10803fcc 	andi	r2,r2,255
 1810bb8:	10801658 	cmpnei	r2,r2,89
 1810bbc:	1000191e 	bne	r2,zero,1810c24 <alt_read_cfi_width+0x330>
 1810bc0:	e0bffd43 	ldbu	r2,-11(fp)
 1810bc4:	10803fcc 	andi	r2,r2,255
 1810bc8:	1004c03a 	cmpne	r2,r2,zero
 1810bcc:	1000151e 	bne	r2,zero,1810c24 <alt_read_cfi_width+0x330>
          (byte_id[2] == 'R') && 
          (byte_id[3] == '\0') && 
          (byte_id[4] == 'Y') && 
          (byte_id[5] == '\0'))
      {
        flash->mode_width = 2;
 1810bd0:	e0ffff17 	ldw	r3,-4(fp)
 1810bd4:	00800084 	movi	r2,2
 1810bd8:	18802e15 	stw	r2,184(r3)
        flash->device_width = 2; 
 1810bdc:	e0ffff17 	ldw	r3,-4(fp)
 1810be0:	00800084 	movi	r2,2
 1810be4:	18802f15 	stw	r2,188(r3)
        iface = IORD_16DIRECT(flash->dev.base_addr, INTERFACE_ADDR*2);
 1810be8:	e0bfff17 	ldw	r2,-4(fp)
 1810bec:	10800a17 	ldw	r2,40(r2)
 1810bf0:	10801404 	addi	r2,r2,80
 1810bf4:	1080002b 	ldhuio	r2,0(r2)
 1810bf8:	e0bffa0d 	sth	r2,-24(fp)
        iface += 1;
 1810bfc:	e0bffa0b 	ldhu	r2,-24(fp)
 1810c00:	10800044 	addi	r2,r2,1
 1810c04:	e0bffa0d 	sth	r2,-24(fp)
        if (!(iface & 0x2))
 1810c08:	e0bffa0b 	ldhu	r2,-24(fp)
 1810c0c:	1080008c 	andi	r2,r2,2
 1810c10:	1004c03a 	cmpne	r2,r2,zero
 1810c14:	10011c1e 	bne	r2,zero,1811088 <alt_read_cfi_width+0x794>
        {
          ret_code = -ENODEV;
 1810c18:	00bffb44 	movi	r2,-19
 1810c1c:	e0bff915 	stw	r2,-28(fp)
      for(i=0;i<6;i++)
      {
        byte_id[i] = IORD_8DIRECT(flash->dev.base_addr, (QUERY_ADDR*2)+i);
      }

      if ((byte_id[0] == 'Q') && 
 1810c20:	00011906 	br	1811088 <alt_read_cfi_width+0x794>
      else
      {
        /*
        * Check for 32bit wide flash in 32 bit mode
        */
        alt_write_flash_command_32bit_device_32bit_mode(flash->dev.base_addr, 0x55, QUERY_MODE);
 1810c24:	e0bfff17 	ldw	r2,-4(fp)
 1810c28:	11000a17 	ldw	r4,40(r2)
 1810c2c:	01401544 	movi	r5,85
 1810c30:	01802604 	movi	r6,152
 1810c34:	180ff8c0 	call	180ff8c <alt_write_flash_command_32bit_device_32bit_mode>
        for(i=0;i<12;i++)
 1810c38:	e03ffb15 	stw	zero,-20(fp)
 1810c3c:	00000f06 	br	1810c7c <alt_read_cfi_width+0x388>
        {
          byte_id[i] = IORD_8DIRECT(flash->dev.base_addr, (QUERY_ADDR*4)+i);
 1810c40:	e13ffb17 	ldw	r4,-20(fp)
 1810c44:	e0bfff17 	ldw	r2,-4(fp)
 1810c48:	10800a17 	ldw	r2,40(r2)
 1810c4c:	1007883a 	mov	r3,r2
 1810c50:	e0bffb17 	ldw	r2,-20(fp)
 1810c54:	1885883a 	add	r2,r3,r2
 1810c58:	10801004 	addi	r2,r2,64
 1810c5c:	10800023 	ldbuio	r2,0(r2)
 1810c60:	1007883a 	mov	r3,r2
 1810c64:	e0bffc04 	addi	r2,fp,-16
 1810c68:	1105883a 	add	r2,r2,r4
 1810c6c:	10c00005 	stb	r3,0(r2)
      {
        /*
        * Check for 32bit wide flash in 32 bit mode
        */
        alt_write_flash_command_32bit_device_32bit_mode(flash->dev.base_addr, 0x55, QUERY_MODE);
        for(i=0;i<12;i++)
 1810c70:	e0bffb17 	ldw	r2,-20(fp)
 1810c74:	10800044 	addi	r2,r2,1
 1810c78:	e0bffb15 	stw	r2,-20(fp)
 1810c7c:	e0bffb17 	ldw	r2,-20(fp)
 1810c80:	10800310 	cmplti	r2,r2,12
 1810c84:	103fee1e 	bne	r2,zero,1810c40 <alt_read_cfi_width+0x34c>
        {
          byte_id[i] = IORD_8DIRECT(flash->dev.base_addr, (QUERY_ADDR*4)+i);
        }

        if ((byte_id[0] == 'Q') &&
 1810c88:	e0bffc03 	ldbu	r2,-16(fp)
 1810c8c:	10803fcc 	andi	r2,r2,255
 1810c90:	10801458 	cmpnei	r2,r2,81
 1810c94:	1000411e 	bne	r2,zero,1810d9c <alt_read_cfi_width+0x4a8>
 1810c98:	e0bffc43 	ldbu	r2,-15(fp)
 1810c9c:	10803fcc 	andi	r2,r2,255
 1810ca0:	1004c03a 	cmpne	r2,r2,zero
 1810ca4:	10003d1e 	bne	r2,zero,1810d9c <alt_read_cfi_width+0x4a8>
 1810ca8:	e0bffc83 	ldbu	r2,-14(fp)
 1810cac:	10803fcc 	andi	r2,r2,255
 1810cb0:	1004c03a 	cmpne	r2,r2,zero
 1810cb4:	1000391e 	bne	r2,zero,1810d9c <alt_read_cfi_width+0x4a8>
 1810cb8:	e0bffcc3 	ldbu	r2,-13(fp)
 1810cbc:	10803fcc 	andi	r2,r2,255
 1810cc0:	1004c03a 	cmpne	r2,r2,zero
 1810cc4:	1000351e 	bne	r2,zero,1810d9c <alt_read_cfi_width+0x4a8>
 1810cc8:	e0bffd03 	ldbu	r2,-12(fp)
 1810ccc:	10803fcc 	andi	r2,r2,255
 1810cd0:	10801498 	cmpnei	r2,r2,82
 1810cd4:	1000311e 	bne	r2,zero,1810d9c <alt_read_cfi_width+0x4a8>
 1810cd8:	e0bffd43 	ldbu	r2,-11(fp)
 1810cdc:	10803fcc 	andi	r2,r2,255
 1810ce0:	1004c03a 	cmpne	r2,r2,zero
 1810ce4:	10002d1e 	bne	r2,zero,1810d9c <alt_read_cfi_width+0x4a8>
 1810ce8:	e0bffd83 	ldbu	r2,-10(fp)
 1810cec:	10803fcc 	andi	r2,r2,255
 1810cf0:	1004c03a 	cmpne	r2,r2,zero
 1810cf4:	1000291e 	bne	r2,zero,1810d9c <alt_read_cfi_width+0x4a8>
 1810cf8:	e0bffdc3 	ldbu	r2,-9(fp)
 1810cfc:	10803fcc 	andi	r2,r2,255
 1810d00:	1004c03a 	cmpne	r2,r2,zero
 1810d04:	1000251e 	bne	r2,zero,1810d9c <alt_read_cfi_width+0x4a8>
 1810d08:	e0bffe03 	ldbu	r2,-8(fp)
 1810d0c:	10803fcc 	andi	r2,r2,255
 1810d10:	10801658 	cmpnei	r2,r2,89
 1810d14:	1000211e 	bne	r2,zero,1810d9c <alt_read_cfi_width+0x4a8>
 1810d18:	e0bffe43 	ldbu	r2,-7(fp)
 1810d1c:	10803fcc 	andi	r2,r2,255
 1810d20:	1004c03a 	cmpne	r2,r2,zero
 1810d24:	10001d1e 	bne	r2,zero,1810d9c <alt_read_cfi_width+0x4a8>
 1810d28:	e0bffe83 	ldbu	r2,-6(fp)
 1810d2c:	10803fcc 	andi	r2,r2,255
 1810d30:	1004c03a 	cmpne	r2,r2,zero
 1810d34:	1000191e 	bne	r2,zero,1810d9c <alt_read_cfi_width+0x4a8>
 1810d38:	e0bffec3 	ldbu	r2,-5(fp)
 1810d3c:	10803fcc 	andi	r2,r2,255
 1810d40:	1004c03a 	cmpne	r2,r2,zero
 1810d44:	1000151e 	bne	r2,zero,1810d9c <alt_read_cfi_width+0x4a8>
          (byte_id[8] == 'Y') && 
          (byte_id[9] == '\0') && 
          (byte_id[10] == '\0') && 
          (byte_id[11] == '\0'))
        {
          flash->mode_width = 4;
 1810d48:	e0ffff17 	ldw	r3,-4(fp)
 1810d4c:	00800104 	movi	r2,4
 1810d50:	18802e15 	stw	r2,184(r3)
          flash->device_width = 4; 
 1810d54:	e0ffff17 	ldw	r3,-4(fp)
 1810d58:	00800104 	movi	r2,4
 1810d5c:	18802f15 	stw	r2,188(r3)
          iface = IORD_32DIRECT(flash->dev.base_addr, INTERFACE_ADDR*4);
 1810d60:	e0bfff17 	ldw	r2,-4(fp)
 1810d64:	10800a17 	ldw	r2,40(r2)
 1810d68:	10802804 	addi	r2,r2,160
 1810d6c:	10800037 	ldwio	r2,0(r2)
 1810d70:	e0bffa0d 	sth	r2,-24(fp)
          iface += 1;
 1810d74:	e0bffa0b 	ldhu	r2,-24(fp)
 1810d78:	10800044 	addi	r2,r2,1
 1810d7c:	e0bffa0d 	sth	r2,-24(fp)
          if (!(iface & 0x4))
 1810d80:	e0bffa0b 	ldhu	r2,-24(fp)
 1810d84:	1080010c 	andi	r2,r2,4
 1810d88:	1004c03a 	cmpne	r2,r2,zero
 1810d8c:	1000be1e 	bne	r2,zero,1811088 <alt_read_cfi_width+0x794>
          {
            ret_code = -ENODEV;
 1810d90:	00bffb44 	movi	r2,-19
 1810d94:	e0bff915 	stw	r2,-28(fp)
        for(i=0;i<12;i++)
        {
          byte_id[i] = IORD_8DIRECT(flash->dev.base_addr, (QUERY_ADDR*4)+i);
        }

        if ((byte_id[0] == 'Q') &&
 1810d98:	0000bb06 	br	1811088 <alt_read_cfi_width+0x794>
        else
        {
          /*
          * Check for 32 bit wide in 16 bit mode
          */
          alt_write_flash_command_32bit_device_16bit_mode(flash->dev.base_addr, 0x55, QUERY_MODE);
 1810d9c:	e0bfff17 	ldw	r2,-4(fp)
 1810da0:	11000a17 	ldw	r4,40(r2)
 1810da4:	01401544 	movi	r5,85
 1810da8:	01802604 	movi	r6,152
 1810dac:	180ff440 	call	180ff44 <alt_write_flash_command_32bit_device_16bit_mode>
          for(i=0;i<12;i++)
 1810db0:	e03ffb15 	stw	zero,-20(fp)
 1810db4:	00000f06 	br	1810df4 <alt_read_cfi_width+0x500>
          {
            byte_id[i] = IORD_8DIRECT(flash->dev.base_addr, (QUERY_ADDR*4)+i);
 1810db8:	e13ffb17 	ldw	r4,-20(fp)
 1810dbc:	e0bfff17 	ldw	r2,-4(fp)
 1810dc0:	10800a17 	ldw	r2,40(r2)
 1810dc4:	1007883a 	mov	r3,r2
 1810dc8:	e0bffb17 	ldw	r2,-20(fp)
 1810dcc:	1885883a 	add	r2,r3,r2
 1810dd0:	10801004 	addi	r2,r2,64
 1810dd4:	10800023 	ldbuio	r2,0(r2)
 1810dd8:	1007883a 	mov	r3,r2
 1810ddc:	e0bffc04 	addi	r2,fp,-16
 1810de0:	1105883a 	add	r2,r2,r4
 1810de4:	10c00005 	stb	r3,0(r2)
        {
          /*
          * Check for 32 bit wide in 16 bit mode
          */
          alt_write_flash_command_32bit_device_16bit_mode(flash->dev.base_addr, 0x55, QUERY_MODE);
          for(i=0;i<12;i++)
 1810de8:	e0bffb17 	ldw	r2,-20(fp)
 1810dec:	10800044 	addi	r2,r2,1
 1810df0:	e0bffb15 	stw	r2,-20(fp)
 1810df4:	e0bffb17 	ldw	r2,-20(fp)
 1810df8:	10800310 	cmplti	r2,r2,12
 1810dfc:	103fee1e 	bne	r2,zero,1810db8 <alt_read_cfi_width+0x4c4>
          {
            byte_id[i] = IORD_8DIRECT(flash->dev.base_addr, (QUERY_ADDR*4)+i);
          }

          if ((byte_id[0] == 'Q') &&
 1810e00:	e0bffc03 	ldbu	r2,-16(fp)
 1810e04:	10803fcc 	andi	r2,r2,255
 1810e08:	10801458 	cmpnei	r2,r2,81
 1810e0c:	1000411e 	bne	r2,zero,1810f14 <alt_read_cfi_width+0x620>
 1810e10:	e0bffc43 	ldbu	r2,-15(fp)
 1810e14:	10803fcc 	andi	r2,r2,255
 1810e18:	1004c03a 	cmpne	r2,r2,zero
 1810e1c:	10003d1e 	bne	r2,zero,1810f14 <alt_read_cfi_width+0x620>
 1810e20:	e0bffc83 	ldbu	r2,-14(fp)
 1810e24:	10803fcc 	andi	r2,r2,255
 1810e28:	10801458 	cmpnei	r2,r2,81
 1810e2c:	1000391e 	bne	r2,zero,1810f14 <alt_read_cfi_width+0x620>
 1810e30:	e0bffcc3 	ldbu	r2,-13(fp)
 1810e34:	10803fcc 	andi	r2,r2,255
 1810e38:	1004c03a 	cmpne	r2,r2,zero
 1810e3c:	1000351e 	bne	r2,zero,1810f14 <alt_read_cfi_width+0x620>
 1810e40:	e0bffd03 	ldbu	r2,-12(fp)
 1810e44:	10803fcc 	andi	r2,r2,255
 1810e48:	10801498 	cmpnei	r2,r2,82
 1810e4c:	1000311e 	bne	r2,zero,1810f14 <alt_read_cfi_width+0x620>
 1810e50:	e0bffd43 	ldbu	r2,-11(fp)
 1810e54:	10803fcc 	andi	r2,r2,255
 1810e58:	1004c03a 	cmpne	r2,r2,zero
 1810e5c:	10002d1e 	bne	r2,zero,1810f14 <alt_read_cfi_width+0x620>
 1810e60:	e0bffd83 	ldbu	r2,-10(fp)
 1810e64:	10803fcc 	andi	r2,r2,255
 1810e68:	10801498 	cmpnei	r2,r2,82
 1810e6c:	1000291e 	bne	r2,zero,1810f14 <alt_read_cfi_width+0x620>
 1810e70:	e0bffdc3 	ldbu	r2,-9(fp)
 1810e74:	10803fcc 	andi	r2,r2,255
 1810e78:	1004c03a 	cmpne	r2,r2,zero
 1810e7c:	1000251e 	bne	r2,zero,1810f14 <alt_read_cfi_width+0x620>
 1810e80:	e0bffe03 	ldbu	r2,-8(fp)
 1810e84:	10803fcc 	andi	r2,r2,255
 1810e88:	10801658 	cmpnei	r2,r2,89
 1810e8c:	1000211e 	bne	r2,zero,1810f14 <alt_read_cfi_width+0x620>
 1810e90:	e0bffe43 	ldbu	r2,-7(fp)
 1810e94:	10803fcc 	andi	r2,r2,255
 1810e98:	1004c03a 	cmpne	r2,r2,zero
 1810e9c:	10001d1e 	bne	r2,zero,1810f14 <alt_read_cfi_width+0x620>
 1810ea0:	e0bffe83 	ldbu	r2,-6(fp)
 1810ea4:	10803fcc 	andi	r2,r2,255
 1810ea8:	10801658 	cmpnei	r2,r2,89
 1810eac:	1000191e 	bne	r2,zero,1810f14 <alt_read_cfi_width+0x620>
 1810eb0:	e0bffec3 	ldbu	r2,-5(fp)
 1810eb4:	10803fcc 	andi	r2,r2,255
 1810eb8:	1004c03a 	cmpne	r2,r2,zero
 1810ebc:	1000151e 	bne	r2,zero,1810f14 <alt_read_cfi_width+0x620>
              (byte_id[8] == 'Y') &&
              (byte_id[9] == '\0') &&
              (byte_id[10] == 'Y') &&
              (byte_id[11] == '\0'))
          {
            flash->mode_width = 2;
 1810ec0:	e0ffff17 	ldw	r3,-4(fp)
 1810ec4:	00800084 	movi	r2,2
 1810ec8:	18802e15 	stw	r2,184(r3)
            flash->device_width = 4; 
 1810ecc:	e0ffff17 	ldw	r3,-4(fp)
 1810ed0:	00800104 	movi	r2,4
 1810ed4:	18802f15 	stw	r2,188(r3)
            iface = IORD_32DIRECT(flash->dev.base_addr, INTERFACE_ADDR*4);
 1810ed8:	e0bfff17 	ldw	r2,-4(fp)
 1810edc:	10800a17 	ldw	r2,40(r2)
 1810ee0:	10802804 	addi	r2,r2,160
 1810ee4:	10800037 	ldwio	r2,0(r2)
 1810ee8:	e0bffa0d 	sth	r2,-24(fp)
            iface += 1;
 1810eec:	e0bffa0b 	ldhu	r2,-24(fp)
 1810ef0:	10800044 	addi	r2,r2,1
 1810ef4:	e0bffa0d 	sth	r2,-24(fp)
            if (!(iface & 0x4))
 1810ef8:	e0bffa0b 	ldhu	r2,-24(fp)
 1810efc:	1080010c 	andi	r2,r2,4
 1810f00:	1004c03a 	cmpne	r2,r2,zero
 1810f04:	1000601e 	bne	r2,zero,1811088 <alt_read_cfi_width+0x794>
            {
              ret_code = -ENODEV;
 1810f08:	00bffb44 	movi	r2,-19
 1810f0c:	e0bff915 	stw	r2,-28(fp)
          for(i=0;i<12;i++)
          {
            byte_id[i] = IORD_8DIRECT(flash->dev.base_addr, (QUERY_ADDR*4)+i);
          }

          if ((byte_id[0] == 'Q') &&
 1810f10:	00005d06 	br	1811088 <alt_read_cfi_width+0x794>
          else
          {
            /*
            * 32 Bit wide flash in byte mode
            */
            alt_write_flash_command_32bit_device_8bit_mode(flash->dev.base_addr, 0x55, QUERY_MODE);
 1810f14:	e0bfff17 	ldw	r2,-4(fp)
 1810f18:	11000a17 	ldw	r4,40(r2)
 1810f1c:	01401544 	movi	r5,85
 1810f20:	01802604 	movi	r6,152
 1810f24:	180feb80 	call	180feb8 <alt_write_flash_command_32bit_device_8bit_mode>
            for(i=0;i<12;i++)
 1810f28:	e03ffb15 	stw	zero,-20(fp)
 1810f2c:	00000f06 	br	1810f6c <alt_read_cfi_width+0x678>
            {
              byte_id[i] = IORD_8DIRECT(flash->dev.base_addr, (QUERY_ADDR*4)+i);
 1810f30:	e13ffb17 	ldw	r4,-20(fp)
 1810f34:	e0bfff17 	ldw	r2,-4(fp)
 1810f38:	10800a17 	ldw	r2,40(r2)
 1810f3c:	1007883a 	mov	r3,r2
 1810f40:	e0bffb17 	ldw	r2,-20(fp)
 1810f44:	1885883a 	add	r2,r3,r2
 1810f48:	10801004 	addi	r2,r2,64
 1810f4c:	10800023 	ldbuio	r2,0(r2)
 1810f50:	1007883a 	mov	r3,r2
 1810f54:	e0bffc04 	addi	r2,fp,-16
 1810f58:	1105883a 	add	r2,r2,r4
 1810f5c:	10c00005 	stb	r3,0(r2)
          {
            /*
            * 32 Bit wide flash in byte mode
            */
            alt_write_flash_command_32bit_device_8bit_mode(flash->dev.base_addr, 0x55, QUERY_MODE);
            for(i=0;i<12;i++)
 1810f60:	e0bffb17 	ldw	r2,-20(fp)
 1810f64:	10800044 	addi	r2,r2,1
 1810f68:	e0bffb15 	stw	r2,-20(fp)
 1810f6c:	e0bffb17 	ldw	r2,-20(fp)
 1810f70:	10800310 	cmplti	r2,r2,12
 1810f74:	103fee1e 	bne	r2,zero,1810f30 <alt_read_cfi_width+0x63c>
            {
              byte_id[i] = IORD_8DIRECT(flash->dev.base_addr, (QUERY_ADDR*4)+i);
            }

            if ((byte_id[0] == 'Q') &&
 1810f78:	e0bffc03 	ldbu	r2,-16(fp)
 1810f7c:	10803fcc 	andi	r2,r2,255
 1810f80:	10801458 	cmpnei	r2,r2,81
 1810f84:	1000401e 	bne	r2,zero,1811088 <alt_read_cfi_width+0x794>
 1810f88:	e0bffc43 	ldbu	r2,-15(fp)
 1810f8c:	10803fcc 	andi	r2,r2,255
 1810f90:	10801458 	cmpnei	r2,r2,81
 1810f94:	10003c1e 	bne	r2,zero,1811088 <alt_read_cfi_width+0x794>
 1810f98:	e0bffc83 	ldbu	r2,-14(fp)
 1810f9c:	10803fcc 	andi	r2,r2,255
 1810fa0:	10801458 	cmpnei	r2,r2,81
 1810fa4:	1000381e 	bne	r2,zero,1811088 <alt_read_cfi_width+0x794>
 1810fa8:	e0bffcc3 	ldbu	r2,-13(fp)
 1810fac:	10803fcc 	andi	r2,r2,255
 1810fb0:	10801458 	cmpnei	r2,r2,81
 1810fb4:	1000341e 	bne	r2,zero,1811088 <alt_read_cfi_width+0x794>
 1810fb8:	e0bffd03 	ldbu	r2,-12(fp)
 1810fbc:	10803fcc 	andi	r2,r2,255
 1810fc0:	10801498 	cmpnei	r2,r2,82
 1810fc4:	1000301e 	bne	r2,zero,1811088 <alt_read_cfi_width+0x794>
 1810fc8:	e0bffd43 	ldbu	r2,-11(fp)
 1810fcc:	10803fcc 	andi	r2,r2,255
 1810fd0:	10801498 	cmpnei	r2,r2,82
 1810fd4:	10002c1e 	bne	r2,zero,1811088 <alt_read_cfi_width+0x794>
 1810fd8:	e0bffd83 	ldbu	r2,-10(fp)
 1810fdc:	10803fcc 	andi	r2,r2,255
 1810fe0:	10801498 	cmpnei	r2,r2,82
 1810fe4:	1000281e 	bne	r2,zero,1811088 <alt_read_cfi_width+0x794>
 1810fe8:	e0bffdc3 	ldbu	r2,-9(fp)
 1810fec:	10803fcc 	andi	r2,r2,255
 1810ff0:	10801498 	cmpnei	r2,r2,82
 1810ff4:	1000241e 	bne	r2,zero,1811088 <alt_read_cfi_width+0x794>
 1810ff8:	e0bffe03 	ldbu	r2,-8(fp)
 1810ffc:	10803fcc 	andi	r2,r2,255
 1811000:	10801658 	cmpnei	r2,r2,89
 1811004:	1000201e 	bne	r2,zero,1811088 <alt_read_cfi_width+0x794>
 1811008:	e0bffe43 	ldbu	r2,-7(fp)
 181100c:	10803fcc 	andi	r2,r2,255
 1811010:	10801658 	cmpnei	r2,r2,89
 1811014:	10001c1e 	bne	r2,zero,1811088 <alt_read_cfi_width+0x794>
 1811018:	e0bffe83 	ldbu	r2,-6(fp)
 181101c:	10803fcc 	andi	r2,r2,255
 1811020:	10801658 	cmpnei	r2,r2,89
 1811024:	1000181e 	bne	r2,zero,1811088 <alt_read_cfi_width+0x794>
 1811028:	e0bffec3 	ldbu	r2,-5(fp)
 181102c:	10803fcc 	andi	r2,r2,255
 1811030:	10801658 	cmpnei	r2,r2,89
 1811034:	1000141e 	bne	r2,zero,1811088 <alt_read_cfi_width+0x794>
                (byte_id[8] == 'Y') && 
                (byte_id[9] == 'Y') && 
                (byte_id[10] == 'Y') && 
                (byte_id[11] == 'Y'))
            {
              flash->mode_width = 1;
 1811038:	e0ffff17 	ldw	r3,-4(fp)
 181103c:	00800044 	movi	r2,1
 1811040:	18802e15 	stw	r2,184(r3)
              flash->device_width = 4; 
 1811044:	e0ffff17 	ldw	r3,-4(fp)
 1811048:	00800104 	movi	r2,4
 181104c:	18802f15 	stw	r2,188(r3)
              iface = IORD_32DIRECT(flash->dev.base_addr, INTERFACE_ADDR*4);
 1811050:	e0bfff17 	ldw	r2,-4(fp)
 1811054:	10800a17 	ldw	r2,40(r2)
 1811058:	10802804 	addi	r2,r2,160
 181105c:	10800037 	ldwio	r2,0(r2)
 1811060:	e0bffa0d 	sth	r2,-24(fp)
              iface += 1;
 1811064:	e0bffa0b 	ldhu	r2,-24(fp)
 1811068:	10800044 	addi	r2,r2,1
 181106c:	e0bffa0d 	sth	r2,-24(fp)
              if (!(iface & 0x4))
 1811070:	e0bffa0b 	ldhu	r2,-24(fp)
 1811074:	1080010c 	andi	r2,r2,4
 1811078:	1004c03a 	cmpne	r2,r2,zero
 181107c:	1000021e 	bne	r2,zero,1811088 <alt_read_cfi_width+0x794>
              {
                ret_code = -ENODEV;
 1811080:	00bffb44 	movi	r2,-19
 1811084:	e0bff915 	stw	r2,-28(fp)
        }
      }
    }
  }
  
  return ret_code;
 1811088:	e0bff917 	ldw	r2,-28(fp)
}
 181108c:	e037883a 	mov	sp,fp
 1811090:	dfc00117 	ldw	ra,4(sp)
 1811094:	df000017 	ldw	fp,0(sp)
 1811098:	dec00204 	addi	sp,sp,8
 181109c:	f800283a 	ret

018110a0 <alt_check_primary_table>:
 * 
 * Check that the primary Vendor table starts with the 
 * correct pattern
 */
int alt_check_primary_table(alt_flash_cfi_dev* flash)
{
 18110a0:	defff904 	addi	sp,sp,-28
 18110a4:	dfc00615 	stw	ra,24(sp)
 18110a8:	df000515 	stw	fp,20(sp)
 18110ac:	dc000415 	stw	r16,16(sp)
 18110b0:	df000404 	addi	fp,sp,16
 18110b4:	e13fff15 	stw	r4,-4(fp)
  int i;
  int ret_code = 0;
 18110b8:	e03ffc15 	stw	zero,-16(fp)
  alt_u8 primary_query_string[3];
  
  flash->primary_address = alt_read_16bit_query_entry( flash, 
 18110bc:	e13fff17 	ldw	r4,-4(fp)
 18110c0:	01400544 	movi	r5,21
 18110c4:	18102f80 	call	18102f8 <alt_read_16bit_query_entry>
 18110c8:	10ffffcc 	andi	r3,r2,65535
 18110cc:	e0bfff17 	ldw	r2,-4(fp)
 18110d0:	10c03215 	stw	r3,200(r2)
                            PRIMARY_ADDR);
  
  for(i=0;i<3;i++)
 18110d4:	e03ffd15 	stw	zero,-12(fp)
 18110d8:	00001006 	br	181111c <alt_check_primary_table+0x7c>
  {
    primary_query_string[i] = 
 18110dc:	e43ffd17 	ldw	r16,-12(fp)
 18110e0:	e0bfff17 	ldw	r2,-4(fp)
 18110e4:	11803417 	ldw	r6,208(r2)
 18110e8:	e0bfff17 	ldw	r2,-4(fp)
 18110ec:	10c03217 	ldw	r3,200(r2)
 18110f0:	e0bffd17 	ldw	r2,-12(fp)
 18110f4:	188b883a 	add	r5,r3,r2
 18110f8:	e13fff17 	ldw	r4,-4(fp)
 18110fc:	303ee83a 	callr	r6
 1811100:	1007883a 	mov	r3,r2
 1811104:	e0bffe04 	addi	r2,fp,-8
 1811108:	1405883a 	add	r2,r2,r16
 181110c:	10c00005 	stb	r3,0(r2)
  alt_u8 primary_query_string[3];
  
  flash->primary_address = alt_read_16bit_query_entry( flash, 
                            PRIMARY_ADDR);
  
  for(i=0;i<3;i++)
 1811110:	e0bffd17 	ldw	r2,-12(fp)
 1811114:	10800044 	addi	r2,r2,1
 1811118:	e0bffd15 	stw	r2,-12(fp)
 181111c:	e0bffd17 	ldw	r2,-12(fp)
 1811120:	108000d0 	cmplti	r2,r2,3
 1811124:	103fed1e 	bne	r2,zero,18110dc <alt_check_primary_table+0x3c>
  {
    primary_query_string[i] = 
          (*flash->read_query)( flash,(flash->primary_address + i));
  }
    
  if ((primary_query_string[0] != 'P') ||
 1811128:	e0bffe03 	ldbu	r2,-8(fp)
 181112c:	10803fcc 	andi	r2,r2,255
 1811130:	10801418 	cmpnei	r2,r2,80
 1811134:	1000081e 	bne	r2,zero,1811158 <alt_check_primary_table+0xb8>
 1811138:	e0bffe43 	ldbu	r2,-7(fp)
 181113c:	10803fcc 	andi	r2,r2,255
 1811140:	10801498 	cmpnei	r2,r2,82
 1811144:	1000041e 	bne	r2,zero,1811158 <alt_check_primary_table+0xb8>
 1811148:	e0bffe83 	ldbu	r2,-6(fp)
 181114c:	10803fcc 	andi	r2,r2,255
 1811150:	10801260 	cmpeqi	r2,r2,73
 1811154:	1000021e 	bne	r2,zero,1811160 <alt_check_primary_table+0xc0>
      (primary_query_string[1] != 'R') ||
      (primary_query_string[2] != 'I'))
  {
    ret_code = -ENODEV;
 1811158:	00bffb44 	movi	r2,-19
 181115c:	e0bffc15 	stw	r2,-16(fp)
  }
  
  return ret_code;
 1811160:	e0bffc17 	ldw	r2,-16(fp)
}
 1811164:	e037883a 	mov	sp,fp
 1811168:	dfc00217 	ldw	ra,8(sp)
 181116c:	df000117 	ldw	fp,4(sp)
 1811170:	dc000017 	ldw	r16,0(sp)
 1811174:	dec00304 	addi	sp,sp,12
 1811178:	f800283a 	ret

0181117c <altera_avalon_jtag_uart_read_fd>:
 *
 */

int 
altera_avalon_jtag_uart_read_fd(alt_fd* fd, char* buffer, int space)
{
 181117c:	defffa04 	addi	sp,sp,-24
 1811180:	dfc00515 	stw	ra,20(sp)
 1811184:	df000415 	stw	fp,16(sp)
 1811188:	df000404 	addi	fp,sp,16
 181118c:	e13ffd15 	stw	r4,-12(fp)
 1811190:	e17ffe15 	stw	r5,-8(fp)
 1811194:	e1bfff15 	stw	r6,-4(fp)
    altera_avalon_jtag_uart_dev* dev = (altera_avalon_jtag_uart_dev*) fd->dev; 
 1811198:	e0bffd17 	ldw	r2,-12(fp)
 181119c:	10800017 	ldw	r2,0(r2)
 18111a0:	e0bffc15 	stw	r2,-16(fp)

    return altera_avalon_jtag_uart_read(&dev->state, buffer, space,
 18111a4:	e0bffc17 	ldw	r2,-16(fp)
 18111a8:	11000a04 	addi	r4,r2,40
 18111ac:	e0bffd17 	ldw	r2,-12(fp)
 18111b0:	11c00217 	ldw	r7,8(r2)
 18111b4:	e17ffe17 	ldw	r5,-8(fp)
 18111b8:	e1bfff17 	ldw	r6,-4(fp)
 18111bc:	18117c40 	call	18117c4 <altera_avalon_jtag_uart_read>
      fd->fd_flags);
}
 18111c0:	e037883a 	mov	sp,fp
 18111c4:	dfc00117 	ldw	ra,4(sp)
 18111c8:	df000017 	ldw	fp,0(sp)
 18111cc:	dec00204 	addi	sp,sp,8
 18111d0:	f800283a 	ret

018111d4 <altera_avalon_jtag_uart_write_fd>:

int 
altera_avalon_jtag_uart_write_fd(alt_fd* fd, const char* buffer, int space)
{
 18111d4:	defffa04 	addi	sp,sp,-24
 18111d8:	dfc00515 	stw	ra,20(sp)
 18111dc:	df000415 	stw	fp,16(sp)
 18111e0:	df000404 	addi	fp,sp,16
 18111e4:	e13ffd15 	stw	r4,-12(fp)
 18111e8:	e17ffe15 	stw	r5,-8(fp)
 18111ec:	e1bfff15 	stw	r6,-4(fp)
    altera_avalon_jtag_uart_dev* dev = (altera_avalon_jtag_uart_dev*) fd->dev; 
 18111f0:	e0bffd17 	ldw	r2,-12(fp)
 18111f4:	10800017 	ldw	r2,0(r2)
 18111f8:	e0bffc15 	stw	r2,-16(fp)

    return altera_avalon_jtag_uart_write(&dev->state, buffer, space,
 18111fc:	e0bffc17 	ldw	r2,-16(fp)
 1811200:	11000a04 	addi	r4,r2,40
 1811204:	e0bffd17 	ldw	r2,-12(fp)
 1811208:	11c00217 	ldw	r7,8(r2)
 181120c:	e17ffe17 	ldw	r5,-8(fp)
 1811210:	e1bfff17 	ldw	r6,-4(fp)
 1811214:	18119e80 	call	18119e8 <altera_avalon_jtag_uart_write>
      fd->fd_flags);
}
 1811218:	e037883a 	mov	sp,fp
 181121c:	dfc00117 	ldw	ra,4(sp)
 1811220:	df000017 	ldw	fp,0(sp)
 1811224:	dec00204 	addi	sp,sp,8
 1811228:	f800283a 	ret

0181122c <altera_avalon_jtag_uart_close_fd>:

#ifndef ALTERA_AVALON_JTAG_UART_SMALL

int 
altera_avalon_jtag_uart_close_fd(alt_fd* fd)
{
 181122c:	defffc04 	addi	sp,sp,-16
 1811230:	dfc00315 	stw	ra,12(sp)
 1811234:	df000215 	stw	fp,8(sp)
 1811238:	df000204 	addi	fp,sp,8
 181123c:	e13fff15 	stw	r4,-4(fp)
    altera_avalon_jtag_uart_dev* dev = (altera_avalon_jtag_uart_dev*) fd->dev; 
 1811240:	e0bfff17 	ldw	r2,-4(fp)
 1811244:	10800017 	ldw	r2,0(r2)
 1811248:	e0bffe15 	stw	r2,-8(fp)

    return altera_avalon_jtag_uart_close(&dev->state, fd->fd_flags);
 181124c:	e0bffe17 	ldw	r2,-8(fp)
 1811250:	11000a04 	addi	r4,r2,40
 1811254:	e0bfff17 	ldw	r2,-4(fp)
 1811258:	11400217 	ldw	r5,8(r2)
 181125c:	181165c0 	call	181165c <altera_avalon_jtag_uart_close>
}
 1811260:	e037883a 	mov	sp,fp
 1811264:	dfc00117 	ldw	ra,4(sp)
 1811268:	df000017 	ldw	fp,0(sp)
 181126c:	dec00204 	addi	sp,sp,8
 1811270:	f800283a 	ret

01811274 <altera_avalon_jtag_uart_ioctl_fd>:

int 
altera_avalon_jtag_uart_ioctl_fd(alt_fd* fd, int req, void* arg)
{
 1811274:	defffa04 	addi	sp,sp,-24
 1811278:	dfc00515 	stw	ra,20(sp)
 181127c:	df000415 	stw	fp,16(sp)
 1811280:	df000404 	addi	fp,sp,16
 1811284:	e13ffd15 	stw	r4,-12(fp)
 1811288:	e17ffe15 	stw	r5,-8(fp)
 181128c:	e1bfff15 	stw	r6,-4(fp)
    altera_avalon_jtag_uart_dev* dev = (altera_avalon_jtag_uart_dev*) fd->dev;
 1811290:	e0bffd17 	ldw	r2,-12(fp)
 1811294:	10800017 	ldw	r2,0(r2)
 1811298:	e0bffc15 	stw	r2,-16(fp)

    return altera_avalon_jtag_uart_ioctl(&dev->state, req, arg);
 181129c:	e0bffc17 	ldw	r2,-16(fp)
 18112a0:	11000a04 	addi	r4,r2,40
 18112a4:	e17ffe17 	ldw	r5,-8(fp)
 18112a8:	e1bfff17 	ldw	r6,-4(fp)
 18112ac:	18116d00 	call	18116d0 <altera_avalon_jtag_uart_ioctl>
}
 18112b0:	e037883a 	mov	sp,fp
 18112b4:	dfc00117 	ldw	ra,4(sp)
 18112b8:	df000017 	ldw	fp,0(sp)
 18112bc:	dec00204 	addi	sp,sp,8
 18112c0:	f800283a 	ret

018112c4 <altera_avalon_jtag_uart_init>:
 * Return 1 on sucessful IRQ register and 0 on failure.
 */

void altera_avalon_jtag_uart_init(altera_avalon_jtag_uart_state* sp, 
                                  int irq_controller_id, int irq)
{
 18112c4:	defffa04 	addi	sp,sp,-24
 18112c8:	dfc00515 	stw	ra,20(sp)
 18112cc:	df000415 	stw	fp,16(sp)
 18112d0:	df000404 	addi	fp,sp,16
 18112d4:	e13ffd15 	stw	r4,-12(fp)
 18112d8:	e17ffe15 	stw	r5,-8(fp)
 18112dc:	e1bfff15 	stw	r6,-4(fp)
  ALT_FLAG_CREATE(&sp->events, 0);
  ALT_SEM_CREATE(&sp->read_lock, 1);
  ALT_SEM_CREATE(&sp->write_lock, 1);

  /* enable read interrupts at the device */
  sp->irq_enable = ALTERA_AVALON_JTAG_UART_CONTROL_RE_MSK;
 18112e0:	e0fffd17 	ldw	r3,-12(fp)
 18112e4:	00800044 	movi	r2,1
 18112e8:	18800815 	stw	r2,32(r3)

  IOWR_ALTERA_AVALON_JTAG_UART_CONTROL(sp->base, sp->irq_enable); 
 18112ec:	e0bffd17 	ldw	r2,-12(fp)
 18112f0:	10800017 	ldw	r2,0(r2)
 18112f4:	11000104 	addi	r4,r2,4
 18112f8:	e0bffd17 	ldw	r2,-12(fp)
 18112fc:	10800817 	ldw	r2,32(r2)
 1811300:	1007883a 	mov	r3,r2
 1811304:	2005883a 	mov	r2,r4
 1811308:	10c00035 	stwio	r3,0(r2)
  
  /* register the interrupt handler */
#ifdef ALT_ENHANCED_INTERRUPT_API_PRESENT
  alt_ic_isr_register(irq_controller_id, irq, altera_avalon_jtag_uart_irq, 
 181130c:	e13ffe17 	ldw	r4,-8(fp)
 1811310:	e17fff17 	ldw	r5,-4(fp)
 1811314:	d8000015 	stw	zero,0(sp)
 1811318:	01806074 	movhi	r6,385
 181131c:	3184e104 	addi	r6,r6,4996
 1811320:	e1fffd17 	ldw	r7,-12(fp)
 1811324:	1813bb40 	call	1813bb4 <alt_ic_isr_register>
#else
  alt_irq_register(irq, sp, altera_avalon_jtag_uart_irq);
#endif  

  /* Register an alarm to go off every second to check for presence of host */
  sp->host_inactive = 0;
 1811328:	e0bffd17 	ldw	r2,-12(fp)
 181132c:	10000915 	stw	zero,36(r2)

  if (alt_alarm_start(&sp->alarm, alt_ticks_per_second(), 
 1811330:	e0bffd17 	ldw	r2,-12(fp)
 1811334:	11000204 	addi	r4,r2,8
 * Obtain the system clock rate in ticks/s. 
 */

static ALT_INLINE alt_u32 ALT_ALWAYS_INLINE alt_ticks_per_second (void)
{
  return _alt_tick_rate;
 1811338:	00806074 	movhi	r2,385
 181133c:	109ee504 	addi	r2,r2,31636
 1811340:	10800017 	ldw	r2,0(r2)
 1811344:	100b883a 	mov	r5,r2
 1811348:	01806074 	movhi	r6,385
 181134c:	31856b04 	addi	r6,r6,5548
 1811350:	e1fffd17 	ldw	r7,-12(fp)
 1811354:	18136100 	call	1813610 <alt_alarm_start>
 1811358:	1004403a 	cmpge	r2,r2,zero
 181135c:	1000041e 	bne	r2,zero,1811370 <altera_avalon_jtag_uart_init+0xac>
    &altera_avalon_jtag_uart_timeout, sp) < 0)
  {
    /* If we can't set the alarm then record "don't know if host present" 
     * and behave as though the host is present.
     */
    sp->timeout = INT_MAX;
 1811360:	e0fffd17 	ldw	r3,-12(fp)
 1811364:	00a00034 	movhi	r2,32768
 1811368:	10bfffc4 	addi	r2,r2,-1
 181136c:	18800115 	stw	r2,4(r3)
  }

  /* ALT_LOG - see altera_hal/HAL/inc/sys/alt_log_printf.h */ 
  ALT_LOG_JTAG_UART_ALARM_REGISTER(sp, sp->base);
}
 1811370:	e037883a 	mov	sp,fp
 1811374:	dfc00117 	ldw	ra,4(sp)
 1811378:	df000017 	ldw	fp,0(sp)
 181137c:	dec00204 	addi	sp,sp,8
 1811380:	f800283a 	ret

01811384 <altera_avalon_jtag_uart_irq>:
#ifdef ALT_ENHANCED_INTERRUPT_API_PRESENT
static void altera_avalon_jtag_uart_irq(void* context)
#else
static void altera_avalon_jtag_uart_irq(void* context, alt_u32 id)
#endif
{
 1811384:	defff804 	addi	sp,sp,-32
 1811388:	df000715 	stw	fp,28(sp)
 181138c:	df000704 	addi	fp,sp,28
 1811390:	e13fff15 	stw	r4,-4(fp)
  altera_avalon_jtag_uart_state* sp = (altera_avalon_jtag_uart_state*) context;
 1811394:	e0bfff17 	ldw	r2,-4(fp)
 1811398:	e0bffe15 	stw	r2,-8(fp)
  unsigned int base = sp->base;
 181139c:	e0bffe17 	ldw	r2,-8(fp)
 18113a0:	10800017 	ldw	r2,0(r2)
 18113a4:	e0bffd15 	stw	r2,-12(fp)
 18113a8:	00000006 	br	18113ac <altera_avalon_jtag_uart_irq+0x28>
  /* ALT_LOG - see altera_hal/HAL/inc/sys/alt_log_printf.h */ 
  ALT_LOG_JTAG_UART_ISR_FUNCTION(base, sp);

  for ( ; ; )
  {
    unsigned int control = IORD_ALTERA_AVALON_JTAG_UART_CONTROL(base);
 18113ac:	e0bffd17 	ldw	r2,-12(fp)
 18113b0:	10800104 	addi	r2,r2,4
 18113b4:	10800037 	ldwio	r2,0(r2)
 18113b8:	e0bffc15 	stw	r2,-16(fp)

    /* Return once nothing more to do */
    if ((control & (ALTERA_AVALON_JTAG_UART_CONTROL_RI_MSK | ALTERA_AVALON_JTAG_UART_CONTROL_WI_MSK)) == 0)
 18113bc:	e0bffc17 	ldw	r2,-16(fp)
 18113c0:	1080c00c 	andi	r2,r2,768
 18113c4:	1005003a 	cmpeq	r2,r2,zero
 18113c8:	1000741e 	bne	r2,zero,181159c <altera_avalon_jtag_uart_irq+0x218>
      break;

    if (control & ALTERA_AVALON_JTAG_UART_CONTROL_RI_MSK)
 18113cc:	e0bffc17 	ldw	r2,-16(fp)
 18113d0:	1080400c 	andi	r2,r2,256
 18113d4:	1005003a 	cmpeq	r2,r2,zero
 18113d8:	1000351e 	bne	r2,zero,18114b0 <altera_avalon_jtag_uart_irq+0x12c>
    {
      /* process a read irq.  Start by assuming that there is data in the
       * receive FIFO (otherwise why would we have been interrupted?)
       */
      unsigned int data = 1 << ALTERA_AVALON_JTAG_UART_DATA_RAVAIL_OFST;
 18113dc:	00800074 	movhi	r2,1
 18113e0:	e0bffb15 	stw	r2,-20(fp)
      for ( ; ; )
      {
        /* Check whether there is space in the buffer.  If not then we must not
         * read any characters from the buffer as they will be lost.
         */
        unsigned int next = (sp->rx_in + 1) % ALTERA_AVALON_JTAG_UART_BUF_LEN;
 18113e4:	e0bffe17 	ldw	r2,-8(fp)
 18113e8:	10800a17 	ldw	r2,40(r2)
 18113ec:	10800044 	addi	r2,r2,1
 18113f0:	1081ffcc 	andi	r2,r2,2047
 18113f4:	e0bffa15 	stw	r2,-24(fp)
        if (next == sp->rx_out)
 18113f8:	e0bffe17 	ldw	r2,-8(fp)
 18113fc:	10c00b17 	ldw	r3,44(r2)
 1811400:	e0bffa17 	ldw	r2,-24(fp)
 1811404:	18801626 	beq	r3,r2,1811460 <altera_avalon_jtag_uart_irq+0xdc>
          break;

        /* Try to remove a character from the FIFO and find out whether there
         * are any more characters remaining.
         */
        data = IORD_ALTERA_AVALON_JTAG_UART_DATA(base);
 1811408:	e0bffd17 	ldw	r2,-12(fp)
 181140c:	10800037 	ldwio	r2,0(r2)
 1811410:	e0bffb15 	stw	r2,-20(fp)
        
        if ((data & ALTERA_AVALON_JTAG_UART_DATA_RVALID_MSK) == 0)
 1811414:	e0bffb17 	ldw	r2,-20(fp)
 1811418:	10a0000c 	andi	r2,r2,32768
 181141c:	1005003a 	cmpeq	r2,r2,zero
 1811420:	10000f1e 	bne	r2,zero,1811460 <altera_avalon_jtag_uart_irq+0xdc>
          break;

        sp->rx_buf[sp->rx_in] = (data & ALTERA_AVALON_JTAG_UART_DATA_DATA_MSK) >> ALTERA_AVALON_JTAG_UART_DATA_DATA_OFST;
 1811424:	e0bffe17 	ldw	r2,-8(fp)
 1811428:	10c00a17 	ldw	r3,40(r2)
 181142c:	e0bffb17 	ldw	r2,-20(fp)
 1811430:	1009883a 	mov	r4,r2
 1811434:	e0bffe17 	ldw	r2,-8(fp)
 1811438:	1885883a 	add	r2,r3,r2
 181143c:	10800e04 	addi	r2,r2,56
 1811440:	11000005 	stb	r4,0(r2)
        sp->rx_in = (sp->rx_in + 1) % ALTERA_AVALON_JTAG_UART_BUF_LEN;
 1811444:	e0bffe17 	ldw	r2,-8(fp)
 1811448:	10800a17 	ldw	r2,40(r2)
 181144c:	10800044 	addi	r2,r2,1
 1811450:	10c1ffcc 	andi	r3,r2,2047
 1811454:	e0bffe17 	ldw	r2,-8(fp)
 1811458:	10c00a15 	stw	r3,40(r2)

        /* Post an event to notify jtag_uart_read that a character has been read */
        ALT_FLAG_POST (sp->events, ALT_JTAG_UART_READ_RDY, OS_FLAG_SET);
      }
 181145c:	003fe106 	br	18113e4 <altera_avalon_jtag_uart_irq+0x60>

      if (data & ALTERA_AVALON_JTAG_UART_DATA_RAVAIL_MSK)
 1811460:	e0bffb17 	ldw	r2,-20(fp)
 1811464:	10bfffec 	andhi	r2,r2,65535
 1811468:	1005003a 	cmpeq	r2,r2,zero
 181146c:	1000101e 	bne	r2,zero,18114b0 <altera_avalon_jtag_uart_irq+0x12c>
      {
        /* If there is still data available here then the buffer is full 
         * so turn off receive interrupts until some space becomes available.
         */
        sp->irq_enable &= ~ALTERA_AVALON_JTAG_UART_CONTROL_RE_MSK;
 1811470:	e0bffe17 	ldw	r2,-8(fp)
 1811474:	10c00817 	ldw	r3,32(r2)
 1811478:	00bfff84 	movi	r2,-2
 181147c:	1886703a 	and	r3,r3,r2
 1811480:	e0bffe17 	ldw	r2,-8(fp)
 1811484:	10c00815 	stw	r3,32(r2)
        IOWR_ALTERA_AVALON_JTAG_UART_CONTROL(base, sp->irq_enable);
 1811488:	e0bffd17 	ldw	r2,-12(fp)
 181148c:	11000104 	addi	r4,r2,4
 1811490:	e0bffe17 	ldw	r2,-8(fp)
 1811494:	10800817 	ldw	r2,32(r2)
 1811498:	1007883a 	mov	r3,r2
 181149c:	2005883a 	mov	r2,r4
 18114a0:	10c00035 	stwio	r3,0(r2)
        
        /* Dummy read to ensure IRQ is cleared prior to ISR completion */
        IORD_ALTERA_AVALON_JTAG_UART_CONTROL(base);
 18114a4:	e0bffd17 	ldw	r2,-12(fp)
 18114a8:	10800104 	addi	r2,r2,4
 18114ac:	10800037 	ldwio	r2,0(r2)
      }
    }

    if (control & ALTERA_AVALON_JTAG_UART_CONTROL_WI_MSK)
 18114b0:	e0bffc17 	ldw	r2,-16(fp)
 18114b4:	1080800c 	andi	r2,r2,512
 18114b8:	1005003a 	cmpeq	r2,r2,zero
 18114bc:	103fbb1e 	bne	r2,zero,18113ac <altera_avalon_jtag_uart_irq+0x28>
    {
      /* process a write irq */
      unsigned int space = (control & ALTERA_AVALON_JTAG_UART_CONTROL_WSPACE_MSK) >> ALTERA_AVALON_JTAG_UART_CONTROL_WSPACE_OFST;
 18114c0:	e0bffc17 	ldw	r2,-16(fp)
 18114c4:	10bfffec 	andhi	r2,r2,65535
 18114c8:	1004d43a 	srli	r2,r2,16
 18114cc:	e0bff915 	stw	r2,-28(fp)

      while (space > 0 && sp->tx_out != sp->tx_in)
 18114d0:	00001506 	br	1811528 <altera_avalon_jtag_uart_irq+0x1a4>
      {
        IOWR_ALTERA_AVALON_JTAG_UART_DATA(base, sp->tx_buf[sp->tx_out]);
 18114d4:	e13ffd17 	ldw	r4,-12(fp)
 18114d8:	e0bffe17 	ldw	r2,-8(fp)
 18114dc:	10c00d17 	ldw	r3,52(r2)
 18114e0:	e0bffe17 	ldw	r2,-8(fp)
 18114e4:	1885883a 	add	r2,r3,r2
 18114e8:	10820e04 	addi	r2,r2,2104
 18114ec:	10800003 	ldbu	r2,0(r2)
 18114f0:	10c03fcc 	andi	r3,r2,255
 18114f4:	18c0201c 	xori	r3,r3,128
 18114f8:	18ffe004 	addi	r3,r3,-128
 18114fc:	2005883a 	mov	r2,r4
 1811500:	10c00035 	stwio	r3,0(r2)

        sp->tx_out = (sp->tx_out + 1) % ALTERA_AVALON_JTAG_UART_BUF_LEN;
 1811504:	e0bffe17 	ldw	r2,-8(fp)
 1811508:	10800d17 	ldw	r2,52(r2)
 181150c:	10800044 	addi	r2,r2,1
 1811510:	10c1ffcc 	andi	r3,r2,2047
 1811514:	e0bffe17 	ldw	r2,-8(fp)
 1811518:	10c00d15 	stw	r3,52(r2)

        /* Post an event to notify jtag_uart_write that a character has been written */
        ALT_FLAG_POST (sp->events, ALT_JTAG_UART_WRITE_RDY, OS_FLAG_SET);

        space--;
 181151c:	e0bff917 	ldw	r2,-28(fp)
 1811520:	10bfffc4 	addi	r2,r2,-1
 1811524:	e0bff915 	stw	r2,-28(fp)
    if (control & ALTERA_AVALON_JTAG_UART_CONTROL_WI_MSK)
    {
      /* process a write irq */
      unsigned int space = (control & ALTERA_AVALON_JTAG_UART_CONTROL_WSPACE_MSK) >> ALTERA_AVALON_JTAG_UART_CONTROL_WSPACE_OFST;

      while (space > 0 && sp->tx_out != sp->tx_in)
 1811528:	e0bff917 	ldw	r2,-28(fp)
 181152c:	1005003a 	cmpeq	r2,r2,zero
 1811530:	1000051e 	bne	r2,zero,1811548 <altera_avalon_jtag_uart_irq+0x1c4>
 1811534:	e0bffe17 	ldw	r2,-8(fp)
 1811538:	10c00d17 	ldw	r3,52(r2)
 181153c:	e0bffe17 	ldw	r2,-8(fp)
 1811540:	10800c17 	ldw	r2,48(r2)
 1811544:	18bfe31e 	bne	r3,r2,18114d4 <altera_avalon_jtag_uart_irq+0x150>
        ALT_FLAG_POST (sp->events, ALT_JTAG_UART_WRITE_RDY, OS_FLAG_SET);

        space--;
      }

      if (space > 0)
 1811548:	e0bff917 	ldw	r2,-28(fp)
 181154c:	1005003a 	cmpeq	r2,r2,zero
 1811550:	103f961e 	bne	r2,zero,18113ac <altera_avalon_jtag_uart_irq+0x28>
      {
        /* If we don't have any more data available then turn off the TX interrupt */
        sp->irq_enable &= ~ALTERA_AVALON_JTAG_UART_CONTROL_WE_MSK;
 1811554:	e0bffe17 	ldw	r2,-8(fp)
 1811558:	10c00817 	ldw	r3,32(r2)
 181155c:	00bfff44 	movi	r2,-3
 1811560:	1886703a 	and	r3,r3,r2
 1811564:	e0bffe17 	ldw	r2,-8(fp)
 1811568:	10c00815 	stw	r3,32(r2)
        IOWR_ALTERA_AVALON_JTAG_UART_CONTROL(sp->base, sp->irq_enable);
 181156c:	e0bffe17 	ldw	r2,-8(fp)
 1811570:	10800017 	ldw	r2,0(r2)
 1811574:	11000104 	addi	r4,r2,4
 1811578:	e0bffe17 	ldw	r2,-8(fp)
 181157c:	10800817 	ldw	r2,32(r2)
 1811580:	1007883a 	mov	r3,r2
 1811584:	2005883a 	mov	r2,r4
 1811588:	10c00035 	stwio	r3,0(r2)
        
        /* Dummy read to ensure IRQ is cleared prior to ISR completion */
        IORD_ALTERA_AVALON_JTAG_UART_CONTROL(base);
 181158c:	e0bffd17 	ldw	r2,-12(fp)
 1811590:	10800104 	addi	r2,r2,4
 1811594:	10800037 	ldwio	r2,0(r2)
      }
    }
  }
 1811598:	003f8406 	br	18113ac <altera_avalon_jtag_uart_irq+0x28>
}
 181159c:	e037883a 	mov	sp,fp
 18115a0:	df000017 	ldw	fp,0(sp)
 18115a4:	dec00104 	addi	sp,sp,4
 18115a8:	f800283a 	ret

018115ac <altera_avalon_jtag_uart_timeout>:
 * Timeout routine is called every second
 */

static alt_u32 
altera_avalon_jtag_uart_timeout(void* context) 
{
 18115ac:	defffc04 	addi	sp,sp,-16
 18115b0:	df000315 	stw	fp,12(sp)
 18115b4:	df000304 	addi	fp,sp,12
 18115b8:	e13fff15 	stw	r4,-4(fp)
  altera_avalon_jtag_uart_state* sp = (altera_avalon_jtag_uart_state *) context;
 18115bc:	e0bfff17 	ldw	r2,-4(fp)
 18115c0:	e0bffe15 	stw	r2,-8(fp)

  unsigned int control = IORD_ALTERA_AVALON_JTAG_UART_CONTROL(sp->base);
 18115c4:	e0bffe17 	ldw	r2,-8(fp)
 18115c8:	10800017 	ldw	r2,0(r2)
 18115cc:	10800104 	addi	r2,r2,4
 18115d0:	10800037 	ldwio	r2,0(r2)
 18115d4:	e0bffd15 	stw	r2,-12(fp)

  if (control & ALTERA_AVALON_JTAG_UART_CONTROL_AC_MSK)
 18115d8:	e0bffd17 	ldw	r2,-12(fp)
 18115dc:	1081000c 	andi	r2,r2,1024
 18115e0:	1005003a 	cmpeq	r2,r2,zero
 18115e4:	10000c1e 	bne	r2,zero,1811618 <altera_avalon_jtag_uart_timeout+0x6c>
  {
    IOWR_ALTERA_AVALON_JTAG_UART_CONTROL(sp->base, sp->irq_enable | ALTERA_AVALON_JTAG_UART_CONTROL_AC_MSK);
 18115e8:	e0bffe17 	ldw	r2,-8(fp)
 18115ec:	10800017 	ldw	r2,0(r2)
 18115f0:	11000104 	addi	r4,r2,4
 18115f4:	e0bffe17 	ldw	r2,-8(fp)
 18115f8:	10800817 	ldw	r2,32(r2)
 18115fc:	10810014 	ori	r2,r2,1024
 1811600:	1007883a 	mov	r3,r2
 1811604:	2005883a 	mov	r2,r4
 1811608:	10c00035 	stwio	r3,0(r2)
    sp->host_inactive = 0;
 181160c:	e0bffe17 	ldw	r2,-8(fp)
 1811610:	10000915 	stw	zero,36(r2)
 1811614:	00000a06 	br	1811640 <altera_avalon_jtag_uart_timeout+0x94>
  }
  else if (sp->host_inactive < INT_MAX - 2) {
 1811618:	e0bffe17 	ldw	r2,-8(fp)
 181161c:	10c00917 	ldw	r3,36(r2)
 1811620:	00a00034 	movhi	r2,32768
 1811624:	10bfff04 	addi	r2,r2,-4
 1811628:	10c00536 	bltu	r2,r3,1811640 <altera_avalon_jtag_uart_timeout+0x94>
    sp->host_inactive++;
 181162c:	e0bffe17 	ldw	r2,-8(fp)
 1811630:	10800917 	ldw	r2,36(r2)
 1811634:	10c00044 	addi	r3,r2,1
 1811638:	e0bffe17 	ldw	r2,-8(fp)
 181163c:	10c00915 	stw	r3,36(r2)
 1811640:	00806074 	movhi	r2,385
 1811644:	109ee504 	addi	r2,r2,31636
 1811648:	10800017 	ldw	r2,0(r2)
      ALT_FLAG_POST (sp->events, ALT_JTAG_UART_TIMEOUT, OS_FLAG_SET);
    }
  }

  return alt_ticks_per_second();
}
 181164c:	e037883a 	mov	sp,fp
 1811650:	df000017 	ldw	fp,0(sp)
 1811654:	dec00104 	addi	sp,sp,4
 1811658:	f800283a 	ret

0181165c <altera_avalon_jtag_uart_close>:
 * The close routine is not implemented for the small driver; instead it will
 * map to null. This is because the small driver simply waits while characters
 * are transmitted; there is no interrupt-serviced buffer to empty 
 */
int altera_avalon_jtag_uart_close(altera_avalon_jtag_uart_state* sp, int flags)
{
 181165c:	defffc04 	addi	sp,sp,-16
 1811660:	df000315 	stw	fp,12(sp)
 1811664:	df000304 	addi	fp,sp,12
 1811668:	e13ffd15 	stw	r4,-12(fp)
 181166c:	e17ffe15 	stw	r5,-8(fp)
  /* 
   * Wait for all transmit data to be emptied by the JTAG UART ISR, or
   * for a host-inactivity timeout, in which case transmit data will be lost
   */
  while ( (sp->tx_out != sp->tx_in) && (sp->host_inactive < sp->timeout) ) {
 1811670:	00000706 	br	1811690 <altera_avalon_jtag_uart_close+0x34>
    if (flags & O_NONBLOCK) {
 1811674:	e0bffe17 	ldw	r2,-8(fp)
 1811678:	1090000c 	andi	r2,r2,16384
 181167c:	1005003a 	cmpeq	r2,r2,zero
 1811680:	1000031e 	bne	r2,zero,1811690 <altera_avalon_jtag_uart_close+0x34>
      return -EWOULDBLOCK; 
 1811684:	00bffd44 	movi	r2,-11
 1811688:	e0bfff15 	stw	r2,-4(fp)
 181168c:	00000b06 	br	18116bc <altera_avalon_jtag_uart_close+0x60>
{
  /* 
   * Wait for all transmit data to be emptied by the JTAG UART ISR, or
   * for a host-inactivity timeout, in which case transmit data will be lost
   */
  while ( (sp->tx_out != sp->tx_in) && (sp->host_inactive < sp->timeout) ) {
 1811690:	e0bffd17 	ldw	r2,-12(fp)
 1811694:	10c00d17 	ldw	r3,52(r2)
 1811698:	e0bffd17 	ldw	r2,-12(fp)
 181169c:	10800c17 	ldw	r2,48(r2)
 18116a0:	18800526 	beq	r3,r2,18116b8 <altera_avalon_jtag_uart_close+0x5c>
 18116a4:	e0bffd17 	ldw	r2,-12(fp)
 18116a8:	10c00917 	ldw	r3,36(r2)
 18116ac:	e0bffd17 	ldw	r2,-12(fp)
 18116b0:	10800117 	ldw	r2,4(r2)
 18116b4:	18bfef36 	bltu	r3,r2,1811674 <altera_avalon_jtag_uart_close+0x18>
    if (flags & O_NONBLOCK) {
      return -EWOULDBLOCK; 
    }
  }

  return 0;
 18116b8:	e03fff15 	stw	zero,-4(fp)
 18116bc:	e0bfff17 	ldw	r2,-4(fp)
}
 18116c0:	e037883a 	mov	sp,fp
 18116c4:	df000017 	ldw	fp,0(sp)
 18116c8:	dec00104 	addi	sp,sp,4
 18116cc:	f800283a 	ret

018116d0 <altera_avalon_jtag_uart_ioctl>:
/* ----------------------------------------------------------- */

int 
altera_avalon_jtag_uart_ioctl(altera_avalon_jtag_uart_state* sp, int req,
  void* arg)
{
 18116d0:	defff804 	addi	sp,sp,-32
 18116d4:	df000715 	stw	fp,28(sp)
 18116d8:	df000704 	addi	fp,sp,28
 18116dc:	e13ffb15 	stw	r4,-20(fp)
 18116e0:	e17ffc15 	stw	r5,-16(fp)
 18116e4:	e1bffd15 	stw	r6,-12(fp)
  int rc = -ENOTTY;
 18116e8:	00bff9c4 	movi	r2,-25
 18116ec:	e0bffa15 	stw	r2,-24(fp)

  switch (req)
 18116f0:	e0bffc17 	ldw	r2,-16(fp)
 18116f4:	e0bfff15 	stw	r2,-4(fp)
 18116f8:	e0ffff17 	ldw	r3,-4(fp)
 18116fc:	189a8060 	cmpeqi	r2,r3,27137
 1811700:	1000041e 	bne	r2,zero,1811714 <altera_avalon_jtag_uart_ioctl+0x44>
 1811704:	e0ffff17 	ldw	r3,-4(fp)
 1811708:	189a80a0 	cmpeqi	r2,r3,27138
 181170c:	10001b1e 	bne	r2,zero,181177c <altera_avalon_jtag_uart_ioctl+0xac>
 1811710:	00002706 	br	18117b0 <altera_avalon_jtag_uart_ioctl+0xe0>
  {
  case TIOCSTIMEOUT:
    /* Set the time to wait until assuming host is not connected */
    if (sp->timeout != INT_MAX)
 1811714:	e0bffb17 	ldw	r2,-20(fp)
 1811718:	10c00117 	ldw	r3,4(r2)
 181171c:	00a00034 	movhi	r2,32768
 1811720:	10bfffc4 	addi	r2,r2,-1
 1811724:	18802226 	beq	r3,r2,18117b0 <altera_avalon_jtag_uart_ioctl+0xe0>
    {
      int timeout = *((int *)arg);
 1811728:	e0bffd17 	ldw	r2,-12(fp)
 181172c:	10800017 	ldw	r2,0(r2)
 1811730:	e0bff915 	stw	r2,-28(fp)
      sp->timeout = (timeout >= 2 && timeout < INT_MAX) ? timeout : INT_MAX - 1;
 1811734:	e0bff917 	ldw	r2,-28(fp)
 1811738:	10800090 	cmplti	r2,r2,2
 181173c:	1000071e 	bne	r2,zero,181175c <altera_avalon_jtag_uart_ioctl+0x8c>
 1811740:	e0fff917 	ldw	r3,-28(fp)
 1811744:	00a00034 	movhi	r2,32768
 1811748:	10bfffc4 	addi	r2,r2,-1
 181174c:	18800326 	beq	r3,r2,181175c <altera_avalon_jtag_uart_ioctl+0x8c>
 1811750:	e0bff917 	ldw	r2,-28(fp)
 1811754:	e0bffe15 	stw	r2,-8(fp)
 1811758:	00000306 	br	1811768 <altera_avalon_jtag_uart_ioctl+0x98>
 181175c:	00e00034 	movhi	r3,32768
 1811760:	18ffff84 	addi	r3,r3,-2
 1811764:	e0fffe15 	stw	r3,-8(fp)
 1811768:	e0bffb17 	ldw	r2,-20(fp)
 181176c:	e0fffe17 	ldw	r3,-8(fp)
 1811770:	10c00115 	stw	r3,4(r2)
      rc = 0;
 1811774:	e03ffa15 	stw	zero,-24(fp)
    }
    break;
 1811778:	00000d06 	br	18117b0 <altera_avalon_jtag_uart_ioctl+0xe0>

  case TIOCGCONNECTED:
    /* Find out whether host is connected */
    if (sp->timeout != INT_MAX)
 181177c:	e0bffb17 	ldw	r2,-20(fp)
 1811780:	10c00117 	ldw	r3,4(r2)
 1811784:	00a00034 	movhi	r2,32768
 1811788:	10bfffc4 	addi	r2,r2,-1
 181178c:	18800826 	beq	r3,r2,18117b0 <altera_avalon_jtag_uart_ioctl+0xe0>
    {
      *((int *)arg) = (sp->host_inactive < sp->timeout) ? 1 : 0;
 1811790:	e13ffd17 	ldw	r4,-12(fp)
 1811794:	e0bffb17 	ldw	r2,-20(fp)
 1811798:	10c00917 	ldw	r3,36(r2)
 181179c:	e0bffb17 	ldw	r2,-20(fp)
 18117a0:	10800117 	ldw	r2,4(r2)
 18117a4:	1885803a 	cmpltu	r2,r3,r2
 18117a8:	20800015 	stw	r2,0(r4)
      rc = 0;
 18117ac:	e03ffa15 	stw	zero,-24(fp)

  default:
    break;
  }

  return rc;
 18117b0:	e0bffa17 	ldw	r2,-24(fp)
}
 18117b4:	e037883a 	mov	sp,fp
 18117b8:	df000017 	ldw	fp,0(sp)
 18117bc:	dec00104 	addi	sp,sp,4
 18117c0:	f800283a 	ret

018117c4 <altera_avalon_jtag_uart_read>:
/* ----------------------------------------------------------- */

int 
altera_avalon_jtag_uart_read(altera_avalon_jtag_uart_state* sp, 
  char * buffer, int space, int flags)
{
 18117c4:	defff204 	addi	sp,sp,-56
 18117c8:	dfc00d15 	stw	ra,52(sp)
 18117cc:	df000c15 	stw	fp,48(sp)
 18117d0:	df000c04 	addi	fp,sp,48
 18117d4:	e13ffb15 	stw	r4,-20(fp)
 18117d8:	e17ffc15 	stw	r5,-16(fp)
 18117dc:	e1bffd15 	stw	r6,-12(fp)
 18117e0:	e1fffe15 	stw	r7,-8(fp)
  char * ptr = buffer;
 18117e4:	e0bffc17 	ldw	r2,-16(fp)
 18117e8:	e0bffa15 	stw	r2,-24(fp)
   * When running in a multi threaded environment, obtain the "read_lock"
   * semaphore. This ensures that reading from the device is thread-safe.
   */
  ALT_SEM_PEND (sp->read_lock, 0);

  while (space > 0)
 18117ec:	00004806 	br	1811910 <altera_avalon_jtag_uart_read+0x14c>
    unsigned int in, out;

    /* Read as much data as possible */
    do
    {
      in  = sp->rx_in;
 18117f0:	e0bffb17 	ldw	r2,-20(fp)
 18117f4:	10800a17 	ldw	r2,40(r2)
 18117f8:	e0bff715 	stw	r2,-36(fp)
      out = sp->rx_out;
 18117fc:	e0bffb17 	ldw	r2,-20(fp)
 1811800:	10800b17 	ldw	r2,44(r2)
 1811804:	e0bff615 	stw	r2,-40(fp)

      if (in >= out)
 1811808:	e0fff717 	ldw	r3,-36(fp)
 181180c:	e0bff617 	ldw	r2,-40(fp)
 1811810:	18800536 	bltu	r3,r2,1811828 <altera_avalon_jtag_uart_read+0x64>
        n = in - out;
 1811814:	e0bff717 	ldw	r2,-36(fp)
 1811818:	e0fff617 	ldw	r3,-40(fp)
 181181c:	10c5c83a 	sub	r2,r2,r3
 1811820:	e0bff815 	stw	r2,-32(fp)
 1811824:	00000406 	br	1811838 <altera_avalon_jtag_uart_read+0x74>
      else
        n = ALTERA_AVALON_JTAG_UART_BUF_LEN - out;
 1811828:	00820004 	movi	r2,2048
 181182c:	e0fff617 	ldw	r3,-40(fp)
 1811830:	10c5c83a 	sub	r2,r2,r3
 1811834:	e0bff815 	stw	r2,-32(fp)

      if (n == 0)
 1811838:	e0bff817 	ldw	r2,-32(fp)
 181183c:	1005003a 	cmpeq	r2,r2,zero
 1811840:	10001f1e 	bne	r2,zero,18118c0 <altera_avalon_jtag_uart_read+0xfc>
        break; /* No more data available */

      if (n > space)
 1811844:	e0fffd17 	ldw	r3,-12(fp)
 1811848:	e0bff817 	ldw	r2,-32(fp)
 181184c:	1880022e 	bgeu	r3,r2,1811858 <altera_avalon_jtag_uart_read+0x94>
        n = space;
 1811850:	e0bffd17 	ldw	r2,-12(fp)
 1811854:	e0bff815 	stw	r2,-32(fp)

      memcpy(ptr, sp->rx_buf + out, n);
 1811858:	e0bffb17 	ldw	r2,-20(fp)
 181185c:	10c00e04 	addi	r3,r2,56
 1811860:	e0bff617 	ldw	r2,-40(fp)
 1811864:	1887883a 	add	r3,r3,r2
 1811868:	e0bffa17 	ldw	r2,-24(fp)
 181186c:	1009883a 	mov	r4,r2
 1811870:	180b883a 	mov	r5,r3
 1811874:	e1bff817 	ldw	r6,-32(fp)
 1811878:	18069380 	call	1806938 <memcpy>
      ptr   += n;
 181187c:	e0fff817 	ldw	r3,-32(fp)
 1811880:	e0bffa17 	ldw	r2,-24(fp)
 1811884:	10c5883a 	add	r2,r2,r3
 1811888:	e0bffa15 	stw	r2,-24(fp)
      space -= n;
 181188c:	e0fffd17 	ldw	r3,-12(fp)
 1811890:	e0bff817 	ldw	r2,-32(fp)
 1811894:	1885c83a 	sub	r2,r3,r2
 1811898:	e0bffd15 	stw	r2,-12(fp)

      sp->rx_out = (out + n) % ALTERA_AVALON_JTAG_UART_BUF_LEN;
 181189c:	e0fff617 	ldw	r3,-40(fp)
 18118a0:	e0bff817 	ldw	r2,-32(fp)
 18118a4:	1885883a 	add	r2,r3,r2
 18118a8:	10c1ffcc 	andi	r3,r2,2047
 18118ac:	e0bffb17 	ldw	r2,-20(fp)
 18118b0:	10c00b15 	stw	r3,44(r2)
    }
    while (space > 0);
 18118b4:	e0bffd17 	ldw	r2,-12(fp)
 18118b8:	10800048 	cmpgei	r2,r2,1
 18118bc:	103fcc1e 	bne	r2,zero,18117f0 <altera_avalon_jtag_uart_read+0x2c>

    /* If we read any data then return it */
    if (ptr != buffer)
 18118c0:	e0fffa17 	ldw	r3,-24(fp)
 18118c4:	e0bffc17 	ldw	r2,-16(fp)
 18118c8:	1880141e 	bne	r3,r2,181191c <altera_avalon_jtag_uart_read+0x158>
      break;

    /* If in non-blocking mode then return error */
    if (flags & O_NONBLOCK)
 18118cc:	e0bffe17 	ldw	r2,-8(fp)
 18118d0:	1090000c 	andi	r2,r2,16384
 18118d4:	1004c03a 	cmpne	r2,r2,zero
 18118d8:	1000101e 	bne	r2,zero,181191c <altera_avalon_jtag_uart_read+0x158>
      while (in == sp->rx_in && sp->host_inactive < sp->timeout)
        ;
    }
#else
    /* No OS: Always spin */
    while (in == sp->rx_in && sp->host_inactive < sp->timeout)
 18118dc:	e0bffb17 	ldw	r2,-20(fp)
 18118e0:	10c00a17 	ldw	r3,40(r2)
 18118e4:	e0bff717 	ldw	r2,-36(fp)
 18118e8:	1880051e 	bne	r3,r2,1811900 <altera_avalon_jtag_uart_read+0x13c>
 18118ec:	e0bffb17 	ldw	r2,-20(fp)
 18118f0:	10c00917 	ldw	r3,36(r2)
 18118f4:	e0bffb17 	ldw	r2,-20(fp)
 18118f8:	10800117 	ldw	r2,4(r2)
 18118fc:	18bff736 	bltu	r3,r2,18118dc <altera_avalon_jtag_uart_read+0x118>
      ;
#endif /* __ucosii__ */

    if (in == sp->rx_in)
 1811900:	e0bffb17 	ldw	r2,-20(fp)
 1811904:	10c00a17 	ldw	r3,40(r2)
 1811908:	e0bff717 	ldw	r2,-36(fp)
 181190c:	18800326 	beq	r3,r2,181191c <altera_avalon_jtag_uart_read+0x158>
   * When running in a multi threaded environment, obtain the "read_lock"
   * semaphore. This ensures that reading from the device is thread-safe.
   */
  ALT_SEM_PEND (sp->read_lock, 0);

  while (space > 0)
 1811910:	e0bffd17 	ldw	r2,-12(fp)
 1811914:	10800048 	cmpgei	r2,r2,1
 1811918:	103fb51e 	bne	r2,zero,18117f0 <altera_avalon_jtag_uart_read+0x2c>
   * semaphore so that other threads can access the buffer.
   */

  ALT_SEM_POST (sp->read_lock);

  if (ptr != buffer)
 181191c:	e0fffa17 	ldw	r3,-24(fp)
 1811920:	e0bffc17 	ldw	r2,-16(fp)
 1811924:	18801926 	beq	r3,r2,181198c <altera_avalon_jtag_uart_read+0x1c8>
static ALT_INLINE alt_irq_context ALT_ALWAYS_INLINE 
       alt_irq_disable_all (void)
{
  alt_irq_context context;

  NIOS2_READ_STATUS (context);
 1811928:	0005303a 	rdctl	r2,status
 181192c:	e0bff515 	stw	r2,-44(fp)

  NIOS2_WRITE_STATUS (context & ~NIOS2_STATUS_PIE_MSK);
 1811930:	e0fff517 	ldw	r3,-44(fp)
 1811934:	00bfff84 	movi	r2,-2
 1811938:	1884703a 	and	r2,r3,r2
 181193c:	1001703a 	wrctl	status,r2
  
  return context;
 1811940:	e0bff517 	ldw	r2,-44(fp)
  {
    /* If we read any data then there is space in the buffer so enable interrupts */
    context = alt_irq_disable_all();
 1811944:	e0bff915 	stw	r2,-28(fp)
    sp->irq_enable |= ALTERA_AVALON_JTAG_UART_CONTROL_RE_MSK;
 1811948:	e0bffb17 	ldw	r2,-20(fp)
 181194c:	10800817 	ldw	r2,32(r2)
 1811950:	10c00054 	ori	r3,r2,1
 1811954:	e0bffb17 	ldw	r2,-20(fp)
 1811958:	10c00815 	stw	r3,32(r2)
    IOWR_ALTERA_AVALON_JTAG_UART_CONTROL(sp->base, sp->irq_enable);
 181195c:	e0bffb17 	ldw	r2,-20(fp)
 1811960:	10800017 	ldw	r2,0(r2)
 1811964:	11000104 	addi	r4,r2,4
 1811968:	e0bffb17 	ldw	r2,-20(fp)
 181196c:	10800817 	ldw	r2,32(r2)
 1811970:	1007883a 	mov	r3,r2
 1811974:	2005883a 	mov	r2,r4
 1811978:	10c00035 	stwio	r3,0(r2)
 181197c:	e0bff917 	ldw	r2,-28(fp)
 1811980:	e0bff415 	stw	r2,-48(fp)
  status &= ~NIOS2_STATUS_PIE_MSK;
  status |= (context & NIOS2_STATUS_PIE_MSK);
  
  NIOS2_WRITE_STATUS (status);
#else
  NIOS2_WRITE_STATUS (context);
 1811984:	e0bff417 	ldw	r2,-48(fp)
 1811988:	1001703a 	wrctl	status,r2
    alt_irq_enable_all(context);
  }

  if (ptr != buffer)
 181198c:	e0fffa17 	ldw	r3,-24(fp)
 1811990:	e0bffc17 	ldw	r2,-16(fp)
 1811994:	18800526 	beq	r3,r2,18119ac <altera_avalon_jtag_uart_read+0x1e8>
    return ptr - buffer;
 1811998:	e0fffa17 	ldw	r3,-24(fp)
 181199c:	e0bffc17 	ldw	r2,-16(fp)
 18119a0:	1887c83a 	sub	r3,r3,r2
 18119a4:	e0ffff15 	stw	r3,-4(fp)
 18119a8:	00000906 	br	18119d0 <altera_avalon_jtag_uart_read+0x20c>
  else if (flags & O_NONBLOCK)
 18119ac:	e0bffe17 	ldw	r2,-8(fp)
 18119b0:	1090000c 	andi	r2,r2,16384
 18119b4:	1005003a 	cmpeq	r2,r2,zero
 18119b8:	1000031e 	bne	r2,zero,18119c8 <altera_avalon_jtag_uart_read+0x204>
    return -EWOULDBLOCK;
 18119bc:	00bffd44 	movi	r2,-11
 18119c0:	e0bfff15 	stw	r2,-4(fp)
 18119c4:	00000206 	br	18119d0 <altera_avalon_jtag_uart_read+0x20c>
  else
    return -EIO;
 18119c8:	00bffec4 	movi	r2,-5
 18119cc:	e0bfff15 	stw	r2,-4(fp)
 18119d0:	e0bfff17 	ldw	r2,-4(fp)
}
 18119d4:	e037883a 	mov	sp,fp
 18119d8:	dfc00117 	ldw	ra,4(sp)
 18119dc:	df000017 	ldw	fp,0(sp)
 18119e0:	dec00204 	addi	sp,sp,8
 18119e4:	f800283a 	ret

018119e8 <altera_avalon_jtag_uart_write>:
/* ----------------------------------------------------------- */

int 
altera_avalon_jtag_uart_write(altera_avalon_jtag_uart_state* sp, 
  const char * ptr, int count, int flags)
{
 18119e8:	defff204 	addi	sp,sp,-56
 18119ec:	dfc00d15 	stw	ra,52(sp)
 18119f0:	df000c15 	stw	fp,48(sp)
 18119f4:	df000c04 	addi	fp,sp,48
 18119f8:	e13ffb15 	stw	r4,-20(fp)
 18119fc:	e17ffc15 	stw	r5,-16(fp)
 1811a00:	e1bffd15 	stw	r6,-12(fp)
 1811a04:	e1fffe15 	stw	r7,-8(fp)
  /* Remove warning at optimisation level 03 by seting out to 0 */
  unsigned int in, out=0;
 1811a08:	e03ff915 	stw	zero,-28(fp)
  unsigned int n;
  alt_irq_context context;

  const char * start = ptr;
 1811a0c:	e0bffc17 	ldw	r2,-16(fp)
 1811a10:	e0bff615 	stw	r2,-40(fp)
  ALT_SEM_PEND (sp->write_lock, 0);

  do
  {
    /* Copy as much as we can into the transmit buffer */
    while (count > 0)
 1811a14:	00003a06 	br	1811b00 <altera_avalon_jtag_uart_write+0x118>
    {
      /* We need a stable value of the out pointer to calculate the space available */
      in  = sp->tx_in;
 1811a18:	e0bffb17 	ldw	r2,-20(fp)
 1811a1c:	10800c17 	ldw	r2,48(r2)
 1811a20:	e0bffa15 	stw	r2,-24(fp)
      out = sp->tx_out;
 1811a24:	e0bffb17 	ldw	r2,-20(fp)
 1811a28:	10800d17 	ldw	r2,52(r2)
 1811a2c:	e0bff915 	stw	r2,-28(fp)

      if (in < out)
 1811a30:	e0fffa17 	ldw	r3,-24(fp)
 1811a34:	e0bff917 	ldw	r2,-28(fp)
 1811a38:	1880062e 	bgeu	r3,r2,1811a54 <altera_avalon_jtag_uart_write+0x6c>
        n = out - 1 - in;
 1811a3c:	e0fff917 	ldw	r3,-28(fp)
 1811a40:	e0bffa17 	ldw	r2,-24(fp)
 1811a44:	1885c83a 	sub	r2,r3,r2
 1811a48:	10bfffc4 	addi	r2,r2,-1
 1811a4c:	e0bff815 	stw	r2,-32(fp)
 1811a50:	00000c06 	br	1811a84 <altera_avalon_jtag_uart_write+0x9c>
      else if (out > 0)
 1811a54:	e0bff917 	ldw	r2,-28(fp)
 1811a58:	1005003a 	cmpeq	r2,r2,zero
 1811a5c:	1000051e 	bne	r2,zero,1811a74 <altera_avalon_jtag_uart_write+0x8c>
        n = ALTERA_AVALON_JTAG_UART_BUF_LEN - in;
 1811a60:	00820004 	movi	r2,2048
 1811a64:	e0fffa17 	ldw	r3,-24(fp)
 1811a68:	10c5c83a 	sub	r2,r2,r3
 1811a6c:	e0bff815 	stw	r2,-32(fp)
 1811a70:	00000406 	br	1811a84 <altera_avalon_jtag_uart_write+0x9c>
      else
        n = ALTERA_AVALON_JTAG_UART_BUF_LEN - 1 - in;
 1811a74:	0081ffc4 	movi	r2,2047
 1811a78:	e0fffa17 	ldw	r3,-24(fp)
 1811a7c:	10c5c83a 	sub	r2,r2,r3
 1811a80:	e0bff815 	stw	r2,-32(fp)

      if (n == 0)
 1811a84:	e0bff817 	ldw	r2,-32(fp)
 1811a88:	1005003a 	cmpeq	r2,r2,zero
 1811a8c:	10001f1e 	bne	r2,zero,1811b0c <altera_avalon_jtag_uart_write+0x124>
        break;

      if (n > count)
 1811a90:	e0fffd17 	ldw	r3,-12(fp)
 1811a94:	e0bff817 	ldw	r2,-32(fp)
 1811a98:	1880022e 	bgeu	r3,r2,1811aa4 <altera_avalon_jtag_uart_write+0xbc>
        n = count;
 1811a9c:	e0bffd17 	ldw	r2,-12(fp)
 1811aa0:	e0bff815 	stw	r2,-32(fp)

      memcpy(sp->tx_buf + in, ptr, n);
 1811aa4:	e0bffb17 	ldw	r2,-20(fp)
 1811aa8:	10c20e04 	addi	r3,r2,2104
 1811aac:	e0bffa17 	ldw	r2,-24(fp)
 1811ab0:	1885883a 	add	r2,r3,r2
 1811ab4:	e0fffc17 	ldw	r3,-16(fp)
 1811ab8:	1009883a 	mov	r4,r2
 1811abc:	180b883a 	mov	r5,r3
 1811ac0:	e1bff817 	ldw	r6,-32(fp)
 1811ac4:	18069380 	call	1806938 <memcpy>
      ptr   += n;
 1811ac8:	e0fff817 	ldw	r3,-32(fp)
 1811acc:	e0bffc17 	ldw	r2,-16(fp)
 1811ad0:	10c5883a 	add	r2,r2,r3
 1811ad4:	e0bffc15 	stw	r2,-16(fp)
      count -= n;
 1811ad8:	e0fffd17 	ldw	r3,-12(fp)
 1811adc:	e0bff817 	ldw	r2,-32(fp)
 1811ae0:	1885c83a 	sub	r2,r3,r2
 1811ae4:	e0bffd15 	stw	r2,-12(fp)

      sp->tx_in = (in + n) % ALTERA_AVALON_JTAG_UART_BUF_LEN;
 1811ae8:	e0fffa17 	ldw	r3,-24(fp)
 1811aec:	e0bff817 	ldw	r2,-32(fp)
 1811af0:	1885883a 	add	r2,r3,r2
 1811af4:	10c1ffcc 	andi	r3,r2,2047
 1811af8:	e0bffb17 	ldw	r2,-20(fp)
 1811afc:	10c00c15 	stw	r3,48(r2)
  ALT_SEM_PEND (sp->write_lock, 0);

  do
  {
    /* Copy as much as we can into the transmit buffer */
    while (count > 0)
 1811b00:	e0bffd17 	ldw	r2,-12(fp)
 1811b04:	10800048 	cmpgei	r2,r2,1
 1811b08:	103fc31e 	bne	r2,zero,1811a18 <altera_avalon_jtag_uart_write+0x30>
static ALT_INLINE alt_irq_context ALT_ALWAYS_INLINE 
       alt_irq_disable_all (void)
{
  alt_irq_context context;

  NIOS2_READ_STATUS (context);
 1811b0c:	0005303a 	rdctl	r2,status
 1811b10:	e0bff515 	stw	r2,-44(fp)

  NIOS2_WRITE_STATUS (context & ~NIOS2_STATUS_PIE_MSK);
 1811b14:	e0fff517 	ldw	r3,-44(fp)
 1811b18:	00bfff84 	movi	r2,-2
 1811b1c:	1884703a 	and	r2,r3,r2
 1811b20:	1001703a 	wrctl	status,r2
  
  return context;
 1811b24:	e0bff517 	ldw	r2,-44(fp)
     * to enable interrupts if there is no space left in the FIFO
     *
     * For now kick the interrupt routine every time to make it transmit 
     * the data 
     */
    context = alt_irq_disable_all();
 1811b28:	e0bff715 	stw	r2,-36(fp)
    sp->irq_enable |= ALTERA_AVALON_JTAG_UART_CONTROL_WE_MSK;
 1811b2c:	e0bffb17 	ldw	r2,-20(fp)
 1811b30:	10800817 	ldw	r2,32(r2)
 1811b34:	10c00094 	ori	r3,r2,2
 1811b38:	e0bffb17 	ldw	r2,-20(fp)
 1811b3c:	10c00815 	stw	r3,32(r2)
    IOWR_ALTERA_AVALON_JTAG_UART_CONTROL(sp->base, sp->irq_enable);
 1811b40:	e0bffb17 	ldw	r2,-20(fp)
 1811b44:	10800017 	ldw	r2,0(r2)
 1811b48:	11000104 	addi	r4,r2,4
 1811b4c:	e0bffb17 	ldw	r2,-20(fp)
 1811b50:	10800817 	ldw	r2,32(r2)
 1811b54:	1007883a 	mov	r3,r2
 1811b58:	2005883a 	mov	r2,r4
 1811b5c:	10c00035 	stwio	r3,0(r2)
 1811b60:	e0bff717 	ldw	r2,-36(fp)
 1811b64:	e0bff415 	stw	r2,-48(fp)
  status &= ~NIOS2_STATUS_PIE_MSK;
  status |= (context & NIOS2_STATUS_PIE_MSK);
  
  NIOS2_WRITE_STATUS (status);
#else
  NIOS2_WRITE_STATUS (context);
 1811b68:	e0bff417 	ldw	r2,-48(fp)
 1811b6c:	1001703a 	wrctl	status,r2
    /* 
     * If there is any data left then either return now or block until 
     * some has been sent 
     */
    /* consider: test whether there is anything there while doing this and delay for at most 2s. */
    if (count > 0)
 1811b70:	e0bffd17 	ldw	r2,-12(fp)
 1811b74:	10800050 	cmplti	r2,r2,1
 1811b78:	1000111e 	bne	r2,zero,1811bc0 <altera_avalon_jtag_uart_write+0x1d8>
    {
      if (flags & O_NONBLOCK)
 1811b7c:	e0bffe17 	ldw	r2,-8(fp)
 1811b80:	1090000c 	andi	r2,r2,16384
 1811b84:	1004c03a 	cmpne	r2,r2,zero
 1811b88:	1000101e 	bne	r2,zero,1811bcc <altera_avalon_jtag_uart_write+0x1e4>
      /*
       * No OS present: Always wait for data to be removed from buffer.  Once
       * the interrupt routine has removed some data then we will be able to
       * insert some more.
       */
      while (out == sp->tx_out && sp->host_inactive < sp->timeout)
 1811b8c:	e0bffb17 	ldw	r2,-20(fp)
 1811b90:	10c00d17 	ldw	r3,52(r2)
 1811b94:	e0bff917 	ldw	r2,-28(fp)
 1811b98:	1880051e 	bne	r3,r2,1811bb0 <altera_avalon_jtag_uart_write+0x1c8>
 1811b9c:	e0bffb17 	ldw	r2,-20(fp)
 1811ba0:	10c00917 	ldw	r3,36(r2)
 1811ba4:	e0bffb17 	ldw	r2,-20(fp)
 1811ba8:	10800117 	ldw	r2,4(r2)
 1811bac:	18bff736 	bltu	r3,r2,1811b8c <altera_avalon_jtag_uart_write+0x1a4>
        ;
#endif /* __ucosii__ */

      if (out == sp->tx_out)
 1811bb0:	e0bffb17 	ldw	r2,-20(fp)
 1811bb4:	10c00d17 	ldw	r3,52(r2)
 1811bb8:	e0bff917 	ldw	r2,-28(fp)
 1811bbc:	18800326 	beq	r3,r2,1811bcc <altera_avalon_jtag_uart_write+0x1e4>
        break;
    }
  }
  while (count > 0);
 1811bc0:	e0bffd17 	ldw	r2,-12(fp)
 1811bc4:	10800048 	cmpgei	r2,r2,1
 1811bc8:	103fcd1e 	bne	r2,zero,1811b00 <altera_avalon_jtag_uart_write+0x118>
   * Now that access to the circular buffer is complete, release the write
   * semaphore so that other threads can access the buffer.
   */
  ALT_SEM_POST (sp->write_lock);

  if (ptr != start)
 1811bcc:	e0fffc17 	ldw	r3,-16(fp)
 1811bd0:	e0bff617 	ldw	r2,-40(fp)
 1811bd4:	18800526 	beq	r3,r2,1811bec <altera_avalon_jtag_uart_write+0x204>
    return ptr - start;
 1811bd8:	e0fffc17 	ldw	r3,-16(fp)
 1811bdc:	e0bff617 	ldw	r2,-40(fp)
 1811be0:	1887c83a 	sub	r3,r3,r2
 1811be4:	e0ffff15 	stw	r3,-4(fp)
 1811be8:	00000906 	br	1811c10 <altera_avalon_jtag_uart_write+0x228>
  else if (flags & O_NONBLOCK)
 1811bec:	e0bffe17 	ldw	r2,-8(fp)
 1811bf0:	1090000c 	andi	r2,r2,16384
 1811bf4:	1005003a 	cmpeq	r2,r2,zero
 1811bf8:	1000031e 	bne	r2,zero,1811c08 <altera_avalon_jtag_uart_write+0x220>
    return -EWOULDBLOCK;
 1811bfc:	00bffd44 	movi	r2,-11
 1811c00:	e0bfff15 	stw	r2,-4(fp)
 1811c04:	00000206 	br	1811c10 <altera_avalon_jtag_uart_write+0x228>
  else
    return -EIO; /* Host not connected */
 1811c08:	00bffec4 	movi	r2,-5
 1811c0c:	e0bfff15 	stw	r2,-4(fp)
 1811c10:	e0bfff17 	ldw	r2,-4(fp)
}
 1811c14:	e037883a 	mov	sp,fp
 1811c18:	dfc00117 	ldw	ra,4(sp)
 1811c1c:	df000017 	ldw	fp,0(sp)
 1811c20:	dec00204 	addi	sp,sp,8
 1811c24:	f800283a 	ret

01811c28 <lcd_write_command>:

/* --------------------------------------------------------------------- */

static void lcd_write_command(altera_avalon_lcd_16207_state* sp, 
  unsigned char command)
{
 1811c28:	defffa04 	addi	sp,sp,-24
 1811c2c:	dfc00515 	stw	ra,20(sp)
 1811c30:	df000415 	stw	fp,16(sp)
 1811c34:	df000404 	addi	fp,sp,16
 1811c38:	e13ffe15 	stw	r4,-8(fp)
 1811c3c:	e17fff05 	stb	r5,-4(fp)
  unsigned int base = sp->base;
 1811c40:	e0bffe17 	ldw	r2,-8(fp)
 1811c44:	10800017 	ldw	r2,0(r2)
 1811c48:	e0bffd15 	stw	r2,-12(fp)
  /* We impose a timeout on the driver in case the LCD panel isn't connected.
   * The first time we call this function the timeout is approx 25ms 
   * (assuming 5 cycles per loop and a 200MHz clock).  Obviously systems
   * with slower clocks, or debug builds, or slower memory will take longer.
   */
  int i = 1000000;
 1811c4c:	008003f4 	movhi	r2,15
 1811c50:	10909004 	addi	r2,r2,16960
 1811c54:	e0bffc15 	stw	r2,-16(fp)

  /* Don't bother if the LCD panel didn't work before */
  if (sp->broken)
 1811c58:	e0bffe17 	ldw	r2,-8(fp)
 1811c5c:	10800803 	ldbu	r2,32(r2)
 1811c60:	10803fcc 	andi	r2,r2,255
 1811c64:	1080201c 	xori	r2,r2,128
 1811c68:	10bfe004 	addi	r2,r2,-128
 1811c6c:	1004c03a 	cmpne	r2,r2,zero
 1811c70:	1000161e 	bne	r2,zero,1811ccc <lcd_write_command+0xa4>
    return;

  /* Wait until LCD isn't busy. */
  while (IORD_ALTERA_AVALON_LCD_16207_STATUS(base) & ALTERA_AVALON_LCD_16207_STATUS_BUSY_MSK)
 1811c74:	00000a06 	br	1811ca0 <lcd_write_command+0x78>
    if (--i == 0)
 1811c78:	e0bffc17 	ldw	r2,-16(fp)
 1811c7c:	10bfffc4 	addi	r2,r2,-1
 1811c80:	e0bffc15 	stw	r2,-16(fp)
 1811c84:	e0bffc17 	ldw	r2,-16(fp)
 1811c88:	1004c03a 	cmpne	r2,r2,zero
 1811c8c:	1000041e 	bne	r2,zero,1811ca0 <lcd_write_command+0x78>
    {
      sp->broken = 1;
 1811c90:	e0fffe17 	ldw	r3,-8(fp)
 1811c94:	00800044 	movi	r2,1
 1811c98:	18800805 	stb	r2,32(r3)
      return;
 1811c9c:	00000b06 	br	1811ccc <lcd_write_command+0xa4>
  /* Don't bother if the LCD panel didn't work before */
  if (sp->broken)
    return;

  /* Wait until LCD isn't busy. */
  while (IORD_ALTERA_AVALON_LCD_16207_STATUS(base) & ALTERA_AVALON_LCD_16207_STATUS_BUSY_MSK)
 1811ca0:	e0bffd17 	ldw	r2,-12(fp)
 1811ca4:	10800104 	addi	r2,r2,4
 1811ca8:	10800037 	ldwio	r2,0(r2)
 1811cac:	1080200c 	andi	r2,r2,128
 1811cb0:	1004c03a 	cmpne	r2,r2,zero
 1811cb4:	103ff01e 	bne	r2,zero,1811c78 <lcd_write_command+0x50>
    }

  /* Despite what it says in the datasheet, the LCD isn't ready to accept
   * a write immediately after it returns BUSY=0.  Wait for 100us more.
   */
  usleep(100);
 1811cb8:	01001904 	movi	r4,100
 1811cbc:	180f1840 	call	180f184 <usleep>

  IOWR_ALTERA_AVALON_LCD_16207_COMMAND(base, command);
 1811cc0:	e0bffd17 	ldw	r2,-12(fp)
 1811cc4:	e0ffff03 	ldbu	r3,-4(fp)
 1811cc8:	10c00035 	stwio	r3,0(r2)
}
 1811ccc:	e037883a 	mov	sp,fp
 1811cd0:	dfc00117 	ldw	ra,4(sp)
 1811cd4:	df000017 	ldw	fp,0(sp)
 1811cd8:	dec00204 	addi	sp,sp,8
 1811cdc:	f800283a 	ret

01811ce0 <lcd_write_data>:

/* --------------------------------------------------------------------- */

static void lcd_write_data(altera_avalon_lcd_16207_state* sp, 
  unsigned char data)
{
 1811ce0:	defffa04 	addi	sp,sp,-24
 1811ce4:	dfc00515 	stw	ra,20(sp)
 1811ce8:	df000415 	stw	fp,16(sp)
 1811cec:	df000404 	addi	fp,sp,16
 1811cf0:	e13ffe15 	stw	r4,-8(fp)
 1811cf4:	e17fff05 	stb	r5,-4(fp)
  unsigned int base = sp->base;
 1811cf8:	e0bffe17 	ldw	r2,-8(fp)
 1811cfc:	10800017 	ldw	r2,0(r2)
 1811d00:	e0bffd15 	stw	r2,-12(fp)
  /* We impose a timeout on the driver in case the LCD panel isn't connected.
   * The first time we call this function the timeout is approx 25ms 
   * (assuming 5 cycles per loop and a 200MHz clock).  Obviously systems
   * with slower clocks, or debug builds, or slower memory will take longer.
   */
  int i = 1000000;
 1811d04:	008003f4 	movhi	r2,15
 1811d08:	10909004 	addi	r2,r2,16960
 1811d0c:	e0bffc15 	stw	r2,-16(fp)

  /* Don't bother if the LCD panel didn't work before */
  if (sp->broken)
 1811d10:	e0bffe17 	ldw	r2,-8(fp)
 1811d14:	10800803 	ldbu	r2,32(r2)
 1811d18:	10803fcc 	andi	r2,r2,255
 1811d1c:	1080201c 	xori	r2,r2,128
 1811d20:	10bfe004 	addi	r2,r2,-128
 1811d24:	1004c03a 	cmpne	r2,r2,zero
 1811d28:	10001d1e 	bne	r2,zero,1811da0 <lcd_write_data+0xc0>
    return;

  /* Wait until LCD isn't busy. */
  while (IORD_ALTERA_AVALON_LCD_16207_STATUS(base) & ALTERA_AVALON_LCD_16207_STATUS_BUSY_MSK)
 1811d2c:	00000a06 	br	1811d58 <lcd_write_data+0x78>
    if (--i == 0)
 1811d30:	e0bffc17 	ldw	r2,-16(fp)
 1811d34:	10bfffc4 	addi	r2,r2,-1
 1811d38:	e0bffc15 	stw	r2,-16(fp)
 1811d3c:	e0bffc17 	ldw	r2,-16(fp)
 1811d40:	1004c03a 	cmpne	r2,r2,zero
 1811d44:	1000041e 	bne	r2,zero,1811d58 <lcd_write_data+0x78>
    {
      sp->broken = 1;
 1811d48:	e0fffe17 	ldw	r3,-8(fp)
 1811d4c:	00800044 	movi	r2,1
 1811d50:	18800805 	stb	r2,32(r3)
      return;
 1811d54:	00001206 	br	1811da0 <lcd_write_data+0xc0>
  /* Don't bother if the LCD panel didn't work before */
  if (sp->broken)
    return;

  /* Wait until LCD isn't busy. */
  while (IORD_ALTERA_AVALON_LCD_16207_STATUS(base) & ALTERA_AVALON_LCD_16207_STATUS_BUSY_MSK)
 1811d58:	e0bffd17 	ldw	r2,-12(fp)
 1811d5c:	10800104 	addi	r2,r2,4
 1811d60:	10800037 	ldwio	r2,0(r2)
 1811d64:	1080200c 	andi	r2,r2,128
 1811d68:	1004c03a 	cmpne	r2,r2,zero
 1811d6c:	103ff01e 	bne	r2,zero,1811d30 <lcd_write_data+0x50>
    }

  /* Despite what it says in the datasheet, the LCD isn't ready to accept
   * a write immediately after it returns BUSY=0.  Wait for 100us more.
   */
  usleep(100);
 1811d70:	01001904 	movi	r4,100
 1811d74:	180f1840 	call	180f184 <usleep>

  IOWR_ALTERA_AVALON_LCD_16207_DATA(base, data);
 1811d78:	e0bffd17 	ldw	r2,-12(fp)
 1811d7c:	10800204 	addi	r2,r2,8
 1811d80:	e0ffff03 	ldbu	r3,-4(fp)
 1811d84:	10c00035 	stwio	r3,0(r2)

  sp->address++;
 1811d88:	e0bffe17 	ldw	r2,-8(fp)
 1811d8c:	108008c3 	ldbu	r2,35(r2)
 1811d90:	10800044 	addi	r2,r2,1
 1811d94:	1007883a 	mov	r3,r2
 1811d98:	e0bffe17 	ldw	r2,-8(fp)
 1811d9c:	10c008c5 	stb	r3,35(r2)
}
 1811da0:	e037883a 	mov	sp,fp
 1811da4:	dfc00117 	ldw	ra,4(sp)
 1811da8:	df000017 	ldw	fp,0(sp)
 1811dac:	dec00204 	addi	sp,sp,8
 1811db0:	f800283a 	ret

01811db4 <lcd_clear_screen>:

/* --------------------------------------------------------------------- */

static void lcd_clear_screen(altera_avalon_lcd_16207_state* sp)
{
 1811db4:	defffc04 	addi	sp,sp,-16
 1811db8:	dfc00315 	stw	ra,12(sp)
 1811dbc:	df000215 	stw	fp,8(sp)
 1811dc0:	df000204 	addi	fp,sp,8
 1811dc4:	e13fff15 	stw	r4,-4(fp)
  int y;

  lcd_write_command(sp, LCD_CMD_CLEAR);
 1811dc8:	e13fff17 	ldw	r4,-4(fp)
 1811dcc:	01400044 	movi	r5,1
 1811dd0:	1811c280 	call	1811c28 <lcd_write_command>

  sp->x = 0;
 1811dd4:	e0bfff17 	ldw	r2,-4(fp)
 1811dd8:	10000845 	stb	zero,33(r2)
  sp->y = 0;
 1811ddc:	e0bfff17 	ldw	r2,-4(fp)
 1811de0:	10000885 	stb	zero,34(r2)
  sp->address = 0;
 1811de4:	e0bfff17 	ldw	r2,-4(fp)
 1811de8:	100008c5 	stb	zero,35(r2)

  for (y = 0 ; y < ALT_LCD_HEIGHT ; y++)
 1811dec:	e03ffe15 	stw	zero,-8(fp)
 1811df0:	00001906 	br	1811e58 <lcd_clear_screen+0xa4>
  {
    memset(sp->line[y].data, ' ', sizeof(sp->line[0].data));
 1811df4:	e0bffe17 	ldw	r2,-8(fp)
 1811df8:	108018e4 	muli	r2,r2,99
 1811dfc:	10c01004 	addi	r3,r2,64
 1811e00:	e0bfff17 	ldw	r2,-4(fp)
 1811e04:	1889883a 	add	r4,r3,r2
 1811e08:	01400804 	movi	r5,32
 1811e0c:	01801444 	movi	r6,81
 1811e10:	180bd280 	call	180bd28 <memset>
    memset(sp->line[y].visible, ' ', sizeof(sp->line[0].visible));
 1811e14:	e0bffe17 	ldw	r2,-8(fp)
 1811e18:	108018e4 	muli	r2,r2,99
 1811e1c:	10c00c04 	addi	r3,r2,48
 1811e20:	e0bfff17 	ldw	r2,-4(fp)
 1811e24:	1889883a 	add	r4,r3,r2
 1811e28:	01400804 	movi	r5,32
 1811e2c:	01800404 	movi	r6,16
 1811e30:	180bd280 	call	180bd28 <memset>
    sp->line[y].width = 0;
 1811e34:	e0bffe17 	ldw	r2,-8(fp)
 1811e38:	e0ffff17 	ldw	r3,-4(fp)
 1811e3c:	108018e4 	muli	r2,r2,99
 1811e40:	10c5883a 	add	r2,r2,r3
 1811e44:	10802404 	addi	r2,r2,144
 1811e48:	10000045 	stb	zero,1(r2)

  sp->x = 0;
  sp->y = 0;
  sp->address = 0;

  for (y = 0 ; y < ALT_LCD_HEIGHT ; y++)
 1811e4c:	e0bffe17 	ldw	r2,-8(fp)
 1811e50:	10800044 	addi	r2,r2,1
 1811e54:	e0bffe15 	stw	r2,-8(fp)
 1811e58:	e0bffe17 	ldw	r2,-8(fp)
 1811e5c:	10800090 	cmplti	r2,r2,2
 1811e60:	103fe41e 	bne	r2,zero,1811df4 <lcd_clear_screen+0x40>
  {
    memset(sp->line[y].data, ' ', sizeof(sp->line[0].data));
    memset(sp->line[y].visible, ' ', sizeof(sp->line[0].visible));
    sp->line[y].width = 0;
  }
}
 1811e64:	e037883a 	mov	sp,fp
 1811e68:	dfc00117 	ldw	ra,4(sp)
 1811e6c:	df000017 	ldw	fp,0(sp)
 1811e70:	dec00204 	addi	sp,sp,8
 1811e74:	f800283a 	ret

01811e78 <lcd_repaint_screen>:

/* --------------------------------------------------------------------- */

static void lcd_repaint_screen(altera_avalon_lcd_16207_state* sp)
{
 1811e78:	defff704 	addi	sp,sp,-36
 1811e7c:	dfc00815 	stw	ra,32(sp)
 1811e80:	df000715 	stw	fp,28(sp)
 1811e84:	df000704 	addi	fp,sp,28
 1811e88:	e13fff15 	stw	r4,-4(fp)
  /* scrollpos controls how much the lines have scrolled round.  The speed
   * each line scrolls at is controlled by its speed variable - while
   * scrolline lines will wrap at the position set by width
   */

  int scrollpos = sp->scrollpos;
 1811e8c:	e0bfff17 	ldw	r2,-4(fp)
 1811e90:	10800943 	ldbu	r2,37(r2)
 1811e94:	10803fcc 	andi	r2,r2,255
 1811e98:	1080201c 	xori	r2,r2,128
 1811e9c:	10bfe004 	addi	r2,r2,-128
 1811ea0:	e0bffc15 	stw	r2,-16(fp)

  for (y = 0 ; y < ALT_LCD_HEIGHT ; y++)
 1811ea4:	e03ffe15 	stw	zero,-8(fp)
 1811ea8:	00006606 	br	1812044 <lcd_repaint_screen+0x1cc>
  {
    int width  = sp->line[y].width;
 1811eac:	e0bffe17 	ldw	r2,-8(fp)
 1811eb0:	e0ffff17 	ldw	r3,-4(fp)
 1811eb4:	108018e4 	muli	r2,r2,99
 1811eb8:	10c5883a 	add	r2,r2,r3
 1811ebc:	10802404 	addi	r2,r2,144
 1811ec0:	10800043 	ldbu	r2,1(r2)
 1811ec4:	10803fcc 	andi	r2,r2,255
 1811ec8:	1080201c 	xori	r2,r2,128
 1811ecc:	10bfe004 	addi	r2,r2,-128
 1811ed0:	e0bffb15 	stw	r2,-20(fp)
    int offset = (scrollpos * sp->line[y].speed) >> 8;
 1811ed4:	e0bffe17 	ldw	r2,-8(fp)
 1811ed8:	e0ffff17 	ldw	r3,-4(fp)
 1811edc:	108018e4 	muli	r2,r2,99
 1811ee0:	10c5883a 	add	r2,r2,r3
 1811ee4:	10802404 	addi	r2,r2,144
 1811ee8:	10800083 	ldbu	r2,2(r2)
 1811eec:	10c03fcc 	andi	r3,r2,255
 1811ef0:	e0bffc17 	ldw	r2,-16(fp)
 1811ef4:	1885383a 	mul	r2,r3,r2
 1811ef8:	1005d23a 	srai	r2,r2,8
 1811efc:	e0bffa15 	stw	r2,-24(fp)
    if (offset >= width)
 1811f00:	e0fffa17 	ldw	r3,-24(fp)
 1811f04:	e0bffb17 	ldw	r2,-20(fp)
 1811f08:	18800116 	blt	r3,r2,1811f10 <lcd_repaint_screen+0x98>
      offset = 0;
 1811f0c:	e03ffa15 	stw	zero,-24(fp)

    for (x = 0 ; x < ALT_LCD_WIDTH ; x++)
 1811f10:	e03ffd15 	stw	zero,-12(fp)
 1811f14:	00004506 	br	181202c <lcd_repaint_screen+0x1b4>
    {
      char c = sp->line[y].data[(x + offset) % width];
 1811f18:	e17ffe17 	ldw	r5,-8(fp)
 1811f1c:	e0fffd17 	ldw	r3,-12(fp)
 1811f20:	e0bffa17 	ldw	r2,-24(fp)
 1811f24:	1889883a 	add	r4,r3,r2
 1811f28:	e0bffb17 	ldw	r2,-20(fp)
 1811f2c:	2087283a 	div	r3,r4,r2
 1811f30:	e0bffb17 	ldw	r2,-20(fp)
 1811f34:	1885383a 	mul	r2,r3,r2
 1811f38:	2089c83a 	sub	r4,r4,r2
 1811f3c:	e0ffff17 	ldw	r3,-4(fp)
 1811f40:	288018e4 	muli	r2,r5,99
 1811f44:	10c5883a 	add	r2,r2,r3
 1811f48:	1105883a 	add	r2,r2,r4
 1811f4c:	10801004 	addi	r2,r2,64
 1811f50:	10800003 	ldbu	r2,0(r2)
 1811f54:	e0bff945 	stb	r2,-27(fp)

      /* Writing data takes 40us, so don't do it unless required */
      if (sp->line[y].visible[x] != c)
 1811f58:	e0bffe17 	ldw	r2,-8(fp)
 1811f5c:	e13ffd17 	ldw	r4,-12(fp)
 1811f60:	e0ffff17 	ldw	r3,-4(fp)
 1811f64:	108018e4 	muli	r2,r2,99
 1811f68:	10c5883a 	add	r2,r2,r3
 1811f6c:	1105883a 	add	r2,r2,r4
 1811f70:	10800c04 	addi	r2,r2,48
 1811f74:	10800003 	ldbu	r2,0(r2)
 1811f78:	10c03fcc 	andi	r3,r2,255
 1811f7c:	18c0201c 	xori	r3,r3,128
 1811f80:	18ffe004 	addi	r3,r3,-128
 1811f84:	e0bff947 	ldb	r2,-27(fp)
 1811f88:	18802526 	beq	r3,r2,1812020 <lcd_repaint_screen+0x1a8>
      {
        unsigned char address = x + colstart[y];
 1811f8c:	e0fffe17 	ldw	r3,-8(fp)
 1811f90:	d0a00e04 	addi	r2,gp,-32712
 1811f94:	1885883a 	add	r2,r3,r2
 1811f98:	10800003 	ldbu	r2,0(r2)
 1811f9c:	1007883a 	mov	r3,r2
 1811fa0:	e0bffd17 	ldw	r2,-12(fp)
 1811fa4:	1885883a 	add	r2,r3,r2
 1811fa8:	e0bff905 	stb	r2,-28(fp)

        if (address != sp->address)
 1811fac:	e0fff903 	ldbu	r3,-28(fp)
 1811fb0:	e0bfff17 	ldw	r2,-4(fp)
 1811fb4:	108008c3 	ldbu	r2,35(r2)
 1811fb8:	10803fcc 	andi	r2,r2,255
 1811fbc:	1080201c 	xori	r2,r2,128
 1811fc0:	10bfe004 	addi	r2,r2,-128
 1811fc4:	18800926 	beq	r3,r2,1811fec <lcd_repaint_screen+0x174>
        {
          lcd_write_command(sp, LCD_CMD_WRITE_DATA | address);
 1811fc8:	e0fff903 	ldbu	r3,-28(fp)
 1811fcc:	00bfe004 	movi	r2,-128
 1811fd0:	1884b03a 	or	r2,r3,r2
 1811fd4:	11403fcc 	andi	r5,r2,255
 1811fd8:	e13fff17 	ldw	r4,-4(fp)
 1811fdc:	1811c280 	call	1811c28 <lcd_write_command>
          sp->address = address;
 1811fe0:	e0fff903 	ldbu	r3,-28(fp)
 1811fe4:	e0bfff17 	ldw	r2,-4(fp)
 1811fe8:	10c008c5 	stb	r3,35(r2)
        }

        lcd_write_data(sp, c);
 1811fec:	e0bff943 	ldbu	r2,-27(fp)
 1811ff0:	11403fcc 	andi	r5,r2,255
 1811ff4:	e13fff17 	ldw	r4,-4(fp)
 1811ff8:	1811ce00 	call	1811ce0 <lcd_write_data>
        sp->line[y].visible[x] = c;
 1811ffc:	e0bffe17 	ldw	r2,-8(fp)
 1812000:	e13ffd17 	ldw	r4,-12(fp)
 1812004:	e0ffff17 	ldw	r3,-4(fp)
 1812008:	108018e4 	muli	r2,r2,99
 181200c:	10c5883a 	add	r2,r2,r3
 1812010:	1105883a 	add	r2,r2,r4
 1812014:	10c00c04 	addi	r3,r2,48
 1812018:	e0bff943 	ldbu	r2,-27(fp)
 181201c:	18800005 	stb	r2,0(r3)
    int width  = sp->line[y].width;
    int offset = (scrollpos * sp->line[y].speed) >> 8;
    if (offset >= width)
      offset = 0;

    for (x = 0 ; x < ALT_LCD_WIDTH ; x++)
 1812020:	e0bffd17 	ldw	r2,-12(fp)
 1812024:	10800044 	addi	r2,r2,1
 1812028:	e0bffd15 	stw	r2,-12(fp)
 181202c:	e0bffd17 	ldw	r2,-12(fp)
 1812030:	10800410 	cmplti	r2,r2,16
 1812034:	103fb81e 	bne	r2,zero,1811f18 <lcd_repaint_screen+0xa0>
   * scrolline lines will wrap at the position set by width
   */

  int scrollpos = sp->scrollpos;

  for (y = 0 ; y < ALT_LCD_HEIGHT ; y++)
 1812038:	e0bffe17 	ldw	r2,-8(fp)
 181203c:	10800044 	addi	r2,r2,1
 1812040:	e0bffe15 	stw	r2,-8(fp)
 1812044:	e0bffe17 	ldw	r2,-8(fp)
 1812048:	10800090 	cmplti	r2,r2,2
 181204c:	103f971e 	bne	r2,zero,1811eac <lcd_repaint_screen+0x34>
        lcd_write_data(sp, c);
        sp->line[y].visible[x] = c;
      }
    }
  }
}
 1812050:	e037883a 	mov	sp,fp
 1812054:	dfc00117 	ldw	ra,4(sp)
 1812058:	df000017 	ldw	fp,0(sp)
 181205c:	dec00204 	addi	sp,sp,8
 1812060:	f800283a 	ret

01812064 <lcd_scroll_up>:

/* --------------------------------------------------------------------- */

static void lcd_scroll_up(altera_avalon_lcd_16207_state* sp)
{
 1812064:	defffc04 	addi	sp,sp,-16
 1812068:	dfc00315 	stw	ra,12(sp)
 181206c:	df000215 	stw	fp,8(sp)
 1812070:	df000204 	addi	fp,sp,8
 1812074:	e13fff15 	stw	r4,-4(fp)
  int y;

  for (y = 0 ; y < ALT_LCD_HEIGHT ; y++)
 1812078:	e03ffe15 	stw	zero,-8(fp)
 181207c:	00001d06 	br	18120f4 <lcd_scroll_up+0x90>
  {
    if (y < ALT_LCD_HEIGHT-1)
 1812080:	e0bffe17 	ldw	r2,-8(fp)
 1812084:	10800048 	cmpgei	r2,r2,1
 1812088:	10000f1e 	bne	r2,zero,18120c8 <lcd_scroll_up+0x64>
      memcpy(sp->line[y].data, sp->line[y+1].data, ALT_LCD_VIRTUAL_WIDTH);
 181208c:	e0bffe17 	ldw	r2,-8(fp)
 1812090:	108018e4 	muli	r2,r2,99
 1812094:	10c01004 	addi	r3,r2,64
 1812098:	e0bfff17 	ldw	r2,-4(fp)
 181209c:	1889883a 	add	r4,r3,r2
 18120a0:	e0bffe17 	ldw	r2,-8(fp)
 18120a4:	10800044 	addi	r2,r2,1
 18120a8:	108018e4 	muli	r2,r2,99
 18120ac:	10c01004 	addi	r3,r2,64
 18120b0:	e0bfff17 	ldw	r2,-4(fp)
 18120b4:	1885883a 	add	r2,r3,r2
 18120b8:	100b883a 	mov	r5,r2
 18120bc:	01801404 	movi	r6,80
 18120c0:	18069380 	call	1806938 <memcpy>
 18120c4:	00000806 	br	18120e8 <lcd_scroll_up+0x84>
    else
      memset(sp->line[y].data, ' ', ALT_LCD_VIRTUAL_WIDTH);
 18120c8:	e0bffe17 	ldw	r2,-8(fp)
 18120cc:	108018e4 	muli	r2,r2,99
 18120d0:	10c01004 	addi	r3,r2,64
 18120d4:	e0bfff17 	ldw	r2,-4(fp)
 18120d8:	1889883a 	add	r4,r3,r2
 18120dc:	01400804 	movi	r5,32
 18120e0:	01801404 	movi	r6,80
 18120e4:	180bd280 	call	180bd28 <memset>

static void lcd_scroll_up(altera_avalon_lcd_16207_state* sp)
{
  int y;

  for (y = 0 ; y < ALT_LCD_HEIGHT ; y++)
 18120e8:	e0bffe17 	ldw	r2,-8(fp)
 18120ec:	10800044 	addi	r2,r2,1
 18120f0:	e0bffe15 	stw	r2,-8(fp)
 18120f4:	e0bffe17 	ldw	r2,-8(fp)
 18120f8:	10800090 	cmplti	r2,r2,2
 18120fc:	103fe01e 	bne	r2,zero,1812080 <lcd_scroll_up+0x1c>
      memcpy(sp->line[y].data, sp->line[y+1].data, ALT_LCD_VIRTUAL_WIDTH);
    else
      memset(sp->line[y].data, ' ', ALT_LCD_VIRTUAL_WIDTH);
  }

  sp->y--;
 1812100:	e0bfff17 	ldw	r2,-4(fp)
 1812104:	10800883 	ldbu	r2,34(r2)
 1812108:	10bfffc4 	addi	r2,r2,-1
 181210c:	1007883a 	mov	r3,r2
 1812110:	e0bfff17 	ldw	r2,-4(fp)
 1812114:	10c00885 	stb	r3,34(r2)
}
 1812118:	e037883a 	mov	sp,fp
 181211c:	dfc00117 	ldw	ra,4(sp)
 1812120:	df000017 	ldw	fp,0(sp)
 1812124:	dec00204 	addi	sp,sp,8
 1812128:	f800283a 	ret

0181212c <lcd_handle_escape>:

/* --------------------------------------------------------------------- */

static void lcd_handle_escape(altera_avalon_lcd_16207_state* sp, char c)
{
 181212c:	defff804 	addi	sp,sp,-32
 1812130:	dfc00715 	stw	ra,28(sp)
 1812134:	df000615 	stw	fp,24(sp)
 1812138:	df000604 	addi	fp,sp,24
 181213c:	e13ffd15 	stw	r4,-12(fp)
 1812140:	e17ffe05 	stb	r5,-8(fp)
  int parm1 = 0, parm2 = 0;
 1812144:	e03ffc15 	stw	zero,-16(fp)
 1812148:	e03ffb15 	stw	zero,-20(fp)

  if (sp->escape[0] == '[')
 181214c:	e0bffd17 	ldw	r2,-12(fp)
 1812150:	10800a03 	ldbu	r2,40(r2)
 1812154:	10803fcc 	andi	r2,r2,255
 1812158:	1080201c 	xori	r2,r2,128
 181215c:	10bfe004 	addi	r2,r2,-128
 1812160:	108016d8 	cmpnei	r2,r2,91
 1812164:	1000491e 	bne	r2,zero,181228c <lcd_handle_escape+0x160>
  {
    char * ptr = sp->escape+1;
 1812168:	e0bffd17 	ldw	r2,-12(fp)
 181216c:	10800a04 	addi	r2,r2,40
 1812170:	10800044 	addi	r2,r2,1
 1812174:	e0bffa15 	stw	r2,-24(fp)
    while (isdigit(*ptr))
 1812178:	00000d06 	br	18121b0 <lcd_handle_escape+0x84>
      parm1 = (parm1 * 10) + (*ptr++ - '0');
 181217c:	e0bffc17 	ldw	r2,-16(fp)
 1812180:	10c002a4 	muli	r3,r2,10
 1812184:	e0bffa17 	ldw	r2,-24(fp)
 1812188:	10800003 	ldbu	r2,0(r2)
 181218c:	10803fcc 	andi	r2,r2,255
 1812190:	1080201c 	xori	r2,r2,128
 1812194:	10bfe004 	addi	r2,r2,-128
 1812198:	1885883a 	add	r2,r3,r2
 181219c:	10bff404 	addi	r2,r2,-48
 18121a0:	e0bffc15 	stw	r2,-16(fp)
 18121a4:	e0bffa17 	ldw	r2,-24(fp)
 18121a8:	10800044 	addi	r2,r2,1
 18121ac:	e0bffa15 	stw	r2,-24(fp)
  int parm1 = 0, parm2 = 0;

  if (sp->escape[0] == '[')
  {
    char * ptr = sp->escape+1;
    while (isdigit(*ptr))
 18121b0:	e0bffa17 	ldw	r2,-24(fp)
 18121b4:	10800003 	ldbu	r2,0(r2)
 18121b8:	10803fcc 	andi	r2,r2,255
 18121bc:	1080201c 	xori	r2,r2,128
 18121c0:	10bfe004 	addi	r2,r2,-128
 18121c4:	1007883a 	mov	r3,r2
 18121c8:	00806074 	movhi	r2,385
 18121cc:	109ed704 	addi	r2,r2,31580
 18121d0:	10800017 	ldw	r2,0(r2)
 18121d4:	1885883a 	add	r2,r3,r2
 18121d8:	10800003 	ldbu	r2,0(r2)
 18121dc:	10803fcc 	andi	r2,r2,255
 18121e0:	1080010c 	andi	r2,r2,4
 18121e4:	1004c03a 	cmpne	r2,r2,zero
 18121e8:	103fe41e 	bne	r2,zero,181217c <lcd_handle_escape+0x50>
      parm1 = (parm1 * 10) + (*ptr++ - '0');

    if (*ptr == ';')
 18121ec:	e0bffa17 	ldw	r2,-24(fp)
 18121f0:	10800003 	ldbu	r2,0(r2)
 18121f4:	10803fcc 	andi	r2,r2,255
 18121f8:	1080201c 	xori	r2,r2,128
 18121fc:	10bfe004 	addi	r2,r2,-128
 1812200:	10800ed8 	cmpnei	r2,r2,59
 1812204:	1000231e 	bne	r2,zero,1812294 <lcd_handle_escape+0x168>
    {
      ptr++;
 1812208:	e0bffa17 	ldw	r2,-24(fp)
 181220c:	10800044 	addi	r2,r2,1
 1812210:	e0bffa15 	stw	r2,-24(fp)
      while (isdigit(*ptr))
 1812214:	00000d06 	br	181224c <lcd_handle_escape+0x120>
        parm2 = (parm2 * 10) + (*ptr++ - '0');
 1812218:	e0bffb17 	ldw	r2,-20(fp)
 181221c:	10c002a4 	muli	r3,r2,10
 1812220:	e0bffa17 	ldw	r2,-24(fp)
 1812224:	10800003 	ldbu	r2,0(r2)
 1812228:	10803fcc 	andi	r2,r2,255
 181222c:	1080201c 	xori	r2,r2,128
 1812230:	10bfe004 	addi	r2,r2,-128
 1812234:	1885883a 	add	r2,r3,r2
 1812238:	10bff404 	addi	r2,r2,-48
 181223c:	e0bffb15 	stw	r2,-20(fp)
 1812240:	e0bffa17 	ldw	r2,-24(fp)
 1812244:	10800044 	addi	r2,r2,1
 1812248:	e0bffa15 	stw	r2,-24(fp)
      parm1 = (parm1 * 10) + (*ptr++ - '0');

    if (*ptr == ';')
    {
      ptr++;
      while (isdigit(*ptr))
 181224c:	e0bffa17 	ldw	r2,-24(fp)
 1812250:	10800003 	ldbu	r2,0(r2)
 1812254:	10803fcc 	andi	r2,r2,255
 1812258:	1080201c 	xori	r2,r2,128
 181225c:	10bfe004 	addi	r2,r2,-128
 1812260:	1007883a 	mov	r3,r2
 1812264:	00806074 	movhi	r2,385
 1812268:	109ed704 	addi	r2,r2,31580
 181226c:	10800017 	ldw	r2,0(r2)
 1812270:	1885883a 	add	r2,r3,r2
 1812274:	10800003 	ldbu	r2,0(r2)
 1812278:	10803fcc 	andi	r2,r2,255
 181227c:	1080010c 	andi	r2,r2,4
 1812280:	1004c03a 	cmpne	r2,r2,zero
 1812284:	103fe41e 	bne	r2,zero,1812218 <lcd_handle_escape+0xec>
 1812288:	00000206 	br	1812294 <lcd_handle_escape+0x168>
        parm2 = (parm2 * 10) + (*ptr++ - '0');
    }
  }
  else
    parm1 = -1;
 181228c:	00bfffc4 	movi	r2,-1
 1812290:	e0bffc15 	stw	r2,-16(fp)

  switch (c)
 1812294:	e0bffe07 	ldb	r2,-8(fp)
 1812298:	e0bfff15 	stw	r2,-4(fp)
 181229c:	e0ffff17 	ldw	r3,-4(fp)
 18122a0:	188012a0 	cmpeqi	r2,r3,74
 18122a4:	10002f1e 	bne	r2,zero,1812364 <lcd_handle_escape+0x238>
 18122a8:	e0ffff17 	ldw	r3,-4(fp)
 18122ac:	188012c8 	cmpgei	r2,r3,75
 18122b0:	1000041e 	bne	r2,zero,18122c4 <lcd_handle_escape+0x198>
 18122b4:	e0ffff17 	ldw	r3,-4(fp)
 18122b8:	18801220 	cmpeqi	r2,r3,72
 18122bc:	1000081e 	bne	r2,zero,18122e0 <lcd_handle_escape+0x1b4>
 18122c0:	00004906 	br	18123e8 <lcd_handle_escape+0x2bc>
 18122c4:	e0ffff17 	ldw	r3,-4(fp)
 18122c8:	188012e0 	cmpeqi	r2,r3,75
 18122cc:	10002b1e 	bne	r2,zero,181237c <lcd_handle_escape+0x250>
 18122d0:	e0ffff17 	ldw	r3,-4(fp)
 18122d4:	188019a0 	cmpeqi	r2,r3,102
 18122d8:	1000011e 	bne	r2,zero,18122e0 <lcd_handle_escape+0x1b4>
 18122dc:	00004206 	br	18123e8 <lcd_handle_escape+0x2bc>
  {
  case 'H': /* ESC '[' <y> ';' <x> 'H'  : Move cursor to location */
  case 'f': /* Same as above */
    if (parm2 > 0)
 18122e0:	e0bffb17 	ldw	r2,-20(fp)
 18122e4:	10800050 	cmplti	r2,r2,1
 18122e8:	1000051e 	bne	r2,zero,1812300 <lcd_handle_escape+0x1d4>
      sp->x = parm2 - 1;
 18122ec:	e0bffb17 	ldw	r2,-20(fp)
 18122f0:	10bfffc4 	addi	r2,r2,-1
 18122f4:	1007883a 	mov	r3,r2
 18122f8:	e0bffd17 	ldw	r2,-12(fp)
 18122fc:	10c00845 	stb	r3,33(r2)
    if (parm1 > 0)
 1812300:	e0bffc17 	ldw	r2,-16(fp)
 1812304:	10800050 	cmplti	r2,r2,1
 1812308:	1000371e 	bne	r2,zero,18123e8 <lcd_handle_escape+0x2bc>
    {
      sp->y = parm1 - 1;
 181230c:	e0bffc17 	ldw	r2,-16(fp)
 1812310:	10bfffc4 	addi	r2,r2,-1
 1812314:	1007883a 	mov	r3,r2
 1812318:	e0bffd17 	ldw	r2,-12(fp)
 181231c:	10c00885 	stb	r3,34(r2)
      if (sp->y > ALT_LCD_HEIGHT * 2)
 1812320:	e0bffd17 	ldw	r2,-12(fp)
 1812324:	10800883 	ldbu	r2,34(r2)
 1812328:	10803fcc 	andi	r2,r2,255
 181232c:	10800170 	cmpltui	r2,r2,5
 1812330:	1000061e 	bne	r2,zero,181234c <lcd_handle_escape+0x220>
        sp->y = ALT_LCD_HEIGHT * 2;
 1812334:	e0fffd17 	ldw	r3,-12(fp)
 1812338:	00800104 	movi	r2,4
 181233c:	18800885 	stb	r2,34(r3)
      while (sp->y > ALT_LCD_HEIGHT)
 1812340:	00000206 	br	181234c <lcd_handle_escape+0x220>
        lcd_scroll_up(sp);
 1812344:	e13ffd17 	ldw	r4,-12(fp)
 1812348:	18120640 	call	1812064 <lcd_scroll_up>
    if (parm1 > 0)
    {
      sp->y = parm1 - 1;
      if (sp->y > ALT_LCD_HEIGHT * 2)
        sp->y = ALT_LCD_HEIGHT * 2;
      while (sp->y > ALT_LCD_HEIGHT)
 181234c:	e0bffd17 	ldw	r2,-12(fp)
 1812350:	10800883 	ldbu	r2,34(r2)
 1812354:	10803fcc 	andi	r2,r2,255
 1812358:	108000e8 	cmpgeui	r2,r2,3
 181235c:	103ff91e 	bne	r2,zero,1812344 <lcd_handle_escape+0x218>
        lcd_scroll_up(sp);
    }
    break;
 1812360:	00002106 	br	18123e8 <lcd_handle_escape+0x2bc>
    /*   ESC J      is clear to beginning of line    [unimplemented]
     *   ESC [ 0 J  is clear to bottom of screen     [unimplemented]
     *   ESC [ 1 J  is clear to beginning of screen  [unimplemented]
     *   ESC [ 2 J  is clear screen
     */
    if (parm1 == 2)
 1812364:	e0bffc17 	ldw	r2,-16(fp)
 1812368:	10800098 	cmpnei	r2,r2,2
 181236c:	10001e1e 	bne	r2,zero,18123e8 <lcd_handle_escape+0x2bc>
      lcd_clear_screen(sp);
 1812370:	e13ffd17 	ldw	r4,-12(fp)
 1812374:	1811db40 	call	1811db4 <lcd_clear_screen>
    break;
 1812378:	00001b06 	br	18123e8 <lcd_handle_escape+0x2bc>
    /*   ESC K      is clear to end of line
     *   ESC [ 0 K  is clear to end of line
     *   ESC [ 1 K  is clear to beginning of line    [unimplemented]
     *   ESC [ 2 K  is clear line                    [unimplemented]
     */
    if (parm1 < 1)
 181237c:	e0bffc17 	ldw	r2,-16(fp)
 1812380:	10800048 	cmpgei	r2,r2,1
 1812384:	1000181e 	bne	r2,zero,18123e8 <lcd_handle_escape+0x2bc>
    {
      if (sp->x < ALT_LCD_VIRTUAL_WIDTH)
 1812388:	e0bffd17 	ldw	r2,-12(fp)
 181238c:	10800843 	ldbu	r2,33(r2)
 1812390:	10803fcc 	andi	r2,r2,255
 1812394:	10801428 	cmpgeui	r2,r2,80
 1812398:	1000131e 	bne	r2,zero,18123e8 <lcd_handle_escape+0x2bc>
        memset(sp->line[sp->y].data + sp->x, ' ', ALT_LCD_VIRTUAL_WIDTH - sp->x);
 181239c:	e0bffd17 	ldw	r2,-12(fp)
 18123a0:	10800883 	ldbu	r2,34(r2)
 18123a4:	10803fcc 	andi	r2,r2,255
 18123a8:	108018e4 	muli	r2,r2,99
 18123ac:	10c01004 	addi	r3,r2,64
 18123b0:	e0bffd17 	ldw	r2,-12(fp)
 18123b4:	1887883a 	add	r3,r3,r2
 18123b8:	e0bffd17 	ldw	r2,-12(fp)
 18123bc:	10800843 	ldbu	r2,33(r2)
 18123c0:	10803fcc 	andi	r2,r2,255
 18123c4:	1889883a 	add	r4,r3,r2
 18123c8:	e0bffd17 	ldw	r2,-12(fp)
 18123cc:	10800843 	ldbu	r2,33(r2)
 18123d0:	10c03fcc 	andi	r3,r2,255
 18123d4:	00801404 	movi	r2,80
 18123d8:	10c5c83a 	sub	r2,r2,r3
 18123dc:	100d883a 	mov	r6,r2
 18123e0:	01400804 	movi	r5,32
 18123e4:	180bd280 	call	180bd28 <memset>
    }
    break;
  }
}
 18123e8:	e037883a 	mov	sp,fp
 18123ec:	dfc00117 	ldw	ra,4(sp)
 18123f0:	df000017 	ldw	fp,0(sp)
 18123f4:	dec00204 	addi	sp,sp,8
 18123f8:	f800283a 	ret

018123fc <altera_avalon_lcd_16207_write>:

/* --------------------------------------------------------------------- */

int altera_avalon_lcd_16207_write(altera_avalon_lcd_16207_state* sp, 
  const char* ptr, int len, int flags)
{
 18123fc:	defff304 	addi	sp,sp,-52
 1812400:	dfc00c15 	stw	ra,48(sp)
 1812404:	df000b15 	stw	fp,44(sp)
 1812408:	df000b04 	addi	fp,sp,44
 181240c:	e13ffc15 	stw	r4,-16(fp)
 1812410:	e17ffd15 	stw	r5,-12(fp)
 1812414:	e1bffe15 	stw	r6,-8(fp)
 1812418:	e1ffff15 	stw	r7,-4(fp)
  const char* end = ptr + len;
 181241c:	e0bffe17 	ldw	r2,-8(fp)
 1812420:	1007883a 	mov	r3,r2
 1812424:	e0bffd17 	ldw	r2,-12(fp)
 1812428:	10c5883a 	add	r2,r2,r3
 181242c:	e0bffb15 	stw	r2,-20(fp)

  ALT_SEM_PEND (sp->write_lock, 0);

  /* Tell the routine which is called off the timer interrupt that the
   * foreground routines are active so it must not repaint the display. */
  sp->active = 1;
 1812430:	e0fffc17 	ldw	r3,-16(fp)
 1812434:	00800044 	movi	r2,1
 1812438:	188009c5 	stb	r2,39(r3)

  for ( ; ptr < end ; ptr++)
 181243c:	0000a206 	br	18126c8 <altera_avalon_lcd_16207_write+0x2cc>
  {
    char c = *ptr;
 1812440:	e0bffd17 	ldw	r2,-12(fp)
 1812444:	10800003 	ldbu	r2,0(r2)
 1812448:	e0bff805 	stb	r2,-32(fp)

    if (sp->esccount >= 0)
 181244c:	e0bffc17 	ldw	r2,-16(fp)
 1812450:	10800903 	ldbu	r2,36(r2)
 1812454:	10803fcc 	andi	r2,r2,255
 1812458:	1080201c 	xori	r2,r2,128
 181245c:	10bfe004 	addi	r2,r2,-128
 1812460:	1004803a 	cmplt	r2,r2,zero
 1812464:	10003b1e 	bne	r2,zero,1812554 <altera_avalon_lcd_16207_write+0x158>
    {
      unsigned int esccount = sp->esccount;
 1812468:	e0bffc17 	ldw	r2,-16(fp)
 181246c:	10800903 	ldbu	r2,36(r2)
 1812470:	10803fcc 	andi	r2,r2,255
 1812474:	1080201c 	xori	r2,r2,128
 1812478:	10bfe004 	addi	r2,r2,-128
 181247c:	e0bff715 	stw	r2,-36(fp)

      /* Single character escape sequences can end with any character
       * Multi character escape sequences start with '[' and contain
       * digits and semicolons before terminating
       */
      if ((esccount == 0 && c != '[') ||
 1812480:	e0bff717 	ldw	r2,-36(fp)
 1812484:	1004c03a 	cmpne	r2,r2,zero
 1812488:	1000031e 	bne	r2,zero,1812498 <altera_avalon_lcd_16207_write+0x9c>
 181248c:	e0bff807 	ldb	r2,-32(fp)
 1812490:	108016d8 	cmpnei	r2,r2,91
 1812494:	1000111e 	bne	r2,zero,18124dc <altera_avalon_lcd_16207_write+0xe0>
 1812498:	e0bff717 	ldw	r2,-36(fp)
 181249c:	1005003a 	cmpeq	r2,r2,zero
 18124a0:	10001a1e 	bne	r2,zero,181250c <altera_avalon_lcd_16207_write+0x110>
 18124a4:	e0bff807 	ldb	r2,-32(fp)
 18124a8:	1007883a 	mov	r3,r2
 18124ac:	00806074 	movhi	r2,385
 18124b0:	109ed704 	addi	r2,r2,31580
 18124b4:	10800017 	ldw	r2,0(r2)
 18124b8:	1885883a 	add	r2,r3,r2
 18124bc:	10800003 	ldbu	r2,0(r2)
 18124c0:	10803fcc 	andi	r2,r2,255
 18124c4:	1080010c 	andi	r2,r2,4
 18124c8:	1004c03a 	cmpne	r2,r2,zero
 18124cc:	10000f1e 	bne	r2,zero,181250c <altera_avalon_lcd_16207_write+0x110>
 18124d0:	e0bff807 	ldb	r2,-32(fp)
 18124d4:	10800ee0 	cmpeqi	r2,r2,59
 18124d8:	10000c1e 	bne	r2,zero,181250c <altera_avalon_lcd_16207_write+0x110>
          (esccount > 0 && !isdigit(c) && c != ';'))
      {
        sp->escape[esccount] = 0;
 18124dc:	e0fff717 	ldw	r3,-36(fp)
 18124e0:	e0bffc17 	ldw	r2,-16(fp)
 18124e4:	1885883a 	add	r2,r3,r2
 18124e8:	10800a04 	addi	r2,r2,40
 18124ec:	10000005 	stb	zero,0(r2)

        lcd_handle_escape(sp, c);
 18124f0:	e17ff807 	ldb	r5,-32(fp)
 18124f4:	e13ffc17 	ldw	r4,-16(fp)
 18124f8:	181212c0 	call	181212c <lcd_handle_escape>

        sp->esccount = -1;
 18124fc:	e0fffc17 	ldw	r3,-16(fp)
 1812500:	00bfffc4 	movi	r2,-1
 1812504:	18800905 	stb	r2,36(r3)

      /* Single character escape sequences can end with any character
       * Multi character escape sequences start with '[' and contain
       * digits and semicolons before terminating
       */
      if ((esccount == 0 && c != '[') ||
 1812508:	00006c06 	br	18126bc <altera_avalon_lcd_16207_write+0x2c0>

        lcd_handle_escape(sp, c);

        sp->esccount = -1;
      }
      else if (sp->esccount < sizeof(sp->escape)-1)
 181250c:	e0bffc17 	ldw	r2,-16(fp)
 1812510:	10800903 	ldbu	r2,36(r2)
 1812514:	10803fcc 	andi	r2,r2,255
 1812518:	108001e8 	cmpgeui	r2,r2,7
 181251c:	1000671e 	bne	r2,zero,18126bc <altera_avalon_lcd_16207_write+0x2c0>
      {
        sp->escape[esccount] = c;
 1812520:	e0fff717 	ldw	r3,-36(fp)
 1812524:	e0bffc17 	ldw	r2,-16(fp)
 1812528:	1885883a 	add	r2,r3,r2
 181252c:	10c00a04 	addi	r3,r2,40
 1812530:	e0bff803 	ldbu	r2,-32(fp)
 1812534:	18800005 	stb	r2,0(r3)
        sp->esccount++;
 1812538:	e0bffc17 	ldw	r2,-16(fp)
 181253c:	10800903 	ldbu	r2,36(r2)
 1812540:	10800044 	addi	r2,r2,1
 1812544:	1007883a 	mov	r3,r2
 1812548:	e0bffc17 	ldw	r2,-16(fp)
 181254c:	10c00905 	stb	r3,36(r2)
 1812550:	00005a06 	br	18126bc <altera_avalon_lcd_16207_write+0x2c0>
      }
    }
    else if (c == 27) /* ESC */
 1812554:	e0bff807 	ldb	r2,-32(fp)
 1812558:	108006d8 	cmpnei	r2,r2,27
 181255c:	1000031e 	bne	r2,zero,181256c <altera_avalon_lcd_16207_write+0x170>
    {
      sp->esccount = 0;
 1812560:	e0bffc17 	ldw	r2,-16(fp)
 1812564:	10000905 	stb	zero,36(r2)
 1812568:	00005406 	br	18126bc <altera_avalon_lcd_16207_write+0x2c0>
    }
    else if (c == '\r')
 181256c:	e0bff807 	ldb	r2,-32(fp)
 1812570:	10800358 	cmpnei	r2,r2,13
 1812574:	1000031e 	bne	r2,zero,1812584 <altera_avalon_lcd_16207_write+0x188>
    {
      sp->x = 0;
 1812578:	e0bffc17 	ldw	r2,-16(fp)
 181257c:	10000845 	stb	zero,33(r2)
 1812580:	00004e06 	br	18126bc <altera_avalon_lcd_16207_write+0x2c0>
    }
    else if (c == '\n')
 1812584:	e0bff807 	ldb	r2,-32(fp)
 1812588:	10800298 	cmpnei	r2,r2,10
 181258c:	1000101e 	bne	r2,zero,18125d0 <altera_avalon_lcd_16207_write+0x1d4>
    {
      sp->x = 0;
 1812590:	e0bffc17 	ldw	r2,-16(fp)
 1812594:	10000845 	stb	zero,33(r2)
      sp->y++;
 1812598:	e0bffc17 	ldw	r2,-16(fp)
 181259c:	10800883 	ldbu	r2,34(r2)
 18125a0:	10800044 	addi	r2,r2,1
 18125a4:	1007883a 	mov	r3,r2
 18125a8:	e0bffc17 	ldw	r2,-16(fp)
 18125ac:	10c00885 	stb	r3,34(r2)

      /* Let the cursor sit at X=0, Y=HEIGHT without scrolling so the user
       * can print two lines of data without losing one.
       */
      if (sp->y > ALT_LCD_HEIGHT)
 18125b0:	e0bffc17 	ldw	r2,-16(fp)
 18125b4:	10800883 	ldbu	r2,34(r2)
 18125b8:	10803fcc 	andi	r2,r2,255
 18125bc:	108000f0 	cmpltui	r2,r2,3
 18125c0:	10003e1e 	bne	r2,zero,18126bc <altera_avalon_lcd_16207_write+0x2c0>
        lcd_scroll_up(sp);
 18125c4:	e13ffc17 	ldw	r4,-16(fp)
 18125c8:	18120640 	call	1812064 <lcd_scroll_up>
 18125cc:	00003b06 	br	18126bc <altera_avalon_lcd_16207_write+0x2c0>
    }
    else if (c == '\b')
 18125d0:	e0bff807 	ldb	r2,-32(fp)
 18125d4:	10800218 	cmpnei	r2,r2,8
 18125d8:	10000c1e 	bne	r2,zero,181260c <altera_avalon_lcd_16207_write+0x210>
    {
      if (sp->x > 0)
 18125dc:	e0bffc17 	ldw	r2,-16(fp)
 18125e0:	10800843 	ldbu	r2,33(r2)
 18125e4:	10803fcc 	andi	r2,r2,255
 18125e8:	1005003a 	cmpeq	r2,r2,zero
 18125ec:	1000331e 	bne	r2,zero,18126bc <altera_avalon_lcd_16207_write+0x2c0>
        sp->x--;
 18125f0:	e0bffc17 	ldw	r2,-16(fp)
 18125f4:	10800843 	ldbu	r2,33(r2)
 18125f8:	10bfffc4 	addi	r2,r2,-1
 18125fc:	1007883a 	mov	r3,r2
 1812600:	e0bffc17 	ldw	r2,-16(fp)
 1812604:	10c00845 	stb	r3,33(r2)
 1812608:	00002c06 	br	18126bc <altera_avalon_lcd_16207_write+0x2c0>
    }
    else if (isprint(c))
 181260c:	e0bff807 	ldb	r2,-32(fp)
 1812610:	1007883a 	mov	r3,r2
 1812614:	00806074 	movhi	r2,385
 1812618:	109ed704 	addi	r2,r2,31580
 181261c:	10800017 	ldw	r2,0(r2)
 1812620:	1885883a 	add	r2,r3,r2
 1812624:	10800003 	ldbu	r2,0(r2)
 1812628:	10803fcc 	andi	r2,r2,255
 181262c:	1080201c 	xori	r2,r2,128
 1812630:	10bfe004 	addi	r2,r2,-128
 1812634:	108025cc 	andi	r2,r2,151
 1812638:	1005003a 	cmpeq	r2,r2,zero
 181263c:	10001f1e 	bne	r2,zero,18126bc <altera_avalon_lcd_16207_write+0x2c0>
    {
      /* If we didn't scroll on the last linefeed then we might need to do
       * it now. */
      if (sp->y >= ALT_LCD_HEIGHT)
 1812640:	e0bffc17 	ldw	r2,-16(fp)
 1812644:	10800883 	ldbu	r2,34(r2)
 1812648:	10803fcc 	andi	r2,r2,255
 181264c:	108000b0 	cmpltui	r2,r2,2
 1812650:	1000021e 	bne	r2,zero,181265c <altera_avalon_lcd_16207_write+0x260>
        lcd_scroll_up(sp);
 1812654:	e13ffc17 	ldw	r4,-16(fp)
 1812658:	18120640 	call	1812064 <lcd_scroll_up>

      if (sp->x < ALT_LCD_VIRTUAL_WIDTH)
 181265c:	e0bffc17 	ldw	r2,-16(fp)
 1812660:	10800843 	ldbu	r2,33(r2)
 1812664:	10803fcc 	andi	r2,r2,255
 1812668:	10801428 	cmpgeui	r2,r2,80
 181266c:	10000d1e 	bne	r2,zero,18126a4 <altera_avalon_lcd_16207_write+0x2a8>
        sp->line[sp->y].data[sp->x] = c;
 1812670:	e0bffc17 	ldw	r2,-16(fp)
 1812674:	10800883 	ldbu	r2,34(r2)
 1812678:	11003fcc 	andi	r4,r2,255
 181267c:	e0bffc17 	ldw	r2,-16(fp)
 1812680:	10800843 	ldbu	r2,33(r2)
 1812684:	11403fcc 	andi	r5,r2,255
 1812688:	e0fffc17 	ldw	r3,-16(fp)
 181268c:	208018e4 	muli	r2,r4,99
 1812690:	10c5883a 	add	r2,r2,r3
 1812694:	1145883a 	add	r2,r2,r5
 1812698:	10c01004 	addi	r3,r2,64
 181269c:	e0bff803 	ldbu	r2,-32(fp)
 18126a0:	18800005 	stb	r2,0(r3)

      sp->x++;
 18126a4:	e0bffc17 	ldw	r2,-16(fp)
 18126a8:	10800843 	ldbu	r2,33(r2)
 18126ac:	10800044 	addi	r2,r2,1
 18126b0:	1007883a 	mov	r3,r2
 18126b4:	e0bffc17 	ldw	r2,-16(fp)
 18126b8:	10c00845 	stb	r3,33(r2)

  /* Tell the routine which is called off the timer interrupt that the
   * foreground routines are active so it must not repaint the display. */
  sp->active = 1;

  for ( ; ptr < end ; ptr++)
 18126bc:	e0bffd17 	ldw	r2,-12(fp)
 18126c0:	10800044 	addi	r2,r2,1
 18126c4:	e0bffd15 	stw	r2,-12(fp)
 18126c8:	e0fffd17 	ldw	r3,-12(fp)
 18126cc:	e0bffb17 	ldw	r2,-20(fp)
 18126d0:	18bf5b36 	bltu	r3,r2,1812440 <altera_avalon_lcd_16207_write+0x44>
      sp->x++;
    }
  }

  /* Recalculate the scrolling parameters */
  widthmax = ALT_LCD_WIDTH;
 18126d4:	00800404 	movi	r2,16
 18126d8:	e0bff915 	stw	r2,-28(fp)
  for (y = 0 ; y < ALT_LCD_HEIGHT ; y++)
 18126dc:	e03ffa15 	stw	zero,-24(fp)
 18126e0:	00003606 	br	18127bc <altera_avalon_lcd_16207_write+0x3c0>
  {
    int width;
    for (width = ALT_LCD_VIRTUAL_WIDTH ; width > 0 ; width--)
 18126e4:	00801404 	movi	r2,80
 18126e8:	e0bff615 	stw	r2,-40(fp)
 18126ec:	00001106 	br	1812734 <altera_avalon_lcd_16207_write+0x338>
      if (sp->line[y].data[width-1] != ' ')
 18126f0:	e13ffa17 	ldw	r4,-24(fp)
 18126f4:	e0bff617 	ldw	r2,-40(fp)
 18126f8:	117fffc4 	addi	r5,r2,-1
 18126fc:	e0fffc17 	ldw	r3,-16(fp)
 1812700:	208018e4 	muli	r2,r4,99
 1812704:	10c5883a 	add	r2,r2,r3
 1812708:	1145883a 	add	r2,r2,r5
 181270c:	10801004 	addi	r2,r2,64
 1812710:	10800003 	ldbu	r2,0(r2)
 1812714:	10803fcc 	andi	r2,r2,255
 1812718:	1080201c 	xori	r2,r2,128
 181271c:	10bfe004 	addi	r2,r2,-128
 1812720:	10800818 	cmpnei	r2,r2,32
 1812724:	1000061e 	bne	r2,zero,1812740 <altera_avalon_lcd_16207_write+0x344>
  /* Recalculate the scrolling parameters */
  widthmax = ALT_LCD_WIDTH;
  for (y = 0 ; y < ALT_LCD_HEIGHT ; y++)
  {
    int width;
    for (width = ALT_LCD_VIRTUAL_WIDTH ; width > 0 ; width--)
 1812728:	e0bff617 	ldw	r2,-40(fp)
 181272c:	10bfffc4 	addi	r2,r2,-1
 1812730:	e0bff615 	stw	r2,-40(fp)
 1812734:	e0bff617 	ldw	r2,-40(fp)
 1812738:	10800048 	cmpgei	r2,r2,1
 181273c:	103fec1e 	bne	r2,zero,18126f0 <altera_avalon_lcd_16207_write+0x2f4>

    /* The minimum width is the size of the LCD panel.  If the real width
     * is long enough to require scrolling then add an extra space so the
     * end of the message doesn't run into the beginning of it.
     */
    if (width <= ALT_LCD_WIDTH)
 1812740:	e0bff617 	ldw	r2,-40(fp)
 1812744:	10800448 	cmpgei	r2,r2,17
 1812748:	1000031e 	bne	r2,zero,1812758 <altera_avalon_lcd_16207_write+0x35c>
      width = ALT_LCD_WIDTH;
 181274c:	00800404 	movi	r2,16
 1812750:	e0bff615 	stw	r2,-40(fp)
 1812754:	00000306 	br	1812764 <altera_avalon_lcd_16207_write+0x368>
    else
      width++;
 1812758:	e0bff617 	ldw	r2,-40(fp)
 181275c:	10800044 	addi	r2,r2,1
 1812760:	e0bff615 	stw	r2,-40(fp)

    sp->line[y].width = width;
 1812764:	e13ffa17 	ldw	r4,-24(fp)
 1812768:	e0bff617 	ldw	r2,-40(fp)
 181276c:	100b883a 	mov	r5,r2
 1812770:	e0fffc17 	ldw	r3,-16(fp)
 1812774:	208018e4 	muli	r2,r4,99
 1812778:	10c5883a 	add	r2,r2,r3
 181277c:	10802404 	addi	r2,r2,144
 1812780:	11400045 	stb	r5,1(r2)
    if (widthmax < width)
 1812784:	e0fff917 	ldw	r3,-28(fp)
 1812788:	e0bff617 	ldw	r2,-40(fp)
 181278c:	1880020e 	bge	r3,r2,1812798 <altera_avalon_lcd_16207_write+0x39c>
      widthmax = width;
 1812790:	e0bff617 	ldw	r2,-40(fp)
 1812794:	e0bff915 	stw	r2,-28(fp)
    sp->line[y].speed = 0; /* By default lines don't scroll */
 1812798:	e0bffa17 	ldw	r2,-24(fp)
 181279c:	e0fffc17 	ldw	r3,-16(fp)
 18127a0:	108018e4 	muli	r2,r2,99
 18127a4:	10c5883a 	add	r2,r2,r3
 18127a8:	10802404 	addi	r2,r2,144
 18127ac:	10000085 	stb	zero,2(r2)
    }
  }

  /* Recalculate the scrolling parameters */
  widthmax = ALT_LCD_WIDTH;
  for (y = 0 ; y < ALT_LCD_HEIGHT ; y++)
 18127b0:	e0bffa17 	ldw	r2,-24(fp)
 18127b4:	10800044 	addi	r2,r2,1
 18127b8:	e0bffa15 	stw	r2,-24(fp)
 18127bc:	e0bffa17 	ldw	r2,-24(fp)
 18127c0:	10800090 	cmplti	r2,r2,2
 18127c4:	103fc71e 	bne	r2,zero,18126e4 <altera_avalon_lcd_16207_write+0x2e8>
    if (widthmax < width)
      widthmax = width;
    sp->line[y].speed = 0; /* By default lines don't scroll */
  }

  if (widthmax <= ALT_LCD_WIDTH)
 18127c8:	e0bff917 	ldw	r2,-28(fp)
 18127cc:	10800448 	cmpgei	r2,r2,17
 18127d0:	1000031e 	bne	r2,zero,18127e0 <altera_avalon_lcd_16207_write+0x3e4>
    sp->scrollmax = 0;
 18127d4:	e0bffc17 	ldw	r2,-16(fp)
 18127d8:	10000985 	stb	zero,38(r2)
 18127dc:	00002d06 	br	1812894 <altera_avalon_lcd_16207_write+0x498>
  else
  {
    widthmax *= 2;
 18127e0:	e0bff917 	ldw	r2,-28(fp)
 18127e4:	1085883a 	add	r2,r2,r2
 18127e8:	e0bff915 	stw	r2,-28(fp)
    sp->scrollmax = widthmax;
 18127ec:	e0bff917 	ldw	r2,-28(fp)
 18127f0:	1007883a 	mov	r3,r2
 18127f4:	e0bffc17 	ldw	r2,-16(fp)
 18127f8:	10c00985 	stb	r3,38(r2)

    /* Now calculate how fast each of the other lines should go */
    for (y = 0 ; y < ALT_LCD_HEIGHT ; y++)
 18127fc:	e03ffa15 	stw	zero,-24(fp)
 1812800:	00002106 	br	1812888 <altera_avalon_lcd_16207_write+0x48c>
      if (sp->line[y].width > ALT_LCD_WIDTH)
 1812804:	e0bffa17 	ldw	r2,-24(fp)
 1812808:	e0fffc17 	ldw	r3,-16(fp)
 181280c:	108018e4 	muli	r2,r2,99
 1812810:	10c5883a 	add	r2,r2,r3
 1812814:	10802404 	addi	r2,r2,144
 1812818:	10800043 	ldbu	r2,1(r2)
 181281c:	10803fcc 	andi	r2,r2,255
 1812820:	1080201c 	xori	r2,r2,128
 1812824:	10bfe004 	addi	r2,r2,-128
 1812828:	10800450 	cmplti	r2,r2,17
 181282c:	1000131e 	bne	r2,zero,181287c <altera_avalon_lcd_16207_write+0x480>
         */
#if 1
        /* This option makes all the lines scroll round at different speeds
         * which are chosen so that all the scrolls finish at the same time.
         */
        sp->line[y].speed = 256 * sp->line[y].width / widthmax;
 1812830:	e17ffa17 	ldw	r5,-24(fp)
 1812834:	e0bffa17 	ldw	r2,-24(fp)
 1812838:	e0fffc17 	ldw	r3,-16(fp)
 181283c:	108018e4 	muli	r2,r2,99
 1812840:	10c5883a 	add	r2,r2,r3
 1812844:	10802404 	addi	r2,r2,144
 1812848:	10800043 	ldbu	r2,1(r2)
 181284c:	10803fcc 	andi	r2,r2,255
 1812850:	1080201c 	xori	r2,r2,128
 1812854:	10bfe004 	addi	r2,r2,-128
 1812858:	1006923a 	slli	r3,r2,8
 181285c:	e0bff917 	ldw	r2,-28(fp)
 1812860:	1885283a 	div	r2,r3,r2
 1812864:	1009883a 	mov	r4,r2
 1812868:	e0fffc17 	ldw	r3,-16(fp)
 181286c:	288018e4 	muli	r2,r5,99
 1812870:	10c5883a 	add	r2,r2,r3
 1812874:	10802404 	addi	r2,r2,144
 1812878:	11000085 	stb	r4,2(r2)
  {
    widthmax *= 2;
    sp->scrollmax = widthmax;

    /* Now calculate how fast each of the other lines should go */
    for (y = 0 ; y < ALT_LCD_HEIGHT ; y++)
 181287c:	e0bffa17 	ldw	r2,-24(fp)
 1812880:	10800044 	addi	r2,r2,1
 1812884:	e0bffa15 	stw	r2,-24(fp)
 1812888:	e0bffa17 	ldw	r2,-24(fp)
 181288c:	10800090 	cmplti	r2,r2,2
 1812890:	103fdc1e 	bne	r2,zero,1812804 <altera_avalon_lcd_16207_write+0x408>
   * (because active was set when the timer interrupt occurred).  If there
   * has been a missed repaint then paint again.  And again.  etc.
   */
  for ( ; ; )
  {
    int old_scrollpos = sp->scrollpos;
 1812894:	e0bffc17 	ldw	r2,-16(fp)
 1812898:	10800943 	ldbu	r2,37(r2)
 181289c:	10803fcc 	andi	r2,r2,255
 18128a0:	1080201c 	xori	r2,r2,128
 18128a4:	10bfe004 	addi	r2,r2,-128
 18128a8:	e0bff515 	stw	r2,-44(fp)

    lcd_repaint_screen(sp);
 18128ac:	e13ffc17 	ldw	r4,-16(fp)
 18128b0:	1811e780 	call	1811e78 <lcd_repaint_screen>

    /* Let the timer routines repaint the display again */
    sp->active = 0;
 18128b4:	e0bffc17 	ldw	r2,-16(fp)
 18128b8:	100009c5 	stb	zero,39(r2)

    /* Have the timer routines tried to scroll while we were painting?
     * If not then we can exit */
    if (sp->scrollpos == old_scrollpos)
 18128bc:	e0bffc17 	ldw	r2,-16(fp)
 18128c0:	10800943 	ldbu	r2,37(r2)
 18128c4:	10c03fcc 	andi	r3,r2,255
 18128c8:	18c0201c 	xori	r3,r3,128
 18128cc:	18ffe004 	addi	r3,r3,-128
 18128d0:	e0bff517 	ldw	r2,-44(fp)
 18128d4:	18800426 	beq	r3,r2,18128e8 <altera_avalon_lcd_16207_write+0x4ec>
      break;

    /* We need to repaint again since the display scrolled while we were
     * painting last time */
    sp->active = 1;
 18128d8:	e0fffc17 	ldw	r3,-16(fp)
 18128dc:	00800044 	movi	r2,1
 18128e0:	188009c5 	stb	r2,39(r3)
  }
 18128e4:	003feb06 	br	1812894 <altera_avalon_lcd_16207_write+0x498>
   * semaphore so that other threads can access the buffer.
   */

  ALT_SEM_POST (sp->write_lock);

  return len;
 18128e8:	e0bffe17 	ldw	r2,-8(fp)
}
 18128ec:	e037883a 	mov	sp,fp
 18128f0:	dfc00117 	ldw	ra,4(sp)
 18128f4:	df000017 	ldw	fp,0(sp)
 18128f8:	dec00204 	addi	sp,sp,8
 18128fc:	f800283a 	ret

01812900 <alt_lcd_16207_timeout>:
/*
 * Timeout routine is called every second
 */

static alt_u32 alt_lcd_16207_timeout(void* context) 
{
 1812900:	defffc04 	addi	sp,sp,-16
 1812904:	dfc00315 	stw	ra,12(sp)
 1812908:	df000215 	stw	fp,8(sp)
 181290c:	df000204 	addi	fp,sp,8
 1812910:	e13fff15 	stw	r4,-4(fp)
  altera_avalon_lcd_16207_state* sp = (altera_avalon_lcd_16207_state*)context;
 1812914:	e0bfff17 	ldw	r2,-4(fp)
 1812918:	e0bffe15 	stw	r2,-8(fp)

  /* Update the scrolling position */
  if (sp->scrollpos + 1 >= sp->scrollmax)
 181291c:	e0bffe17 	ldw	r2,-8(fp)
 1812920:	10800943 	ldbu	r2,37(r2)
 1812924:	10803fcc 	andi	r2,r2,255
 1812928:	1080201c 	xori	r2,r2,128
 181292c:	10bfe004 	addi	r2,r2,-128
 1812930:	10c00044 	addi	r3,r2,1
 1812934:	e0bffe17 	ldw	r2,-8(fp)
 1812938:	10800983 	ldbu	r2,38(r2)
 181293c:	10803fcc 	andi	r2,r2,255
 1812940:	1080201c 	xori	r2,r2,128
 1812944:	10bfe004 	addi	r2,r2,-128
 1812948:	18800316 	blt	r3,r2,1812958 <alt_lcd_16207_timeout+0x58>
    sp->scrollpos = 0;
 181294c:	e0bffe17 	ldw	r2,-8(fp)
 1812950:	10000945 	stb	zero,37(r2)
 1812954:	00000606 	br	1812970 <alt_lcd_16207_timeout+0x70>
  else
    sp->scrollpos = sp->scrollpos + 1;
 1812958:	e0bffe17 	ldw	r2,-8(fp)
 181295c:	10800943 	ldbu	r2,37(r2)
 1812960:	10800044 	addi	r2,r2,1
 1812964:	1007883a 	mov	r3,r2
 1812968:	e0bffe17 	ldw	r2,-8(fp)
 181296c:	10c00945 	stb	r3,37(r2)

  /* Repaint the panel unless the foreground will do it again soon */
  if (sp->scrollmax > 0 && !sp->active)
 1812970:	e0bffe17 	ldw	r2,-8(fp)
 1812974:	10800983 	ldbu	r2,38(r2)
 1812978:	10803fcc 	andi	r2,r2,255
 181297c:	1080201c 	xori	r2,r2,128
 1812980:	10bfe004 	addi	r2,r2,-128
 1812984:	10800050 	cmplti	r2,r2,1
 1812988:	1000091e 	bne	r2,zero,18129b0 <alt_lcd_16207_timeout+0xb0>
 181298c:	e0bffe17 	ldw	r2,-8(fp)
 1812990:	108009c3 	ldbu	r2,39(r2)
 1812994:	10803fcc 	andi	r2,r2,255
 1812998:	1080201c 	xori	r2,r2,128
 181299c:	10bfe004 	addi	r2,r2,-128
 18129a0:	1004c03a 	cmpne	r2,r2,zero
 18129a4:	1000021e 	bne	r2,zero,18129b0 <alt_lcd_16207_timeout+0xb0>
    lcd_repaint_screen(sp);
 18129a8:	e13ffe17 	ldw	r4,-8(fp)
 18129ac:	1811e780 	call	1811e78 <lcd_repaint_screen>

  return sp->period;
 18129b0:	e0bffe17 	ldw	r2,-8(fp)
 18129b4:	10800717 	ldw	r2,28(r2)
}
 18129b8:	e037883a 	mov	sp,fp
 18129bc:	dfc00117 	ldw	ra,4(sp)
 18129c0:	df000017 	ldw	fp,0(sp)
 18129c4:	dec00204 	addi	sp,sp,8
 18129c8:	f800283a 	ret

018129cc <altera_avalon_lcd_16207_init>:

/*
 * Called at boot time to initialise the LCD driver
 */
void altera_avalon_lcd_16207_init(altera_avalon_lcd_16207_state* sp)
{
 18129cc:	defffc04 	addi	sp,sp,-16
 18129d0:	dfc00315 	stw	ra,12(sp)
 18129d4:	df000215 	stw	fp,8(sp)
 18129d8:	df000204 	addi	fp,sp,8
 18129dc:	e13fff15 	stw	r4,-4(fp)
  unsigned int base = sp->base;
 18129e0:	e0bfff17 	ldw	r2,-4(fp)
 18129e4:	10800017 	ldw	r2,0(r2)
 18129e8:	e0bffe15 	stw	r2,-8(fp)

  /* Mark the device as functional */
  sp->broken = 0;
 18129ec:	e0bfff17 	ldw	r2,-4(fp)
 18129f0:	10000805 	stb	zero,32(r2)
   * the BUSY bit in the status register doesn't work until the display
   * has been reset three times.
   */

  /* Wait for 15 ms then reset */
  usleep(15000);
 18129f4:	010ea604 	movi	r4,15000
 18129f8:	180f1840 	call	180f184 <usleep>
  IOWR_ALTERA_AVALON_LCD_16207_COMMAND(base, LCD_CMD_FUNCTION_SET | LCD_CMD_8BIT);
 18129fc:	e0bffe17 	ldw	r2,-8(fp)
 1812a00:	1007883a 	mov	r3,r2
 1812a04:	00800c04 	movi	r2,48
 1812a08:	18800035 	stwio	r2,0(r3)

  /* Wait for another 4.1ms and reset again */
  usleep(4100);  
 1812a0c:	01040104 	movi	r4,4100
 1812a10:	180f1840 	call	180f184 <usleep>
  IOWR_ALTERA_AVALON_LCD_16207_COMMAND(base, LCD_CMD_FUNCTION_SET | LCD_CMD_8BIT);
 1812a14:	e0bffe17 	ldw	r2,-8(fp)
 1812a18:	1007883a 	mov	r3,r2
 1812a1c:	00800c04 	movi	r2,48
 1812a20:	18800035 	stwio	r2,0(r3)

  /* Wait a further 1 ms and reset a third time */
  usleep(1000);
 1812a24:	0100fa04 	movi	r4,1000
 1812a28:	180f1840 	call	180f184 <usleep>
  IOWR_ALTERA_AVALON_LCD_16207_COMMAND(base, LCD_CMD_FUNCTION_SET | LCD_CMD_8BIT);
 1812a2c:	e0bffe17 	ldw	r2,-8(fp)
 1812a30:	1007883a 	mov	r3,r2
 1812a34:	00800c04 	movi	r2,48
 1812a38:	18800035 	stwio	r2,0(r3)

  /* Setup interface parameters: 8 bit bus, 2 rows, 5x7 font */
  lcd_write_command(sp, LCD_CMD_FUNCTION_SET | LCD_CMD_8BIT | LCD_CMD_TWO_LINE);
 1812a3c:	e13fff17 	ldw	r4,-4(fp)
 1812a40:	01400e04 	movi	r5,56
 1812a44:	1811c280 	call	1811c28 <lcd_write_command>
  
  /* Turn display off */
  lcd_write_command(sp, LCD_CMD_ONOFF);
 1812a48:	e13fff17 	ldw	r4,-4(fp)
 1812a4c:	01400204 	movi	r5,8
 1812a50:	1811c280 	call	1811c28 <lcd_write_command>

  /* Clear display */
  lcd_clear_screen(sp);
 1812a54:	e13fff17 	ldw	r4,-4(fp)
 1812a58:	1811db40 	call	1811db4 <lcd_clear_screen>
  
  /* Set mode: increment after writing, don't shift display */
  lcd_write_command(sp, LCD_CMD_MODES | LCD_CMD_MODE_INC);
 1812a5c:	e13fff17 	ldw	r4,-4(fp)
 1812a60:	01400184 	movi	r5,6
 1812a64:	1811c280 	call	1811c28 <lcd_write_command>

  /* Turn display on */
  lcd_write_command(sp, LCD_CMD_ONOFF | LCD_CMD_ENABLE_DISP);
 1812a68:	e13fff17 	ldw	r4,-4(fp)
 1812a6c:	01400304 	movi	r5,12
 1812a70:	1811c280 	call	1811c28 <lcd_write_command>

  sp->esccount = -1;
 1812a74:	e0ffff17 	ldw	r3,-4(fp)
 1812a78:	00bfffc4 	movi	r2,-1
 1812a7c:	18800905 	stb	r2,36(r3)
  memset(sp->escape, 0, sizeof(sp->escape));
 1812a80:	e0bfff17 	ldw	r2,-4(fp)
 1812a84:	11000a04 	addi	r4,r2,40
 1812a88:	000b883a 	mov	r5,zero
 1812a8c:	01800204 	movi	r6,8
 1812a90:	180bd280 	call	180bd28 <memset>

  sp->scrollpos = 0;
 1812a94:	e0bfff17 	ldw	r2,-4(fp)
 1812a98:	10000945 	stb	zero,37(r2)
  sp->scrollmax = 0;
 1812a9c:	e0bfff17 	ldw	r2,-4(fp)
 1812aa0:	10000985 	stb	zero,38(r2)
  sp->active = 0;
 1812aa4:	e0bfff17 	ldw	r2,-4(fp)
 1812aa8:	100009c5 	stb	zero,39(r2)
 1812aac:	00806074 	movhi	r2,385
 1812ab0:	109ee504 	addi	r2,r2,31636
 1812ab4:	10800017 	ldw	r2,0(r2)
 1812ab8:	1007883a 	mov	r3,r2

  sp->period = alt_ticks_per_second() / 10; /* Call every 100ms */
 1812abc:	00800284 	movi	r2,10
 1812ac0:	1885203a 	divu	r2,r3,r2
 1812ac4:	1007883a 	mov	r3,r2
 1812ac8:	e0bfff17 	ldw	r2,-4(fp)
 1812acc:	10c00715 	stw	r3,28(r2)

  alt_alarm_start(&sp->alarm, sp->period, &alt_lcd_16207_timeout, sp);
 1812ad0:	e0bfff17 	ldw	r2,-4(fp)
 1812ad4:	11000104 	addi	r4,r2,4
 1812ad8:	e0bfff17 	ldw	r2,-4(fp)
 1812adc:	10800717 	ldw	r2,28(r2)
 1812ae0:	100b883a 	mov	r5,r2
 1812ae4:	01806074 	movhi	r6,385
 1812ae8:	318a4004 	addi	r6,r6,10496
 1812aec:	e1ffff17 	ldw	r7,-4(fp)
 1812af0:	18136100 	call	1813610 <alt_alarm_start>
}
 1812af4:	e037883a 	mov	sp,fp
 1812af8:	dfc00117 	ldw	ra,4(sp)
 1812afc:	df000017 	ldw	fp,0(sp)
 1812b00:	dec00204 	addi	sp,sp,8
 1812b04:	f800283a 	ret

01812b08 <altera_avalon_lcd_16207_write_fd>:
extern int altera_avalon_lcd_16207_write(altera_avalon_lcd_16207_state* sp,
  const char* ptr, int count, int flags);

int 
altera_avalon_lcd_16207_write_fd(alt_fd* fd, const char* buffer, int space)
{
 1812b08:	defffa04 	addi	sp,sp,-24
 1812b0c:	dfc00515 	stw	ra,20(sp)
 1812b10:	df000415 	stw	fp,16(sp)
 1812b14:	df000404 	addi	fp,sp,16
 1812b18:	e13ffd15 	stw	r4,-12(fp)
 1812b1c:	e17ffe15 	stw	r5,-8(fp)
 1812b20:	e1bfff15 	stw	r6,-4(fp)
    altera_avalon_lcd_16207_dev* dev = (altera_avalon_lcd_16207_dev*) fd->dev; 
 1812b24:	e0bffd17 	ldw	r2,-12(fp)
 1812b28:	10800017 	ldw	r2,0(r2)
 1812b2c:	e0bffc15 	stw	r2,-16(fp)

    return altera_avalon_lcd_16207_write(&dev->state, buffer, space,
 1812b30:	e0bffc17 	ldw	r2,-16(fp)
 1812b34:	11000a04 	addi	r4,r2,40
 1812b38:	e0bffd17 	ldw	r2,-12(fp)
 1812b3c:	11c00217 	ldw	r7,8(r2)
 1812b40:	e17ffe17 	ldw	r5,-8(fp)
 1812b44:	e1bfff17 	ldw	r6,-4(fp)
 1812b48:	18123fc0 	call	18123fc <altera_avalon_lcd_16207_write>
      fd->fd_flags);
}
 1812b4c:	e037883a 	mov	sp,fp
 1812b50:	dfc00117 	ldw	ra,4(sp)
 1812b54:	df000017 	ldw	fp,0(sp)
 1812b58:	dec00204 	addi	sp,sp,8
 1812b5c:	f800283a 	ret

01812b60 <alt_avalon_timer_sc_irq>:
#ifdef ALT_ENHANCED_INTERRUPT_API_PRESENT
static void alt_avalon_timer_sc_irq (void* base)
#else
static void alt_avalon_timer_sc_irq (void* base, alt_u32 id)
#endif
{
 1812b60:	defffa04 	addi	sp,sp,-24
 1812b64:	dfc00515 	stw	ra,20(sp)
 1812b68:	df000415 	stw	fp,16(sp)
 1812b6c:	df000404 	addi	fp,sp,16
 1812b70:	e13fff15 	stw	r4,-4(fp)
  alt_irq_context cpu_sr;
  
  /* clear the interrupt */
  IOWR_ALTERA_AVALON_TIMER_STATUS (base, 0);
 1812b74:	e0bfff17 	ldw	r2,-4(fp)
 1812b78:	10000035 	stwio	zero,0(r2)
  /* 
   * Dummy read to ensure IRQ is negated before the ISR returns.
   * The control register is read because reading the status
   * register has side-effects per the register map documentation.
   */
  IORD_ALTERA_AVALON_TIMER_CONTROL (base);
 1812b7c:	e0bfff17 	ldw	r2,-4(fp)
 1812b80:	10800104 	addi	r2,r2,4
 1812b84:	10800037 	ldwio	r2,0(r2)
static ALT_INLINE alt_irq_context ALT_ALWAYS_INLINE 
       alt_irq_disable_all (void)
{
  alt_irq_context context;

  NIOS2_READ_STATUS (context);
 1812b88:	0005303a 	rdctl	r2,status
 1812b8c:	e0bffd15 	stw	r2,-12(fp)

  NIOS2_WRITE_STATUS (context & ~NIOS2_STATUS_PIE_MSK);
 1812b90:	e0fffd17 	ldw	r3,-12(fp)
 1812b94:	00bfff84 	movi	r2,-2
 1812b98:	1884703a 	and	r2,r3,r2
 1812b9c:	1001703a 	wrctl	status,r2
  
  return context;
 1812ba0:	e0bffd17 	ldw	r2,-12(fp)

  /* 
   * Notify the system of a clock tick. disable interrupts 
   * during this time to safely support ISR preemption
   */
  cpu_sr = alt_irq_disable_all();
 1812ba4:	e0bffe15 	stw	r2,-8(fp)
  alt_tick ();
 1812ba8:	18143180 	call	1814318 <alt_tick>
 1812bac:	e0bffe17 	ldw	r2,-8(fp)
 1812bb0:	e0bffc15 	stw	r2,-16(fp)
  status &= ~NIOS2_STATUS_PIE_MSK;
  status |= (context & NIOS2_STATUS_PIE_MSK);
  
  NIOS2_WRITE_STATUS (status);
#else
  NIOS2_WRITE_STATUS (context);
 1812bb4:	e0bffc17 	ldw	r2,-16(fp)
 1812bb8:	1001703a 	wrctl	status,r2
  alt_irq_enable_all(cpu_sr);
}
 1812bbc:	e037883a 	mov	sp,fp
 1812bc0:	dfc00117 	ldw	ra,4(sp)
 1812bc4:	df000017 	ldw	fp,0(sp)
 1812bc8:	dec00204 	addi	sp,sp,8
 1812bcc:	f800283a 	ret

01812bd0 <alt_avalon_timer_sc_init>:
 * auto-generated alt_sys_init() function.
 */

void alt_avalon_timer_sc_init (void* base, alt_u32 irq_controller_id, 
                                alt_u32 irq, alt_u32 freq)
{
 1812bd0:	defff804 	addi	sp,sp,-32
 1812bd4:	dfc00715 	stw	ra,28(sp)
 1812bd8:	df000615 	stw	fp,24(sp)
 1812bdc:	df000604 	addi	fp,sp,24
 1812be0:	e13ffc15 	stw	r4,-16(fp)
 1812be4:	e17ffd15 	stw	r5,-12(fp)
 1812be8:	e1bffe15 	stw	r6,-8(fp)
 1812bec:	e1ffff15 	stw	r7,-4(fp)
 1812bf0:	e0bfff17 	ldw	r2,-4(fp)
 1812bf4:	e0bffb15 	stw	r2,-20(fp)
 * in order to initialise the value of the clock frequency.
 */

static ALT_INLINE int ALT_ALWAYS_INLINE alt_sysclk_init (alt_u32 nticks)
{
  if (! _alt_tick_rate)
 1812bf8:	00806074 	movhi	r2,385
 1812bfc:	109ee504 	addi	r2,r2,31636
 1812c00:	10800017 	ldw	r2,0(r2)
 1812c04:	1004c03a 	cmpne	r2,r2,zero
 1812c08:	1000041e 	bne	r2,zero,1812c1c <alt_avalon_timer_sc_init+0x4c>
  {
    _alt_tick_rate = nticks;
 1812c0c:	00c06074 	movhi	r3,385
 1812c10:	18dee504 	addi	r3,r3,31636
 1812c14:	e0bffb17 	ldw	r2,-20(fp)
 1812c18:	18800015 	stw	r2,0(r3)
  
  alt_sysclk_init (freq);
  
  /* set to free running mode */
  
  IOWR_ALTERA_AVALON_TIMER_CONTROL (base, 
 1812c1c:	e0bffc17 	ldw	r2,-16(fp)
 1812c20:	10800104 	addi	r2,r2,4
 1812c24:	1007883a 	mov	r3,r2
 1812c28:	008001c4 	movi	r2,7
 1812c2c:	18800035 	stwio	r2,0(r3)
            ALTERA_AVALON_TIMER_CONTROL_CONT_MSK |
            ALTERA_AVALON_TIMER_CONTROL_START_MSK);

  /* register the interrupt handler, and enable the interrupt */
#ifdef ALT_ENHANCED_INTERRUPT_API_PRESENT
  alt_ic_isr_register(irq_controller_id, irq, alt_avalon_timer_sc_irq, 
 1812c30:	d8000015 	stw	zero,0(sp)
 1812c34:	e13ffd17 	ldw	r4,-12(fp)
 1812c38:	e17ffe17 	ldw	r5,-8(fp)
 1812c3c:	01806074 	movhi	r6,385
 1812c40:	318ad804 	addi	r6,r6,11104
 1812c44:	e1fffc17 	ldw	r7,-16(fp)
 1812c48:	1813bb40 	call	1813bb4 <alt_ic_isr_register>
                      base, NULL);
#else
  alt_irq_register (irq, base, alt_avalon_timer_sc_irq);
#endif  
}
 1812c4c:	e037883a 	mov	sp,fp
 1812c50:	dfc00117 	ldw	ra,4(sp)
 1812c54:	df000017 	ldw	fp,0(sp)
 1812c58:	dec00204 	addi	sp,sp,8
 1812c5c:	f800283a 	ret

01812c60 <altera_avalon_uart_read_fd>:
 *
 */

int 
altera_avalon_uart_read_fd(alt_fd* fd, char* buffer, int space)
{
 1812c60:	defffa04 	addi	sp,sp,-24
 1812c64:	dfc00515 	stw	ra,20(sp)
 1812c68:	df000415 	stw	fp,16(sp)
 1812c6c:	df000404 	addi	fp,sp,16
 1812c70:	e13ffd15 	stw	r4,-12(fp)
 1812c74:	e17ffe15 	stw	r5,-8(fp)
 1812c78:	e1bfff15 	stw	r6,-4(fp)
    altera_avalon_uart_dev* dev = (altera_avalon_uart_dev*) fd->dev; 
 1812c7c:	e0bffd17 	ldw	r2,-12(fp)
 1812c80:	10800017 	ldw	r2,0(r2)
 1812c84:	e0bffc15 	stw	r2,-16(fp)

    return altera_avalon_uart_read(&dev->state, buffer, space,
 1812c88:	e0bffc17 	ldw	r2,-16(fp)
 1812c8c:	11000a04 	addi	r4,r2,40
 1812c90:	e0bffd17 	ldw	r2,-12(fp)
 1812c94:	11c00217 	ldw	r7,8(r2)
 1812c98:	e17ffe17 	ldw	r5,-8(fp)
 1812c9c:	e1bfff17 	ldw	r6,-4(fp)
 1812ca0:	18131580 	call	1813158 <altera_avalon_uart_read>
      fd->fd_flags);
}
 1812ca4:	e037883a 	mov	sp,fp
 1812ca8:	dfc00117 	ldw	ra,4(sp)
 1812cac:	df000017 	ldw	fp,0(sp)
 1812cb0:	dec00204 	addi	sp,sp,8
 1812cb4:	f800283a 	ret

01812cb8 <altera_avalon_uart_write_fd>:

int 
altera_avalon_uart_write_fd(alt_fd* fd, const char* buffer, int space)
{
 1812cb8:	defffa04 	addi	sp,sp,-24
 1812cbc:	dfc00515 	stw	ra,20(sp)
 1812cc0:	df000415 	stw	fp,16(sp)
 1812cc4:	df000404 	addi	fp,sp,16
 1812cc8:	e13ffd15 	stw	r4,-12(fp)
 1812ccc:	e17ffe15 	stw	r5,-8(fp)
 1812cd0:	e1bfff15 	stw	r6,-4(fp)
    altera_avalon_uart_dev* dev = (altera_avalon_uart_dev*) fd->dev; 
 1812cd4:	e0bffd17 	ldw	r2,-12(fp)
 1812cd8:	10800017 	ldw	r2,0(r2)
 1812cdc:	e0bffc15 	stw	r2,-16(fp)

    return altera_avalon_uart_write(&dev->state, buffer, space,
 1812ce0:	e0bffc17 	ldw	r2,-16(fp)
 1812ce4:	11000a04 	addi	r4,r2,40
 1812ce8:	e0bffd17 	ldw	r2,-12(fp)
 1812cec:	11c00217 	ldw	r7,8(r2)
 1812cf0:	e17ffe17 	ldw	r5,-8(fp)
 1812cf4:	e1bfff17 	ldw	r6,-4(fp)
 1812cf8:	18133e80 	call	18133e8 <altera_avalon_uart_write>
      fd->fd_flags);
}
 1812cfc:	e037883a 	mov	sp,fp
 1812d00:	dfc00117 	ldw	ra,4(sp)
 1812d04:	df000017 	ldw	fp,0(sp)
 1812d08:	dec00204 	addi	sp,sp,8
 1812d0c:	f800283a 	ret

01812d10 <altera_avalon_uart_close_fd>:

#endif /* ALTERA_AVALON_UART_USE_IOCTL */

int 
altera_avalon_uart_close_fd(alt_fd* fd)
{
 1812d10:	defffc04 	addi	sp,sp,-16
 1812d14:	dfc00315 	stw	ra,12(sp)
 1812d18:	df000215 	stw	fp,8(sp)
 1812d1c:	df000204 	addi	fp,sp,8
 1812d20:	e13fff15 	stw	r4,-4(fp)
    altera_avalon_uart_dev* dev = (altera_avalon_uart_dev*) fd->dev; 
 1812d24:	e0bfff17 	ldw	r2,-4(fp)
 1812d28:	10800017 	ldw	r2,0(r2)
 1812d2c:	e0bffe15 	stw	r2,-8(fp)

    return altera_avalon_uart_close(&dev->state, fd->fd_flags);
 1812d30:	e0bffe17 	ldw	r2,-8(fp)
 1812d34:	11000a04 	addi	r4,r2,40
 1812d38:	e0bfff17 	ldw	r2,-4(fp)
 1812d3c:	11400217 	ldw	r5,8(r2)
 1812d40:	18130f80 	call	18130f8 <altera_avalon_uart_close>
}
 1812d44:	e037883a 	mov	sp,fp
 1812d48:	dfc00117 	ldw	ra,4(sp)
 1812d4c:	df000017 	ldw	fp,0(sp)
 1812d50:	dec00204 	addi	sp,sp,8
 1812d54:	f800283a 	ret

01812d58 <altera_avalon_uart_init>:
  alt_u32 status);

void 
altera_avalon_uart_init(altera_avalon_uart_state* sp, 
  alt_u32 irq_controller_id,  alt_u32 irq)
{
 1812d58:	defff704 	addi	sp,sp,-36
 1812d5c:	dfc00815 	stw	ra,32(sp)
 1812d60:	df000715 	stw	fp,28(sp)
 1812d64:	df000704 	addi	fp,sp,28
 1812d68:	e13ffc15 	stw	r4,-16(fp)
 1812d6c:	e17ffd15 	stw	r5,-12(fp)
 1812d70:	e1bffe15 	stw	r6,-8(fp)
  void* base = sp->base;
 1812d74:	e0bffc17 	ldw	r2,-16(fp)
 1812d78:	10800017 	ldw	r2,0(r2)
 1812d7c:	e0bffb15 	stw	r2,-20(fp)
 * HAL.
 */

static ALT_INLINE int ALT_ALWAYS_INLINE alt_no_error (void)
{
  return 0;
 1812d80:	0005883a 	mov	r2,zero
  /* 
   * Initialise the read and write flags and the semaphores used to 
   * protect access to the circular buffers when running in a multi-threaded
   * environment.
   */
  error = ALT_FLAG_CREATE (&sp->events, 0)    || 
 1812d84:	1004c03a 	cmpne	r2,r2,zero
 1812d88:	1000061e 	bne	r2,zero,1812da4 <altera_avalon_uart_init+0x4c>
 1812d8c:	0005883a 	mov	r2,zero
 1812d90:	1004c03a 	cmpne	r2,r2,zero
 1812d94:	1000031e 	bne	r2,zero,1812da4 <altera_avalon_uart_init+0x4c>
 1812d98:	0005883a 	mov	r2,zero
 1812d9c:	1005003a 	cmpeq	r2,r2,zero
 1812da0:	1000031e 	bne	r2,zero,1812db0 <altera_avalon_uart_init+0x58>
 1812da4:	00800044 	movi	r2,1
 1812da8:	e0bfff15 	stw	r2,-4(fp)
 1812dac:	00000106 	br	1812db4 <altera_avalon_uart_init+0x5c>
 1812db0:	e03fff15 	stw	zero,-4(fp)
 1812db4:	e0bfff17 	ldw	r2,-4(fp)
 1812db8:	e0bffa15 	stw	r2,-24(fp)
          ALT_SEM_CREATE (&sp->read_lock, 1)  ||
          ALT_SEM_CREATE (&sp->write_lock, 1);

  if (!error)
 1812dbc:	e0bffa17 	ldw	r2,-24(fp)
 1812dc0:	1004c03a 	cmpne	r2,r2,zero
 1812dc4:	1000111e 	bne	r2,zero,1812e0c <altera_avalon_uart_init+0xb4>
  {
    /* enable interrupts at the device */
    sp->ctrl = ALTERA_AVALON_UART_CONTROL_RTS_MSK  |
 1812dc8:	e0fffc17 	ldw	r3,-16(fp)
 1812dcc:	00832004 	movi	r2,3200
 1812dd0:	18800115 	stw	r2,4(r3)
                ALTERA_AVALON_UART_CONTROL_RRDY_MSK |
                ALTERA_AVALON_UART_CONTROL_DCTS_MSK;

    IOWR_ALTERA_AVALON_UART_CONTROL(base, sp->ctrl); 
 1812dd4:	e0bffb17 	ldw	r2,-20(fp)
 1812dd8:	11000304 	addi	r4,r2,12
 1812ddc:	e0bffc17 	ldw	r2,-16(fp)
 1812de0:	10800117 	ldw	r2,4(r2)
 1812de4:	1007883a 	mov	r3,r2
 1812de8:	2005883a 	mov	r2,r4
 1812dec:	10c00035 	stwio	r3,0(r2)
  
    /* register the interrupt handler */
#ifdef ALT_ENHANCED_INTERRUPT_API_PRESENT
    alt_ic_isr_register(irq_controller_id, irq, altera_avalon_uart_irq, sp, 
 1812df0:	d8000015 	stw	zero,0(sp)
 1812df4:	e13ffd17 	ldw	r4,-12(fp)
 1812df8:	e17ffe17 	ldw	r5,-8(fp)
 1812dfc:	01806074 	movhi	r6,385
 1812e00:	318b8804 	addi	r6,r6,11808
 1812e04:	e1fffc17 	ldw	r7,-16(fp)
 1812e08:	1813bb40 	call	1813bb4 <alt_ic_isr_register>
      0x0);
#else
    alt_irq_register (irq, sp, altera_avalon_uart_irq);
#endif  
  }
}
 1812e0c:	e037883a 	mov	sp,fp
 1812e10:	dfc00117 	ldw	ra,4(sp)
 1812e14:	df000017 	ldw	fp,0(sp)
 1812e18:	dec00204 	addi	sp,sp,8
 1812e1c:	f800283a 	ret

01812e20 <altera_avalon_uart_irq>:
#ifdef ALT_ENHANCED_INTERRUPT_API_PRESENT
static void altera_avalon_uart_irq(void* context)
#else
static void altera_avalon_uart_irq(void* context, alt_u32 id)
#endif
{
 1812e20:	defffa04 	addi	sp,sp,-24
 1812e24:	dfc00515 	stw	ra,20(sp)
 1812e28:	df000415 	stw	fp,16(sp)
 1812e2c:	df000404 	addi	fp,sp,16
 1812e30:	e13fff15 	stw	r4,-4(fp)
  alt_u32 status;

  altera_avalon_uart_state* sp = (altera_avalon_uart_state*) context;
 1812e34:	e0bfff17 	ldw	r2,-4(fp)
 1812e38:	e0bffd15 	stw	r2,-12(fp)
  void* base               = sp->base;
 1812e3c:	e0bffd17 	ldw	r2,-12(fp)
 1812e40:	10800017 	ldw	r2,0(r2)
 1812e44:	e0bffc15 	stw	r2,-16(fp)
  /*
   * Read the status register in order to determine the cause of the
   * interrupt.
   */

  status = IORD_ALTERA_AVALON_UART_STATUS(base);
 1812e48:	e0bffc17 	ldw	r2,-16(fp)
 1812e4c:	10800204 	addi	r2,r2,8
 1812e50:	10800037 	ldwio	r2,0(r2)
 1812e54:	e0bffe15 	stw	r2,-8(fp)

  /* Clear any error flags set at the device */
  IOWR_ALTERA_AVALON_UART_STATUS(base, 0);
 1812e58:	e0bffc17 	ldw	r2,-16(fp)
 1812e5c:	10800204 	addi	r2,r2,8
 1812e60:	10000035 	stwio	zero,0(r2)

  /* Dummy read to ensure IRQ is negated before ISR returns */
  IORD_ALTERA_AVALON_UART_STATUS(base);
 1812e64:	e0bffc17 	ldw	r2,-16(fp)
 1812e68:	10800204 	addi	r2,r2,8
 1812e6c:	10800037 	ldwio	r2,0(r2)
  
  /* process a read irq */
  if (status & ALTERA_AVALON_UART_STATUS_RRDY_MSK)
 1812e70:	e0bffe17 	ldw	r2,-8(fp)
 1812e74:	1080200c 	andi	r2,r2,128
 1812e78:	1005003a 	cmpeq	r2,r2,zero
 1812e7c:	1000031e 	bne	r2,zero,1812e8c <altera_avalon_uart_irq+0x6c>
  {
    altera_avalon_uart_rxirq(sp, status);
 1812e80:	e13ffd17 	ldw	r4,-12(fp)
 1812e84:	e17ffe17 	ldw	r5,-8(fp)
 1812e88:	1812ebc0 	call	1812ebc <altera_avalon_uart_rxirq>
  }

  /* process a write irq */
  if (status & (ALTERA_AVALON_UART_STATUS_TRDY_MSK | 
 1812e8c:	e0bffe17 	ldw	r2,-8(fp)
 1812e90:	1081100c 	andi	r2,r2,1088
 1812e94:	1005003a 	cmpeq	r2,r2,zero
 1812e98:	1000031e 	bne	r2,zero,1812ea8 <altera_avalon_uart_irq+0x88>
                  ALTERA_AVALON_UART_STATUS_DCTS_MSK))
  {
    altera_avalon_uart_txirq(sp, status);
 1812e9c:	e13ffd17 	ldw	r4,-12(fp)
 1812ea0:	e17ffe17 	ldw	r5,-8(fp)
 1812ea4:	1812f9c0 	call	1812f9c <altera_avalon_uart_txirq>
  }
  

}
 1812ea8:	e037883a 	mov	sp,fp
 1812eac:	dfc00117 	ldw	ra,4(sp)
 1812eb0:	df000017 	ldw	fp,0(sp)
 1812eb4:	dec00204 	addi	sp,sp,8
 1812eb8:	f800283a 	ret

01812ebc <altera_avalon_uart_rxirq>:
 * the receive circular buffer, and sets the apropriate flags to indicate 
 * that there is data ready to be processed.
 */
static void 
altera_avalon_uart_rxirq(altera_avalon_uart_state* sp, alt_u32 status)
{
 1812ebc:	defffc04 	addi	sp,sp,-16
 1812ec0:	df000315 	stw	fp,12(sp)
 1812ec4:	df000304 	addi	fp,sp,12
 1812ec8:	e13ffe15 	stw	r4,-8(fp)
 1812ecc:	e17fff15 	stw	r5,-4(fp)
  alt_u32 next;
  
  /* If there was an error, discard the data */

  if (status & (ALTERA_AVALON_UART_STATUS_PE_MSK | 
 1812ed0:	e0bfff17 	ldw	r2,-4(fp)
 1812ed4:	108000cc 	andi	r2,r2,3
 1812ed8:	1004c03a 	cmpne	r2,r2,zero
 1812edc:	10002b1e 	bne	r2,zero,1812f8c <altera_avalon_uart_rxirq+0xd0>
   * In a multi-threaded environment, set the read event flag to indicate
   * that there is data ready. This is only done if the circular buffer was
   * previously empty.
   */

  if (sp->rx_end == sp->rx_start)
 1812ee0:	e0bffe17 	ldw	r2,-8(fp)
 1812ee4:	10800317 	ldw	r2,12(r2)
    ALT_FLAG_POST (sp->events, ALT_UART_READ_RDY, OS_FLAG_SET);
  }

  /* Determine which slot to use next in the circular buffer */

  next = (sp->rx_end + 1) & ALT_AVALON_UART_BUF_MSK;
 1812ee8:	e0bffe17 	ldw	r2,-8(fp)
 1812eec:	10800317 	ldw	r2,12(r2)
 1812ef0:	10800044 	addi	r2,r2,1
 1812ef4:	10800fcc 	andi	r2,r2,63
 1812ef8:	e0bffd15 	stw	r2,-12(fp)

  /* Transfer data from the device to the circular buffer */

  sp->rx_buf[sp->rx_end] = IORD_ALTERA_AVALON_UART_RXDATA(sp->base);
 1812efc:	e0bffe17 	ldw	r2,-8(fp)
 1812f00:	11000317 	ldw	r4,12(r2)
 1812f04:	e0bffe17 	ldw	r2,-8(fp)
 1812f08:	10800017 	ldw	r2,0(r2)
 1812f0c:	10800037 	ldwio	r2,0(r2)
 1812f10:	1007883a 	mov	r3,r2
 1812f14:	e0bffe17 	ldw	r2,-8(fp)
 1812f18:	2085883a 	add	r2,r4,r2
 1812f1c:	10800704 	addi	r2,r2,28
 1812f20:	10c00005 	stb	r3,0(r2)

  sp->rx_end = next;
 1812f24:	e0fffe17 	ldw	r3,-8(fp)
 1812f28:	e0bffd17 	ldw	r2,-12(fp)
 1812f2c:	18800315 	stw	r2,12(r3)

  next = (sp->rx_end + 1) & ALT_AVALON_UART_BUF_MSK;
 1812f30:	e0bffe17 	ldw	r2,-8(fp)
 1812f34:	10800317 	ldw	r2,12(r2)
 1812f38:	10800044 	addi	r2,r2,1
 1812f3c:	10800fcc 	andi	r2,r2,63
 1812f40:	e0bffd15 	stw	r2,-12(fp)
  /*
   * If the cicular buffer was full, disable interrupts. Interrupts will be
   * re-enabled when data is removed from the buffer.
   */

  if (next == sp->rx_start)
 1812f44:	e0bffe17 	ldw	r2,-8(fp)
 1812f48:	10c00217 	ldw	r3,8(r2)
 1812f4c:	e0bffd17 	ldw	r2,-12(fp)
 1812f50:	18800e1e 	bne	r3,r2,1812f8c <altera_avalon_uart_rxirq+0xd0>
  {
    sp->ctrl &= ~ALTERA_AVALON_UART_CONTROL_RRDY_MSK;
 1812f54:	e0bffe17 	ldw	r2,-8(fp)
 1812f58:	10c00117 	ldw	r3,4(r2)
 1812f5c:	00bfdfc4 	movi	r2,-129
 1812f60:	1886703a 	and	r3,r3,r2
 1812f64:	e0bffe17 	ldw	r2,-8(fp)
 1812f68:	10c00115 	stw	r3,4(r2)
    IOWR_ALTERA_AVALON_UART_CONTROL(sp->base, sp->ctrl); 
 1812f6c:	e0bffe17 	ldw	r2,-8(fp)
 1812f70:	10800017 	ldw	r2,0(r2)
 1812f74:	11000304 	addi	r4,r2,12
 1812f78:	e0bffe17 	ldw	r2,-8(fp)
 1812f7c:	10800117 	ldw	r2,4(r2)
 1812f80:	1007883a 	mov	r3,r2
 1812f84:	2005883a 	mov	r2,r4
 1812f88:	10c00035 	stwio	r3,0(r2)
  }   
}
 1812f8c:	e037883a 	mov	sp,fp
 1812f90:	df000017 	ldw	fp,0(sp)
 1812f94:	dec00104 	addi	sp,sp,4
 1812f98:	f800283a 	ret

01812f9c <altera_avalon_uart_txirq>:
 * buffer to the device, and sets the apropriate flags to indicate that 
 * there is data ready to be processed.
 */
static void 
altera_avalon_uart_txirq(altera_avalon_uart_state* sp, alt_u32 status)
{
 1812f9c:	defffd04 	addi	sp,sp,-12
 1812fa0:	df000215 	stw	fp,8(sp)
 1812fa4:	df000204 	addi	fp,sp,8
 1812fa8:	e13ffe15 	stw	r4,-8(fp)
 1812fac:	e17fff15 	stw	r5,-4(fp)
  /* Transfer data if there is some ready to be transfered */

  if (sp->tx_start != sp->tx_end)
 1812fb0:	e0bffe17 	ldw	r2,-8(fp)
 1812fb4:	10c00417 	ldw	r3,16(r2)
 1812fb8:	e0bffe17 	ldw	r2,-8(fp)
 1812fbc:	10800517 	ldw	r2,20(r2)
 1812fc0:	18803626 	beq	r3,r2,181309c <altera_avalon_uart_txirq+0x100>
    /* 
     * If the device is using flow control (i.e. RTS/CTS), then the
     * transmitter is required to throttle if CTS is high.
     */

    if (!(sp->flags & ALT_AVALON_UART_FC) ||
 1812fc4:	e0bffe17 	ldw	r2,-8(fp)
 1812fc8:	10800617 	ldw	r2,24(r2)
 1812fcc:	1080008c 	andi	r2,r2,2
 1812fd0:	1005003a 	cmpeq	r2,r2,zero
 1812fd4:	1000041e 	bne	r2,zero,1812fe8 <altera_avalon_uart_txirq+0x4c>
 1812fd8:	e0bfff17 	ldw	r2,-4(fp)
 1812fdc:	1082000c 	andi	r2,r2,2048
 1812fe0:	1005003a 	cmpeq	r2,r2,zero
 1812fe4:	10001e1e 	bne	r2,zero,1813060 <altera_avalon_uart_txirq+0xc4>
       * In a multi-threaded environment, set the write event flag to indicate
       * that there is space in the circular buffer. This is only done if the
       * buffer was previously empty.
       */

      if (sp->tx_start == ((sp->tx_end + 1) & ALT_AVALON_UART_BUF_MSK))
 1812fe8:	e0bffe17 	ldw	r2,-8(fp)
 1812fec:	10800417 	ldw	r2,16(r2)
                       OS_FLAG_SET);
      }

      /* Write the data to the device */

      IOWR_ALTERA_AVALON_UART_TXDATA(sp->base, sp->tx_buf[sp->tx_start]);
 1812ff0:	e0bffe17 	ldw	r2,-8(fp)
 1812ff4:	10800017 	ldw	r2,0(r2)
 1812ff8:	11000104 	addi	r4,r2,4
 1812ffc:	e0bffe17 	ldw	r2,-8(fp)
 1813000:	10c00417 	ldw	r3,16(r2)
 1813004:	e0bffe17 	ldw	r2,-8(fp)
 1813008:	1885883a 	add	r2,r3,r2
 181300c:	10801704 	addi	r2,r2,92
 1813010:	10800003 	ldbu	r2,0(r2)
 1813014:	10c03fcc 	andi	r3,r2,255
 1813018:	2005883a 	mov	r2,r4
 181301c:	10c00035 	stwio	r3,0(r2)

      sp->tx_start = (++sp->tx_start) & ALT_AVALON_UART_BUF_MSK;
 1813020:	e0bffe17 	ldw	r2,-8(fp)
 1813024:	10800417 	ldw	r2,16(r2)
 1813028:	10c00044 	addi	r3,r2,1
 181302c:	e0bffe17 	ldw	r2,-8(fp)
 1813030:	10c00415 	stw	r3,16(r2)
 1813034:	e0bffe17 	ldw	r2,-8(fp)
 1813038:	10800417 	ldw	r2,16(r2)
 181303c:	10c00fcc 	andi	r3,r2,63
 1813040:	e0bffe17 	ldw	r2,-8(fp)
 1813044:	10c00415 	stw	r3,16(r2)
      /*
       * In case the tranmit interrupt had previously been disabled by 
       * detecting a low value on CTS, it is reenabled here.
       */ 

      sp->ctrl |= ALTERA_AVALON_UART_CONTROL_TRDY_MSK;
 1813048:	e0bffe17 	ldw	r2,-8(fp)
 181304c:	10800117 	ldw	r2,4(r2)
 1813050:	10c01014 	ori	r3,r2,64
 1813054:	e0bffe17 	ldw	r2,-8(fp)
 1813058:	10c00115 	stw	r3,4(r2)
    /* 
     * If the device is using flow control (i.e. RTS/CTS), then the
     * transmitter is required to throttle if CTS is high.
     */

    if (!(sp->flags & ALT_AVALON_UART_FC) ||
 181305c:	00000f06 	br	181309c <altera_avalon_uart_txirq+0x100>
       * the last write to the status register. To avoid this resulting in
       * deadlock, it's necessary to re-check the status register here
       * before throttling.
       */
 
      status = IORD_ALTERA_AVALON_UART_STATUS(sp->base); 
 1813060:	e0bffe17 	ldw	r2,-8(fp)
 1813064:	10800017 	ldw	r2,0(r2)
 1813068:	10800204 	addi	r2,r2,8
 181306c:	10800037 	ldwio	r2,0(r2)
 1813070:	e0bfff15 	stw	r2,-4(fp)

      if (!(status & ALTERA_AVALON_UART_STATUS_CTS_MSK))
 1813074:	e0bfff17 	ldw	r2,-4(fp)
 1813078:	1082000c 	andi	r2,r2,2048
 181307c:	1004c03a 	cmpne	r2,r2,zero
 1813080:	1000061e 	bne	r2,zero,181309c <altera_avalon_uart_txirq+0x100>
      {
        sp->ctrl &= ~ALTERA_AVALON_UART_CONTROL_TRDY_MSK;
 1813084:	e0bffe17 	ldw	r2,-8(fp)
 1813088:	10c00117 	ldw	r3,4(r2)
 181308c:	00bfefc4 	movi	r2,-65
 1813090:	1886703a 	and	r3,r3,r2
 1813094:	e0bffe17 	ldw	r2,-8(fp)
 1813098:	10c00115 	stw	r3,4(r2)
  /*
   * If the circular buffer is empty, disable the interrupt. This will be
   * re-enabled when new data is placed in the buffer.
   */

  if (sp->tx_start == sp->tx_end)
 181309c:	e0bffe17 	ldw	r2,-8(fp)
 18130a0:	10c00417 	ldw	r3,16(r2)
 18130a4:	e0bffe17 	ldw	r2,-8(fp)
 18130a8:	10800517 	ldw	r2,20(r2)
 18130ac:	1880061e 	bne	r3,r2,18130c8 <altera_avalon_uart_txirq+0x12c>
  {
    sp->ctrl &= ~(ALTERA_AVALON_UART_CONTROL_TRDY_MSK |
 18130b0:	e0bffe17 	ldw	r2,-8(fp)
 18130b4:	10c00117 	ldw	r3,4(r2)
 18130b8:	00beefc4 	movi	r2,-1089
 18130bc:	1886703a 	and	r3,r3,r2
 18130c0:	e0bffe17 	ldw	r2,-8(fp)
 18130c4:	10c00115 	stw	r3,4(r2)
                    ALTERA_AVALON_UART_CONTROL_DCTS_MSK);
  }

  IOWR_ALTERA_AVALON_UART_CONTROL(sp->base, sp->ctrl);
 18130c8:	e0bffe17 	ldw	r2,-8(fp)
 18130cc:	10800017 	ldw	r2,0(r2)
 18130d0:	11000304 	addi	r4,r2,12
 18130d4:	e0bffe17 	ldw	r2,-8(fp)
 18130d8:	10800117 	ldw	r2,4(r2)
 18130dc:	1007883a 	mov	r3,r2
 18130e0:	2005883a 	mov	r2,r4
 18130e4:	10c00035 	stwio	r3,0(r2)
}
 18130e8:	e037883a 	mov	sp,fp
 18130ec:	df000017 	ldw	fp,0(sp)
 18130f0:	dec00104 	addi	sp,sp,4
 18130f4:	f800283a 	ret

018130f8 <altera_avalon_uart_close>:
 * The close routine is not implemented for the small driver; instead it will
 * map to null. This is because the small driver simply waits while characters
 * are transmitted; there is no interrupt-serviced buffer to empty 
 */
int altera_avalon_uart_close(altera_avalon_uart_state* sp, int flags)
{
 18130f8:	defffc04 	addi	sp,sp,-16
 18130fc:	df000315 	stw	fp,12(sp)
 1813100:	df000304 	addi	fp,sp,12
 1813104:	e13ffd15 	stw	r4,-12(fp)
 1813108:	e17ffe15 	stw	r5,-8(fp)
  /* 
   * Wait for all transmit data to be emptied by the UART ISR.
   */
  while (sp->tx_start != sp->tx_end) {
 181310c:	00000706 	br	181312c <altera_avalon_uart_close+0x34>
    if (flags & O_NONBLOCK) {
 1813110:	e0bffe17 	ldw	r2,-8(fp)
 1813114:	1090000c 	andi	r2,r2,16384
 1813118:	1005003a 	cmpeq	r2,r2,zero
 181311c:	1000031e 	bne	r2,zero,181312c <altera_avalon_uart_close+0x34>
      return -EWOULDBLOCK; 
 1813120:	00bffd44 	movi	r2,-11
 1813124:	e0bfff15 	stw	r2,-4(fp)
 1813128:	00000606 	br	1813144 <altera_avalon_uart_close+0x4c>
int altera_avalon_uart_close(altera_avalon_uart_state* sp, int flags)
{
  /* 
   * Wait for all transmit data to be emptied by the UART ISR.
   */
  while (sp->tx_start != sp->tx_end) {
 181312c:	e0bffd17 	ldw	r2,-12(fp)
 1813130:	10c00417 	ldw	r3,16(r2)
 1813134:	e0bffd17 	ldw	r2,-12(fp)
 1813138:	10800517 	ldw	r2,20(r2)
 181313c:	18bff41e 	bne	r3,r2,1813110 <altera_avalon_uart_close+0x18>
    if (flags & O_NONBLOCK) {
      return -EWOULDBLOCK; 
    }
  }

  return 0;
 1813140:	e03fff15 	stw	zero,-4(fp)
 1813144:	e0bfff17 	ldw	r2,-4(fp)
}
 1813148:	e037883a 	mov	sp,fp
 181314c:	df000017 	ldw	fp,0(sp)
 1813150:	dec00104 	addi	sp,sp,4
 1813154:	f800283a 	ret

01813158 <altera_avalon_uart_read>:
 */

int 
altera_avalon_uart_read(altera_avalon_uart_state* sp, char* ptr, int len,
  int flags)
{
 1813158:	defff004 	addi	sp,sp,-64
 181315c:	dfc00f15 	stw	ra,60(sp)
 1813160:	df000e15 	stw	fp,56(sp)
 1813164:	df000e04 	addi	fp,sp,56
 1813168:	e13ffb15 	stw	r4,-20(fp)
 181316c:	e17ffc15 	stw	r5,-16(fp)
 1813170:	e1bffd15 	stw	r6,-12(fp)
 1813174:	e1fffe15 	stw	r7,-8(fp)
  alt_irq_context context;
  int             block;
  alt_u32         next;
  alt_u8          read_would_block = 0;
 1813178:	e03ff705 	stb	zero,-36(fp)
  int             count = 0;
 181317c:	e03ff615 	stw	zero,-40(fp)
  /* 
   * Construct a flag to indicate whether the device is being accessed in
   * blocking or non-blocking mode.
   */

  block = !(flags & O_NONBLOCK);
 1813180:	e0bffe17 	ldw	r2,-8(fp)
 1813184:	1090000c 	andi	r2,r2,16384
 1813188:	1005003a 	cmpeq	r2,r2,zero
 181318c:	e0bff915 	stw	r2,-28(fp)
  /*
   * Calculate which slot in the circular buffer is the next one to read
   * data from.
   */

  next = (sp->rx_start + 1) & ALT_AVALON_UART_BUF_MSK;
 1813190:	e0bffb17 	ldw	r2,-20(fp)
 1813194:	10800217 	ldw	r2,8(r2)
 1813198:	10800044 	addi	r2,r2,1
 181319c:	10800fcc 	andi	r2,r2,63
 18131a0:	e0bff815 	stw	r2,-32(fp)
    /*
     * Read the required amount of data, until the circular buffer runs
     * empty
     */

    while ((count < len) && (sp->rx_start != sp->rx_end))
 18131a4:	00001906 	br	181320c <altera_avalon_uart_read+0xb4>
    {
      count++;
 18131a8:	e0bff617 	ldw	r2,-40(fp)
 18131ac:	10800044 	addi	r2,r2,1
 18131b0:	e0bff615 	stw	r2,-40(fp)
      *ptr++ = sp->rx_buf[sp->rx_start];
 18131b4:	e0bffb17 	ldw	r2,-20(fp)
 18131b8:	10c00217 	ldw	r3,8(r2)
 18131bc:	e0bffb17 	ldw	r2,-20(fp)
 18131c0:	1885883a 	add	r2,r3,r2
 18131c4:	10800704 	addi	r2,r2,28
 18131c8:	10800003 	ldbu	r2,0(r2)
 18131cc:	1007883a 	mov	r3,r2
 18131d0:	e0bffc17 	ldw	r2,-16(fp)
 18131d4:	10c00005 	stb	r3,0(r2)
 18131d8:	e0bffc17 	ldw	r2,-16(fp)
 18131dc:	10800044 	addi	r2,r2,1
 18131e0:	e0bffc15 	stw	r2,-16(fp)
      
      sp->rx_start = (++sp->rx_start) & ALT_AVALON_UART_BUF_MSK;
 18131e4:	e0bffb17 	ldw	r2,-20(fp)
 18131e8:	10800217 	ldw	r2,8(r2)
 18131ec:	10c00044 	addi	r3,r2,1
 18131f0:	e0bffb17 	ldw	r2,-20(fp)
 18131f4:	10c00215 	stw	r3,8(r2)
 18131f8:	e0bffb17 	ldw	r2,-20(fp)
 18131fc:	10800217 	ldw	r2,8(r2)
 1813200:	10c00fcc 	andi	r3,r2,63
 1813204:	e0bffb17 	ldw	r2,-20(fp)
 1813208:	10c00215 	stw	r3,8(r2)
    /*
     * Read the required amount of data, until the circular buffer runs
     * empty
     */

    while ((count < len) && (sp->rx_start != sp->rx_end))
 181320c:	e0fff617 	ldw	r3,-40(fp)
 1813210:	e0bffd17 	ldw	r2,-12(fp)
 1813214:	1880050e 	bge	r3,r2,181322c <altera_avalon_uart_read+0xd4>
 1813218:	e0bffb17 	ldw	r2,-20(fp)
 181321c:	10c00217 	ldw	r3,8(r2)
 1813220:	e0bffb17 	ldw	r2,-20(fp)
 1813224:	10800317 	ldw	r2,12(r2)
 1813228:	18bfdf1e 	bne	r3,r2,18131a8 <altera_avalon_uart_read+0x50>
    /*
     * If no data has been transferred, the circular buffer is empty, and
     * this is not a non-blocking access, block waiting for data to arrive.
     */

    if (!count && (sp->rx_start == sp->rx_end))
 181322c:	e0bff617 	ldw	r2,-40(fp)
 1813230:	1004c03a 	cmpne	r2,r2,zero
 1813234:	1000271e 	bne	r2,zero,18132d4 <altera_avalon_uart_read+0x17c>
 1813238:	e0bffb17 	ldw	r2,-20(fp)
 181323c:	10c00217 	ldw	r3,8(r2)
 1813240:	e0bffb17 	ldw	r2,-20(fp)
 1813244:	10800317 	ldw	r2,12(r2)
 1813248:	1880221e 	bne	r3,r2,18132d4 <altera_avalon_uart_read+0x17c>
    {
      if (!block)
 181324c:	e0bff917 	ldw	r2,-28(fp)
 1813250:	1004c03a 	cmpne	r2,r2,zero
 1813254:	1000061e 	bne	r2,zero,1813270 <altera_avalon_uart_read+0x118>
      {
        /* Set errno to indicate the reason we're not returning any data */

        ALT_ERRNO = EWOULDBLOCK;
 1813258:	18133880 	call	1813388 <alt_get_errno>
 181325c:	00c002c4 	movi	r3,11
 1813260:	10c00015 	stw	r3,0(r2)
        read_would_block = 1;
 1813264:	00800044 	movi	r2,1
 1813268:	e0bff705 	stb	r2,-36(fp)
        break;
 181326c:	00001f06 	br	18132ec <altera_avalon_uart_read+0x194>
static ALT_INLINE alt_irq_context ALT_ALWAYS_INLINE 
       alt_irq_disable_all (void)
{
  alt_irq_context context;

  NIOS2_READ_STATUS (context);
 1813270:	0005303a 	rdctl	r2,status
 1813274:	e0bff515 	stw	r2,-44(fp)

  NIOS2_WRITE_STATUS (context & ~NIOS2_STATUS_PIE_MSK);
 1813278:	e0fff517 	ldw	r3,-44(fp)
 181327c:	00bfff84 	movi	r2,-2
 1813280:	1884703a 	and	r2,r3,r2
 1813284:	1001703a 	wrctl	status,r2
  
  return context;
 1813288:	e0bff517 	ldw	r2,-44(fp)
      {
       /* Block waiting for some data to arrive */

       /* First, ensure read interrupts are enabled to avoid deadlock */

       context = alt_irq_disable_all ();
 181328c:	e0bffa15 	stw	r2,-24(fp)
       sp->ctrl |= ALTERA_AVALON_UART_CONTROL_RRDY_MSK;
 1813290:	e0bffb17 	ldw	r2,-20(fp)
 1813294:	10800117 	ldw	r2,4(r2)
 1813298:	10c02014 	ori	r3,r2,128
 181329c:	e0bffb17 	ldw	r2,-20(fp)
 18132a0:	10c00115 	stw	r3,4(r2)
       IOWR_ALTERA_AVALON_UART_CONTROL(sp->base, sp->ctrl);
 18132a4:	e0bffb17 	ldw	r2,-20(fp)
 18132a8:	10800017 	ldw	r2,0(r2)
 18132ac:	11000304 	addi	r4,r2,12
 18132b0:	e0bffb17 	ldw	r2,-20(fp)
 18132b4:	10800117 	ldw	r2,4(r2)
 18132b8:	1007883a 	mov	r3,r2
 18132bc:	2005883a 	mov	r2,r4
 18132c0:	10c00035 	stwio	r3,0(r2)
 18132c4:	e0bffa17 	ldw	r2,-24(fp)
 18132c8:	e0bff415 	stw	r2,-48(fp)
  status &= ~NIOS2_STATUS_PIE_MSK;
  status |= (context & NIOS2_STATUS_PIE_MSK);
  
  NIOS2_WRITE_STATUS (status);
#else
  NIOS2_WRITE_STATUS (context);
 18132cc:	e0bff417 	ldw	r2,-48(fp)
 18132d0:	1001703a 	wrctl	status,r2
                      OS_FLAG_WAIT_SET_ANY + OS_FLAG_CONSUME,
                      0);
      }
    }
  }
  while (!count && len);
 18132d4:	e0bff617 	ldw	r2,-40(fp)
 18132d8:	1004c03a 	cmpne	r2,r2,zero
 18132dc:	1000031e 	bne	r2,zero,18132ec <altera_avalon_uart_read+0x194>
 18132e0:	e0bffd17 	ldw	r2,-12(fp)
 18132e4:	1004c03a 	cmpne	r2,r2,zero
 18132e8:	103fc81e 	bne	r2,zero,181320c <altera_avalon_uart_read+0xb4>
static ALT_INLINE alt_irq_context ALT_ALWAYS_INLINE 
       alt_irq_disable_all (void)
{
  alt_irq_context context;

  NIOS2_READ_STATUS (context);
 18132ec:	0005303a 	rdctl	r2,status
 18132f0:	e0bff315 	stw	r2,-52(fp)

  NIOS2_WRITE_STATUS (context & ~NIOS2_STATUS_PIE_MSK);
 18132f4:	e0fff317 	ldw	r3,-52(fp)
 18132f8:	00bfff84 	movi	r2,-2
 18132fc:	1884703a 	and	r2,r3,r2
 1813300:	1001703a 	wrctl	status,r2
  
  return context;
 1813304:	e0bff317 	ldw	r2,-52(fp)
  /*
   * Ensure that interrupts are enabled, so that the circular buffer can
   * re-fill.
   */

  context = alt_irq_disable_all ();
 1813308:	e0bffa15 	stw	r2,-24(fp)
  sp->ctrl |= ALTERA_AVALON_UART_CONTROL_RRDY_MSK;
 181330c:	e0bffb17 	ldw	r2,-20(fp)
 1813310:	10800117 	ldw	r2,4(r2)
 1813314:	10c02014 	ori	r3,r2,128
 1813318:	e0bffb17 	ldw	r2,-20(fp)
 181331c:	10c00115 	stw	r3,4(r2)
  IOWR_ALTERA_AVALON_UART_CONTROL(sp->base, sp->ctrl);
 1813320:	e0bffb17 	ldw	r2,-20(fp)
 1813324:	10800017 	ldw	r2,0(r2)
 1813328:	11000304 	addi	r4,r2,12
 181332c:	e0bffb17 	ldw	r2,-20(fp)
 1813330:	10800117 	ldw	r2,4(r2)
 1813334:	1007883a 	mov	r3,r2
 1813338:	2005883a 	mov	r2,r4
 181333c:	10c00035 	stwio	r3,0(r2)
 1813340:	e0bffa17 	ldw	r2,-24(fp)
 1813344:	e0bff215 	stw	r2,-56(fp)
  status &= ~NIOS2_STATUS_PIE_MSK;
  status |= (context & NIOS2_STATUS_PIE_MSK);
  
  NIOS2_WRITE_STATUS (status);
#else
  NIOS2_WRITE_STATUS (context);
 1813348:	e0bff217 	ldw	r2,-56(fp)
 181334c:	1001703a 	wrctl	status,r2
  alt_irq_enable_all (context);

  /* Return the number of bytes read */
  if(read_would_block) {
 1813350:	e0bff703 	ldbu	r2,-36(fp)
 1813354:	1005003a 	cmpeq	r2,r2,zero
 1813358:	1000031e 	bne	r2,zero,1813368 <altera_avalon_uart_read+0x210>
    return ~EWOULDBLOCK;
 181335c:	00bffd04 	movi	r2,-12
 1813360:	e0bfff15 	stw	r2,-4(fp)
 1813364:	00000206 	br	1813370 <altera_avalon_uart_read+0x218>
  }
  else {
    return count;
 1813368:	e0bff617 	ldw	r2,-40(fp)
 181336c:	e0bfff15 	stw	r2,-4(fp)
 1813370:	e0bfff17 	ldw	r2,-4(fp)
  }
}
 1813374:	e037883a 	mov	sp,fp
 1813378:	dfc00117 	ldw	ra,4(sp)
 181337c:	df000017 	ldw	fp,0(sp)
 1813380:	dec00204 	addi	sp,sp,8
 1813384:	f800283a 	ret

01813388 <alt_get_errno>:
#undef errno

extern int errno;

static ALT_INLINE int* alt_get_errno(void)
{
 1813388:	defffd04 	addi	sp,sp,-12
 181338c:	dfc00215 	stw	ra,8(sp)
 1813390:	df000115 	stw	fp,4(sp)
 1813394:	df000104 	addi	fp,sp,4
  return ((alt_errno) ? alt_errno() : &errno);
 1813398:	00806074 	movhi	r2,385
 181339c:	109ecf04 	addi	r2,r2,31548
 18133a0:	10800017 	ldw	r2,0(r2)
 18133a4:	1005003a 	cmpeq	r2,r2,zero
 18133a8:	1000061e 	bne	r2,zero,18133c4 <alt_get_errno+0x3c>
 18133ac:	00806074 	movhi	r2,385
 18133b0:	109ecf04 	addi	r2,r2,31548
 18133b4:	10800017 	ldw	r2,0(r2)
 18133b8:	103ee83a 	callr	r2
 18133bc:	e0bfff15 	stw	r2,-4(fp)
 18133c0:	00000306 	br	18133d0 <alt_get_errno+0x48>
 18133c4:	00806074 	movhi	r2,385
 18133c8:	109ede04 	addi	r2,r2,31608
 18133cc:	e0bfff15 	stw	r2,-4(fp)
 18133d0:	e0bfff17 	ldw	r2,-4(fp)
}
 18133d4:	e037883a 	mov	sp,fp
 18133d8:	dfc00117 	ldw	ra,4(sp)
 18133dc:	df000017 	ldw	fp,0(sp)
 18133e0:	dec00204 	addi	sp,sp,8
 18133e4:	f800283a 	ret

018133e8 <altera_avalon_uart_write>:
 */

int
altera_avalon_uart_write(altera_avalon_uart_state* sp, const char* ptr, int len,
  int flags)
{
 18133e8:	defff204 	addi	sp,sp,-56
 18133ec:	dfc00d15 	stw	ra,52(sp)
 18133f0:	df000c15 	stw	fp,48(sp)
 18133f4:	df000c04 	addi	fp,sp,48
 18133f8:	e13ffc15 	stw	r4,-16(fp)
 18133fc:	e17ffd15 	stw	r5,-12(fp)
 1813400:	e1bffe15 	stw	r6,-8(fp)
 1813404:	e1ffff15 	stw	r7,-4(fp)
  alt_irq_context context;
  int             no_block;
  alt_u32         next;
  int             count = len;
 1813408:	e0bffe17 	ldw	r2,-8(fp)
 181340c:	e0bff815 	stw	r2,-32(fp)
  /* 
   * Construct a flag to indicate whether the device is being accessed in
   * blocking or non-blocking mode.
   */

  no_block = (flags & O_NONBLOCK);
 1813410:	e0bfff17 	ldw	r2,-4(fp)
 1813414:	1090000c 	andi	r2,r2,16384
 1813418:	e0bffa15 	stw	r2,-24(fp)
   * Loop transferring data from the input buffer to the transmit circular
   * buffer. The loop is terminated once all the data has been transferred,
   * or, (if in non-blocking mode) the buffer becomes full.
   */

  while (count)
 181341c:	00004006 	br	1813520 <altera_avalon_uart_write+0x138>
  {
    /* Determine the next slot in the buffer to access */

    next = (sp->tx_end + 1) & ALT_AVALON_UART_BUF_MSK;
 1813420:	e0bffc17 	ldw	r2,-16(fp)
 1813424:	10800517 	ldw	r2,20(r2)
 1813428:	10800044 	addi	r2,r2,1
 181342c:	10800fcc 	andi	r2,r2,63
 1813430:	e0bff915 	stw	r2,-28(fp)

    /* block waiting for space if necessary */

    if (next == sp->tx_start)
 1813434:	e0bffc17 	ldw	r2,-16(fp)
 1813438:	10c00417 	ldw	r3,16(r2)
 181343c:	e0bff917 	ldw	r2,-28(fp)
 1813440:	1880251e 	bne	r3,r2,18134d8 <altera_avalon_uart_write+0xf0>
    {
      if (no_block)
 1813444:	e0bffa17 	ldw	r2,-24(fp)
 1813448:	1005003a 	cmpeq	r2,r2,zero
 181344c:	1000051e 	bne	r2,zero,1813464 <altera_avalon_uart_write+0x7c>
      {
        /* Set errno to indicate why this function returned early */
 
        ALT_ERRNO = EWOULDBLOCK;
 1813450:	18135b00 	call	18135b0 <alt_get_errno>
 1813454:	1007883a 	mov	r3,r2
 1813458:	008002c4 	movi	r2,11
 181345c:	18800015 	stw	r2,0(r3)
        break;
 1813460:	00003206 	br	181352c <altera_avalon_uart_write+0x144>
static ALT_INLINE alt_irq_context ALT_ALWAYS_INLINE 
       alt_irq_disable_all (void)
{
  alt_irq_context context;

  NIOS2_READ_STATUS (context);
 1813464:	0005303a 	rdctl	r2,status
 1813468:	e0bff715 	stw	r2,-36(fp)

  NIOS2_WRITE_STATUS (context & ~NIOS2_STATUS_PIE_MSK);
 181346c:	e0fff717 	ldw	r3,-36(fp)
 1813470:	00bfff84 	movi	r2,-2
 1813474:	1884703a 	and	r2,r3,r2
 1813478:	1001703a 	wrctl	status,r2
  
  return context;
 181347c:	e0bff717 	ldw	r2,-36(fp)
      {
        /* Block waiting for space in the circular buffer */

        /* First, ensure transmit interrupts are enabled to avoid deadlock */

        context = alt_irq_disable_all ();
 1813480:	e0bffb15 	stw	r2,-20(fp)
        sp->ctrl |= (ALTERA_AVALON_UART_CONTROL_TRDY_MSK |
 1813484:	e0bffc17 	ldw	r2,-16(fp)
 1813488:	10800117 	ldw	r2,4(r2)
 181348c:	10c11014 	ori	r3,r2,1088
 1813490:	e0bffc17 	ldw	r2,-16(fp)
 1813494:	10c00115 	stw	r3,4(r2)
                        ALTERA_AVALON_UART_CONTROL_DCTS_MSK);
        IOWR_ALTERA_AVALON_UART_CONTROL(sp->base, sp->ctrl);
 1813498:	e0bffc17 	ldw	r2,-16(fp)
 181349c:	10800017 	ldw	r2,0(r2)
 18134a0:	11000304 	addi	r4,r2,12
 18134a4:	e0bffc17 	ldw	r2,-16(fp)
 18134a8:	10800117 	ldw	r2,4(r2)
 18134ac:	1007883a 	mov	r3,r2
 18134b0:	2005883a 	mov	r2,r4
 18134b4:	10c00035 	stwio	r3,0(r2)
 18134b8:	e0bffb17 	ldw	r2,-20(fp)
 18134bc:	e0bff615 	stw	r2,-40(fp)
  status &= ~NIOS2_STATUS_PIE_MSK;
  status |= (context & NIOS2_STATUS_PIE_MSK);
  
  NIOS2_WRITE_STATUS (status);
#else
  NIOS2_WRITE_STATUS (context);
 18134c0:	e0bff617 	ldw	r2,-40(fp)
 18134c4:	1001703a 	wrctl	status,r2
          ALT_FLAG_PEND (sp->events, 
                         ALT_UART_WRITE_RDY,
                         OS_FLAG_WAIT_SET_ANY + OS_FLAG_CONSUME,
                         0);
        }
        while ((next == sp->tx_start));
 18134c8:	e0bffc17 	ldw	r2,-16(fp)
 18134cc:	10c00417 	ldw	r3,16(r2)
 18134d0:	e0bff917 	ldw	r2,-28(fp)
 18134d4:	18bffc26 	beq	r3,r2,18134c8 <altera_avalon_uart_write+0xe0>
      }
    }

    count--;
 18134d8:	e0bff817 	ldw	r2,-32(fp)
 18134dc:	10bfffc4 	addi	r2,r2,-1
 18134e0:	e0bff815 	stw	r2,-32(fp)

    /* Add the next character to the transmit buffer */

    sp->tx_buf[sp->tx_end] = *ptr++;
 18134e4:	e0bffc17 	ldw	r2,-16(fp)
 18134e8:	10c00517 	ldw	r3,20(r2)
 18134ec:	e0bffd17 	ldw	r2,-12(fp)
 18134f0:	10800003 	ldbu	r2,0(r2)
 18134f4:	1009883a 	mov	r4,r2
 18134f8:	e0bffc17 	ldw	r2,-16(fp)
 18134fc:	1885883a 	add	r2,r3,r2
 1813500:	10801704 	addi	r2,r2,92
 1813504:	11000005 	stb	r4,0(r2)
 1813508:	e0bffd17 	ldw	r2,-12(fp)
 181350c:	10800044 	addi	r2,r2,1
 1813510:	e0bffd15 	stw	r2,-12(fp)
    sp->tx_end = next;
 1813514:	e0fffc17 	ldw	r3,-16(fp)
 1813518:	e0bff917 	ldw	r2,-28(fp)
 181351c:	18800515 	stw	r2,20(r3)
   * Loop transferring data from the input buffer to the transmit circular
   * buffer. The loop is terminated once all the data has been transferred,
   * or, (if in non-blocking mode) the buffer becomes full.
   */

  while (count)
 1813520:	e0bff817 	ldw	r2,-32(fp)
 1813524:	1004c03a 	cmpne	r2,r2,zero
 1813528:	103fbd1e 	bne	r2,zero,1813420 <altera_avalon_uart_write+0x38>
static ALT_INLINE alt_irq_context ALT_ALWAYS_INLINE 
       alt_irq_disable_all (void)
{
  alt_irq_context context;

  NIOS2_READ_STATUS (context);
 181352c:	0005303a 	rdctl	r2,status
 1813530:	e0bff515 	stw	r2,-44(fp)

  NIOS2_WRITE_STATUS (context & ~NIOS2_STATUS_PIE_MSK);
 1813534:	e0fff517 	ldw	r3,-44(fp)
 1813538:	00bfff84 	movi	r2,-2
 181353c:	1884703a 	and	r2,r3,r2
 1813540:	1001703a 	wrctl	status,r2
  
  return context;
 1813544:	e0bff517 	ldw	r2,-44(fp)
  /* 
   * Ensure that interrupts are enabled, so that the circular buffer can 
   * drain.
   */

  context = alt_irq_disable_all ();
 1813548:	e0bffb15 	stw	r2,-20(fp)
  sp->ctrl |= ALTERA_AVALON_UART_CONTROL_TRDY_MSK |
 181354c:	e0bffc17 	ldw	r2,-16(fp)
 1813550:	10800117 	ldw	r2,4(r2)
 1813554:	10c11014 	ori	r3,r2,1088
 1813558:	e0bffc17 	ldw	r2,-16(fp)
 181355c:	10c00115 	stw	r3,4(r2)
                 ALTERA_AVALON_UART_CONTROL_DCTS_MSK;
  IOWR_ALTERA_AVALON_UART_CONTROL(sp->base, sp->ctrl);
 1813560:	e0bffc17 	ldw	r2,-16(fp)
 1813564:	10800017 	ldw	r2,0(r2)
 1813568:	11000304 	addi	r4,r2,12
 181356c:	e0bffc17 	ldw	r2,-16(fp)
 1813570:	10800117 	ldw	r2,4(r2)
 1813574:	1007883a 	mov	r3,r2
 1813578:	2005883a 	mov	r2,r4
 181357c:	10c00035 	stwio	r3,0(r2)
 1813580:	e0bffb17 	ldw	r2,-20(fp)
 1813584:	e0bff415 	stw	r2,-48(fp)
  status &= ~NIOS2_STATUS_PIE_MSK;
  status |= (context & NIOS2_STATUS_PIE_MSK);
  
  NIOS2_WRITE_STATUS (status);
#else
  NIOS2_WRITE_STATUS (context);
 1813588:	e0bff417 	ldw	r2,-48(fp)
 181358c:	1001703a 	wrctl	status,r2
  alt_irq_enable_all (context);

  /* return the number of bytes written */

  return (len - count);
 1813590:	e0fffe17 	ldw	r3,-8(fp)
 1813594:	e0bff817 	ldw	r2,-32(fp)
 1813598:	1885c83a 	sub	r2,r3,r2
}
 181359c:	e037883a 	mov	sp,fp
 18135a0:	dfc00117 	ldw	ra,4(sp)
 18135a4:	df000017 	ldw	fp,0(sp)
 18135a8:	dec00204 	addi	sp,sp,8
 18135ac:	f800283a 	ret

018135b0 <alt_get_errno>:
#undef errno

extern int errno;

static ALT_INLINE int* alt_get_errno(void)
{
 18135b0:	defffd04 	addi	sp,sp,-12
 18135b4:	dfc00215 	stw	ra,8(sp)
 18135b8:	df000115 	stw	fp,4(sp)
 18135bc:	df000104 	addi	fp,sp,4
  return ((alt_errno) ? alt_errno() : &errno);
 18135c0:	00806074 	movhi	r2,385
 18135c4:	109ecf04 	addi	r2,r2,31548
 18135c8:	10800017 	ldw	r2,0(r2)
 18135cc:	1005003a 	cmpeq	r2,r2,zero
 18135d0:	1000061e 	bne	r2,zero,18135ec <alt_get_errno+0x3c>
 18135d4:	00806074 	movhi	r2,385
 18135d8:	109ecf04 	addi	r2,r2,31548
 18135dc:	10800017 	ldw	r2,0(r2)
 18135e0:	103ee83a 	callr	r2
 18135e4:	e0bfff15 	stw	r2,-4(fp)
 18135e8:	00000306 	br	18135f8 <alt_get_errno+0x48>
 18135ec:	00806074 	movhi	r2,385
 18135f0:	109ede04 	addi	r2,r2,31608
 18135f4:	e0bfff15 	stw	r2,-4(fp)
 18135f8:	e0bfff17 	ldw	r2,-4(fp)
}
 18135fc:	e037883a 	mov	sp,fp
 1813600:	dfc00117 	ldw	ra,4(sp)
 1813604:	df000017 	ldw	fp,0(sp)
 1813608:	dec00204 	addi	sp,sp,8
 181360c:	f800283a 	ret

01813610 <alt_alarm_start>:
 */ 

int alt_alarm_start (alt_alarm* alarm, alt_u32 nticks,
                     alt_u32 (*callback) (void* context),
                     void* context)
{
 1813610:	defff404 	addi	sp,sp,-48
 1813614:	df000b15 	stw	fp,44(sp)
 1813618:	df000b04 	addi	fp,sp,44
 181361c:	e13ffb15 	stw	r4,-20(fp)
 1813620:	e17ffc15 	stw	r5,-16(fp)
 1813624:	e1bffd15 	stw	r6,-12(fp)
 1813628:	e1fffe15 	stw	r7,-8(fp)
  alt_irq_context irq_context;
  alt_u32 current_nticks = 0;
 181362c:	e03ff915 	stw	zero,-28(fp)
 * Obtain the system clock rate in ticks/s. 
 */

static ALT_INLINE alt_u32 ALT_ALWAYS_INLINE alt_ticks_per_second (void)
{
  return _alt_tick_rate;
 1813630:	00806074 	movhi	r2,385
 1813634:	109ee504 	addi	r2,r2,31636
 1813638:	10800017 	ldw	r2,0(r2)
  
  if (alt_ticks_per_second ())
 181363c:	1005003a 	cmpeq	r2,r2,zero
 1813640:	1000411e 	bne	r2,zero,1813748 <alt_alarm_start+0x138>
  {
    if (alarm)
 1813644:	e0bffb17 	ldw	r2,-20(fp)
 1813648:	1005003a 	cmpeq	r2,r2,zero
 181364c:	10003b1e 	bne	r2,zero,181373c <alt_alarm_start+0x12c>
    {
      alarm->callback = callback;
 1813650:	e0fffb17 	ldw	r3,-20(fp)
 1813654:	e0bffd17 	ldw	r2,-12(fp)
 1813658:	18800315 	stw	r2,12(r3)
      alarm->context  = context;
 181365c:	e0fffb17 	ldw	r3,-20(fp)
 1813660:	e0bffe17 	ldw	r2,-8(fp)
 1813664:	18800515 	stw	r2,20(r3)
static ALT_INLINE alt_irq_context ALT_ALWAYS_INLINE 
       alt_irq_disable_all (void)
{
  alt_irq_context context;

  NIOS2_READ_STATUS (context);
 1813668:	0005303a 	rdctl	r2,status
 181366c:	e0bff815 	stw	r2,-32(fp)

  NIOS2_WRITE_STATUS (context & ~NIOS2_STATUS_PIE_MSK);
 1813670:	e0fff817 	ldw	r3,-32(fp)
 1813674:	00bfff84 	movi	r2,-2
 1813678:	1884703a 	and	r2,r3,r2
 181367c:	1001703a 	wrctl	status,r2
  
  return context;
 1813680:	e0bff817 	ldw	r2,-32(fp)
 
      irq_context = alt_irq_disable_all ();
 1813684:	e0bffa15 	stw	r2,-24(fp)
 * alt_nticks() returns the elapsed number of system clock ticks since reset.
 */

static ALT_INLINE alt_u32 ALT_ALWAYS_INLINE alt_nticks (void)
{
  return _alt_nticks;
 1813688:	00806074 	movhi	r2,385
 181368c:	109ee604 	addi	r2,r2,31640
 1813690:	10800017 	ldw	r2,0(r2)
      
      current_nticks = alt_nticks();
 1813694:	e0bff915 	stw	r2,-28(fp)
      
      alarm->time = nticks + current_nticks + 1; 
 1813698:	e0fffc17 	ldw	r3,-16(fp)
 181369c:	e0bff917 	ldw	r2,-28(fp)
 18136a0:	1885883a 	add	r2,r3,r2
 18136a4:	10c00044 	addi	r3,r2,1
 18136a8:	e0bffb17 	ldw	r2,-20(fp)
 18136ac:	10c00215 	stw	r3,8(r2)
      /* 
       * If the desired alarm time causes a roll-over, set the rollover
       * flag. This will prevent the subsequent tick event from causing
       * an alarm too early.
       */
      if(alarm->time < current_nticks)
 18136b0:	e0bffb17 	ldw	r2,-20(fp)
 18136b4:	10c00217 	ldw	r3,8(r2)
 18136b8:	e0bff917 	ldw	r2,-28(fp)
 18136bc:	1880042e 	bgeu	r3,r2,18136d0 <alt_alarm_start+0xc0>
      {
        alarm->rollover = 1;
 18136c0:	e0fffb17 	ldw	r3,-20(fp)
 18136c4:	00800044 	movi	r2,1
 18136c8:	18800405 	stb	r2,16(r3)
 18136cc:	00000206 	br	18136d8 <alt_alarm_start+0xc8>
      }
      else
      {
        alarm->rollover = 0;
 18136d0:	e0bffb17 	ldw	r2,-20(fp)
 18136d4:	10000405 	stb	zero,16(r2)
      }
    
      alt_llist_insert (&alt_alarm_list, &alarm->llist);
 18136d8:	e0fffb17 	ldw	r3,-20(fp)
 18136dc:	00806074 	movhi	r2,385
 18136e0:	109ed504 	addi	r2,r2,31572
 18136e4:	e0bff615 	stw	r2,-40(fp)
 18136e8:	e0fff715 	stw	r3,-36(fp)
 */

static ALT_INLINE void ALT_ALWAYS_INLINE alt_llist_insert(alt_llist* list, 
                alt_llist* entry)
{
  entry->previous = list;
 18136ec:	e0fff717 	ldw	r3,-36(fp)
 18136f0:	e0bff617 	ldw	r2,-40(fp)
 18136f4:	18800115 	stw	r2,4(r3)
  entry->next     = list->next;
 18136f8:	e0bff617 	ldw	r2,-40(fp)
 18136fc:	10c00017 	ldw	r3,0(r2)
 1813700:	e0bff717 	ldw	r2,-36(fp)
 1813704:	10c00015 	stw	r3,0(r2)

  list->next->previous = entry;
 1813708:	e0bff617 	ldw	r2,-40(fp)
 181370c:	10c00017 	ldw	r3,0(r2)
 1813710:	e0bff717 	ldw	r2,-36(fp)
 1813714:	18800115 	stw	r2,4(r3)
  list->next           = entry;
 1813718:	e0fff617 	ldw	r3,-40(fp)
 181371c:	e0bff717 	ldw	r2,-36(fp)
 1813720:	18800015 	stw	r2,0(r3)
 1813724:	e0bffa17 	ldw	r2,-24(fp)
 1813728:	e0bff515 	stw	r2,-44(fp)
  status &= ~NIOS2_STATUS_PIE_MSK;
  status |= (context & NIOS2_STATUS_PIE_MSK);
  
  NIOS2_WRITE_STATUS (status);
#else
  NIOS2_WRITE_STATUS (context);
 181372c:	e0bff517 	ldw	r2,-44(fp)
 1813730:	1001703a 	wrctl	status,r2
      alt_irq_enable_all (irq_context);

      return 0;
 1813734:	e03fff15 	stw	zero,-4(fp)
 1813738:	00000506 	br	1813750 <alt_alarm_start+0x140>
    }
    else
    {
      return -EINVAL;
 181373c:	00bffa84 	movi	r2,-22
 1813740:	e0bfff15 	stw	r2,-4(fp)
 1813744:	00000206 	br	1813750 <alt_alarm_start+0x140>
    }
  }
  else
  {
    return -ENOTSUP;
 1813748:	00bfde84 	movi	r2,-134
 181374c:	e0bfff15 	stw	r2,-4(fp)
 1813750:	e0bfff17 	ldw	r2,-4(fp)
  }
}
 1813754:	e037883a 	mov	sp,fp
 1813758:	df000017 	ldw	fp,0(sp)
 181375c:	dec00104 	addi	sp,sp,4
 1813760:	f800283a 	ret

01813764 <alt_busy_sleep>:
#include "alt_types.h"

#include "priv/alt_busy_sleep.h"

unsigned int alt_busy_sleep (unsigned int us)
{
 1813764:	defffb04 	addi	sp,sp,-20
 1813768:	df000415 	stw	fp,16(sp)
 181376c:	df000404 	addi	fp,sp,16
 1813770:	e13fff15 	stw	r4,-4(fp)
  {
    cycles_per_loop = 9;
  }
  else  
  {
    cycles_per_loop = 3;
 1813774:	008000c4 	movi	r2,3
 1813778:	e0bffc15 	stw	r2,-16(fp)
  }
  

  big_loops = us / (INT_MAX/
 181377c:	e0fffc17 	ldw	r3,-16(fp)
 1813780:	008003f4 	movhi	r2,15
 1813784:	10909004 	addi	r2,r2,16960
 1813788:	1887383a 	mul	r3,r3,r2
 181378c:	0080bef4 	movhi	r2,763
 1813790:	10bc2004 	addi	r2,r2,-3968
 1813794:	10c7203a 	divu	r3,r2,r3
 1813798:	00a00034 	movhi	r2,32768
 181379c:	10bfffc4 	addi	r2,r2,-1
 18137a0:	10c7203a 	divu	r3,r2,r3
 18137a4:	e0bfff17 	ldw	r2,-4(fp)
 18137a8:	10c5203a 	divu	r2,r2,r3
 18137ac:	e0bffd15 	stw	r2,-12(fp)
  (ALT_CPU_FREQ/(cycles_per_loop * 1000000)));

  if (big_loops)
 18137b0:	e0bffd17 	ldw	r2,-12(fp)
 18137b4:	1005003a 	cmpeq	r2,r2,zero
 18137b8:	1000251e 	bne	r2,zero,1813850 <alt_busy_sleep+0xec>
  {
    for(i=0;i<big_loops;i++)
 18137bc:	e03ffe15 	stw	zero,-8(fp)
 18137c0:	00001406 	br	1813814 <alt_busy_sleep+0xb0>
      /*
      * Do NOT Try to single step the asm statement below 
      * (single step will never return)
      * Step out of this function or set a breakpoint after the asm statements
      */
      __asm__ volatile (
 18137c4:	00a00034 	movhi	r2,32768
 18137c8:	10bfffc4 	addi	r2,r2,-1
 18137cc:	10bfffc4 	addi	r2,r2,-1
 18137d0:	103ffe1e 	bne	r2,zero,18137cc <alt_busy_sleep+0x68>
        "\n1:"
        "\n\t.pushsection .debug_alt_sim_info"
        "\n\t.int 4, 0, 0b, 1b"
        "\n\t.popsection"
        :: "r" (INT_MAX));
      us -= (INT_MAX/(ALT_CPU_FREQ/
 18137d4:	e0fffc17 	ldw	r3,-16(fp)
 18137d8:	008003f4 	movhi	r2,15
 18137dc:	10909004 	addi	r2,r2,16960
 18137e0:	1887383a 	mul	r3,r3,r2
 18137e4:	0080bef4 	movhi	r2,763
 18137e8:	10bc2004 	addi	r2,r2,-3968
 18137ec:	10c7203a 	divu	r3,r2,r3
 18137f0:	00a00034 	movhi	r2,32768
 18137f4:	10bfffc4 	addi	r2,r2,-1
 18137f8:	10c7203a 	divu	r3,r2,r3
 18137fc:	e0bfff17 	ldw	r2,-4(fp)
 1813800:	10c5c83a 	sub	r2,r2,r3
 1813804:	e0bfff15 	stw	r2,-4(fp)
  big_loops = us / (INT_MAX/
  (ALT_CPU_FREQ/(cycles_per_loop * 1000000)));

  if (big_loops)
  {
    for(i=0;i<big_loops;i++)
 1813808:	e0bffe17 	ldw	r2,-8(fp)
 181380c:	10800044 	addi	r2,r2,1
 1813810:	e0bffe15 	stw	r2,-8(fp)
 1813814:	e0fffe17 	ldw	r3,-8(fp)
 1813818:	e0bffd17 	ldw	r2,-12(fp)
 181381c:	18bfe916 	blt	r3,r2,18137c4 <alt_busy_sleep+0x60>
    /*
    * Do NOT Try to single step the asm statement below 
    * (single step will never return)
    * Step out of this function or set a breakpoint after the asm statements
    */
    __asm__ volatile (
 1813820:	e0fffc17 	ldw	r3,-16(fp)
 1813824:	008003f4 	movhi	r2,15
 1813828:	10909004 	addi	r2,r2,16960
 181382c:	1887383a 	mul	r3,r3,r2
 1813830:	0080bef4 	movhi	r2,763
 1813834:	10bc2004 	addi	r2,r2,-3968
 1813838:	10c7203a 	divu	r3,r2,r3
 181383c:	e0bfff17 	ldw	r2,-4(fp)
 1813840:	1885383a 	mul	r2,r3,r2
 1813844:	10bfffc4 	addi	r2,r2,-1
 1813848:	103ffe1e 	bne	r2,zero,1813844 <alt_busy_sleep+0xe0>
 181384c:	00000b06 	br	181387c <alt_busy_sleep+0x118>
    /*
    * Do NOT Try to single step the asm statement below 
    * (single step will never return)
    * Step out of this function or set a breakpoint after the asm statements
    */
    __asm__ volatile (
 1813850:	e0fffc17 	ldw	r3,-16(fp)
 1813854:	008003f4 	movhi	r2,15
 1813858:	10909004 	addi	r2,r2,16960
 181385c:	1887383a 	mul	r3,r3,r2
 1813860:	0080bef4 	movhi	r2,763
 1813864:	10bc2004 	addi	r2,r2,-3968
 1813868:	10c7203a 	divu	r3,r2,r3
 181386c:	e0bfff17 	ldw	r2,-4(fp)
 1813870:	1885383a 	mul	r2,r3,r2
 1813874:	10bfffc4 	addi	r2,r2,-1
 1813878:	00bffe16 	blt	zero,r2,1813874 <alt_busy_sleep+0x110>
      "\n\t.int 4, 0, 0b, 1b"
      "\n\t.popsection"
      :: "r" (us*(ALT_CPU_FREQ/(cycles_per_loop * 1000000))));
  }
#endif /* #ifndef ALT_SIM_OPTIMIZE */
  return 0;
 181387c:	0005883a 	mov	r2,zero
}
 1813880:	e037883a 	mov	sp,fp
 1813884:	df000017 	ldw	fp,0(sp)
 1813888:	dec00104 	addi	sp,sp,4
 181388c:	f800283a 	ret

01813890 <alt_dcache_flush>:
 *
 * Any dirty lines in the data cache are written back to memory.
 */

void alt_dcache_flush (void* start, alt_u32 len)
{
 1813890:	defffb04 	addi	sp,sp,-20
 1813894:	df000415 	stw	fp,16(sp)
 1813898:	df000404 	addi	fp,sp,16
 181389c:	e13ffe15 	stw	r4,-8(fp)
 18138a0:	e17fff15 	stw	r5,-4(fp)
  {
    len = NIOS2_DCACHE_SIZE;
  }
  #endif

  end = ((char*) start) + len; 
 18138a4:	e0fffe17 	ldw	r3,-8(fp)
 18138a8:	e0bfff17 	ldw	r2,-4(fp)
 18138ac:	1885883a 	add	r2,r3,r2
 18138b0:	e0bffc15 	stw	r2,-16(fp)

  for (i = start; i < end; i+= NIOS2_DCACHE_LINE_SIZE)
 18138b4:	e0bffe17 	ldw	r2,-8(fp)
 18138b8:	e0bffd15 	stw	r2,-12(fp)
 18138bc:	00000506 	br	18138d4 <alt_dcache_flush+0x44>
  { 
    ALT_FLUSH_DATA(i); 
 18138c0:	e0bffd17 	ldw	r2,-12(fp)
 18138c4:	1000001b 	flushda	0(r2)
  }
  #endif

  end = ((char*) start) + len; 

  for (i = start; i < end; i+= NIOS2_DCACHE_LINE_SIZE)
 18138c8:	e0bffd17 	ldw	r2,-12(fp)
 18138cc:	10800804 	addi	r2,r2,32
 18138d0:	e0bffd15 	stw	r2,-12(fp)
 18138d4:	e0fffd17 	ldw	r3,-12(fp)
 18138d8:	e0bffc17 	ldw	r2,-16(fp)
 18138dc:	18bff836 	bltu	r3,r2,18138c0 <alt_dcache_flush+0x30>
   * For an unaligned flush request, we've got one more line left.
   * Note that this is dependent on NIOS2_DCACHE_LINE_SIZE to be a 
   * multiple of 2 (which it always is).
   */

  if (((alt_u32) start) & (NIOS2_DCACHE_LINE_SIZE - 1))
 18138e0:	e0bffe17 	ldw	r2,-8(fp)
 18138e4:	108007cc 	andi	r2,r2,31
 18138e8:	1005003a 	cmpeq	r2,r2,zero
 18138ec:	1000021e 	bne	r2,zero,18138f8 <alt_dcache_flush+0x68>
  {
    ALT_FLUSH_DATA(i);
 18138f0:	e0bffd17 	ldw	r2,-12(fp)
 18138f4:	1000001b 	flushda	0(r2)
  }

#endif /* NIOS2_DCACHE_SIZE > 0 */
}
 18138f8:	e037883a 	mov	sp,fp
 18138fc:	df000017 	ldw	fp,0(sp)
 1813900:	dec00104 	addi	sp,sp,4
 1813904:	f800283a 	ret

01813908 <alt_dev_llist_insert>:
/*
 *
 */

int alt_dev_llist_insert (alt_dev_llist* dev, alt_llist* list)
{
 1813908:	defff904 	addi	sp,sp,-28
 181390c:	dfc00615 	stw	ra,24(sp)
 1813910:	df000515 	stw	fp,20(sp)
 1813914:	df000504 	addi	fp,sp,20
 1813918:	e13ffd15 	stw	r4,-12(fp)
 181391c:	e17ffe15 	stw	r5,-8(fp)
  /*
   * check that the device exists, and that it has a valid name.
   */

  if (!dev || !dev->name)
 1813920:	e0bffd17 	ldw	r2,-12(fp)
 1813924:	1005003a 	cmpeq	r2,r2,zero
 1813928:	1000041e 	bne	r2,zero,181393c <alt_dev_llist_insert+0x34>
 181392c:	e0bffd17 	ldw	r2,-12(fp)
 1813930:	10800217 	ldw	r2,8(r2)
 1813934:	1004c03a 	cmpne	r2,r2,zero
 1813938:	1000071e 	bne	r2,zero,1813958 <alt_dev_llist_insert+0x50>
  {
    ALT_ERRNO = EINVAL;
 181393c:	18139bc0 	call	18139bc <alt_get_errno>
 1813940:	1007883a 	mov	r3,r2
 1813944:	00800584 	movi	r2,22
 1813948:	18800015 	stw	r2,0(r3)
    return -EINVAL;
 181394c:	00bffa84 	movi	r2,-22
 1813950:	e0bfff15 	stw	r2,-4(fp)
 1813954:	00001306 	br	18139a4 <alt_dev_llist_insert+0x9c>
  
  /*
   * register the device.
   */
  
  alt_llist_insert(list, &dev->llist);
 1813958:	e0fffd17 	ldw	r3,-12(fp)
 181395c:	e0bffe17 	ldw	r2,-8(fp)
 1813960:	e0bffb15 	stw	r2,-20(fp)
 1813964:	e0fffc15 	stw	r3,-16(fp)
 */

static ALT_INLINE void ALT_ALWAYS_INLINE alt_llist_insert(alt_llist* list, 
                alt_llist* entry)
{
  entry->previous = list;
 1813968:	e0fffc17 	ldw	r3,-16(fp)
 181396c:	e0bffb17 	ldw	r2,-20(fp)
 1813970:	18800115 	stw	r2,4(r3)
  entry->next     = list->next;
 1813974:	e0bffb17 	ldw	r2,-20(fp)
 1813978:	10c00017 	ldw	r3,0(r2)
 181397c:	e0bffc17 	ldw	r2,-16(fp)
 1813980:	10c00015 	stw	r3,0(r2)

  list->next->previous = entry;
 1813984:	e0bffb17 	ldw	r2,-20(fp)
 1813988:	10c00017 	ldw	r3,0(r2)
 181398c:	e0bffc17 	ldw	r2,-16(fp)
 1813990:	18800115 	stw	r2,4(r3)
  list->next           = entry;
 1813994:	e0fffb17 	ldw	r3,-20(fp)
 1813998:	e0bffc17 	ldw	r2,-16(fp)
 181399c:	18800015 	stw	r2,0(r3)

  return 0;  
 18139a0:	e03fff15 	stw	zero,-4(fp)
 18139a4:	e0bfff17 	ldw	r2,-4(fp)
}
 18139a8:	e037883a 	mov	sp,fp
 18139ac:	dfc00117 	ldw	ra,4(sp)
 18139b0:	df000017 	ldw	fp,0(sp)
 18139b4:	dec00204 	addi	sp,sp,8
 18139b8:	f800283a 	ret

018139bc <alt_get_errno>:
#undef errno

extern int errno;

static ALT_INLINE int* alt_get_errno(void)
{
 18139bc:	defffd04 	addi	sp,sp,-12
 18139c0:	dfc00215 	stw	ra,8(sp)
 18139c4:	df000115 	stw	fp,4(sp)
 18139c8:	df000104 	addi	fp,sp,4
  return ((alt_errno) ? alt_errno() : &errno);
 18139cc:	00806074 	movhi	r2,385
 18139d0:	109ecf04 	addi	r2,r2,31548
 18139d4:	10800017 	ldw	r2,0(r2)
 18139d8:	1005003a 	cmpeq	r2,r2,zero
 18139dc:	1000061e 	bne	r2,zero,18139f8 <alt_get_errno+0x3c>
 18139e0:	00806074 	movhi	r2,385
 18139e4:	109ecf04 	addi	r2,r2,31548
 18139e8:	10800017 	ldw	r2,0(r2)
 18139ec:	103ee83a 	callr	r2
 18139f0:	e0bfff15 	stw	r2,-4(fp)
 18139f4:	00000306 	br	1813a04 <alt_get_errno+0x48>
 18139f8:	00806074 	movhi	r2,385
 18139fc:	109ede04 	addi	r2,r2,31608
 1813a00:	e0bfff15 	stw	r2,-4(fp)
 1813a04:	e0bfff17 	ldw	r2,-4(fp)
}
 1813a08:	e037883a 	mov	sp,fp
 1813a0c:	dfc00117 	ldw	ra,4(sp)
 1813a10:	df000017 	ldw	fp,0(sp)
 1813a14:	dec00204 	addi	sp,sp,8
 1813a18:	f800283a 	ret

01813a1c <_do_ctors>:
/*
 * Run the C++ static constructors.
 */

void _do_ctors(void)
{
 1813a1c:	defffd04 	addi	sp,sp,-12
 1813a20:	dfc00215 	stw	ra,8(sp)
 1813a24:	df000115 	stw	fp,4(sp)
 1813a28:	df000104 	addi	fp,sp,4
  constructor* ctor;

  for (ctor = &__CTOR_END__[-1]; ctor >= __CTOR_LIST__; ctor--)
 1813a2c:	00bfff04 	movi	r2,-4
 1813a30:	00c06074 	movhi	r3,385
 1813a34:	18d53104 	addi	r3,r3,21700
 1813a38:	1885883a 	add	r2,r3,r2
 1813a3c:	e0bfff15 	stw	r2,-4(fp)
 1813a40:	00000606 	br	1813a5c <_do_ctors+0x40>
        (*ctor) (); 
 1813a44:	e0bfff17 	ldw	r2,-4(fp)
 1813a48:	10800017 	ldw	r2,0(r2)
 1813a4c:	103ee83a 	callr	r2

void _do_ctors(void)
{
  constructor* ctor;

  for (ctor = &__CTOR_END__[-1]; ctor >= __CTOR_LIST__; ctor--)
 1813a50:	e0bfff17 	ldw	r2,-4(fp)
 1813a54:	10bfff04 	addi	r2,r2,-4
 1813a58:	e0bfff15 	stw	r2,-4(fp)
 1813a5c:	e0ffff17 	ldw	r3,-4(fp)
 1813a60:	00806074 	movhi	r2,385
 1813a64:	10953004 	addi	r2,r2,21696
 1813a68:	18bff62e 	bgeu	r3,r2,1813a44 <_do_ctors+0x28>
        (*ctor) (); 
}
 1813a6c:	e037883a 	mov	sp,fp
 1813a70:	dfc00117 	ldw	ra,4(sp)
 1813a74:	df000017 	ldw	fp,0(sp)
 1813a78:	dec00204 	addi	sp,sp,8
 1813a7c:	f800283a 	ret

01813a80 <_do_dtors>:
/*
 * Run the C++ static destructors.
 */

void _do_dtors(void)
{
 1813a80:	defffd04 	addi	sp,sp,-12
 1813a84:	dfc00215 	stw	ra,8(sp)
 1813a88:	df000115 	stw	fp,4(sp)
 1813a8c:	df000104 	addi	fp,sp,4
  destructor* dtor;

  for (dtor = &__DTOR_END__[-1]; dtor >= __DTOR_LIST__; dtor--)
 1813a90:	00bfff04 	movi	r2,-4
 1813a94:	00c06074 	movhi	r3,385
 1813a98:	18d53104 	addi	r3,r3,21700
 1813a9c:	1885883a 	add	r2,r3,r2
 1813aa0:	e0bfff15 	stw	r2,-4(fp)
 1813aa4:	00000606 	br	1813ac0 <_do_dtors+0x40>
        (*dtor) (); 
 1813aa8:	e0bfff17 	ldw	r2,-4(fp)
 1813aac:	10800017 	ldw	r2,0(r2)
 1813ab0:	103ee83a 	callr	r2

void _do_dtors(void)
{
  destructor* dtor;

  for (dtor = &__DTOR_END__[-1]; dtor >= __DTOR_LIST__; dtor--)
 1813ab4:	e0bfff17 	ldw	r2,-4(fp)
 1813ab8:	10bfff04 	addi	r2,r2,-4
 1813abc:	e0bfff15 	stw	r2,-4(fp)
 1813ac0:	e0ffff17 	ldw	r3,-4(fp)
 1813ac4:	00806074 	movhi	r2,385
 1813ac8:	10953104 	addi	r2,r2,21700
 1813acc:	18bff62e 	bgeu	r3,r2,1813aa8 <_do_dtors+0x28>
        (*dtor) (); 
}
 1813ad0:	e037883a 	mov	sp,fp
 1813ad4:	dfc00117 	ldw	ra,4(sp)
 1813ad8:	df000017 	ldw	fp,0(sp)
 1813adc:	dec00204 	addi	sp,sp,8
 1813ae0:	f800283a 	ret

01813ae4 <alt_flash_open_dev>:
#include "priv/alt_file.h"

ALT_LLIST_HEAD(alt_flash_dev_list);

alt_flash_fd* alt_flash_open_dev(const char* name)
{
 1813ae4:	defffb04 	addi	sp,sp,-20
 1813ae8:	dfc00415 	stw	ra,16(sp)
 1813aec:	df000315 	stw	fp,12(sp)
 1813af0:	df000304 	addi	fp,sp,12
 1813af4:	e13ffe15 	stw	r4,-8(fp)
  alt_flash_dev* dev = (alt_flash_dev*)alt_find_dev(name, &alt_flash_dev_list);
 1813af8:	e13ffe17 	ldw	r4,-8(fp)
 1813afc:	d1600f04 	addi	r5,gp,-32708
 1813b00:	1814d040 	call	1814d04 <alt_find_dev>
 1813b04:	e0bffd15 	stw	r2,-12(fp)

  if ((dev) && dev->open)
 1813b08:	e0bffd17 	ldw	r2,-12(fp)
 1813b0c:	1005003a 	cmpeq	r2,r2,zero
 1813b10:	10000b1e 	bne	r2,zero,1813b40 <alt_flash_open_dev+0x5c>
 1813b14:	e0bffd17 	ldw	r2,-12(fp)
 1813b18:	10800317 	ldw	r2,12(r2)
 1813b1c:	1005003a 	cmpeq	r2,r2,zero
 1813b20:	1000071e 	bne	r2,zero,1813b40 <alt_flash_open_dev+0x5c>
  {
    return dev->open(dev, name);
 1813b24:	e0bffd17 	ldw	r2,-12(fp)
 1813b28:	10800317 	ldw	r2,12(r2)
 1813b2c:	e13ffd17 	ldw	r4,-12(fp)
 1813b30:	e17ffe17 	ldw	r5,-8(fp)
 1813b34:	103ee83a 	callr	r2
 1813b38:	e0bfff15 	stw	r2,-4(fp)
 1813b3c:	00000206 	br	1813b48 <alt_flash_open_dev+0x64>
  }

  return dev;
 1813b40:	e0bffd17 	ldw	r2,-12(fp)
 1813b44:	e0bfff15 	stw	r2,-4(fp)
 1813b48:	e0bfff17 	ldw	r2,-4(fp)
}
 1813b4c:	e037883a 	mov	sp,fp
 1813b50:	dfc00117 	ldw	ra,4(sp)
 1813b54:	df000017 	ldw	fp,0(sp)
 1813b58:	dec00204 	addi	sp,sp,8
 1813b5c:	f800283a 	ret

01813b60 <alt_flash_close_dev>:

void alt_flash_close_dev(alt_flash_fd* fd)
{
 1813b60:	defffd04 	addi	sp,sp,-12
 1813b64:	dfc00215 	stw	ra,8(sp)
 1813b68:	df000115 	stw	fp,4(sp)
 1813b6c:	df000104 	addi	fp,sp,4
 1813b70:	e13fff15 	stw	r4,-4(fp)
  if (fd && fd->close)
 1813b74:	e0bfff17 	ldw	r2,-4(fp)
 1813b78:	1005003a 	cmpeq	r2,r2,zero
 1813b7c:	1000081e 	bne	r2,zero,1813ba0 <alt_flash_close_dev+0x40>
 1813b80:	e0bfff17 	ldw	r2,-4(fp)
 1813b84:	10800417 	ldw	r2,16(r2)
 1813b88:	1005003a 	cmpeq	r2,r2,zero
 1813b8c:	1000041e 	bne	r2,zero,1813ba0 <alt_flash_close_dev+0x40>
  {
    fd->close(fd);
 1813b90:	e0bfff17 	ldw	r2,-4(fp)
 1813b94:	10800417 	ldw	r2,16(r2)
 1813b98:	e13fff17 	ldw	r4,-4(fp)
 1813b9c:	103ee83a 	callr	r2
  }
  return;
}
 1813ba0:	e037883a 	mov	sp,fp
 1813ba4:	dfc00117 	ldw	ra,4(sp)
 1813ba8:	df000017 	ldw	fp,0(sp)
 1813bac:	dec00204 	addi	sp,sp,8
 1813bb0:	f800283a 	ret

01813bb4 <alt_ic_isr_register>:
  * @param irq              IRQ number
  * @return                 0 if successful, else error (-1)
  */
int alt_ic_isr_register(alt_u32 ic_id, alt_u32 irq, alt_isr_func isr, 
  void *isr_context, void *flags)
{
 1813bb4:	defff904 	addi	sp,sp,-28
 1813bb8:	dfc00615 	stw	ra,24(sp)
 1813bbc:	df000515 	stw	fp,20(sp)
 1813bc0:	df000504 	addi	fp,sp,20
 1813bc4:	e13ffc15 	stw	r4,-16(fp)
 1813bc8:	e17ffd15 	stw	r5,-12(fp)
 1813bcc:	e1bffe15 	stw	r6,-8(fp)
 1813bd0:	e1ffff15 	stw	r7,-4(fp)
    return alt_iic_isr_register(ic_id, irq, isr, isr_context, flags);
 1813bd4:	e0800217 	ldw	r2,8(fp)
 1813bd8:	d8800015 	stw	r2,0(sp)
 1813bdc:	e13ffc17 	ldw	r4,-16(fp)
 1813be0:	e17ffd17 	ldw	r5,-12(fp)
 1813be4:	e1bffe17 	ldw	r6,-8(fp)
 1813be8:	e1ffff17 	ldw	r7,-4(fp)
 1813bec:	1813d880 	call	1813d88 <alt_iic_isr_register>
}  
 1813bf0:	e037883a 	mov	sp,fp
 1813bf4:	dfc00117 	ldw	ra,4(sp)
 1813bf8:	df000017 	ldw	fp,0(sp)
 1813bfc:	dec00204 	addi	sp,sp,8
 1813c00:	f800283a 	ret

01813c04 <alt_ic_irq_enable>:
  * @param ic_id            Ignored.
  * @param irq              IRQ number
  * @return                 0 if successful, else error (-1)
  */
int alt_ic_irq_enable (alt_u32 ic_id, alt_u32 irq)
{
 1813c04:	defff904 	addi	sp,sp,-28
 1813c08:	df000615 	stw	fp,24(sp)
 1813c0c:	df000604 	addi	fp,sp,24
 1813c10:	e13ffe15 	stw	r4,-8(fp)
 1813c14:	e17fff15 	stw	r5,-4(fp)
 1813c18:	e0bfff17 	ldw	r2,-4(fp)
 1813c1c:	e0bffc15 	stw	r2,-16(fp)
static ALT_INLINE alt_irq_context ALT_ALWAYS_INLINE 
       alt_irq_disable_all (void)
{
  alt_irq_context context;

  NIOS2_READ_STATUS (context);
 1813c20:	0005303a 	rdctl	r2,status
 1813c24:	e0bffb15 	stw	r2,-20(fp)

  NIOS2_WRITE_STATUS (context & ~NIOS2_STATUS_PIE_MSK);
 1813c28:	e0fffb17 	ldw	r3,-20(fp)
 1813c2c:	00bfff84 	movi	r2,-2
 1813c30:	1884703a 	and	r2,r3,r2
 1813c34:	1001703a 	wrctl	status,r2
  
  return context;
 1813c38:	e0bffb17 	ldw	r2,-20(fp)
static ALT_INLINE int ALT_ALWAYS_INLINE alt_irq_enable (alt_u32 id)
{
  alt_irq_context  status;
  extern volatile alt_u32 alt_irq_active;

  status = alt_irq_disable_all ();
 1813c3c:	e0bffd15 	stw	r2,-12(fp)

  alt_irq_active |= (1 << id);
 1813c40:	e0fffc17 	ldw	r3,-16(fp)
 1813c44:	00800044 	movi	r2,1
 1813c48:	10c4983a 	sll	r2,r2,r3
 1813c4c:	1007883a 	mov	r3,r2
 1813c50:	00806074 	movhi	r2,385
 1813c54:	109ee404 	addi	r2,r2,31632
 1813c58:	10800017 	ldw	r2,0(r2)
 1813c5c:	1886b03a 	or	r3,r3,r2
 1813c60:	00806074 	movhi	r2,385
 1813c64:	109ee404 	addi	r2,r2,31632
 1813c68:	10c00015 	stw	r3,0(r2)
  NIOS2_WRITE_IENABLE (alt_irq_active);
 1813c6c:	00806074 	movhi	r2,385
 1813c70:	109ee404 	addi	r2,r2,31632
 1813c74:	10800017 	ldw	r2,0(r2)
 1813c78:	100170fa 	wrctl	ienable,r2
 1813c7c:	e0bffd17 	ldw	r2,-12(fp)
 1813c80:	e0bffa15 	stw	r2,-24(fp)
  status &= ~NIOS2_STATUS_PIE_MSK;
  status |= (context & NIOS2_STATUS_PIE_MSK);
  
  NIOS2_WRITE_STATUS (status);
#else
  NIOS2_WRITE_STATUS (context);
 1813c84:	e0bffa17 	ldw	r2,-24(fp)
 1813c88:	1001703a 	wrctl	status,r2

  alt_irq_enable_all(status);

  return 0;
 1813c8c:	0005883a 	mov	r2,zero
    return alt_irq_enable(irq);
}
 1813c90:	e037883a 	mov	sp,fp
 1813c94:	df000017 	ldw	fp,0(sp)
 1813c98:	dec00104 	addi	sp,sp,4
 1813c9c:	f800283a 	ret

01813ca0 <alt_ic_irq_disable>:
  * @param ic_id            Ignored.
  * @param irq              IRQ number
  * @return                 0 if successful, else error (-1)
  */
int alt_ic_irq_disable(alt_u32 ic_id, alt_u32 irq)
{
 1813ca0:	defff904 	addi	sp,sp,-28
 1813ca4:	df000615 	stw	fp,24(sp)
 1813ca8:	df000604 	addi	fp,sp,24
 1813cac:	e13ffe15 	stw	r4,-8(fp)
 1813cb0:	e17fff15 	stw	r5,-4(fp)
 1813cb4:	e0bfff17 	ldw	r2,-4(fp)
 1813cb8:	e0bffc15 	stw	r2,-16(fp)
static ALT_INLINE alt_irq_context ALT_ALWAYS_INLINE 
       alt_irq_disable_all (void)
{
  alt_irq_context context;

  NIOS2_READ_STATUS (context);
 1813cbc:	0005303a 	rdctl	r2,status
 1813cc0:	e0bffb15 	stw	r2,-20(fp)

  NIOS2_WRITE_STATUS (context & ~NIOS2_STATUS_PIE_MSK);
 1813cc4:	e0fffb17 	ldw	r3,-20(fp)
 1813cc8:	00bfff84 	movi	r2,-2
 1813ccc:	1884703a 	and	r2,r3,r2
 1813cd0:	1001703a 	wrctl	status,r2
  
  return context;
 1813cd4:	e0bffb17 	ldw	r2,-20(fp)
static ALT_INLINE int ALT_ALWAYS_INLINE alt_irq_disable (alt_u32 id)
{
  alt_irq_context  status;
  extern volatile alt_u32 alt_irq_active;

  status = alt_irq_disable_all ();
 1813cd8:	e0bffd15 	stw	r2,-12(fp)

  alt_irq_active &= ~(1 << id);
 1813cdc:	e0fffc17 	ldw	r3,-16(fp)
 1813ce0:	00800044 	movi	r2,1
 1813ce4:	10c4983a 	sll	r2,r2,r3
 1813ce8:	0084303a 	nor	r2,zero,r2
 1813cec:	1007883a 	mov	r3,r2
 1813cf0:	00806074 	movhi	r2,385
 1813cf4:	109ee404 	addi	r2,r2,31632
 1813cf8:	10800017 	ldw	r2,0(r2)
 1813cfc:	1886703a 	and	r3,r3,r2
 1813d00:	00806074 	movhi	r2,385
 1813d04:	109ee404 	addi	r2,r2,31632
 1813d08:	10c00015 	stw	r3,0(r2)
  NIOS2_WRITE_IENABLE (alt_irq_active);
 1813d0c:	00806074 	movhi	r2,385
 1813d10:	109ee404 	addi	r2,r2,31632
 1813d14:	10800017 	ldw	r2,0(r2)
 1813d18:	100170fa 	wrctl	ienable,r2
 1813d1c:	e0bffd17 	ldw	r2,-12(fp)
 1813d20:	e0bffa15 	stw	r2,-24(fp)
  status &= ~NIOS2_STATUS_PIE_MSK;
  status |= (context & NIOS2_STATUS_PIE_MSK);
  
  NIOS2_WRITE_STATUS (status);
#else
  NIOS2_WRITE_STATUS (context);
 1813d24:	e0bffa17 	ldw	r2,-24(fp)
 1813d28:	1001703a 	wrctl	status,r2

  alt_irq_enable_all(status);

  return 0;
 1813d2c:	0005883a 	mov	r2,zero
    return alt_irq_disable(irq);
}
 1813d30:	e037883a 	mov	sp,fp
 1813d34:	df000017 	ldw	fp,0(sp)
 1813d38:	dec00104 	addi	sp,sp,4
 1813d3c:	f800283a 	ret

01813d40 <alt_ic_irq_enabled>:
  * @param irq              IRQ number
  * @return                 Zero if corresponding interrupt is disabled and
  *                         non-zero otherwise.
  */
alt_u32 alt_ic_irq_enabled(alt_u32 ic_id, alt_u32 irq)
{
 1813d40:	defffc04 	addi	sp,sp,-16
 1813d44:	df000315 	stw	fp,12(sp)
 1813d48:	df000304 	addi	fp,sp,12
 1813d4c:	e13ffe15 	stw	r4,-8(fp)
 1813d50:	e17fff15 	stw	r5,-4(fp)
    alt_u32 irq_enabled;

    NIOS2_READ_IENABLE(irq_enabled);
 1813d54:	000530fa 	rdctl	r2,ienable
 1813d58:	e0bffd15 	stw	r2,-12(fp)

    return (irq_enabled & (1 << irq)) ? 1: 0;
 1813d5c:	e0ffff17 	ldw	r3,-4(fp)
 1813d60:	00800044 	movi	r2,1
 1813d64:	10c4983a 	sll	r2,r2,r3
 1813d68:	1007883a 	mov	r3,r2
 1813d6c:	e0bffd17 	ldw	r2,-12(fp)
 1813d70:	1884703a 	and	r2,r3,r2
 1813d74:	1004c03a 	cmpne	r2,r2,zero
}
 1813d78:	e037883a 	mov	sp,fp
 1813d7c:	df000017 	ldw	fp,0(sp)
 1813d80:	dec00104 	addi	sp,sp,4
 1813d84:	f800283a 	ret

01813d88 <alt_iic_isr_register>:
  * @param flags            
  * @return                 0 if successful, else error (-1)
  */
int alt_iic_isr_register(alt_u32 ic_id, alt_u32 irq, alt_isr_func isr, 
  void *isr_context, void *flags)
{
 1813d88:	defff404 	addi	sp,sp,-48
 1813d8c:	dfc00b15 	stw	ra,44(sp)
 1813d90:	df000a15 	stw	fp,40(sp)
 1813d94:	df000a04 	addi	fp,sp,40
 1813d98:	e13ffb15 	stw	r4,-20(fp)
 1813d9c:	e17ffc15 	stw	r5,-16(fp)
 1813da0:	e1bffd15 	stw	r6,-12(fp)
 1813da4:	e1fffe15 	stw	r7,-8(fp)
  int rc = -EINVAL;  
 1813da8:	00bffa84 	movi	r2,-22
 1813dac:	e0bffa15 	stw	r2,-24(fp)
  int id = irq;             /* IRQ interpreted as the interrupt ID. */
 1813db0:	e0bffc17 	ldw	r2,-16(fp)
 1813db4:	e0bff915 	stw	r2,-28(fp)
  alt_irq_context status;

  if (id < ALT_NIRQ)
 1813db8:	e0bff917 	ldw	r2,-28(fp)
 1813dbc:	10800808 	cmpgei	r2,r2,32
 1813dc0:	1000291e 	bne	r2,zero,1813e68 <alt_iic_isr_register+0xe0>
static ALT_INLINE alt_irq_context ALT_ALWAYS_INLINE 
       alt_irq_disable_all (void)
{
  alt_irq_context context;

  NIOS2_READ_STATUS (context);
 1813dc4:	0005303a 	rdctl	r2,status
 1813dc8:	e0bff715 	stw	r2,-36(fp)

  NIOS2_WRITE_STATUS (context & ~NIOS2_STATUS_PIE_MSK);
 1813dcc:	e0fff717 	ldw	r3,-36(fp)
 1813dd0:	00bfff84 	movi	r2,-2
 1813dd4:	1884703a 	and	r2,r3,r2
 1813dd8:	1001703a 	wrctl	status,r2
  
  return context;
 1813ddc:	e0bff717 	ldw	r2,-36(fp)
     * interrupts are disabled while the handler tables are updated to ensure
     * that an interrupt doesn't occur while the tables are in an inconsistant
     * state.
     */

    status = alt_irq_disable_all();
 1813de0:	e0bff815 	stw	r2,-32(fp)

    alt_irq[id].handler = isr;
 1813de4:	e0bff917 	ldw	r2,-28(fp)
 1813de8:	00c06074 	movhi	r3,385
 1813dec:	18def204 	addi	r3,r3,31688
 1813df0:	100490fa 	slli	r2,r2,3
 1813df4:	10c7883a 	add	r3,r2,r3
 1813df8:	e0bffd17 	ldw	r2,-12(fp)
 1813dfc:	18800015 	stw	r2,0(r3)
    alt_irq[id].context = isr_context;
 1813e00:	e0bff917 	ldw	r2,-28(fp)
 1813e04:	00c06074 	movhi	r3,385
 1813e08:	18def204 	addi	r3,r3,31688
 1813e0c:	100490fa 	slli	r2,r2,3
 1813e10:	10c5883a 	add	r2,r2,r3
 1813e14:	10c00104 	addi	r3,r2,4
 1813e18:	e0bffe17 	ldw	r2,-8(fp)
 1813e1c:	18800015 	stw	r2,0(r3)

    rc = (isr) ? alt_ic_irq_enable(ic_id, id) : alt_ic_irq_disable(ic_id, id);
 1813e20:	e0bffd17 	ldw	r2,-12(fp)
 1813e24:	1005003a 	cmpeq	r2,r2,zero
 1813e28:	1000051e 	bne	r2,zero,1813e40 <alt_iic_isr_register+0xb8>
 1813e2c:	e17ff917 	ldw	r5,-28(fp)
 1813e30:	e13ffb17 	ldw	r4,-20(fp)
 1813e34:	1813c040 	call	1813c04 <alt_ic_irq_enable>
 1813e38:	e0bfff15 	stw	r2,-4(fp)
 1813e3c:	00000406 	br	1813e50 <alt_iic_isr_register+0xc8>
 1813e40:	e17ff917 	ldw	r5,-28(fp)
 1813e44:	e13ffb17 	ldw	r4,-20(fp)
 1813e48:	1813ca00 	call	1813ca0 <alt_ic_irq_disable>
 1813e4c:	e0bfff15 	stw	r2,-4(fp)
 1813e50:	e0bfff17 	ldw	r2,-4(fp)
 1813e54:	e0bffa15 	stw	r2,-24(fp)
 1813e58:	e0bff817 	ldw	r2,-32(fp)
 1813e5c:	e0bff615 	stw	r2,-40(fp)
  status &= ~NIOS2_STATUS_PIE_MSK;
  status |= (context & NIOS2_STATUS_PIE_MSK);
  
  NIOS2_WRITE_STATUS (status);
#else
  NIOS2_WRITE_STATUS (context);
 1813e60:	e0bff617 	ldw	r2,-40(fp)
 1813e64:	1001703a 	wrctl	status,r2

    alt_irq_enable_all(status);
  }

  return rc; 
 1813e68:	e0bffa17 	ldw	r2,-24(fp)
}
 1813e6c:	e037883a 	mov	sp,fp
 1813e70:	dfc00117 	ldw	ra,4(sp)
 1813e74:	df000017 	ldw	fp,0(sp)
 1813e78:	dec00204 	addi	sp,sp,8
 1813e7c:	f800283a 	ret

01813e80 <alt_open_fd>:
 * If the device can not be succesfully opened, then the input file descriptor
 * remains unchanged.
 */

static void alt_open_fd(alt_fd* fd, const char* name, int flags, int mode)
{
 1813e80:	defff904 	addi	sp,sp,-28
 1813e84:	dfc00615 	stw	ra,24(sp)
 1813e88:	df000515 	stw	fp,20(sp)
 1813e8c:	df000504 	addi	fp,sp,20
 1813e90:	e13ffc15 	stw	r4,-16(fp)
 1813e94:	e17ffd15 	stw	r5,-12(fp)
 1813e98:	e1bffe15 	stw	r6,-8(fp)
 1813e9c:	e1ffff15 	stw	r7,-4(fp)
  int old;

  old = open (name, flags, mode);
 1813ea0:	e13ffd17 	ldw	r4,-12(fp)
 1813ea4:	e17ffe17 	ldw	r5,-8(fp)
 1813ea8:	e1bfff17 	ldw	r6,-4(fp)
 1813eac:	18140980 	call	1814098 <open>
 1813eb0:	e0bffb15 	stw	r2,-20(fp)

  if (old >= 0)
 1813eb4:	e0bffb17 	ldw	r2,-20(fp)
 1813eb8:	1004803a 	cmplt	r2,r2,zero
 1813ebc:	10001c1e 	bne	r2,zero,1813f30 <alt_open_fd+0xb0>
  {
    fd->dev      = alt_fd_list[old].dev;
 1813ec0:	e0bffb17 	ldw	r2,-20(fp)
 1813ec4:	00c06074 	movhi	r3,385
 1813ec8:	18d99c04 	addi	r3,r3,26224
 1813ecc:	10800324 	muli	r2,r2,12
 1813ed0:	10c5883a 	add	r2,r2,r3
 1813ed4:	10c00017 	ldw	r3,0(r2)
 1813ed8:	e0bffc17 	ldw	r2,-16(fp)
 1813edc:	10c00015 	stw	r3,0(r2)
    fd->priv     = alt_fd_list[old].priv;
 1813ee0:	e0bffb17 	ldw	r2,-20(fp)
 1813ee4:	00c06074 	movhi	r3,385
 1813ee8:	18d99c04 	addi	r3,r3,26224
 1813eec:	10800324 	muli	r2,r2,12
 1813ef0:	10c5883a 	add	r2,r2,r3
 1813ef4:	10800104 	addi	r2,r2,4
 1813ef8:	10c00017 	ldw	r3,0(r2)
 1813efc:	e0bffc17 	ldw	r2,-16(fp)
 1813f00:	10c00115 	stw	r3,4(r2)
    fd->fd_flags = alt_fd_list[old].fd_flags;
 1813f04:	e0bffb17 	ldw	r2,-20(fp)
 1813f08:	00c06074 	movhi	r3,385
 1813f0c:	18d99c04 	addi	r3,r3,26224
 1813f10:	10800324 	muli	r2,r2,12
 1813f14:	10c5883a 	add	r2,r2,r3
 1813f18:	10800204 	addi	r2,r2,8
 1813f1c:	10c00017 	ldw	r3,0(r2)
 1813f20:	e0bffc17 	ldw	r2,-16(fp)
 1813f24:	10c00215 	stw	r3,8(r2)

    alt_release_fd (old);
 1813f28:	e13ffb17 	ldw	r4,-20(fp)
 1813f2c:	180f0680 	call	180f068 <alt_release_fd>
  }
} 
 1813f30:	e037883a 	mov	sp,fp
 1813f34:	dfc00117 	ldw	ra,4(sp)
 1813f38:	df000017 	ldw	fp,0(sp)
 1813f3c:	dec00204 	addi	sp,sp,8
 1813f40:	f800283a 	ret

01813f44 <alt_io_redirect>:
 */
 
void alt_io_redirect(const char* stdout_dev, 
                     const char* stdin_dev, 
                     const char* stderr_dev)
{
 1813f44:	defffb04 	addi	sp,sp,-20
 1813f48:	dfc00415 	stw	ra,16(sp)
 1813f4c:	df000315 	stw	fp,12(sp)
 1813f50:	df000304 	addi	fp,sp,12
 1813f54:	e13ffd15 	stw	r4,-12(fp)
 1813f58:	e17ffe15 	stw	r5,-8(fp)
 1813f5c:	e1bfff15 	stw	r6,-4(fp)
  /* Redirect the channels */

  alt_open_fd (&alt_fd_list[STDOUT_FILENO], stdout_dev, O_WRONLY, 0777);
 1813f60:	01006074 	movhi	r4,385
 1813f64:	21199f04 	addi	r4,r4,26236
 1813f68:	e17ffd17 	ldw	r5,-12(fp)
 1813f6c:	01800044 	movi	r6,1
 1813f70:	01c07fc4 	movi	r7,511
 1813f74:	1813e800 	call	1813e80 <alt_open_fd>
  alt_open_fd (&alt_fd_list[STDIN_FILENO], stdin_dev, O_RDONLY, 0777);
 1813f78:	01006074 	movhi	r4,385
 1813f7c:	21199c04 	addi	r4,r4,26224
 1813f80:	e17ffe17 	ldw	r5,-8(fp)
 1813f84:	000d883a 	mov	r6,zero
 1813f88:	01c07fc4 	movi	r7,511
 1813f8c:	1813e800 	call	1813e80 <alt_open_fd>
  alt_open_fd (&alt_fd_list[STDERR_FILENO], stderr_dev, O_WRONLY, 0777);
 1813f90:	01006074 	movhi	r4,385
 1813f94:	2119a204 	addi	r4,r4,26248
 1813f98:	e17fff17 	ldw	r5,-4(fp)
 1813f9c:	01800044 	movi	r6,1
 1813fa0:	01c07fc4 	movi	r7,511
 1813fa4:	1813e800 	call	1813e80 <alt_open_fd>
}  
 1813fa8:	e037883a 	mov	sp,fp
 1813fac:	dfc00117 	ldw	ra,4(sp)
 1813fb0:	df000017 	ldw	fp,0(sp)
 1813fb4:	dec00204 	addi	sp,sp,8
 1813fb8:	f800283a 	ret

01813fbc <alt_file_locked>:
 * performed for devices. Filesystems are required to handle the ioctl() call
 * themselves, and report the error from the filesystems open() function. 
 */ 

static int alt_file_locked (alt_fd* fd)
{
 1813fbc:	defffc04 	addi	sp,sp,-16
 1813fc0:	df000315 	stw	fp,12(sp)
 1813fc4:	df000304 	addi	fp,sp,12
 1813fc8:	e13ffe15 	stw	r4,-8(fp)

  /*
   * Mark the file descriptor as belonging to a device.
   */

  fd->fd_flags |= ALT_FD_DEV;
 1813fcc:	e0bffe17 	ldw	r2,-8(fp)
 1813fd0:	10800217 	ldw	r2,8(r2)
 1813fd4:	10d00034 	orhi	r3,r2,16384
 1813fd8:	e0bffe17 	ldw	r2,-8(fp)
 1813fdc:	10c00215 	stw	r3,8(r2)
  /*
   * Loop through all current file descriptors searching for one that's locked
   * for exclusive access. If a match is found, generate an error.
   */

  for (i = 0; i <= alt_max_fd; i++)
 1813fe0:	e03ffd15 	stw	zero,-12(fp)
 1813fe4:	00002006 	br	1814068 <alt_file_locked+0xac>
  {
    if ((alt_fd_list[i].dev == fd->dev) &&
 1813fe8:	e0bffd17 	ldw	r2,-12(fp)
 1813fec:	00c06074 	movhi	r3,385
 1813ff0:	18d99c04 	addi	r3,r3,26224
 1813ff4:	10800324 	muli	r2,r2,12
 1813ff8:	10c5883a 	add	r2,r2,r3
 1813ffc:	10c00017 	ldw	r3,0(r2)
 1814000:	e0bffe17 	ldw	r2,-8(fp)
 1814004:	10800017 	ldw	r2,0(r2)
 1814008:	1880141e 	bne	r3,r2,181405c <alt_file_locked+0xa0>
 181400c:	e0bffd17 	ldw	r2,-12(fp)
 1814010:	00c06074 	movhi	r3,385
 1814014:	18d99c04 	addi	r3,r3,26224
 1814018:	10800324 	muli	r2,r2,12
 181401c:	10c5883a 	add	r2,r2,r3
 1814020:	10800204 	addi	r2,r2,8
 1814024:	10800017 	ldw	r2,0(r2)
 1814028:	1004403a 	cmpge	r2,r2,zero
 181402c:	10000b1e 	bne	r2,zero,181405c <alt_file_locked+0xa0>
 1814030:	e0bffd17 	ldw	r2,-12(fp)
 1814034:	10800324 	muli	r2,r2,12
 1814038:	1007883a 	mov	r3,r2
 181403c:	00806074 	movhi	r2,385
 1814040:	10999c04 	addi	r2,r2,26224
 1814044:	1887883a 	add	r3,r3,r2
 1814048:	e0bffe17 	ldw	r2,-8(fp)
 181404c:	18800326 	beq	r3,r2,181405c <alt_file_locked+0xa0>
        (alt_fd_list[i].fd_flags & ALT_FD_EXCL) &&
        (&alt_fd_list[i] != fd))
    {
      return -EACCES;
 1814050:	00bffcc4 	movi	r2,-13
 1814054:	e0bfff15 	stw	r2,-4(fp)
 1814058:	00000a06 	br	1814084 <alt_file_locked+0xc8>
  /*
   * Loop through all current file descriptors searching for one that's locked
   * for exclusive access. If a match is found, generate an error.
   */

  for (i = 0; i <= alt_max_fd; i++)
 181405c:	e0bffd17 	ldw	r2,-12(fp)
 1814060:	10800044 	addi	r2,r2,1
 1814064:	e0bffd15 	stw	r2,-12(fp)
 1814068:	00806074 	movhi	r2,385
 181406c:	109ece04 	addi	r2,r2,31544
 1814070:	10800017 	ldw	r2,0(r2)
 1814074:	1007883a 	mov	r3,r2
 1814078:	e0bffd17 	ldw	r2,-12(fp)
 181407c:	18bfda2e 	bgeu	r3,r2,1813fe8 <alt_file_locked+0x2c>
    }
  }
  
  /* The device is not locked */
 
  return 0;
 1814080:	e03fff15 	stw	zero,-4(fp)
 1814084:	e0bfff17 	ldw	r2,-4(fp)
}
 1814088:	e037883a 	mov	sp,fp
 181408c:	df000017 	ldw	fp,0(sp)
 1814090:	dec00104 	addi	sp,sp,4
 1814094:	f800283a 	ret

01814098 <open>:
 *
 * ALT_OPEN is mapped onto the open() system call in alt_syscall.h
 */
 
int ALT_OPEN (const char* file, int flags, int mode)
{ 
 1814098:	defff404 	addi	sp,sp,-48
 181409c:	dfc00b15 	stw	ra,44(sp)
 18140a0:	df000a15 	stw	fp,40(sp)
 18140a4:	df000a04 	addi	fp,sp,40
 18140a8:	e13ffb15 	stw	r4,-20(fp)
 18140ac:	e17ffc15 	stw	r5,-16(fp)
 18140b0:	e1bffd15 	stw	r6,-12(fp)
  alt_dev* dev;
  alt_fd*  fd;
  int index  = -1;
 18140b4:	00bfffc4 	movi	r2,-1
 18140b8:	e0bff815 	stw	r2,-32(fp)
  int status = -ENODEV;
 18140bc:	00bffb44 	movi	r2,-19
 18140c0:	e0bff715 	stw	r2,-36(fp)
  int isafs = 0;
 18140c4:	e03ff615 	stw	zero,-40(fp)
  /* 
   * Check the device list, to see if a device with a matching name is 
   * registered.
   */
  
  if (!(dev = alt_find_dev (file, &alt_dev_list)))
 18140c8:	e13ffb17 	ldw	r4,-20(fp)
 18140cc:	01406074 	movhi	r5,385
 18140d0:	295ecc04 	addi	r5,r5,31536
 18140d4:	1814d040 	call	1814d04 <alt_find_dev>
 18140d8:	e0bffa15 	stw	r2,-24(fp)
 18140dc:	e0bffa17 	ldw	r2,-24(fp)
 18140e0:	1004c03a 	cmpne	r2,r2,zero
 18140e4:	1000051e 	bne	r2,zero,18140fc <open+0x64>
  {
    /* No matching device, so try the filesystem list */

    dev   = alt_find_file (file);
 18140e8:	e13ffb17 	ldw	r4,-20(fp)
 18140ec:	1814d980 	call	1814d98 <alt_find_file>
 18140f0:	e0bffa15 	stw	r2,-24(fp)
    isafs = 1;
 18140f4:	00800044 	movi	r2,1
 18140f8:	e0bff615 	stw	r2,-40(fp)

  /* 
   * If a matching device or filesystem is found, allocate a file descriptor. 
   */

  if (dev)
 18140fc:	e0bffa17 	ldw	r2,-24(fp)
 1814100:	1005003a 	cmpeq	r2,r2,zero
 1814104:	1000301e 	bne	r2,zero,18141c8 <open+0x130>
  {
    if ((index = alt_get_fd (dev)) < 0)
 1814108:	e13ffa17 	ldw	r4,-24(fp)
 181410c:	1814eb80 	call	1814eb8 <alt_get_fd>
 1814110:	e0bff815 	stw	r2,-32(fp)
 1814114:	e0bff817 	ldw	r2,-32(fp)
 1814118:	1004403a 	cmpge	r2,r2,zero
 181411c:	1000031e 	bne	r2,zero,181412c <open+0x94>
    {
      status = index;
 1814120:	e0bff817 	ldw	r2,-32(fp)
 1814124:	e0bff715 	stw	r2,-36(fp)
 1814128:	00002906 	br	18141d0 <open+0x138>
    }
    else
    {
      fd = &alt_fd_list[index];
 181412c:	e0bff817 	ldw	r2,-32(fp)
 1814130:	10800324 	muli	r2,r2,12
 1814134:	1007883a 	mov	r3,r2
 1814138:	00806074 	movhi	r2,385
 181413c:	10999c04 	addi	r2,r2,26224
 1814140:	1885883a 	add	r2,r3,r2
 1814144:	e0bff915 	stw	r2,-28(fp)
      fd->fd_flags = (flags & ~ALT_FD_FLAGS_MASK);
 1814148:	e0fffc17 	ldw	r3,-16(fp)
 181414c:	00900034 	movhi	r2,16384
 1814150:	10bfffc4 	addi	r2,r2,-1
 1814154:	1886703a 	and	r3,r3,r2
 1814158:	e0bff917 	ldw	r2,-28(fp)
 181415c:	10c00215 	stw	r3,8(r2)
      
      /* If this is a device, ensure it isn't already locked */

      if (isafs || ((status = alt_file_locked (fd)) >= 0))
 1814160:	e0bff617 	ldw	r2,-40(fp)
 1814164:	1004c03a 	cmpne	r2,r2,zero
 1814168:	1000061e 	bne	r2,zero,1814184 <open+0xec>
 181416c:	e13ff917 	ldw	r4,-28(fp)
 1814170:	1813fbc0 	call	1813fbc <alt_file_locked>
 1814174:	e0bff715 	stw	r2,-36(fp)
 1814178:	e0bff717 	ldw	r2,-36(fp)
 181417c:	1004803a 	cmplt	r2,r2,zero
 1814180:	1000131e 	bne	r2,zero,18141d0 <open+0x138>
        /* 
         * If the device or filesystem provides an open() callback function,
         * call it now to perform any device/filesystem specific operations.
         */
    
        status = (dev->open) ? dev->open(fd, file, flags, mode): 0;
 1814184:	e0bffa17 	ldw	r2,-24(fp)
 1814188:	10800317 	ldw	r2,12(r2)
 181418c:	1005003a 	cmpeq	r2,r2,zero
 1814190:	1000091e 	bne	r2,zero,18141b8 <open+0x120>
 1814194:	e0bffa17 	ldw	r2,-24(fp)
 1814198:	10800317 	ldw	r2,12(r2)
 181419c:	e13ff917 	ldw	r4,-28(fp)
 18141a0:	e17ffb17 	ldw	r5,-20(fp)
 18141a4:	e1bffc17 	ldw	r6,-16(fp)
 18141a8:	e1fffd17 	ldw	r7,-12(fp)
 18141ac:	103ee83a 	callr	r2
 18141b0:	e0bfff15 	stw	r2,-4(fp)
 18141b4:	00000106 	br	18141bc <open+0x124>
 18141b8:	e03fff15 	stw	zero,-4(fp)
 18141bc:	e0bfff17 	ldw	r2,-4(fp)
 18141c0:	e0bff715 	stw	r2,-36(fp)
 18141c4:	00000206 	br	18141d0 <open+0x138>
      }
    }
  }
  else
  {
    status = -ENODEV;
 18141c8:	00bffb44 	movi	r2,-19
 18141cc:	e0bff715 	stw	r2,-36(fp)
  }

  /* Allocation failed, so clean up and return an error */ 

  if (status < 0)
 18141d0:	e0bff717 	ldw	r2,-36(fp)
 18141d4:	1004403a 	cmpge	r2,r2,zero
 18141d8:	1000091e 	bne	r2,zero,1814200 <open+0x168>
  {
    alt_release_fd (index);  
 18141dc:	e13ff817 	ldw	r4,-32(fp)
 18141e0:	180f0680 	call	180f068 <alt_release_fd>
    ALT_ERRNO = -status;
 18141e4:	18142200 	call	1814220 <alt_get_errno>
 18141e8:	e0fff717 	ldw	r3,-36(fp)
 18141ec:	00c7c83a 	sub	r3,zero,r3
 18141f0:	10c00015 	stw	r3,0(r2)
    return -1;
 18141f4:	00bfffc4 	movi	r2,-1
 18141f8:	e0bffe15 	stw	r2,-8(fp)
 18141fc:	00000206 	br	1814208 <open+0x170>
  }
  
  /* return the reference upon success */

  return index;
 1814200:	e0bff817 	ldw	r2,-32(fp)
 1814204:	e0bffe15 	stw	r2,-8(fp)
 1814208:	e0bffe17 	ldw	r2,-8(fp)
}
 181420c:	e037883a 	mov	sp,fp
 1814210:	dfc00117 	ldw	ra,4(sp)
 1814214:	df000017 	ldw	fp,0(sp)
 1814218:	dec00204 	addi	sp,sp,8
 181421c:	f800283a 	ret

01814220 <alt_get_errno>:
#undef errno

extern int errno;

static ALT_INLINE int* alt_get_errno(void)
{
 1814220:	defffd04 	addi	sp,sp,-12
 1814224:	dfc00215 	stw	ra,8(sp)
 1814228:	df000115 	stw	fp,4(sp)
 181422c:	df000104 	addi	fp,sp,4
  return ((alt_errno) ? alt_errno() : &errno);
 1814230:	00806074 	movhi	r2,385
 1814234:	109ecf04 	addi	r2,r2,31548
 1814238:	10800017 	ldw	r2,0(r2)
 181423c:	1005003a 	cmpeq	r2,r2,zero
 1814240:	1000061e 	bne	r2,zero,181425c <alt_get_errno+0x3c>
 1814244:	00806074 	movhi	r2,385
 1814248:	109ecf04 	addi	r2,r2,31548
 181424c:	10800017 	ldw	r2,0(r2)
 1814250:	103ee83a 	callr	r2
 1814254:	e0bfff15 	stw	r2,-4(fp)
 1814258:	00000306 	br	1814268 <alt_get_errno+0x48>
 181425c:	00806074 	movhi	r2,385
 1814260:	109ede04 	addi	r2,r2,31608
 1814264:	e0bfff15 	stw	r2,-4(fp)
 1814268:	e0bfff17 	ldw	r2,-4(fp)
}
 181426c:	e037883a 	mov	sp,fp
 1814270:	dfc00117 	ldw	ra,4(sp)
 1814274:	df000017 	ldw	fp,0(sp)
 1814278:	dec00204 	addi	sp,sp,8
 181427c:	f800283a 	ret

01814280 <alt_alarm_stop>:
 * alarms. Alternatively an alarm can unregister itself by returning zero when 
 * the alarm executes.
 */

void alt_alarm_stop (alt_alarm* alarm)
{
 1814280:	defffa04 	addi	sp,sp,-24
 1814284:	df000515 	stw	fp,20(sp)
 1814288:	df000504 	addi	fp,sp,20
 181428c:	e13fff15 	stw	r4,-4(fp)
static ALT_INLINE alt_irq_context ALT_ALWAYS_INLINE 
       alt_irq_disable_all (void)
{
  alt_irq_context context;

  NIOS2_READ_STATUS (context);
 1814290:	0005303a 	rdctl	r2,status
 1814294:	e0bffd15 	stw	r2,-12(fp)

  NIOS2_WRITE_STATUS (context & ~NIOS2_STATUS_PIE_MSK);
 1814298:	e0fffd17 	ldw	r3,-12(fp)
 181429c:	00bfff84 	movi	r2,-2
 18142a0:	1884703a 	and	r2,r3,r2
 18142a4:	1001703a 	wrctl	status,r2
  
  return context;
 18142a8:	e0bffd17 	ldw	r2,-12(fp)
  alt_irq_context irq_context;

  irq_context = alt_irq_disable_all();
 18142ac:	e0bffe15 	stw	r2,-8(fp)
  alt_llist_remove (&alarm->llist);
 18142b0:	e0bfff17 	ldw	r2,-4(fp)
 18142b4:	e0bffc15 	stw	r2,-16(fp)
 * input argument is the element to remove.
 */
     
static ALT_INLINE void ALT_ALWAYS_INLINE alt_llist_remove(alt_llist* entry)
{
  entry->next->previous = entry->previous;
 18142b8:	e0bffc17 	ldw	r2,-16(fp)
 18142bc:	10c00017 	ldw	r3,0(r2)
 18142c0:	e0bffc17 	ldw	r2,-16(fp)
 18142c4:	10800117 	ldw	r2,4(r2)
 18142c8:	18800115 	stw	r2,4(r3)
  entry->previous->next = entry->next;
 18142cc:	e0bffc17 	ldw	r2,-16(fp)
 18142d0:	10c00117 	ldw	r3,4(r2)
 18142d4:	e0bffc17 	ldw	r2,-16(fp)
 18142d8:	10800017 	ldw	r2,0(r2)
 18142dc:	18800015 	stw	r2,0(r3)
  /* 
   * Set the entry to point to itself, so that any further calls to
   * alt_llist_remove() are harmless.
   */

  entry->previous = entry;
 18142e0:	e0fffc17 	ldw	r3,-16(fp)
 18142e4:	e0bffc17 	ldw	r2,-16(fp)
 18142e8:	18800115 	stw	r2,4(r3)
  entry->next     = entry;
 18142ec:	e0fffc17 	ldw	r3,-16(fp)
 18142f0:	e0bffc17 	ldw	r2,-16(fp)
 18142f4:	18800015 	stw	r2,0(r3)
 18142f8:	e0bffe17 	ldw	r2,-8(fp)
 18142fc:	e0bffb15 	stw	r2,-20(fp)
  status &= ~NIOS2_STATUS_PIE_MSK;
  status |= (context & NIOS2_STATUS_PIE_MSK);
  
  NIOS2_WRITE_STATUS (status);
#else
  NIOS2_WRITE_STATUS (context);
 1814300:	e0bffb17 	ldw	r2,-20(fp)
 1814304:	1001703a 	wrctl	status,r2
  alt_irq_enable_all (irq_context);
}
 1814308:	e037883a 	mov	sp,fp
 181430c:	df000017 	ldw	fp,0(sp)
 1814310:	dec00104 	addi	sp,sp,4
 1814314:	f800283a 	ret

01814318 <alt_tick>:
 * 
 * alt_tick() is expected to run at interrupt level.
 */

void alt_tick (void)
{
 1814318:	defffb04 	addi	sp,sp,-20
 181431c:	dfc00415 	stw	ra,16(sp)
 1814320:	df000315 	stw	fp,12(sp)
 1814324:	df000304 	addi	fp,sp,12
  alt_alarm* next;
  alt_alarm* alarm = (alt_alarm*) alt_alarm_list.next;
 1814328:	d0a01217 	ldw	r2,-32696(gp)
 181432c:	e0bffe15 	stw	r2,-8(fp)

  alt_u32    next_callback;

  /* update the tick counter */

  _alt_nticks++;
 1814330:	d0a02317 	ldw	r2,-32628(gp)
 1814334:	10800044 	addi	r2,r2,1
 1814338:	d0a02315 	stw	r2,-32628(gp)

  /* process the registered callbacks */

  while (alarm != (alt_alarm*) &alt_alarm_list)
 181433c:	00003106 	br	1814404 <alt_tick+0xec>
  {
    next = (alt_alarm*) alarm->llist.next;
 1814340:	e0bffe17 	ldw	r2,-8(fp)
 1814344:	10800017 	ldw	r2,0(r2)
 1814348:	e0bfff15 	stw	r2,-4(fp)
    /* 
     * Upon the tick-counter rolling over it is safe to clear the 
     * roll-over flag; once the flag is cleared this (or subsequnt)
     * tick events are enabled to generate an alarm event. 
     */
    if ((alarm->rollover) && (_alt_nticks == 0))
 181434c:	e0bffe17 	ldw	r2,-8(fp)
 1814350:	10800403 	ldbu	r2,16(r2)
 1814354:	10803fcc 	andi	r2,r2,255
 1814358:	1005003a 	cmpeq	r2,r2,zero
 181435c:	1000051e 	bne	r2,zero,1814374 <alt_tick+0x5c>
 1814360:	d0a02317 	ldw	r2,-32628(gp)
 1814364:	1004c03a 	cmpne	r2,r2,zero
 1814368:	1000021e 	bne	r2,zero,1814374 <alt_tick+0x5c>
    {
      alarm->rollover = 0;
 181436c:	e0bffe17 	ldw	r2,-8(fp)
 1814370:	10000405 	stb	zero,16(r2)
    }
    
    /* if the alarm period has expired, make the callback */    
    if ((alarm->time <= _alt_nticks) && (alarm->rollover == 0))
 1814374:	e0bffe17 	ldw	r2,-8(fp)
 1814378:	10c00217 	ldw	r3,8(r2)
 181437c:	d0a02317 	ldw	r2,-32628(gp)
 1814380:	10c01e36 	bltu	r2,r3,18143fc <alt_tick+0xe4>
 1814384:	e0bffe17 	ldw	r2,-8(fp)
 1814388:	10800403 	ldbu	r2,16(r2)
 181438c:	10803fcc 	andi	r2,r2,255
 1814390:	1004c03a 	cmpne	r2,r2,zero
 1814394:	1000191e 	bne	r2,zero,18143fc <alt_tick+0xe4>
    {
      next_callback = alarm->callback (alarm->context);
 1814398:	e0bffe17 	ldw	r2,-8(fp)
 181439c:	10c00317 	ldw	r3,12(r2)
 18143a0:	e0bffe17 	ldw	r2,-8(fp)
 18143a4:	11000517 	ldw	r4,20(r2)
 18143a8:	183ee83a 	callr	r3
 18143ac:	e0bffd15 	stw	r2,-12(fp)

      /* deactivate the alarm if the return value is zero */

      if (next_callback == 0)
 18143b0:	e0bffd17 	ldw	r2,-12(fp)
 18143b4:	1004c03a 	cmpne	r2,r2,zero
 18143b8:	1000031e 	bne	r2,zero,18143c8 <alt_tick+0xb0>
      {
        alt_alarm_stop (alarm);
 18143bc:	e13ffe17 	ldw	r4,-8(fp)
 18143c0:	18142800 	call	1814280 <alt_alarm_stop>
 18143c4:	00000d06 	br	18143fc <alt_tick+0xe4>
      }
      else
      {
        alarm->time += next_callback;
 18143c8:	e0bffe17 	ldw	r2,-8(fp)
 18143cc:	10c00217 	ldw	r3,8(r2)
 18143d0:	e0bffd17 	ldw	r2,-12(fp)
 18143d4:	1887883a 	add	r3,r3,r2
 18143d8:	e0bffe17 	ldw	r2,-8(fp)
 18143dc:	10c00215 	stw	r3,8(r2)
        /* 
         * If the desired alarm time causes a roll-over, set the rollover
         * flag. This will prevent the subsequent tick event from causing
         * an alarm too early.
         */
        if(alarm->time < _alt_nticks)
 18143e0:	e0bffe17 	ldw	r2,-8(fp)
 18143e4:	10c00217 	ldw	r3,8(r2)
 18143e8:	d0a02317 	ldw	r2,-32628(gp)
 18143ec:	1880032e 	bgeu	r3,r2,18143fc <alt_tick+0xe4>
        {
          alarm->rollover = 1;
 18143f0:	e0fffe17 	ldw	r3,-8(fp)
 18143f4:	00800044 	movi	r2,1
 18143f8:	18800405 	stb	r2,16(r3)
        }
      }
    }
    alarm = next;
 18143fc:	e0bfff17 	ldw	r2,-4(fp)
 1814400:	e0bffe15 	stw	r2,-8(fp)

  _alt_nticks++;

  /* process the registered callbacks */

  while (alarm != (alt_alarm*) &alt_alarm_list)
 1814404:	d0e01204 	addi	r3,gp,-32696
 1814408:	e0bffe17 	ldw	r2,-8(fp)
 181440c:	10ffcc1e 	bne	r2,r3,1814340 <alt_tick+0x28>
  /* 
   * Update the operating system specific timer facilities.
   */

  ALT_OS_TIME_TICK();
}
 1814410:	e037883a 	mov	sp,fp
 1814414:	dfc00117 	ldw	ra,4(sp)
 1814418:	df000017 	ldw	fp,0(sp)
 181441c:	dec00204 	addi	sp,sp,8
 1814420:	f800283a 	ret

01814424 <altera_nios2_irq_init>:
/*
 * To initialize the internal interrupt controller, just clear the IENABLE
 * register so that all possible IRQs are disabled.
 */
void altera_nios2_irq_init(void) 
{
 1814424:	deffff04 	addi	sp,sp,-4
 1814428:	df000015 	stw	fp,0(sp)
 181442c:	d839883a 	mov	fp,sp
    NIOS2_WRITE_IENABLE(0);
 1814430:	000170fa 	wrctl	ienable,zero
}
 1814434:	e037883a 	mov	sp,fp
 1814438:	df000017 	ldw	fp,0(sp)
 181443c:	dec00104 	addi	sp,sp,4
 1814440:	f800283a 	ret

01814444 <alt_program_amd>:
 * then writes Addr, Data Addr, Data etc.
 */
int alt_program_amd(alt_flash_dev* flash_info, int block_offset, 
                int offset, const void* src_addr, 
                int length)
{
 1814444:	defff704 	addi	sp,sp,-36
 1814448:	dfc00815 	stw	ra,32(sp)
 181444c:	df000715 	stw	fp,28(sp)
 1814450:	df000704 	addi	fp,sp,28
 1814454:	e13ffc15 	stw	r4,-16(fp)
 1814458:	e17ffd15 	stw	r5,-12(fp)
 181445c:	e1bffe15 	stw	r6,-8(fp)
 1814460:	e1ffff15 	stw	r7,-4(fp)
  int ret_code = 0;
 1814464:	e03ffb15 	stw	zero,-20(fp)
  alt_flash_cfi_dev* flash = (alt_flash_cfi_dev*)flash_info;
 1814468:	e0bffc17 	ldw	r2,-16(fp)
 181446c:	e0bffa15 	stw	r2,-24(fp)
  
  
  ret_code = alt_flash_program_block( flash, offset, src_addr, length, 
 1814470:	e1bfff17 	ldw	r6,-4(fp)
 1814474:	00806074 	movhi	r2,385
 1814478:	1091fa04 	addi	r2,r2,18408
 181447c:	d8800015 	stw	r2,0(sp)
 1814480:	e13ffa17 	ldw	r4,-24(fp)
 1814484:	e17ffe17 	ldw	r5,-8(fp)
 1814488:	e1c00217 	ldw	r7,8(fp)
 181448c:	180fa4c0 	call	180fa4c <alt_flash_program_block>
 1814490:	e0bffb15 	stw	r2,-20(fp)
                                    alt_write_word_amd);
  return ret_code;
 1814494:	e0bffb17 	ldw	r2,-20(fp)
}
 1814498:	e037883a 	mov	sp,fp
 181449c:	dfc00117 	ldw	ra,4(sp)
 18144a0:	df000017 	ldw	fp,0(sp)
 18144a4:	dec00204 	addi	sp,sp,8
 18144a8:	f800283a 	ret

018144ac <alt_erase_block_amd>:
 * alt_erase_block_amd
 * 
 * Erase the selected erase block
 */
int alt_erase_block_amd(alt_flash_dev* flash_info, int block_offset)
{
 18144ac:	defff804 	addi	sp,sp,-32
 18144b0:	dfc00715 	stw	ra,28(sp)
 18144b4:	df000615 	stw	fp,24(sp)
 18144b8:	df000604 	addi	fp,sp,24
 18144bc:	e13ffe15 	stw	r4,-8(fp)
 18144c0:	e17fff15 	stw	r5,-4(fp)
  int   ret_code = 0;
 18144c4:	e03ffc15 	stw	zero,-16(fp)
  int   timeout;
  alt_flash_cfi_dev* flash = (alt_flash_cfi_dev*)flash_info;
 18144c8:	e0bffe17 	ldw	r2,-8(fp)
 18144cc:	e0bffa15 	stw	r2,-24(fp)
  volatile alt_u8  value;

  (*flash->write_command)(flash->dev.base_addr, 0x555, (alt_u8)0xAA);
 18144d0:	e0bffa17 	ldw	r2,-24(fp)
 18144d4:	10c03317 	ldw	r3,204(r2)
 18144d8:	e0bffa17 	ldw	r2,-24(fp)
 18144dc:	11000a17 	ldw	r4,40(r2)
 18144e0:	01415544 	movi	r5,1365
 18144e4:	01802a84 	movi	r6,170
 18144e8:	183ee83a 	callr	r3
  (*flash->write_command)(flash->dev.base_addr, 0x2AA, (alt_u8)0x55);
 18144ec:	e0bffa17 	ldw	r2,-24(fp)
 18144f0:	10c03317 	ldw	r3,204(r2)
 18144f4:	e0bffa17 	ldw	r2,-24(fp)
 18144f8:	11000a17 	ldw	r4,40(r2)
 18144fc:	0140aa84 	movi	r5,682
 1814500:	01801544 	movi	r6,85
 1814504:	183ee83a 	callr	r3
  (*flash->write_command)(flash->dev.base_addr, 0x555, (alt_u8)0x80);
 1814508:	e0bffa17 	ldw	r2,-24(fp)
 181450c:	10c03317 	ldw	r3,204(r2)
 1814510:	e0bffa17 	ldw	r2,-24(fp)
 1814514:	11000a17 	ldw	r4,40(r2)
 1814518:	01415544 	movi	r5,1365
 181451c:	01802004 	movi	r6,128
 1814520:	183ee83a 	callr	r3
  (*flash->write_command)(flash->dev.base_addr, 0x555, (alt_u8)0xAA);
 1814524:	e0bffa17 	ldw	r2,-24(fp)
 1814528:	10c03317 	ldw	r3,204(r2)
 181452c:	e0bffa17 	ldw	r2,-24(fp)
 1814530:	11000a17 	ldw	r4,40(r2)
 1814534:	01415544 	movi	r5,1365
 1814538:	01802a84 	movi	r6,170
 181453c:	183ee83a 	callr	r3
  (*flash->write_command)(flash->dev.base_addr, 0x2AA, (alt_u8)0x55);
 1814540:	e0bffa17 	ldw	r2,-24(fp)
 1814544:	10c03317 	ldw	r3,204(r2)
 1814548:	e0bffa17 	ldw	r2,-24(fp)
 181454c:	11000a17 	ldw	r4,40(r2)
 1814550:	0140aa84 	movi	r5,682
 1814554:	01801544 	movi	r6,85
 1814558:	183ee83a 	callr	r3

  (*flash->write_native)((alt_u8*)flash->dev.base_addr+block_offset, 0x30);
 181455c:	e0bffa17 	ldw	r2,-24(fp)
 1814560:	11803517 	ldw	r6,212(r2)
 1814564:	e0bffa17 	ldw	r2,-24(fp)
 1814568:	10800a17 	ldw	r2,40(r2)
 181456c:	1007883a 	mov	r3,r2
 1814570:	e0bfff17 	ldw	r2,-4(fp)
 1814574:	1889883a 	add	r4,r3,r2
 1814578:	01400c04 	movi	r5,48
 181457c:	303ee83a 	callr	r6

  /*
   * Delay to meet AM29LV065D timing requirements
   */
  usleep(10000);
 1814580:	0109c404 	movi	r4,10000
 1814584:	180f1840 	call	180f184 <usleep>
  
  /*
   * Bit 3 indicates that the erase command has been accepted
   * this last 50S
   */
  timeout = 50;   
 1814588:	00800c84 	movi	r2,50
 181458c:	e0bffb15 	stw	r2,-20(fp)
  do 
  {
    value = IORD_8DIRECT((alt_u8*)flash->dev.base_addr + block_offset, 0);
 1814590:	e0bffa17 	ldw	r2,-24(fp)
 1814594:	10800a17 	ldw	r2,40(r2)
 1814598:	1007883a 	mov	r3,r2
 181459c:	e0bfff17 	ldw	r2,-4(fp)
 18145a0:	1885883a 	add	r2,r3,r2
 18145a4:	10800023 	ldbuio	r2,0(r2)
 18145a8:	e0bffd05 	stb	r2,-12(fp)
    usleep(1000);
 18145ac:	0100fa04 	movi	r4,1000
 18145b0:	180f1840 	call	180f184 <usleep>
    timeout--;
 18145b4:	e0bffb17 	ldw	r2,-20(fp)
 18145b8:	10bfffc4 	addi	r2,r2,-1
 18145bc:	e0bffb15 	stw	r2,-20(fp)
  }while(!(value & 0x8) && (timeout > 0));
 18145c0:	e0bffd03 	ldbu	r2,-12(fp)
 18145c4:	10803fcc 	andi	r2,r2,255
 18145c8:	1080020c 	andi	r2,r2,8
 18145cc:	1004c03a 	cmpne	r2,r2,zero
 18145d0:	1000031e 	bne	r2,zero,18145e0 <alt_erase_block_amd+0x134>
 18145d4:	e0bffb17 	ldw	r2,-20(fp)
 18145d8:	10800048 	cmpgei	r2,r2,1
 18145dc:	103fec1e 	bne	r2,zero,1814590 <alt_erase_block_amd+0xe4>


  timeout = flash->erase_timeout;
 18145e0:	e0bffa17 	ldw	r2,-24(fp)
 18145e4:	10803117 	ldw	r2,196(r2)
 18145e8:	e0bffb15 	stw	r2,-20(fp)
  
  /*
   *  Bit 7 goes low until the block is erased if bit 5 goes to 
   *  1 it's an error
   */
  while (timeout > 0)
 18145ec:	00001706 	br	181464c <alt_erase_block_amd+0x1a0>
  {
    value = IORD_8DIRECT((alt_u8*)flash->dev.base_addr + block_offset, 0);
 18145f0:	e0bffa17 	ldw	r2,-24(fp)
 18145f4:	10800a17 	ldw	r2,40(r2)
 18145f8:	1007883a 	mov	r3,r2
 18145fc:	e0bfff17 	ldw	r2,-4(fp)
 1814600:	1885883a 	add	r2,r3,r2
 1814604:	10800023 	ldbuio	r2,0(r2)
 1814608:	e0bffd05 	stb	r2,-12(fp)
    if ((value & 0x80) || (value &0x20))
 181460c:	e0bffd03 	ldbu	r2,-12(fp)
 1814610:	10803fcc 	andi	r2,r2,255
 1814614:	1080201c 	xori	r2,r2,128
 1814618:	10bfe004 	addi	r2,r2,-128
 181461c:	1004803a 	cmplt	r2,r2,zero
 1814620:	10000d1e 	bne	r2,zero,1814658 <alt_erase_block_amd+0x1ac>
 1814624:	e0bffd03 	ldbu	r2,-12(fp)
 1814628:	10803fcc 	andi	r2,r2,255
 181462c:	1080080c 	andi	r2,r2,32
 1814630:	1004c03a 	cmpne	r2,r2,zero
 1814634:	1000081e 	bne	r2,zero,1814658 <alt_erase_block_amd+0x1ac>
    {
      break;
    }
    usleep(1000);
 1814638:	0100fa04 	movi	r4,1000
 181463c:	180f1840 	call	180f184 <usleep>
    timeout -= 1000;
 1814640:	e0bffb17 	ldw	r2,-20(fp)
 1814644:	10bf0604 	addi	r2,r2,-1000
 1814648:	e0bffb15 	stw	r2,-20(fp)
  
  /*
   *  Bit 7 goes low until the block is erased if bit 5 goes to 
   *  1 it's an error
   */
  while (timeout > 0)
 181464c:	e0bffb17 	ldw	r2,-20(fp)
 1814650:	10800048 	cmpgei	r2,r2,1
 1814654:	103fe61e 	bne	r2,zero,18145f0 <alt_erase_block_amd+0x144>
    }
    usleep(1000);
    timeout -= 1000;
  }
  
  if (timeout <= 0)
 1814658:	e0bffb17 	ldw	r2,-20(fp)
 181465c:	10800048 	cmpgei	r2,r2,1
 1814660:	1000031e 	bne	r2,zero,1814670 <alt_erase_block_amd+0x1c4>
  {
    ret_code = -ETIMEDOUT;
 1814664:	00bfe304 	movi	r2,-116
 1814668:	e0bffc15 	stw	r2,-16(fp)
 181466c:	00000f06 	br	18146ac <alt_erase_block_amd+0x200>
  }
  else
  {
    value = IORD_8DIRECT((alt_u8*)flash->dev.base_addr + block_offset, 0);
 1814670:	e0bffa17 	ldw	r2,-24(fp)
 1814674:	10800a17 	ldw	r2,40(r2)
 1814678:	1007883a 	mov	r3,r2
 181467c:	e0bfff17 	ldw	r2,-4(fp)
 1814680:	1885883a 	add	r2,r3,r2
 1814684:	10800023 	ldbuio	r2,0(r2)
 1814688:	e0bffd05 	stb	r2,-12(fp)
    if (!(value & 0x80))
 181468c:	e0bffd03 	ldbu	r2,-12(fp)
 1814690:	10803fcc 	andi	r2,r2,255
 1814694:	1080201c 	xori	r2,r2,128
 1814698:	10bfe004 	addi	r2,r2,-128
 181469c:	1004803a 	cmplt	r2,r2,zero
 18146a0:	1000021e 	bne	r2,zero,18146ac <alt_erase_block_amd+0x200>
    {
      ret_code = -EIO;
 18146a4:	00bffec4 	movi	r2,-5
 18146a8:	e0bffc15 	stw	r2,-16(fp)
    }
  }    
  
  return ret_code;
 18146ac:	e0bffc17 	ldw	r2,-16(fp)
}
 18146b0:	e037883a 	mov	sp,fp
 18146b4:	dfc00117 	ldw	ra,4(sp)
 18146b8:	df000017 	ldw	fp,0(sp)
 18146bc:	dec00204 	addi	sp,sp,8
 18146c0:	f800283a 	ret

018146c4 <alt_wait_for_command_to_complete_amd>:
 */
 
int alt_wait_for_command_to_complete_amd(alt_flash_cfi_dev* flash,
                                         int offset, 
                                          alt_u8 data)
{
 18146c4:	defff804 	addi	sp,sp,-32
 18146c8:	dfc00715 	stw	ra,28(sp)
 18146cc:	df000615 	stw	fp,24(sp)
 18146d0:	df000604 	addi	fp,sp,24
 18146d4:	e13ffd15 	stw	r4,-12(fp)
 18146d8:	e17ffe15 	stw	r5,-8(fp)
 18146dc:	e1bfff05 	stb	r6,-4(fp)
  volatile alt_u8  value;
  int timeout = flash->write_timeout * 100;
 18146e0:	e0bffd17 	ldw	r2,-12(fp)
 18146e4:	10803017 	ldw	r2,192(r2)
 18146e8:	10801924 	muli	r2,r2,100
 18146ec:	e0bffb15 	stw	r2,-20(fp)
  int ret_code = 0;
 18146f0:	e03ffa15 	stw	zero,-24(fp)
  
  value = IORD_8DIRECT(flash->dev.base_addr, offset);
 18146f4:	e0bffd17 	ldw	r2,-12(fp)
 18146f8:	10800a17 	ldw	r2,40(r2)
 18146fc:	1007883a 	mov	r3,r2
 1814700:	e0bffe17 	ldw	r2,-8(fp)
 1814704:	1885883a 	add	r2,r3,r2
 1814708:	10800023 	ldbuio	r2,0(r2)
 181470c:	e0bffc05 	stb	r2,-16(fp)
  while (timeout > 0)
 1814710:	00001706 	br	1814770 <alt_wait_for_command_to_complete_amd+0xac>
  {
    if (((value & 0x80 ) == (data &0x80)) ||
 1814714:	e0bffc03 	ldbu	r2,-16(fp)
 1814718:	10803fcc 	andi	r2,r2,255
 181471c:	10c0200c 	andi	r3,r2,128
 1814720:	e0bfff03 	ldbu	r2,-4(fp)
 1814724:	1080200c 	andi	r2,r2,128
 1814728:	18801426 	beq	r3,r2,181477c <alt_wait_for_command_to_complete_amd+0xb8>
 181472c:	e0bffc03 	ldbu	r2,-16(fp)
 1814730:	10803fcc 	andi	r2,r2,255
 1814734:	1080080c 	andi	r2,r2,32
 1814738:	1004c03a 	cmpne	r2,r2,zero
 181473c:	10000f1e 	bne	r2,zero,181477c <alt_wait_for_command_to_complete_amd+0xb8>
        (value & 0x20))
    {
      break;
    }
    usleep (1);
 1814740:	01000044 	movi	r4,1
 1814744:	180f1840 	call	180f184 <usleep>
    timeout--;
 1814748:	e0bffb17 	ldw	r2,-20(fp)
 181474c:	10bfffc4 	addi	r2,r2,-1
 1814750:	e0bffb15 	stw	r2,-20(fp)
    value = IORD_8DIRECT(flash->dev.base_addr, offset);
 1814754:	e0bffd17 	ldw	r2,-12(fp)
 1814758:	10800a17 	ldw	r2,40(r2)
 181475c:	1007883a 	mov	r3,r2
 1814760:	e0bffe17 	ldw	r2,-8(fp)
 1814764:	1885883a 	add	r2,r3,r2
 1814768:	10800023 	ldbuio	r2,0(r2)
 181476c:	e0bffc05 	stb	r2,-16(fp)
  volatile alt_u8  value;
  int timeout = flash->write_timeout * 100;
  int ret_code = 0;
  
  value = IORD_8DIRECT(flash->dev.base_addr, offset);
  while (timeout > 0)
 1814770:	e0bffb17 	ldw	r2,-20(fp)
 1814774:	10800048 	cmpgei	r2,r2,1
 1814778:	103fe61e 	bne	r2,zero,1814714 <alt_wait_for_command_to_complete_amd+0x50>
    usleep (1);
    timeout--;
    value = IORD_8DIRECT(flash->dev.base_addr, offset);
  }
  
  if (timeout == 0)
 181477c:	e0bffb17 	ldw	r2,-20(fp)
 1814780:	1004c03a 	cmpne	r2,r2,zero
 1814784:	1000031e 	bne	r2,zero,1814794 <alt_wait_for_command_to_complete_amd+0xd0>
  {
    ret_code = -ETIMEDOUT;
 1814788:	00bfe304 	movi	r2,-116
 181478c:	e0bffa15 	stw	r2,-24(fp)
 1814790:	00000f06 	br	18147d0 <alt_wait_for_command_to_complete_amd+0x10c>
  }
  else
  {
    value = IORD_8DIRECT(flash->dev.base_addr, offset);
 1814794:	e0bffd17 	ldw	r2,-12(fp)
 1814798:	10800a17 	ldw	r2,40(r2)
 181479c:	1007883a 	mov	r3,r2
 18147a0:	e0bffe17 	ldw	r2,-8(fp)
 18147a4:	1885883a 	add	r2,r3,r2
 18147a8:	10800023 	ldbuio	r2,0(r2)
 18147ac:	e0bffc05 	stb	r2,-16(fp)
    if ((value & 0x80) != (data&0x80))
 18147b0:	e0bffc03 	ldbu	r2,-16(fp)
 18147b4:	10803fcc 	andi	r2,r2,255
 18147b8:	10c0200c 	andi	r3,r2,128
 18147bc:	e0bfff03 	ldbu	r2,-4(fp)
 18147c0:	1080200c 	andi	r2,r2,128
 18147c4:	18800226 	beq	r3,r2,18147d0 <alt_wait_for_command_to_complete_amd+0x10c>
    {
      ret_code = -EIO;
 18147c8:	00bffec4 	movi	r2,-5
 18147cc:	e0bffa15 	stw	r2,-24(fp)
    }
  }    
  return ret_code;
 18147d0:	e0bffa17 	ldw	r2,-24(fp)
}
 18147d4:	e037883a 	mov	sp,fp
 18147d8:	dfc00117 	ldw	ra,4(sp)
 18147dc:	df000017 	ldw	fp,0(sp)
 18147e0:	dec00204 	addi	sp,sp,8
 18147e4:	f800283a 	ret

018147e8 <alt_write_word_amd>:

static int alt_write_word_amd(  alt_flash_cfi_dev* flash, 
                                const int offset, 
                                const alt_u8* src_addr)
{
 18147e8:	defff904 	addi	sp,sp,-28
 18147ec:	dfc00615 	stw	ra,24(sp)
 18147f0:	df000515 	stw	fp,20(sp)
 18147f4:	df000504 	addi	fp,sp,20
 18147f8:	e13ffd15 	stw	r4,-12(fp)
 18147fc:	e17ffe15 	stw	r5,-8(fp)
 1814800:	e1bfff15 	stw	r6,-4(fp)
  int ret_code = 0;
 1814804:	e03ffc15 	stw	zero,-16(fp)
  alt_u8 value;
  (*flash->write_command)(flash->dev.base_addr, 0x555, (alt_u8)0xAA);
 1814808:	e0bffd17 	ldw	r2,-12(fp)
 181480c:	10c03317 	ldw	r3,204(r2)
 1814810:	e0bffd17 	ldw	r2,-12(fp)
 1814814:	11000a17 	ldw	r4,40(r2)
 1814818:	01415544 	movi	r5,1365
 181481c:	01802a84 	movi	r6,170
 1814820:	183ee83a 	callr	r3
  (*flash->write_command)(flash->dev.base_addr, 0x2AA, (alt_u8)0x55);
 1814824:	e0bffd17 	ldw	r2,-12(fp)
 1814828:	10c03317 	ldw	r3,204(r2)
 181482c:	e0bffd17 	ldw	r2,-12(fp)
 1814830:	11000a17 	ldw	r4,40(r2)
 1814834:	0140aa84 	movi	r5,682
 1814838:	01801544 	movi	r6,85
 181483c:	183ee83a 	callr	r3
  (*flash->write_command)(flash->dev.base_addr, 0x555, (alt_u8)0xA0);
 1814840:	e0bffd17 	ldw	r2,-12(fp)
 1814844:	10c03317 	ldw	r3,204(r2)
 1814848:	e0bffd17 	ldw	r2,-12(fp)
 181484c:	11000a17 	ldw	r4,40(r2)
 1814850:	01415544 	movi	r5,1365
 1814854:	01802804 	movi	r6,160
 1814858:	183ee83a 	callr	r3
  
  value = *src_addr;
 181485c:	e0bfff17 	ldw	r2,-4(fp)
 1814860:	10800003 	ldbu	r2,0(r2)
 1814864:	e0bffb05 	stb	r2,-20(fp)

  alt_write_value_to_flash(flash, offset, src_addr);
 1814868:	e13ffd17 	ldw	r4,-12(fp)
 181486c:	e17ffe17 	ldw	r5,-8(fp)
 1814870:	e1bfff17 	ldw	r6,-4(fp)
 1814874:	180f8e80 	call	180f8e8 <alt_write_value_to_flash>
  
  ret_code = alt_wait_for_command_to_complete_amd(flash, 
 1814878:	e1bffb03 	ldbu	r6,-20(fp)
 181487c:	e13ffd17 	ldw	r4,-12(fp)
 1814880:	e17ffe17 	ldw	r5,-8(fp)
 1814884:	18146c40 	call	18146c4 <alt_wait_for_command_to_complete_amd>
 1814888:	e0bffc15 	stw	r2,-16(fp)
                                                  offset,
                                                  value);
  return ret_code;
 181488c:	e0bffc17 	ldw	r2,-16(fp)
  
}
 1814890:	e037883a 	mov	sp,fp
 1814894:	dfc00117 	ldw	ra,4(sp)
 1814898:	df000017 	ldw	fp,0(sp)
 181489c:	dec00204 	addi	sp,sp,8
 18148a0:	f800283a 	ret

018148a4 <alt_program_intel>:
 * Program a block (or part of one)
 */
int alt_program_intel(alt_flash_dev* flash_info, int block_offset, 
                int offset, const void* src_addr, 
                int length)
{
 18148a4:	defff704 	addi	sp,sp,-36
 18148a8:	dfc00815 	stw	ra,32(sp)
 18148ac:	df000715 	stw	fp,28(sp)
 18148b0:	df000704 	addi	fp,sp,28
 18148b4:	e13ffc15 	stw	r4,-16(fp)
 18148b8:	e17ffd15 	stw	r5,-12(fp)
 18148bc:	e1bffe15 	stw	r6,-8(fp)
 18148c0:	e1ffff15 	stw	r7,-4(fp)
  int ret_code = 0;
 18148c4:	e03ffb15 	stw	zero,-20(fp)
  alt_flash_cfi_dev* flash = (alt_flash_cfi_dev*)flash_info;
 18148c8:	e0bffc17 	ldw	r2,-16(fp)
 18148cc:	e0bffa15 	stw	r2,-24(fp)
  
   /*
  * If this block is locked then unlock it
  */
  ret_code = alt_unlock_block_intel(flash, block_offset);
 18148d0:	e13ffa17 	ldw	r4,-24(fp)
 18148d4:	e17ffd17 	ldw	r5,-12(fp)
 18148d8:	1814a9c0 	call	1814a9c <alt_unlock_block_intel>
 18148dc:	e0bffb15 	stw	r2,-20(fp)

  if (!ret_code)
 18148e0:	e0bffb17 	ldw	r2,-20(fp)
 18148e4:	1004c03a 	cmpne	r2,r2,zero
 18148e8:	1000091e 	bne	r2,zero,1814910 <alt_program_intel+0x6c>
  {

    ret_code = alt_flash_program_block( flash, offset, src_addr, length, 
 18148ec:	e1bfff17 	ldw	r6,-4(fp)
 18148f0:	00806074 	movhi	r2,385
 18148f4:	10930a04 	addi	r2,r2,19496
 18148f8:	d8800015 	stw	r2,0(sp)
 18148fc:	e13ffa17 	ldw	r4,-24(fp)
 1814900:	e17ffe17 	ldw	r5,-8(fp)
 1814904:	e1c00217 	ldw	r7,8(fp)
 1814908:	180fa4c0 	call	180fa4c <alt_flash_program_block>
 181490c:	e0bffb15 	stw	r2,-20(fp)
                                        alt_write_word_intel);
  }
  
  return ret_code;
 1814910:	e0bffb17 	ldw	r2,-20(fp)
}
 1814914:	e037883a 	mov	sp,fp
 1814918:	dfc00117 	ldw	ra,4(sp)
 181491c:	df000017 	ldw	fp,0(sp)
 1814920:	dec00204 	addi	sp,sp,8
 1814924:	f800283a 	ret

01814928 <alt_erase_block_intel>:
 * alt_erase_block_intel
 * 
 * Erase the selected erase block
 */
int alt_erase_block_intel(alt_flash_dev* flash_info, int block_offset)
{
 1814928:	defff804 	addi	sp,sp,-32
 181492c:	dfc00715 	stw	ra,28(sp)
 1814930:	df000615 	stw	fp,24(sp)
 1814934:	df000604 	addi	fp,sp,24
 1814938:	e13ffe15 	stw	r4,-8(fp)
 181493c:	e17fff15 	stw	r5,-4(fp)
  int   ret_code = 0;
 1814940:	e03ffc15 	stw	zero,-16(fp)
  alt_flash_cfi_dev* flash = (alt_flash_cfi_dev*)flash_info;
 1814944:	e0bffe17 	ldw	r2,-8(fp)
 1814948:	e0bffb15 	stw	r2,-20(fp)
  volatile alt_u8  status;
  int   timeout = flash->erase_timeout;
 181494c:	e0bffb17 	ldw	r2,-20(fp)
 1814950:	10803117 	ldw	r2,196(r2)
 1814954:	e0bffa15 	stw	r2,-24(fp)

  /*
  * If this block is locked then unlock it
  */
  ret_code = alt_unlock_block_intel(flash, block_offset);
 1814958:	e13ffb17 	ldw	r4,-20(fp)
 181495c:	e17fff17 	ldw	r5,-4(fp)
 1814960:	1814a9c0 	call	1814a9c <alt_unlock_block_intel>
 1814964:	e0bffc15 	stw	r2,-16(fp)

  if (!ret_code)
 1814968:	e0bffc17 	ldw	r2,-16(fp)
 181496c:	1004c03a 	cmpne	r2,r2,zero
 1814970:	1000441e 	bne	r2,zero,1814a84 <alt_erase_block_intel+0x15c>
  {

    flash->write_native((alt_u8*)flash->dev.base_addr + block_offset, 0x20);
 1814974:	e0bffb17 	ldw	r2,-20(fp)
 1814978:	11803517 	ldw	r6,212(r2)
 181497c:	e0bffb17 	ldw	r2,-20(fp)
 1814980:	10800a17 	ldw	r2,40(r2)
 1814984:	1007883a 	mov	r3,r2
 1814988:	e0bfff17 	ldw	r2,-4(fp)
 181498c:	1889883a 	add	r4,r3,r2
 1814990:	01400804 	movi	r5,32
 1814994:	303ee83a 	callr	r6
    flash->write_native((alt_u8*)flash->dev.base_addr + block_offset, 0xD0);
 1814998:	e0bffb17 	ldw	r2,-20(fp)
 181499c:	11803517 	ldw	r6,212(r2)
 18149a0:	e0bffb17 	ldw	r2,-20(fp)
 18149a4:	10800a17 	ldw	r2,40(r2)
 18149a8:	1007883a 	mov	r3,r2
 18149ac:	e0bfff17 	ldw	r2,-4(fp)
 18149b0:	1889883a 	add	r4,r3,r2
 18149b4:	01403404 	movi	r5,208
 18149b8:	303ee83a 	callr	r6

    do
    {
      status = IORD_8DIRECT(flash->dev.base_addr, block_offset);
 18149bc:	e0bffb17 	ldw	r2,-20(fp)
 18149c0:	10800a17 	ldw	r2,40(r2)
 18149c4:	1007883a 	mov	r3,r2
 18149c8:	e0bfff17 	ldw	r2,-4(fp)
 18149cc:	1885883a 	add	r2,r3,r2
 18149d0:	10800023 	ldbuio	r2,0(r2)
 18149d4:	e0bffd05 	stb	r2,-12(fp)
      if (status & 0x80)
 18149d8:	e0bffd03 	ldbu	r2,-12(fp)
 18149dc:	10803fcc 	andi	r2,r2,255
 18149e0:	1080201c 	xori	r2,r2,128
 18149e4:	10bfe004 	addi	r2,r2,-128
 18149e8:	1004803a 	cmplt	r2,r2,zero
 18149ec:	1000081e 	bne	r2,zero,1814a10 <alt_erase_block_intel+0xe8>
      {
        break;
      }
      usleep(1000);
 18149f0:	0100fa04 	movi	r4,1000
 18149f4:	180f1840 	call	180f184 <usleep>
      timeout -= 1000;
 18149f8:	e0bffa17 	ldw	r2,-24(fp)
 18149fc:	10bf0604 	addi	r2,r2,-1000
 1814a00:	e0bffa15 	stw	r2,-24(fp)
    }while(timeout > 0);
 1814a04:	e0bffa17 	ldw	r2,-24(fp)
 1814a08:	10800048 	cmpgei	r2,r2,1
 1814a0c:	103feb1e 	bne	r2,zero,18149bc <alt_erase_block_intel+0x94>
    
    if (timeout <= 0)
 1814a10:	e0bffa17 	ldw	r2,-24(fp)
 1814a14:	10800048 	cmpgei	r2,r2,1
 1814a18:	1000031e 	bne	r2,zero,1814a28 <alt_erase_block_intel+0x100>
    {
      ret_code = -ETIMEDOUT;
 1814a1c:	00bfe304 	movi	r2,-116
 1814a20:	e0bffc15 	stw	r2,-16(fp)
 1814a24:	00000e06 	br	1814a60 <alt_erase_block_intel+0x138>
    }
    else if (status & 0x7f)
 1814a28:	e0bffd03 	ldbu	r2,-12(fp)
 1814a2c:	10803fcc 	andi	r2,r2,255
 1814a30:	10801fcc 	andi	r2,r2,127
 1814a34:	1005003a 	cmpeq	r2,r2,zero
 1814a38:	1000091e 	bne	r2,zero,1814a60 <alt_erase_block_intel+0x138>
    {
      /* If we have an error of some kind bomb out */
      ret_code = -EIO;
 1814a3c:	00bffec4 	movi	r2,-5
 1814a40:	e0bffc15 	stw	r2,-16(fp)
      status = IORD_8DIRECT(flash->dev.base_addr, block_offset);
 1814a44:	e0bffb17 	ldw	r2,-20(fp)
 1814a48:	10800a17 	ldw	r2,40(r2)
 1814a4c:	1007883a 	mov	r3,r2
 1814a50:	e0bfff17 	ldw	r2,-4(fp)
 1814a54:	1885883a 	add	r2,r3,r2
 1814a58:	10800023 	ldbuio	r2,0(r2)
 1814a5c:	e0bffd05 	stb	r2,-12(fp)
    }

    /* Put the device back into read array mode */
    flash->write_native((alt_u8*)flash->dev.base_addr + block_offset, 0xFF);
 1814a60:	e0bffb17 	ldw	r2,-20(fp)
 1814a64:	11803517 	ldw	r6,212(r2)
 1814a68:	e0bffb17 	ldw	r2,-20(fp)
 1814a6c:	10800a17 	ldw	r2,40(r2)
 1814a70:	1007883a 	mov	r3,r2
 1814a74:	e0bfff17 	ldw	r2,-4(fp)
 1814a78:	1889883a 	add	r4,r3,r2
 1814a7c:	01403fc4 	movi	r5,255
 1814a80:	303ee83a 	callr	r6
  }
  
  return ret_code;
 1814a84:	e0bffc17 	ldw	r2,-16(fp)
}
 1814a88:	e037883a 	mov	sp,fp
 1814a8c:	dfc00117 	ldw	ra,4(sp)
 1814a90:	df000017 	ldw	fp,0(sp)
 1814a94:	dec00204 	addi	sp,sp,8
 1814a98:	f800283a 	ret

01814a9c <alt_unlock_block_intel>:
/*
* Private Intel specific functions
*/

static int alt_unlock_block_intel(alt_flash_cfi_dev* flash, int block_offset)
{
 1814a9c:	defff904 	addi	sp,sp,-28
 1814aa0:	dfc00615 	stw	ra,24(sp)
 1814aa4:	df000515 	stw	fp,20(sp)
 1814aa8:	df000504 	addi	fp,sp,20
 1814aac:	e13ffe15 	stw	r4,-8(fp)
 1814ab0:	e17fff15 	stw	r5,-4(fp)
  alt_u8  locked;
  alt_u8  status;
  int ret_code = 0;
 1814ab4:	e03ffc15 	stw	zero,-16(fp)
  int timeout = flash->write_timeout * 100;
 1814ab8:	e0bffe17 	ldw	r2,-8(fp)
 1814abc:	10803017 	ldw	r2,192(r2)
 1814ac0:	10801924 	muli	r2,r2,100
 1814ac4:	e0bffb15 	stw	r2,-20(fp)


  /*
  * Is this block locked?
  */
  flash->write_native((alt_u8*)flash->dev.base_addr + block_offset, 0x90);
 1814ac8:	e0bffe17 	ldw	r2,-8(fp)
 1814acc:	11803517 	ldw	r6,212(r2)
 1814ad0:	e0bffe17 	ldw	r2,-8(fp)
 1814ad4:	10800a17 	ldw	r2,40(r2)
 1814ad8:	1007883a 	mov	r3,r2
 1814adc:	e0bfff17 	ldw	r2,-4(fp)
 1814ae0:	1889883a 	add	r4,r3,r2
 1814ae4:	01402404 	movi	r5,144
 1814ae8:	303ee83a 	callr	r6
  locked = IORD_8DIRECT(flash->dev.base_addr, block_offset + 4);
 1814aec:	e0bffe17 	ldw	r2,-8(fp)
 1814af0:	10800a17 	ldw	r2,40(r2)
 1814af4:	1007883a 	mov	r3,r2
 1814af8:	e0bfff17 	ldw	r2,-4(fp)
 1814afc:	1885883a 	add	r2,r3,r2
 1814b00:	10800104 	addi	r2,r2,4
 1814b04:	10800023 	ldbuio	r2,0(r2)
 1814b08:	e0bffd45 	stb	r2,-11(fp)
  if (locked & 0x1)
 1814b0c:	e0bffd43 	ldbu	r2,-11(fp)
 1814b10:	1080004c 	andi	r2,r2,1
 1814b14:	10803fcc 	andi	r2,r2,255
 1814b18:	1005003a 	cmpeq	r2,r2,zero
 1814b1c:	1000331e 	bne	r2,zero,1814bec <alt_unlock_block_intel+0x150>
  {
    flash->write_native((alt_u8*)flash->dev.base_addr + block_offset, 0x60);
 1814b20:	e0bffe17 	ldw	r2,-8(fp)
 1814b24:	11803517 	ldw	r6,212(r2)
 1814b28:	e0bffe17 	ldw	r2,-8(fp)
 1814b2c:	10800a17 	ldw	r2,40(r2)
 1814b30:	1007883a 	mov	r3,r2
 1814b34:	e0bfff17 	ldw	r2,-4(fp)
 1814b38:	1889883a 	add	r4,r3,r2
 1814b3c:	01401804 	movi	r5,96
 1814b40:	303ee83a 	callr	r6
    flash->write_native((alt_u8*)flash->dev.base_addr + block_offset, 0xD0);
 1814b44:	e0bffe17 	ldw	r2,-8(fp)
 1814b48:	11803517 	ldw	r6,212(r2)
 1814b4c:	e0bffe17 	ldw	r2,-8(fp)
 1814b50:	10800a17 	ldw	r2,40(r2)
 1814b54:	1007883a 	mov	r3,r2
 1814b58:	e0bfff17 	ldw	r2,-4(fp)
 1814b5c:	1889883a 	add	r4,r3,r2
 1814b60:	01403404 	movi	r5,208
 1814b64:	303ee83a 	callr	r6

    do
    {
      status = IORD_8DIRECT(flash->dev.base_addr, block_offset);
 1814b68:	e0bffe17 	ldw	r2,-8(fp)
 1814b6c:	10800a17 	ldw	r2,40(r2)
 1814b70:	1007883a 	mov	r3,r2
 1814b74:	e0bfff17 	ldw	r2,-4(fp)
 1814b78:	1885883a 	add	r2,r3,r2
 1814b7c:	10800023 	ldbuio	r2,0(r2)
 1814b80:	e0bffd05 	stb	r2,-12(fp)
      if (status & 0x80)
 1814b84:	e0bffd03 	ldbu	r2,-12(fp)
 1814b88:	10803fcc 	andi	r2,r2,255
 1814b8c:	1080201c 	xori	r2,r2,128
 1814b90:	10bfe004 	addi	r2,r2,-128
 1814b94:	1004803a 	cmplt	r2,r2,zero
 1814b98:	1000081e 	bne	r2,zero,1814bbc <alt_unlock_block_intel+0x120>
      {
        break;
      }
      timeout--;
 1814b9c:	e0bffb17 	ldw	r2,-20(fp)
 1814ba0:	10bfffc4 	addi	r2,r2,-1
 1814ba4:	e0bffb15 	stw	r2,-20(fp)
      usleep(1);
 1814ba8:	01000044 	movi	r4,1
 1814bac:	180f1840 	call	180f184 <usleep>
    }while(timeout > 0);
 1814bb0:	e0bffb17 	ldw	r2,-20(fp)
 1814bb4:	10800048 	cmpgei	r2,r2,1
 1814bb8:	103feb1e 	bne	r2,zero,1814b68 <alt_unlock_block_intel+0xcc>

    if (timeout == 0)
 1814bbc:	e0bffb17 	ldw	r2,-20(fp)
 1814bc0:	1004c03a 	cmpne	r2,r2,zero
 1814bc4:	1000031e 	bne	r2,zero,1814bd4 <alt_unlock_block_intel+0x138>
    {
      ret_code = -ETIMEDOUT;
 1814bc8:	00bfe304 	movi	r2,-116
 1814bcc:	e0bffc15 	stw	r2,-16(fp)
 1814bd0:	00000606 	br	1814bec <alt_unlock_block_intel+0x150>
    }
    else if (status & 0x7f)
 1814bd4:	e0bffd03 	ldbu	r2,-12(fp)
 1814bd8:	10801fcc 	andi	r2,r2,127
 1814bdc:	1005003a 	cmpeq	r2,r2,zero
 1814be0:	1000021e 	bne	r2,zero,1814bec <alt_unlock_block_intel+0x150>
    {
      /* If we have an error of some kind bomb out */
      ret_code = -EIO;
 1814be4:	00bffec4 	movi	r2,-5
 1814be8:	e0bffc15 	stw	r2,-16(fp)
  }

  /*
  * Back to Read Array mode
  */
  flash->write_native((alt_u8*)flash->dev.base_addr + block_offset, 0xFF);
 1814bec:	e0bffe17 	ldw	r2,-8(fp)
 1814bf0:	11803517 	ldw	r6,212(r2)
 1814bf4:	e0bffe17 	ldw	r2,-8(fp)
 1814bf8:	10800a17 	ldw	r2,40(r2)
 1814bfc:	1007883a 	mov	r3,r2
 1814c00:	e0bfff17 	ldw	r2,-4(fp)
 1814c04:	1889883a 	add	r4,r3,r2
 1814c08:	01403fc4 	movi	r5,255
 1814c0c:	303ee83a 	callr	r6

  return ret_code;
 1814c10:	e0bffc17 	ldw	r2,-16(fp)
}
 1814c14:	e037883a 	mov	sp,fp
 1814c18:	dfc00117 	ldw	ra,4(sp)
 1814c1c:	df000017 	ldw	fp,0(sp)
 1814c20:	dec00204 	addi	sp,sp,8
 1814c24:	f800283a 	ret

01814c28 <alt_write_word_intel>:
 * offset bytes into the flash
 */
 
int alt_write_word_intel( alt_flash_cfi_dev* flash, 
                                  const int offset, const alt_u8* src_addr)
{ 
 1814c28:	defff904 	addi	sp,sp,-28
 1814c2c:	dfc00615 	stw	ra,24(sp)
 1814c30:	df000515 	stw	fp,20(sp)
 1814c34:	df000504 	addi	fp,sp,20
 1814c38:	e13ffd15 	stw	r4,-12(fp)
 1814c3c:	e17ffe15 	stw	r5,-8(fp)
 1814c40:	e1bfff15 	stw	r6,-4(fp)
  int ret_code = 0;
 1814c44:	e03ffc15 	stw	zero,-16(fp)
  alt_u8 status;
  (*flash->write_native)((alt_u8*)flash->dev.base_addr+offset, 0x40);
 1814c48:	e0bffd17 	ldw	r2,-12(fp)
 1814c4c:	11803517 	ldw	r6,212(r2)
 1814c50:	e0bffd17 	ldw	r2,-12(fp)
 1814c54:	10800a17 	ldw	r2,40(r2)
 1814c58:	1007883a 	mov	r3,r2
 1814c5c:	e0bffe17 	ldw	r2,-8(fp)
 1814c60:	1889883a 	add	r4,r3,r2
 1814c64:	01401004 	movi	r5,64
 1814c68:	303ee83a 	callr	r6
  alt_write_value_to_flash(flash, offset, src_addr);
 1814c6c:	e13ffd17 	ldw	r4,-12(fp)
 1814c70:	e17ffe17 	ldw	r5,-8(fp)
 1814c74:	e1bfff17 	ldw	r6,-4(fp)
 1814c78:	180f8e80 	call	180f8e8 <alt_write_value_to_flash>

  do
  {
    status = IORD_8DIRECT(flash->dev.base_addr, offset);
 1814c7c:	e0bffd17 	ldw	r2,-12(fp)
 1814c80:	10800a17 	ldw	r2,40(r2)
 1814c84:	1007883a 	mov	r3,r2
 1814c88:	e0bffe17 	ldw	r2,-8(fp)
 1814c8c:	1885883a 	add	r2,r3,r2
 1814c90:	10800023 	ldbuio	r2,0(r2)
 1814c94:	e0bffb05 	stb	r2,-20(fp)
  }while(!(status & 0x80));
 1814c98:	e0bffb03 	ldbu	r2,-20(fp)
 1814c9c:	10803fcc 	andi	r2,r2,255
 1814ca0:	1080201c 	xori	r2,r2,128
 1814ca4:	10bfe004 	addi	r2,r2,-128
 1814ca8:	1004403a 	cmpge	r2,r2,zero
 1814cac:	103ff31e 	bne	r2,zero,1814c7c <alt_write_word_intel+0x54>

  /* If we have an error of some kind bomb out */
  if (status & 0x7f)
 1814cb0:	e0bffb03 	ldbu	r2,-20(fp)
 1814cb4:	10801fcc 	andi	r2,r2,127
 1814cb8:	1005003a 	cmpeq	r2,r2,zero
 1814cbc:	1000021e 	bne	r2,zero,1814cc8 <alt_write_word_intel+0xa0>
  {
    ret_code = -EIO;
 1814cc0:	00bffec4 	movi	r2,-5
 1814cc4:	e0bffc15 	stw	r2,-16(fp)
  }

  /* Put the device back into read array mode */
  flash->write_native((alt_u8*)flash->dev.base_addr + offset, 0xFF);
 1814cc8:	e0bffd17 	ldw	r2,-12(fp)
 1814ccc:	11803517 	ldw	r6,212(r2)
 1814cd0:	e0bffd17 	ldw	r2,-12(fp)
 1814cd4:	10800a17 	ldw	r2,40(r2)
 1814cd8:	1007883a 	mov	r3,r2
 1814cdc:	e0bffe17 	ldw	r2,-8(fp)
 1814ce0:	1889883a 	add	r4,r3,r2
 1814ce4:	01403fc4 	movi	r5,255
 1814ce8:	303ee83a 	callr	r6
  
  return ret_code;
 1814cec:	e0bffc17 	ldw	r2,-16(fp)
}
 1814cf0:	e037883a 	mov	sp,fp
 1814cf4:	dfc00117 	ldw	ra,4(sp)
 1814cf8:	df000017 	ldw	fp,0(sp)
 1814cfc:	dec00204 	addi	sp,sp,8
 1814d00:	f800283a 	ret

01814d04 <alt_find_dev>:
 * "name" must be an exact match for the devices registered name for a match to
 * be found.
 */
 
alt_dev* alt_find_dev(const char* name, alt_llist* llist)
{
 1814d04:	defff904 	addi	sp,sp,-28
 1814d08:	dfc00615 	stw	ra,24(sp)
 1814d0c:	df000515 	stw	fp,20(sp)
 1814d10:	df000504 	addi	fp,sp,20
 1814d14:	e13ffd15 	stw	r4,-12(fp)
 1814d18:	e17ffe15 	stw	r5,-8(fp)
  alt_dev* next = (alt_dev*) llist->next;
 1814d1c:	e0bffe17 	ldw	r2,-8(fp)
 1814d20:	10800017 	ldw	r2,0(r2)
 1814d24:	e0bffc15 	stw	r2,-16(fp)
  alt_32 len;

  len  = strlen(name) + 1;
 1814d28:	e13ffd17 	ldw	r4,-12(fp)
 1814d2c:	180d6600 	call	180d660 <strlen>
 1814d30:	10800044 	addi	r2,r2,1
 1814d34:	e0bffb15 	stw	r2,-20(fp)
  /*
   * Check each list entry in turn, until a match is found, or we reach the
   * end of the list (i.e. next winds up pointing back to the list head).
   */ 

  while (next != (alt_dev*) llist)
 1814d38:	00000d06 	br	1814d70 <alt_find_dev+0x6c>
    /* 
     * memcmp() is used here rather than strcmp() in order to reduce the size
     * of the executable.
     */

    if (!memcmp (next->name, name, len))
 1814d3c:	e0bffc17 	ldw	r2,-16(fp)
 1814d40:	11000217 	ldw	r4,8(r2)
 1814d44:	e1bffb17 	ldw	r6,-20(fp)
 1814d48:	e17ffd17 	ldw	r5,-12(fp)
 1814d4c:	18150980 	call	1815098 <memcmp>
 1814d50:	1004c03a 	cmpne	r2,r2,zero
 1814d54:	1000031e 	bne	r2,zero,1814d64 <alt_find_dev+0x60>
    {
      /* match found */

      return next;
 1814d58:	e0bffc17 	ldw	r2,-16(fp)
 1814d5c:	e0bfff15 	stw	r2,-4(fp)
 1814d60:	00000706 	br	1814d80 <alt_find_dev+0x7c>
    }
    next = (alt_dev*) next->llist.next;
 1814d64:	e0bffc17 	ldw	r2,-16(fp)
 1814d68:	10800017 	ldw	r2,0(r2)
 1814d6c:	e0bffc15 	stw	r2,-16(fp)
  /*
   * Check each list entry in turn, until a match is found, or we reach the
   * end of the list (i.e. next winds up pointing back to the list head).
   */ 

  while (next != (alt_dev*) llist)
 1814d70:	e0fffe17 	ldw	r3,-8(fp)
 1814d74:	e0bffc17 	ldw	r2,-16(fp)
 1814d78:	10fff01e 	bne	r2,r3,1814d3c <alt_find_dev+0x38>
    next = (alt_dev*) next->llist.next;
  }
  
  /* No match found */
  
  return NULL;
 1814d7c:	e03fff15 	stw	zero,-4(fp)
 1814d80:	e0bfff17 	ldw	r2,-4(fp)
}
 1814d84:	e037883a 	mov	sp,fp
 1814d88:	dfc00117 	ldw	ra,4(sp)
 1814d8c:	df000017 	ldw	fp,0(sp)
 1814d90:	dec00204 	addi	sp,sp,8
 1814d94:	f800283a 	ret

01814d98 <alt_find_file>:
 * either '/' or '\0' is the prefix of the filename. For example the filename:
 * "/myfilesystem/junk.txt" would match: "/myfilesystem", but not: "/myfile". 
 */
 
alt_dev* alt_find_file (const char* name)
{
 1814d98:	defffa04 	addi	sp,sp,-24
 1814d9c:	dfc00515 	stw	ra,20(sp)
 1814da0:	df000415 	stw	fp,16(sp)
 1814da4:	df000404 	addi	fp,sp,16
 1814da8:	e13ffe15 	stw	r4,-8(fp)
  alt_dev* next = (alt_dev*) alt_fs_list.next;   
 1814dac:	00806074 	movhi	r2,385
 1814db0:	109eca04 	addi	r2,r2,31528
 1814db4:	10800017 	ldw	r2,0(r2)
 1814db8:	e0bffd15 	stw	r2,-12(fp)
  /*
   * Check each list entry in turn, until a match is found, or we reach the
   * end of the list (i.e. next winds up pointing back to the list head).
   */ 
 
  while (next != (alt_dev*) &alt_fs_list)
 1814dbc:	00003306 	br	1814e8c <alt_find_file+0xf4>
  {
    len = strlen(next->name);
 1814dc0:	e0bffd17 	ldw	r2,-12(fp)
 1814dc4:	11000217 	ldw	r4,8(r2)
 1814dc8:	180d6600 	call	180d660 <strlen>
 1814dcc:	e0bffc15 	stw	r2,-16(fp)
    
    if (next->name[len-1] == '/')
 1814dd0:	e0bffd17 	ldw	r2,-12(fp)
 1814dd4:	10c00217 	ldw	r3,8(r2)
 1814dd8:	e0bffc17 	ldw	r2,-16(fp)
 1814ddc:	1885883a 	add	r2,r3,r2
 1814de0:	10bfffc4 	addi	r2,r2,-1
 1814de4:	10800003 	ldbu	r2,0(r2)
 1814de8:	10803fcc 	andi	r2,r2,255
 1814dec:	1080201c 	xori	r2,r2,128
 1814df0:	10bfe004 	addi	r2,r2,-128
 1814df4:	10800bd8 	cmpnei	r2,r2,47
 1814df8:	1000031e 	bne	r2,zero,1814e08 <alt_find_file+0x70>
    {
      len -= 1;
 1814dfc:	e0bffc17 	ldw	r2,-16(fp)
 1814e00:	10bfffc4 	addi	r2,r2,-1
 1814e04:	e0bffc15 	stw	r2,-16(fp)
    }

    if (((name[len] == '/') || (name[len] == '\0')) && 
 1814e08:	e0bffc17 	ldw	r2,-16(fp)
 1814e0c:	1007883a 	mov	r3,r2
 1814e10:	e0bffe17 	ldw	r2,-8(fp)
 1814e14:	1885883a 	add	r2,r3,r2
 1814e18:	10800003 	ldbu	r2,0(r2)
 1814e1c:	10803fcc 	andi	r2,r2,255
 1814e20:	1080201c 	xori	r2,r2,128
 1814e24:	10bfe004 	addi	r2,r2,-128
 1814e28:	10800be0 	cmpeqi	r2,r2,47
 1814e2c:	10000a1e 	bne	r2,zero,1814e58 <alt_find_file+0xc0>
 1814e30:	e0bffc17 	ldw	r2,-16(fp)
 1814e34:	1007883a 	mov	r3,r2
 1814e38:	e0bffe17 	ldw	r2,-8(fp)
 1814e3c:	1885883a 	add	r2,r3,r2
 1814e40:	10800003 	ldbu	r2,0(r2)
 1814e44:	10803fcc 	andi	r2,r2,255
 1814e48:	1080201c 	xori	r2,r2,128
 1814e4c:	10bfe004 	addi	r2,r2,-128
 1814e50:	1004c03a 	cmpne	r2,r2,zero
 1814e54:	10000a1e 	bne	r2,zero,1814e80 <alt_find_file+0xe8>
 1814e58:	e0bffd17 	ldw	r2,-12(fp)
 1814e5c:	11000217 	ldw	r4,8(r2)
 1814e60:	e1bffc17 	ldw	r6,-16(fp)
 1814e64:	e17ffe17 	ldw	r5,-8(fp)
 1814e68:	18150980 	call	1815098 <memcmp>
 1814e6c:	1004c03a 	cmpne	r2,r2,zero
 1814e70:	1000031e 	bne	r2,zero,1814e80 <alt_find_file+0xe8>
        !memcmp (next->name, name, len))
    {
      /* match found */

      return next;
 1814e74:	e0bffd17 	ldw	r2,-12(fp)
 1814e78:	e0bfff15 	stw	r2,-4(fp)
 1814e7c:	00000806 	br	1814ea0 <alt_find_file+0x108>
    }
    next = (alt_dev*) next->llist.next;
 1814e80:	e0bffd17 	ldw	r2,-12(fp)
 1814e84:	10800017 	ldw	r2,0(r2)
 1814e88:	e0bffd15 	stw	r2,-12(fp)
  /*
   * Check each list entry in turn, until a match is found, or we reach the
   * end of the list (i.e. next winds up pointing back to the list head).
   */ 
 
  while (next != (alt_dev*) &alt_fs_list)
 1814e8c:	00c06074 	movhi	r3,385
 1814e90:	18deca04 	addi	r3,r3,31528
 1814e94:	e0bffd17 	ldw	r2,-12(fp)
 1814e98:	10ffc91e 	bne	r2,r3,1814dc0 <alt_find_file+0x28>
    next = (alt_dev*) next->llist.next;
  }
  
  /* No match found */
  
  return NULL;     
 1814e9c:	e03fff15 	stw	zero,-4(fp)
 1814ea0:	e0bfff17 	ldw	r2,-4(fp)
}
 1814ea4:	e037883a 	mov	sp,fp
 1814ea8:	dfc00117 	ldw	ra,4(sp)
 1814eac:	df000017 	ldw	fp,0(sp)
 1814eb0:	dec00204 	addi	sp,sp,8
 1814eb4:	f800283a 	ret

01814eb8 <alt_get_fd>:
 * the offset of the file descriptor within the file descriptor array). A
 * negative value indicates failure.
 */

int alt_get_fd (alt_dev* dev)
{
 1814eb8:	defffc04 	addi	sp,sp,-16
 1814ebc:	df000315 	stw	fp,12(sp)
 1814ec0:	df000304 	addi	fp,sp,12
 1814ec4:	e13fff15 	stw	r4,-4(fp)
  alt_32 i;
  int rc = -EMFILE;
 1814ec8:	00bffa04 	movi	r2,-24
 1814ecc:	e0bffd15 	stw	r2,-12(fp)
   * indicates the highest file descriptor ever allocated. This is used to
   * improve efficency when searching the file descriptor list, and 
   * therefore reduce contention on the alt_fd_list_lock semaphore. 
   */

  for (i = 0; i < ALT_MAX_FD; i++)
 1814ed0:	e03ffe15 	stw	zero,-8(fp)
 1814ed4:	00001e06 	br	1814f50 <alt_get_fd+0x98>
  {
    if (!alt_fd_list[i].dev)
 1814ed8:	e0bffe17 	ldw	r2,-8(fp)
 1814edc:	00c06074 	movhi	r3,385
 1814ee0:	18d99c04 	addi	r3,r3,26224
 1814ee4:	10800324 	muli	r2,r2,12
 1814ee8:	10c5883a 	add	r2,r2,r3
 1814eec:	10800017 	ldw	r2,0(r2)
 1814ef0:	1004c03a 	cmpne	r2,r2,zero
 1814ef4:	1000131e 	bne	r2,zero,1814f44 <alt_get_fd+0x8c>
    {
      alt_fd_list[i].dev = dev;
 1814ef8:	e0bffe17 	ldw	r2,-8(fp)
 1814efc:	00c06074 	movhi	r3,385
 1814f00:	18d99c04 	addi	r3,r3,26224
 1814f04:	10800324 	muli	r2,r2,12
 1814f08:	10c7883a 	add	r3,r2,r3
 1814f0c:	e0bfff17 	ldw	r2,-4(fp)
 1814f10:	18800015 	stw	r2,0(r3)
      if (i > alt_max_fd)
 1814f14:	00806074 	movhi	r2,385
 1814f18:	109ece04 	addi	r2,r2,31544
 1814f1c:	10c00017 	ldw	r3,0(r2)
 1814f20:	e0bffe17 	ldw	r2,-8(fp)
 1814f24:	1880040e 	bge	r3,r2,1814f38 <alt_get_fd+0x80>
      {
        alt_max_fd = i;
 1814f28:	00c06074 	movhi	r3,385
 1814f2c:	18dece04 	addi	r3,r3,31544
 1814f30:	e0bffe17 	ldw	r2,-8(fp)
 1814f34:	18800015 	stw	r2,0(r3)
      }
      rc = i;
 1814f38:	e0bffe17 	ldw	r2,-8(fp)
 1814f3c:	e0bffd15 	stw	r2,-12(fp)
      goto alt_get_fd_exit;
 1814f40:	00000606 	br	1814f5c <alt_get_fd+0xa4>
   * indicates the highest file descriptor ever allocated. This is used to
   * improve efficency when searching the file descriptor list, and 
   * therefore reduce contention on the alt_fd_list_lock semaphore. 
   */

  for (i = 0; i < ALT_MAX_FD; i++)
 1814f44:	e0bffe17 	ldw	r2,-8(fp)
 1814f48:	10800044 	addi	r2,r2,1
 1814f4c:	e0bffe15 	stw	r2,-8(fp)
 1814f50:	e0bffe17 	ldw	r2,-8(fp)
 1814f54:	10800810 	cmplti	r2,r2,32
 1814f58:	103fdf1e 	bne	r2,zero,1814ed8 <alt_get_fd+0x20>
   * file descriptor pool.
   */

  ALT_SEM_POST(alt_fd_list_lock);

  return rc;
 1814f5c:	e0bffd17 	ldw	r2,-12(fp)
}
 1814f60:	e037883a 	mov	sp,fp
 1814f64:	df000017 	ldw	fp,0(sp)
 1814f68:	dec00104 	addi	sp,sp,4
 1814f6c:	f800283a 	ret

01814f70 <alt_exception_cause_generated_bad_addr>:
 *
 * Return: 1: BADADDR (bad_addr argument to handler) is valid
 *         0: BADADDR is not valid
 */
int alt_exception_cause_generated_bad_addr(alt_exception_cause cause)
{
 1814f70:	defffc04 	addi	sp,sp,-16
 1814f74:	df000315 	stw	fp,12(sp)
 1814f78:	df000304 	addi	fp,sp,12
 1814f7c:	e13ffd15 	stw	r4,-12(fp)
  switch (cause) {
 1814f80:	e0bffd17 	ldw	r2,-12(fp)
 1814f84:	10bffe84 	addi	r2,r2,-6
 1814f88:	e0bfff15 	stw	r2,-4(fp)
 1814f8c:	e0ffff17 	ldw	r3,-4(fp)
 1814f90:	18800328 	cmpgeui	r2,r3,12
 1814f94:	1000271e 	bne	r2,zero,1815034 <alt_exception_cause_generated_bad_addr+0xc4>
 1814f98:	e13fff17 	ldw	r4,-4(fp)
 1814f9c:	e13fff17 	ldw	r4,-4(fp)
 1814fa0:	2105883a 	add	r2,r4,r4
 1814fa4:	1087883a 	add	r3,r2,r2
 1814fa8:	00806074 	movhi	r2,385
 1814fac:	1093ef04 	addi	r2,r2,20412
 1814fb0:	1885883a 	add	r2,r3,r2
 1814fb4:	10800017 	ldw	r2,0(r2)
 1814fb8:	1000683a 	jmp	r2
 1814fbc:	01814ff8 	rdprs	r6,zero,1343
 1814fc0:	01815004 	movi	r6,1344
 1814fc4:	01815034 	movhi	r6,1344
 1814fc8:	01815034 	movhi	r6,1344
 1814fcc:	01815034 	movhi	r6,1344
 1814fd0:	01814fec 	andhi	r6,zero,1343
 1814fd4:	01815034 	movhi	r6,1344
 1814fd8:	01815034 	movhi	r6,1344
 1814fdc:	01815010 	cmplti	r6,zero,1344
 1814fe0:	0181501c 	xori	r6,zero,1344
 1814fe4:	01815034 	movhi	r6,1344
 1814fe8:	01815028 	cmpgeui	r6,zero,1344
  case NIOS2_EXCEPTION_SUPERVISOR_ONLY_DATA_ADDR:
    return 1;
 1814fec:	00800044 	movi	r2,1
 1814ff0:	e0bffe15 	stw	r2,-8(fp)
 1814ff4:	00001006 	br	1815038 <alt_exception_cause_generated_bad_addr+0xc8>
  case NIOS2_EXCEPTION_MISALIGNED_DATA_ADDR:
    return 1;
 1814ff8:	00c00044 	movi	r3,1
 1814ffc:	e0fffe15 	stw	r3,-8(fp)
 1815000:	00000d06 	br	1815038 <alt_exception_cause_generated_bad_addr+0xc8>
  case NIOS2_EXCEPTION_MISALIGNED_TARGET_PC:
    return 1;
 1815004:	01000044 	movi	r4,1
 1815008:	e13ffe15 	stw	r4,-8(fp)
 181500c:	00000a06 	br	1815038 <alt_exception_cause_generated_bad_addr+0xc8>
  case NIOS2_EXCEPTION_TLB_READ_PERM_VIOLATION:
    return 1;
 1815010:	00800044 	movi	r2,1
 1815014:	e0bffe15 	stw	r2,-8(fp)
 1815018:	00000706 	br	1815038 <alt_exception_cause_generated_bad_addr+0xc8>
  case NIOS2_EXCEPTION_TLB_WRITE_PERM_VIOLATION:
    return 1;
 181501c:	00c00044 	movi	r3,1
 1815020:	e0fffe15 	stw	r3,-8(fp)
 1815024:	00000406 	br	1815038 <alt_exception_cause_generated_bad_addr+0xc8>
  case NIOS2_EXCEPTION_MPU_DATA_REGION_VIOLATION:
    return 1;
 1815028:	01000044 	movi	r4,1
 181502c:	e13ffe15 	stw	r4,-8(fp)
 1815030:	00000106 	br	1815038 <alt_exception_cause_generated_bad_addr+0xc8>
  default:
    return 0;
 1815034:	e03ffe15 	stw	zero,-8(fp)
 1815038:	e0bffe17 	ldw	r2,-8(fp)
  }
}
 181503c:	e037883a 	mov	sp,fp
 1815040:	df000017 	ldw	fp,0(sp)
 1815044:	dec00104 	addi	sp,sp,4
 1815048:	f800283a 	ret

0181504c <atexit>:
 181504c:	200b883a 	mov	r5,r4
 1815050:	000d883a 	mov	r6,zero
 1815054:	0009883a 	mov	r4,zero
 1815058:	000f883a 	mov	r7,zero
 181505c:	181510c1 	jmpi	181510c <__register_exitproc>

01815060 <exit>:
 1815060:	defffe04 	addi	sp,sp,-8
 1815064:	000b883a 	mov	r5,zero
 1815068:	dc000015 	stw	r16,0(sp)
 181506c:	dfc00115 	stw	ra,4(sp)
 1815070:	2021883a 	mov	r16,r4
 1815074:	18152440 	call	1815244 <__call_exitprocs>
 1815078:	00806074 	movhi	r2,385
 181507c:	109ec504 	addi	r2,r2,31508
 1815080:	11000017 	ldw	r4,0(r2)
 1815084:	20800f17 	ldw	r2,60(r4)
 1815088:	10000126 	beq	r2,zero,1815090 <exit+0x30>
 181508c:	103ee83a 	callr	r2
 1815090:	8009883a 	mov	r4,r16
 1815094:	18154340 	call	1815434 <_exit>

01815098 <memcmp>:
 1815098:	00c000c4 	movi	r3,3
 181509c:	1980032e 	bgeu	r3,r6,18150ac <memcmp+0x14>
 18150a0:	2144b03a 	or	r2,r4,r5
 18150a4:	10c4703a 	and	r2,r2,r3
 18150a8:	10000f26 	beq	r2,zero,18150e8 <memcmp+0x50>
 18150ac:	31ffffc4 	addi	r7,r6,-1
 18150b0:	3000061e 	bne	r6,zero,18150cc <memcmp+0x34>
 18150b4:	00000a06 	br	18150e0 <memcmp+0x48>
 18150b8:	39ffffc4 	addi	r7,r7,-1
 18150bc:	00bfffc4 	movi	r2,-1
 18150c0:	21000044 	addi	r4,r4,1
 18150c4:	29400044 	addi	r5,r5,1
 18150c8:	38800526 	beq	r7,r2,18150e0 <memcmp+0x48>
 18150cc:	20c00003 	ldbu	r3,0(r4)
 18150d0:	28800003 	ldbu	r2,0(r5)
 18150d4:	18bff826 	beq	r3,r2,18150b8 <memcmp+0x20>
 18150d8:	1885c83a 	sub	r2,r3,r2
 18150dc:	f800283a 	ret
 18150e0:	0005883a 	mov	r2,zero
 18150e4:	f800283a 	ret
 18150e8:	180f883a 	mov	r7,r3
 18150ec:	20c00017 	ldw	r3,0(r4)
 18150f0:	28800017 	ldw	r2,0(r5)
 18150f4:	18bfed1e 	bne	r3,r2,18150ac <memcmp+0x14>
 18150f8:	31bfff04 	addi	r6,r6,-4
 18150fc:	21000104 	addi	r4,r4,4
 1815100:	29400104 	addi	r5,r5,4
 1815104:	39bff936 	bltu	r7,r6,18150ec <memcmp+0x54>
 1815108:	003fe806 	br	18150ac <memcmp+0x14>

0181510c <__register_exitproc>:
 181510c:	defffa04 	addi	sp,sp,-24
 1815110:	00806074 	movhi	r2,385
 1815114:	109ec504 	addi	r2,r2,31508
 1815118:	dc000015 	stw	r16,0(sp)
 181511c:	14000017 	ldw	r16,0(r2)
 1815120:	dd000415 	stw	r20,16(sp)
 1815124:	2829883a 	mov	r20,r5
 1815128:	81405217 	ldw	r5,328(r16)
 181512c:	dcc00315 	stw	r19,12(sp)
 1815130:	dc800215 	stw	r18,8(sp)
 1815134:	dc400115 	stw	r17,4(sp)
 1815138:	dfc00515 	stw	ra,20(sp)
 181513c:	2023883a 	mov	r17,r4
 1815140:	3027883a 	mov	r19,r6
 1815144:	3825883a 	mov	r18,r7
 1815148:	28002526 	beq	r5,zero,18151e0 <__register_exitproc+0xd4>
 181514c:	29000117 	ldw	r4,4(r5)
 1815150:	008007c4 	movi	r2,31
 1815154:	11002716 	blt	r2,r4,18151f4 <__register_exitproc+0xe8>
 1815158:	8800101e 	bne	r17,zero,181519c <__register_exitproc+0x90>
 181515c:	2105883a 	add	r2,r4,r4
 1815160:	1085883a 	add	r2,r2,r2
 1815164:	20c00044 	addi	r3,r4,1
 1815168:	1145883a 	add	r2,r2,r5
 181516c:	0009883a 	mov	r4,zero
 1815170:	15000215 	stw	r20,8(r2)
 1815174:	28c00115 	stw	r3,4(r5)
 1815178:	2005883a 	mov	r2,r4
 181517c:	dfc00517 	ldw	ra,20(sp)
 1815180:	dd000417 	ldw	r20,16(sp)
 1815184:	dcc00317 	ldw	r19,12(sp)
 1815188:	dc800217 	ldw	r18,8(sp)
 181518c:	dc400117 	ldw	r17,4(sp)
 1815190:	dc000017 	ldw	r16,0(sp)
 1815194:	dec00604 	addi	sp,sp,24
 1815198:	f800283a 	ret
 181519c:	29802204 	addi	r6,r5,136
 18151a0:	00800044 	movi	r2,1
 18151a4:	110e983a 	sll	r7,r2,r4
 18151a8:	30c04017 	ldw	r3,256(r6)
 18151ac:	2105883a 	add	r2,r4,r4
 18151b0:	1085883a 	add	r2,r2,r2
 18151b4:	1185883a 	add	r2,r2,r6
 18151b8:	19c6b03a 	or	r3,r3,r7
 18151bc:	14802015 	stw	r18,128(r2)
 18151c0:	14c00015 	stw	r19,0(r2)
 18151c4:	00800084 	movi	r2,2
 18151c8:	30c04015 	stw	r3,256(r6)
 18151cc:	88bfe31e 	bne	r17,r2,181515c <__register_exitproc+0x50>
 18151d0:	30804117 	ldw	r2,260(r6)
 18151d4:	11c4b03a 	or	r2,r2,r7
 18151d8:	30804115 	stw	r2,260(r6)
 18151dc:	003fdf06 	br	181515c <__register_exitproc+0x50>
 18151e0:	00806074 	movhi	r2,385
 18151e4:	109f3204 	addi	r2,r2,31944
 18151e8:	100b883a 	mov	r5,r2
 18151ec:	80805215 	stw	r2,328(r16)
 18151f0:	003fd606 	br	181514c <__register_exitproc+0x40>
 18151f4:	00800034 	movhi	r2,0
 18151f8:	10800004 	addi	r2,r2,0
 18151fc:	1000021e 	bne	r2,zero,1815208 <__register_exitproc+0xfc>
 1815200:	013fffc4 	movi	r4,-1
 1815204:	003fdc06 	br	1815178 <__register_exitproc+0x6c>
 1815208:	01006404 	movi	r4,400
 181520c:	103ee83a 	callr	r2
 1815210:	1007883a 	mov	r3,r2
 1815214:	103ffa26 	beq	r2,zero,1815200 <__register_exitproc+0xf4>
 1815218:	80805217 	ldw	r2,328(r16)
 181521c:	180b883a 	mov	r5,r3
 1815220:	18000115 	stw	zero,4(r3)
 1815224:	18800015 	stw	r2,0(r3)
 1815228:	80c05215 	stw	r3,328(r16)
 181522c:	18006215 	stw	zero,392(r3)
 1815230:	18006315 	stw	zero,396(r3)
 1815234:	0009883a 	mov	r4,zero
 1815238:	883fc826 	beq	r17,zero,181515c <__register_exitproc+0x50>
 181523c:	003fd706 	br	181519c <__register_exitproc+0x90>

01815240 <register_fini>:
 1815240:	f800283a 	ret

01815244 <__call_exitprocs>:
 1815244:	00806074 	movhi	r2,385
 1815248:	109ec504 	addi	r2,r2,31508
 181524c:	10800017 	ldw	r2,0(r2)
 1815250:	defff304 	addi	sp,sp,-52
 1815254:	df000b15 	stw	fp,44(sp)
 1815258:	d8800115 	stw	r2,4(sp)
 181525c:	00800034 	movhi	r2,0
 1815260:	10800004 	addi	r2,r2,0
 1815264:	1005003a 	cmpeq	r2,r2,zero
 1815268:	d8800215 	stw	r2,8(sp)
 181526c:	d8800117 	ldw	r2,4(sp)
 1815270:	dd400815 	stw	r21,32(sp)
 1815274:	dd000715 	stw	r20,28(sp)
 1815278:	10805204 	addi	r2,r2,328
 181527c:	dfc00c15 	stw	ra,48(sp)
 1815280:	ddc00a15 	stw	r23,40(sp)
 1815284:	dd800915 	stw	r22,36(sp)
 1815288:	dcc00615 	stw	r19,24(sp)
 181528c:	dc800515 	stw	r18,20(sp)
 1815290:	dc400415 	stw	r17,16(sp)
 1815294:	dc000315 	stw	r16,12(sp)
 1815298:	282b883a 	mov	r21,r5
 181529c:	2039883a 	mov	fp,r4
 18152a0:	d8800015 	stw	r2,0(sp)
 18152a4:	2829003a 	cmpeq	r20,r5,zero
 18152a8:	d8800117 	ldw	r2,4(sp)
 18152ac:	14405217 	ldw	r17,328(r2)
 18152b0:	88001026 	beq	r17,zero,18152f4 <__call_exitprocs+0xb0>
 18152b4:	ddc00017 	ldw	r23,0(sp)
 18152b8:	88800117 	ldw	r2,4(r17)
 18152bc:	8c802204 	addi	r18,r17,136
 18152c0:	143fffc4 	addi	r16,r2,-1
 18152c4:	80000916 	blt	r16,zero,18152ec <__call_exitprocs+0xa8>
 18152c8:	05bfffc4 	movi	r22,-1
 18152cc:	a000151e 	bne	r20,zero,1815324 <__call_exitprocs+0xe0>
 18152d0:	8409883a 	add	r4,r16,r16
 18152d4:	2105883a 	add	r2,r4,r4
 18152d8:	1485883a 	add	r2,r2,r18
 18152dc:	10c02017 	ldw	r3,128(r2)
 18152e0:	a8c01126 	beq	r21,r3,1815328 <__call_exitprocs+0xe4>
 18152e4:	843fffc4 	addi	r16,r16,-1
 18152e8:	85bff81e 	bne	r16,r22,18152cc <__call_exitprocs+0x88>
 18152ec:	d8800217 	ldw	r2,8(sp)
 18152f0:	10003126 	beq	r2,zero,18153b8 <__call_exitprocs+0x174>
 18152f4:	dfc00c17 	ldw	ra,48(sp)
 18152f8:	df000b17 	ldw	fp,44(sp)
 18152fc:	ddc00a17 	ldw	r23,40(sp)
 1815300:	dd800917 	ldw	r22,36(sp)
 1815304:	dd400817 	ldw	r21,32(sp)
 1815308:	dd000717 	ldw	r20,28(sp)
 181530c:	dcc00617 	ldw	r19,24(sp)
 1815310:	dc800517 	ldw	r18,20(sp)
 1815314:	dc400417 	ldw	r17,16(sp)
 1815318:	dc000317 	ldw	r16,12(sp)
 181531c:	dec00d04 	addi	sp,sp,52
 1815320:	f800283a 	ret
 1815324:	8409883a 	add	r4,r16,r16
 1815328:	88c00117 	ldw	r3,4(r17)
 181532c:	2105883a 	add	r2,r4,r4
 1815330:	1445883a 	add	r2,r2,r17
 1815334:	18ffffc4 	addi	r3,r3,-1
 1815338:	11800217 	ldw	r6,8(r2)
 181533c:	1c001526 	beq	r3,r16,1815394 <__call_exitprocs+0x150>
 1815340:	10000215 	stw	zero,8(r2)
 1815344:	303fe726 	beq	r6,zero,18152e4 <__call_exitprocs+0xa0>
 1815348:	00c00044 	movi	r3,1
 181534c:	1c06983a 	sll	r3,r3,r16
 1815350:	90804017 	ldw	r2,256(r18)
 1815354:	8cc00117 	ldw	r19,4(r17)
 1815358:	1884703a 	and	r2,r3,r2
 181535c:	10001426 	beq	r2,zero,18153b0 <__call_exitprocs+0x16c>
 1815360:	90804117 	ldw	r2,260(r18)
 1815364:	1884703a 	and	r2,r3,r2
 1815368:	10000c1e 	bne	r2,zero,181539c <__call_exitprocs+0x158>
 181536c:	2105883a 	add	r2,r4,r4
 1815370:	1485883a 	add	r2,r2,r18
 1815374:	11400017 	ldw	r5,0(r2)
 1815378:	e009883a 	mov	r4,fp
 181537c:	303ee83a 	callr	r6
 1815380:	88800117 	ldw	r2,4(r17)
 1815384:	98bfc81e 	bne	r19,r2,18152a8 <__call_exitprocs+0x64>
 1815388:	b8800017 	ldw	r2,0(r23)
 181538c:	147fd526 	beq	r2,r17,18152e4 <__call_exitprocs+0xa0>
 1815390:	003fc506 	br	18152a8 <__call_exitprocs+0x64>
 1815394:	8c000115 	stw	r16,4(r17)
 1815398:	003fea06 	br	1815344 <__call_exitprocs+0x100>
 181539c:	2105883a 	add	r2,r4,r4
 18153a0:	1485883a 	add	r2,r2,r18
 18153a4:	11000017 	ldw	r4,0(r2)
 18153a8:	303ee83a 	callr	r6
 18153ac:	003ff406 	br	1815380 <__call_exitprocs+0x13c>
 18153b0:	303ee83a 	callr	r6
 18153b4:	003ff206 	br	1815380 <__call_exitprocs+0x13c>
 18153b8:	88800117 	ldw	r2,4(r17)
 18153bc:	1000081e 	bne	r2,zero,18153e0 <__call_exitprocs+0x19c>
 18153c0:	89000017 	ldw	r4,0(r17)
 18153c4:	20000726 	beq	r4,zero,18153e4 <__call_exitprocs+0x1a0>
 18153c8:	b9000015 	stw	r4,0(r23)
 18153cc:	8809883a 	mov	r4,r17
 18153d0:	00000000 	call	0 <_start-0x1800000>
 18153d4:	bc400017 	ldw	r17,0(r23)
 18153d8:	883fb71e 	bne	r17,zero,18152b8 <__call_exitprocs+0x74>
 18153dc:	003fc506 	br	18152f4 <__call_exitprocs+0xb0>
 18153e0:	89000017 	ldw	r4,0(r17)
 18153e4:	882f883a 	mov	r23,r17
 18153e8:	2023883a 	mov	r17,r4
 18153ec:	883fb21e 	bne	r17,zero,18152b8 <__call_exitprocs+0x74>
 18153f0:	003fc006 	br	18152f4 <__call_exitprocs+0xb0>

018153f4 <alt_sim_halt>:

/*
 * Routine called on exit.
 */
static ALT_ALWAYS_INLINE void alt_sim_halt(int exit_code)
{
 18153f4:	defffd04 	addi	sp,sp,-12
 18153f8:	df000215 	stw	fp,8(sp)
 18153fc:	df000204 	addi	fp,sp,8
 1815400:	e13fff15 	stw	r4,-4(fp)
  int r2 = exit_code;
 1815404:	e0bfff17 	ldw	r2,-4(fp)
 1815408:	e0bffe15 	stw	r2,-8(fp)
  __asm__ volatile ("\n0:\n\taddi %0,%0, -1\n\tbgt %0,zero,0b" : : "r" (ALT_CPU_FREQ/100) ); /* Delay for >30ms */

  __asm__ volatile ("break 2" : : "D02"(r2), "D03"(r3) ALT_GMON_DATA );

#else /* !DEBUG_STUB */
  if (r2) {
 181540c:	e0bffe17 	ldw	r2,-8(fp)
 1815410:	1005003a 	cmpeq	r2,r2,zero
 1815414:	1000021e 	bne	r2,zero,1815420 <alt_sim_halt+0x2c>
    ALT_SIM_FAIL();
 1815418:	002af070 	cmpltui	zero,zero,43969
 181541c:	00000106 	br	1815424 <alt_sim_halt+0x30>
  } else {
    ALT_SIM_PASS();
 1815420:	002af0b0 	cmpltui	zero,zero,43970
  }
#endif /* DEBUG_STUB */
}
 1815424:	e037883a 	mov	sp,fp
 1815428:	df000017 	ldw	fp,0(sp)
 181542c:	dec00104 	addi	sp,sp,4
 1815430:	f800283a 	ret

01815434 <_exit>:
 *
 * ALT_EXIT is mapped onto the _exit() system call in alt_syscall.h
 */

void ALT_EXIT (int exit_code)
{
 1815434:	defffd04 	addi	sp,sp,-12
 1815438:	dfc00215 	stw	ra,8(sp)
 181543c:	df000115 	stw	fp,4(sp)
 1815440:	df000104 	addi	fp,sp,4
 1815444:	e13fff15 	stw	r4,-4(fp)
  ALT_OS_STOP();

  /* Provide notification to the simulator that we've stopped */

  ALT_LOG_PRINT_BOOT("[alt_exit.c] Calling ALT_SIM_HALT().\r\n");
  ALT_SIM_HALT(exit_code);
 1815448:	e13fff17 	ldw	r4,-4(fp)
 181544c:	18153f40 	call	18153f4 <alt_sim_halt>

  /* spin forever, since there's no where to go back to */

  ALT_LOG_PRINT_BOOT("[alt_exit.c] Spinning forever.\r\n");
  while (1);
 1815450:	003fff06 	br	1815450 <_exit+0x1c>
 1815454:	00000010 	cmplti	zero,zero,0
 1815458:	00000000 	call	0 <_start-0x1800000>
 181545c:	00527a01 	jmpi	527a0 <_start-0x17ad860>
 1815460:	011f7c01 	jmpi	11f7c0 <_start-0x16e0840>
 1815464:	001b0c0b 	ldhu	zero,27696(zero)
 1815468:	00000028 	cmpgeui	zero,zero,0
 181546c:	00000018 	cmpnei	zero,zero,0
 1815470:	0180db68 	cmpgeui	r6,zero,877
 1815474:	000005dc 	xori	zero,zero,23
 1815478:	400e4400 	call	400e440 <alt_instruction_exception_entry+0x180627c>
 181547c:	92099170 	cmpltui	r8,r18,9797
 1815480:	95079308 	cmpgei	r20,r18,7756
 1815484:	97049605 	stb	fp,4696(r18)
 1815488:	90019f03 	ldbu	zero,1660(r18)
 181548c:	9c06940a 	0x9c06940a
 1815490:	00000002 	0x2
 1815494:	00000028 	cmpgeui	zero,zero,0
 1815498:	00000044 	movi	zero,1
 181549c:	0180e144 	movi	r6,901
 18154a0:	000005b0 	cmpltui	zero,zero,22
 18154a4:	3c0e4400 	call	3c0e440 <alt_instruction_exception_entry+0x140627c>
 18154a8:	92099168 	cmpgeui	r8,r18,9797
 18154ac:	95079308 	cmpgei	r20,r18,7756
 18154b0:	9c039705 	stb	r16,3676(r19)
 18154b4:	90019f02 	0x90019f02
 18154b8:	9606940a 	0x9606940a
 18154bc:	00000004 	movi	zero,0
 18154c0:	01815240 	call	181524 <_start-0x167eadc>
