
HelloWorldnew.elf:     file format elf32-littlenios2
HelloWorldnew.elf
architecture: nios2, flags 0x00000112:
EXEC_P, HAS_SYMS, D_PAGED
start address 0x01800000

Program Header:
    LOAD off    0x00001000 vaddr 0x01800000 paddr 0x01800000 align 2**12
         filesz 0x00012b78 memsz 0x00012e68 flags rwx
    LOAD off    0x00014000 vaddr 0x02400000 paddr 0x02400000 align 2**12
         filesz 0x00000000 memsz 0x00000000 flags r-x
    LOAD off    0x00014020 vaddr 0x02808020 paddr 0x02808020 align 2**12
         filesz 0x0000020c memsz 0x0000020c flags r-x

Sections:
Idx Name          Size      VMA       LMA       File off  Algn
  0 .entry        00000000  02400000  02400000  00014000  2**5
                  CONTENTS, ALLOC, LOAD, READONLY, CODE
  1 .exceptions   0000020c  02808020  02808020  00014020  2**2
                  CONTENTS, ALLOC, LOAD, READONLY, CODE
  2 .text         00010840  01800000  01800000  00001000  2**2
                  CONTENTS, ALLOC, LOAD, READONLY, CODE
  3 .rodata       00000610  01810840  01810840  00011840  2**2
                  CONTENTS, ALLOC, LOAD, READONLY, DATA
  4 .rwdata       00001d28  01810e50  01810e50  00011e50  2**2
                  CONTENTS, ALLOC, LOAD, DATA, SMALL_DATA
  5 .bss          000002f0  01812b78  01812b78  00013b78  2**2
                  ALLOC, SMALL_DATA
  6 .comment      00000026  00000000  00000000  0001422c  2**0
                  CONTENTS, READONLY
  7 .debug_aranges 00000df8  00000000  00000000  00014258  2**3
                  CONTENTS, READONLY, DEBUGGING
  8 .debug_pubnames 0000199d  00000000  00000000  00015050  2**0
                  CONTENTS, READONLY, DEBUGGING
  9 .debug_info   000297fb  00000000  00000000  000169ed  2**0
                  CONTENTS, READONLY, DEBUGGING
 10 .debug_abbrev 00008901  00000000  00000000  000401e8  2**0
                  CONTENTS, READONLY, DEBUGGING
 11 .debug_line   00016a97  00000000  00000000  00048ae9  2**0
                  CONTENTS, READONLY, DEBUGGING
 12 .debug_frame  00001f60  00000000  00000000  0005f580  2**2
                  CONTENTS, READONLY, DEBUGGING
 13 .debug_str    000024f9  00000000  00000000  000614e0  2**0
                  CONTENTS, READONLY, DEBUGGING
 14 .debug_loc    0000c760  00000000  00000000  000639d9  2**0
                  CONTENTS, READONLY, DEBUGGING
 15 .debug_alt_sim_info 00000050  00000000  00000000  0007013c  2**2
                  CONTENTS, READONLY, DEBUGGING
 16 .debug_ranges 00000970  00000000  00000000  00070190  2**3
                  CONTENTS, READONLY, DEBUGGING
 17 .thread_model 00000003  00000000  00000000  00074518  2**0
                  CONTENTS, READONLY
 18 .cpu          00000003  00000000  00000000  0007451b  2**0
                  CONTENTS, READONLY
 19 .simulation_enabled 00000001  00000000  00000000  0007451e  2**0
                  CONTENTS, READONLY
 20 .sysid_hash   00000004  00000000  00000000  0007451f  2**0
                  CONTENTS, READONLY
 21 .sysid_base   00000004  00000000  00000000  00074523  2**0
                  CONTENTS, READONLY
 22 .sysid_time   00000004  00000000  00000000  00074527  2**0
                  CONTENTS, READONLY
 23 .stderr_dev   00000009  00000000  00000000  0007452b  2**0
                  CONTENTS, READONLY
 24 .stdin_dev    00000009  00000000  00000000  00074534  2**0
                  CONTENTS, READONLY
 25 .stdout_dev   00000009  00000000  00000000  0007453d  2**0
                  CONTENTS, READONLY
 26 .sopc_system_name 00000008  00000000  00000000  00074546  2**0
                  CONTENTS, READONLY
 27 .quartus_project_dir 00000052  00000000  00000000  0007454e  2**0
                  CONTENTS, READONLY
 28 .jdi          00004101  00000000  00000000  000745a0  2**0
                  CONTENTS, READONLY
 29 .sopcinfo     000be023  00000000  00000000  000786a1  2**0
                  CONTENTS, READONLY
SYMBOL TABLE:
02400000 l    d  .entry	00000000 .entry
02808020 l    d  .exceptions	00000000 .exceptions
01800000 l    d  .text	00000000 .text
01810840 l    d  .rodata	00000000 .rodata
01810e50 l    d  .rwdata	00000000 .rwdata
01812b78 l    d  .bss	00000000 .bss
00000000 l    d  .comment	00000000 .comment
00000000 l    d  .debug_aranges	00000000 .debug_aranges
00000000 l    d  .debug_pubnames	00000000 .debug_pubnames
00000000 l    d  .debug_info	00000000 .debug_info
00000000 l    d  .debug_abbrev	00000000 .debug_abbrev
00000000 l    d  .debug_line	00000000 .debug_line
00000000 l    d  .debug_frame	00000000 .debug_frame
00000000 l    d  .debug_str	00000000 .debug_str
00000000 l    d  .debug_loc	00000000 .debug_loc
00000000 l    d  .debug_alt_sim_info	00000000 .debug_alt_sim_info
00000000 l    d  .debug_ranges	00000000 .debug_ranges
01800044 l       .text	00000000 alt_after_alt_main
00000000 l    df *ABS*	00000000 alt_irq_handler.c
00000000 l    df *ABS*	00000000 alt_instruction_exception_entry.c
00000000 l    df *ABS*	00000000 hello_world.c
00000000 l    df *ABS*	00000000 pwm.c
00000000 l    df *ABS*	00000000 printf.c
00000000 l    df *ABS*	00000000 puts.c
00000000 l    df *ABS*	00000000 strlen.c
00000000 l    df *ABS*	00000000 vfprintf.c
01800708 l     F .text	00000058 __sprint_r
018108da l     O .rodata	00000010 blanks.3452
018108ca l     O .rodata	00000010 zeroes.3453
00000000 l    df *ABS*	00000000 wsetup.c
00000000 l    df *ABS*	00000000 dtoa.c
0180276c l     F .text	00000218 quorem
00000000 l    df *ABS*	00000000 fflush.c
00000000 l    df *ABS*	00000000 findfp.c
01804168 l     F .text	00000058 std
01804274 l     F .text	00000008 __fp_lock
0180427c l     F .text	00000008 __fp_unlock
00000000 l    df *ABS*	00000000 mallocr.c
00000000 l    df *ABS*	00000000 fvwrite.c
00000000 l    df *ABS*	00000000 fwalk.c
00000000 l    df *ABS*	00000000 impure.c
01810e50 l     O .rwdata	00000400 impure_data
00000000 l    df *ABS*	00000000 locale.c
01812b34 l     O .rwdata	00000004 charset
01810910 l     O .rodata	00000030 lconv
00000000 l    df *ABS*	00000000 makebuf.c
00000000 l    df *ABS*	00000000 mallocr.c
00000000 l    df *ABS*	00000000 memchr.c
00000000 l    df *ABS*	00000000 memcpy.c
00000000 l    df *ABS*	00000000 memmove.c
00000000 l    df *ABS*	00000000 memset.c
00000000 l    df *ABS*	00000000 mprec.c
01810a58 l     O .rodata	0000000c p05.2458
00000000 l    df *ABS*	00000000 mallocr.c
00000000 l    df *ABS*	00000000 s_isinfd.c
00000000 l    df *ABS*	00000000 s_isnand.c
00000000 l    df *ABS*	00000000 sbrkr.c
00000000 l    df *ABS*	00000000 stdio.c
00000000 l    df *ABS*	00000000 strcmp.c
00000000 l    df *ABS*	00000000 writer.c
00000000 l    df *ABS*	00000000 mallocr.c
00000000 l    df *ABS*	00000000 closer.c
00000000 l    df *ABS*	00000000 fclose.c
00000000 l    df *ABS*	00000000 fstatr.c
00000000 l    df *ABS*	00000000 int_errno.c
00000000 l    df *ABS*	00000000 isattyr.c
00000000 l    df *ABS*	00000000 lseekr.c
00000000 l    df *ABS*	00000000 readr.c
00000000 l    df *ABS*	00000000 libgcc2.c
00000000 l    df *ABS*	00000000 libgcc2.c
00000000 l    df *ABS*	00000000 dp-bit.c
01808408 l     F .text	00000410 _fpadd_parts
00000000 l    df *ABS*	00000000 dp-bit.c
00000000 l    df *ABS*	00000000 dp-bit.c
00000000 l    df *ABS*	00000000 dp-bit.c
00000000 l    df *ABS*	00000000 dp-bit.c
00000000 l    df *ABS*	00000000 dp-bit.c
00000000 l    df *ABS*	00000000 dp-bit.c
00000000 l    df *ABS*	00000000 dp-bit.c
00000000 l    df *ABS*	00000000 dp-bit.c
00000000 l    df *ABS*	00000000 dp-bit.c
00000000 l    df *ABS*	00000000 dp-bit.c
00000000 l    df *ABS*	00000000 dp-bit.c
00000000 l    df *ABS*	00000000 lib2-divmod.c
01809534 l     F .text	0000007c udivmodsi4
00000000 l    df *ABS*	00000000 libgcc2.c
00000000 l    df *ABS*	00000000 libgcc2.c
00000000 l    df *ABS*	00000000 libgcc2.c
00000000 l    df *ABS*	00000000 dp-bit.c
00000000 l    df *ABS*	00000000 dp-bit.c
00000000 l    df *ABS*	00000000 dp-bit.c
00000000 l    df *ABS*	00000000 alt_close.c
01809da8 l     F .text	00000060 alt_get_errno
00000000 l    df *ABS*	00000000 alt_dev.c
01809e08 l     F .text	0000002c alt_dev_null_write
00000000 l    df *ABS*	00000000 alt_errno.c
00000000 l    df *ABS*	00000000 alt_fstat.c
01809f08 l     F .text	00000060 alt_get_errno
00000000 l    df *ABS*	00000000 alt_isatty.c
0180a028 l     F .text	00000060 alt_get_errno
00000000 l    df *ABS*	00000000 alt_lseek.c
0180a178 l     F .text	00000060 alt_get_errno
00000000 l    df *ABS*	00000000 alt_main.c
00000000 l    df *ABS*	00000000 alt_malloc_lock.c
00000000 l    df *ABS*	00000000 alt_read.c
0180a3a4 l     F .text	00000060 alt_get_errno
00000000 l    df *ABS*	00000000 alt_release_fd.c
00000000 l    df *ABS*	00000000 alt_sbrk.c
01812b58 l     O .rwdata	00000004 heap_end
00000000 l    df *ABS*	00000000 alt_usleep.c
00000000 l    df *ABS*	00000000 alt_write.c
0180a670 l     F .text	00000060 alt_get_errno
00000000 l    df *ABS*	00000000 alt_sys_init.c
0181180c l     O .rwdata	000000d8 cfi_flash
018118e4 l     O .rwdata	00001060 jtag_uart
01812944 l     O .rwdata	00000120 lcd
01812a64 l     O .rwdata	000000c4 uart
0180a7a0 l     F .text	00000038 alt_dev_reg
00000000 l    df *ABS*	00000000 altera_avalon_cfi_flash.c
0180a874 l     F .text	00000038 alt_flash_device_register
00000000 l    df *ABS*	00000000 altera_avalon_cfi_flash_table.c
0180b674 l     F .text	0000007c alt_read_16bit_query_entry
00000000 l    df *ABS*	00000000 altera_avalon_jtag_uart_fd.c
00000000 l    df *ABS*	00000000 altera_avalon_jtag_uart_init.c
0180c700 l     F .text	00000228 altera_avalon_jtag_uart_irq
0180c928 l     F .text	000000b0 altera_avalon_jtag_uart_timeout
00000000 l    df *ABS*	00000000 altera_avalon_jtag_uart_ioctl.c
00000000 l    df *ABS*	00000000 altera_avalon_jtag_uart_read.c
00000000 l    df *ABS*	00000000 altera_avalon_jtag_uart_write.c
00000000 l    df *ABS*	00000000 altera_avalon_lcd_16207.c
01812b5c l     O .rwdata	00000004 colstart
0180cfa4 l     F .text	000000b8 lcd_write_command
0180d05c l     F .text	000000d4 lcd_write_data
0180d130 l     F .text	000000c4 lcd_clear_screen
0180d1f4 l     F .text	000001ec lcd_repaint_screen
0180d3e0 l     F .text	000000c8 lcd_scroll_up
0180d4a8 l     F .text	000002d0 lcd_handle_escape
0180dc7c l     F .text	000000cc alt_lcd_16207_timeout
00000000 l    df *ABS*	00000000 altera_avalon_lcd_16207_fd.c
00000000 l    df *ABS*	00000000 altera_avalon_timer_sc.c
0180dedc l     F .text	00000070 alt_avalon_timer_sc_irq
00000000 l    df *ABS*	00000000 altera_avalon_uart_fd.c
00000000 l    df *ABS*	00000000 altera_avalon_uart_init.c
0180e19c l     F .text	0000009c altera_avalon_uart_irq
0180e238 l     F .text	000000e0 altera_avalon_uart_rxirq
0180e318 l     F .text	0000015c altera_avalon_uart_txirq
00000000 l    df *ABS*	00000000 altera_avalon_uart_read.c
0180e704 l     F .text	00000060 alt_get_errno
00000000 l    df *ABS*	00000000 altera_avalon_uart_write.c
0180e92c l     F .text	00000060 alt_get_errno
00000000 l    df *ABS*	00000000 alt_alarm_start.c
00000000 l    df *ABS*	00000000 alt_busy_sleep.c
00000000 l    df *ABS*	00000000 alt_dcache_flush.c
00000000 l    df *ABS*	00000000 alt_dev_llist_insert.c
0180ed38 l     F .text	00000060 alt_get_errno
00000000 l    df *ABS*	00000000 alt_do_ctors.c
00000000 l    df *ABS*	00000000 alt_do_dtors.c
00000000 l    df *ABS*	00000000 alt_flash_dev.c
00000000 l    df *ABS*	00000000 alt_iic.c
00000000 l    df *ABS*	00000000 alt_iic_isr_register.c
00000000 l    df *ABS*	00000000 alt_io_redirect.c
0180f1fc l     F .text	000000c4 alt_open_fd
00000000 l    df *ABS*	00000000 alt_irq_vars.c
00000000 l    df *ABS*	00000000 alt_open.c
0180f338 l     F .text	000000dc alt_file_locked
0180f59c l     F .text	00000060 alt_get_errno
00000000 l    df *ABS*	00000000 alt_tick.c
00000000 l    df *ABS*	00000000 altera_nios2_irq.c
00000000 l    df *ABS*	00000000 altera_avalon_cfi_flash_amd.c
0180fb64 l     F .text	000000bc alt_write_word_amd
0180fa40 l     F .text	00000124 alt_wait_for_command_to_complete_amd
00000000 l    df *ABS*	00000000 altera_avalon_cfi_flash_intel.c
0180fe18 l     F .text	0000018c alt_unlock_block_intel
0180ffa4 l     F .text	000000dc alt_write_word_intel
00000000 l    df *ABS*	00000000 alt_find_dev.c
00000000 l    df *ABS*	00000000 alt_find_file.c
00000000 l    df *ABS*	00000000 alt_get_fd.c
00000000 l    df *ABS*	00000000 atexit.c
00000000 l    df *ABS*	00000000 ctype_.c
01810ccd l     O .rodata	00000180 _ctype_b
00000000 l    df *ABS*	00000000 exit.c
00000000 l    df *ABS*	00000000 memcmp.c
00000000 l    df *ABS*	00000000 __atexit.c
00000000 l    df *ABS*	00000000 __call_atexit.c
018105bc l     F .text	00000004 register_fini
00000000 l    df *ABS*	00000000 alt_exit.c
01810770 l     F .text	00000040 alt_sim_halt
01812bac g     O .bss	00000004 alt_instruction_exception_handler
01805f24 g     F .text	00000094 _mprec_log10
01806010 g     F .text	00000088 __any_on
0180771c g     F .text	00000070 _isatty_r
01810a30 g     O .rodata	00000028 __mprec_tinytens
0180a1d8 g     F .text	0000006c alt_main
018005e0 g     F .text	000000a0 _puts_r
0180b134 g     F .text	00000048 alt_read_query_entry_32bit
01812bd8 g     O .bss	00000100 alt_irq
0180778c g     F .text	00000078 _lseek_r
0180a8ac g     F .text	000002c0 alt_flash_cfi_write
01808f28 g     F .text	00000088 __eqdf2
01812e68 g       *ABS*	00000000 __alt_heap_start
01800568 g     F .text	00000044 printf
018071e8 g     F .text	00000068 __sseek
018041d0 g     F .text	000000a4 __sinit
01804ea8 g     F .text	00000084 _setlocale_r
018042d0 g     F .text	00000068 __sfmoreglue
0180a264 g     F .text	00000020 __malloc_unlock
018059a0 g     F .text	000000e0 memmove
018042c0 g     F .text	00000010 _cleanup
01806098 g     F .text	000000bc _Balloc
01809038 g     F .text	00000088 __gtdf2
00000000  w      *UND*	00000000 __errno
0180b2c0 g     F .text	00000048 alt_write_flash_command_32bit_device_16bit_mode
02400000 g     F .entry	00000000 __reset
018076a8 g     F .text	00000074 _fstat_r
0180adc8 g     F .text	000002e8 alt_flash_program_block
01812b90 g     O .bss	00000004 errno
01812b98 g     O .bss	00000004 alt_argv
0181ab28 g       *ABS*	00000000 _gp
0180a520 g     F .text	00000030 usleep
0181168c g     O .rwdata	00000180 alt_fd_list
01810080 g     F .text	00000094 alt_find_dev
01805900 g     F .text	000000a0 memcpy
018042b4 g     F .text	0000000c _cleanup_r
018091d0 g     F .text	000000f8 __floatsidf
0180f2c0 g     F .text	00000078 alt_io_redirect
01809148 g     F .text	00000088 __ltdf2
01810840 g       *ABS*	00000000 __DTOR_END__
01800680 g     F .text	00000014 puts
018102ec g     F .text	000000dc alt_exception_cause_generated_bad_addr
0180f7a0 g     F .text	00000020 altera_nios2_irq_init
01805e74 g     F .text	000000b0 __ratio
0180cb40 g     F .text	00000224 altera_avalon_jtag_uart_read
00000000  w      *UND*	00000000 malloc
018005ac g     F .text	00000034 _printf_r
01809670 g     F .text	00000008 __udivsi3
01809f68 g     F .text	000000c0 isatty
01810940 g     O .rodata	000000c8 __mprec_tens
01804e84 g     F .text	00000008 __locale_charset
01812b84 g     O .bss	00000004 __malloc_top_pad
01812b30 g     O .rwdata	00000004 __mb_cur_max
01804e8c g     F .text	0000000c _localeconv_r
01806790 g     F .text	0000003c __i2b
01804868 g     F .text	0000049c __sfvwrite_r
01807170 g     F .text	00000070 _sbrk_r
0180fc20 g     F .text	00000084 alt_program_intel
01807804 g     F .text	00000078 _read_r
0180ec0c g     F .text	00000078 alt_dcache_flush
01811250 g     O .rwdata	0000000c __lc_ctype
01812b50 g     O .rwdata	00000004 alt_max_fd
0180b0b0 g     F .text	00000040 alt_read_query_entry_8bit
01809aac g     F .text	00000138 __unpack_d
01807584 g     F .text	00000110 _fclose_r
0180fca4 g     F .text	00000174 alt_erase_block_intel
01804134 g     F .text	00000034 fflush
01812b88 g     O .bss	00000004 __malloc_max_sbrked_mem
01808898 g     F .text	00000074 __adddf3
01805d54 g     F .text	00000120 __b2d
01807e58 g     F .text	000005b0 __umoddi3
0180a088 g     F .text	000000f0 lseek
01812b2c g     O .rwdata	00000004 _global_impure_ptr
01806b0c g     F .text	000005f4 _realloc_r
01812e68 g       *ABS*	00000000 __bss_end
0180f104 g     F .text	000000f8 alt_iic_isr_register
0180f694 g     F .text	0000010c alt_tick
0180787c g     F .text	000005dc __udivdi3
01810a08 g     O .rodata	00000028 __mprec_bigtens
018069ec g     F .text	00000120 __s2b
018093a0 g     F .text	00000194 __floatunsidf
01805c74 g     F .text	00000060 __mcmp
0180e0d4 g     F .text	000000c8 altera_avalon_uart_init
01812b74 g     O .rwdata	00000004 __ctype_ptr
0180429c g     F .text	00000018 __fp_lock_all
0180f0bc g     F .text	00000048 alt_ic_irq_enabled
0180f5fc g     F .text	00000098 alt_alarm_stop
01812ba0 g     O .bss	00000004 alt_irq_active
02808000 g       *ABS*	00000000 __alt_mem_onchip_mem
028080fc g     F .exceptions	000000c8 alt_irq_handler
01811664 g     O .rwdata	00000028 alt_dev_null
0180b5c8 g     F .text	000000ac alt_set_flash_algorithm_func
01805b40 g     F .text	00000070 __hi0bits
018092c8 g     F .text	000000d8 __fixdfsi
01800438 g     F .text	00000130 Set_Servo_Position
0180b17c g     F .text	0000003c alt_write_flash_command_8bit_device_8bit_mode
01812b48 g     O .rwdata	00000008 alt_dev_list
0180a550 g     F .text	00000120 write
01809e34 g     F .text	000000d4 fstat
0180c41c g     F .text	000000dc alt_check_primary_table
018068cc g     F .text	00000120 __pow5mult
01812b78 g     O .bss	00000004 __nlocale_changed
01809678 g     F .text	00000008 __umodsi3
0180abfc g     F .text	00000068 alt_flash_cfi_read
0180b350 g     F .text	00000034 alt_write_native_8bit
01812e68 g       *ABS*	00000000 end
0180b1b8 g     F .text	0000007c alt_write_flash_command_16bit_device_8bit_mode
0180d778 g     F .text	00000504 altera_avalon_lcd_16207_write
0180e764 g     F .text	000001c8 altera_avalon_uart_write
0180b6f0 g     F .text	00000580 alt_read_cfi_table
0180c640 g     F .text	000000c0 altera_avalon_jtag_uart_init
028081c4 g     F .exceptions	00000068 alt_instruction_exception_entry
0181083c g       *ABS*	00000000 __CTOR_LIST__
02000000 g       *ABS*	00000000 __alt_stack_pointer
0180df4c g     F .text	00000090 alt_avalon_timer_sc_init
0180e034 g     F .text	00000058 altera_avalon_uart_write_fd
01809718 g     F .text	00000080 __clzsi2
0180e08c g     F .text	00000048 altera_avalon_uart_close_fd
0180cd64 g     F .text	00000240 altera_avalon_jtag_uart_write
0180a7d8 g     F .text	0000009c alt_flash_cfi_init
01800158 g     F .text	000001e8 Initilise_PWM
018041c0 g     F .text	00000004 __sfp_lock_acquire
0180581c g     F .text	000000e4 memchr
01800760 g     F .text	00001eac ___vfprintf_internal_r
01804554 g     F .text	00000314 _free_r
018105c0 g     F .text	000001b0 __call_exitprocs
01812b7c g     O .bss	00000004 __mlocale_changed
01812b3c g     O .rwdata	00000004 __malloc_sbrk_base
01800000 g     F .text	00000048 _start
01812ba4 g     O .bss	00000004 _alt_tick_rate
0180645c g     F .text	0000014c __lshift
01812ba8 g     O .bss	00000004 _alt_nticks
0180a284 g     F .text	00000120 read
0180a704 g     F .text	0000009c alt_sys_init
01810488 g     F .text	00000134 __register_exitproc
0180b0f0 g     F .text	00000044 alt_read_query_entry_16bit
018065a8 g     F .text	000001e8 __multiply
0180c9d8 g     F .text	00000074 altera_avalon_jtag_uart_close
01812bb0 g     O .bss	00000028 __malloc_current_mallinfo
0180b3e8 g     F .text	000001e0 alt_set_flash_width_func
01806154 g     F .text	0000017c __d2b
0180c4f8 g     F .text	00000058 altera_avalon_jtag_uart_read_fd
01810234 g     F .text	000000b8 alt_get_fd
0180eae0 g     F .text	0000012c alt_busy_sleep
01809be4 g     F .text	000000c8 __fpcmp_parts_d
01807514 g     F .text	00000070 _close_r
0180f828 g     F .text	00000218 alt_erase_block_amd
01810414 g     F .text	00000074 memcmp
0180c5a8 g     F .text	00000048 altera_avalon_jtag_uart_close_fd
01812e68 g       *ABS*	00000000 __alt_stack_base
0180c5f0 g     F .text	00000050 altera_avalon_jtag_uart_ioctl_fd
01802630 g     F .text	0000013c __swsetup_r
0180bc70 g     F .text	000007ac alt_read_cfi_width
01808cd0 g     F .text	00000258 __divdf3
01804338 g     F .text	000000f0 __sfp
01805fb8 g     F .text	00000058 __copybits
0181125c g     O .rwdata	00000408 __malloc_av_
018041cc g     F .text	00000004 __sinit_lock_release
0180890c g     F .text	000003c4 __muldf3
018072cc g     F .text	00000060 __sread
01810114 g     F .text	00000120 alt_find_file
01800340 g     F .text	000000f8 Set_PWM_Duty_Cycle
0180ec84 g     F .text	000000b4 alt_dev_llist_insert
0180a244 g     F .text	00000020 __malloc_lock
0180a464 g     F .text	000000bc sbrk
01803f38 g     F .text	000001fc _fflush_r
01807460 g     F .text	000000b4 _calloc_r
01812b60 g     O .rwdata	00000008 alt_flash_dev_list
0180b27c g     F .text	00000044 alt_write_flash_command_16bit_device_16bit_mode
01812b78 g       *ABS*	00000000 __bss_start
01805a80 g     F .text	00000098 memset
01800048 g     F .text	00000110 main
01812b9c g     O .bss	00000004 alt_envp
01812b8c g     O .bss	00000004 __malloc_max_total_mem
0180c550 g     F .text	00000058 altera_avalon_jtag_uart_write_fd
0180dd48 g     F .text	0000013c altera_avalon_lcd_16207_init
018071e0 g     F .text	00000008 __sclose
02000000 g       *ABS*	00000000 __alt_heap_limit
01807694 g     F .text	00000014 fclose
01812cd8 g     O .bss	00000190 _atexit0
01802984 g     F .text	000015b4 _dtoa_r
018050dc g     F .text	00000740 _malloc_r
01812b54 g     O .rwdata	00000004 alt_errno
0180b308 g     F .text	00000048 alt_write_flash_command_32bit_device_32bit_mode
01804dcc g     F .text	000000b8 _fwalk
0180ac64 g     F .text	00000164 alt_write_value_to_flash
0180b384 g     F .text	00000034 alt_write_native_16bit
018095b0 g     F .text	00000060 __divsi3
02400000 g       *ABS*	00000000 __alt_mem_cfi_flash
01810a64 g     O .rodata	00000014 __thenan_df
01804428 g     F .text	0000012c _malloc_trim_r
01810840 g       *ABS*	00000000 __CTOR_END__
0180732c g     F .text	000000bc strcmp
01810840 g       *ABS*	00000000 __DTOR_LIST__
01808fb0 g     F .text	00000088 __nedf2
0180a6d0 g     F .text	00000034 alt_irq_init
0180a404 g     F .text	00000060 alt_release_fd
01810a78 g     O .rodata	00000100 __clz_tab
01812b80 g     O .bss	00000004 _PathLocale
018103c8 g     F .text	00000014 atexit
018073e8 g     F .text	00000078 _write_r
01804f2c g     F .text	0000001c setlocale
01812b28 g     O .rwdata	00000004 _impure_ptr
01812b94 g     O .bss	00000004 alt_argc
0180edfc g     F .text	00000064 _do_dtors
02808020 g       .exceptions	00000000 alt_irq_entry
01805cd4 g     F .text	00000080 __ulp
01807100 g     F .text	00000040 __isinfd
01804284 g     F .text	00000018 __fp_unlock_all
0180de84 g     F .text	00000058 altera_avalon_lcd_16207_write_fd
01812b40 g     O .rwdata	00000008 alt_fs_list
0180b234 g     F .text	00000048 alt_write_flash_command_32bit_device_8bit_mode
01804e98 g     F .text	00000010 localeconv
0180ef30 g     F .text	00000050 alt_ic_isr_register
01812b78 g       *ABS*	00000000 _edata
0180dfdc g     F .text	00000058 altera_avalon_uart_read_fd
01812e68 g       *ABS*	00000000 _end
0180ee60 g     F .text	0000007c alt_flash_open_dev
0180ca4c g     F .text	000000f4 altera_avalon_jtag_uart_ioctl
0180f01c g     F .text	000000a0 alt_ic_irq_disable
01807250 g     F .text	0000007c __swrite
01812b38 g     O .rwdata	00000004 __malloc_trim_threshold
018103dc g     F .text	00000038 exit
01804d04 g     F .text	000000c8 _fwalk_reent
018062d0 g     F .text	0000018c __mdiff
0180eedc g     F .text	00000054 alt_flash_close_dev
01809610 g     F .text	00000060 __modsi3
02000000 g       *ABS*	00000000 __alt_data_end
02808020 g     F .exceptions	00000000 alt_exception
018041c4 g     F .text	00000004 __sfp_lock_release
01800000 g       *ABS*	00000000 __alt_mem_sdram
01810bcc g     O .rodata	00000101 _ctype_
0180e474 g     F .text	00000060 altera_avalon_uart_close
018107b0 g     F .text	00000020 _exit
01807140 g     F .text	00000030 __isnand
0180e98c g     F .text	00000154 alt_alarm_start
01809680 g     F .text	00000098 __muldi3
01804f48 g     F .text	00000194 __smakebuf_r
0180b3b8 g     F .text	00000030 alt_write_native_32bit
01800694 g     F .text	00000074 strlen
0180f414 g     F .text	00000188 open
018090c0 g     F .text	00000088 __gedf2
0180ab6c g     F .text	00000090 alt_flash_cfi_get_info
01812b68 g     O .rwdata	00000004 alt_priority_mask
0180ef80 g     F .text	0000009c alt_ic_irq_enable
0180260c g     F .text	00000024 __vfprintf_internal
0180e4d4 g     F .text	00000230 altera_avalon_uart_read
01808818 g     F .text	00000080 __subdf3
01805bb0 g     F .text	000000c4 __lo0bits
01812b6c g     O .rwdata	00000008 alt_alarm_list
0180ed98 g     F .text	00000064 _do_ctors
01809cac g     F .text	000000fc close
0180f7c0 g     F .text	00000068 alt_program_amd
01809798 g     F .text	00000314 __pack_d
00000000  w      *UND*	00000000 free
018041c8 g     F .text	00000004 __sinit_lock_acquire
018067cc g     F .text	00000100 __multadd
01805b18 g     F .text	00000028 _Bfree



Disassembly of section .exceptions:

02808020 <alt_exception>:
         * Process an exception.  For all exceptions we must preserve all
         * caller saved registers on the stack (See the Nios2 ABI
         * documentation for details).
         */

        addi  sp, sp, -76
 2808020:	deffed04 	addi	sp,sp,-76

#endif

#endif

        stw   ra,  0(sp)
 2808024:	dfc00015 	stw	ra,0(sp)
        /*
         * Leave a gap in the stack frame at 4(sp) for the muldiv handler to
         * store zero into.
         */

        stw   r1,   8(sp)
 2808028:	d8400215 	stw	at,8(sp)
        stw   r2,  12(sp)
 280802c:	d8800315 	stw	r2,12(sp)
        stw   r3,  16(sp)
 2808030:	d8c00415 	stw	r3,16(sp)
        stw   r4,  20(sp)
 2808034:	d9000515 	stw	r4,20(sp)
        stw   r5,  24(sp)
 2808038:	d9400615 	stw	r5,24(sp)
        stw   r6,  28(sp)
 280803c:	d9800715 	stw	r6,28(sp)
        stw   r7,  32(sp)
 2808040:	d9c00815 	stw	r7,32(sp)

        rdctl r5, estatus
 2808044:	000b307a 	rdctl	r5,estatus

        stw   r8,  36(sp)
 2808048:	da000915 	stw	r8,36(sp)
        stw   r9,  40(sp)
 280804c:	da400a15 	stw	r9,40(sp)
        stw   r10, 44(sp)
 2808050:	da800b15 	stw	r10,44(sp)
        stw   r11, 48(sp)
 2808054:	dac00c15 	stw	r11,48(sp)
        stw   r12, 52(sp)
 2808058:	db000d15 	stw	r12,52(sp)
        stw   r13, 56(sp)
 280805c:	db400e15 	stw	r13,56(sp)
        stw   r14, 60(sp)
 2808060:	db800f15 	stw	r14,60(sp)
        stw   r15, 64(sp)
 2808064:	dbc01015 	stw	r15,64(sp)
        /*
         * ea-4 contains the address of the instruction being executed
         * when the exception occured. For interrupt exceptions, we will
         * will be re-issue the isntruction. Store it in 72(sp)
         */
        stw   r5,  68(sp)  /* estatus */
 2808068:	d9401115 	stw	r5,68(sp)
        addi  r15, ea, -4  /* instruction that caused exception */
 280806c:	ebffff04 	addi	r15,ea,-4
        stw   r15,  72(sp)
 2808070:	dbc01215 	stw	r15,72(sp)
#else
        /*
         * Test to see if the exception was a software exception or caused 
         * by an external interrupt, and vector accordingly.
         */
        rdctl r4, ipending
 2808074:	0009313a 	rdctl	r4,ipending
        andi  r2, r5, 1
 2808078:	2880004c 	andi	r2,r5,1
        beq   r2, zero, .Lnot_irq
 280807c:	10000326 	beq	r2,zero,280808c <alt_exception+0x6c>
        beq   r4, zero, .Lnot_irq
 2808080:	20000226 	beq	r4,zero,280808c <alt_exception+0x6c>
        /*
         * Now that all necessary registers have been preserved, call 
         * alt_irq_handler() to process the interrupts.
         */

        call alt_irq_handler
 2808084:	28080fc0 	call	28080fc <alt_irq_handler>

        .section .exceptions.irqreturn, "xa"

        br    .Lexception_exit
 2808088:	00000706 	br	28080a8 <alt_exception+0x88>
         * upon completion, so we write ea (address of instruction *after*
         * the one where the exception occured) into 72(sp). The actual
         * instruction that caused the exception is written in r2, which these
         * handlers will utilize.
         */
        stw   ea,  72(sp)  /* Don't re-issue */
 280808c:	df401215 	stw	ea,72(sp)
        ldw   r2, -4(ea)   /* Instruction that caused exception */
 2808090:	e8bfff17 	ldw	r2,-4(ea)
         * debugger is present) or go into an infinite loop since the
         * handling behavior is undefined; in that case we will not return here.
         */

        /* Load exception-causing address as first argument (r4) */
        addi   r4, ea, -4
 2808094:	e93fff04 	addi	r4,ea,-4

        /* Call the instruction-exception entry */
        call   alt_instruction_exception_entry
 2808098:	28081c40 	call	28081c4 <alt_instruction_exception_entry>
         * instruction
         *
         * Return code was 0: Skip. The instruction after the exception is
         * already stored in 72(sp).
         */
        bne   r2, r0, .Lexception_exit
 280809c:	1000021e 	bne	r2,zero,28080a8 <alt_exception+0x88>

        /*
         * Otherwise, modify 72(sp) to re-issue the instruction that caused the
         * exception.
         */
        addi  r15, ea, -4  /* instruction that caused exception */
 28080a0:	ebffff04 	addi	r15,ea,-4
        stw   r15,  72(sp)
 28080a4:	dbc01215 	stw	r15,72(sp)
        /* 
         * Restore the saved registers, so that all general purpose registers 
         * have been restored to their state at the time the interrupt occured.
         */

        ldw   r5,  68(sp)
 28080a8:	d9401117 	ldw	r5,68(sp)
        ldw   ea,  72(sp)  /* This becomes the PC once eret is executed */
 28080ac:	df401217 	ldw	ea,72(sp)
        ldw   ra,   0(sp)
 28080b0:	dfc00017 	ldw	ra,0(sp)

        wrctl estatus, r5
 28080b4:	2801707a 	wrctl	estatus,r5

        ldw   r1,   8(sp)
 28080b8:	d8400217 	ldw	at,8(sp)
        ldw   r2,  12(sp)
 28080bc:	d8800317 	ldw	r2,12(sp)
        ldw   r3,  16(sp)
 28080c0:	d8c00417 	ldw	r3,16(sp)
        ldw   r4,  20(sp)
 28080c4:	d9000517 	ldw	r4,20(sp)
        ldw   r5,  24(sp)
 28080c8:	d9400617 	ldw	r5,24(sp)
        ldw   r6,  28(sp)
 28080cc:	d9800717 	ldw	r6,28(sp)
        ldw   r7,  32(sp)
 28080d0:	d9c00817 	ldw	r7,32(sp)
#ifdef ALT_STACK_CHECK
        ldw   et, %gprel(alt_exception_old_stack_limit)(gp)
#endif
#endif

        ldw   r8,  36(sp)
 28080d4:	da000917 	ldw	r8,36(sp)
        ldw   r9,  40(sp)
 28080d8:	da400a17 	ldw	r9,40(sp)
        ldw   r10, 44(sp)
 28080dc:	da800b17 	ldw	r10,44(sp)
        ldw   r11, 48(sp)
 28080e0:	dac00c17 	ldw	r11,48(sp)
        ldw   r12, 52(sp)
 28080e4:	db000d17 	ldw	r12,52(sp)
        ldw   r13, 56(sp)
 28080e8:	db400e17 	ldw	r13,56(sp)
        ldw   r14, 60(sp)
 28080ec:	db800f17 	ldw	r14,60(sp)
        ldw   r15, 64(sp)
 28080f0:	dbc01017 	ldw	r15,64(sp)
#endif

        ldw   sp,  76(sp)

#else
        addi  sp, sp, 76
 28080f4:	dec01304 	addi	sp,sp,76

        /*
         * Return to the interrupted instruction.
         */

        eret
 28080f8:	ef80083a 	eret

028080fc <alt_irq_handler>:
 * instruction is present if the macro ALT_CI_INTERRUPT_VECTOR defined.
 */

void alt_irq_handler (void) __attribute__ ((section (".exceptions")));
void alt_irq_handler (void)
{
 28080fc:	defff904 	addi	sp,sp,-28
 2808100:	dfc00615 	stw	ra,24(sp)
 2808104:	df000515 	stw	fp,20(sp)
 2808108:	df000504 	addi	fp,sp,20
#ifndef NIOS2_EIC_PRESENT
static ALT_INLINE alt_u32 ALT_ALWAYS_INLINE alt_irq_pending (void)
{
  alt_u32 active;

  NIOS2_READ_IPENDING (active);
 280810c:	0005313a 	rdctl	r2,ipending
 2808110:	e0bffc15 	stw	r2,-16(fp)

  return active;
 2808114:	e0bffc17 	ldw	r2,-16(fp)
   * Consider the case where the high priority interupt is asserted during
   * the interrupt entry sequence for a lower priority interrupt to see why
   * this is the case.
   */

  active = alt_irq_pending ();
 2808118:	e0bfff15 	stw	r2,-4(fp)

  do
  {
    i = 0;
 280811c:	e03ffd15 	stw	zero,-12(fp)
    mask = 1;
 2808120:	00800044 	movi	r2,1
 2808124:	e0bffe15 	stw	r2,-8(fp)
     * called to clear the interrupt condition.
     */

    do
    {
      if (active & mask)
 2808128:	e0ffff17 	ldw	r3,-4(fp)
 280812c:	e0bffe17 	ldw	r2,-8(fp)
 2808130:	1884703a 	and	r2,r3,r2
 2808134:	1005003a 	cmpeq	r2,r2,zero
 2808138:	1000161e 	bne	r2,zero,2808194 <alt_irq_handler+0x98>
      { 
#ifdef ALT_ENHANCED_INTERRUPT_API_PRESENT
        alt_irq[i].handler(alt_irq[i].context); 
 280813c:	e0bffd17 	ldw	r2,-12(fp)
 2808140:	00c06074 	movhi	r3,385
 2808144:	18caf604 	addi	r3,r3,11224
 2808148:	100490fa 	slli	r2,r2,3
 280814c:	10c5883a 	add	r2,r2,r3
 2808150:	11400017 	ldw	r5,0(r2)
 2808154:	e0bffd17 	ldw	r2,-12(fp)
 2808158:	00c06074 	movhi	r3,385
 280815c:	18caf604 	addi	r3,r3,11224
 2808160:	100490fa 	slli	r2,r2,3
 2808164:	10c5883a 	add	r2,r2,r3
 2808168:	10800104 	addi	r2,r2,4
 280816c:	11000017 	ldw	r4,0(r2)
 2808170:	283ee83a 	callr	r5
#ifndef NIOS2_EIC_PRESENT
static ALT_INLINE alt_u32 ALT_ALWAYS_INLINE alt_irq_pending (void)
{
  alt_u32 active;

  NIOS2_READ_IPENDING (active);
 2808174:	0005313a 	rdctl	r2,ipending
 2808178:	e0bffb15 	stw	r2,-20(fp)

  return active;
 280817c:	e0bffb17 	ldw	r2,-20(fp)
      mask <<= 1;
      i++;

    } while (1);

    active = alt_irq_pending ();
 2808180:	e0bfff15 	stw	r2,-4(fp)
    
  } while (active);
 2808184:	e0bfff17 	ldw	r2,-4(fp)
 2808188:	1004c03a 	cmpne	r2,r2,zero
 280818c:	103fe31e 	bne	r2,zero,280811c <alt_irq_handler+0x20>
 2808190:	00000706 	br	28081b0 <alt_irq_handler+0xb4>
#else
        alt_irq[i].handler(alt_irq[i].context, i); 
#endif
        break;
      }
      mask <<= 1;
 2808194:	e0bffe17 	ldw	r2,-8(fp)
 2808198:	1085883a 	add	r2,r2,r2
 280819c:	e0bffe15 	stw	r2,-8(fp)
      i++;
 28081a0:	e0bffd17 	ldw	r2,-12(fp)
 28081a4:	10800044 	addi	r2,r2,1
 28081a8:	e0bffd15 	stw	r2,-12(fp)

    } while (1);
 28081ac:	003fde06 	br	2808128 <alt_irq_handler+0x2c>
  /*
   * Notify the operating system that interrupt processing is complete.
   */ 

  ALT_OS_INT_EXIT();
}
 28081b0:	e037883a 	mov	sp,fp
 28081b4:	dfc00117 	ldw	ra,4(sp)
 28081b8:	df000017 	ldw	fp,0(sp)
 28081bc:	dec00204 	addi	sp,sp,8
 28081c0:	f800283a 	ret

028081c4 <alt_instruction_exception_entry>:
 * using alt_instruction_exception_register(). This routine will call
 * that handler if it has been registered. Absent a handler, it will
 * break break or hang as discussed below.
 */
int alt_instruction_exception_entry (alt_u32 exception_pc)
{
 28081c4:	defffa04 	addi	sp,sp,-24
 28081c8:	dfc00515 	stw	ra,20(sp)
 28081cc:	df000415 	stw	fp,16(sp)
 28081d0:	df000404 	addi	fp,sp,16
 28081d4:	e13ffe15 	stw	r4,-8(fp)
  cause = ( (cause & NIOS2_EXCEPTION_REG_CAUSE_MASK) >>
              NIOS2_EXCEPTION_REG_CAUSE_OFST );

  NIOS2_READ_BADADDR(badaddr);
#else
  cause = NIOS2_EXCEPTION_CAUSE_NOT_PRESENT;
 28081d8:	00bfffc4 	movi	r2,-1
 28081dc:	e0bffd15 	stw	r2,-12(fp)
  badaddr = 0;
 28081e0:	e03ffc15 	stw	zero,-16(fp)
#endif /* NIOS2_HAS_EXTRA_EXCEPTION_INFO */

  if(alt_instruction_exception_handler) {
 28081e4:	d0a02117 	ldw	r2,-32636(gp)
 28081e8:	1005003a 	cmpeq	r2,r2,zero
 28081ec:	1000071e 	bne	r2,zero,280820c <alt_instruction_exception_entry+0x48>
     * Call handler. Its return value indicates whether the exception-causing
     * instruction should be re-issued. The code that called us,
     * alt_eceptions_entry.S, will look at this value and adjust the ea
     * register as necessary
     */
    return alt_instruction_exception_handler(cause, exception_pc, badaddr);
 28081f0:	d0a02117 	ldw	r2,-32636(gp)
 28081f4:	e13ffd17 	ldw	r4,-12(fp)
 28081f8:	e17ffe17 	ldw	r5,-8(fp)
 28081fc:	e1bffc17 	ldw	r6,-16(fp)
 2808200:	103ee83a 	callr	r2
 2808204:	e0bfff15 	stw	r2,-4(fp)
 2808208:	00000206 	br	2808214 <alt_instruction_exception_entry+0x50>
   *    (a peripheral which negates its interrupt output before its
   *    interrupt handler has been executed will cause spurious interrupts)
   */
  else {
#ifdef NIOS2_HAS_DEBUG_STUB
    NIOS2_BREAK();
 280820c:	003da03a 	break	0
      ;
#endif /* NIOS2_HAS_DEBUG_STUB */
  }

  /* // We should not get here. Remove compiler warning. */
  return NIOS2_EXCEPTION_RETURN_REISSUE_INST;
 2808210:	e03fff15 	stw	zero,-4(fp)
 2808214:	e0bfff17 	ldw	r2,-4(fp)
}
 2808218:	e037883a 	mov	sp,fp
 280821c:	dfc00117 	ldw	ra,4(sp)
 2808220:	df000017 	ldw	fp,0(sp)
 2808224:	dec00204 	addi	sp,sp,8
 2808228:	f800283a 	ret

Disassembly of section .text:

01800000 <_start>:

    /* Assume the data cache size is always a power of two. */
#if NIOS2_DCACHE_SIZE > 0x8000
    movhi r2, %hi(NIOS2_DCACHE_SIZE)
#else
    movui r2, NIOS2_DCACHE_SIZE
 1800000:	00840014 	movui	r2,4096
#endif

0:
    initd 0(r2)
 1800004:	10000033 	initd	0(r2)
    addi r2, r2, -NIOS2_DCACHE_LINE_SIZE
 1800008:	10bff804 	addi	r2,r2,-32
    bgt r2, zero, 0b
 180000c:	00bffd16 	blt	zero,r2,1800004 <_start+0x4>
#if (NIOS2_NUM_OF_SHADOW_REG_SETS == 0)    
    /*
     * Now that the caches are initialized, set up the stack pointer.
     * The value provided by the linker is assumed to be correctly aligned.
     */
    movhi sp, %hi(__alt_stack_pointer)
 1800010:	06c08034 	movhi	sp,512
    ori sp, sp, %lo(__alt_stack_pointer)
 1800014:	dec00014 	ori	sp,sp,0

    /* Set up the global pointer. */
    movhi gp, %hi(_gp)
 1800018:	06806074 	movhi	gp,385
    ori gp, gp, %lo(_gp)
 180001c:	d6aaca14 	ori	gp,gp,43816
 */
#ifndef ALT_SIM_OPTIMIZE
    /* Log that the BSS is about to be cleared. */
    ALT_LOG_PUTS(alt_log_msg_bss)

    movhi r2, %hi(__bss_start)
 1800020:	00806074 	movhi	r2,385
    ori r2, r2, %lo(__bss_start)
 1800024:	108ade14 	ori	r2,r2,11128

    movhi r3, %hi(__bss_end)
 1800028:	00c06074 	movhi	r3,385
    ori r3, r3, %lo(__bss_end)
 180002c:	18cb9a14 	ori	r3,r3,11880

    beq r2, r3, 1f
 1800030:	10c00326 	beq	r2,r3,1800040 <_start+0x40>

0:
    stw zero, (r2)
 1800034:	10000015 	stw	zero,0(r2)
    addi r2, r2, 4
 1800038:	10800104 	addi	r2,r2,4
    bltu r2, r3, 0b
 180003c:	10fffd36 	bltu	r2,r3,1800034 <_start+0x34>

    /* Log that alt_main is about to be called. */
    ALT_LOG_PUTS(alt_log_msg_alt_main)

    /* Call the C entry point. It should never return. */
    call alt_main
 1800040:	180a1d80 	call	180a1d8 <alt_main>

01800044 <alt_after_alt_main>:

    /* Wait in infinite loop in case alt_main does return. */
alt_after_alt_main:
    br alt_after_alt_main
 1800044:	003fff06 	br	1800044 <alt_after_alt_main>

01800048 <main>:

#include <stdio.h>
#include "pwm.h"

int main()
{
 1800048:	defffc04 	addi	sp,sp,-16
 180004c:	dfc00315 	stw	ra,12(sp)
 1800050:	df000215 	stw	fp,8(sp)
 1800054:	df000204 	addi	fp,sp,8
	printf("lololol lolol\n");
 1800058:	01006074 	movhi	r4,385
 180005c:	21021004 	addi	r4,r4,2112
 1800060:	18006800 	call	1800680 <puts>
  Initilise_PWM('G');
 1800064:	010011c4 	movi	r4,71
 1800068:	18001580 	call	1800158 <Initilise_PWM>
  Initilise_PWM('W');
 180006c:	010015c4 	movi	r4,87
 1800070:	18001580 	call	1800158 <Initilise_PWM>
  Initilise_PWM('E');
 1800074:	01001144 	movi	r4,69
 1800078:	18001580 	call	1800158 <Initilise_PWM>
  Initilise_PWM('S');
 180007c:	010014c4 	movi	r4,83
 1800080:	18001580 	call	1800158 <Initilise_PWM>
  Initilise_PWM('B');
 1800084:	01001084 	movi	r4,66
 1800088:	18001580 	call	1800158 <Initilise_PWM>
  printf("initialised\n");
 180008c:	01006074 	movhi	r4,385
 1800090:	21021404 	addi	r4,r4,2128
 1800094:	18006800 	call	1800680 <puts>
  int pwm = 75;
 1800098:	008012c4 	movi	r2,75
 180009c:	e0bfff15 	stw	r2,-4(fp)
  int dir = 1;
 18000a0:	00800044 	movi	r2,1
 18000a4:	e0bffe15 	stw	r2,-8(fp)

  while(1)
  {
	  if((pwm == 100) || (pwm == 50))
 18000a8:	e0bfff17 	ldw	r2,-4(fp)
 18000ac:	10801920 	cmpeqi	r2,r2,100
 18000b0:	1000031e 	bne	r2,zero,18000c0 <main+0x78>
 18000b4:	e0bfff17 	ldw	r2,-4(fp)
 18000b8:	10800c98 	cmpnei	r2,r2,50
 18000bc:	1000031e 	bne	r2,zero,18000cc <main+0x84>
		{
			dir = !dir;
 18000c0:	e0bffe17 	ldw	r2,-8(fp)
 18000c4:	1005003a 	cmpeq	r2,r2,zero
 18000c8:	e0bffe15 	stw	r2,-8(fp)
		}

	  if(dir == 1)
 18000cc:	e0bffe17 	ldw	r2,-8(fp)
 18000d0:	10800058 	cmpnei	r2,r2,1
 18000d4:	1000041e 	bne	r2,zero,18000e8 <main+0xa0>
	  {
		  pwm++;
 18000d8:	e0bfff17 	ldw	r2,-4(fp)
 18000dc:	10800044 	addi	r2,r2,1
 18000e0:	e0bfff15 	stw	r2,-4(fp)
 18000e4:	00000606 	br	1800100 <main+0xb8>
	  }
	  else if(dir == 0)
 18000e8:	e0bffe17 	ldw	r2,-8(fp)
 18000ec:	1004c03a 	cmpne	r2,r2,zero
 18000f0:	1000031e 	bne	r2,zero,1800100 <main+0xb8>
	  {
		  pwm--;
 18000f4:	e0bfff17 	ldw	r2,-4(fp)
 18000f8:	10bfffc4 	addi	r2,r2,-1
 18000fc:	e0bfff15 	stw	r2,-4(fp)
	  }
	  //write to the pwm modules
	  Set_Servo_Position('G', 75);
 1800100:	010011c4 	movi	r4,71
 1800104:	014012c4 	movi	r5,75
 1800108:	18004380 	call	1800438 <Set_Servo_Position>
	  Set_Servo_Position('W', pwm);
 180010c:	010015c4 	movi	r4,87
 1800110:	e17fff17 	ldw	r5,-4(fp)
 1800114:	18004380 	call	1800438 <Set_Servo_Position>
	  Set_Servo_Position('E', pwm);
 1800118:	01001144 	movi	r4,69
 180011c:	e17fff17 	ldw	r5,-4(fp)
 1800120:	18004380 	call	1800438 <Set_Servo_Position>
	  Set_Servo_Position('S', pwm);
 1800124:	010014c4 	movi	r4,83
 1800128:	e17fff17 	ldw	r5,-4(fp)
 180012c:	18004380 	call	1800438 <Set_Servo_Position>
	  Set_Servo_Position('B', pwm);
 1800130:	01001084 	movi	r4,66
 1800134:	e17fff17 	ldw	r5,-4(fp)
 1800138:	18004380 	call	1800438 <Set_Servo_Position>
	  usleep(50000);
 180013c:	0130d414 	movui	r4,50000
 1800140:	180a5200 	call	180a520 <usleep>
	  printf("set to %d\n", pwm);
 1800144:	01006074 	movhi	r4,385
 1800148:	21021704 	addi	r4,r4,2140
 180014c:	e17fff17 	ldw	r5,-4(fp)
 1800150:	18005680 	call	1800568 <printf>
  }
 1800154:	003fd406 	br	18000a8 <main+0x60>

01800158 <Initilise_PWM>:
 *  Description : This module runs the start up sequence for whichever PWM module is specified
 *                by the input variable
 *
 **************************************************************************************************/
int Initilise_PWM(char Module_To_Initilise)
{
 1800158:	defffd04 	addi	sp,sp,-12
 180015c:	df000215 	stw	fp,8(sp)
 1800160:	df000204 	addi	fp,sp,8
 1800164:	e13ffe05 	stb	r4,-8(fp)
    switch (Module_To_Initilise)
 1800168:	e0bffe07 	ldb	r2,-8(fp)
 180016c:	10bfef84 	addi	r2,r2,-66
 1800170:	e0bfff15 	stw	r2,-4(fp)
 1800174:	e0ffff17 	ldw	r3,-4(fp)
 1800178:	188005a8 	cmpgeui	r2,r3,22
 180017c:	10006b1e 	bne	r2,zero,180032c <Initilise_PWM+0x1d4>
 1800180:	e13fff17 	ldw	r4,-4(fp)
 1800184:	e13fff17 	ldw	r4,-4(fp)
 1800188:	2105883a 	add	r2,r4,r4
 180018c:	1087883a 	add	r3,r2,r2
 1800190:	00806034 	movhi	r2,384
 1800194:	10806904 	addi	r2,r2,420
 1800198:	1885883a 	add	r2,r3,r2
 180019c:	10800017 	ldw	r2,0(r2)
 18001a0:	1000683a 	jmp	r2
 18001a4:	018001fc 	xorhi	r6,zero,7
 18001a8:	0180032c 	andhi	r6,zero,12
 18001ac:	0180032c 	andhi	r6,zero,12
 18001b0:	01800294 	movui	r6,10
 18001b4:	0180032c 	andhi	r6,zero,12
 18001b8:	018002fc 	xorhi	r6,zero,11
 18001bc:	0180032c 	andhi	r6,zero,12
 18001c0:	0180032c 	andhi	r6,zero,12
 18001c4:	0180032c 	andhi	r6,zero,12
 18001c8:	0180032c 	andhi	r6,zero,12
 18001cc:	0180032c 	andhi	r6,zero,12
 18001d0:	0180032c 	andhi	r6,zero,12
 18001d4:	0180032c 	andhi	r6,zero,12
 18001d8:	0180032c 	andhi	r6,zero,12
 18001dc:	0180032c 	andhi	r6,zero,12
 18001e0:	0180032c 	andhi	r6,zero,12
 18001e4:	0180032c 	andhi	r6,zero,12
 18001e8:	01800230 	cmpltui	r6,zero,8
 18001ec:	0180032c 	andhi	r6,zero,12
 18001f0:	0180032c 	andhi	r6,zero,12
 18001f4:	0180032c 	andhi	r6,zero,12
 18001f8:	018002c8 	cmpgei	r6,zero,11
    {
        case 'B' :
            IOWR_ALTERA_AVALON_PWM_CLK_DIV(MY_PWM_5_BASE, 100);
 18001fc:	00c07904 	movi	r3,484
 1800200:	00801904 	movi	r2,100
 1800204:	18800035 	stwio	r2,0(r3)
            IOWR_ALTERA_AVALON_PWM_DUTY(MY_PWM_5_BASE, 50);
 1800208:	00c07804 	movi	r3,480
 180020c:	00800c84 	movi	r2,50
 1800210:	18800035 	stwio	r2,0(r3)
            IOWR_ALTERA_AVALON_PWM_PERIOD(MY_PWM_5_BASE, 1000);
 1800214:	00c07a04 	movi	r3,488
 1800218:	0080fa04 	movi	r2,1000
 180021c:	18800035 	stwio	r2,0(r3)
            IOWR_ALTERA_AVALON_PWM_CONTROL(MY_PWM_5_BASE, 1);
 1800220:	00c07b04 	movi	r3,492
 1800224:	00800044 	movi	r2,1
 1800228:	18800035 	stwio	r2,0(r3)
            break;
 180022c:	00003f06 	br	180032c <Initilise_PWM+0x1d4>

        case 'S' :
            IOWR_ALTERA_AVALON_PWM_CLK_DIV(MY_PWM_3_BASE, 100);
 1800230:	00c07104 	movi	r3,452
 1800234:	00801904 	movi	r2,100
 1800238:	18800035 	stwio	r2,0(r3)
            IOWR_ALTERA_AVALON_PWM_DUTY(MY_PWM_3_BASE, 50);
 180023c:	00c07004 	movi	r3,448
 1800240:	00800c84 	movi	r2,50
 1800244:	18800035 	stwio	r2,0(r3)
            IOWR_ALTERA_AVALON_PWM_PERIOD(MY_PWM_3_BASE, 1000);
 1800248:	00c07204 	movi	r3,456
 180024c:	0080fa04 	movi	r2,1000
 1800250:	18800035 	stwio	r2,0(r3)
            IOWR_ALTERA_AVALON_PWM_CONTROL(MY_PWM_3_BASE, 1);
 1800254:	00c07304 	movi	r3,460
 1800258:	00800044 	movi	r2,1
 180025c:	18800035 	stwio	r2,0(r3)

            IOWR_ALTERA_AVALON_PWM_CLK_DIV(MY_PWM_4_BASE, 100);
 1800260:	00c07504 	movi	r3,468
 1800264:	00801904 	movi	r2,100
 1800268:	18800035 	stwio	r2,0(r3)
            IOWR_ALTERA_AVALON_PWM_DUTY(MY_PWM_4_BASE, 50);
 180026c:	00c07404 	movi	r3,464
 1800270:	00800c84 	movi	r2,50
 1800274:	18800035 	stwio	r2,0(r3)
            IOWR_ALTERA_AVALON_PWM_PERIOD(MY_PWM_4_BASE, 1000);
 1800278:	00c07604 	movi	r3,472
 180027c:	0080fa04 	movi	r2,1000
 1800280:	18800035 	stwio	r2,0(r3)
            IOWR_ALTERA_AVALON_PWM_CONTROL(MY_PWM_4_BASE, 1);
 1800284:	00c07704 	movi	r3,476
 1800288:	00800044 	movi	r2,1
 180028c:	18800035 	stwio	r2,0(r3)
            break;
 1800290:	00002606 	br	180032c <Initilise_PWM+0x1d4>

        case 'E' :
            IOWR_ALTERA_AVALON_PWM_CLK_DIV(MY_PWM_2_BASE, 100);
 1800294:	00c06d04 	movi	r3,436
 1800298:	00801904 	movi	r2,100
 180029c:	18800035 	stwio	r2,0(r3)
            IOWR_ALTERA_AVALON_PWM_DUTY(MY_PWM_2_BASE, 50);
 18002a0:	00c06c04 	movi	r3,432
 18002a4:	00800c84 	movi	r2,50
 18002a8:	18800035 	stwio	r2,0(r3)
            IOWR_ALTERA_AVALON_PWM_PERIOD(MY_PWM_2_BASE, 1000);
 18002ac:	00c06e04 	movi	r3,440
 18002b0:	0080fa04 	movi	r2,1000
 18002b4:	18800035 	stwio	r2,0(r3)
            IOWR_ALTERA_AVALON_PWM_CONTROL(MY_PWM_2_BASE, 1);
 18002b8:	00c06f04 	movi	r3,444
 18002bc:	00800044 	movi	r2,1
 18002c0:	18800035 	stwio	r2,0(r3)
            break;
 18002c4:	00001906 	br	180032c <Initilise_PWM+0x1d4>

        case 'W' :
            IOWR_ALTERA_AVALON_PWM_CLK_DIV(MY_PWM_1_BASE, 100);
 18002c8:	00c06904 	movi	r3,420
 18002cc:	00801904 	movi	r2,100
 18002d0:	18800035 	stwio	r2,0(r3)
            IOWR_ALTERA_AVALON_PWM_DUTY(MY_PWM_1_BASE, 50);
 18002d4:	00c06804 	movi	r3,416
 18002d8:	00800c84 	movi	r2,50
 18002dc:	18800035 	stwio	r2,0(r3)
            IOWR_ALTERA_AVALON_PWM_PERIOD(MY_PWM_1_BASE, 1000);
 18002e0:	00c06a04 	movi	r3,424
 18002e4:	0080fa04 	movi	r2,1000
 18002e8:	18800035 	stwio	r2,0(r3)
            IOWR_ALTERA_AVALON_PWM_CONTROL(MY_PWM_1_BASE, 1);
 18002ec:	00c06b04 	movi	r3,428
 18002f0:	00800044 	movi	r2,1
 18002f4:	18800035 	stwio	r2,0(r3)
            break;
 18002f8:	00000c06 	br	180032c <Initilise_PWM+0x1d4>

        case 'G' :
            IOWR_ALTERA_AVALON_PWM_CLK_DIV(MY_PWM_0_BASE,100);
 18002fc:	00c06504 	movi	r3,404
 1800300:	00801904 	movi	r2,100
 1800304:	18800035 	stwio	r2,0(r3)
            IOWR_ALTERA_AVALON_PWM_DUTY(MY_PWM_0_BASE, 50);
 1800308:	00c06404 	movi	r3,400
 180030c:	00800c84 	movi	r2,50
 1800310:	18800035 	stwio	r2,0(r3)
            IOWR_ALTERA_AVALON_PWM_PERIOD(MY_PWM_0_BASE, 1000);
 1800314:	00c06604 	movi	r3,408
 1800318:	0080fa04 	movi	r2,1000
 180031c:	18800035 	stwio	r2,0(r3)
            IOWR_ALTERA_AVALON_PWM_CONTROL(MY_PWM_0_BASE, 1);
 1800320:	00c06704 	movi	r3,412
 1800324:	00800044 	movi	r2,1
 1800328:	18800035 	stwio	r2,0(r3)

            default :
            	break;
                return 0;
    }
    return 1;
 180032c:	00800044 	movi	r2,1
}
 1800330:	e037883a 	mov	sp,fp
 1800334:	df000017 	ldw	fp,0(sp)
 1800338:	dec00104 	addi	sp,sp,4
 180033c:	f800283a 	ret

01800340 <Set_PWM_Duty_Cycle>:
 *
 *  Description : This module updates the duty cycle for the selected PWM module
 *
 **************************************************************************************************/
int Set_PWM_Duty_Cycle ( int Channel, int Duty_Cycle)
{
 1800340:	defffb04 	addi	sp,sp,-20
 1800344:	df000415 	stw	fp,16(sp)
 1800348:	df000404 	addi	fp,sp,16
 180034c:	e13ffd15 	stw	r4,-12(fp)
 1800350:	e17ffe15 	stw	r5,-8(fp)
    //get address of PWM Channel

    int Address = 0;
 1800354:	e03ffc15 	stw	zero,-16(fp)

    switch (Channel)
 1800358:	e0bffd17 	ldw	r2,-12(fp)
 180035c:	108001e8 	cmpgeui	r2,r2,7
 1800360:	1000211e 	bne	r2,zero,18003e8 <Set_PWM_Duty_Cycle+0xa8>
 1800364:	e0bffd17 	ldw	r2,-12(fp)
 1800368:	1085883a 	add	r2,r2,r2
 180036c:	1087883a 	add	r3,r2,r2
 1800370:	00806034 	movhi	r2,384
 1800374:	1080e104 	addi	r2,r2,900
 1800378:	1885883a 	add	r2,r3,r2
 180037c:	10800017 	ldw	r2,0(r2)
 1800380:	1000683a 	jmp	r2
 1800384:	018003e8 	cmpgeui	r6,zero,15
 1800388:	018003a0 	cmpeqi	r6,zero,14
 180038c:	018003ac 	andhi	r6,zero,14
 1800390:	018003b8 	rdprs	r6,zero,14
 1800394:	018003c4 	movi	r6,15
 1800398:	018003d0 	cmplti	r6,zero,15
 180039c:	018003dc 	xori	r6,zero,15
    {
        case 1 :
            Address = MY_PWM_0_BASE;
 18003a0:	00806404 	movi	r2,400
 18003a4:	e0bffc15 	stw	r2,-16(fp)
            break;
 18003a8:	00001106 	br	18003f0 <Set_PWM_Duty_Cycle+0xb0>
        case 2 :
            Address = MY_PWM_1_BASE;
 18003ac:	00806804 	movi	r2,416
 18003b0:	e0bffc15 	stw	r2,-16(fp)
            break;
 18003b4:	00000e06 	br	18003f0 <Set_PWM_Duty_Cycle+0xb0>
        case 3 :
            Address = MY_PWM_2_BASE;
 18003b8:	00806c04 	movi	r2,432
 18003bc:	e0bffc15 	stw	r2,-16(fp)
            break;
 18003c0:	00000b06 	br	18003f0 <Set_PWM_Duty_Cycle+0xb0>
        case 4 :
            Address = MY_PWM_3_BASE;
 18003c4:	00807004 	movi	r2,448
 18003c8:	e0bffc15 	stw	r2,-16(fp)
            break;
 18003cc:	00000806 	br	18003f0 <Set_PWM_Duty_Cycle+0xb0>
        case 5 :
            Address = MY_PWM_4_BASE;
 18003d0:	00807404 	movi	r2,464
 18003d4:	e0bffc15 	stw	r2,-16(fp)
            break;
 18003d8:	00000506 	br	18003f0 <Set_PWM_Duty_Cycle+0xb0>
        case 6 :
            Address = MY_PWM_5_BASE;
 18003dc:	00807804 	movi	r2,480
 18003e0:	e0bffc15 	stw	r2,-16(fp)
            break;
 18003e4:	00000206 	br	18003f0 <Set_PWM_Duty_Cycle+0xb0>
        default :
            //unrecognised channal selected
            return 0;
 18003e8:	e03fff15 	stw	zero,-4(fp)
 18003ec:	00000d06 	br	1800424 <Set_PWM_Duty_Cycle+0xe4>

    }

    //check the desired PWM module is active
    if(IORD_ALTERA_AVALON_PWM_CONTROL(Address) == 0)
 18003f0:	e0bffc17 	ldw	r2,-16(fp)
 18003f4:	10800304 	addi	r2,r2,12
 18003f8:	10800037 	ldwio	r2,0(r2)
 18003fc:	1004c03a 	cmpne	r2,r2,zero
 1800400:	1000021e 	bne	r2,zero,180040c <Set_PWM_Duty_Cycle+0xcc>
    {
        return 0;
 1800404:	e03fff15 	stw	zero,-4(fp)
 1800408:	00000606 	br	1800424 <Set_PWM_Duty_Cycle+0xe4>

    //check duty cycle is within bounds (0-100)
    //if(Duty_Cycle > 125) Duty_Cycle = 125;
    //if(Duty_Cycle < 25) Duty_Cycle = 0;
    //set the channel to the desired Duty Cycle
    IOWR_ALTERA_AVALON_PWM_DUTY(Address, Duty_Cycle);
 180040c:	e0bffc17 	ldw	r2,-16(fp)
 1800410:	1007883a 	mov	r3,r2
 1800414:	e0bffe17 	ldw	r2,-8(fp)
 1800418:	18800035 	stwio	r2,0(r3)

    return 1;
 180041c:	00800044 	movi	r2,1
 1800420:	e0bfff15 	stw	r2,-4(fp)
 1800424:	e0bfff17 	ldw	r2,-4(fp)
}
 1800428:	e037883a 	mov	sp,fp
 180042c:	df000017 	ldw	fp,0(sp)
 1800430:	dec00104 	addi	sp,sp,4
 1800434:	f800283a 	ret

01800438 <Set_Servo_Position>:
 *
 *  Description : This module updates the duty cycle for the selected PWM module
 *
 **************************************************************************************************/
int Set_Servo_Position (char Servo, int Position)
{
 1800438:	defffa04 	addi	sp,sp,-24
 180043c:	dfc00515 	stw	ra,20(sp)
 1800440:	df000415 	stw	fp,16(sp)
 1800444:	df000404 	addi	fp,sp,16
 1800448:	e17ffd15 	stw	r5,-12(fp)
 180044c:	e13ffc05 	stb	r4,-16(fp)
    switch (Servo)
 1800450:	e0bffc07 	ldb	r2,-16(fp)
 1800454:	10bfef84 	addi	r2,r2,-66
 1800458:	e0bfff15 	stw	r2,-4(fp)
 180045c:	e0ffff17 	ldw	r3,-4(fp)
 1800460:	188005a8 	cmpgeui	r2,r3,22
 1800464:	1000361e 	bne	r2,zero,1800540 <Set_Servo_Position+0x108>
 1800468:	e13fff17 	ldw	r4,-4(fp)
 180046c:	e13fff17 	ldw	r4,-4(fp)
 1800470:	2105883a 	add	r2,r4,r4
 1800474:	1087883a 	add	r3,r2,r2
 1800478:	00806034 	movhi	r2,384
 180047c:	10812304 	addi	r2,r2,1164
 1800480:	1885883a 	add	r2,r3,r2
 1800484:	10800017 	ldw	r2,0(r2)
 1800488:	1000683a 	jmp	r2
 180048c:	01800530 	cmpltui	r6,zero,20
 1800490:	01800540 	call	180054 <__alt_mem_sdram-0x167ffac>
 1800494:	01800540 	call	180054 <__alt_mem_sdram-0x167ffac>
 1800498:	01800504 	movi	r6,20
 180049c:	01800540 	call	180054 <__alt_mem_sdram-0x167ffac>
 18004a0:	018004e4 	muli	r6,zero,19
 18004a4:	01800540 	call	180054 <__alt_mem_sdram-0x167ffac>
 18004a8:	01800540 	call	180054 <__alt_mem_sdram-0x167ffac>
 18004ac:	01800540 	call	180054 <__alt_mem_sdram-0x167ffac>
 18004b0:	01800540 	call	180054 <__alt_mem_sdram-0x167ffac>
 18004b4:	01800540 	call	180054 <__alt_mem_sdram-0x167ffac>
 18004b8:	01800540 	call	180054 <__alt_mem_sdram-0x167ffac>
 18004bc:	01800540 	call	180054 <__alt_mem_sdram-0x167ffac>
 18004c0:	01800540 	call	180054 <__alt_mem_sdram-0x167ffac>
 18004c4:	01800540 	call	180054 <__alt_mem_sdram-0x167ffac>
 18004c8:	01800540 	call	180054 <__alt_mem_sdram-0x167ffac>
 18004cc:	01800540 	call	180054 <__alt_mem_sdram-0x167ffac>
 18004d0:	01800514 	movui	r6,20
 18004d4:	01800540 	call	180054 <__alt_mem_sdram-0x167ffac>
 18004d8:	01800540 	call	180054 <__alt_mem_sdram-0x167ffac>
 18004dc:	01800540 	call	180054 <__alt_mem_sdram-0x167ffac>
 18004e0:	018004f4 	movhi	r6,19
    {
        case 'G' :
        	Set_PWM_Duty_Cycle(1, Position);
 18004e4:	01000044 	movi	r4,1
 18004e8:	e17ffd17 	ldw	r5,-12(fp)
 18004ec:	18003400 	call	1800340 <Set_PWM_Duty_Cycle>
            break;
 18004f0:	00001506 	br	1800548 <Set_Servo_Position+0x110>
        case 'W' :
        	Set_PWM_Duty_Cycle(2, Position);
 18004f4:	01000084 	movi	r4,2
 18004f8:	e17ffd17 	ldw	r5,-12(fp)
 18004fc:	18003400 	call	1800340 <Set_PWM_Duty_Cycle>
            break;
 1800500:	00001106 	br	1800548 <Set_Servo_Position+0x110>
        case 'E' :
        	Set_PWM_Duty_Cycle(3, Position);
 1800504:	010000c4 	movi	r4,3
 1800508:	e17ffd17 	ldw	r5,-12(fp)
 180050c:	18003400 	call	1800340 <Set_PWM_Duty_Cycle>
            break;
 1800510:	00000d06 	br	1800548 <Set_Servo_Position+0x110>
        case 'S' :
        	Set_PWM_Duty_Cycle(4, Position);
 1800514:	01000104 	movi	r4,4
 1800518:	e17ffd17 	ldw	r5,-12(fp)
 180051c:	18003400 	call	1800340 <Set_PWM_Duty_Cycle>
        	Set_PWM_Duty_Cycle(5, Position);
 1800520:	01000144 	movi	r4,5
 1800524:	e17ffd17 	ldw	r5,-12(fp)
 1800528:	18003400 	call	1800340 <Set_PWM_Duty_Cycle>
            break;
 180052c:	00000606 	br	1800548 <Set_Servo_Position+0x110>
        case 'B' :
        	Set_PWM_Duty_Cycle(6, Position);
 1800530:	01000184 	movi	r4,6
 1800534:	e17ffd17 	ldw	r5,-12(fp)
 1800538:	18003400 	call	1800340 <Set_PWM_Duty_Cycle>
            break;
 180053c:	00000206 	br	1800548 <Set_Servo_Position+0x110>
        default :
            //unrecognised channal selected
            return 0;
 1800540:	e03ffe15 	stw	zero,-8(fp)
 1800544:	00000206 	br	1800550 <Set_Servo_Position+0x118>
    }
    return 1;
 1800548:	00800044 	movi	r2,1
 180054c:	e0bffe15 	stw	r2,-8(fp)
 1800550:	e0bffe17 	ldw	r2,-8(fp)
}
 1800554:	e037883a 	mov	sp,fp
 1800558:	dfc00117 	ldw	ra,4(sp)
 180055c:	df000017 	ldw	fp,0(sp)
 1800560:	dec00204 	addi	sp,sp,8
 1800564:	f800283a 	ret

01800568 <printf>:
 1800568:	defffb04 	addi	sp,sp,-20
 180056c:	dfc00115 	stw	ra,4(sp)
 1800570:	d9400215 	stw	r5,8(sp)
 1800574:	d9800315 	stw	r6,12(sp)
 1800578:	d9c00415 	stw	r7,16(sp)
 180057c:	00806074 	movhi	r2,385
 1800580:	108aca04 	addi	r2,r2,11048
 1800584:	10c00017 	ldw	r3,0(r2)
 1800588:	200b883a 	mov	r5,r4
 180058c:	d8800204 	addi	r2,sp,8
 1800590:	19000217 	ldw	r4,8(r3)
 1800594:	100d883a 	mov	r6,r2
 1800598:	d8800015 	stw	r2,0(sp)
 180059c:	180260c0 	call	180260c <__vfprintf_internal>
 18005a0:	dfc00117 	ldw	ra,4(sp)
 18005a4:	dec00504 	addi	sp,sp,20
 18005a8:	f800283a 	ret

018005ac <_printf_r>:
 18005ac:	defffc04 	addi	sp,sp,-16
 18005b0:	dfc00115 	stw	ra,4(sp)
 18005b4:	d9800215 	stw	r6,8(sp)
 18005b8:	d9c00315 	stw	r7,12(sp)
 18005bc:	280d883a 	mov	r6,r5
 18005c0:	21400217 	ldw	r5,8(r4)
 18005c4:	d8c00204 	addi	r3,sp,8
 18005c8:	180f883a 	mov	r7,r3
 18005cc:	d8c00015 	stw	r3,0(sp)
 18005d0:	18007600 	call	1800760 <___vfprintf_internal_r>
 18005d4:	dfc00117 	ldw	ra,4(sp)
 18005d8:	dec00404 	addi	sp,sp,16
 18005dc:	f800283a 	ret

018005e0 <_puts_r>:
 18005e0:	defff604 	addi	sp,sp,-40
 18005e4:	dc400715 	stw	r17,28(sp)
 18005e8:	2023883a 	mov	r17,r4
 18005ec:	2809883a 	mov	r4,r5
 18005f0:	dfc00915 	stw	ra,36(sp)
 18005f4:	dcc00815 	stw	r19,32(sp)
 18005f8:	2827883a 	mov	r19,r5
 18005fc:	18006940 	call	1800694 <strlen>
 1800600:	89400217 	ldw	r5,8(r17)
 1800604:	00c06074 	movhi	r3,385
 1800608:	18c21a04 	addi	r3,r3,2152
 180060c:	01c00044 	movi	r7,1
 1800610:	12000044 	addi	r8,r2,1
 1800614:	d8c00515 	stw	r3,20(sp)
 1800618:	d9c00615 	stw	r7,24(sp)
 180061c:	d8c00304 	addi	r3,sp,12
 1800620:	01c00084 	movi	r7,2
 1800624:	8809883a 	mov	r4,r17
 1800628:	d80d883a 	mov	r6,sp
 180062c:	d8c00015 	stw	r3,0(sp)
 1800630:	dcc00315 	stw	r19,12(sp)
 1800634:	da000215 	stw	r8,8(sp)
 1800638:	d9c00115 	stw	r7,4(sp)
 180063c:	d8800415 	stw	r2,16(sp)
 1800640:	18048680 	call	1804868 <__sfvwrite_r>
 1800644:	00ffffc4 	movi	r3,-1
 1800648:	10000626 	beq	r2,zero,1800664 <_puts_r+0x84>
 180064c:	1805883a 	mov	r2,r3
 1800650:	dfc00917 	ldw	ra,36(sp)
 1800654:	dcc00817 	ldw	r19,32(sp)
 1800658:	dc400717 	ldw	r17,28(sp)
 180065c:	dec00a04 	addi	sp,sp,40
 1800660:	f800283a 	ret
 1800664:	00c00284 	movi	r3,10
 1800668:	1805883a 	mov	r2,r3
 180066c:	dfc00917 	ldw	ra,36(sp)
 1800670:	dcc00817 	ldw	r19,32(sp)
 1800674:	dc400717 	ldw	r17,28(sp)
 1800678:	dec00a04 	addi	sp,sp,40
 180067c:	f800283a 	ret

01800680 <puts>:
 1800680:	00806074 	movhi	r2,385
 1800684:	108aca04 	addi	r2,r2,11048
 1800688:	200b883a 	mov	r5,r4
 180068c:	11000017 	ldw	r4,0(r2)
 1800690:	18005e01 	jmpi	18005e0 <_puts_r>

01800694 <strlen>:
 1800694:	208000cc 	andi	r2,r4,3
 1800698:	2011883a 	mov	r8,r4
 180069c:	1000161e 	bne	r2,zero,18006f8 <strlen+0x64>
 18006a0:	20c00017 	ldw	r3,0(r4)
 18006a4:	017fbff4 	movhi	r5,65279
 18006a8:	297fbfc4 	addi	r5,r5,-257
 18006ac:	01e02074 	movhi	r7,32897
 18006b0:	39e02004 	addi	r7,r7,-32640
 18006b4:	1945883a 	add	r2,r3,r5
 18006b8:	11c4703a 	and	r2,r2,r7
 18006bc:	00c6303a 	nor	r3,zero,r3
 18006c0:	1886703a 	and	r3,r3,r2
 18006c4:	18000c1e 	bne	r3,zero,18006f8 <strlen+0x64>
 18006c8:	280d883a 	mov	r6,r5
 18006cc:	380b883a 	mov	r5,r7
 18006d0:	21000104 	addi	r4,r4,4
 18006d4:	20800017 	ldw	r2,0(r4)
 18006d8:	1187883a 	add	r3,r2,r6
 18006dc:	1946703a 	and	r3,r3,r5
 18006e0:	0084303a 	nor	r2,zero,r2
 18006e4:	10c4703a 	and	r2,r2,r3
 18006e8:	103ff926 	beq	r2,zero,18006d0 <strlen+0x3c>
 18006ec:	20800007 	ldb	r2,0(r4)
 18006f0:	10000326 	beq	r2,zero,1800700 <strlen+0x6c>
 18006f4:	21000044 	addi	r4,r4,1
 18006f8:	20800007 	ldb	r2,0(r4)
 18006fc:	103ffd1e 	bne	r2,zero,18006f4 <strlen+0x60>
 1800700:	2205c83a 	sub	r2,r4,r8
 1800704:	f800283a 	ret

01800708 <__sprint_r>:
 1800708:	30800217 	ldw	r2,8(r6)
 180070c:	defffe04 	addi	sp,sp,-8
 1800710:	dc000015 	stw	r16,0(sp)
 1800714:	dfc00115 	stw	ra,4(sp)
 1800718:	3021883a 	mov	r16,r6
 180071c:	0007883a 	mov	r3,zero
 1800720:	1000061e 	bne	r2,zero,180073c <__sprint_r+0x34>
 1800724:	1805883a 	mov	r2,r3
 1800728:	30000115 	stw	zero,4(r6)
 180072c:	dfc00117 	ldw	ra,4(sp)
 1800730:	dc000017 	ldw	r16,0(sp)
 1800734:	dec00204 	addi	sp,sp,8
 1800738:	f800283a 	ret
 180073c:	18048680 	call	1804868 <__sfvwrite_r>
 1800740:	1007883a 	mov	r3,r2
 1800744:	1805883a 	mov	r2,r3
 1800748:	80000115 	stw	zero,4(r16)
 180074c:	80000215 	stw	zero,8(r16)
 1800750:	dfc00117 	ldw	ra,4(sp)
 1800754:	dc000017 	ldw	r16,0(sp)
 1800758:	dec00204 	addi	sp,sp,8
 180075c:	f800283a 	ret

01800760 <___vfprintf_internal_r>:
 1800760:	defea404 	addi	sp,sp,-1392
 1800764:	dd815815 	stw	r22,1376(sp)
 1800768:	dc015215 	stw	r16,1352(sp)
 180076c:	d9c15115 	stw	r7,1348(sp)
 1800770:	dfc15b15 	stw	ra,1388(sp)
 1800774:	df015a15 	stw	fp,1384(sp)
 1800778:	ddc15915 	stw	r23,1380(sp)
 180077c:	dd415715 	stw	r21,1372(sp)
 1800780:	dd015615 	stw	r20,1368(sp)
 1800784:	dcc15515 	stw	r19,1364(sp)
 1800788:	dc815415 	stw	r18,1360(sp)
 180078c:	dc415315 	stw	r17,1356(sp)
 1800790:	282d883a 	mov	r22,r5
 1800794:	3021883a 	mov	r16,r6
 1800798:	d9014f15 	stw	r4,1340(sp)
 180079c:	1804e8c0 	call	1804e8c <_localeconv_r>
 18007a0:	10800017 	ldw	r2,0(r2)
 18007a4:	d9c15117 	ldw	r7,1348(sp)
 18007a8:	d8814915 	stw	r2,1316(sp)
 18007ac:	d8814f17 	ldw	r2,1340(sp)
 18007b0:	10000226 	beq	r2,zero,18007bc <___vfprintf_internal_r+0x5c>
 18007b4:	10800e17 	ldw	r2,56(r2)
 18007b8:	10020d26 	beq	r2,zero,1800ff0 <___vfprintf_internal_r+0x890>
 18007bc:	b080030b 	ldhu	r2,12(r22)
 18007c0:	1080020c 	andi	r2,r2,8
 18007c4:	10020e26 	beq	r2,zero,1801000 <___vfprintf_internal_r+0x8a0>
 18007c8:	b0800417 	ldw	r2,16(r22)
 18007cc:	10020c26 	beq	r2,zero,1801000 <___vfprintf_internal_r+0x8a0>
 18007d0:	b200030b 	ldhu	r8,12(r22)
 18007d4:	00800284 	movi	r2,10
 18007d8:	40c0068c 	andi	r3,r8,26
 18007dc:	18802f1e 	bne	r3,r2,180089c <___vfprintf_internal_r+0x13c>
 18007e0:	b080038f 	ldh	r2,14(r22)
 18007e4:	10002d16 	blt	r2,zero,180089c <___vfprintf_internal_r+0x13c>
 18007e8:	b240038b 	ldhu	r9,14(r22)
 18007ec:	b2800717 	ldw	r10,28(r22)
 18007f0:	b2c00917 	ldw	r11,36(r22)
 18007f4:	d9014f17 	ldw	r4,1340(sp)
 18007f8:	dc402904 	addi	r17,sp,164
 18007fc:	d8804004 	addi	r2,sp,256
 1800800:	00c10004 	movi	r3,1024
 1800804:	423fff4c 	andi	r8,r8,65533
 1800808:	800d883a 	mov	r6,r16
 180080c:	880b883a 	mov	r5,r17
 1800810:	da002c0d 	sth	r8,176(sp)
 1800814:	da402c8d 	sth	r9,178(sp)
 1800818:	da803015 	stw	r10,192(sp)
 180081c:	dac03215 	stw	r11,200(sp)
 1800820:	d8802d15 	stw	r2,180(sp)
 1800824:	d8c02e15 	stw	r3,184(sp)
 1800828:	d8802915 	stw	r2,164(sp)
 180082c:	d8c02b15 	stw	r3,172(sp)
 1800830:	d8002f15 	stw	zero,188(sp)
 1800834:	18007600 	call	1800760 <___vfprintf_internal_r>
 1800838:	d8814b15 	stw	r2,1324(sp)
 180083c:	10000416 	blt	r2,zero,1800850 <___vfprintf_internal_r+0xf0>
 1800840:	d9014f17 	ldw	r4,1340(sp)
 1800844:	880b883a 	mov	r5,r17
 1800848:	1803f380 	call	1803f38 <_fflush_r>
 180084c:	1002321e 	bne	r2,zero,1801118 <___vfprintf_internal_r+0x9b8>
 1800850:	d8802c0b 	ldhu	r2,176(sp)
 1800854:	1080100c 	andi	r2,r2,64
 1800858:	10000326 	beq	r2,zero,1800868 <___vfprintf_internal_r+0x108>
 180085c:	b080030b 	ldhu	r2,12(r22)
 1800860:	10801014 	ori	r2,r2,64
 1800864:	b080030d 	sth	r2,12(r22)
 1800868:	d8814b17 	ldw	r2,1324(sp)
 180086c:	dfc15b17 	ldw	ra,1388(sp)
 1800870:	df015a17 	ldw	fp,1384(sp)
 1800874:	ddc15917 	ldw	r23,1380(sp)
 1800878:	dd815817 	ldw	r22,1376(sp)
 180087c:	dd415717 	ldw	r21,1372(sp)
 1800880:	dd015617 	ldw	r20,1368(sp)
 1800884:	dcc15517 	ldw	r19,1364(sp)
 1800888:	dc815417 	ldw	r18,1360(sp)
 180088c:	dc415317 	ldw	r17,1356(sp)
 1800890:	dc015217 	ldw	r16,1352(sp)
 1800894:	dec15c04 	addi	sp,sp,1392
 1800898:	f800283a 	ret
 180089c:	0005883a 	mov	r2,zero
 18008a0:	0007883a 	mov	r3,zero
 18008a4:	dd401904 	addi	r21,sp,100
 18008a8:	d8814215 	stw	r2,1288(sp)
 18008ac:	802f883a 	mov	r23,r16
 18008b0:	d8c14315 	stw	r3,1292(sp)
 18008b4:	d8014b15 	stw	zero,1324(sp)
 18008b8:	d8014815 	stw	zero,1312(sp)
 18008bc:	d8014415 	stw	zero,1296(sp)
 18008c0:	d8014715 	stw	zero,1308(sp)
 18008c4:	dd400c15 	stw	r21,48(sp)
 18008c8:	d8000e15 	stw	zero,56(sp)
 18008cc:	d8000d15 	stw	zero,52(sp)
 18008d0:	b8800007 	ldb	r2,0(r23)
 18008d4:	10001926 	beq	r2,zero,180093c <___vfprintf_internal_r+0x1dc>
 18008d8:	00c00944 	movi	r3,37
 18008dc:	10c01726 	beq	r2,r3,180093c <___vfprintf_internal_r+0x1dc>
 18008e0:	b821883a 	mov	r16,r23
 18008e4:	00000106 	br	18008ec <___vfprintf_internal_r+0x18c>
 18008e8:	10c00326 	beq	r2,r3,18008f8 <___vfprintf_internal_r+0x198>
 18008ec:	84000044 	addi	r16,r16,1
 18008f0:	80800007 	ldb	r2,0(r16)
 18008f4:	103ffc1e 	bne	r2,zero,18008e8 <___vfprintf_internal_r+0x188>
 18008f8:	85e7c83a 	sub	r19,r16,r23
 18008fc:	98000e26 	beq	r19,zero,1800938 <___vfprintf_internal_r+0x1d8>
 1800900:	dc800e17 	ldw	r18,56(sp)
 1800904:	dc400d17 	ldw	r17,52(sp)
 1800908:	008001c4 	movi	r2,7
 180090c:	94e5883a 	add	r18,r18,r19
 1800910:	8c400044 	addi	r17,r17,1
 1800914:	adc00015 	stw	r23,0(r21)
 1800918:	dc800e15 	stw	r18,56(sp)
 180091c:	acc00115 	stw	r19,4(r21)
 1800920:	dc400d15 	stw	r17,52(sp)
 1800924:	14428b16 	blt	r2,r17,1801354 <___vfprintf_internal_r+0xbf4>
 1800928:	ad400204 	addi	r21,r21,8
 180092c:	d9014b17 	ldw	r4,1324(sp)
 1800930:	24c9883a 	add	r4,r4,r19
 1800934:	d9014b15 	stw	r4,1324(sp)
 1800938:	802f883a 	mov	r23,r16
 180093c:	b8800007 	ldb	r2,0(r23)
 1800940:	10013c26 	beq	r2,zero,1800e34 <___vfprintf_internal_r+0x6d4>
 1800944:	bdc00044 	addi	r23,r23,1
 1800948:	d8000405 	stb	zero,16(sp)
 180094c:	b8c00007 	ldb	r3,0(r23)
 1800950:	04ffffc4 	movi	r19,-1
 1800954:	d8014c15 	stw	zero,1328(sp)
 1800958:	d8014a15 	stw	zero,1320(sp)
 180095c:	d8c14d15 	stw	r3,1332(sp)
 1800960:	bdc00044 	addi	r23,r23,1
 1800964:	d9414d17 	ldw	r5,1332(sp)
 1800968:	00801604 	movi	r2,88
 180096c:	28fff804 	addi	r3,r5,-32
 1800970:	10c06036 	bltu	r2,r3,1800af4 <___vfprintf_internal_r+0x394>
 1800974:	18c5883a 	add	r2,r3,r3
 1800978:	1085883a 	add	r2,r2,r2
 180097c:	00c06034 	movhi	r3,384
 1800980:	18c26404 	addi	r3,r3,2448
 1800984:	10c5883a 	add	r2,r2,r3
 1800988:	11000017 	ldw	r4,0(r2)
 180098c:	2000683a 	jmp	r4
 1800990:	01801904 	movi	r6,100
 1800994:	01800af4 	movhi	r6,43
 1800998:	01800af4 	movhi	r6,43
 180099c:	018018f0 	cmpltui	r6,zero,99
 18009a0:	01800af4 	movhi	r6,43
 18009a4:	01800af4 	movhi	r6,43
 18009a8:	01800af4 	movhi	r6,43
 18009ac:	01800af4 	movhi	r6,43
 18009b0:	01800af4 	movhi	r6,43
 18009b4:	01800af4 	movhi	r6,43
 18009b8:	018016d0 	cmplti	r6,zero,91
 18009bc:	018018e0 	cmpeqi	r6,zero,99
 18009c0:	01800af4 	movhi	r6,43
 18009c4:	018016e8 	cmpgeui	r6,zero,91
 18009c8:	0180197c 	xorhi	r6,zero,101
 18009cc:	01800af4 	movhi	r6,43
 18009d0:	01801968 	cmpgeui	r6,zero,101
 18009d4:	01801930 	cmpltui	r6,zero,100
 18009d8:	01801930 	cmpltui	r6,zero,100
 18009dc:	01801930 	cmpltui	r6,zero,100
 18009e0:	01801930 	cmpltui	r6,zero,100
 18009e4:	01801930 	cmpltui	r6,zero,100
 18009e8:	01801930 	cmpltui	r6,zero,100
 18009ec:	01801930 	cmpltui	r6,zero,100
 18009f0:	01801930 	cmpltui	r6,zero,100
 18009f4:	01801930 	cmpltui	r6,zero,100
 18009f8:	01800af4 	movhi	r6,43
 18009fc:	01800af4 	movhi	r6,43
 1800a00:	01800af4 	movhi	r6,43
 1800a04:	01800af4 	movhi	r6,43
 1800a08:	01800af4 	movhi	r6,43
 1800a0c:	01800af4 	movhi	r6,43
 1800a10:	01800af4 	movhi	r6,43
 1800a14:	01800af4 	movhi	r6,43
 1800a18:	01800af4 	movhi	r6,43
 1800a1c:	01800af4 	movhi	r6,43
 1800a20:	0180114c 	andi	r6,zero,69
 1800a24:	018017b8 	rdprs	r6,zero,94
 1800a28:	01800af4 	movhi	r6,43
 1800a2c:	018017b8 	rdprs	r6,zero,94
 1800a30:	01800af4 	movhi	r6,43
 1800a34:	01800af4 	movhi	r6,43
 1800a38:	01800af4 	movhi	r6,43
 1800a3c:	01800af4 	movhi	r6,43
 1800a40:	0180191c 	xori	r6,zero,100
 1800a44:	01800af4 	movhi	r6,43
 1800a48:	01800af4 	movhi	r6,43
 1800a4c:	01801200 	call	180120 <__alt_mem_sdram-0x167fee0>
 1800a50:	01800af4 	movhi	r6,43
 1800a54:	01800af4 	movhi	r6,43
 1800a58:	01800af4 	movhi	r6,43
 1800a5c:	01800af4 	movhi	r6,43
 1800a60:	01800af4 	movhi	r6,43
 1800a64:	0180124c 	andi	r6,zero,73
 1800a68:	01800af4 	movhi	r6,43
 1800a6c:	01800af4 	movhi	r6,43
 1800a70:	0180186c 	andhi	r6,zero,97
 1800a74:	01800af4 	movhi	r6,43
 1800a78:	01800af4 	movhi	r6,43
 1800a7c:	01800af4 	movhi	r6,43
 1800a80:	01800af4 	movhi	r6,43
 1800a84:	01800af4 	movhi	r6,43
 1800a88:	01800af4 	movhi	r6,43
 1800a8c:	01800af4 	movhi	r6,43
 1800a90:	01800af4 	movhi	r6,43
 1800a94:	01800af4 	movhi	r6,43
 1800a98:	01800af4 	movhi	r6,43
 1800a9c:	01801840 	call	180184 <__alt_mem_sdram-0x167fe7c>
 1800aa0:	01801158 	cmpnei	r6,zero,69
 1800aa4:	018017b8 	rdprs	r6,zero,94
 1800aa8:	018017b8 	rdprs	r6,zero,94
 1800aac:	018017b8 	rdprs	r6,zero,94
 1800ab0:	018017a4 	muli	r6,zero,94
 1800ab4:	01801158 	cmpnei	r6,zero,69
 1800ab8:	01800af4 	movhi	r6,43
 1800abc:	01800af4 	movhi	r6,43
 1800ac0:	0180172c 	andhi	r6,zero,92
 1800ac4:	01800af4 	movhi	r6,43
 1800ac8:	018016fc 	xorhi	r6,zero,91
 1800acc:	0180120c 	andi	r6,zero,72
 1800ad0:	0180175c 	xori	r6,zero,93
 1800ad4:	01801748 	cmpgei	r6,zero,93
 1800ad8:	01800af4 	movhi	r6,43
 1800adc:	018019d8 	cmpnei	r6,zero,103
 1800ae0:	01800af4 	movhi	r6,43
 1800ae4:	01801258 	cmpnei	r6,zero,73
 1800ae8:	01800af4 	movhi	r6,43
 1800aec:	01800af4 	movhi	r6,43
 1800af0:	018018d0 	cmplti	r6,zero,99
 1800af4:	d9014d17 	ldw	r4,1332(sp)
 1800af8:	2000ce26 	beq	r4,zero,1800e34 <___vfprintf_internal_r+0x6d4>
 1800afc:	01400044 	movi	r5,1
 1800b00:	d9800f04 	addi	r6,sp,60
 1800b04:	d9c14015 	stw	r7,1280(sp)
 1800b08:	d9414515 	stw	r5,1300(sp)
 1800b0c:	d9814115 	stw	r6,1284(sp)
 1800b10:	280f883a 	mov	r7,r5
 1800b14:	d9000f05 	stb	r4,60(sp)
 1800b18:	d8000405 	stb	zero,16(sp)
 1800b1c:	d8014615 	stw	zero,1304(sp)
 1800b20:	d8c14c17 	ldw	r3,1328(sp)
 1800b24:	1880008c 	andi	r2,r3,2
 1800b28:	1005003a 	cmpeq	r2,r2,zero
 1800b2c:	d8815015 	stw	r2,1344(sp)
 1800b30:	1000031e 	bne	r2,zero,1800b40 <___vfprintf_internal_r+0x3e0>
 1800b34:	d9014517 	ldw	r4,1300(sp)
 1800b38:	21000084 	addi	r4,r4,2
 1800b3c:	d9014515 	stw	r4,1300(sp)
 1800b40:	d9414c17 	ldw	r5,1328(sp)
 1800b44:	2940210c 	andi	r5,r5,132
 1800b48:	d9414e15 	stw	r5,1336(sp)
 1800b4c:	28002d1e 	bne	r5,zero,1800c04 <___vfprintf_internal_r+0x4a4>
 1800b50:	d9814a17 	ldw	r6,1320(sp)
 1800b54:	d8814517 	ldw	r2,1300(sp)
 1800b58:	30a1c83a 	sub	r16,r6,r2
 1800b5c:	0400290e 	bge	zero,r16,1800c04 <___vfprintf_internal_r+0x4a4>
 1800b60:	00800404 	movi	r2,16
 1800b64:	1404580e 	bge	r2,r16,1801cc8 <___vfprintf_internal_r+0x1568>
 1800b68:	dc800e17 	ldw	r18,56(sp)
 1800b6c:	dc400d17 	ldw	r17,52(sp)
 1800b70:	1027883a 	mov	r19,r2
 1800b74:	07006074 	movhi	fp,385
 1800b78:	e7023684 	addi	fp,fp,2266
 1800b7c:	050001c4 	movi	r20,7
 1800b80:	00000306 	br	1800b90 <___vfprintf_internal_r+0x430>
 1800b84:	843ffc04 	addi	r16,r16,-16
 1800b88:	ad400204 	addi	r21,r21,8
 1800b8c:	9c00130e 	bge	r19,r16,1800bdc <___vfprintf_internal_r+0x47c>
 1800b90:	94800404 	addi	r18,r18,16
 1800b94:	8c400044 	addi	r17,r17,1
 1800b98:	af000015 	stw	fp,0(r21)
 1800b9c:	acc00115 	stw	r19,4(r21)
 1800ba0:	dc800e15 	stw	r18,56(sp)
 1800ba4:	dc400d15 	stw	r17,52(sp)
 1800ba8:	a47ff60e 	bge	r20,r17,1800b84 <___vfprintf_internal_r+0x424>
 1800bac:	d9014f17 	ldw	r4,1340(sp)
 1800bb0:	b00b883a 	mov	r5,r22
 1800bb4:	d9800c04 	addi	r6,sp,48
 1800bb8:	d9c15115 	stw	r7,1348(sp)
 1800bbc:	18007080 	call	1800708 <__sprint_r>
 1800bc0:	d9c15117 	ldw	r7,1348(sp)
 1800bc4:	10009e1e 	bne	r2,zero,1800e40 <___vfprintf_internal_r+0x6e0>
 1800bc8:	843ffc04 	addi	r16,r16,-16
 1800bcc:	dc800e17 	ldw	r18,56(sp)
 1800bd0:	dc400d17 	ldw	r17,52(sp)
 1800bd4:	dd401904 	addi	r21,sp,100
 1800bd8:	9c3fed16 	blt	r19,r16,1800b90 <___vfprintf_internal_r+0x430>
 1800bdc:	9425883a 	add	r18,r18,r16
 1800be0:	8c400044 	addi	r17,r17,1
 1800be4:	008001c4 	movi	r2,7
 1800be8:	af000015 	stw	fp,0(r21)
 1800bec:	ac000115 	stw	r16,4(r21)
 1800bf0:	dc800e15 	stw	r18,56(sp)
 1800bf4:	dc400d15 	stw	r17,52(sp)
 1800bf8:	1441f516 	blt	r2,r17,18013d0 <___vfprintf_internal_r+0xc70>
 1800bfc:	ad400204 	addi	r21,r21,8
 1800c00:	00000206 	br	1800c0c <___vfprintf_internal_r+0x4ac>
 1800c04:	dc800e17 	ldw	r18,56(sp)
 1800c08:	dc400d17 	ldw	r17,52(sp)
 1800c0c:	d8800407 	ldb	r2,16(sp)
 1800c10:	10000b26 	beq	r2,zero,1800c40 <___vfprintf_internal_r+0x4e0>
 1800c14:	00800044 	movi	r2,1
 1800c18:	94800044 	addi	r18,r18,1
 1800c1c:	8c400044 	addi	r17,r17,1
 1800c20:	a8800115 	stw	r2,4(r21)
 1800c24:	d8c00404 	addi	r3,sp,16
 1800c28:	008001c4 	movi	r2,7
 1800c2c:	a8c00015 	stw	r3,0(r21)
 1800c30:	dc800e15 	stw	r18,56(sp)
 1800c34:	dc400d15 	stw	r17,52(sp)
 1800c38:	1441da16 	blt	r2,r17,18013a4 <___vfprintf_internal_r+0xc44>
 1800c3c:	ad400204 	addi	r21,r21,8
 1800c40:	d9015017 	ldw	r4,1344(sp)
 1800c44:	20000b1e 	bne	r4,zero,1800c74 <___vfprintf_internal_r+0x514>
 1800c48:	d8800444 	addi	r2,sp,17
 1800c4c:	94800084 	addi	r18,r18,2
 1800c50:	8c400044 	addi	r17,r17,1
 1800c54:	a8800015 	stw	r2,0(r21)
 1800c58:	00c00084 	movi	r3,2
 1800c5c:	008001c4 	movi	r2,7
 1800c60:	a8c00115 	stw	r3,4(r21)
 1800c64:	dc800e15 	stw	r18,56(sp)
 1800c68:	dc400d15 	stw	r17,52(sp)
 1800c6c:	1441c216 	blt	r2,r17,1801378 <___vfprintf_internal_r+0xc18>
 1800c70:	ad400204 	addi	r21,r21,8
 1800c74:	d9414e17 	ldw	r5,1336(sp)
 1800c78:	00802004 	movi	r2,128
 1800c7c:	2880b126 	beq	r5,r2,1800f44 <___vfprintf_internal_r+0x7e4>
 1800c80:	d8c14617 	ldw	r3,1304(sp)
 1800c84:	19e1c83a 	sub	r16,r3,r7
 1800c88:	0400260e 	bge	zero,r16,1800d24 <___vfprintf_internal_r+0x5c4>
 1800c8c:	00800404 	movi	r2,16
 1800c90:	1403c90e 	bge	r2,r16,1801bb8 <___vfprintf_internal_r+0x1458>
 1800c94:	1027883a 	mov	r19,r2
 1800c98:	07006074 	movhi	fp,385
 1800c9c:	e7023284 	addi	fp,fp,2250
 1800ca0:	050001c4 	movi	r20,7
 1800ca4:	00000306 	br	1800cb4 <___vfprintf_internal_r+0x554>
 1800ca8:	843ffc04 	addi	r16,r16,-16
 1800cac:	ad400204 	addi	r21,r21,8
 1800cb0:	9c00130e 	bge	r19,r16,1800d00 <___vfprintf_internal_r+0x5a0>
 1800cb4:	94800404 	addi	r18,r18,16
 1800cb8:	8c400044 	addi	r17,r17,1
 1800cbc:	af000015 	stw	fp,0(r21)
 1800cc0:	acc00115 	stw	r19,4(r21)
 1800cc4:	dc800e15 	stw	r18,56(sp)
 1800cc8:	dc400d15 	stw	r17,52(sp)
 1800ccc:	a47ff60e 	bge	r20,r17,1800ca8 <___vfprintf_internal_r+0x548>
 1800cd0:	d9014f17 	ldw	r4,1340(sp)
 1800cd4:	b00b883a 	mov	r5,r22
 1800cd8:	d9800c04 	addi	r6,sp,48
 1800cdc:	d9c15115 	stw	r7,1348(sp)
 1800ce0:	18007080 	call	1800708 <__sprint_r>
 1800ce4:	d9c15117 	ldw	r7,1348(sp)
 1800ce8:	1000551e 	bne	r2,zero,1800e40 <___vfprintf_internal_r+0x6e0>
 1800cec:	843ffc04 	addi	r16,r16,-16
 1800cf0:	dc800e17 	ldw	r18,56(sp)
 1800cf4:	dc400d17 	ldw	r17,52(sp)
 1800cf8:	dd401904 	addi	r21,sp,100
 1800cfc:	9c3fed16 	blt	r19,r16,1800cb4 <___vfprintf_internal_r+0x554>
 1800d00:	9425883a 	add	r18,r18,r16
 1800d04:	8c400044 	addi	r17,r17,1
 1800d08:	008001c4 	movi	r2,7
 1800d0c:	af000015 	stw	fp,0(r21)
 1800d10:	ac000115 	stw	r16,4(r21)
 1800d14:	dc800e15 	stw	r18,56(sp)
 1800d18:	dc400d15 	stw	r17,52(sp)
 1800d1c:	14418216 	blt	r2,r17,1801328 <___vfprintf_internal_r+0xbc8>
 1800d20:	ad400204 	addi	r21,r21,8
 1800d24:	d9014c17 	ldw	r4,1328(sp)
 1800d28:	2080400c 	andi	r2,r4,256
 1800d2c:	10004a1e 	bne	r2,zero,1800e58 <___vfprintf_internal_r+0x6f8>
 1800d30:	d9414117 	ldw	r5,1284(sp)
 1800d34:	91e5883a 	add	r18,r18,r7
 1800d38:	8c400044 	addi	r17,r17,1
 1800d3c:	008001c4 	movi	r2,7
 1800d40:	a9400015 	stw	r5,0(r21)
 1800d44:	a9c00115 	stw	r7,4(r21)
 1800d48:	dc800e15 	stw	r18,56(sp)
 1800d4c:	dc400d15 	stw	r17,52(sp)
 1800d50:	14416716 	blt	r2,r17,18012f0 <___vfprintf_internal_r+0xb90>
 1800d54:	a8c00204 	addi	r3,r21,8
 1800d58:	d9814c17 	ldw	r6,1328(sp)
 1800d5c:	3080010c 	andi	r2,r6,4
 1800d60:	10002826 	beq	r2,zero,1800e04 <___vfprintf_internal_r+0x6a4>
 1800d64:	d8814a17 	ldw	r2,1320(sp)
 1800d68:	d9014517 	ldw	r4,1300(sp)
 1800d6c:	1121c83a 	sub	r16,r2,r4
 1800d70:	0400240e 	bge	zero,r16,1800e04 <___vfprintf_internal_r+0x6a4>
 1800d74:	00800404 	movi	r2,16
 1800d78:	14044f0e 	bge	r2,r16,1801eb8 <___vfprintf_internal_r+0x1758>
 1800d7c:	dc400d17 	ldw	r17,52(sp)
 1800d80:	1027883a 	mov	r19,r2
 1800d84:	07006074 	movhi	fp,385
 1800d88:	e7023684 	addi	fp,fp,2266
 1800d8c:	050001c4 	movi	r20,7
 1800d90:	00000306 	br	1800da0 <___vfprintf_internal_r+0x640>
 1800d94:	843ffc04 	addi	r16,r16,-16
 1800d98:	18c00204 	addi	r3,r3,8
 1800d9c:	9c00110e 	bge	r19,r16,1800de4 <___vfprintf_internal_r+0x684>
 1800da0:	94800404 	addi	r18,r18,16
 1800da4:	8c400044 	addi	r17,r17,1
 1800da8:	1f000015 	stw	fp,0(r3)
 1800dac:	1cc00115 	stw	r19,4(r3)
 1800db0:	dc800e15 	stw	r18,56(sp)
 1800db4:	dc400d15 	stw	r17,52(sp)
 1800db8:	a47ff60e 	bge	r20,r17,1800d94 <___vfprintf_internal_r+0x634>
 1800dbc:	d9014f17 	ldw	r4,1340(sp)
 1800dc0:	b00b883a 	mov	r5,r22
 1800dc4:	d9800c04 	addi	r6,sp,48
 1800dc8:	18007080 	call	1800708 <__sprint_r>
 1800dcc:	10001c1e 	bne	r2,zero,1800e40 <___vfprintf_internal_r+0x6e0>
 1800dd0:	843ffc04 	addi	r16,r16,-16
 1800dd4:	dc800e17 	ldw	r18,56(sp)
 1800dd8:	dc400d17 	ldw	r17,52(sp)
 1800ddc:	d8c01904 	addi	r3,sp,100
 1800de0:	9c3fef16 	blt	r19,r16,1800da0 <___vfprintf_internal_r+0x640>
 1800de4:	9425883a 	add	r18,r18,r16
 1800de8:	8c400044 	addi	r17,r17,1
 1800dec:	008001c4 	movi	r2,7
 1800df0:	1f000015 	stw	fp,0(r3)
 1800df4:	1c000115 	stw	r16,4(r3)
 1800df8:	dc800e15 	stw	r18,56(sp)
 1800dfc:	dc400d15 	stw	r17,52(sp)
 1800e00:	1440cb16 	blt	r2,r17,1801130 <___vfprintf_internal_r+0x9d0>
 1800e04:	d8814a17 	ldw	r2,1320(sp)
 1800e08:	d9414517 	ldw	r5,1300(sp)
 1800e0c:	1140010e 	bge	r2,r5,1800e14 <___vfprintf_internal_r+0x6b4>
 1800e10:	2805883a 	mov	r2,r5
 1800e14:	d9814b17 	ldw	r6,1324(sp)
 1800e18:	308d883a 	add	r6,r6,r2
 1800e1c:	d9814b15 	stw	r6,1324(sp)
 1800e20:	90013b1e 	bne	r18,zero,1801310 <___vfprintf_internal_r+0xbb0>
 1800e24:	d9c14017 	ldw	r7,1280(sp)
 1800e28:	dd401904 	addi	r21,sp,100
 1800e2c:	d8000d15 	stw	zero,52(sp)
 1800e30:	003ea706 	br	18008d0 <___vfprintf_internal_r+0x170>
 1800e34:	d8800e17 	ldw	r2,56(sp)
 1800e38:	10053f1e 	bne	r2,zero,1802338 <___vfprintf_internal_r+0x1bd8>
 1800e3c:	d8000d15 	stw	zero,52(sp)
 1800e40:	b080030b 	ldhu	r2,12(r22)
 1800e44:	1080100c 	andi	r2,r2,64
 1800e48:	103e8726 	beq	r2,zero,1800868 <___vfprintf_internal_r+0x108>
 1800e4c:	00bfffc4 	movi	r2,-1
 1800e50:	d8814b15 	stw	r2,1324(sp)
 1800e54:	003e8406 	br	1800868 <___vfprintf_internal_r+0x108>
 1800e58:	d9814d17 	ldw	r6,1332(sp)
 1800e5c:	00801944 	movi	r2,101
 1800e60:	11806e16 	blt	r2,r6,180101c <___vfprintf_internal_r+0x8bc>
 1800e64:	d9414717 	ldw	r5,1308(sp)
 1800e68:	00c00044 	movi	r3,1
 1800e6c:	1943430e 	bge	r3,r5,1801b7c <___vfprintf_internal_r+0x141c>
 1800e70:	d8814117 	ldw	r2,1284(sp)
 1800e74:	94800044 	addi	r18,r18,1
 1800e78:	8c400044 	addi	r17,r17,1
 1800e7c:	a8800015 	stw	r2,0(r21)
 1800e80:	008001c4 	movi	r2,7
 1800e84:	a8c00115 	stw	r3,4(r21)
 1800e88:	dc800e15 	stw	r18,56(sp)
 1800e8c:	dc400d15 	stw	r17,52(sp)
 1800e90:	1441ca16 	blt	r2,r17,18015bc <___vfprintf_internal_r+0xe5c>
 1800e94:	a8c00204 	addi	r3,r21,8
 1800e98:	d9014917 	ldw	r4,1316(sp)
 1800e9c:	00800044 	movi	r2,1
 1800ea0:	94800044 	addi	r18,r18,1
 1800ea4:	8c400044 	addi	r17,r17,1
 1800ea8:	18800115 	stw	r2,4(r3)
 1800eac:	008001c4 	movi	r2,7
 1800eb0:	19000015 	stw	r4,0(r3)
 1800eb4:	dc800e15 	stw	r18,56(sp)
 1800eb8:	dc400d15 	stw	r17,52(sp)
 1800ebc:	1441b616 	blt	r2,r17,1801598 <___vfprintf_internal_r+0xe38>
 1800ec0:	1cc00204 	addi	r19,r3,8
 1800ec4:	d9014217 	ldw	r4,1288(sp)
 1800ec8:	d9414317 	ldw	r5,1292(sp)
 1800ecc:	000d883a 	mov	r6,zero
 1800ed0:	000f883a 	mov	r7,zero
 1800ed4:	1808fb00 	call	1808fb0 <__nedf2>
 1800ed8:	10017426 	beq	r2,zero,18014ac <___vfprintf_internal_r+0xd4c>
 1800edc:	d9414717 	ldw	r5,1308(sp)
 1800ee0:	d9814117 	ldw	r6,1284(sp)
 1800ee4:	8c400044 	addi	r17,r17,1
 1800ee8:	2c85883a 	add	r2,r5,r18
 1800eec:	14bfffc4 	addi	r18,r2,-1
 1800ef0:	28bfffc4 	addi	r2,r5,-1
 1800ef4:	30c00044 	addi	r3,r6,1
 1800ef8:	98800115 	stw	r2,4(r19)
 1800efc:	008001c4 	movi	r2,7
 1800f00:	98c00015 	stw	r3,0(r19)
 1800f04:	dc800e15 	stw	r18,56(sp)
 1800f08:	dc400d15 	stw	r17,52(sp)
 1800f0c:	14418e16 	blt	r2,r17,1801548 <___vfprintf_internal_r+0xde8>
 1800f10:	9cc00204 	addi	r19,r19,8
 1800f14:	d9414817 	ldw	r5,1312(sp)
 1800f18:	d8800804 	addi	r2,sp,32
 1800f1c:	8c400044 	addi	r17,r17,1
 1800f20:	9165883a 	add	r18,r18,r5
 1800f24:	98800015 	stw	r2,0(r19)
 1800f28:	008001c4 	movi	r2,7
 1800f2c:	99400115 	stw	r5,4(r19)
 1800f30:	dc800e15 	stw	r18,56(sp)
 1800f34:	dc400d15 	stw	r17,52(sp)
 1800f38:	1440ed16 	blt	r2,r17,18012f0 <___vfprintf_internal_r+0xb90>
 1800f3c:	98c00204 	addi	r3,r19,8
 1800f40:	003f8506 	br	1800d58 <___vfprintf_internal_r+0x5f8>
 1800f44:	d9814a17 	ldw	r6,1320(sp)
 1800f48:	d8814517 	ldw	r2,1300(sp)
 1800f4c:	30a1c83a 	sub	r16,r6,r2
 1800f50:	043f4b0e 	bge	zero,r16,1800c80 <___vfprintf_internal_r+0x520>
 1800f54:	00800404 	movi	r2,16
 1800f58:	1404340e 	bge	r2,r16,180202c <___vfprintf_internal_r+0x18cc>
 1800f5c:	1027883a 	mov	r19,r2
 1800f60:	07006074 	movhi	fp,385
 1800f64:	e7023284 	addi	fp,fp,2250
 1800f68:	050001c4 	movi	r20,7
 1800f6c:	00000306 	br	1800f7c <___vfprintf_internal_r+0x81c>
 1800f70:	843ffc04 	addi	r16,r16,-16
 1800f74:	ad400204 	addi	r21,r21,8
 1800f78:	9c00130e 	bge	r19,r16,1800fc8 <___vfprintf_internal_r+0x868>
 1800f7c:	94800404 	addi	r18,r18,16
 1800f80:	8c400044 	addi	r17,r17,1
 1800f84:	af000015 	stw	fp,0(r21)
 1800f88:	acc00115 	stw	r19,4(r21)
 1800f8c:	dc800e15 	stw	r18,56(sp)
 1800f90:	dc400d15 	stw	r17,52(sp)
 1800f94:	a47ff60e 	bge	r20,r17,1800f70 <___vfprintf_internal_r+0x810>
 1800f98:	d9014f17 	ldw	r4,1340(sp)
 1800f9c:	b00b883a 	mov	r5,r22
 1800fa0:	d9800c04 	addi	r6,sp,48
 1800fa4:	d9c15115 	stw	r7,1348(sp)
 1800fa8:	18007080 	call	1800708 <__sprint_r>
 1800fac:	d9c15117 	ldw	r7,1348(sp)
 1800fb0:	103fa31e 	bne	r2,zero,1800e40 <___vfprintf_internal_r+0x6e0>
 1800fb4:	843ffc04 	addi	r16,r16,-16
 1800fb8:	dc800e17 	ldw	r18,56(sp)
 1800fbc:	dc400d17 	ldw	r17,52(sp)
 1800fc0:	dd401904 	addi	r21,sp,100
 1800fc4:	9c3fed16 	blt	r19,r16,1800f7c <___vfprintf_internal_r+0x81c>
 1800fc8:	9425883a 	add	r18,r18,r16
 1800fcc:	8c400044 	addi	r17,r17,1
 1800fd0:	008001c4 	movi	r2,7
 1800fd4:	af000015 	stw	fp,0(r21)
 1800fd8:	ac000115 	stw	r16,4(r21)
 1800fdc:	dc800e15 	stw	r18,56(sp)
 1800fe0:	dc400d15 	stw	r17,52(sp)
 1800fe4:	14416116 	blt	r2,r17,180156c <___vfprintf_internal_r+0xe0c>
 1800fe8:	ad400204 	addi	r21,r21,8
 1800fec:	003f2406 	br	1800c80 <___vfprintf_internal_r+0x520>
 1800ff0:	d9014f17 	ldw	r4,1340(sp)
 1800ff4:	18041d00 	call	18041d0 <__sinit>
 1800ff8:	d9c15117 	ldw	r7,1348(sp)
 1800ffc:	003def06 	br	18007bc <___vfprintf_internal_r+0x5c>
 1801000:	d9014f17 	ldw	r4,1340(sp)
 1801004:	b00b883a 	mov	r5,r22
 1801008:	d9c15115 	stw	r7,1348(sp)
 180100c:	18026300 	call	1802630 <__swsetup_r>
 1801010:	d9c15117 	ldw	r7,1348(sp)
 1801014:	103dee26 	beq	r2,zero,18007d0 <___vfprintf_internal_r+0x70>
 1801018:	003f8c06 	br	1800e4c <___vfprintf_internal_r+0x6ec>
 180101c:	d9014217 	ldw	r4,1288(sp)
 1801020:	d9414317 	ldw	r5,1292(sp)
 1801024:	000d883a 	mov	r6,zero
 1801028:	000f883a 	mov	r7,zero
 180102c:	1808f280 	call	1808f28 <__eqdf2>
 1801030:	1000f21e 	bne	r2,zero,18013fc <___vfprintf_internal_r+0xc9c>
 1801034:	00806074 	movhi	r2,385
 1801038:	10823204 	addi	r2,r2,2248
 180103c:	94800044 	addi	r18,r18,1
 1801040:	8c400044 	addi	r17,r17,1
 1801044:	a8800015 	stw	r2,0(r21)
 1801048:	00c00044 	movi	r3,1
 180104c:	008001c4 	movi	r2,7
 1801050:	a8c00115 	stw	r3,4(r21)
 1801054:	dc800e15 	stw	r18,56(sp)
 1801058:	dc400d15 	stw	r17,52(sp)
 180105c:	1442fa16 	blt	r2,r17,1801c48 <___vfprintf_internal_r+0x14e8>
 1801060:	a8c00204 	addi	r3,r21,8
 1801064:	d8800517 	ldw	r2,20(sp)
 1801068:	d9014717 	ldw	r4,1308(sp)
 180106c:	11015c0e 	bge	r2,r4,18015e0 <___vfprintf_internal_r+0xe80>
 1801070:	dc400d17 	ldw	r17,52(sp)
 1801074:	d9814917 	ldw	r6,1316(sp)
 1801078:	00800044 	movi	r2,1
 180107c:	94800044 	addi	r18,r18,1
 1801080:	8c400044 	addi	r17,r17,1
 1801084:	18800115 	stw	r2,4(r3)
 1801088:	008001c4 	movi	r2,7
 180108c:	19800015 	stw	r6,0(r3)
 1801090:	dc800e15 	stw	r18,56(sp)
 1801094:	dc400d15 	stw	r17,52(sp)
 1801098:	14431016 	blt	r2,r17,1801cdc <___vfprintf_internal_r+0x157c>
 180109c:	18c00204 	addi	r3,r3,8
 18010a0:	d8814717 	ldw	r2,1308(sp)
 18010a4:	143fffc4 	addi	r16,r2,-1
 18010a8:	043f2b0e 	bge	zero,r16,1800d58 <___vfprintf_internal_r+0x5f8>
 18010ac:	00800404 	movi	r2,16
 18010b0:	1402a20e 	bge	r2,r16,1801b3c <___vfprintf_internal_r+0x13dc>
 18010b4:	dc400d17 	ldw	r17,52(sp)
 18010b8:	1027883a 	mov	r19,r2
 18010bc:	07006074 	movhi	fp,385
 18010c0:	e7023284 	addi	fp,fp,2250
 18010c4:	050001c4 	movi	r20,7
 18010c8:	00000306 	br	18010d8 <___vfprintf_internal_r+0x978>
 18010cc:	18c00204 	addi	r3,r3,8
 18010d0:	843ffc04 	addi	r16,r16,-16
 18010d4:	9c029c0e 	bge	r19,r16,1801b48 <___vfprintf_internal_r+0x13e8>
 18010d8:	94800404 	addi	r18,r18,16
 18010dc:	8c400044 	addi	r17,r17,1
 18010e0:	1f000015 	stw	fp,0(r3)
 18010e4:	1cc00115 	stw	r19,4(r3)
 18010e8:	dc800e15 	stw	r18,56(sp)
 18010ec:	dc400d15 	stw	r17,52(sp)
 18010f0:	a47ff60e 	bge	r20,r17,18010cc <___vfprintf_internal_r+0x96c>
 18010f4:	d9014f17 	ldw	r4,1340(sp)
 18010f8:	b00b883a 	mov	r5,r22
 18010fc:	d9800c04 	addi	r6,sp,48
 1801100:	18007080 	call	1800708 <__sprint_r>
 1801104:	103f4e1e 	bne	r2,zero,1800e40 <___vfprintf_internal_r+0x6e0>
 1801108:	dc800e17 	ldw	r18,56(sp)
 180110c:	dc400d17 	ldw	r17,52(sp)
 1801110:	d8c01904 	addi	r3,sp,100
 1801114:	003fee06 	br	18010d0 <___vfprintf_internal_r+0x970>
 1801118:	d8802c0b 	ldhu	r2,176(sp)
 180111c:	00ffffc4 	movi	r3,-1
 1801120:	d8c14b15 	stw	r3,1324(sp)
 1801124:	1080100c 	andi	r2,r2,64
 1801128:	103dcc1e 	bne	r2,zero,180085c <___vfprintf_internal_r+0xfc>
 180112c:	003dce06 	br	1800868 <___vfprintf_internal_r+0x108>
 1801130:	d9014f17 	ldw	r4,1340(sp)
 1801134:	b00b883a 	mov	r5,r22
 1801138:	d9800c04 	addi	r6,sp,48
 180113c:	18007080 	call	1800708 <__sprint_r>
 1801140:	103f3f1e 	bne	r2,zero,1800e40 <___vfprintf_internal_r+0x6e0>
 1801144:	dc800e17 	ldw	r18,56(sp)
 1801148:	003f2e06 	br	1800e04 <___vfprintf_internal_r+0x6a4>
 180114c:	d9414c17 	ldw	r5,1328(sp)
 1801150:	29400414 	ori	r5,r5,16
 1801154:	d9414c15 	stw	r5,1328(sp)
 1801158:	d9814c17 	ldw	r6,1328(sp)
 180115c:	3080080c 	andi	r2,r6,32
 1801160:	10014f1e 	bne	r2,zero,18016a0 <___vfprintf_internal_r+0xf40>
 1801164:	d8c14c17 	ldw	r3,1328(sp)
 1801168:	1880040c 	andi	r2,r3,16
 180116c:	1002ea1e 	bne	r2,zero,1801d18 <___vfprintf_internal_r+0x15b8>
 1801170:	d9014c17 	ldw	r4,1328(sp)
 1801174:	2080100c 	andi	r2,r4,64
 1801178:	1002e726 	beq	r2,zero,1801d18 <___vfprintf_internal_r+0x15b8>
 180117c:	3880000f 	ldh	r2,0(r7)
 1801180:	39c00104 	addi	r7,r7,4
 1801184:	d9c14015 	stw	r7,1280(sp)
 1801188:	1023d7fa 	srai	r17,r2,31
 180118c:	1021883a 	mov	r16,r2
 1801190:	88037216 	blt	r17,zero,1801f5c <___vfprintf_internal_r+0x17fc>
 1801194:	01000044 	movi	r4,1
 1801198:	98000416 	blt	r19,zero,18011ac <___vfprintf_internal_r+0xa4c>
 180119c:	d8c14c17 	ldw	r3,1328(sp)
 18011a0:	00bfdfc4 	movi	r2,-129
 18011a4:	1886703a 	and	r3,r3,r2
 18011a8:	d8c14c15 	stw	r3,1328(sp)
 18011ac:	8444b03a 	or	r2,r16,r17
 18011b0:	1002261e 	bne	r2,zero,1801a4c <___vfprintf_internal_r+0x12ec>
 18011b4:	9802251e 	bne	r19,zero,1801a4c <___vfprintf_internal_r+0x12ec>
 18011b8:	20803fcc 	andi	r2,r4,255
 18011bc:	10029b26 	beq	r2,zero,1801c2c <___vfprintf_internal_r+0x14cc>
 18011c0:	d8c01904 	addi	r3,sp,100
 18011c4:	dd000f04 	addi	r20,sp,60
 18011c8:	d8c14115 	stw	r3,1284(sp)
 18011cc:	d8c14117 	ldw	r3,1284(sp)
 18011d0:	dcc14515 	stw	r19,1300(sp)
 18011d4:	a0c5c83a 	sub	r2,r20,r3
 18011d8:	11c00a04 	addi	r7,r2,40
 18011dc:	99c0010e 	bge	r19,r7,18011e4 <___vfprintf_internal_r+0xa84>
 18011e0:	d9c14515 	stw	r7,1300(sp)
 18011e4:	dcc14615 	stw	r19,1304(sp)
 18011e8:	d8800407 	ldb	r2,16(sp)
 18011ec:	103e4c26 	beq	r2,zero,1800b20 <___vfprintf_internal_r+0x3c0>
 18011f0:	d8814517 	ldw	r2,1300(sp)
 18011f4:	10800044 	addi	r2,r2,1
 18011f8:	d8814515 	stw	r2,1300(sp)
 18011fc:	003e4806 	br	1800b20 <___vfprintf_internal_r+0x3c0>
 1801200:	d9814c17 	ldw	r6,1328(sp)
 1801204:	31800414 	ori	r6,r6,16
 1801208:	d9814c15 	stw	r6,1328(sp)
 180120c:	d8c14c17 	ldw	r3,1328(sp)
 1801210:	1880080c 	andi	r2,r3,32
 1801214:	1001271e 	bne	r2,zero,18016b4 <___vfprintf_internal_r+0xf54>
 1801218:	d9414c17 	ldw	r5,1328(sp)
 180121c:	2880040c 	andi	r2,r5,16
 1801220:	1002b61e 	bne	r2,zero,1801cfc <___vfprintf_internal_r+0x159c>
 1801224:	d9814c17 	ldw	r6,1328(sp)
 1801228:	3080100c 	andi	r2,r6,64
 180122c:	1002b326 	beq	r2,zero,1801cfc <___vfprintf_internal_r+0x159c>
 1801230:	3c00000b 	ldhu	r16,0(r7)
 1801234:	0009883a 	mov	r4,zero
 1801238:	39c00104 	addi	r7,r7,4
 180123c:	0023883a 	mov	r17,zero
 1801240:	d9c14015 	stw	r7,1280(sp)
 1801244:	d8000405 	stb	zero,16(sp)
 1801248:	003fd306 	br	1801198 <___vfprintf_internal_r+0xa38>
 180124c:	d9014c17 	ldw	r4,1328(sp)
 1801250:	21000414 	ori	r4,r4,16
 1801254:	d9014c15 	stw	r4,1328(sp)
 1801258:	d9414c17 	ldw	r5,1328(sp)
 180125c:	2880080c 	andi	r2,r5,32
 1801260:	1001081e 	bne	r2,zero,1801684 <___vfprintf_internal_r+0xf24>
 1801264:	d8c14c17 	ldw	r3,1328(sp)
 1801268:	1880040c 	andi	r2,r3,16
 180126c:	1002b01e 	bne	r2,zero,1801d30 <___vfprintf_internal_r+0x15d0>
 1801270:	d9014c17 	ldw	r4,1328(sp)
 1801274:	2080100c 	andi	r2,r4,64
 1801278:	1002ad26 	beq	r2,zero,1801d30 <___vfprintf_internal_r+0x15d0>
 180127c:	3c00000b 	ldhu	r16,0(r7)
 1801280:	01000044 	movi	r4,1
 1801284:	39c00104 	addi	r7,r7,4
 1801288:	0023883a 	mov	r17,zero
 180128c:	d9c14015 	stw	r7,1280(sp)
 1801290:	d8000405 	stb	zero,16(sp)
 1801294:	003fc006 	br	1801198 <___vfprintf_internal_r+0xa38>
 1801298:	d9014f17 	ldw	r4,1340(sp)
 180129c:	b00b883a 	mov	r5,r22
 18012a0:	d9800c04 	addi	r6,sp,48
 18012a4:	18007080 	call	1800708 <__sprint_r>
 18012a8:	103ee51e 	bne	r2,zero,1800e40 <___vfprintf_internal_r+0x6e0>
 18012ac:	dc800e17 	ldw	r18,56(sp)
 18012b0:	d8c01904 	addi	r3,sp,100
 18012b4:	d9814c17 	ldw	r6,1328(sp)
 18012b8:	3080004c 	andi	r2,r6,1
 18012bc:	1005003a 	cmpeq	r2,r2,zero
 18012c0:	103ea51e 	bne	r2,zero,1800d58 <___vfprintf_internal_r+0x5f8>
 18012c4:	00800044 	movi	r2,1
 18012c8:	dc400d17 	ldw	r17,52(sp)
 18012cc:	18800115 	stw	r2,4(r3)
 18012d0:	d8814917 	ldw	r2,1316(sp)
 18012d4:	94800044 	addi	r18,r18,1
 18012d8:	8c400044 	addi	r17,r17,1
 18012dc:	18800015 	stw	r2,0(r3)
 18012e0:	008001c4 	movi	r2,7
 18012e4:	dc800e15 	stw	r18,56(sp)
 18012e8:	dc400d15 	stw	r17,52(sp)
 18012ec:	14421e0e 	bge	r2,r17,1801b68 <___vfprintf_internal_r+0x1408>
 18012f0:	d9014f17 	ldw	r4,1340(sp)
 18012f4:	b00b883a 	mov	r5,r22
 18012f8:	d9800c04 	addi	r6,sp,48
 18012fc:	18007080 	call	1800708 <__sprint_r>
 1801300:	103ecf1e 	bne	r2,zero,1800e40 <___vfprintf_internal_r+0x6e0>
 1801304:	dc800e17 	ldw	r18,56(sp)
 1801308:	d8c01904 	addi	r3,sp,100
 180130c:	003e9206 	br	1800d58 <___vfprintf_internal_r+0x5f8>
 1801310:	d9014f17 	ldw	r4,1340(sp)
 1801314:	b00b883a 	mov	r5,r22
 1801318:	d9800c04 	addi	r6,sp,48
 180131c:	18007080 	call	1800708 <__sprint_r>
 1801320:	103ec026 	beq	r2,zero,1800e24 <___vfprintf_internal_r+0x6c4>
 1801324:	003ec606 	br	1800e40 <___vfprintf_internal_r+0x6e0>
 1801328:	d9014f17 	ldw	r4,1340(sp)
 180132c:	b00b883a 	mov	r5,r22
 1801330:	d9800c04 	addi	r6,sp,48
 1801334:	d9c15115 	stw	r7,1348(sp)
 1801338:	18007080 	call	1800708 <__sprint_r>
 180133c:	d9c15117 	ldw	r7,1348(sp)
 1801340:	103ebf1e 	bne	r2,zero,1800e40 <___vfprintf_internal_r+0x6e0>
 1801344:	dc800e17 	ldw	r18,56(sp)
 1801348:	dc400d17 	ldw	r17,52(sp)
 180134c:	dd401904 	addi	r21,sp,100
 1801350:	003e7406 	br	1800d24 <___vfprintf_internal_r+0x5c4>
 1801354:	d9014f17 	ldw	r4,1340(sp)
 1801358:	b00b883a 	mov	r5,r22
 180135c:	d9800c04 	addi	r6,sp,48
 1801360:	d9c15115 	stw	r7,1348(sp)
 1801364:	18007080 	call	1800708 <__sprint_r>
 1801368:	d9c15117 	ldw	r7,1348(sp)
 180136c:	103eb41e 	bne	r2,zero,1800e40 <___vfprintf_internal_r+0x6e0>
 1801370:	dd401904 	addi	r21,sp,100
 1801374:	003d6d06 	br	180092c <___vfprintf_internal_r+0x1cc>
 1801378:	d9014f17 	ldw	r4,1340(sp)
 180137c:	b00b883a 	mov	r5,r22
 1801380:	d9800c04 	addi	r6,sp,48
 1801384:	d9c15115 	stw	r7,1348(sp)
 1801388:	18007080 	call	1800708 <__sprint_r>
 180138c:	d9c15117 	ldw	r7,1348(sp)
 1801390:	103eab1e 	bne	r2,zero,1800e40 <___vfprintf_internal_r+0x6e0>
 1801394:	dc800e17 	ldw	r18,56(sp)
 1801398:	dc400d17 	ldw	r17,52(sp)
 180139c:	dd401904 	addi	r21,sp,100
 18013a0:	003e3406 	br	1800c74 <___vfprintf_internal_r+0x514>
 18013a4:	d9014f17 	ldw	r4,1340(sp)
 18013a8:	b00b883a 	mov	r5,r22
 18013ac:	d9800c04 	addi	r6,sp,48
 18013b0:	d9c15115 	stw	r7,1348(sp)
 18013b4:	18007080 	call	1800708 <__sprint_r>
 18013b8:	d9c15117 	ldw	r7,1348(sp)
 18013bc:	103ea01e 	bne	r2,zero,1800e40 <___vfprintf_internal_r+0x6e0>
 18013c0:	dc800e17 	ldw	r18,56(sp)
 18013c4:	dc400d17 	ldw	r17,52(sp)
 18013c8:	dd401904 	addi	r21,sp,100
 18013cc:	003e1c06 	br	1800c40 <___vfprintf_internal_r+0x4e0>
 18013d0:	d9014f17 	ldw	r4,1340(sp)
 18013d4:	b00b883a 	mov	r5,r22
 18013d8:	d9800c04 	addi	r6,sp,48
 18013dc:	d9c15115 	stw	r7,1348(sp)
 18013e0:	18007080 	call	1800708 <__sprint_r>
 18013e4:	d9c15117 	ldw	r7,1348(sp)
 18013e8:	103e951e 	bne	r2,zero,1800e40 <___vfprintf_internal_r+0x6e0>
 18013ec:	dc800e17 	ldw	r18,56(sp)
 18013f0:	dc400d17 	ldw	r17,52(sp)
 18013f4:	dd401904 	addi	r21,sp,100
 18013f8:	003e0406 	br	1800c0c <___vfprintf_internal_r+0x4ac>
 18013fc:	d9000517 	ldw	r4,20(sp)
 1801400:	0102520e 	bge	zero,r4,1801d4c <___vfprintf_internal_r+0x15ec>
 1801404:	d9814717 	ldw	r6,1308(sp)
 1801408:	21807a16 	blt	r4,r6,18015f4 <___vfprintf_internal_r+0xe94>
 180140c:	d8814117 	ldw	r2,1284(sp)
 1801410:	91a5883a 	add	r18,r18,r6
 1801414:	8c400044 	addi	r17,r17,1
 1801418:	a8800015 	stw	r2,0(r21)
 180141c:	008001c4 	movi	r2,7
 1801420:	a9800115 	stw	r6,4(r21)
 1801424:	dc800e15 	stw	r18,56(sp)
 1801428:	dc400d15 	stw	r17,52(sp)
 180142c:	1442f616 	blt	r2,r17,1802008 <___vfprintf_internal_r+0x18a8>
 1801430:	a8c00204 	addi	r3,r21,8
 1801434:	d9414717 	ldw	r5,1308(sp)
 1801438:	2161c83a 	sub	r16,r4,r5
 180143c:	043f9d0e 	bge	zero,r16,18012b4 <___vfprintf_internal_r+0xb54>
 1801440:	00800404 	movi	r2,16
 1801444:	1402130e 	bge	r2,r16,1801c94 <___vfprintf_internal_r+0x1534>
 1801448:	dc400d17 	ldw	r17,52(sp)
 180144c:	1027883a 	mov	r19,r2
 1801450:	07006074 	movhi	fp,385
 1801454:	e7023284 	addi	fp,fp,2250
 1801458:	050001c4 	movi	r20,7
 180145c:	00000306 	br	180146c <___vfprintf_internal_r+0xd0c>
 1801460:	18c00204 	addi	r3,r3,8
 1801464:	843ffc04 	addi	r16,r16,-16
 1801468:	9c020d0e 	bge	r19,r16,1801ca0 <___vfprintf_internal_r+0x1540>
 180146c:	94800404 	addi	r18,r18,16
 1801470:	8c400044 	addi	r17,r17,1
 1801474:	1f000015 	stw	fp,0(r3)
 1801478:	1cc00115 	stw	r19,4(r3)
 180147c:	dc800e15 	stw	r18,56(sp)
 1801480:	dc400d15 	stw	r17,52(sp)
 1801484:	a47ff60e 	bge	r20,r17,1801460 <___vfprintf_internal_r+0xd00>
 1801488:	d9014f17 	ldw	r4,1340(sp)
 180148c:	b00b883a 	mov	r5,r22
 1801490:	d9800c04 	addi	r6,sp,48
 1801494:	18007080 	call	1800708 <__sprint_r>
 1801498:	103e691e 	bne	r2,zero,1800e40 <___vfprintf_internal_r+0x6e0>
 180149c:	dc800e17 	ldw	r18,56(sp)
 18014a0:	dc400d17 	ldw	r17,52(sp)
 18014a4:	d8c01904 	addi	r3,sp,100
 18014a8:	003fee06 	br	1801464 <___vfprintf_internal_r+0xd04>
 18014ac:	d8814717 	ldw	r2,1308(sp)
 18014b0:	143fffc4 	addi	r16,r2,-1
 18014b4:	043e970e 	bge	zero,r16,1800f14 <___vfprintf_internal_r+0x7b4>
 18014b8:	00800404 	movi	r2,16
 18014bc:	1400180e 	bge	r2,r16,1801520 <___vfprintf_internal_r+0xdc0>
 18014c0:	1029883a 	mov	r20,r2
 18014c4:	07006074 	movhi	fp,385
 18014c8:	e7023284 	addi	fp,fp,2250
 18014cc:	054001c4 	movi	r21,7
 18014d0:	00000306 	br	18014e0 <___vfprintf_internal_r+0xd80>
 18014d4:	9cc00204 	addi	r19,r19,8
 18014d8:	843ffc04 	addi	r16,r16,-16
 18014dc:	a400120e 	bge	r20,r16,1801528 <___vfprintf_internal_r+0xdc8>
 18014e0:	94800404 	addi	r18,r18,16
 18014e4:	8c400044 	addi	r17,r17,1
 18014e8:	9f000015 	stw	fp,0(r19)
 18014ec:	9d000115 	stw	r20,4(r19)
 18014f0:	dc800e15 	stw	r18,56(sp)
 18014f4:	dc400d15 	stw	r17,52(sp)
 18014f8:	ac7ff60e 	bge	r21,r17,18014d4 <___vfprintf_internal_r+0xd74>
 18014fc:	d9014f17 	ldw	r4,1340(sp)
 1801500:	b00b883a 	mov	r5,r22
 1801504:	d9800c04 	addi	r6,sp,48
 1801508:	18007080 	call	1800708 <__sprint_r>
 180150c:	103e4c1e 	bne	r2,zero,1800e40 <___vfprintf_internal_r+0x6e0>
 1801510:	dc800e17 	ldw	r18,56(sp)
 1801514:	dc400d17 	ldw	r17,52(sp)
 1801518:	dcc01904 	addi	r19,sp,100
 180151c:	003fee06 	br	18014d8 <___vfprintf_internal_r+0xd78>
 1801520:	07006074 	movhi	fp,385
 1801524:	e7023284 	addi	fp,fp,2250
 1801528:	9425883a 	add	r18,r18,r16
 180152c:	8c400044 	addi	r17,r17,1
 1801530:	008001c4 	movi	r2,7
 1801534:	9f000015 	stw	fp,0(r19)
 1801538:	9c000115 	stw	r16,4(r19)
 180153c:	dc800e15 	stw	r18,56(sp)
 1801540:	dc400d15 	stw	r17,52(sp)
 1801544:	147e720e 	bge	r2,r17,1800f10 <___vfprintf_internal_r+0x7b0>
 1801548:	d9014f17 	ldw	r4,1340(sp)
 180154c:	b00b883a 	mov	r5,r22
 1801550:	d9800c04 	addi	r6,sp,48
 1801554:	18007080 	call	1800708 <__sprint_r>
 1801558:	103e391e 	bne	r2,zero,1800e40 <___vfprintf_internal_r+0x6e0>
 180155c:	dc800e17 	ldw	r18,56(sp)
 1801560:	dc400d17 	ldw	r17,52(sp)
 1801564:	dcc01904 	addi	r19,sp,100
 1801568:	003e6a06 	br	1800f14 <___vfprintf_internal_r+0x7b4>
 180156c:	d9014f17 	ldw	r4,1340(sp)
 1801570:	b00b883a 	mov	r5,r22
 1801574:	d9800c04 	addi	r6,sp,48
 1801578:	d9c15115 	stw	r7,1348(sp)
 180157c:	18007080 	call	1800708 <__sprint_r>
 1801580:	d9c15117 	ldw	r7,1348(sp)
 1801584:	103e2e1e 	bne	r2,zero,1800e40 <___vfprintf_internal_r+0x6e0>
 1801588:	dc800e17 	ldw	r18,56(sp)
 180158c:	dc400d17 	ldw	r17,52(sp)
 1801590:	dd401904 	addi	r21,sp,100
 1801594:	003dba06 	br	1800c80 <___vfprintf_internal_r+0x520>
 1801598:	d9014f17 	ldw	r4,1340(sp)
 180159c:	b00b883a 	mov	r5,r22
 18015a0:	d9800c04 	addi	r6,sp,48
 18015a4:	18007080 	call	1800708 <__sprint_r>
 18015a8:	103e251e 	bne	r2,zero,1800e40 <___vfprintf_internal_r+0x6e0>
 18015ac:	dc800e17 	ldw	r18,56(sp)
 18015b0:	dc400d17 	ldw	r17,52(sp)
 18015b4:	dcc01904 	addi	r19,sp,100
 18015b8:	003e4206 	br	1800ec4 <___vfprintf_internal_r+0x764>
 18015bc:	d9014f17 	ldw	r4,1340(sp)
 18015c0:	b00b883a 	mov	r5,r22
 18015c4:	d9800c04 	addi	r6,sp,48
 18015c8:	18007080 	call	1800708 <__sprint_r>
 18015cc:	103e1c1e 	bne	r2,zero,1800e40 <___vfprintf_internal_r+0x6e0>
 18015d0:	dc800e17 	ldw	r18,56(sp)
 18015d4:	dc400d17 	ldw	r17,52(sp)
 18015d8:	d8c01904 	addi	r3,sp,100
 18015dc:	003e2e06 	br	1800e98 <___vfprintf_internal_r+0x738>
 18015e0:	d9414c17 	ldw	r5,1328(sp)
 18015e4:	2880004c 	andi	r2,r5,1
 18015e8:	1005003a 	cmpeq	r2,r2,zero
 18015ec:	103dda1e 	bne	r2,zero,1800d58 <___vfprintf_internal_r+0x5f8>
 18015f0:	003e9f06 	br	1801070 <___vfprintf_internal_r+0x910>
 18015f4:	d8c14117 	ldw	r3,1284(sp)
 18015f8:	9125883a 	add	r18,r18,r4
 18015fc:	8c400044 	addi	r17,r17,1
 1801600:	008001c4 	movi	r2,7
 1801604:	a8c00015 	stw	r3,0(r21)
 1801608:	a9000115 	stw	r4,4(r21)
 180160c:	dc800e15 	stw	r18,56(sp)
 1801610:	dc400d15 	stw	r17,52(sp)
 1801614:	14426616 	blt	r2,r17,1801fb0 <___vfprintf_internal_r+0x1850>
 1801618:	a8c00204 	addi	r3,r21,8
 180161c:	d9414917 	ldw	r5,1316(sp)
 1801620:	00800044 	movi	r2,1
 1801624:	94800044 	addi	r18,r18,1
 1801628:	8c400044 	addi	r17,r17,1
 180162c:	18800115 	stw	r2,4(r3)
 1801630:	008001c4 	movi	r2,7
 1801634:	19400015 	stw	r5,0(r3)
 1801638:	dc800e15 	stw	r18,56(sp)
 180163c:	dc400d15 	stw	r17,52(sp)
 1801640:	2021883a 	mov	r16,r4
 1801644:	14425016 	blt	r2,r17,1801f88 <___vfprintf_internal_r+0x1828>
 1801648:	19400204 	addi	r5,r3,8
 180164c:	d9814717 	ldw	r6,1308(sp)
 1801650:	8c400044 	addi	r17,r17,1
 1801654:	dc400d15 	stw	r17,52(sp)
 1801658:	3107c83a 	sub	r3,r6,r4
 180165c:	d9014117 	ldw	r4,1284(sp)
 1801660:	90e5883a 	add	r18,r18,r3
 1801664:	28c00115 	stw	r3,4(r5)
 1801668:	8105883a 	add	r2,r16,r4
 180166c:	28800015 	stw	r2,0(r5)
 1801670:	008001c4 	movi	r2,7
 1801674:	dc800e15 	stw	r18,56(sp)
 1801678:	147f1d16 	blt	r2,r17,18012f0 <___vfprintf_internal_r+0xb90>
 180167c:	28c00204 	addi	r3,r5,8
 1801680:	003db506 	br	1800d58 <___vfprintf_internal_r+0x5f8>
 1801684:	3c000017 	ldw	r16,0(r7)
 1801688:	3c400117 	ldw	r17,4(r7)
 180168c:	39800204 	addi	r6,r7,8
 1801690:	01000044 	movi	r4,1
 1801694:	d9814015 	stw	r6,1280(sp)
 1801698:	d8000405 	stb	zero,16(sp)
 180169c:	003ebe06 	br	1801198 <___vfprintf_internal_r+0xa38>
 18016a0:	3c000017 	ldw	r16,0(r7)
 18016a4:	3c400117 	ldw	r17,4(r7)
 18016a8:	38800204 	addi	r2,r7,8
 18016ac:	d8814015 	stw	r2,1280(sp)
 18016b0:	003eb706 	br	1801190 <___vfprintf_internal_r+0xa30>
 18016b4:	3c000017 	ldw	r16,0(r7)
 18016b8:	3c400117 	ldw	r17,4(r7)
 18016bc:	39000204 	addi	r4,r7,8
 18016c0:	d9014015 	stw	r4,1280(sp)
 18016c4:	0009883a 	mov	r4,zero
 18016c8:	d8000405 	stb	zero,16(sp)
 18016cc:	003eb206 	br	1801198 <___vfprintf_internal_r+0xa38>
 18016d0:	38c00017 	ldw	r3,0(r7)
 18016d4:	39c00104 	addi	r7,r7,4
 18016d8:	d8c14a15 	stw	r3,1320(sp)
 18016dc:	1800d10e 	bge	r3,zero,1801a24 <___vfprintf_internal_r+0x12c4>
 18016e0:	00c7c83a 	sub	r3,zero,r3
 18016e4:	d8c14a15 	stw	r3,1320(sp)
 18016e8:	d9014c17 	ldw	r4,1328(sp)
 18016ec:	b8c00007 	ldb	r3,0(r23)
 18016f0:	21000114 	ori	r4,r4,4
 18016f4:	d9014c15 	stw	r4,1328(sp)
 18016f8:	003c9806 	br	180095c <___vfprintf_internal_r+0x1fc>
 18016fc:	d9814c17 	ldw	r6,1328(sp)
 1801700:	3080080c 	andi	r2,r6,32
 1801704:	1001f026 	beq	r2,zero,1801ec8 <___vfprintf_internal_r+0x1768>
 1801708:	d9014b17 	ldw	r4,1324(sp)
 180170c:	38800017 	ldw	r2,0(r7)
 1801710:	39c00104 	addi	r7,r7,4
 1801714:	d9c14015 	stw	r7,1280(sp)
 1801718:	2007d7fa 	srai	r3,r4,31
 180171c:	d9c14017 	ldw	r7,1280(sp)
 1801720:	11000015 	stw	r4,0(r2)
 1801724:	10c00115 	stw	r3,4(r2)
 1801728:	003c6906 	br	18008d0 <___vfprintf_internal_r+0x170>
 180172c:	b8c00007 	ldb	r3,0(r23)
 1801730:	00801b04 	movi	r2,108
 1801734:	18824f26 	beq	r3,r2,1802074 <___vfprintf_internal_r+0x1914>
 1801738:	d9414c17 	ldw	r5,1328(sp)
 180173c:	29400414 	ori	r5,r5,16
 1801740:	d9414c15 	stw	r5,1328(sp)
 1801744:	003c8506 	br	180095c <___vfprintf_internal_r+0x1fc>
 1801748:	d9814c17 	ldw	r6,1328(sp)
 180174c:	b8c00007 	ldb	r3,0(r23)
 1801750:	31800814 	ori	r6,r6,32
 1801754:	d9814c15 	stw	r6,1328(sp)
 1801758:	003c8006 	br	180095c <___vfprintf_internal_r+0x1fc>
 180175c:	d8814c17 	ldw	r2,1328(sp)
 1801760:	3c000017 	ldw	r16,0(r7)
 1801764:	00c01e04 	movi	r3,120
 1801768:	10800094 	ori	r2,r2,2
 180176c:	d8814c15 	stw	r2,1328(sp)
 1801770:	39c00104 	addi	r7,r7,4
 1801774:	01406074 	movhi	r5,385
 1801778:	29421b04 	addi	r5,r5,2156
 180177c:	00800c04 	movi	r2,48
 1801780:	0023883a 	mov	r17,zero
 1801784:	01000084 	movi	r4,2
 1801788:	d9c14015 	stw	r7,1280(sp)
 180178c:	d8c14d15 	stw	r3,1332(sp)
 1801790:	d9414415 	stw	r5,1296(sp)
 1801794:	d8800445 	stb	r2,17(sp)
 1801798:	d8c00485 	stb	r3,18(sp)
 180179c:	d8000405 	stb	zero,16(sp)
 18017a0:	003e7d06 	br	1801198 <___vfprintf_internal_r+0xa38>
 18017a4:	d8814c17 	ldw	r2,1328(sp)
 18017a8:	b8c00007 	ldb	r3,0(r23)
 18017ac:	10801014 	ori	r2,r2,64
 18017b0:	d8814c15 	stw	r2,1328(sp)
 18017b4:	003c6906 	br	180095c <___vfprintf_internal_r+0x1fc>
 18017b8:	d9414c17 	ldw	r5,1328(sp)
 18017bc:	2880020c 	andi	r2,r5,8
 18017c0:	1001df26 	beq	r2,zero,1801f40 <___vfprintf_internal_r+0x17e0>
 18017c4:	39800017 	ldw	r6,0(r7)
 18017c8:	38800204 	addi	r2,r7,8
 18017cc:	d8814015 	stw	r2,1280(sp)
 18017d0:	d9814215 	stw	r6,1288(sp)
 18017d4:	39c00117 	ldw	r7,4(r7)
 18017d8:	d9c14315 	stw	r7,1292(sp)
 18017dc:	d9014217 	ldw	r4,1288(sp)
 18017e0:	d9414317 	ldw	r5,1292(sp)
 18017e4:	18071000 	call	1807100 <__isinfd>
 18017e8:	10021726 	beq	r2,zero,1802048 <___vfprintf_internal_r+0x18e8>
 18017ec:	d9014217 	ldw	r4,1288(sp)
 18017f0:	d9414317 	ldw	r5,1292(sp)
 18017f4:	000d883a 	mov	r6,zero
 18017f8:	000f883a 	mov	r7,zero
 18017fc:	18091480 	call	1809148 <__ltdf2>
 1801800:	1002ca16 	blt	r2,zero,180232c <___vfprintf_internal_r+0x1bcc>
 1801804:	d9414d17 	ldw	r5,1332(sp)
 1801808:	008011c4 	movi	r2,71
 180180c:	11420a16 	blt	r2,r5,1802038 <___vfprintf_internal_r+0x18d8>
 1801810:	01806074 	movhi	r6,385
 1801814:	31822004 	addi	r6,r6,2176
 1801818:	d9814115 	stw	r6,1284(sp)
 180181c:	d9014c17 	ldw	r4,1328(sp)
 1801820:	00c000c4 	movi	r3,3
 1801824:	00bfdfc4 	movi	r2,-129
 1801828:	2088703a 	and	r4,r4,r2
 180182c:	180f883a 	mov	r7,r3
 1801830:	d8c14515 	stw	r3,1300(sp)
 1801834:	d9014c15 	stw	r4,1328(sp)
 1801838:	d8014615 	stw	zero,1304(sp)
 180183c:	003e6a06 	br	18011e8 <___vfprintf_internal_r+0xa88>
 1801840:	38800017 	ldw	r2,0(r7)
 1801844:	00c00044 	movi	r3,1
 1801848:	39c00104 	addi	r7,r7,4
 180184c:	d9c14015 	stw	r7,1280(sp)
 1801850:	d9000f04 	addi	r4,sp,60
 1801854:	180f883a 	mov	r7,r3
 1801858:	d8c14515 	stw	r3,1300(sp)
 180185c:	d9014115 	stw	r4,1284(sp)
 1801860:	d8800f05 	stb	r2,60(sp)
 1801864:	d8000405 	stb	zero,16(sp)
 1801868:	003cac06 	br	1800b1c <___vfprintf_internal_r+0x3bc>
 180186c:	01406074 	movhi	r5,385
 1801870:	29422604 	addi	r5,r5,2200
 1801874:	d9414415 	stw	r5,1296(sp)
 1801878:	d9814c17 	ldw	r6,1328(sp)
 180187c:	3080080c 	andi	r2,r6,32
 1801880:	1000f926 	beq	r2,zero,1801c68 <___vfprintf_internal_r+0x1508>
 1801884:	3c000017 	ldw	r16,0(r7)
 1801888:	3c400117 	ldw	r17,4(r7)
 180188c:	38800204 	addi	r2,r7,8
 1801890:	d8814015 	stw	r2,1280(sp)
 1801894:	d9414c17 	ldw	r5,1328(sp)
 1801898:	2880004c 	andi	r2,r5,1
 180189c:	1005003a 	cmpeq	r2,r2,zero
 18018a0:	1000b31e 	bne	r2,zero,1801b70 <___vfprintf_internal_r+0x1410>
 18018a4:	8444b03a 	or	r2,r16,r17
 18018a8:	1000b126 	beq	r2,zero,1801b70 <___vfprintf_internal_r+0x1410>
 18018ac:	d9814d17 	ldw	r6,1332(sp)
 18018b0:	29400094 	ori	r5,r5,2
 18018b4:	00800c04 	movi	r2,48
 18018b8:	01000084 	movi	r4,2
 18018bc:	d9414c15 	stw	r5,1328(sp)
 18018c0:	d8800445 	stb	r2,17(sp)
 18018c4:	d9800485 	stb	r6,18(sp)
 18018c8:	d8000405 	stb	zero,16(sp)
 18018cc:	003e3206 	br	1801198 <___vfprintf_internal_r+0xa38>
 18018d0:	01806074 	movhi	r6,385
 18018d4:	31821b04 	addi	r6,r6,2156
 18018d8:	d9814415 	stw	r6,1296(sp)
 18018dc:	003fe606 	br	1801878 <___vfprintf_internal_r+0x1118>
 18018e0:	00800ac4 	movi	r2,43
 18018e4:	d8800405 	stb	r2,16(sp)
 18018e8:	b8c00007 	ldb	r3,0(r23)
 18018ec:	003c1b06 	br	180095c <___vfprintf_internal_r+0x1fc>
 18018f0:	d8814c17 	ldw	r2,1328(sp)
 18018f4:	b8c00007 	ldb	r3,0(r23)
 18018f8:	10800054 	ori	r2,r2,1
 18018fc:	d8814c15 	stw	r2,1328(sp)
 1801900:	003c1606 	br	180095c <___vfprintf_internal_r+0x1fc>
 1801904:	d8800407 	ldb	r2,16(sp)
 1801908:	1000461e 	bne	r2,zero,1801a24 <___vfprintf_internal_r+0x12c4>
 180190c:	00800804 	movi	r2,32
 1801910:	d8800405 	stb	r2,16(sp)
 1801914:	b8c00007 	ldb	r3,0(r23)
 1801918:	003c1006 	br	180095c <___vfprintf_internal_r+0x1fc>
 180191c:	d9814c17 	ldw	r6,1328(sp)
 1801920:	b8c00007 	ldb	r3,0(r23)
 1801924:	31800214 	ori	r6,r6,8
 1801928:	d9814c15 	stw	r6,1328(sp)
 180192c:	003c0b06 	br	180095c <___vfprintf_internal_r+0x1fc>
 1801930:	0007883a 	mov	r3,zero
 1801934:	01000244 	movi	r4,9
 1801938:	188002a4 	muli	r2,r3,10
 180193c:	b8c00007 	ldb	r3,0(r23)
 1801940:	d9814d17 	ldw	r6,1332(sp)
 1801944:	bdc00044 	addi	r23,r23,1
 1801948:	d8c14d15 	stw	r3,1332(sp)
 180194c:	d9414d17 	ldw	r5,1332(sp)
 1801950:	3085883a 	add	r2,r6,r2
 1801954:	10fff404 	addi	r3,r2,-48
 1801958:	28bff404 	addi	r2,r5,-48
 180195c:	20bff62e 	bgeu	r4,r2,1801938 <___vfprintf_internal_r+0x11d8>
 1801960:	d8c14a15 	stw	r3,1320(sp)
 1801964:	003bff06 	br	1800964 <___vfprintf_internal_r+0x204>
 1801968:	d9414c17 	ldw	r5,1328(sp)
 180196c:	b8c00007 	ldb	r3,0(r23)
 1801970:	29402014 	ori	r5,r5,128
 1801974:	d9414c15 	stw	r5,1328(sp)
 1801978:	003bf806 	br	180095c <___vfprintf_internal_r+0x1fc>
 180197c:	b8c00007 	ldb	r3,0(r23)
 1801980:	00800a84 	movi	r2,42
 1801984:	bdc00044 	addi	r23,r23,1
 1801988:	18831526 	beq	r3,r2,18025e0 <___vfprintf_internal_r+0x1e80>
 180198c:	d8c14d15 	stw	r3,1332(sp)
 1801990:	18bff404 	addi	r2,r3,-48
 1801994:	00c00244 	movi	r3,9
 1801998:	18827836 	bltu	r3,r2,180237c <___vfprintf_internal_r+0x1c1c>
 180199c:	000d883a 	mov	r6,zero
 18019a0:	308002a4 	muli	r2,r6,10
 18019a4:	b9800007 	ldb	r6,0(r23)
 18019a8:	d9414d17 	ldw	r5,1332(sp)
 18019ac:	bdc00044 	addi	r23,r23,1
 18019b0:	d9814d15 	stw	r6,1332(sp)
 18019b4:	d9014d17 	ldw	r4,1332(sp)
 18019b8:	1145883a 	add	r2,r2,r5
 18019bc:	11bff404 	addi	r6,r2,-48
 18019c0:	20bff404 	addi	r2,r4,-48
 18019c4:	18bff62e 	bgeu	r3,r2,18019a0 <___vfprintf_internal_r+0x1240>
 18019c8:	3027883a 	mov	r19,r6
 18019cc:	303be50e 	bge	r6,zero,1800964 <___vfprintf_internal_r+0x204>
 18019d0:	04ffffc4 	movi	r19,-1
 18019d4:	003be306 	br	1800964 <___vfprintf_internal_r+0x204>
 18019d8:	d8000405 	stb	zero,16(sp)
 18019dc:	39800017 	ldw	r6,0(r7)
 18019e0:	39c00104 	addi	r7,r7,4
 18019e4:	d9c14015 	stw	r7,1280(sp)
 18019e8:	d9814115 	stw	r6,1284(sp)
 18019ec:	3001c926 	beq	r6,zero,1802114 <___vfprintf_internal_r+0x19b4>
 18019f0:	98000e16 	blt	r19,zero,1801a2c <___vfprintf_internal_r+0x12cc>
 18019f4:	d9014117 	ldw	r4,1284(sp)
 18019f8:	000b883a 	mov	r5,zero
 18019fc:	980d883a 	mov	r6,r19
 1801a00:	180581c0 	call	180581c <memchr>
 1801a04:	10025926 	beq	r2,zero,180236c <___vfprintf_internal_r+0x1c0c>
 1801a08:	d8c14117 	ldw	r3,1284(sp)
 1801a0c:	10cfc83a 	sub	r7,r2,r3
 1801a10:	99c19e16 	blt	r19,r7,180208c <___vfprintf_internal_r+0x192c>
 1801a14:	d9c14515 	stw	r7,1300(sp)
 1801a18:	38000916 	blt	r7,zero,1801a40 <___vfprintf_internal_r+0x12e0>
 1801a1c:	d8014615 	stw	zero,1304(sp)
 1801a20:	003df106 	br	18011e8 <___vfprintf_internal_r+0xa88>
 1801a24:	b8c00007 	ldb	r3,0(r23)
 1801a28:	003bcc06 	br	180095c <___vfprintf_internal_r+0x1fc>
 1801a2c:	d9014117 	ldw	r4,1284(sp)
 1801a30:	18006940 	call	1800694 <strlen>
 1801a34:	d8814515 	stw	r2,1300(sp)
 1801a38:	100f883a 	mov	r7,r2
 1801a3c:	103ff70e 	bge	r2,zero,1801a1c <___vfprintf_internal_r+0x12bc>
 1801a40:	d8014515 	stw	zero,1300(sp)
 1801a44:	d8014615 	stw	zero,1304(sp)
 1801a48:	003de706 	br	18011e8 <___vfprintf_internal_r+0xa88>
 1801a4c:	20c03fcc 	andi	r3,r4,255
 1801a50:	00800044 	movi	r2,1
 1801a54:	18802d26 	beq	r3,r2,1801b0c <___vfprintf_internal_r+0x13ac>
 1801a58:	18800e36 	bltu	r3,r2,1801a94 <___vfprintf_internal_r+0x1334>
 1801a5c:	00800084 	movi	r2,2
 1801a60:	1880fa26 	beq	r3,r2,1801e4c <___vfprintf_internal_r+0x16ec>
 1801a64:	01006074 	movhi	r4,385
 1801a68:	21022b04 	addi	r4,r4,2220
 1801a6c:	18006940 	call	1800694 <strlen>
 1801a70:	100f883a 	mov	r7,r2
 1801a74:	dcc14515 	stw	r19,1300(sp)
 1801a78:	9880010e 	bge	r19,r2,1801a80 <___vfprintf_internal_r+0x1320>
 1801a7c:	d8814515 	stw	r2,1300(sp)
 1801a80:	00806074 	movhi	r2,385
 1801a84:	10822b04 	addi	r2,r2,2220
 1801a88:	dcc14615 	stw	r19,1304(sp)
 1801a8c:	d8814115 	stw	r2,1284(sp)
 1801a90:	003dd506 	br	18011e8 <___vfprintf_internal_r+0xa88>
 1801a94:	d9401904 	addi	r5,sp,100
 1801a98:	dd000f04 	addi	r20,sp,60
 1801a9c:	d9414115 	stw	r5,1284(sp)
 1801aa0:	880a977a 	slli	r5,r17,29
 1801aa4:	d9814117 	ldw	r6,1284(sp)
 1801aa8:	8004d0fa 	srli	r2,r16,3
 1801aac:	8806d0fa 	srli	r3,r17,3
 1801ab0:	810001cc 	andi	r4,r16,7
 1801ab4:	2884b03a 	or	r2,r5,r2
 1801ab8:	31bfffc4 	addi	r6,r6,-1
 1801abc:	21000c04 	addi	r4,r4,48
 1801ac0:	d9814115 	stw	r6,1284(sp)
 1801ac4:	10cab03a 	or	r5,r2,r3
 1801ac8:	31000005 	stb	r4,0(r6)
 1801acc:	1021883a 	mov	r16,r2
 1801ad0:	1823883a 	mov	r17,r3
 1801ad4:	283ff21e 	bne	r5,zero,1801aa0 <___vfprintf_internal_r+0x1340>
 1801ad8:	d8c14c17 	ldw	r3,1328(sp)
 1801adc:	1880004c 	andi	r2,r3,1
 1801ae0:	1005003a 	cmpeq	r2,r2,zero
 1801ae4:	103db91e 	bne	r2,zero,18011cc <___vfprintf_internal_r+0xa6c>
 1801ae8:	20803fcc 	andi	r2,r4,255
 1801aec:	1080201c 	xori	r2,r2,128
 1801af0:	10bfe004 	addi	r2,r2,-128
 1801af4:	00c00c04 	movi	r3,48
 1801af8:	10fdb426 	beq	r2,r3,18011cc <___vfprintf_internal_r+0xa6c>
 1801afc:	31bfffc4 	addi	r6,r6,-1
 1801b00:	d9814115 	stw	r6,1284(sp)
 1801b04:	30c00005 	stb	r3,0(r6)
 1801b08:	003db006 	br	18011cc <___vfprintf_internal_r+0xa6c>
 1801b0c:	88800068 	cmpgeui	r2,r17,1
 1801b10:	10002c1e 	bne	r2,zero,1801bc4 <___vfprintf_internal_r+0x1464>
 1801b14:	8800021e 	bne	r17,zero,1801b20 <___vfprintf_internal_r+0x13c0>
 1801b18:	00800244 	movi	r2,9
 1801b1c:	14002936 	bltu	r2,r16,1801bc4 <___vfprintf_internal_r+0x1464>
 1801b20:	d90018c4 	addi	r4,sp,99
 1801b24:	dd000f04 	addi	r20,sp,60
 1801b28:	d9014115 	stw	r4,1284(sp)
 1801b2c:	d9014117 	ldw	r4,1284(sp)
 1801b30:	80800c04 	addi	r2,r16,48
 1801b34:	20800005 	stb	r2,0(r4)
 1801b38:	003da406 	br	18011cc <___vfprintf_internal_r+0xa6c>
 1801b3c:	dc400d17 	ldw	r17,52(sp)
 1801b40:	07006074 	movhi	fp,385
 1801b44:	e7023284 	addi	fp,fp,2250
 1801b48:	9425883a 	add	r18,r18,r16
 1801b4c:	8c400044 	addi	r17,r17,1
 1801b50:	008001c4 	movi	r2,7
 1801b54:	1f000015 	stw	fp,0(r3)
 1801b58:	1c000115 	stw	r16,4(r3)
 1801b5c:	dc800e15 	stw	r18,56(sp)
 1801b60:	dc400d15 	stw	r17,52(sp)
 1801b64:	147de216 	blt	r2,r17,18012f0 <___vfprintf_internal_r+0xb90>
 1801b68:	18c00204 	addi	r3,r3,8
 1801b6c:	003c7a06 	br	1800d58 <___vfprintf_internal_r+0x5f8>
 1801b70:	01000084 	movi	r4,2
 1801b74:	d8000405 	stb	zero,16(sp)
 1801b78:	003d8706 	br	1801198 <___vfprintf_internal_r+0xa38>
 1801b7c:	d9814c17 	ldw	r6,1328(sp)
 1801b80:	30c4703a 	and	r2,r6,r3
 1801b84:	1005003a 	cmpeq	r2,r2,zero
 1801b88:	103cb926 	beq	r2,zero,1800e70 <___vfprintf_internal_r+0x710>
 1801b8c:	d9014117 	ldw	r4,1284(sp)
 1801b90:	94800044 	addi	r18,r18,1
 1801b94:	8c400044 	addi	r17,r17,1
 1801b98:	008001c4 	movi	r2,7
 1801b9c:	a9000015 	stw	r4,0(r21)
 1801ba0:	a8c00115 	stw	r3,4(r21)
 1801ba4:	dc800e15 	stw	r18,56(sp)
 1801ba8:	dc400d15 	stw	r17,52(sp)
 1801bac:	147e6616 	blt	r2,r17,1801548 <___vfprintf_internal_r+0xde8>
 1801bb0:	acc00204 	addi	r19,r21,8
 1801bb4:	003cd706 	br	1800f14 <___vfprintf_internal_r+0x7b4>
 1801bb8:	07006074 	movhi	fp,385
 1801bbc:	e7023284 	addi	fp,fp,2250
 1801bc0:	003c4f06 	br	1800d00 <___vfprintf_internal_r+0x5a0>
 1801bc4:	dd000f04 	addi	r20,sp,60
 1801bc8:	dc801904 	addi	r18,sp,100
 1801bcc:	8009883a 	mov	r4,r16
 1801bd0:	880b883a 	mov	r5,r17
 1801bd4:	01800284 	movi	r6,10
 1801bd8:	000f883a 	mov	r7,zero
 1801bdc:	1807e580 	call	1807e58 <__umoddi3>
 1801be0:	12000c04 	addi	r8,r2,48
 1801be4:	94bfffc4 	addi	r18,r18,-1
 1801be8:	8009883a 	mov	r4,r16
 1801bec:	880b883a 	mov	r5,r17
 1801bf0:	01800284 	movi	r6,10
 1801bf4:	000f883a 	mov	r7,zero
 1801bf8:	92000005 	stb	r8,0(r18)
 1801bfc:	180787c0 	call	180787c <__udivdi3>
 1801c00:	1009883a 	mov	r4,r2
 1801c04:	1021883a 	mov	r16,r2
 1801c08:	18800068 	cmpgeui	r2,r3,1
 1801c0c:	1823883a 	mov	r17,r3
 1801c10:	103fee1e 	bne	r2,zero,1801bcc <___vfprintf_internal_r+0x146c>
 1801c14:	1800021e 	bne	r3,zero,1801c20 <___vfprintf_internal_r+0x14c0>
 1801c18:	00800244 	movi	r2,9
 1801c1c:	113feb36 	bltu	r2,r4,1801bcc <___vfprintf_internal_r+0x146c>
 1801c20:	94bfffc4 	addi	r18,r18,-1
 1801c24:	dc814115 	stw	r18,1284(sp)
 1801c28:	003fc006 	br	1801b2c <___vfprintf_internal_r+0x13cc>
 1801c2c:	d9014c17 	ldw	r4,1328(sp)
 1801c30:	2080004c 	andi	r2,r4,1
 1801c34:	10009a1e 	bne	r2,zero,1801ea0 <___vfprintf_internal_r+0x1740>
 1801c38:	d9401904 	addi	r5,sp,100
 1801c3c:	dd000f04 	addi	r20,sp,60
 1801c40:	d9414115 	stw	r5,1284(sp)
 1801c44:	003d6106 	br	18011cc <___vfprintf_internal_r+0xa6c>
 1801c48:	d9014f17 	ldw	r4,1340(sp)
 1801c4c:	b00b883a 	mov	r5,r22
 1801c50:	d9800c04 	addi	r6,sp,48
 1801c54:	18007080 	call	1800708 <__sprint_r>
 1801c58:	103c791e 	bne	r2,zero,1800e40 <___vfprintf_internal_r+0x6e0>
 1801c5c:	dc800e17 	ldw	r18,56(sp)
 1801c60:	d8c01904 	addi	r3,sp,100
 1801c64:	003cff06 	br	1801064 <___vfprintf_internal_r+0x904>
 1801c68:	d8c14c17 	ldw	r3,1328(sp)
 1801c6c:	1880040c 	andi	r2,r3,16
 1801c70:	1000711e 	bne	r2,zero,1801e38 <___vfprintf_internal_r+0x16d8>
 1801c74:	d9014c17 	ldw	r4,1328(sp)
 1801c78:	2080100c 	andi	r2,r4,64
 1801c7c:	10006e26 	beq	r2,zero,1801e38 <___vfprintf_internal_r+0x16d8>
 1801c80:	3c00000b 	ldhu	r16,0(r7)
 1801c84:	0023883a 	mov	r17,zero
 1801c88:	39c00104 	addi	r7,r7,4
 1801c8c:	d9c14015 	stw	r7,1280(sp)
 1801c90:	003f0006 	br	1801894 <___vfprintf_internal_r+0x1134>
 1801c94:	dc400d17 	ldw	r17,52(sp)
 1801c98:	07006074 	movhi	fp,385
 1801c9c:	e7023284 	addi	fp,fp,2250
 1801ca0:	9425883a 	add	r18,r18,r16
 1801ca4:	8c400044 	addi	r17,r17,1
 1801ca8:	008001c4 	movi	r2,7
 1801cac:	1f000015 	stw	fp,0(r3)
 1801cb0:	1c000115 	stw	r16,4(r3)
 1801cb4:	dc800e15 	stw	r18,56(sp)
 1801cb8:	dc400d15 	stw	r17,52(sp)
 1801cbc:	147d7616 	blt	r2,r17,1801298 <___vfprintf_internal_r+0xb38>
 1801cc0:	18c00204 	addi	r3,r3,8
 1801cc4:	003d7b06 	br	18012b4 <___vfprintf_internal_r+0xb54>
 1801cc8:	dc800e17 	ldw	r18,56(sp)
 1801ccc:	dc400d17 	ldw	r17,52(sp)
 1801cd0:	07006074 	movhi	fp,385
 1801cd4:	e7023684 	addi	fp,fp,2266
 1801cd8:	003bc006 	br	1800bdc <___vfprintf_internal_r+0x47c>
 1801cdc:	d9014f17 	ldw	r4,1340(sp)
 1801ce0:	b00b883a 	mov	r5,r22
 1801ce4:	d9800c04 	addi	r6,sp,48
 1801ce8:	18007080 	call	1800708 <__sprint_r>
 1801cec:	103c541e 	bne	r2,zero,1800e40 <___vfprintf_internal_r+0x6e0>
 1801cf0:	dc800e17 	ldw	r18,56(sp)
 1801cf4:	d8c01904 	addi	r3,sp,100
 1801cf8:	003ce906 	br	18010a0 <___vfprintf_internal_r+0x940>
 1801cfc:	3c000017 	ldw	r16,0(r7)
 1801d00:	0009883a 	mov	r4,zero
 1801d04:	39c00104 	addi	r7,r7,4
 1801d08:	0023883a 	mov	r17,zero
 1801d0c:	d9c14015 	stw	r7,1280(sp)
 1801d10:	d8000405 	stb	zero,16(sp)
 1801d14:	003d2006 	br	1801198 <___vfprintf_internal_r+0xa38>
 1801d18:	38800017 	ldw	r2,0(r7)
 1801d1c:	39c00104 	addi	r7,r7,4
 1801d20:	d9c14015 	stw	r7,1280(sp)
 1801d24:	1023d7fa 	srai	r17,r2,31
 1801d28:	1021883a 	mov	r16,r2
 1801d2c:	003d1806 	br	1801190 <___vfprintf_internal_r+0xa30>
 1801d30:	3c000017 	ldw	r16,0(r7)
 1801d34:	01000044 	movi	r4,1
 1801d38:	39c00104 	addi	r7,r7,4
 1801d3c:	0023883a 	mov	r17,zero
 1801d40:	d9c14015 	stw	r7,1280(sp)
 1801d44:	d8000405 	stb	zero,16(sp)
 1801d48:	003d1306 	br	1801198 <___vfprintf_internal_r+0xa38>
 1801d4c:	00806074 	movhi	r2,385
 1801d50:	10823204 	addi	r2,r2,2248
 1801d54:	94800044 	addi	r18,r18,1
 1801d58:	8c400044 	addi	r17,r17,1
 1801d5c:	a8800015 	stw	r2,0(r21)
 1801d60:	00c00044 	movi	r3,1
 1801d64:	008001c4 	movi	r2,7
 1801d68:	a8c00115 	stw	r3,4(r21)
 1801d6c:	dc800e15 	stw	r18,56(sp)
 1801d70:	dc400d15 	stw	r17,52(sp)
 1801d74:	1440ca16 	blt	r2,r17,18020a0 <___vfprintf_internal_r+0x1940>
 1801d78:	a8c00204 	addi	r3,r21,8
 1801d7c:	2000061e 	bne	r4,zero,1801d98 <___vfprintf_internal_r+0x1638>
 1801d80:	d9414717 	ldw	r5,1308(sp)
 1801d84:	2800041e 	bne	r5,zero,1801d98 <___vfprintf_internal_r+0x1638>
 1801d88:	d9814c17 	ldw	r6,1328(sp)
 1801d8c:	3080004c 	andi	r2,r6,1
 1801d90:	1005003a 	cmpeq	r2,r2,zero
 1801d94:	103bf01e 	bne	r2,zero,1800d58 <___vfprintf_internal_r+0x5f8>
 1801d98:	00800044 	movi	r2,1
 1801d9c:	dc400d17 	ldw	r17,52(sp)
 1801da0:	18800115 	stw	r2,4(r3)
 1801da4:	d8814917 	ldw	r2,1316(sp)
 1801da8:	94800044 	addi	r18,r18,1
 1801dac:	8c400044 	addi	r17,r17,1
 1801db0:	18800015 	stw	r2,0(r3)
 1801db4:	008001c4 	movi	r2,7
 1801db8:	dc800e15 	stw	r18,56(sp)
 1801dbc:	dc400d15 	stw	r17,52(sp)
 1801dc0:	1440ca16 	blt	r2,r17,18020ec <___vfprintf_internal_r+0x198c>
 1801dc4:	18c00204 	addi	r3,r3,8
 1801dc8:	0121c83a 	sub	r16,zero,r4
 1801dcc:	0400500e 	bge	zero,r16,1801f10 <___vfprintf_internal_r+0x17b0>
 1801dd0:	00800404 	movi	r2,16
 1801dd4:	1400800e 	bge	r2,r16,1801fd8 <___vfprintf_internal_r+0x1878>
 1801dd8:	1027883a 	mov	r19,r2
 1801ddc:	07006074 	movhi	fp,385
 1801de0:	e7023284 	addi	fp,fp,2250
 1801de4:	050001c4 	movi	r20,7
 1801de8:	00000306 	br	1801df8 <___vfprintf_internal_r+0x1698>
 1801dec:	18c00204 	addi	r3,r3,8
 1801df0:	843ffc04 	addi	r16,r16,-16
 1801df4:	9c007a0e 	bge	r19,r16,1801fe0 <___vfprintf_internal_r+0x1880>
 1801df8:	94800404 	addi	r18,r18,16
 1801dfc:	8c400044 	addi	r17,r17,1
 1801e00:	1f000015 	stw	fp,0(r3)
 1801e04:	1cc00115 	stw	r19,4(r3)
 1801e08:	dc800e15 	stw	r18,56(sp)
 1801e0c:	dc400d15 	stw	r17,52(sp)
 1801e10:	a47ff60e 	bge	r20,r17,1801dec <___vfprintf_internal_r+0x168c>
 1801e14:	d9014f17 	ldw	r4,1340(sp)
 1801e18:	b00b883a 	mov	r5,r22
 1801e1c:	d9800c04 	addi	r6,sp,48
 1801e20:	18007080 	call	1800708 <__sprint_r>
 1801e24:	103c061e 	bne	r2,zero,1800e40 <___vfprintf_internal_r+0x6e0>
 1801e28:	dc800e17 	ldw	r18,56(sp)
 1801e2c:	dc400d17 	ldw	r17,52(sp)
 1801e30:	d8c01904 	addi	r3,sp,100
 1801e34:	003fee06 	br	1801df0 <___vfprintf_internal_r+0x1690>
 1801e38:	3c000017 	ldw	r16,0(r7)
 1801e3c:	0023883a 	mov	r17,zero
 1801e40:	39c00104 	addi	r7,r7,4
 1801e44:	d9c14015 	stw	r7,1280(sp)
 1801e48:	003e9206 	br	1801894 <___vfprintf_internal_r+0x1134>
 1801e4c:	d9401904 	addi	r5,sp,100
 1801e50:	dd000f04 	addi	r20,sp,60
 1801e54:	d9414115 	stw	r5,1284(sp)
 1801e58:	d9814417 	ldw	r6,1296(sp)
 1801e5c:	880a973a 	slli	r5,r17,28
 1801e60:	8004d13a 	srli	r2,r16,4
 1801e64:	810003cc 	andi	r4,r16,15
 1801e68:	3109883a 	add	r4,r6,r4
 1801e6c:	2884b03a 	or	r2,r5,r2
 1801e70:	21400003 	ldbu	r5,0(r4)
 1801e74:	d9014117 	ldw	r4,1284(sp)
 1801e78:	8806d13a 	srli	r3,r17,4
 1801e7c:	1021883a 	mov	r16,r2
 1801e80:	213fffc4 	addi	r4,r4,-1
 1801e84:	d9014115 	stw	r4,1284(sp)
 1801e88:	d9814117 	ldw	r6,1284(sp)
 1801e8c:	10c8b03a 	or	r4,r2,r3
 1801e90:	1823883a 	mov	r17,r3
 1801e94:	31400005 	stb	r5,0(r6)
 1801e98:	203fef1e 	bne	r4,zero,1801e58 <___vfprintf_internal_r+0x16f8>
 1801e9c:	003ccb06 	br	18011cc <___vfprintf_internal_r+0xa6c>
 1801ea0:	00800c04 	movi	r2,48
 1801ea4:	d98018c4 	addi	r6,sp,99
 1801ea8:	dd000f04 	addi	r20,sp,60
 1801eac:	d88018c5 	stb	r2,99(sp)
 1801eb0:	d9814115 	stw	r6,1284(sp)
 1801eb4:	003cc506 	br	18011cc <___vfprintf_internal_r+0xa6c>
 1801eb8:	dc400d17 	ldw	r17,52(sp)
 1801ebc:	07006074 	movhi	fp,385
 1801ec0:	e7023684 	addi	fp,fp,2266
 1801ec4:	003bc706 	br	1800de4 <___vfprintf_internal_r+0x684>
 1801ec8:	d9414c17 	ldw	r5,1328(sp)
 1801ecc:	2880040c 	andi	r2,r5,16
 1801ed0:	10007c26 	beq	r2,zero,18020c4 <___vfprintf_internal_r+0x1964>
 1801ed4:	38800017 	ldw	r2,0(r7)
 1801ed8:	39c00104 	addi	r7,r7,4
 1801edc:	d9c14015 	stw	r7,1280(sp)
 1801ee0:	d9814b17 	ldw	r6,1324(sp)
 1801ee4:	d9c14017 	ldw	r7,1280(sp)
 1801ee8:	11800015 	stw	r6,0(r2)
 1801eec:	003a7806 	br	18008d0 <___vfprintf_internal_r+0x170>
 1801ef0:	d9014f17 	ldw	r4,1340(sp)
 1801ef4:	b00b883a 	mov	r5,r22
 1801ef8:	d9800c04 	addi	r6,sp,48
 1801efc:	18007080 	call	1800708 <__sprint_r>
 1801f00:	103bcf1e 	bne	r2,zero,1800e40 <___vfprintf_internal_r+0x6e0>
 1801f04:	dc800e17 	ldw	r18,56(sp)
 1801f08:	dc400d17 	ldw	r17,52(sp)
 1801f0c:	d8c01904 	addi	r3,sp,100
 1801f10:	d9014717 	ldw	r4,1308(sp)
 1801f14:	d9414117 	ldw	r5,1284(sp)
 1801f18:	8c400044 	addi	r17,r17,1
 1801f1c:	9125883a 	add	r18,r18,r4
 1801f20:	008001c4 	movi	r2,7
 1801f24:	19400015 	stw	r5,0(r3)
 1801f28:	19000115 	stw	r4,4(r3)
 1801f2c:	dc800e15 	stw	r18,56(sp)
 1801f30:	dc400d15 	stw	r17,52(sp)
 1801f34:	147cee16 	blt	r2,r17,18012f0 <___vfprintf_internal_r+0xb90>
 1801f38:	18c00204 	addi	r3,r3,8
 1801f3c:	003b8606 	br	1800d58 <___vfprintf_internal_r+0x5f8>
 1801f40:	38c00017 	ldw	r3,0(r7)
 1801f44:	39000204 	addi	r4,r7,8
 1801f48:	d9014015 	stw	r4,1280(sp)
 1801f4c:	d8c14215 	stw	r3,1288(sp)
 1801f50:	39c00117 	ldw	r7,4(r7)
 1801f54:	d9c14315 	stw	r7,1292(sp)
 1801f58:	003e2006 	br	18017dc <___vfprintf_internal_r+0x107c>
 1801f5c:	0005883a 	mov	r2,zero
 1801f60:	1409c83a 	sub	r4,r2,r16
 1801f64:	1105803a 	cmpltu	r2,r2,r4
 1801f68:	044bc83a 	sub	r5,zero,r17
 1801f6c:	2885c83a 	sub	r2,r5,r2
 1801f70:	2021883a 	mov	r16,r4
 1801f74:	1023883a 	mov	r17,r2
 1801f78:	01000044 	movi	r4,1
 1801f7c:	00800b44 	movi	r2,45
 1801f80:	d8800405 	stb	r2,16(sp)
 1801f84:	003c8406 	br	1801198 <___vfprintf_internal_r+0xa38>
 1801f88:	d9014f17 	ldw	r4,1340(sp)
 1801f8c:	b00b883a 	mov	r5,r22
 1801f90:	d9800c04 	addi	r6,sp,48
 1801f94:	18007080 	call	1800708 <__sprint_r>
 1801f98:	103ba91e 	bne	r2,zero,1800e40 <___vfprintf_internal_r+0x6e0>
 1801f9c:	dc800e17 	ldw	r18,56(sp)
 1801fa0:	dc400d17 	ldw	r17,52(sp)
 1801fa4:	d9000517 	ldw	r4,20(sp)
 1801fa8:	d9401904 	addi	r5,sp,100
 1801fac:	003da706 	br	180164c <___vfprintf_internal_r+0xeec>
 1801fb0:	d9014f17 	ldw	r4,1340(sp)
 1801fb4:	b00b883a 	mov	r5,r22
 1801fb8:	d9800c04 	addi	r6,sp,48
 1801fbc:	18007080 	call	1800708 <__sprint_r>
 1801fc0:	103b9f1e 	bne	r2,zero,1800e40 <___vfprintf_internal_r+0x6e0>
 1801fc4:	dc800e17 	ldw	r18,56(sp)
 1801fc8:	dc400d17 	ldw	r17,52(sp)
 1801fcc:	d9000517 	ldw	r4,20(sp)
 1801fd0:	d8c01904 	addi	r3,sp,100
 1801fd4:	003d9106 	br	180161c <___vfprintf_internal_r+0xebc>
 1801fd8:	07006074 	movhi	fp,385
 1801fdc:	e7023284 	addi	fp,fp,2250
 1801fe0:	9425883a 	add	r18,r18,r16
 1801fe4:	8c400044 	addi	r17,r17,1
 1801fe8:	008001c4 	movi	r2,7
 1801fec:	1f000015 	stw	fp,0(r3)
 1801ff0:	1c000115 	stw	r16,4(r3)
 1801ff4:	dc800e15 	stw	r18,56(sp)
 1801ff8:	dc400d15 	stw	r17,52(sp)
 1801ffc:	147fbc16 	blt	r2,r17,1801ef0 <___vfprintf_internal_r+0x1790>
 1802000:	18c00204 	addi	r3,r3,8
 1802004:	003fc206 	br	1801f10 <___vfprintf_internal_r+0x17b0>
 1802008:	d9014f17 	ldw	r4,1340(sp)
 180200c:	b00b883a 	mov	r5,r22
 1802010:	d9800c04 	addi	r6,sp,48
 1802014:	18007080 	call	1800708 <__sprint_r>
 1802018:	103b891e 	bne	r2,zero,1800e40 <___vfprintf_internal_r+0x6e0>
 180201c:	dc800e17 	ldw	r18,56(sp)
 1802020:	d9000517 	ldw	r4,20(sp)
 1802024:	d8c01904 	addi	r3,sp,100
 1802028:	003d0206 	br	1801434 <___vfprintf_internal_r+0xcd4>
 180202c:	07006074 	movhi	fp,385
 1802030:	e7023284 	addi	fp,fp,2250
 1802034:	003be406 	br	1800fc8 <___vfprintf_internal_r+0x868>
 1802038:	00806074 	movhi	r2,385
 180203c:	10822104 	addi	r2,r2,2180
 1802040:	d8814115 	stw	r2,1284(sp)
 1802044:	003df506 	br	180181c <___vfprintf_internal_r+0x10bc>
 1802048:	d9014217 	ldw	r4,1288(sp)
 180204c:	d9414317 	ldw	r5,1292(sp)
 1802050:	18071400 	call	1807140 <__isnand>
 1802054:	10003926 	beq	r2,zero,180213c <___vfprintf_internal_r+0x19dc>
 1802058:	d9414d17 	ldw	r5,1332(sp)
 180205c:	008011c4 	movi	r2,71
 1802060:	1140ce16 	blt	r2,r5,180239c <___vfprintf_internal_r+0x1c3c>
 1802064:	01806074 	movhi	r6,385
 1802068:	31822204 	addi	r6,r6,2184
 180206c:	d9814115 	stw	r6,1284(sp)
 1802070:	003dea06 	br	180181c <___vfprintf_internal_r+0x10bc>
 1802074:	d9014c17 	ldw	r4,1328(sp)
 1802078:	bdc00044 	addi	r23,r23,1
 180207c:	b8c00007 	ldb	r3,0(r23)
 1802080:	21000814 	ori	r4,r4,32
 1802084:	d9014c15 	stw	r4,1328(sp)
 1802088:	003a3406 	br	180095c <___vfprintf_internal_r+0x1fc>
 180208c:	dcc14515 	stw	r19,1300(sp)
 1802090:	98011016 	blt	r19,zero,18024d4 <___vfprintf_internal_r+0x1d74>
 1802094:	980f883a 	mov	r7,r19
 1802098:	d8014615 	stw	zero,1304(sp)
 180209c:	003c5206 	br	18011e8 <___vfprintf_internal_r+0xa88>
 18020a0:	d9014f17 	ldw	r4,1340(sp)
 18020a4:	b00b883a 	mov	r5,r22
 18020a8:	d9800c04 	addi	r6,sp,48
 18020ac:	18007080 	call	1800708 <__sprint_r>
 18020b0:	103b631e 	bne	r2,zero,1800e40 <___vfprintf_internal_r+0x6e0>
 18020b4:	dc800e17 	ldw	r18,56(sp)
 18020b8:	d9000517 	ldw	r4,20(sp)
 18020bc:	d8c01904 	addi	r3,sp,100
 18020c0:	003f2e06 	br	1801d7c <___vfprintf_internal_r+0x161c>
 18020c4:	d8c14c17 	ldw	r3,1328(sp)
 18020c8:	1880100c 	andi	r2,r3,64
 18020cc:	1000a026 	beq	r2,zero,1802350 <___vfprintf_internal_r+0x1bf0>
 18020d0:	38800017 	ldw	r2,0(r7)
 18020d4:	39c00104 	addi	r7,r7,4
 18020d8:	d9c14015 	stw	r7,1280(sp)
 18020dc:	d9014b17 	ldw	r4,1324(sp)
 18020e0:	d9c14017 	ldw	r7,1280(sp)
 18020e4:	1100000d 	sth	r4,0(r2)
 18020e8:	0039f906 	br	18008d0 <___vfprintf_internal_r+0x170>
 18020ec:	d9014f17 	ldw	r4,1340(sp)
 18020f0:	b00b883a 	mov	r5,r22
 18020f4:	d9800c04 	addi	r6,sp,48
 18020f8:	18007080 	call	1800708 <__sprint_r>
 18020fc:	103b501e 	bne	r2,zero,1800e40 <___vfprintf_internal_r+0x6e0>
 1802100:	dc800e17 	ldw	r18,56(sp)
 1802104:	dc400d17 	ldw	r17,52(sp)
 1802108:	d9000517 	ldw	r4,20(sp)
 180210c:	d8c01904 	addi	r3,sp,100
 1802110:	003f2d06 	br	1801dc8 <___vfprintf_internal_r+0x1668>
 1802114:	00800184 	movi	r2,6
 1802118:	14c09a36 	bltu	r2,r19,1802384 <___vfprintf_internal_r+0x1c24>
 180211c:	dcc14515 	stw	r19,1300(sp)
 1802120:	9800010e 	bge	r19,zero,1802128 <___vfprintf_internal_r+0x19c8>
 1802124:	d8014515 	stw	zero,1300(sp)
 1802128:	00806074 	movhi	r2,385
 180212c:	10822404 	addi	r2,r2,2192
 1802130:	980f883a 	mov	r7,r19
 1802134:	d8814115 	stw	r2,1284(sp)
 1802138:	003a7806 	br	1800b1c <___vfprintf_internal_r+0x3bc>
 180213c:	00bfffc4 	movi	r2,-1
 1802140:	9880e226 	beq	r19,r2,18024cc <___vfprintf_internal_r+0x1d6c>
 1802144:	d9414d17 	ldw	r5,1332(sp)
 1802148:	008019c4 	movi	r2,103
 180214c:	2880dc26 	beq	r5,r2,18024c0 <___vfprintf_internal_r+0x1d60>
 1802150:	008011c4 	movi	r2,71
 1802154:	2880da26 	beq	r5,r2,18024c0 <___vfprintf_internal_r+0x1d60>
 1802158:	d9414c17 	ldw	r5,1328(sp)
 180215c:	d9014317 	ldw	r4,1292(sp)
 1802160:	d9814217 	ldw	r6,1288(sp)
 1802164:	29404014 	ori	r5,r5,256
 1802168:	d9414c15 	stw	r5,1328(sp)
 180216c:	2000cc16 	blt	r4,zero,18024a0 <___vfprintf_internal_r+0x1d40>
 1802170:	3021883a 	mov	r16,r6
 1802174:	2023883a 	mov	r17,r4
 1802178:	0039883a 	mov	fp,zero
 180217c:	d9414d17 	ldw	r5,1332(sp)
 1802180:	00801984 	movi	r2,102
 1802184:	2880b726 	beq	r5,r2,1802464 <___vfprintf_internal_r+0x1d04>
 1802188:	00801184 	movi	r2,70
 180218c:	2880b526 	beq	r5,r2,1802464 <___vfprintf_internal_r+0x1d04>
 1802190:	00801944 	movi	r2,101
 1802194:	2880c826 	beq	r5,r2,18024b8 <___vfprintf_internal_r+0x1d58>
 1802198:	00801144 	movi	r2,69
 180219c:	2880c626 	beq	r5,r2,18024b8 <___vfprintf_internal_r+0x1d58>
 18021a0:	9829883a 	mov	r20,r19
 18021a4:	d9014f17 	ldw	r4,1340(sp)
 18021a8:	d8800504 	addi	r2,sp,20
 18021ac:	880d883a 	mov	r6,r17
 18021b0:	d8800115 	stw	r2,4(sp)
 18021b4:	d8c00604 	addi	r3,sp,24
 18021b8:	d8800704 	addi	r2,sp,28
 18021bc:	800b883a 	mov	r5,r16
 18021c0:	01c00084 	movi	r7,2
 18021c4:	d8c00215 	stw	r3,8(sp)
 18021c8:	d8800315 	stw	r2,12(sp)
 18021cc:	dd000015 	stw	r20,0(sp)
 18021d0:	18029840 	call	1802984 <_dtoa_r>
 18021d4:	d9814d17 	ldw	r6,1332(sp)
 18021d8:	d8814115 	stw	r2,1284(sp)
 18021dc:	008019c4 	movi	r2,103
 18021e0:	30809526 	beq	r6,r2,1802438 <___vfprintf_internal_r+0x1cd8>
 18021e4:	d8c14d17 	ldw	r3,1332(sp)
 18021e8:	008011c4 	movi	r2,71
 18021ec:	18809226 	beq	r3,r2,1802438 <___vfprintf_internal_r+0x1cd8>
 18021f0:	d9414117 	ldw	r5,1284(sp)
 18021f4:	d9814d17 	ldw	r6,1332(sp)
 18021f8:	00801984 	movi	r2,102
 18021fc:	2d25883a 	add	r18,r5,r20
 1802200:	30808626 	beq	r6,r2,180241c <___vfprintf_internal_r+0x1cbc>
 1802204:	00801184 	movi	r2,70
 1802208:	30808426 	beq	r6,r2,180241c <___vfprintf_internal_r+0x1cbc>
 180220c:	000d883a 	mov	r6,zero
 1802210:	000f883a 	mov	r7,zero
 1802214:	880b883a 	mov	r5,r17
 1802218:	8009883a 	mov	r4,r16
 180221c:	1808f280 	call	1808f28 <__eqdf2>
 1802220:	1000751e 	bne	r2,zero,18023f8 <___vfprintf_internal_r+0x1c98>
 1802224:	9005883a 	mov	r2,r18
 1802228:	dc800715 	stw	r18,28(sp)
 180222c:	d9014117 	ldw	r4,1284(sp)
 1802230:	d9414d17 	ldw	r5,1332(sp)
 1802234:	00c019c4 	movi	r3,103
 1802238:	1125c83a 	sub	r18,r2,r4
 180223c:	28c06826 	beq	r5,r3,18023e0 <___vfprintf_internal_r+0x1c80>
 1802240:	008011c4 	movi	r2,71
 1802244:	28806626 	beq	r5,r2,18023e0 <___vfprintf_internal_r+0x1c80>
 1802248:	d9000517 	ldw	r4,20(sp)
 180224c:	d8c14d17 	ldw	r3,1332(sp)
 1802250:	00801944 	movi	r2,101
 1802254:	10c05516 	blt	r2,r3,18023ac <___vfprintf_internal_r+0x1c4c>
 1802258:	213fffc4 	addi	r4,r4,-1
 180225c:	d9000515 	stw	r4,20(sp)
 1802260:	d8c00805 	stb	r3,32(sp)
 1802264:	2021883a 	mov	r16,r4
 1802268:	2000c116 	blt	r4,zero,1802570 <___vfprintf_internal_r+0x1e10>
 180226c:	00800ac4 	movi	r2,43
 1802270:	d8800845 	stb	r2,33(sp)
 1802274:	00800244 	movi	r2,9
 1802278:	1400af0e 	bge	r2,r16,1802538 <___vfprintf_internal_r+0x1dd8>
 180227c:	1027883a 	mov	r19,r2
 1802280:	dc400b84 	addi	r17,sp,46
 1802284:	8009883a 	mov	r4,r16
 1802288:	01400284 	movi	r5,10
 180228c:	18096100 	call	1809610 <__modsi3>
 1802290:	10800c04 	addi	r2,r2,48
 1802294:	8c7fffc4 	addi	r17,r17,-1
 1802298:	8009883a 	mov	r4,r16
 180229c:	01400284 	movi	r5,10
 18022a0:	88800005 	stb	r2,0(r17)
 18022a4:	18095b00 	call	18095b0 <__divsi3>
 18022a8:	1021883a 	mov	r16,r2
 18022ac:	98bff516 	blt	r19,r2,1802284 <___vfprintf_internal_r+0x1b24>
 18022b0:	10c00c04 	addi	r3,r2,48
 18022b4:	d88009c4 	addi	r2,sp,39
 18022b8:	108001c4 	addi	r2,r2,7
 18022bc:	897fffc4 	addi	r5,r17,-1
 18022c0:	88ffffc5 	stb	r3,-1(r17)
 18022c4:	2880a72e 	bgeu	r5,r2,1802564 <___vfprintf_internal_r+0x1e04>
 18022c8:	1009883a 	mov	r4,r2
 18022cc:	d9800804 	addi	r6,sp,32
 18022d0:	d8c00884 	addi	r3,sp,34
 18022d4:	28800003 	ldbu	r2,0(r5)
 18022d8:	29400044 	addi	r5,r5,1
 18022dc:	18800005 	stb	r2,0(r3)
 18022e0:	18c00044 	addi	r3,r3,1
 18022e4:	293ffb36 	bltu	r5,r4,18022d4 <___vfprintf_internal_r+0x1b74>
 18022e8:	1987c83a 	sub	r3,r3,r6
 18022ec:	00800044 	movi	r2,1
 18022f0:	d8c14815 	stw	r3,1312(sp)
 18022f4:	90cf883a 	add	r7,r18,r3
 18022f8:	1480960e 	bge	r2,r18,1802554 <___vfprintf_internal_r+0x1df4>
 18022fc:	39c00044 	addi	r7,r7,1
 1802300:	d9c14515 	stw	r7,1300(sp)
 1802304:	38003416 	blt	r7,zero,18023d8 <___vfprintf_internal_r+0x1c78>
 1802308:	e0803fcc 	andi	r2,fp,255
 180230c:	1080201c 	xori	r2,r2,128
 1802310:	10bfe004 	addi	r2,r2,-128
 1802314:	10004e26 	beq	r2,zero,1802450 <___vfprintf_internal_r+0x1cf0>
 1802318:	00800b44 	movi	r2,45
 180231c:	dc814715 	stw	r18,1308(sp)
 1802320:	d8014615 	stw	zero,1304(sp)
 1802324:	d8800405 	stb	r2,16(sp)
 1802328:	003bb106 	br	18011f0 <___vfprintf_internal_r+0xa90>
 180232c:	00800b44 	movi	r2,45
 1802330:	d8800405 	stb	r2,16(sp)
 1802334:	003d3306 	br	1801804 <___vfprintf_internal_r+0x10a4>
 1802338:	d9014f17 	ldw	r4,1340(sp)
 180233c:	b00b883a 	mov	r5,r22
 1802340:	d9800c04 	addi	r6,sp,48
 1802344:	18007080 	call	1800708 <__sprint_r>
 1802348:	103abd1e 	bne	r2,zero,1800e40 <___vfprintf_internal_r+0x6e0>
 180234c:	003abb06 	br	1800e3c <___vfprintf_internal_r+0x6dc>
 1802350:	38800017 	ldw	r2,0(r7)
 1802354:	39c00104 	addi	r7,r7,4
 1802358:	d9c14015 	stw	r7,1280(sp)
 180235c:	d9414b17 	ldw	r5,1324(sp)
 1802360:	d9c14017 	ldw	r7,1280(sp)
 1802364:	11400015 	stw	r5,0(r2)
 1802368:	00395906 	br	18008d0 <___vfprintf_internal_r+0x170>
 180236c:	980f883a 	mov	r7,r19
 1802370:	dcc14515 	stw	r19,1300(sp)
 1802374:	d8014615 	stw	zero,1304(sp)
 1802378:	003b9b06 	br	18011e8 <___vfprintf_internal_r+0xa88>
 180237c:	0027883a 	mov	r19,zero
 1802380:	00397806 	br	1800964 <___vfprintf_internal_r+0x204>
 1802384:	00c06074 	movhi	r3,385
 1802388:	18c22404 	addi	r3,r3,2192
 180238c:	100f883a 	mov	r7,r2
 1802390:	d8814515 	stw	r2,1300(sp)
 1802394:	d8c14115 	stw	r3,1284(sp)
 1802398:	0039e006 	br	1800b1c <___vfprintf_internal_r+0x3bc>
 180239c:	00806074 	movhi	r2,385
 18023a0:	10822304 	addi	r2,r2,2188
 18023a4:	d8814115 	stw	r2,1284(sp)
 18023a8:	003d1c06 	br	180181c <___vfprintf_internal_r+0x10bc>
 18023ac:	d9414d17 	ldw	r5,1332(sp)
 18023b0:	00801984 	movi	r2,102
 18023b4:	28804926 	beq	r5,r2,18024dc <___vfprintf_internal_r+0x1d7c>
 18023b8:	200f883a 	mov	r7,r4
 18023bc:	24805716 	blt	r4,r18,180251c <___vfprintf_internal_r+0x1dbc>
 18023c0:	d9414c17 	ldw	r5,1328(sp)
 18023c4:	2880004c 	andi	r2,r5,1
 18023c8:	10000126 	beq	r2,zero,18023d0 <___vfprintf_internal_r+0x1c70>
 18023cc:	21c00044 	addi	r7,r4,1
 18023d0:	d9c14515 	stw	r7,1300(sp)
 18023d4:	383fcc0e 	bge	r7,zero,1802308 <___vfprintf_internal_r+0x1ba8>
 18023d8:	d8014515 	stw	zero,1300(sp)
 18023dc:	003fca06 	br	1802308 <___vfprintf_internal_r+0x1ba8>
 18023e0:	d9000517 	ldw	r4,20(sp)
 18023e4:	00bfff04 	movi	r2,-4
 18023e8:	1100480e 	bge	r2,r4,180250c <___vfprintf_internal_r+0x1dac>
 18023ec:	99004716 	blt	r19,r4,180250c <___vfprintf_internal_r+0x1dac>
 18023f0:	d8c14d15 	stw	r3,1332(sp)
 18023f4:	003ff006 	br	18023b8 <___vfprintf_internal_r+0x1c58>
 18023f8:	d8800717 	ldw	r2,28(sp)
 18023fc:	14bf8b2e 	bgeu	r2,r18,180222c <___vfprintf_internal_r+0x1acc>
 1802400:	9007883a 	mov	r3,r18
 1802404:	01000c04 	movi	r4,48
 1802408:	11000005 	stb	r4,0(r2)
 180240c:	10800044 	addi	r2,r2,1
 1802410:	d8800715 	stw	r2,28(sp)
 1802414:	18bffc1e 	bne	r3,r2,1802408 <___vfprintf_internal_r+0x1ca8>
 1802418:	003f8406 	br	180222c <___vfprintf_internal_r+0x1acc>
 180241c:	d8814117 	ldw	r2,1284(sp)
 1802420:	10c00007 	ldb	r3,0(r2)
 1802424:	00800c04 	movi	r2,48
 1802428:	18805b26 	beq	r3,r2,1802598 <___vfprintf_internal_r+0x1e38>
 180242c:	d9000517 	ldw	r4,20(sp)
 1802430:	9125883a 	add	r18,r18,r4
 1802434:	003f7506 	br	180220c <___vfprintf_internal_r+0x1aac>
 1802438:	d9014c17 	ldw	r4,1328(sp)
 180243c:	2080004c 	andi	r2,r4,1
 1802440:	1005003a 	cmpeq	r2,r2,zero
 1802444:	103f6a26 	beq	r2,zero,18021f0 <___vfprintf_internal_r+0x1a90>
 1802448:	d8800717 	ldw	r2,28(sp)
 180244c:	003f7706 	br	180222c <___vfprintf_internal_r+0x1acc>
 1802450:	d9c14515 	stw	r7,1300(sp)
 1802454:	38004d16 	blt	r7,zero,180258c <___vfprintf_internal_r+0x1e2c>
 1802458:	dc814715 	stw	r18,1308(sp)
 180245c:	d8014615 	stw	zero,1304(sp)
 1802460:	003b6106 	br	18011e8 <___vfprintf_internal_r+0xa88>
 1802464:	d9014f17 	ldw	r4,1340(sp)
 1802468:	d8800504 	addi	r2,sp,20
 180246c:	d8800115 	stw	r2,4(sp)
 1802470:	d8c00604 	addi	r3,sp,24
 1802474:	d8800704 	addi	r2,sp,28
 1802478:	800b883a 	mov	r5,r16
 180247c:	880d883a 	mov	r6,r17
 1802480:	01c000c4 	movi	r7,3
 1802484:	d8c00215 	stw	r3,8(sp)
 1802488:	d8800315 	stw	r2,12(sp)
 180248c:	dcc00015 	stw	r19,0(sp)
 1802490:	9829883a 	mov	r20,r19
 1802494:	18029840 	call	1802984 <_dtoa_r>
 1802498:	d8814115 	stw	r2,1284(sp)
 180249c:	003f5106 	br	18021e4 <___vfprintf_internal_r+0x1a84>
 18024a0:	d8c14217 	ldw	r3,1288(sp)
 18024a4:	d9014317 	ldw	r4,1292(sp)
 18024a8:	07000b44 	movi	fp,45
 18024ac:	1821883a 	mov	r16,r3
 18024b0:	2460003c 	xorhi	r17,r4,32768
 18024b4:	003f3106 	br	180217c <___vfprintf_internal_r+0x1a1c>
 18024b8:	9d000044 	addi	r20,r19,1
 18024bc:	003f3906 	br	18021a4 <___vfprintf_internal_r+0x1a44>
 18024c0:	983f251e 	bne	r19,zero,1802158 <___vfprintf_internal_r+0x19f8>
 18024c4:	04c00044 	movi	r19,1
 18024c8:	003f2306 	br	1802158 <___vfprintf_internal_r+0x19f8>
 18024cc:	04c00184 	movi	r19,6
 18024d0:	003f2106 	br	1802158 <___vfprintf_internal_r+0x19f8>
 18024d4:	d8014515 	stw	zero,1300(sp)
 18024d8:	003eee06 	br	1802094 <___vfprintf_internal_r+0x1934>
 18024dc:	200f883a 	mov	r7,r4
 18024e0:	0100370e 	bge	zero,r4,18025c0 <___vfprintf_internal_r+0x1e60>
 18024e4:	9800031e 	bne	r19,zero,18024f4 <___vfprintf_internal_r+0x1d94>
 18024e8:	d9814c17 	ldw	r6,1328(sp)
 18024ec:	3080004c 	andi	r2,r6,1
 18024f0:	103fb726 	beq	r2,zero,18023d0 <___vfprintf_internal_r+0x1c70>
 18024f4:	20800044 	addi	r2,r4,1
 18024f8:	98a7883a 	add	r19,r19,r2
 18024fc:	dcc14515 	stw	r19,1300(sp)
 1802500:	980f883a 	mov	r7,r19
 1802504:	983f800e 	bge	r19,zero,1802308 <___vfprintf_internal_r+0x1ba8>
 1802508:	003fb306 	br	18023d8 <___vfprintf_internal_r+0x1c78>
 180250c:	d9814d17 	ldw	r6,1332(sp)
 1802510:	31bfff84 	addi	r6,r6,-2
 1802514:	d9814d15 	stw	r6,1332(sp)
 1802518:	003f4c06 	br	180224c <___vfprintf_internal_r+0x1aec>
 180251c:	0100180e 	bge	zero,r4,1802580 <___vfprintf_internal_r+0x1e20>
 1802520:	00800044 	movi	r2,1
 1802524:	1485883a 	add	r2,r2,r18
 1802528:	d8814515 	stw	r2,1300(sp)
 180252c:	100f883a 	mov	r7,r2
 1802530:	103f750e 	bge	r2,zero,1802308 <___vfprintf_internal_r+0x1ba8>
 1802534:	003fa806 	br	18023d8 <___vfprintf_internal_r+0x1c78>
 1802538:	80c00c04 	addi	r3,r16,48
 180253c:	00800c04 	movi	r2,48
 1802540:	d8c008c5 	stb	r3,35(sp)
 1802544:	d9800804 	addi	r6,sp,32
 1802548:	d8c00904 	addi	r3,sp,36
 180254c:	d8800885 	stb	r2,34(sp)
 1802550:	003f6506 	br	18022e8 <___vfprintf_internal_r+0x1b88>
 1802554:	d9014c17 	ldw	r4,1328(sp)
 1802558:	2084703a 	and	r2,r4,r2
 180255c:	103f9c26 	beq	r2,zero,18023d0 <___vfprintf_internal_r+0x1c70>
 1802560:	003f6606 	br	18022fc <___vfprintf_internal_r+0x1b9c>
 1802564:	d9800804 	addi	r6,sp,32
 1802568:	d8c00884 	addi	r3,sp,34
 180256c:	003f5e06 	br	18022e8 <___vfprintf_internal_r+0x1b88>
 1802570:	00800b44 	movi	r2,45
 1802574:	0121c83a 	sub	r16,zero,r4
 1802578:	d8800845 	stb	r2,33(sp)
 180257c:	003f3d06 	br	1802274 <___vfprintf_internal_r+0x1b14>
 1802580:	00800084 	movi	r2,2
 1802584:	1105c83a 	sub	r2,r2,r4
 1802588:	003fe606 	br	1802524 <___vfprintf_internal_r+0x1dc4>
 180258c:	d8014515 	stw	zero,1300(sp)
 1802590:	dc814715 	stw	r18,1308(sp)
 1802594:	003fb106 	br	180245c <___vfprintf_internal_r+0x1cfc>
 1802598:	000d883a 	mov	r6,zero
 180259c:	000f883a 	mov	r7,zero
 18025a0:	8009883a 	mov	r4,r16
 18025a4:	880b883a 	mov	r5,r17
 18025a8:	1808fb00 	call	1808fb0 <__nedf2>
 18025ac:	103f9f26 	beq	r2,zero,180242c <___vfprintf_internal_r+0x1ccc>
 18025b0:	00800044 	movi	r2,1
 18025b4:	1509c83a 	sub	r4,r2,r20
 18025b8:	d9000515 	stw	r4,20(sp)
 18025bc:	003f9b06 	br	180242c <___vfprintf_internal_r+0x1ccc>
 18025c0:	98000d1e 	bne	r19,zero,18025f8 <___vfprintf_internal_r+0x1e98>
 18025c4:	d8c14c17 	ldw	r3,1328(sp)
 18025c8:	1880004c 	andi	r2,r3,1
 18025cc:	10000a1e 	bne	r2,zero,18025f8 <___vfprintf_internal_r+0x1e98>
 18025d0:	01000044 	movi	r4,1
 18025d4:	200f883a 	mov	r7,r4
 18025d8:	d9014515 	stw	r4,1300(sp)
 18025dc:	003f4a06 	br	1802308 <___vfprintf_internal_r+0x1ba8>
 18025e0:	3cc00017 	ldw	r19,0(r7)
 18025e4:	39c00104 	addi	r7,r7,4
 18025e8:	983d0e0e 	bge	r19,zero,1801a24 <___vfprintf_internal_r+0x12c4>
 18025ec:	b8c00007 	ldb	r3,0(r23)
 18025f0:	04ffffc4 	movi	r19,-1
 18025f4:	0038d906 	br	180095c <___vfprintf_internal_r+0x1fc>
 18025f8:	9cc00084 	addi	r19,r19,2
 18025fc:	dcc14515 	stw	r19,1300(sp)
 1802600:	980f883a 	mov	r7,r19
 1802604:	983f400e 	bge	r19,zero,1802308 <___vfprintf_internal_r+0x1ba8>
 1802608:	003f7306 	br	18023d8 <___vfprintf_internal_r+0x1c78>

0180260c <__vfprintf_internal>:
 180260c:	00806074 	movhi	r2,385
 1802610:	108aca04 	addi	r2,r2,11048
 1802614:	2013883a 	mov	r9,r4
 1802618:	11000017 	ldw	r4,0(r2)
 180261c:	2805883a 	mov	r2,r5
 1802620:	300f883a 	mov	r7,r6
 1802624:	480b883a 	mov	r5,r9
 1802628:	100d883a 	mov	r6,r2
 180262c:	18007601 	jmpi	1800760 <___vfprintf_internal_r>

01802630 <__swsetup_r>:
 1802630:	00806074 	movhi	r2,385
 1802634:	108aca04 	addi	r2,r2,11048
 1802638:	10c00017 	ldw	r3,0(r2)
 180263c:	defffd04 	addi	sp,sp,-12
 1802640:	dc400115 	stw	r17,4(sp)
 1802644:	dc000015 	stw	r16,0(sp)
 1802648:	dfc00215 	stw	ra,8(sp)
 180264c:	2023883a 	mov	r17,r4
 1802650:	2821883a 	mov	r16,r5
 1802654:	18000226 	beq	r3,zero,1802660 <__swsetup_r+0x30>
 1802658:	18800e17 	ldw	r2,56(r3)
 180265c:	10001f26 	beq	r2,zero,18026dc <__swsetup_r+0xac>
 1802660:	8100030b 	ldhu	r4,12(r16)
 1802664:	2080020c 	andi	r2,r4,8
 1802668:	10002826 	beq	r2,zero,180270c <__swsetup_r+0xdc>
 180266c:	81400417 	ldw	r5,16(r16)
 1802670:	28001d26 	beq	r5,zero,18026e8 <__swsetup_r+0xb8>
 1802674:	2080004c 	andi	r2,r4,1
 1802678:	1005003a 	cmpeq	r2,r2,zero
 180267c:	10000b26 	beq	r2,zero,18026ac <__swsetup_r+0x7c>
 1802680:	2080008c 	andi	r2,r4,2
 1802684:	10001226 	beq	r2,zero,18026d0 <__swsetup_r+0xa0>
 1802688:	0005883a 	mov	r2,zero
 180268c:	80800215 	stw	r2,8(r16)
 1802690:	28000b26 	beq	r5,zero,18026c0 <__swsetup_r+0x90>
 1802694:	0005883a 	mov	r2,zero
 1802698:	dfc00217 	ldw	ra,8(sp)
 180269c:	dc400117 	ldw	r17,4(sp)
 18026a0:	dc000017 	ldw	r16,0(sp)
 18026a4:	dec00304 	addi	sp,sp,12
 18026a8:	f800283a 	ret
 18026ac:	80800517 	ldw	r2,20(r16)
 18026b0:	80000215 	stw	zero,8(r16)
 18026b4:	0085c83a 	sub	r2,zero,r2
 18026b8:	80800615 	stw	r2,24(r16)
 18026bc:	283ff51e 	bne	r5,zero,1802694 <__swsetup_r+0x64>
 18026c0:	2080200c 	andi	r2,r4,128
 18026c4:	103ff326 	beq	r2,zero,1802694 <__swsetup_r+0x64>
 18026c8:	00bfffc4 	movi	r2,-1
 18026cc:	003ff206 	br	1802698 <__swsetup_r+0x68>
 18026d0:	80800517 	ldw	r2,20(r16)
 18026d4:	80800215 	stw	r2,8(r16)
 18026d8:	003fed06 	br	1802690 <__swsetup_r+0x60>
 18026dc:	1809883a 	mov	r4,r3
 18026e0:	18041d00 	call	18041d0 <__sinit>
 18026e4:	003fde06 	br	1802660 <__swsetup_r+0x30>
 18026e8:	20c0a00c 	andi	r3,r4,640
 18026ec:	00808004 	movi	r2,512
 18026f0:	18bfe026 	beq	r3,r2,1802674 <__swsetup_r+0x44>
 18026f4:	8809883a 	mov	r4,r17
 18026f8:	800b883a 	mov	r5,r16
 18026fc:	1804f480 	call	1804f48 <__smakebuf_r>
 1802700:	8100030b 	ldhu	r4,12(r16)
 1802704:	81400417 	ldw	r5,16(r16)
 1802708:	003fda06 	br	1802674 <__swsetup_r+0x44>
 180270c:	2080040c 	andi	r2,r4,16
 1802710:	103fed26 	beq	r2,zero,18026c8 <__swsetup_r+0x98>
 1802714:	2080010c 	andi	r2,r4,4
 1802718:	10001226 	beq	r2,zero,1802764 <__swsetup_r+0x134>
 180271c:	81400c17 	ldw	r5,48(r16)
 1802720:	28000526 	beq	r5,zero,1802738 <__swsetup_r+0x108>
 1802724:	80801004 	addi	r2,r16,64
 1802728:	28800226 	beq	r5,r2,1802734 <__swsetup_r+0x104>
 180272c:	8809883a 	mov	r4,r17
 1802730:	18045540 	call	1804554 <_free_r>
 1802734:	80000c15 	stw	zero,48(r16)
 1802738:	8080030b 	ldhu	r2,12(r16)
 180273c:	81400417 	ldw	r5,16(r16)
 1802740:	80000115 	stw	zero,4(r16)
 1802744:	10bff6cc 	andi	r2,r2,65499
 1802748:	8080030d 	sth	r2,12(r16)
 180274c:	81400015 	stw	r5,0(r16)
 1802750:	8080030b 	ldhu	r2,12(r16)
 1802754:	10800214 	ori	r2,r2,8
 1802758:	113fffcc 	andi	r4,r2,65535
 180275c:	8080030d 	sth	r2,12(r16)
 1802760:	003fc306 	br	1802670 <__swsetup_r+0x40>
 1802764:	81400417 	ldw	r5,16(r16)
 1802768:	003ff906 	br	1802750 <__swsetup_r+0x120>

0180276c <quorem>:
 180276c:	28c00417 	ldw	r3,16(r5)
 1802770:	20800417 	ldw	r2,16(r4)
 1802774:	defff604 	addi	sp,sp,-40
 1802778:	ddc00715 	stw	r23,28(sp)
 180277c:	dd400515 	stw	r21,20(sp)
 1802780:	dfc00915 	stw	ra,36(sp)
 1802784:	df000815 	stw	fp,32(sp)
 1802788:	dd800615 	stw	r22,24(sp)
 180278c:	dd000415 	stw	r20,16(sp)
 1802790:	dcc00315 	stw	r19,12(sp)
 1802794:	dc800215 	stw	r18,8(sp)
 1802798:	dc400115 	stw	r17,4(sp)
 180279c:	dc000015 	stw	r16,0(sp)
 18027a0:	202f883a 	mov	r23,r4
 18027a4:	282b883a 	mov	r21,r5
 18027a8:	10c07416 	blt	r2,r3,180297c <quorem+0x210>
 18027ac:	1c7fffc4 	addi	r17,r3,-1
 18027b0:	8c45883a 	add	r2,r17,r17
 18027b4:	1085883a 	add	r2,r2,r2
 18027b8:	2c000504 	addi	r16,r5,20
 18027bc:	24c00504 	addi	r19,r4,20
 18027c0:	14ed883a 	add	r22,r2,r19
 18027c4:	80a5883a 	add	r18,r16,r2
 18027c8:	b7000017 	ldw	fp,0(r22)
 18027cc:	91400017 	ldw	r5,0(r18)
 18027d0:	e009883a 	mov	r4,fp
 18027d4:	29400044 	addi	r5,r5,1
 18027d8:	18096700 	call	1809670 <__udivsi3>
 18027dc:	1029883a 	mov	r20,r2
 18027e0:	10003c1e 	bne	r2,zero,18028d4 <quorem+0x168>
 18027e4:	a80b883a 	mov	r5,r21
 18027e8:	b809883a 	mov	r4,r23
 18027ec:	1805c740 	call	1805c74 <__mcmp>
 18027f0:	10002b16 	blt	r2,zero,18028a0 <quorem+0x134>
 18027f4:	a5000044 	addi	r20,r20,1
 18027f8:	980f883a 	mov	r7,r19
 18027fc:	0011883a 	mov	r8,zero
 1802800:	0009883a 	mov	r4,zero
 1802804:	81400017 	ldw	r5,0(r16)
 1802808:	38c00017 	ldw	r3,0(r7)
 180280c:	84000104 	addi	r16,r16,4
 1802810:	28bfffcc 	andi	r2,r5,65535
 1802814:	2085883a 	add	r2,r4,r2
 1802818:	11bfffcc 	andi	r6,r2,65535
 180281c:	193fffcc 	andi	r4,r3,65535
 1802820:	1004d43a 	srli	r2,r2,16
 1802824:	280ad43a 	srli	r5,r5,16
 1802828:	2189c83a 	sub	r4,r4,r6
 180282c:	2209883a 	add	r4,r4,r8
 1802830:	1806d43a 	srli	r3,r3,16
 1802834:	288b883a 	add	r5,r5,r2
 1802838:	200dd43a 	srai	r6,r4,16
 180283c:	28bfffcc 	andi	r2,r5,65535
 1802840:	1887c83a 	sub	r3,r3,r2
 1802844:	1987883a 	add	r3,r3,r6
 1802848:	3900000d 	sth	r4,0(r7)
 180284c:	38c0008d 	sth	r3,2(r7)
 1802850:	2808d43a 	srli	r4,r5,16
 1802854:	39c00104 	addi	r7,r7,4
 1802858:	1811d43a 	srai	r8,r3,16
 180285c:	943fe92e 	bgeu	r18,r16,1802804 <quorem+0x98>
 1802860:	8c45883a 	add	r2,r17,r17
 1802864:	1085883a 	add	r2,r2,r2
 1802868:	9885883a 	add	r2,r19,r2
 180286c:	10c00017 	ldw	r3,0(r2)
 1802870:	18000b1e 	bne	r3,zero,18028a0 <quorem+0x134>
 1802874:	113fff04 	addi	r4,r2,-4
 1802878:	9900082e 	bgeu	r19,r4,180289c <quorem+0x130>
 180287c:	10bfff17 	ldw	r2,-4(r2)
 1802880:	10000326 	beq	r2,zero,1802890 <quorem+0x124>
 1802884:	00000506 	br	180289c <quorem+0x130>
 1802888:	20800017 	ldw	r2,0(r4)
 180288c:	1000031e 	bne	r2,zero,180289c <quorem+0x130>
 1802890:	213fff04 	addi	r4,r4,-4
 1802894:	8c7fffc4 	addi	r17,r17,-1
 1802898:	993ffb36 	bltu	r19,r4,1802888 <quorem+0x11c>
 180289c:	bc400415 	stw	r17,16(r23)
 18028a0:	a005883a 	mov	r2,r20
 18028a4:	dfc00917 	ldw	ra,36(sp)
 18028a8:	df000817 	ldw	fp,32(sp)
 18028ac:	ddc00717 	ldw	r23,28(sp)
 18028b0:	dd800617 	ldw	r22,24(sp)
 18028b4:	dd400517 	ldw	r21,20(sp)
 18028b8:	dd000417 	ldw	r20,16(sp)
 18028bc:	dcc00317 	ldw	r19,12(sp)
 18028c0:	dc800217 	ldw	r18,8(sp)
 18028c4:	dc400117 	ldw	r17,4(sp)
 18028c8:	dc000017 	ldw	r16,0(sp)
 18028cc:	dec00a04 	addi	sp,sp,40
 18028d0:	f800283a 	ret
 18028d4:	980f883a 	mov	r7,r19
 18028d8:	8011883a 	mov	r8,r16
 18028dc:	0013883a 	mov	r9,zero
 18028e0:	000d883a 	mov	r6,zero
 18028e4:	40c00017 	ldw	r3,0(r8)
 18028e8:	39000017 	ldw	r4,0(r7)
 18028ec:	42000104 	addi	r8,r8,4
 18028f0:	18bfffcc 	andi	r2,r3,65535
 18028f4:	a085383a 	mul	r2,r20,r2
 18028f8:	1806d43a 	srli	r3,r3,16
 18028fc:	217fffcc 	andi	r5,r4,65535
 1802900:	3085883a 	add	r2,r6,r2
 1802904:	11bfffcc 	andi	r6,r2,65535
 1802908:	a0c7383a 	mul	r3,r20,r3
 180290c:	1004d43a 	srli	r2,r2,16
 1802910:	298bc83a 	sub	r5,r5,r6
 1802914:	2a4b883a 	add	r5,r5,r9
 1802918:	2008d43a 	srli	r4,r4,16
 180291c:	1887883a 	add	r3,r3,r2
 1802920:	280dd43a 	srai	r6,r5,16
 1802924:	18bfffcc 	andi	r2,r3,65535
 1802928:	2089c83a 	sub	r4,r4,r2
 180292c:	2189883a 	add	r4,r4,r6
 1802930:	3900008d 	sth	r4,2(r7)
 1802934:	3940000d 	sth	r5,0(r7)
 1802938:	180cd43a 	srli	r6,r3,16
 180293c:	39c00104 	addi	r7,r7,4
 1802940:	2013d43a 	srai	r9,r4,16
 1802944:	923fe72e 	bgeu	r18,r8,18028e4 <quorem+0x178>
 1802948:	e03fa61e 	bne	fp,zero,18027e4 <quorem+0x78>
 180294c:	b0ffff04 	addi	r3,r22,-4
 1802950:	98c0082e 	bgeu	r19,r3,1802974 <quorem+0x208>
 1802954:	b0bfff17 	ldw	r2,-4(r22)
 1802958:	10000326 	beq	r2,zero,1802968 <quorem+0x1fc>
 180295c:	00000506 	br	1802974 <quorem+0x208>
 1802960:	18800017 	ldw	r2,0(r3)
 1802964:	1000031e 	bne	r2,zero,1802974 <quorem+0x208>
 1802968:	18ffff04 	addi	r3,r3,-4
 180296c:	8c7fffc4 	addi	r17,r17,-1
 1802970:	98fffb36 	bltu	r19,r3,1802960 <quorem+0x1f4>
 1802974:	bc400415 	stw	r17,16(r23)
 1802978:	003f9a06 	br	18027e4 <quorem+0x78>
 180297c:	0005883a 	mov	r2,zero
 1802980:	003fc806 	br	18028a4 <quorem+0x138>

01802984 <_dtoa_r>:
 1802984:	22001017 	ldw	r8,64(r4)
 1802988:	deffda04 	addi	sp,sp,-152
 180298c:	dd402115 	stw	r21,132(sp)
 1802990:	dd002015 	stw	r20,128(sp)
 1802994:	dc801e15 	stw	r18,120(sp)
 1802998:	dc401d15 	stw	r17,116(sp)
 180299c:	dfc02515 	stw	ra,148(sp)
 18029a0:	df002415 	stw	fp,144(sp)
 18029a4:	ddc02315 	stw	r23,140(sp)
 18029a8:	dd802215 	stw	r22,136(sp)
 18029ac:	dcc01f15 	stw	r19,124(sp)
 18029b0:	dc001c15 	stw	r16,112(sp)
 18029b4:	d9001615 	stw	r4,88(sp)
 18029b8:	3023883a 	mov	r17,r6
 18029bc:	2829883a 	mov	r20,r5
 18029c0:	d9c01715 	stw	r7,92(sp)
 18029c4:	dc802817 	ldw	r18,160(sp)
 18029c8:	302b883a 	mov	r21,r6
 18029cc:	40000a26 	beq	r8,zero,18029f8 <_dtoa_r+0x74>
 18029d0:	20801117 	ldw	r2,68(r4)
 18029d4:	400b883a 	mov	r5,r8
 18029d8:	40800115 	stw	r2,4(r8)
 18029dc:	20c01117 	ldw	r3,68(r4)
 18029e0:	00800044 	movi	r2,1
 18029e4:	10c4983a 	sll	r2,r2,r3
 18029e8:	40800215 	stw	r2,8(r8)
 18029ec:	1805b180 	call	1805b18 <_Bfree>
 18029f0:	d8c01617 	ldw	r3,88(sp)
 18029f4:	18001015 	stw	zero,64(r3)
 18029f8:	8800a316 	blt	r17,zero,1802c88 <_dtoa_r+0x304>
 18029fc:	90000015 	stw	zero,0(r18)
 1802a00:	a8dffc2c 	andhi	r3,r21,32752
 1802a04:	009ffc34 	movhi	r2,32752
 1802a08:	18809126 	beq	r3,r2,1802c50 <_dtoa_r+0x2cc>
 1802a0c:	000d883a 	mov	r6,zero
 1802a10:	000f883a 	mov	r7,zero
 1802a14:	a009883a 	mov	r4,r20
 1802a18:	a80b883a 	mov	r5,r21
 1802a1c:	dd001215 	stw	r20,72(sp)
 1802a20:	dd401315 	stw	r21,76(sp)
 1802a24:	1808fb00 	call	1808fb0 <__nedf2>
 1802a28:	1000171e 	bne	r2,zero,1802a88 <_dtoa_r+0x104>
 1802a2c:	d9802717 	ldw	r6,156(sp)
 1802a30:	00800044 	movi	r2,1
 1802a34:	30800015 	stw	r2,0(r6)
 1802a38:	d8802917 	ldw	r2,164(sp)
 1802a3c:	10029b26 	beq	r2,zero,18034ac <_dtoa_r+0xb28>
 1802a40:	d9002917 	ldw	r4,164(sp)
 1802a44:	00806074 	movhi	r2,385
 1802a48:	10823244 	addi	r2,r2,2249
 1802a4c:	10ffffc4 	addi	r3,r2,-1
 1802a50:	20800015 	stw	r2,0(r4)
 1802a54:	1805883a 	mov	r2,r3
 1802a58:	dfc02517 	ldw	ra,148(sp)
 1802a5c:	df002417 	ldw	fp,144(sp)
 1802a60:	ddc02317 	ldw	r23,140(sp)
 1802a64:	dd802217 	ldw	r22,136(sp)
 1802a68:	dd402117 	ldw	r21,132(sp)
 1802a6c:	dd002017 	ldw	r20,128(sp)
 1802a70:	dcc01f17 	ldw	r19,124(sp)
 1802a74:	dc801e17 	ldw	r18,120(sp)
 1802a78:	dc401d17 	ldw	r17,116(sp)
 1802a7c:	dc001c17 	ldw	r16,112(sp)
 1802a80:	dec02604 	addi	sp,sp,152
 1802a84:	f800283a 	ret
 1802a88:	d9001617 	ldw	r4,88(sp)
 1802a8c:	d9401217 	ldw	r5,72(sp)
 1802a90:	d8800104 	addi	r2,sp,4
 1802a94:	a80d883a 	mov	r6,r21
 1802a98:	d9c00204 	addi	r7,sp,8
 1802a9c:	d8800015 	stw	r2,0(sp)
 1802aa0:	18061540 	call	1806154 <__d2b>
 1802aa4:	d8800715 	stw	r2,28(sp)
 1802aa8:	a804d53a 	srli	r2,r21,20
 1802aac:	1101ffcc 	andi	r4,r2,2047
 1802ab0:	20008626 	beq	r4,zero,1802ccc <_dtoa_r+0x348>
 1802ab4:	d8c01217 	ldw	r3,72(sp)
 1802ab8:	00800434 	movhi	r2,16
 1802abc:	10bfffc4 	addi	r2,r2,-1
 1802ac0:	ddc00117 	ldw	r23,4(sp)
 1802ac4:	a884703a 	and	r2,r21,r2
 1802ac8:	1811883a 	mov	r8,r3
 1802acc:	124ffc34 	orhi	r9,r2,16368
 1802ad0:	25bf0044 	addi	r22,r4,-1023
 1802ad4:	d8000815 	stw	zero,32(sp)
 1802ad8:	0005883a 	mov	r2,zero
 1802adc:	00cffe34 	movhi	r3,16376
 1802ae0:	480b883a 	mov	r5,r9
 1802ae4:	4009883a 	mov	r4,r8
 1802ae8:	180f883a 	mov	r7,r3
 1802aec:	100d883a 	mov	r6,r2
 1802af0:	18088180 	call	1808818 <__subdf3>
 1802af4:	0218dbf4 	movhi	r8,25455
 1802af8:	4210d844 	addi	r8,r8,17249
 1802afc:	024ff4f4 	movhi	r9,16339
 1802b00:	4a61e9c4 	addi	r9,r9,-30809
 1802b04:	480f883a 	mov	r7,r9
 1802b08:	400d883a 	mov	r6,r8
 1802b0c:	180b883a 	mov	r5,r3
 1802b10:	1009883a 	mov	r4,r2
 1802b14:	180890c0 	call	180890c <__muldf3>
 1802b18:	0222d874 	movhi	r8,35681
 1802b1c:	42322cc4 	addi	r8,r8,-14157
 1802b20:	024ff1f4 	movhi	r9,16327
 1802b24:	4a628a04 	addi	r9,r9,-30168
 1802b28:	480f883a 	mov	r7,r9
 1802b2c:	400d883a 	mov	r6,r8
 1802b30:	180b883a 	mov	r5,r3
 1802b34:	1009883a 	mov	r4,r2
 1802b38:	18088980 	call	1808898 <__adddf3>
 1802b3c:	b009883a 	mov	r4,r22
 1802b40:	1021883a 	mov	r16,r2
 1802b44:	1823883a 	mov	r17,r3
 1802b48:	18091d00 	call	18091d0 <__floatsidf>
 1802b4c:	021427f4 	movhi	r8,20639
 1802b50:	421e7ec4 	addi	r8,r8,31227
 1802b54:	024ff4f4 	movhi	r9,16339
 1802b58:	4a5104c4 	addi	r9,r9,17427
 1802b5c:	480f883a 	mov	r7,r9
 1802b60:	400d883a 	mov	r6,r8
 1802b64:	180b883a 	mov	r5,r3
 1802b68:	1009883a 	mov	r4,r2
 1802b6c:	180890c0 	call	180890c <__muldf3>
 1802b70:	180f883a 	mov	r7,r3
 1802b74:	880b883a 	mov	r5,r17
 1802b78:	100d883a 	mov	r6,r2
 1802b7c:	8009883a 	mov	r4,r16
 1802b80:	18088980 	call	1808898 <__adddf3>
 1802b84:	1009883a 	mov	r4,r2
 1802b88:	180b883a 	mov	r5,r3
 1802b8c:	1021883a 	mov	r16,r2
 1802b90:	1823883a 	mov	r17,r3
 1802b94:	18092c80 	call	18092c8 <__fixdfsi>
 1802b98:	000d883a 	mov	r6,zero
 1802b9c:	000f883a 	mov	r7,zero
 1802ba0:	8009883a 	mov	r4,r16
 1802ba4:	880b883a 	mov	r5,r17
 1802ba8:	d8800d15 	stw	r2,52(sp)
 1802bac:	18091480 	call	1809148 <__ltdf2>
 1802bb0:	10031716 	blt	r2,zero,1803810 <_dtoa_r+0xe8c>
 1802bb4:	d8c00d17 	ldw	r3,52(sp)
 1802bb8:	00800584 	movi	r2,22
 1802bbc:	10c1482e 	bgeu	r2,r3,18030e0 <_dtoa_r+0x75c>
 1802bc0:	01000044 	movi	r4,1
 1802bc4:	d9000c15 	stw	r4,48(sp)
 1802bc8:	bd85c83a 	sub	r2,r23,r22
 1802bcc:	11bfffc4 	addi	r6,r2,-1
 1802bd0:	30030b16 	blt	r6,zero,1803800 <_dtoa_r+0xe7c>
 1802bd4:	d9800a15 	stw	r6,40(sp)
 1802bd8:	d8001115 	stw	zero,68(sp)
 1802bdc:	d8c00d17 	ldw	r3,52(sp)
 1802be0:	1802ff16 	blt	r3,zero,18037e0 <_dtoa_r+0xe5c>
 1802be4:	d9000a17 	ldw	r4,40(sp)
 1802be8:	d8c00915 	stw	r3,36(sp)
 1802bec:	d8001015 	stw	zero,64(sp)
 1802bf0:	20c9883a 	add	r4,r4,r3
 1802bf4:	d9000a15 	stw	r4,40(sp)
 1802bf8:	d9001717 	ldw	r4,92(sp)
 1802bfc:	00800244 	movi	r2,9
 1802c00:	11004636 	bltu	r2,r4,1802d1c <_dtoa_r+0x398>
 1802c04:	00800144 	movi	r2,5
 1802c08:	11020416 	blt	r2,r4,180341c <_dtoa_r+0xa98>
 1802c0c:	04400044 	movi	r17,1
 1802c10:	d8c01717 	ldw	r3,92(sp)
 1802c14:	00800144 	movi	r2,5
 1802c18:	10c1ed36 	bltu	r2,r3,18033d0 <_dtoa_r+0xa4c>
 1802c1c:	18c5883a 	add	r2,r3,r3
 1802c20:	1085883a 	add	r2,r2,r2
 1802c24:	00c06034 	movhi	r3,384
 1802c28:	18cb0e04 	addi	r3,r3,11320
 1802c2c:	10c5883a 	add	r2,r2,r3
 1802c30:	11000017 	ldw	r4,0(r2)
 1802c34:	2000683a 	jmp	r4
 1802c38:	01802d24 	muli	r6,zero,180
 1802c3c:	01802d24 	muli	r6,zero,180
 1802c40:	01803724 	muli	r6,zero,220
 1802c44:	018036fc 	xorhi	r6,zero,219
 1802c48:	01803740 	call	180374 <__alt_mem_sdram-0x167fc8c>
 1802c4c:	0180374c 	andi	r6,zero,221
 1802c50:	d9002717 	ldw	r4,156(sp)
 1802c54:	0089c3c4 	movi	r2,9999
 1802c58:	20800015 	stw	r2,0(r4)
 1802c5c:	a0001026 	beq	r20,zero,1802ca0 <_dtoa_r+0x31c>
 1802c60:	00c06074 	movhi	r3,385
 1802c64:	18c23e04 	addi	r3,r3,2296
 1802c68:	d9802917 	ldw	r6,164(sp)
 1802c6c:	303f7926 	beq	r6,zero,1802a54 <_dtoa_r+0xd0>
 1802c70:	188000c7 	ldb	r2,3(r3)
 1802c74:	190000c4 	addi	r4,r3,3
 1802c78:	1000101e 	bne	r2,zero,1802cbc <_dtoa_r+0x338>
 1802c7c:	d8802917 	ldw	r2,164(sp)
 1802c80:	11000015 	stw	r4,0(r2)
 1802c84:	003f7306 	br	1802a54 <_dtoa_r+0xd0>
 1802c88:	00a00034 	movhi	r2,32768
 1802c8c:	10bfffc4 	addi	r2,r2,-1
 1802c90:	00c00044 	movi	r3,1
 1802c94:	88aa703a 	and	r21,r17,r2
 1802c98:	90c00015 	stw	r3,0(r18)
 1802c9c:	003f5806 	br	1802a00 <_dtoa_r+0x7c>
 1802ca0:	00800434 	movhi	r2,16
 1802ca4:	10bfffc4 	addi	r2,r2,-1
 1802ca8:	a884703a 	and	r2,r21,r2
 1802cac:	103fec1e 	bne	r2,zero,1802c60 <_dtoa_r+0x2dc>
 1802cb0:	00c06074 	movhi	r3,385
 1802cb4:	18c23b04 	addi	r3,r3,2284
 1802cb8:	003feb06 	br	1802c68 <_dtoa_r+0x2e4>
 1802cbc:	d8802917 	ldw	r2,164(sp)
 1802cc0:	19000204 	addi	r4,r3,8
 1802cc4:	11000015 	stw	r4,0(r2)
 1802cc8:	003f6206 	br	1802a54 <_dtoa_r+0xd0>
 1802ccc:	ddc00117 	ldw	r23,4(sp)
 1802cd0:	d8800217 	ldw	r2,8(sp)
 1802cd4:	01000804 	movi	r4,32
 1802cd8:	b8c10c84 	addi	r3,r23,1074
 1802cdc:	18a3883a 	add	r17,r3,r2
 1802ce0:	2441b80e 	bge	r4,r17,18033c4 <_dtoa_r+0xa40>
 1802ce4:	00c01004 	movi	r3,64
 1802ce8:	1c47c83a 	sub	r3,r3,r17
 1802cec:	88bff804 	addi	r2,r17,-32
 1802cf0:	a8c6983a 	sll	r3,r21,r3
 1802cf4:	a084d83a 	srl	r2,r20,r2
 1802cf8:	1888b03a 	or	r4,r3,r2
 1802cfc:	18093a00 	call	18093a0 <__floatunsidf>
 1802d00:	1011883a 	mov	r8,r2
 1802d04:	00bf8434 	movhi	r2,65040
 1802d08:	01000044 	movi	r4,1
 1802d0c:	10d3883a 	add	r9,r2,r3
 1802d10:	8dbef344 	addi	r22,r17,-1075
 1802d14:	d9000815 	stw	r4,32(sp)
 1802d18:	003f6f06 	br	1802ad8 <_dtoa_r+0x154>
 1802d1c:	d8001715 	stw	zero,92(sp)
 1802d20:	04400044 	movi	r17,1
 1802d24:	00bfffc4 	movi	r2,-1
 1802d28:	00c00044 	movi	r3,1
 1802d2c:	d8800e15 	stw	r2,56(sp)
 1802d30:	d8002615 	stw	zero,152(sp)
 1802d34:	d8800f15 	stw	r2,60(sp)
 1802d38:	d8c00b15 	stw	r3,44(sp)
 1802d3c:	1021883a 	mov	r16,r2
 1802d40:	d8801617 	ldw	r2,88(sp)
 1802d44:	10001115 	stw	zero,68(r2)
 1802d48:	d8801617 	ldw	r2,88(sp)
 1802d4c:	11401117 	ldw	r5,68(r2)
 1802d50:	1009883a 	mov	r4,r2
 1802d54:	18060980 	call	1806098 <_Balloc>
 1802d58:	d8c01617 	ldw	r3,88(sp)
 1802d5c:	d8800515 	stw	r2,20(sp)
 1802d60:	18801015 	stw	r2,64(r3)
 1802d64:	00800384 	movi	r2,14
 1802d68:	14006836 	bltu	r2,r16,1802f0c <_dtoa_r+0x588>
 1802d6c:	8805003a 	cmpeq	r2,r17,zero
 1802d70:	1000661e 	bne	r2,zero,1802f0c <_dtoa_r+0x588>
 1802d74:	d9000d17 	ldw	r4,52(sp)
 1802d78:	0102300e 	bge	zero,r4,180363c <_dtoa_r+0xcb8>
 1802d7c:	208003cc 	andi	r2,r4,15
 1802d80:	100490fa 	slli	r2,r2,3
 1802d84:	2025d13a 	srai	r18,r4,4
 1802d88:	00c06074 	movhi	r3,385
 1802d8c:	18c25004 	addi	r3,r3,2368
 1802d90:	10c5883a 	add	r2,r2,r3
 1802d94:	90c0040c 	andi	r3,r18,16
 1802d98:	14000017 	ldw	r16,0(r2)
 1802d9c:	14400117 	ldw	r17,4(r2)
 1802da0:	18036a1e 	bne	r3,zero,1803b4c <_dtoa_r+0x11c8>
 1802da4:	05800084 	movi	r22,2
 1802da8:	90001026 	beq	r18,zero,1802dec <_dtoa_r+0x468>
 1802dac:	04c06074 	movhi	r19,385
 1802db0:	9cc28204 	addi	r19,r19,2568
 1802db4:	9080004c 	andi	r2,r18,1
 1802db8:	1005003a 	cmpeq	r2,r2,zero
 1802dbc:	1000081e 	bne	r2,zero,1802de0 <_dtoa_r+0x45c>
 1802dc0:	99800017 	ldw	r6,0(r19)
 1802dc4:	99c00117 	ldw	r7,4(r19)
 1802dc8:	880b883a 	mov	r5,r17
 1802dcc:	8009883a 	mov	r4,r16
 1802dd0:	180890c0 	call	180890c <__muldf3>
 1802dd4:	1021883a 	mov	r16,r2
 1802dd8:	b5800044 	addi	r22,r22,1
 1802ddc:	1823883a 	mov	r17,r3
 1802de0:	9025d07a 	srai	r18,r18,1
 1802de4:	9cc00204 	addi	r19,r19,8
 1802de8:	903ff21e 	bne	r18,zero,1802db4 <_dtoa_r+0x430>
 1802dec:	a80b883a 	mov	r5,r21
 1802df0:	a009883a 	mov	r4,r20
 1802df4:	880f883a 	mov	r7,r17
 1802df8:	800d883a 	mov	r6,r16
 1802dfc:	1808cd00 	call	1808cd0 <__divdf3>
 1802e00:	1029883a 	mov	r20,r2
 1802e04:	182b883a 	mov	r21,r3
 1802e08:	d8c00c17 	ldw	r3,48(sp)
 1802e0c:	1805003a 	cmpeq	r2,r3,zero
 1802e10:	1000081e 	bne	r2,zero,1802e34 <_dtoa_r+0x4b0>
 1802e14:	0005883a 	mov	r2,zero
 1802e18:	00cffc34 	movhi	r3,16368
 1802e1c:	180f883a 	mov	r7,r3
 1802e20:	a009883a 	mov	r4,r20
 1802e24:	a80b883a 	mov	r5,r21
 1802e28:	100d883a 	mov	r6,r2
 1802e2c:	18091480 	call	1809148 <__ltdf2>
 1802e30:	1003fe16 	blt	r2,zero,1803e2c <_dtoa_r+0x14a8>
 1802e34:	b009883a 	mov	r4,r22
 1802e38:	18091d00 	call	18091d0 <__floatsidf>
 1802e3c:	180b883a 	mov	r5,r3
 1802e40:	1009883a 	mov	r4,r2
 1802e44:	a00d883a 	mov	r6,r20
 1802e48:	a80f883a 	mov	r7,r21
 1802e4c:	180890c0 	call	180890c <__muldf3>
 1802e50:	0011883a 	mov	r8,zero
 1802e54:	02500734 	movhi	r9,16412
 1802e58:	1009883a 	mov	r4,r2
 1802e5c:	180b883a 	mov	r5,r3
 1802e60:	480f883a 	mov	r7,r9
 1802e64:	400d883a 	mov	r6,r8
 1802e68:	18088980 	call	1808898 <__adddf3>
 1802e6c:	d9000f17 	ldw	r4,60(sp)
 1802e70:	102d883a 	mov	r22,r2
 1802e74:	00bf3034 	movhi	r2,64704
 1802e78:	18b9883a 	add	fp,r3,r2
 1802e7c:	e02f883a 	mov	r23,fp
 1802e80:	20028f1e 	bne	r4,zero,18038c0 <_dtoa_r+0xf3c>
 1802e84:	0005883a 	mov	r2,zero
 1802e88:	00d00534 	movhi	r3,16404
 1802e8c:	a009883a 	mov	r4,r20
 1802e90:	a80b883a 	mov	r5,r21
 1802e94:	180f883a 	mov	r7,r3
 1802e98:	100d883a 	mov	r6,r2
 1802e9c:	18088180 	call	1808818 <__subdf3>
 1802ea0:	1009883a 	mov	r4,r2
 1802ea4:	e00f883a 	mov	r7,fp
 1802ea8:	180b883a 	mov	r5,r3
 1802eac:	b00d883a 	mov	r6,r22
 1802eb0:	1025883a 	mov	r18,r2
 1802eb4:	1827883a 	mov	r19,r3
 1802eb8:	18090380 	call	1809038 <__gtdf2>
 1802ebc:	00834f16 	blt	zero,r2,1803bfc <_dtoa_r+0x1278>
 1802ec0:	e0e0003c 	xorhi	r3,fp,32768
 1802ec4:	9009883a 	mov	r4,r18
 1802ec8:	980b883a 	mov	r5,r19
 1802ecc:	180f883a 	mov	r7,r3
 1802ed0:	b00d883a 	mov	r6,r22
 1802ed4:	18091480 	call	1809148 <__ltdf2>
 1802ed8:	1000080e 	bge	r2,zero,1802efc <_dtoa_r+0x578>
 1802edc:	0027883a 	mov	r19,zero
 1802ee0:	0025883a 	mov	r18,zero
 1802ee4:	d8802617 	ldw	r2,152(sp)
 1802ee8:	df000517 	ldw	fp,20(sp)
 1802eec:	d8000615 	stw	zero,24(sp)
 1802ef0:	0084303a 	nor	r2,zero,r2
 1802ef4:	d8800d15 	stw	r2,52(sp)
 1802ef8:	00019b06 	br	1803568 <_dtoa_r+0xbe4>
 1802efc:	d9801217 	ldw	r6,72(sp)
 1802f00:	d8801317 	ldw	r2,76(sp)
 1802f04:	3029883a 	mov	r20,r6
 1802f08:	102b883a 	mov	r21,r2
 1802f0c:	d8c00217 	ldw	r3,8(sp)
 1802f10:	18008516 	blt	r3,zero,1803128 <_dtoa_r+0x7a4>
 1802f14:	d9000d17 	ldw	r4,52(sp)
 1802f18:	00800384 	movi	r2,14
 1802f1c:	11008216 	blt	r2,r4,1803128 <_dtoa_r+0x7a4>
 1802f20:	200490fa 	slli	r2,r4,3
 1802f24:	d9802617 	ldw	r6,152(sp)
 1802f28:	00c06074 	movhi	r3,385
 1802f2c:	18c25004 	addi	r3,r3,2368
 1802f30:	10c5883a 	add	r2,r2,r3
 1802f34:	14800017 	ldw	r18,0(r2)
 1802f38:	14c00117 	ldw	r19,4(r2)
 1802f3c:	30031e16 	blt	r6,zero,1803bb8 <_dtoa_r+0x1234>
 1802f40:	d9000517 	ldw	r4,20(sp)
 1802f44:	d8c00f17 	ldw	r3,60(sp)
 1802f48:	a823883a 	mov	r17,r21
 1802f4c:	a021883a 	mov	r16,r20
 1802f50:	192b883a 	add	r21,r3,r4
 1802f54:	2039883a 	mov	fp,r4
 1802f58:	00000f06 	br	1802f98 <_dtoa_r+0x614>
 1802f5c:	0005883a 	mov	r2,zero
 1802f60:	00d00934 	movhi	r3,16420
 1802f64:	5009883a 	mov	r4,r10
 1802f68:	580b883a 	mov	r5,r11
 1802f6c:	180f883a 	mov	r7,r3
 1802f70:	100d883a 	mov	r6,r2
 1802f74:	180890c0 	call	180890c <__muldf3>
 1802f78:	180b883a 	mov	r5,r3
 1802f7c:	000d883a 	mov	r6,zero
 1802f80:	000f883a 	mov	r7,zero
 1802f84:	1009883a 	mov	r4,r2
 1802f88:	1021883a 	mov	r16,r2
 1802f8c:	1823883a 	mov	r17,r3
 1802f90:	1808fb00 	call	1808fb0 <__nedf2>
 1802f94:	10004526 	beq	r2,zero,18030ac <_dtoa_r+0x728>
 1802f98:	900d883a 	mov	r6,r18
 1802f9c:	980f883a 	mov	r7,r19
 1802fa0:	8009883a 	mov	r4,r16
 1802fa4:	880b883a 	mov	r5,r17
 1802fa8:	1808cd00 	call	1808cd0 <__divdf3>
 1802fac:	180b883a 	mov	r5,r3
 1802fb0:	1009883a 	mov	r4,r2
 1802fb4:	18092c80 	call	18092c8 <__fixdfsi>
 1802fb8:	1009883a 	mov	r4,r2
 1802fbc:	1029883a 	mov	r20,r2
 1802fc0:	18091d00 	call	18091d0 <__floatsidf>
 1802fc4:	180f883a 	mov	r7,r3
 1802fc8:	9009883a 	mov	r4,r18
 1802fcc:	980b883a 	mov	r5,r19
 1802fd0:	100d883a 	mov	r6,r2
 1802fd4:	180890c0 	call	180890c <__muldf3>
 1802fd8:	180f883a 	mov	r7,r3
 1802fdc:	880b883a 	mov	r5,r17
 1802fe0:	8009883a 	mov	r4,r16
 1802fe4:	100d883a 	mov	r6,r2
 1802fe8:	18088180 	call	1808818 <__subdf3>
 1802fec:	1015883a 	mov	r10,r2
 1802ff0:	a0800c04 	addi	r2,r20,48
 1802ff4:	e0800005 	stb	r2,0(fp)
 1802ff8:	e7000044 	addi	fp,fp,1
 1802ffc:	1817883a 	mov	r11,r3
 1803000:	e57fd61e 	bne	fp,r21,1802f5c <_dtoa_r+0x5d8>
 1803004:	500d883a 	mov	r6,r10
 1803008:	180f883a 	mov	r7,r3
 180300c:	5009883a 	mov	r4,r10
 1803010:	180b883a 	mov	r5,r3
 1803014:	18088980 	call	1808898 <__adddf3>
 1803018:	100d883a 	mov	r6,r2
 180301c:	9009883a 	mov	r4,r18
 1803020:	980b883a 	mov	r5,r19
 1803024:	180f883a 	mov	r7,r3
 1803028:	1021883a 	mov	r16,r2
 180302c:	1823883a 	mov	r17,r3
 1803030:	18091480 	call	1809148 <__ltdf2>
 1803034:	10000816 	blt	r2,zero,1803058 <_dtoa_r+0x6d4>
 1803038:	980b883a 	mov	r5,r19
 180303c:	800d883a 	mov	r6,r16
 1803040:	880f883a 	mov	r7,r17
 1803044:	9009883a 	mov	r4,r18
 1803048:	1808f280 	call	1808f28 <__eqdf2>
 180304c:	1000171e 	bne	r2,zero,18030ac <_dtoa_r+0x728>
 1803050:	a080004c 	andi	r2,r20,1
 1803054:	10001526 	beq	r2,zero,18030ac <_dtoa_r+0x728>
 1803058:	d8800d17 	ldw	r2,52(sp)
 180305c:	d8800415 	stw	r2,16(sp)
 1803060:	e009883a 	mov	r4,fp
 1803064:	213fffc4 	addi	r4,r4,-1
 1803068:	20c00007 	ldb	r3,0(r4)
 180306c:	00800e44 	movi	r2,57
 1803070:	1880081e 	bne	r3,r2,1803094 <_dtoa_r+0x710>
 1803074:	d8800517 	ldw	r2,20(sp)
 1803078:	113ffa1e 	bne	r2,r4,1803064 <_dtoa_r+0x6e0>
 180307c:	d8c00417 	ldw	r3,16(sp)
 1803080:	d9800517 	ldw	r6,20(sp)
 1803084:	00800c04 	movi	r2,48
 1803088:	18c00044 	addi	r3,r3,1
 180308c:	d8c00415 	stw	r3,16(sp)
 1803090:	30800005 	stb	r2,0(r6)
 1803094:	20800003 	ldbu	r2,0(r4)
 1803098:	d8c00417 	ldw	r3,16(sp)
 180309c:	27000044 	addi	fp,r4,1
 18030a0:	10800044 	addi	r2,r2,1
 18030a4:	d8c00d15 	stw	r3,52(sp)
 18030a8:	20800005 	stb	r2,0(r4)
 18030ac:	d9001617 	ldw	r4,88(sp)
 18030b0:	d9400717 	ldw	r5,28(sp)
 18030b4:	1805b180 	call	1805b18 <_Bfree>
 18030b8:	e0000005 	stb	zero,0(fp)
 18030bc:	d9800d17 	ldw	r6,52(sp)
 18030c0:	d8c02717 	ldw	r3,156(sp)
 18030c4:	d9002917 	ldw	r4,164(sp)
 18030c8:	30800044 	addi	r2,r6,1
 18030cc:	18800015 	stw	r2,0(r3)
 18030d0:	20029c26 	beq	r4,zero,1803b44 <_dtoa_r+0x11c0>
 18030d4:	d8c00517 	ldw	r3,20(sp)
 18030d8:	27000015 	stw	fp,0(r4)
 18030dc:	003e5d06 	br	1802a54 <_dtoa_r+0xd0>
 18030e0:	d9800d17 	ldw	r6,52(sp)
 18030e4:	00c06074 	movhi	r3,385
 18030e8:	18c25004 	addi	r3,r3,2368
 18030ec:	d9001217 	ldw	r4,72(sp)
 18030f0:	300490fa 	slli	r2,r6,3
 18030f4:	d9401317 	ldw	r5,76(sp)
 18030f8:	10c5883a 	add	r2,r2,r3
 18030fc:	12000017 	ldw	r8,0(r2)
 1803100:	12400117 	ldw	r9,4(r2)
 1803104:	400d883a 	mov	r6,r8
 1803108:	480f883a 	mov	r7,r9
 180310c:	18091480 	call	1809148 <__ltdf2>
 1803110:	1000030e 	bge	r2,zero,1803120 <_dtoa_r+0x79c>
 1803114:	d8800d17 	ldw	r2,52(sp)
 1803118:	10bfffc4 	addi	r2,r2,-1
 180311c:	d8800d15 	stw	r2,52(sp)
 1803120:	d8000c15 	stw	zero,48(sp)
 1803124:	003ea806 	br	1802bc8 <_dtoa_r+0x244>
 1803128:	d9000b17 	ldw	r4,44(sp)
 180312c:	202cc03a 	cmpne	r22,r4,zero
 1803130:	b000c71e 	bne	r22,zero,1803450 <_dtoa_r+0xacc>
 1803134:	dc001117 	ldw	r16,68(sp)
 1803138:	dc801017 	ldw	r18,64(sp)
 180313c:	0027883a 	mov	r19,zero
 1803140:	04000b0e 	bge	zero,r16,1803170 <_dtoa_r+0x7ec>
 1803144:	d8c00a17 	ldw	r3,40(sp)
 1803148:	00c0090e 	bge	zero,r3,1803170 <_dtoa_r+0x7ec>
 180314c:	8005883a 	mov	r2,r16
 1803150:	1c011316 	blt	r3,r16,18035a0 <_dtoa_r+0xc1c>
 1803154:	d9000a17 	ldw	r4,40(sp)
 1803158:	d9801117 	ldw	r6,68(sp)
 180315c:	80a1c83a 	sub	r16,r16,r2
 1803160:	2089c83a 	sub	r4,r4,r2
 1803164:	308dc83a 	sub	r6,r6,r2
 1803168:	d9000a15 	stw	r4,40(sp)
 180316c:	d9801115 	stw	r6,68(sp)
 1803170:	d8801017 	ldw	r2,64(sp)
 1803174:	0080150e 	bge	zero,r2,18031cc <_dtoa_r+0x848>
 1803178:	d8c00b17 	ldw	r3,44(sp)
 180317c:	1805003a 	cmpeq	r2,r3,zero
 1803180:	1001c91e 	bne	r2,zero,18038a8 <_dtoa_r+0xf24>
 1803184:	04800e0e 	bge	zero,r18,18031c0 <_dtoa_r+0x83c>
 1803188:	d9001617 	ldw	r4,88(sp)
 180318c:	980b883a 	mov	r5,r19
 1803190:	900d883a 	mov	r6,r18
 1803194:	18068cc0 	call	18068cc <__pow5mult>
 1803198:	d9001617 	ldw	r4,88(sp)
 180319c:	d9800717 	ldw	r6,28(sp)
 18031a0:	100b883a 	mov	r5,r2
 18031a4:	1027883a 	mov	r19,r2
 18031a8:	18065a80 	call	18065a8 <__multiply>
 18031ac:	d9001617 	ldw	r4,88(sp)
 18031b0:	d9400717 	ldw	r5,28(sp)
 18031b4:	1023883a 	mov	r17,r2
 18031b8:	1805b180 	call	1805b18 <_Bfree>
 18031bc:	dc400715 	stw	r17,28(sp)
 18031c0:	d9001017 	ldw	r4,64(sp)
 18031c4:	248dc83a 	sub	r6,r4,r18
 18031c8:	30010e1e 	bne	r6,zero,1803604 <_dtoa_r+0xc80>
 18031cc:	d9001617 	ldw	r4,88(sp)
 18031d0:	04400044 	movi	r17,1
 18031d4:	880b883a 	mov	r5,r17
 18031d8:	18067900 	call	1806790 <__i2b>
 18031dc:	d9800917 	ldw	r6,36(sp)
 18031e0:	1025883a 	mov	r18,r2
 18031e4:	0180040e 	bge	zero,r6,18031f8 <_dtoa_r+0x874>
 18031e8:	d9001617 	ldw	r4,88(sp)
 18031ec:	100b883a 	mov	r5,r2
 18031f0:	18068cc0 	call	18068cc <__pow5mult>
 18031f4:	1025883a 	mov	r18,r2
 18031f8:	d8801717 	ldw	r2,92(sp)
 18031fc:	8880f30e 	bge	r17,r2,18035cc <_dtoa_r+0xc48>
 1803200:	0023883a 	mov	r17,zero
 1803204:	d9800917 	ldw	r6,36(sp)
 1803208:	30019e1e 	bne	r6,zero,1803884 <_dtoa_r+0xf00>
 180320c:	00c00044 	movi	r3,1
 1803210:	d9000a17 	ldw	r4,40(sp)
 1803214:	20c5883a 	add	r2,r4,r3
 1803218:	10c007cc 	andi	r3,r2,31
 180321c:	1800841e 	bne	r3,zero,1803430 <_dtoa_r+0xaac>
 1803220:	00800704 	movi	r2,28
 1803224:	d9000a17 	ldw	r4,40(sp)
 1803228:	d9801117 	ldw	r6,68(sp)
 180322c:	80a1883a 	add	r16,r16,r2
 1803230:	2089883a 	add	r4,r4,r2
 1803234:	308d883a 	add	r6,r6,r2
 1803238:	d9000a15 	stw	r4,40(sp)
 180323c:	d9801115 	stw	r6,68(sp)
 1803240:	d8801117 	ldw	r2,68(sp)
 1803244:	0080050e 	bge	zero,r2,180325c <_dtoa_r+0x8d8>
 1803248:	d9400717 	ldw	r5,28(sp)
 180324c:	d9001617 	ldw	r4,88(sp)
 1803250:	100d883a 	mov	r6,r2
 1803254:	180645c0 	call	180645c <__lshift>
 1803258:	d8800715 	stw	r2,28(sp)
 180325c:	d8c00a17 	ldw	r3,40(sp)
 1803260:	00c0050e 	bge	zero,r3,1803278 <_dtoa_r+0x8f4>
 1803264:	d9001617 	ldw	r4,88(sp)
 1803268:	900b883a 	mov	r5,r18
 180326c:	180d883a 	mov	r6,r3
 1803270:	180645c0 	call	180645c <__lshift>
 1803274:	1025883a 	mov	r18,r2
 1803278:	d9000c17 	ldw	r4,48(sp)
 180327c:	2005003a 	cmpeq	r2,r4,zero
 1803280:	10016f26 	beq	r2,zero,1803840 <_dtoa_r+0xebc>
 1803284:	d9000f17 	ldw	r4,60(sp)
 1803288:	0102170e 	bge	zero,r4,1803ae8 <_dtoa_r+0x1164>
 180328c:	d9800b17 	ldw	r6,44(sp)
 1803290:	3005003a 	cmpeq	r2,r6,zero
 1803294:	1000881e 	bne	r2,zero,18034b8 <_dtoa_r+0xb34>
 1803298:	0400050e 	bge	zero,r16,18032b0 <_dtoa_r+0x92c>
 180329c:	d9001617 	ldw	r4,88(sp)
 18032a0:	980b883a 	mov	r5,r19
 18032a4:	800d883a 	mov	r6,r16
 18032a8:	180645c0 	call	180645c <__lshift>
 18032ac:	1027883a 	mov	r19,r2
 18032b0:	8804c03a 	cmpne	r2,r17,zero
 18032b4:	1002541e 	bne	r2,zero,1803c08 <_dtoa_r+0x1284>
 18032b8:	980b883a 	mov	r5,r19
 18032bc:	dd800517 	ldw	r22,20(sp)
 18032c0:	dcc00615 	stw	r19,24(sp)
 18032c4:	a700004c 	andi	fp,r20,1
 18032c8:	2827883a 	mov	r19,r5
 18032cc:	d9000717 	ldw	r4,28(sp)
 18032d0:	900b883a 	mov	r5,r18
 18032d4:	180276c0 	call	180276c <quorem>
 18032d8:	d9000717 	ldw	r4,28(sp)
 18032dc:	d9400617 	ldw	r5,24(sp)
 18032e0:	1023883a 	mov	r17,r2
 18032e4:	8dc00c04 	addi	r23,r17,48
 18032e8:	1805c740 	call	1805c74 <__mcmp>
 18032ec:	d9001617 	ldw	r4,88(sp)
 18032f0:	900b883a 	mov	r5,r18
 18032f4:	980d883a 	mov	r6,r19
 18032f8:	1029883a 	mov	r20,r2
 18032fc:	18062d00 	call	18062d0 <__mdiff>
 1803300:	102b883a 	mov	r21,r2
 1803304:	10800317 	ldw	r2,12(r2)
 1803308:	1001281e 	bne	r2,zero,18037ac <_dtoa_r+0xe28>
 180330c:	d9000717 	ldw	r4,28(sp)
 1803310:	a80b883a 	mov	r5,r21
 1803314:	1805c740 	call	1805c74 <__mcmp>
 1803318:	d9001617 	ldw	r4,88(sp)
 180331c:	1021883a 	mov	r16,r2
 1803320:	a80b883a 	mov	r5,r21
 1803324:	1805b180 	call	1805b18 <_Bfree>
 1803328:	8000041e 	bne	r16,zero,180333c <_dtoa_r+0x9b8>
 180332c:	d8801717 	ldw	r2,92(sp)
 1803330:	1000021e 	bne	r2,zero,180333c <_dtoa_r+0x9b8>
 1803334:	e004c03a 	cmpne	r2,fp,zero
 1803338:	10011726 	beq	r2,zero,1803798 <_dtoa_r+0xe14>
 180333c:	a0010616 	blt	r20,zero,1803758 <_dtoa_r+0xdd4>
 1803340:	a000041e 	bne	r20,zero,1803354 <_dtoa_r+0x9d0>
 1803344:	d8c01717 	ldw	r3,92(sp)
 1803348:	1800021e 	bne	r3,zero,1803354 <_dtoa_r+0x9d0>
 180334c:	e004c03a 	cmpne	r2,fp,zero
 1803350:	10010126 	beq	r2,zero,1803758 <_dtoa_r+0xdd4>
 1803354:	04023d16 	blt	zero,r16,1803c4c <_dtoa_r+0x12c8>
 1803358:	b5c00005 	stb	r23,0(r22)
 180335c:	d9800517 	ldw	r6,20(sp)
 1803360:	d9000f17 	ldw	r4,60(sp)
 1803364:	b5800044 	addi	r22,r22,1
 1803368:	3105883a 	add	r2,r6,r4
 180336c:	b0806526 	beq	r22,r2,1803504 <_dtoa_r+0xb80>
 1803370:	d9400717 	ldw	r5,28(sp)
 1803374:	d9001617 	ldw	r4,88(sp)
 1803378:	01800284 	movi	r6,10
 180337c:	000f883a 	mov	r7,zero
 1803380:	18067cc0 	call	18067cc <__multadd>
 1803384:	d8800715 	stw	r2,28(sp)
 1803388:	d8800617 	ldw	r2,24(sp)
 180338c:	14c10c26 	beq	r2,r19,18037c0 <_dtoa_r+0xe3c>
 1803390:	d9400617 	ldw	r5,24(sp)
 1803394:	d9001617 	ldw	r4,88(sp)
 1803398:	01800284 	movi	r6,10
 180339c:	000f883a 	mov	r7,zero
 18033a0:	18067cc0 	call	18067cc <__multadd>
 18033a4:	d9001617 	ldw	r4,88(sp)
 18033a8:	980b883a 	mov	r5,r19
 18033ac:	01800284 	movi	r6,10
 18033b0:	000f883a 	mov	r7,zero
 18033b4:	d8800615 	stw	r2,24(sp)
 18033b8:	18067cc0 	call	18067cc <__multadd>
 18033bc:	1027883a 	mov	r19,r2
 18033c0:	003fc206 	br	18032cc <_dtoa_r+0x948>
 18033c4:	2445c83a 	sub	r2,r4,r17
 18033c8:	a088983a 	sll	r4,r20,r2
 18033cc:	003e4b06 	br	1802cfc <_dtoa_r+0x378>
 18033d0:	01bfffc4 	movi	r6,-1
 18033d4:	00800044 	movi	r2,1
 18033d8:	d9800e15 	stw	r6,56(sp)
 18033dc:	d9800f15 	stw	r6,60(sp)
 18033e0:	d8800b15 	stw	r2,44(sp)
 18033e4:	d8c01617 	ldw	r3,88(sp)
 18033e8:	008005c4 	movi	r2,23
 18033ec:	18001115 	stw	zero,68(r3)
 18033f0:	1580082e 	bgeu	r2,r22,1803414 <_dtoa_r+0xa90>
 18033f4:	00c00104 	movi	r3,4
 18033f8:	0009883a 	mov	r4,zero
 18033fc:	18c7883a 	add	r3,r3,r3
 1803400:	18800504 	addi	r2,r3,20
 1803404:	21000044 	addi	r4,r4,1
 1803408:	b0bffc2e 	bgeu	r22,r2,18033fc <_dtoa_r+0xa78>
 180340c:	d9801617 	ldw	r6,88(sp)
 1803410:	31001115 	stw	r4,68(r6)
 1803414:	dc000f17 	ldw	r16,60(sp)
 1803418:	003e4b06 	br	1802d48 <_dtoa_r+0x3c4>
 180341c:	d9801717 	ldw	r6,92(sp)
 1803420:	0023883a 	mov	r17,zero
 1803424:	31bfff04 	addi	r6,r6,-4
 1803428:	d9801715 	stw	r6,92(sp)
 180342c:	003df806 	br	1802c10 <_dtoa_r+0x28c>
 1803430:	00800804 	movi	r2,32
 1803434:	10c9c83a 	sub	r4,r2,r3
 1803438:	00c00104 	movi	r3,4
 180343c:	19005a16 	blt	r3,r4,18035a8 <_dtoa_r+0xc24>
 1803440:	008000c4 	movi	r2,3
 1803444:	113f7e16 	blt	r2,r4,1803240 <_dtoa_r+0x8bc>
 1803448:	20800704 	addi	r2,r4,28
 180344c:	003f7506 	br	1803224 <_dtoa_r+0x8a0>
 1803450:	d9801717 	ldw	r6,92(sp)
 1803454:	00800044 	movi	r2,1
 1803458:	1180a10e 	bge	r2,r6,18036e0 <_dtoa_r+0xd5c>
 180345c:	d9800f17 	ldw	r6,60(sp)
 1803460:	d8c01017 	ldw	r3,64(sp)
 1803464:	30bfffc4 	addi	r2,r6,-1
 1803468:	1881c616 	blt	r3,r2,1803b84 <_dtoa_r+0x1200>
 180346c:	18a5c83a 	sub	r18,r3,r2
 1803470:	d8800f17 	ldw	r2,60(sp)
 1803474:	10026216 	blt	r2,zero,1803e00 <_dtoa_r+0x147c>
 1803478:	dc001117 	ldw	r16,68(sp)
 180347c:	1007883a 	mov	r3,r2
 1803480:	d9800a17 	ldw	r6,40(sp)
 1803484:	d8801117 	ldw	r2,68(sp)
 1803488:	d9001617 	ldw	r4,88(sp)
 180348c:	30cd883a 	add	r6,r6,r3
 1803490:	10c5883a 	add	r2,r2,r3
 1803494:	01400044 	movi	r5,1
 1803498:	d9800a15 	stw	r6,40(sp)
 180349c:	d8801115 	stw	r2,68(sp)
 18034a0:	18067900 	call	1806790 <__i2b>
 18034a4:	1027883a 	mov	r19,r2
 18034a8:	003f2506 	br	1803140 <_dtoa_r+0x7bc>
 18034ac:	00c06074 	movhi	r3,385
 18034b0:	18c23204 	addi	r3,r3,2248
 18034b4:	003d6706 	br	1802a54 <_dtoa_r+0xd0>
 18034b8:	dd800517 	ldw	r22,20(sp)
 18034bc:	04000044 	movi	r16,1
 18034c0:	00000706 	br	18034e0 <_dtoa_r+0xb5c>
 18034c4:	d9400717 	ldw	r5,28(sp)
 18034c8:	d9001617 	ldw	r4,88(sp)
 18034cc:	01800284 	movi	r6,10
 18034d0:	000f883a 	mov	r7,zero
 18034d4:	18067cc0 	call	18067cc <__multadd>
 18034d8:	d8800715 	stw	r2,28(sp)
 18034dc:	84000044 	addi	r16,r16,1
 18034e0:	d9000717 	ldw	r4,28(sp)
 18034e4:	900b883a 	mov	r5,r18
 18034e8:	180276c0 	call	180276c <quorem>
 18034ec:	15c00c04 	addi	r23,r2,48
 18034f0:	b5c00005 	stb	r23,0(r22)
 18034f4:	d8c00f17 	ldw	r3,60(sp)
 18034f8:	b5800044 	addi	r22,r22,1
 18034fc:	80fff116 	blt	r16,r3,18034c4 <_dtoa_r+0xb40>
 1803500:	d8000615 	stw	zero,24(sp)
 1803504:	d9400717 	ldw	r5,28(sp)
 1803508:	d9001617 	ldw	r4,88(sp)
 180350c:	01800044 	movi	r6,1
 1803510:	180645c0 	call	180645c <__lshift>
 1803514:	1009883a 	mov	r4,r2
 1803518:	900b883a 	mov	r5,r18
 180351c:	d8800715 	stw	r2,28(sp)
 1803520:	1805c740 	call	1805c74 <__mcmp>
 1803524:	00803c0e 	bge	zero,r2,1803618 <_dtoa_r+0xc94>
 1803528:	b009883a 	mov	r4,r22
 180352c:	213fffc4 	addi	r4,r4,-1
 1803530:	21400003 	ldbu	r5,0(r4)
 1803534:	00800e44 	movi	r2,57
 1803538:	28c03fcc 	andi	r3,r5,255
 180353c:	18c0201c 	xori	r3,r3,128
 1803540:	18ffe004 	addi	r3,r3,-128
 1803544:	1881981e 	bne	r3,r2,1803ba8 <_dtoa_r+0x1224>
 1803548:	d9800517 	ldw	r6,20(sp)
 180354c:	21bff71e 	bne	r4,r6,180352c <_dtoa_r+0xba8>
 1803550:	d8800d17 	ldw	r2,52(sp)
 1803554:	37000044 	addi	fp,r6,1
 1803558:	10800044 	addi	r2,r2,1
 180355c:	d8800d15 	stw	r2,52(sp)
 1803560:	00800c44 	movi	r2,49
 1803564:	30800005 	stb	r2,0(r6)
 1803568:	d9001617 	ldw	r4,88(sp)
 180356c:	900b883a 	mov	r5,r18
 1803570:	1805b180 	call	1805b18 <_Bfree>
 1803574:	983ecd26 	beq	r19,zero,18030ac <_dtoa_r+0x728>
 1803578:	d8c00617 	ldw	r3,24(sp)
 180357c:	18000426 	beq	r3,zero,1803590 <_dtoa_r+0xc0c>
 1803580:	1cc00326 	beq	r3,r19,1803590 <_dtoa_r+0xc0c>
 1803584:	d9001617 	ldw	r4,88(sp)
 1803588:	180b883a 	mov	r5,r3
 180358c:	1805b180 	call	1805b18 <_Bfree>
 1803590:	d9001617 	ldw	r4,88(sp)
 1803594:	980b883a 	mov	r5,r19
 1803598:	1805b180 	call	1805b18 <_Bfree>
 180359c:	003ec306 	br	18030ac <_dtoa_r+0x728>
 18035a0:	1805883a 	mov	r2,r3
 18035a4:	003eeb06 	br	1803154 <_dtoa_r+0x7d0>
 18035a8:	d9800a17 	ldw	r6,40(sp)
 18035ac:	d8c01117 	ldw	r3,68(sp)
 18035b0:	20bfff04 	addi	r2,r4,-4
 18035b4:	308d883a 	add	r6,r6,r2
 18035b8:	1887883a 	add	r3,r3,r2
 18035bc:	80a1883a 	add	r16,r16,r2
 18035c0:	d9800a15 	stw	r6,40(sp)
 18035c4:	d8c01115 	stw	r3,68(sp)
 18035c8:	003f1d06 	br	1803240 <_dtoa_r+0x8bc>
 18035cc:	a03f0c1e 	bne	r20,zero,1803200 <_dtoa_r+0x87c>
 18035d0:	00800434 	movhi	r2,16
 18035d4:	10bfffc4 	addi	r2,r2,-1
 18035d8:	a884703a 	and	r2,r21,r2
 18035dc:	103f081e 	bne	r2,zero,1803200 <_dtoa_r+0x87c>
 18035e0:	a89ffc2c 	andhi	r2,r21,32752
 18035e4:	103f0626 	beq	r2,zero,1803200 <_dtoa_r+0x87c>
 18035e8:	d8c01117 	ldw	r3,68(sp)
 18035ec:	d9000a17 	ldw	r4,40(sp)
 18035f0:	18c00044 	addi	r3,r3,1
 18035f4:	21000044 	addi	r4,r4,1
 18035f8:	d8c01115 	stw	r3,68(sp)
 18035fc:	d9000a15 	stw	r4,40(sp)
 1803600:	003f0006 	br	1803204 <_dtoa_r+0x880>
 1803604:	d9400717 	ldw	r5,28(sp)
 1803608:	d9001617 	ldw	r4,88(sp)
 180360c:	18068cc0 	call	18068cc <__pow5mult>
 1803610:	d8800715 	stw	r2,28(sp)
 1803614:	003eed06 	br	18031cc <_dtoa_r+0x848>
 1803618:	1000021e 	bne	r2,zero,1803624 <_dtoa_r+0xca0>
 180361c:	b880004c 	andi	r2,r23,1
 1803620:	103fc11e 	bne	r2,zero,1803528 <_dtoa_r+0xba4>
 1803624:	b5bfffc4 	addi	r22,r22,-1
 1803628:	b0c00007 	ldb	r3,0(r22)
 180362c:	00800c04 	movi	r2,48
 1803630:	18bffc26 	beq	r3,r2,1803624 <_dtoa_r+0xca0>
 1803634:	b7000044 	addi	fp,r22,1
 1803638:	003fcb06 	br	1803568 <_dtoa_r+0xbe4>
 180363c:	d9800d17 	ldw	r6,52(sp)
 1803640:	018fc83a 	sub	r7,zero,r6
 1803644:	3801f726 	beq	r7,zero,1803e24 <_dtoa_r+0x14a0>
 1803648:	398003cc 	andi	r6,r7,15
 180364c:	300c90fa 	slli	r6,r6,3
 1803650:	01406074 	movhi	r5,385
 1803654:	29425004 	addi	r5,r5,2368
 1803658:	d9001217 	ldw	r4,72(sp)
 180365c:	314d883a 	add	r6,r6,r5
 1803660:	30c00117 	ldw	r3,4(r6)
 1803664:	30800017 	ldw	r2,0(r6)
 1803668:	d9401317 	ldw	r5,76(sp)
 180366c:	3821d13a 	srai	r16,r7,4
 1803670:	100d883a 	mov	r6,r2
 1803674:	180f883a 	mov	r7,r3
 1803678:	180890c0 	call	180890c <__muldf3>
 180367c:	1011883a 	mov	r8,r2
 1803680:	1813883a 	mov	r9,r3
 1803684:	1029883a 	mov	r20,r2
 1803688:	182b883a 	mov	r21,r3
 180368c:	8001e526 	beq	r16,zero,1803e24 <_dtoa_r+0x14a0>
 1803690:	05800084 	movi	r22,2
 1803694:	04406074 	movhi	r17,385
 1803698:	8c428204 	addi	r17,r17,2568
 180369c:	8080004c 	andi	r2,r16,1
 18036a0:	1005003a 	cmpeq	r2,r2,zero
 18036a4:	1000081e 	bne	r2,zero,18036c8 <_dtoa_r+0xd44>
 18036a8:	89800017 	ldw	r6,0(r17)
 18036ac:	89c00117 	ldw	r7,4(r17)
 18036b0:	480b883a 	mov	r5,r9
 18036b4:	4009883a 	mov	r4,r8
 18036b8:	180890c0 	call	180890c <__muldf3>
 18036bc:	1011883a 	mov	r8,r2
 18036c0:	b5800044 	addi	r22,r22,1
 18036c4:	1813883a 	mov	r9,r3
 18036c8:	8021d07a 	srai	r16,r16,1
 18036cc:	8c400204 	addi	r17,r17,8
 18036d0:	803ff21e 	bne	r16,zero,180369c <_dtoa_r+0xd18>
 18036d4:	4029883a 	mov	r20,r8
 18036d8:	482b883a 	mov	r21,r9
 18036dc:	003dca06 	br	1802e08 <_dtoa_r+0x484>
 18036e0:	d9000817 	ldw	r4,32(sp)
 18036e4:	2005003a 	cmpeq	r2,r4,zero
 18036e8:	1001f61e 	bne	r2,zero,1803ec4 <_dtoa_r+0x1540>
 18036ec:	dc001117 	ldw	r16,68(sp)
 18036f0:	dc801017 	ldw	r18,64(sp)
 18036f4:	18c10cc4 	addi	r3,r3,1075
 18036f8:	003f6106 	br	1803480 <_dtoa_r+0xafc>
 18036fc:	d8000b15 	stw	zero,44(sp)
 1803700:	d9802617 	ldw	r6,152(sp)
 1803704:	d8c00d17 	ldw	r3,52(sp)
 1803708:	30800044 	addi	r2,r6,1
 180370c:	18ad883a 	add	r22,r3,r2
 1803710:	b13fffc4 	addi	r4,r22,-1
 1803714:	d9000e15 	stw	r4,56(sp)
 1803718:	0581f60e 	bge	zero,r22,1803ef4 <_dtoa_r+0x1570>
 180371c:	dd800f15 	stw	r22,60(sp)
 1803720:	003f3006 	br	18033e4 <_dtoa_r+0xa60>
 1803724:	d8000b15 	stw	zero,44(sp)
 1803728:	d9002617 	ldw	r4,152(sp)
 180372c:	0101eb0e 	bge	zero,r4,1803edc <_dtoa_r+0x1558>
 1803730:	202d883a 	mov	r22,r4
 1803734:	d9000e15 	stw	r4,56(sp)
 1803738:	d9000f15 	stw	r4,60(sp)
 180373c:	003f2906 	br	18033e4 <_dtoa_r+0xa60>
 1803740:	01800044 	movi	r6,1
 1803744:	d9800b15 	stw	r6,44(sp)
 1803748:	003ff706 	br	1803728 <_dtoa_r+0xda4>
 180374c:	01000044 	movi	r4,1
 1803750:	d9000b15 	stw	r4,44(sp)
 1803754:	003fea06 	br	1803700 <_dtoa_r+0xd7c>
 1803758:	04000c0e 	bge	zero,r16,180378c <_dtoa_r+0xe08>
 180375c:	d9400717 	ldw	r5,28(sp)
 1803760:	d9001617 	ldw	r4,88(sp)
 1803764:	01800044 	movi	r6,1
 1803768:	180645c0 	call	180645c <__lshift>
 180376c:	1009883a 	mov	r4,r2
 1803770:	900b883a 	mov	r5,r18
 1803774:	d8800715 	stw	r2,28(sp)
 1803778:	1805c740 	call	1805c74 <__mcmp>
 180377c:	0081e00e 	bge	zero,r2,1803f00 <_dtoa_r+0x157c>
 1803780:	bdc00044 	addi	r23,r23,1
 1803784:	00800e84 	movi	r2,58
 1803788:	b881a226 	beq	r23,r2,1803e14 <_dtoa_r+0x1490>
 180378c:	b7000044 	addi	fp,r22,1
 1803790:	b5c00005 	stb	r23,0(r22)
 1803794:	003f7406 	br	1803568 <_dtoa_r+0xbe4>
 1803798:	00800e44 	movi	r2,57
 180379c:	b8819d26 	beq	r23,r2,1803e14 <_dtoa_r+0x1490>
 18037a0:	053ffa0e 	bge	zero,r20,180378c <_dtoa_r+0xe08>
 18037a4:	8dc00c44 	addi	r23,r17,49
 18037a8:	003ff806 	br	180378c <_dtoa_r+0xe08>
 18037ac:	d9001617 	ldw	r4,88(sp)
 18037b0:	a80b883a 	mov	r5,r21
 18037b4:	04000044 	movi	r16,1
 18037b8:	1805b180 	call	1805b18 <_Bfree>
 18037bc:	003edf06 	br	180333c <_dtoa_r+0x9b8>
 18037c0:	d9001617 	ldw	r4,88(sp)
 18037c4:	980b883a 	mov	r5,r19
 18037c8:	01800284 	movi	r6,10
 18037cc:	000f883a 	mov	r7,zero
 18037d0:	18067cc0 	call	18067cc <__multadd>
 18037d4:	1027883a 	mov	r19,r2
 18037d8:	d8800615 	stw	r2,24(sp)
 18037dc:	003ebb06 	br	18032cc <_dtoa_r+0x948>
 18037e0:	d9801117 	ldw	r6,68(sp)
 18037e4:	d8800d17 	ldw	r2,52(sp)
 18037e8:	d8000915 	stw	zero,36(sp)
 18037ec:	308dc83a 	sub	r6,r6,r2
 18037f0:	0087c83a 	sub	r3,zero,r2
 18037f4:	d9801115 	stw	r6,68(sp)
 18037f8:	d8c01015 	stw	r3,64(sp)
 18037fc:	003cfe06 	br	1802bf8 <_dtoa_r+0x274>
 1803800:	018dc83a 	sub	r6,zero,r6
 1803804:	d9801115 	stw	r6,68(sp)
 1803808:	d8000a15 	stw	zero,40(sp)
 180380c:	003cf306 	br	1802bdc <_dtoa_r+0x258>
 1803810:	d9000d17 	ldw	r4,52(sp)
 1803814:	18091d00 	call	18091d0 <__floatsidf>
 1803818:	880b883a 	mov	r5,r17
 180381c:	8009883a 	mov	r4,r16
 1803820:	180f883a 	mov	r7,r3
 1803824:	100d883a 	mov	r6,r2
 1803828:	1808fb00 	call	1808fb0 <__nedf2>
 180382c:	103ce126 	beq	r2,zero,1802bb4 <_dtoa_r+0x230>
 1803830:	d9800d17 	ldw	r6,52(sp)
 1803834:	31bfffc4 	addi	r6,r6,-1
 1803838:	d9800d15 	stw	r6,52(sp)
 180383c:	003cdd06 	br	1802bb4 <_dtoa_r+0x230>
 1803840:	d9000717 	ldw	r4,28(sp)
 1803844:	900b883a 	mov	r5,r18
 1803848:	1805c740 	call	1805c74 <__mcmp>
 180384c:	103e8d0e 	bge	r2,zero,1803284 <_dtoa_r+0x900>
 1803850:	d9400717 	ldw	r5,28(sp)
 1803854:	d9001617 	ldw	r4,88(sp)
 1803858:	01800284 	movi	r6,10
 180385c:	000f883a 	mov	r7,zero
 1803860:	18067cc0 	call	18067cc <__multadd>
 1803864:	d9800d17 	ldw	r6,52(sp)
 1803868:	d8800715 	stw	r2,28(sp)
 180386c:	31bfffc4 	addi	r6,r6,-1
 1803870:	d9800d15 	stw	r6,52(sp)
 1803874:	b001a71e 	bne	r22,zero,1803f14 <_dtoa_r+0x1590>
 1803878:	d8800e17 	ldw	r2,56(sp)
 180387c:	d8800f15 	stw	r2,60(sp)
 1803880:	003e8006 	br	1803284 <_dtoa_r+0x900>
 1803884:	90800417 	ldw	r2,16(r18)
 1803888:	1085883a 	add	r2,r2,r2
 180388c:	1085883a 	add	r2,r2,r2
 1803890:	1485883a 	add	r2,r2,r18
 1803894:	11000417 	ldw	r4,16(r2)
 1803898:	1805b400 	call	1805b40 <__hi0bits>
 180389c:	00c00804 	movi	r3,32
 18038a0:	1887c83a 	sub	r3,r3,r2
 18038a4:	003e5a06 	br	1803210 <_dtoa_r+0x88c>
 18038a8:	d9400717 	ldw	r5,28(sp)
 18038ac:	d9801017 	ldw	r6,64(sp)
 18038b0:	d9001617 	ldw	r4,88(sp)
 18038b4:	18068cc0 	call	18068cc <__pow5mult>
 18038b8:	d8800715 	stw	r2,28(sp)
 18038bc:	003e4306 	br	18031cc <_dtoa_r+0x848>
 18038c0:	d9800f17 	ldw	r6,60(sp)
 18038c4:	d8800d17 	ldw	r2,52(sp)
 18038c8:	d9800315 	stw	r6,12(sp)
 18038cc:	d8800415 	stw	r2,16(sp)
 18038d0:	d8c00b17 	ldw	r3,44(sp)
 18038d4:	1805003a 	cmpeq	r2,r3,zero
 18038d8:	1000e21e 	bne	r2,zero,1803c64 <_dtoa_r+0x12e0>
 18038dc:	d9000317 	ldw	r4,12(sp)
 18038e0:	0005883a 	mov	r2,zero
 18038e4:	00cff834 	movhi	r3,16352
 18038e8:	200c90fa 	slli	r6,r4,3
 18038ec:	01006074 	movhi	r4,385
 18038f0:	21025004 	addi	r4,r4,2368
 18038f4:	180b883a 	mov	r5,r3
 18038f8:	310d883a 	add	r6,r6,r4
 18038fc:	327fff17 	ldw	r9,-4(r6)
 1803900:	323ffe17 	ldw	r8,-8(r6)
 1803904:	1009883a 	mov	r4,r2
 1803908:	480f883a 	mov	r7,r9
 180390c:	400d883a 	mov	r6,r8
 1803910:	1808cd00 	call	1808cd0 <__divdf3>
 1803914:	180b883a 	mov	r5,r3
 1803918:	b00d883a 	mov	r6,r22
 180391c:	b80f883a 	mov	r7,r23
 1803920:	1009883a 	mov	r4,r2
 1803924:	18088180 	call	1808818 <__subdf3>
 1803928:	a80b883a 	mov	r5,r21
 180392c:	a009883a 	mov	r4,r20
 1803930:	d8c01915 	stw	r3,100(sp)
 1803934:	d8801815 	stw	r2,96(sp)
 1803938:	18092c80 	call	18092c8 <__fixdfsi>
 180393c:	1009883a 	mov	r4,r2
 1803940:	1027883a 	mov	r19,r2
 1803944:	18091d00 	call	18091d0 <__floatsidf>
 1803948:	a80b883a 	mov	r5,r21
 180394c:	a009883a 	mov	r4,r20
 1803950:	180f883a 	mov	r7,r3
 1803954:	100d883a 	mov	r6,r2
 1803958:	18088180 	call	1808818 <__subdf3>
 180395c:	d9801817 	ldw	r6,96(sp)
 1803960:	1823883a 	mov	r17,r3
 1803964:	d8801415 	stw	r2,80(sp)
 1803968:	302d883a 	mov	r22,r6
 180396c:	d9800517 	ldw	r6,20(sp)
 1803970:	9cc00c04 	addi	r19,r19,48
 1803974:	dc401515 	stw	r17,84(sp)
 1803978:	d8c01917 	ldw	r3,100(sp)
 180397c:	34c00005 	stb	r19,0(r6)
 1803980:	d8800517 	ldw	r2,20(sp)
 1803984:	d9401917 	ldw	r5,100(sp)
 1803988:	d9801417 	ldw	r6,80(sp)
 180398c:	b009883a 	mov	r4,r22
 1803990:	880f883a 	mov	r7,r17
 1803994:	182f883a 	mov	r23,r3
 1803998:	17000044 	addi	fp,r2,1
 180399c:	18090380 	call	1809038 <__gtdf2>
 18039a0:	00804e16 	blt	zero,r2,1803adc <_dtoa_r+0x1158>
 18039a4:	d9801417 	ldw	r6,80(sp)
 18039a8:	0005883a 	mov	r2,zero
 18039ac:	00cffc34 	movhi	r3,16368
 18039b0:	180b883a 	mov	r5,r3
 18039b4:	880f883a 	mov	r7,r17
 18039b8:	1009883a 	mov	r4,r2
 18039bc:	18088180 	call	1808818 <__subdf3>
 18039c0:	d9401917 	ldw	r5,100(sp)
 18039c4:	180f883a 	mov	r7,r3
 18039c8:	b009883a 	mov	r4,r22
 18039cc:	100d883a 	mov	r6,r2
 18039d0:	18090380 	call	1809038 <__gtdf2>
 18039d4:	00bda216 	blt	zero,r2,1803060 <_dtoa_r+0x6dc>
 18039d8:	d8c00317 	ldw	r3,12(sp)
 18039dc:	00800044 	movi	r2,1
 18039e0:	10c01216 	blt	r2,r3,1803a2c <_dtoa_r+0x10a8>
 18039e4:	003d4506 	br	1802efc <_dtoa_r+0x578>
 18039e8:	d9801417 	ldw	r6,80(sp)
 18039ec:	0005883a 	mov	r2,zero
 18039f0:	00cffc34 	movhi	r3,16368
 18039f4:	180b883a 	mov	r5,r3
 18039f8:	880f883a 	mov	r7,r17
 18039fc:	1009883a 	mov	r4,r2
 1803a00:	18088180 	call	1808818 <__subdf3>
 1803a04:	d9c01b17 	ldw	r7,108(sp)
 1803a08:	180b883a 	mov	r5,r3
 1803a0c:	1009883a 	mov	r4,r2
 1803a10:	b00d883a 	mov	r6,r22
 1803a14:	18091480 	call	1809148 <__ltdf2>
 1803a18:	103d9116 	blt	r2,zero,1803060 <_dtoa_r+0x6dc>
 1803a1c:	d9800517 	ldw	r6,20(sp)
 1803a20:	d9000317 	ldw	r4,12(sp)
 1803a24:	3105883a 	add	r2,r6,r4
 1803a28:	e0bd3426 	beq	fp,r2,1802efc <_dtoa_r+0x578>
 1803a2c:	04500934 	movhi	r17,16420
 1803a30:	0021883a 	mov	r16,zero
 1803a34:	b80b883a 	mov	r5,r23
 1803a38:	b009883a 	mov	r4,r22
 1803a3c:	800d883a 	mov	r6,r16
 1803a40:	880f883a 	mov	r7,r17
 1803a44:	180890c0 	call	180890c <__muldf3>
 1803a48:	d9401517 	ldw	r5,84(sp)
 1803a4c:	d9001417 	ldw	r4,80(sp)
 1803a50:	880f883a 	mov	r7,r17
 1803a54:	000d883a 	mov	r6,zero
 1803a58:	d8801a15 	stw	r2,104(sp)
 1803a5c:	d8c01b15 	stw	r3,108(sp)
 1803a60:	180890c0 	call	180890c <__muldf3>
 1803a64:	180b883a 	mov	r5,r3
 1803a68:	1009883a 	mov	r4,r2
 1803a6c:	1823883a 	mov	r17,r3
 1803a70:	1021883a 	mov	r16,r2
 1803a74:	18092c80 	call	18092c8 <__fixdfsi>
 1803a78:	1009883a 	mov	r4,r2
 1803a7c:	102b883a 	mov	r21,r2
 1803a80:	18091d00 	call	18091d0 <__floatsidf>
 1803a84:	880b883a 	mov	r5,r17
 1803a88:	8009883a 	mov	r4,r16
 1803a8c:	180f883a 	mov	r7,r3
 1803a90:	100d883a 	mov	r6,r2
 1803a94:	18088180 	call	1808818 <__subdf3>
 1803a98:	1021883a 	mov	r16,r2
 1803a9c:	d9001b17 	ldw	r4,108(sp)
 1803aa0:	1823883a 	mov	r17,r3
 1803aa4:	dc001415 	stw	r16,80(sp)
 1803aa8:	ad400c04 	addi	r21,r21,48
 1803aac:	dc401515 	stw	r17,84(sp)
 1803ab0:	d8801a17 	ldw	r2,104(sp)
 1803ab4:	e5400005 	stb	r21,0(fp)
 1803ab8:	202f883a 	mov	r23,r4
 1803abc:	d9c01b17 	ldw	r7,108(sp)
 1803ac0:	d9001417 	ldw	r4,80(sp)
 1803ac4:	880b883a 	mov	r5,r17
 1803ac8:	100d883a 	mov	r6,r2
 1803acc:	102d883a 	mov	r22,r2
 1803ad0:	e7000044 	addi	fp,fp,1
 1803ad4:	18091480 	call	1809148 <__ltdf2>
 1803ad8:	103fc30e 	bge	r2,zero,18039e8 <_dtoa_r+0x1064>
 1803adc:	d9000417 	ldw	r4,16(sp)
 1803ae0:	d9000d15 	stw	r4,52(sp)
 1803ae4:	003d7106 	br	18030ac <_dtoa_r+0x728>
 1803ae8:	d9801717 	ldw	r6,92(sp)
 1803aec:	00800084 	movi	r2,2
 1803af0:	11bde60e 	bge	r2,r6,180328c <_dtoa_r+0x908>
 1803af4:	203cfb1e 	bne	r4,zero,1802ee4 <_dtoa_r+0x560>
 1803af8:	d9001617 	ldw	r4,88(sp)
 1803afc:	900b883a 	mov	r5,r18
 1803b00:	01800144 	movi	r6,5
 1803b04:	000f883a 	mov	r7,zero
 1803b08:	18067cc0 	call	18067cc <__multadd>
 1803b0c:	d9000717 	ldw	r4,28(sp)
 1803b10:	100b883a 	mov	r5,r2
 1803b14:	1025883a 	mov	r18,r2
 1803b18:	1805c740 	call	1805c74 <__mcmp>
 1803b1c:	00bcf10e 	bge	zero,r2,1802ee4 <_dtoa_r+0x560>
 1803b20:	d8c00d17 	ldw	r3,52(sp)
 1803b24:	d9000517 	ldw	r4,20(sp)
 1803b28:	d8000615 	stw	zero,24(sp)
 1803b2c:	18c00044 	addi	r3,r3,1
 1803b30:	d8c00d15 	stw	r3,52(sp)
 1803b34:	00800c44 	movi	r2,49
 1803b38:	27000044 	addi	fp,r4,1
 1803b3c:	20800005 	stb	r2,0(r4)
 1803b40:	003e8906 	br	1803568 <_dtoa_r+0xbe4>
 1803b44:	d8c00517 	ldw	r3,20(sp)
 1803b48:	003bc206 	br	1802a54 <_dtoa_r+0xd0>
 1803b4c:	01806074 	movhi	r6,385
 1803b50:	31828204 	addi	r6,r6,2568
 1803b54:	30c00917 	ldw	r3,36(r6)
 1803b58:	30800817 	ldw	r2,32(r6)
 1803b5c:	d9001217 	ldw	r4,72(sp)
 1803b60:	d9401317 	ldw	r5,76(sp)
 1803b64:	180f883a 	mov	r7,r3
 1803b68:	100d883a 	mov	r6,r2
 1803b6c:	1808cd00 	call	1808cd0 <__divdf3>
 1803b70:	948003cc 	andi	r18,r18,15
 1803b74:	058000c4 	movi	r22,3
 1803b78:	1029883a 	mov	r20,r2
 1803b7c:	182b883a 	mov	r21,r3
 1803b80:	003c8906 	br	1802da8 <_dtoa_r+0x424>
 1803b84:	d9001017 	ldw	r4,64(sp)
 1803b88:	d9800917 	ldw	r6,36(sp)
 1803b8c:	0025883a 	mov	r18,zero
 1803b90:	1105c83a 	sub	r2,r2,r4
 1803b94:	2089883a 	add	r4,r4,r2
 1803b98:	308d883a 	add	r6,r6,r2
 1803b9c:	d9001015 	stw	r4,64(sp)
 1803ba0:	d9800915 	stw	r6,36(sp)
 1803ba4:	003e3206 	br	1803470 <_dtoa_r+0xaec>
 1803ba8:	28800044 	addi	r2,r5,1
 1803bac:	27000044 	addi	fp,r4,1
 1803bb0:	20800005 	stb	r2,0(r4)
 1803bb4:	003e6c06 	br	1803568 <_dtoa_r+0xbe4>
 1803bb8:	d8800f17 	ldw	r2,60(sp)
 1803bbc:	00bce016 	blt	zero,r2,1802f40 <_dtoa_r+0x5bc>
 1803bc0:	d9800f17 	ldw	r6,60(sp)
 1803bc4:	303cc51e 	bne	r6,zero,1802edc <_dtoa_r+0x558>
 1803bc8:	0005883a 	mov	r2,zero
 1803bcc:	00d00534 	movhi	r3,16404
 1803bd0:	980b883a 	mov	r5,r19
 1803bd4:	180f883a 	mov	r7,r3
 1803bd8:	9009883a 	mov	r4,r18
 1803bdc:	100d883a 	mov	r6,r2
 1803be0:	180890c0 	call	180890c <__muldf3>
 1803be4:	180b883a 	mov	r5,r3
 1803be8:	a80f883a 	mov	r7,r21
 1803bec:	1009883a 	mov	r4,r2
 1803bf0:	a00d883a 	mov	r6,r20
 1803bf4:	18090c00 	call	18090c0 <__gedf2>
 1803bf8:	103cb80e 	bge	r2,zero,1802edc <_dtoa_r+0x558>
 1803bfc:	0027883a 	mov	r19,zero
 1803c00:	0025883a 	mov	r18,zero
 1803c04:	003fc606 	br	1803b20 <_dtoa_r+0x119c>
 1803c08:	99400117 	ldw	r5,4(r19)
 1803c0c:	d9001617 	ldw	r4,88(sp)
 1803c10:	18060980 	call	1806098 <_Balloc>
 1803c14:	99800417 	ldw	r6,16(r19)
 1803c18:	11000304 	addi	r4,r2,12
 1803c1c:	99400304 	addi	r5,r19,12
 1803c20:	318d883a 	add	r6,r6,r6
 1803c24:	318d883a 	add	r6,r6,r6
 1803c28:	31800204 	addi	r6,r6,8
 1803c2c:	1023883a 	mov	r17,r2
 1803c30:	18059000 	call	1805900 <memcpy>
 1803c34:	d9001617 	ldw	r4,88(sp)
 1803c38:	880b883a 	mov	r5,r17
 1803c3c:	01800044 	movi	r6,1
 1803c40:	180645c0 	call	180645c <__lshift>
 1803c44:	100b883a 	mov	r5,r2
 1803c48:	003d9c06 	br	18032bc <_dtoa_r+0x938>
 1803c4c:	00800e44 	movi	r2,57
 1803c50:	b8807026 	beq	r23,r2,1803e14 <_dtoa_r+0x1490>
 1803c54:	b8800044 	addi	r2,r23,1
 1803c58:	b7000044 	addi	fp,r22,1
 1803c5c:	b0800005 	stb	r2,0(r22)
 1803c60:	003e4106 	br	1803568 <_dtoa_r+0xbe4>
 1803c64:	d8800317 	ldw	r2,12(sp)
 1803c68:	01806074 	movhi	r6,385
 1803c6c:	31825004 	addi	r6,r6,2368
 1803c70:	b009883a 	mov	r4,r22
 1803c74:	100e90fa 	slli	r7,r2,3
 1803c78:	b80b883a 	mov	r5,r23
 1803c7c:	398f883a 	add	r7,r7,r6
 1803c80:	38bffe17 	ldw	r2,-8(r7)
 1803c84:	d9800517 	ldw	r6,20(sp)
 1803c88:	38ffff17 	ldw	r3,-4(r7)
 1803c8c:	37000044 	addi	fp,r6,1
 1803c90:	180f883a 	mov	r7,r3
 1803c94:	100d883a 	mov	r6,r2
 1803c98:	180890c0 	call	180890c <__muldf3>
 1803c9c:	a80b883a 	mov	r5,r21
 1803ca0:	a009883a 	mov	r4,r20
 1803ca4:	182f883a 	mov	r23,r3
 1803ca8:	102d883a 	mov	r22,r2
 1803cac:	18092c80 	call	18092c8 <__fixdfsi>
 1803cb0:	1009883a 	mov	r4,r2
 1803cb4:	1027883a 	mov	r19,r2
 1803cb8:	18091d00 	call	18091d0 <__floatsidf>
 1803cbc:	a80b883a 	mov	r5,r21
 1803cc0:	a009883a 	mov	r4,r20
 1803cc4:	180f883a 	mov	r7,r3
 1803cc8:	100d883a 	mov	r6,r2
 1803ccc:	18088180 	call	1808818 <__subdf3>
 1803cd0:	180b883a 	mov	r5,r3
 1803cd4:	d8c00517 	ldw	r3,20(sp)
 1803cd8:	9cc00c04 	addi	r19,r19,48
 1803cdc:	1009883a 	mov	r4,r2
 1803ce0:	1cc00005 	stb	r19,0(r3)
 1803ce4:	2021883a 	mov	r16,r4
 1803ce8:	d9000317 	ldw	r4,12(sp)
 1803cec:	00800044 	movi	r2,1
 1803cf0:	2823883a 	mov	r17,r5
 1803cf4:	20802226 	beq	r4,r2,1803d80 <_dtoa_r+0x13fc>
 1803cf8:	1029883a 	mov	r20,r2
 1803cfc:	0005883a 	mov	r2,zero
 1803d00:	00d00934 	movhi	r3,16420
 1803d04:	180f883a 	mov	r7,r3
 1803d08:	100d883a 	mov	r6,r2
 1803d0c:	880b883a 	mov	r5,r17
 1803d10:	8009883a 	mov	r4,r16
 1803d14:	180890c0 	call	180890c <__muldf3>
 1803d18:	180b883a 	mov	r5,r3
 1803d1c:	1009883a 	mov	r4,r2
 1803d20:	1823883a 	mov	r17,r3
 1803d24:	1021883a 	mov	r16,r2
 1803d28:	18092c80 	call	18092c8 <__fixdfsi>
 1803d2c:	1009883a 	mov	r4,r2
 1803d30:	102b883a 	mov	r21,r2
 1803d34:	18091d00 	call	18091d0 <__floatsidf>
 1803d38:	880b883a 	mov	r5,r17
 1803d3c:	8009883a 	mov	r4,r16
 1803d40:	180f883a 	mov	r7,r3
 1803d44:	100d883a 	mov	r6,r2
 1803d48:	18088180 	call	1808818 <__subdf3>
 1803d4c:	180b883a 	mov	r5,r3
 1803d50:	d8c00517 	ldw	r3,20(sp)
 1803d54:	1009883a 	mov	r4,r2
 1803d58:	ad400c04 	addi	r21,r21,48
 1803d5c:	1d05883a 	add	r2,r3,r20
 1803d60:	15400005 	stb	r21,0(r2)
 1803d64:	2021883a 	mov	r16,r4
 1803d68:	d9000317 	ldw	r4,12(sp)
 1803d6c:	a5000044 	addi	r20,r20,1
 1803d70:	2823883a 	mov	r17,r5
 1803d74:	a13fe11e 	bne	r20,r4,1803cfc <_dtoa_r+0x1378>
 1803d78:	e505883a 	add	r2,fp,r20
 1803d7c:	173fffc4 	addi	fp,r2,-1
 1803d80:	0025883a 	mov	r18,zero
 1803d84:	04cff834 	movhi	r19,16352
 1803d88:	b009883a 	mov	r4,r22
 1803d8c:	b80b883a 	mov	r5,r23
 1803d90:	900d883a 	mov	r6,r18
 1803d94:	980f883a 	mov	r7,r19
 1803d98:	18088980 	call	1808898 <__adddf3>
 1803d9c:	180b883a 	mov	r5,r3
 1803da0:	1009883a 	mov	r4,r2
 1803da4:	800d883a 	mov	r6,r16
 1803da8:	880f883a 	mov	r7,r17
 1803dac:	18091480 	call	1809148 <__ltdf2>
 1803db0:	103cab16 	blt	r2,zero,1803060 <_dtoa_r+0x6dc>
 1803db4:	0009883a 	mov	r4,zero
 1803db8:	980b883a 	mov	r5,r19
 1803dbc:	b80f883a 	mov	r7,r23
 1803dc0:	b00d883a 	mov	r6,r22
 1803dc4:	18088180 	call	1808818 <__subdf3>
 1803dc8:	180b883a 	mov	r5,r3
 1803dcc:	880f883a 	mov	r7,r17
 1803dd0:	1009883a 	mov	r4,r2
 1803dd4:	800d883a 	mov	r6,r16
 1803dd8:	18090380 	call	1809038 <__gtdf2>
 1803ddc:	00bc470e 	bge	zero,r2,1802efc <_dtoa_r+0x578>
 1803de0:	00c00c04 	movi	r3,48
 1803de4:	e73fffc4 	addi	fp,fp,-1
 1803de8:	e0800007 	ldb	r2,0(fp)
 1803dec:	10fffd26 	beq	r2,r3,1803de4 <_dtoa_r+0x1460>
 1803df0:	d9800417 	ldw	r6,16(sp)
 1803df4:	e7000044 	addi	fp,fp,1
 1803df8:	d9800d15 	stw	r6,52(sp)
 1803dfc:	003cab06 	br	18030ac <_dtoa_r+0x728>
 1803e00:	d8c00f17 	ldw	r3,60(sp)
 1803e04:	d9001117 	ldw	r4,68(sp)
 1803e08:	20e1c83a 	sub	r16,r4,r3
 1803e0c:	0007883a 	mov	r3,zero
 1803e10:	003d9b06 	br	1803480 <_dtoa_r+0xafc>
 1803e14:	00800e44 	movi	r2,57
 1803e18:	b0800005 	stb	r2,0(r22)
 1803e1c:	b5800044 	addi	r22,r22,1
 1803e20:	003dc106 	br	1803528 <_dtoa_r+0xba4>
 1803e24:	05800084 	movi	r22,2
 1803e28:	003bf706 	br	1802e08 <_dtoa_r+0x484>
 1803e2c:	d9000f17 	ldw	r4,60(sp)
 1803e30:	013c000e 	bge	zero,r4,1802e34 <_dtoa_r+0x4b0>
 1803e34:	d9800e17 	ldw	r6,56(sp)
 1803e38:	01bc300e 	bge	zero,r6,1802efc <_dtoa_r+0x578>
 1803e3c:	0005883a 	mov	r2,zero
 1803e40:	00d00934 	movhi	r3,16420
 1803e44:	a80b883a 	mov	r5,r21
 1803e48:	180f883a 	mov	r7,r3
 1803e4c:	a009883a 	mov	r4,r20
 1803e50:	100d883a 	mov	r6,r2
 1803e54:	180890c0 	call	180890c <__muldf3>
 1803e58:	b1000044 	addi	r4,r22,1
 1803e5c:	1021883a 	mov	r16,r2
 1803e60:	1823883a 	mov	r17,r3
 1803e64:	18091d00 	call	18091d0 <__floatsidf>
 1803e68:	880b883a 	mov	r5,r17
 1803e6c:	8009883a 	mov	r4,r16
 1803e70:	180f883a 	mov	r7,r3
 1803e74:	100d883a 	mov	r6,r2
 1803e78:	180890c0 	call	180890c <__muldf3>
 1803e7c:	0011883a 	mov	r8,zero
 1803e80:	02500734 	movhi	r9,16412
 1803e84:	180b883a 	mov	r5,r3
 1803e88:	480f883a 	mov	r7,r9
 1803e8c:	1009883a 	mov	r4,r2
 1803e90:	400d883a 	mov	r6,r8
 1803e94:	18088980 	call	1808898 <__adddf3>
 1803e98:	102d883a 	mov	r22,r2
 1803e9c:	00bf3034 	movhi	r2,64704
 1803ea0:	10ef883a 	add	r23,r2,r3
 1803ea4:	d8800d17 	ldw	r2,52(sp)
 1803ea8:	d8c00e17 	ldw	r3,56(sp)
 1803eac:	8029883a 	mov	r20,r16
 1803eb0:	10bfffc4 	addi	r2,r2,-1
 1803eb4:	882b883a 	mov	r21,r17
 1803eb8:	d8800415 	stw	r2,16(sp)
 1803ebc:	d8c00315 	stw	r3,12(sp)
 1803ec0:	003e8306 	br	18038d0 <_dtoa_r+0xf4c>
 1803ec4:	d8800117 	ldw	r2,4(sp)
 1803ec8:	dc001117 	ldw	r16,68(sp)
 1803ecc:	dc801017 	ldw	r18,64(sp)
 1803ed0:	00c00d84 	movi	r3,54
 1803ed4:	1887c83a 	sub	r3,r3,r2
 1803ed8:	003d6906 	br	1803480 <_dtoa_r+0xafc>
 1803edc:	01800044 	movi	r6,1
 1803ee0:	3021883a 	mov	r16,r6
 1803ee4:	d9800f15 	stw	r6,60(sp)
 1803ee8:	d9802615 	stw	r6,152(sp)
 1803eec:	d9800e15 	stw	r6,56(sp)
 1803ef0:	003b9306 	br	1802d40 <_dtoa_r+0x3bc>
 1803ef4:	b021883a 	mov	r16,r22
 1803ef8:	dd800f15 	stw	r22,60(sp)
 1803efc:	003b9006 	br	1802d40 <_dtoa_r+0x3bc>
 1803f00:	103e221e 	bne	r2,zero,180378c <_dtoa_r+0xe08>
 1803f04:	b880004c 	andi	r2,r23,1
 1803f08:	1005003a 	cmpeq	r2,r2,zero
 1803f0c:	103e1f1e 	bne	r2,zero,180378c <_dtoa_r+0xe08>
 1803f10:	003e1b06 	br	1803780 <_dtoa_r+0xdfc>
 1803f14:	d9001617 	ldw	r4,88(sp)
 1803f18:	980b883a 	mov	r5,r19
 1803f1c:	01800284 	movi	r6,10
 1803f20:	000f883a 	mov	r7,zero
 1803f24:	18067cc0 	call	18067cc <__multadd>
 1803f28:	d8c00e17 	ldw	r3,56(sp)
 1803f2c:	1027883a 	mov	r19,r2
 1803f30:	d8c00f15 	stw	r3,60(sp)
 1803f34:	003cd306 	br	1803284 <_dtoa_r+0x900>

01803f38 <_fflush_r>:
 1803f38:	defffb04 	addi	sp,sp,-20
 1803f3c:	dcc00315 	stw	r19,12(sp)
 1803f40:	dc800215 	stw	r18,8(sp)
 1803f44:	dfc00415 	stw	ra,16(sp)
 1803f48:	dc400115 	stw	r17,4(sp)
 1803f4c:	dc000015 	stw	r16,0(sp)
 1803f50:	2027883a 	mov	r19,r4
 1803f54:	2825883a 	mov	r18,r5
 1803f58:	20000226 	beq	r4,zero,1803f64 <_fflush_r+0x2c>
 1803f5c:	20800e17 	ldw	r2,56(r4)
 1803f60:	10005626 	beq	r2,zero,18040bc <_fflush_r+0x184>
 1803f64:	9100030b 	ldhu	r4,12(r18)
 1803f68:	20ffffcc 	andi	r3,r4,65535
 1803f6c:	18e0001c 	xori	r3,r3,32768
 1803f70:	18e00004 	addi	r3,r3,-32768
 1803f74:	1880020c 	andi	r2,r3,8
 1803f78:	1000261e 	bne	r2,zero,1804014 <_fflush_r+0xdc>
 1803f7c:	90c00117 	ldw	r3,4(r18)
 1803f80:	20820014 	ori	r2,r4,2048
 1803f84:	9080030d 	sth	r2,12(r18)
 1803f88:	1009883a 	mov	r4,r2
 1803f8c:	00c0400e 	bge	zero,r3,1804090 <_fflush_r+0x158>
 1803f90:	92000a17 	ldw	r8,40(r18)
 1803f94:	40004026 	beq	r8,zero,1804098 <_fflush_r+0x160>
 1803f98:	2084000c 	andi	r2,r4,4096
 1803f9c:	10005326 	beq	r2,zero,18040ec <_fflush_r+0x1b4>
 1803fa0:	94001417 	ldw	r16,80(r18)
 1803fa4:	9080030b 	ldhu	r2,12(r18)
 1803fa8:	1080010c 	andi	r2,r2,4
 1803fac:	1000481e 	bne	r2,zero,18040d0 <_fflush_r+0x198>
 1803fb0:	91400717 	ldw	r5,28(r18)
 1803fb4:	9809883a 	mov	r4,r19
 1803fb8:	800d883a 	mov	r6,r16
 1803fbc:	000f883a 	mov	r7,zero
 1803fc0:	403ee83a 	callr	r8
 1803fc4:	8080261e 	bne	r16,r2,1804060 <_fflush_r+0x128>
 1803fc8:	9080030b 	ldhu	r2,12(r18)
 1803fcc:	91000417 	ldw	r4,16(r18)
 1803fd0:	90000115 	stw	zero,4(r18)
 1803fd4:	10bdffcc 	andi	r2,r2,63487
 1803fd8:	10ffffcc 	andi	r3,r2,65535
 1803fdc:	18c4000c 	andi	r3,r3,4096
 1803fe0:	9080030d 	sth	r2,12(r18)
 1803fe4:	91000015 	stw	r4,0(r18)
 1803fe8:	18002b26 	beq	r3,zero,1804098 <_fflush_r+0x160>
 1803fec:	0007883a 	mov	r3,zero
 1803ff0:	1805883a 	mov	r2,r3
 1803ff4:	94001415 	stw	r16,80(r18)
 1803ff8:	dfc00417 	ldw	ra,16(sp)
 1803ffc:	dcc00317 	ldw	r19,12(sp)
 1804000:	dc800217 	ldw	r18,8(sp)
 1804004:	dc400117 	ldw	r17,4(sp)
 1804008:	dc000017 	ldw	r16,0(sp)
 180400c:	dec00504 	addi	sp,sp,20
 1804010:	f800283a 	ret
 1804014:	94400417 	ldw	r17,16(r18)
 1804018:	88001f26 	beq	r17,zero,1804098 <_fflush_r+0x160>
 180401c:	90800017 	ldw	r2,0(r18)
 1804020:	18c000cc 	andi	r3,r3,3
 1804024:	94400015 	stw	r17,0(r18)
 1804028:	1461c83a 	sub	r16,r2,r17
 180402c:	18002526 	beq	r3,zero,18040c4 <_fflush_r+0x18c>
 1804030:	0005883a 	mov	r2,zero
 1804034:	90800215 	stw	r2,8(r18)
 1804038:	0400170e 	bge	zero,r16,1804098 <_fflush_r+0x160>
 180403c:	90c00917 	ldw	r3,36(r18)
 1804040:	91400717 	ldw	r5,28(r18)
 1804044:	880d883a 	mov	r6,r17
 1804048:	800f883a 	mov	r7,r16
 180404c:	9809883a 	mov	r4,r19
 1804050:	183ee83a 	callr	r3
 1804054:	88a3883a 	add	r17,r17,r2
 1804058:	80a1c83a 	sub	r16,r16,r2
 180405c:	00bff616 	blt	zero,r2,1804038 <_fflush_r+0x100>
 1804060:	9080030b 	ldhu	r2,12(r18)
 1804064:	00ffffc4 	movi	r3,-1
 1804068:	10801014 	ori	r2,r2,64
 180406c:	9080030d 	sth	r2,12(r18)
 1804070:	1805883a 	mov	r2,r3
 1804074:	dfc00417 	ldw	ra,16(sp)
 1804078:	dcc00317 	ldw	r19,12(sp)
 180407c:	dc800217 	ldw	r18,8(sp)
 1804080:	dc400117 	ldw	r17,4(sp)
 1804084:	dc000017 	ldw	r16,0(sp)
 1804088:	dec00504 	addi	sp,sp,20
 180408c:	f800283a 	ret
 1804090:	90800f17 	ldw	r2,60(r18)
 1804094:	00bfbe16 	blt	zero,r2,1803f90 <_fflush_r+0x58>
 1804098:	0007883a 	mov	r3,zero
 180409c:	1805883a 	mov	r2,r3
 18040a0:	dfc00417 	ldw	ra,16(sp)
 18040a4:	dcc00317 	ldw	r19,12(sp)
 18040a8:	dc800217 	ldw	r18,8(sp)
 18040ac:	dc400117 	ldw	r17,4(sp)
 18040b0:	dc000017 	ldw	r16,0(sp)
 18040b4:	dec00504 	addi	sp,sp,20
 18040b8:	f800283a 	ret
 18040bc:	18041d00 	call	18041d0 <__sinit>
 18040c0:	003fa806 	br	1803f64 <_fflush_r+0x2c>
 18040c4:	90800517 	ldw	r2,20(r18)
 18040c8:	90800215 	stw	r2,8(r18)
 18040cc:	003fda06 	br	1804038 <_fflush_r+0x100>
 18040d0:	90800117 	ldw	r2,4(r18)
 18040d4:	90c00c17 	ldw	r3,48(r18)
 18040d8:	80a1c83a 	sub	r16,r16,r2
 18040dc:	183fb426 	beq	r3,zero,1803fb0 <_fflush_r+0x78>
 18040e0:	90800f17 	ldw	r2,60(r18)
 18040e4:	80a1c83a 	sub	r16,r16,r2
 18040e8:	003fb106 	br	1803fb0 <_fflush_r+0x78>
 18040ec:	91400717 	ldw	r5,28(r18)
 18040f0:	9809883a 	mov	r4,r19
 18040f4:	000d883a 	mov	r6,zero
 18040f8:	01c00044 	movi	r7,1
 18040fc:	403ee83a 	callr	r8
 1804100:	1021883a 	mov	r16,r2
 1804104:	00bfffc4 	movi	r2,-1
 1804108:	80800226 	beq	r16,r2,1804114 <_fflush_r+0x1dc>
 180410c:	92000a17 	ldw	r8,40(r18)
 1804110:	003fa406 	br	1803fa4 <_fflush_r+0x6c>
 1804114:	98c00017 	ldw	r3,0(r19)
 1804118:	00800744 	movi	r2,29
 180411c:	18bfde26 	beq	r3,r2,1804098 <_fflush_r+0x160>
 1804120:	9080030b 	ldhu	r2,12(r18)
 1804124:	8007883a 	mov	r3,r16
 1804128:	10801014 	ori	r2,r2,64
 180412c:	9080030d 	sth	r2,12(r18)
 1804130:	003fcf06 	br	1804070 <_fflush_r+0x138>

01804134 <fflush>:
 1804134:	01406034 	movhi	r5,384
 1804138:	294fce04 	addi	r5,r5,16184
 180413c:	2007883a 	mov	r3,r4
 1804140:	20000526 	beq	r4,zero,1804158 <fflush+0x24>
 1804144:	00806074 	movhi	r2,385
 1804148:	108aca04 	addi	r2,r2,11048
 180414c:	11000017 	ldw	r4,0(r2)
 1804150:	180b883a 	mov	r5,r3
 1804154:	1803f381 	jmpi	1803f38 <_fflush_r>
 1804158:	00806074 	movhi	r2,385
 180415c:	108acb04 	addi	r2,r2,11052
 1804160:	11000017 	ldw	r4,0(r2)
 1804164:	1804d041 	jmpi	1804d04 <_fwalk_reent>

01804168 <std>:
 1804168:	00806034 	movhi	r2,384
 180416c:	109c7804 	addi	r2,r2,29152
 1804170:	20800b15 	stw	r2,44(r4)
 1804174:	00806034 	movhi	r2,384
 1804178:	109cb304 	addi	r2,r2,29388
 180417c:	20800815 	stw	r2,32(r4)
 1804180:	00c06034 	movhi	r3,384
 1804184:	18dc9404 	addi	r3,r3,29264
 1804188:	00806034 	movhi	r2,384
 180418c:	109c7a04 	addi	r2,r2,29160
 1804190:	2140030d 	sth	r5,12(r4)
 1804194:	2180038d 	sth	r6,14(r4)
 1804198:	20c00915 	stw	r3,36(r4)
 180419c:	20800a15 	stw	r2,40(r4)
 18041a0:	20000015 	stw	zero,0(r4)
 18041a4:	20000115 	stw	zero,4(r4)
 18041a8:	20000215 	stw	zero,8(r4)
 18041ac:	20000415 	stw	zero,16(r4)
 18041b0:	20000515 	stw	zero,20(r4)
 18041b4:	20000615 	stw	zero,24(r4)
 18041b8:	21000715 	stw	r4,28(r4)
 18041bc:	f800283a 	ret

018041c0 <__sfp_lock_acquire>:
 18041c0:	f800283a 	ret

018041c4 <__sfp_lock_release>:
 18041c4:	f800283a 	ret

018041c8 <__sinit_lock_acquire>:
 18041c8:	f800283a 	ret

018041cc <__sinit_lock_release>:
 18041cc:	f800283a 	ret

018041d0 <__sinit>:
 18041d0:	20800e17 	ldw	r2,56(r4)
 18041d4:	defffd04 	addi	sp,sp,-12
 18041d8:	dc400115 	stw	r17,4(sp)
 18041dc:	dc000015 	stw	r16,0(sp)
 18041e0:	dfc00215 	stw	ra,8(sp)
 18041e4:	04400044 	movi	r17,1
 18041e8:	01400104 	movi	r5,4
 18041ec:	000d883a 	mov	r6,zero
 18041f0:	2021883a 	mov	r16,r4
 18041f4:	2200bb04 	addi	r8,r4,748
 18041f8:	200f883a 	mov	r7,r4
 18041fc:	10000526 	beq	r2,zero,1804214 <__sinit+0x44>
 1804200:	dfc00217 	ldw	ra,8(sp)
 1804204:	dc400117 	ldw	r17,4(sp)
 1804208:	dc000017 	ldw	r16,0(sp)
 180420c:	dec00304 	addi	sp,sp,12
 1804210:	f800283a 	ret
 1804214:	21000117 	ldw	r4,4(r4)
 1804218:	00806034 	movhi	r2,384
 180421c:	1090ad04 	addi	r2,r2,17076
 1804220:	00c000c4 	movi	r3,3
 1804224:	80800f15 	stw	r2,60(r16)
 1804228:	80c0b915 	stw	r3,740(r16)
 180422c:	8200ba15 	stw	r8,744(r16)
 1804230:	84400e15 	stw	r17,56(r16)
 1804234:	8000b815 	stw	zero,736(r16)
 1804238:	18041680 	call	1804168 <std>
 180423c:	81000217 	ldw	r4,8(r16)
 1804240:	880d883a 	mov	r6,r17
 1804244:	800f883a 	mov	r7,r16
 1804248:	01400284 	movi	r5,10
 180424c:	18041680 	call	1804168 <std>
 1804250:	81000317 	ldw	r4,12(r16)
 1804254:	800f883a 	mov	r7,r16
 1804258:	01400484 	movi	r5,18
 180425c:	01800084 	movi	r6,2
 1804260:	dfc00217 	ldw	ra,8(sp)
 1804264:	dc400117 	ldw	r17,4(sp)
 1804268:	dc000017 	ldw	r16,0(sp)
 180426c:	dec00304 	addi	sp,sp,12
 1804270:	18041681 	jmpi	1804168 <std>

01804274 <__fp_lock>:
 1804274:	0005883a 	mov	r2,zero
 1804278:	f800283a 	ret

0180427c <__fp_unlock>:
 180427c:	0005883a 	mov	r2,zero
 1804280:	f800283a 	ret

01804284 <__fp_unlock_all>:
 1804284:	00806074 	movhi	r2,385
 1804288:	108aca04 	addi	r2,r2,11048
 180428c:	11000017 	ldw	r4,0(r2)
 1804290:	01406034 	movhi	r5,384
 1804294:	29509f04 	addi	r5,r5,17020
 1804298:	1804dcc1 	jmpi	1804dcc <_fwalk>

0180429c <__fp_lock_all>:
 180429c:	00806074 	movhi	r2,385
 18042a0:	108aca04 	addi	r2,r2,11048
 18042a4:	11000017 	ldw	r4,0(r2)
 18042a8:	01406034 	movhi	r5,384
 18042ac:	29509d04 	addi	r5,r5,17012
 18042b0:	1804dcc1 	jmpi	1804dcc <_fwalk>

018042b4 <_cleanup_r>:
 18042b4:	01406034 	movhi	r5,384
 18042b8:	295da504 	addi	r5,r5,30356
 18042bc:	1804dcc1 	jmpi	1804dcc <_fwalk>

018042c0 <_cleanup>:
 18042c0:	00806074 	movhi	r2,385
 18042c4:	108acb04 	addi	r2,r2,11052
 18042c8:	11000017 	ldw	r4,0(r2)
 18042cc:	18042b41 	jmpi	18042b4 <_cleanup_r>

018042d0 <__sfmoreglue>:
 18042d0:	defffc04 	addi	sp,sp,-16
 18042d4:	dc400115 	stw	r17,4(sp)
 18042d8:	2c401724 	muli	r17,r5,92
 18042dc:	dc800215 	stw	r18,8(sp)
 18042e0:	2825883a 	mov	r18,r5
 18042e4:	89400304 	addi	r5,r17,12
 18042e8:	dc000015 	stw	r16,0(sp)
 18042ec:	dfc00315 	stw	ra,12(sp)
 18042f0:	18050dc0 	call	18050dc <_malloc_r>
 18042f4:	0021883a 	mov	r16,zero
 18042f8:	880d883a 	mov	r6,r17
 18042fc:	000b883a 	mov	r5,zero
 1804300:	10000626 	beq	r2,zero,180431c <__sfmoreglue+0x4c>
 1804304:	11000304 	addi	r4,r2,12
 1804308:	14800115 	stw	r18,4(r2)
 180430c:	10000015 	stw	zero,0(r2)
 1804310:	11000215 	stw	r4,8(r2)
 1804314:	1021883a 	mov	r16,r2
 1804318:	1805a800 	call	1805a80 <memset>
 180431c:	8005883a 	mov	r2,r16
 1804320:	dfc00317 	ldw	ra,12(sp)
 1804324:	dc800217 	ldw	r18,8(sp)
 1804328:	dc400117 	ldw	r17,4(sp)
 180432c:	dc000017 	ldw	r16,0(sp)
 1804330:	dec00404 	addi	sp,sp,16
 1804334:	f800283a 	ret

01804338 <__sfp>:
 1804338:	defffd04 	addi	sp,sp,-12
 180433c:	00806074 	movhi	r2,385
 1804340:	108acb04 	addi	r2,r2,11052
 1804344:	dc000015 	stw	r16,0(sp)
 1804348:	14000017 	ldw	r16,0(r2)
 180434c:	dc400115 	stw	r17,4(sp)
 1804350:	dfc00215 	stw	ra,8(sp)
 1804354:	80800e17 	ldw	r2,56(r16)
 1804358:	2023883a 	mov	r17,r4
 180435c:	10002626 	beq	r2,zero,18043f8 <__sfp+0xc0>
 1804360:	8400b804 	addi	r16,r16,736
 1804364:	80800117 	ldw	r2,4(r16)
 1804368:	81000217 	ldw	r4,8(r16)
 180436c:	10ffffc4 	addi	r3,r2,-1
 1804370:	18000916 	blt	r3,zero,1804398 <__sfp+0x60>
 1804374:	2080030f 	ldh	r2,12(r4)
 1804378:	10000b26 	beq	r2,zero,18043a8 <__sfp+0x70>
 180437c:	017fffc4 	movi	r5,-1
 1804380:	00000206 	br	180438c <__sfp+0x54>
 1804384:	2080030f 	ldh	r2,12(r4)
 1804388:	10000726 	beq	r2,zero,18043a8 <__sfp+0x70>
 180438c:	18ffffc4 	addi	r3,r3,-1
 1804390:	21001704 	addi	r4,r4,92
 1804394:	197ffb1e 	bne	r3,r5,1804384 <__sfp+0x4c>
 1804398:	80800017 	ldw	r2,0(r16)
 180439c:	10001926 	beq	r2,zero,1804404 <__sfp+0xcc>
 18043a0:	1021883a 	mov	r16,r2
 18043a4:	003fef06 	br	1804364 <__sfp+0x2c>
 18043a8:	00bfffc4 	movi	r2,-1
 18043ac:	00c00044 	movi	r3,1
 18043b0:	2080038d 	sth	r2,14(r4)
 18043b4:	20c0030d 	sth	r3,12(r4)
 18043b8:	20000015 	stw	zero,0(r4)
 18043bc:	20000215 	stw	zero,8(r4)
 18043c0:	20000115 	stw	zero,4(r4)
 18043c4:	20000415 	stw	zero,16(r4)
 18043c8:	20000515 	stw	zero,20(r4)
 18043cc:	20000615 	stw	zero,24(r4)
 18043d0:	20000c15 	stw	zero,48(r4)
 18043d4:	20000d15 	stw	zero,52(r4)
 18043d8:	20001115 	stw	zero,68(r4)
 18043dc:	20001215 	stw	zero,72(r4)
 18043e0:	2005883a 	mov	r2,r4
 18043e4:	dfc00217 	ldw	ra,8(sp)
 18043e8:	dc400117 	ldw	r17,4(sp)
 18043ec:	dc000017 	ldw	r16,0(sp)
 18043f0:	dec00304 	addi	sp,sp,12
 18043f4:	f800283a 	ret
 18043f8:	8009883a 	mov	r4,r16
 18043fc:	18041d00 	call	18041d0 <__sinit>
 1804400:	003fd706 	br	1804360 <__sfp+0x28>
 1804404:	8809883a 	mov	r4,r17
 1804408:	01400104 	movi	r5,4
 180440c:	18042d00 	call	18042d0 <__sfmoreglue>
 1804410:	80800015 	stw	r2,0(r16)
 1804414:	103fe21e 	bne	r2,zero,18043a0 <__sfp+0x68>
 1804418:	00800304 	movi	r2,12
 180441c:	0009883a 	mov	r4,zero
 1804420:	88800015 	stw	r2,0(r17)
 1804424:	003fee06 	br	18043e0 <__sfp+0xa8>

01804428 <_malloc_trim_r>:
 1804428:	defffb04 	addi	sp,sp,-20
 180442c:	dcc00315 	stw	r19,12(sp)
 1804430:	04c06074 	movhi	r19,385
 1804434:	9cc49704 	addi	r19,r19,4700
 1804438:	dc800215 	stw	r18,8(sp)
 180443c:	dc400115 	stw	r17,4(sp)
 1804440:	dc000015 	stw	r16,0(sp)
 1804444:	2823883a 	mov	r17,r5
 1804448:	2025883a 	mov	r18,r4
 180444c:	dfc00415 	stw	ra,16(sp)
 1804450:	180a2440 	call	180a244 <__malloc_lock>
 1804454:	98800217 	ldw	r2,8(r19)
 1804458:	9009883a 	mov	r4,r18
 180445c:	000b883a 	mov	r5,zero
 1804460:	10c00117 	ldw	r3,4(r2)
 1804464:	00bfff04 	movi	r2,-4
 1804468:	18a0703a 	and	r16,r3,r2
 180446c:	8463c83a 	sub	r17,r16,r17
 1804470:	8c43fbc4 	addi	r17,r17,4079
 1804474:	8822d33a 	srli	r17,r17,12
 1804478:	0083ffc4 	movi	r2,4095
 180447c:	8c7fffc4 	addi	r17,r17,-1
 1804480:	8822933a 	slli	r17,r17,12
 1804484:	1440060e 	bge	r2,r17,18044a0 <_malloc_trim_r+0x78>
 1804488:	18071700 	call	1807170 <_sbrk_r>
 180448c:	98c00217 	ldw	r3,8(r19)
 1804490:	9009883a 	mov	r4,r18
 1804494:	044bc83a 	sub	r5,zero,r17
 1804498:	80c7883a 	add	r3,r16,r3
 180449c:	10c00926 	beq	r2,r3,18044c4 <_malloc_trim_r+0x9c>
 18044a0:	180a2640 	call	180a264 <__malloc_unlock>
 18044a4:	0005883a 	mov	r2,zero
 18044a8:	dfc00417 	ldw	ra,16(sp)
 18044ac:	dcc00317 	ldw	r19,12(sp)
 18044b0:	dc800217 	ldw	r18,8(sp)
 18044b4:	dc400117 	ldw	r17,4(sp)
 18044b8:	dc000017 	ldw	r16,0(sp)
 18044bc:	dec00504 	addi	sp,sp,20
 18044c0:	f800283a 	ret
 18044c4:	9009883a 	mov	r4,r18
 18044c8:	18071700 	call	1807170 <_sbrk_r>
 18044cc:	844dc83a 	sub	r6,r16,r17
 18044d0:	00ffffc4 	movi	r3,-1
 18044d4:	9009883a 	mov	r4,r18
 18044d8:	000b883a 	mov	r5,zero
 18044dc:	01c06074 	movhi	r7,385
 18044e0:	39caec04 	addi	r7,r7,11184
 18044e4:	31800054 	ori	r6,r6,1
 18044e8:	10c00926 	beq	r2,r3,1804510 <_malloc_trim_r+0xe8>
 18044ec:	38800017 	ldw	r2,0(r7)
 18044f0:	98c00217 	ldw	r3,8(r19)
 18044f4:	9009883a 	mov	r4,r18
 18044f8:	1445c83a 	sub	r2,r2,r17
 18044fc:	38800015 	stw	r2,0(r7)
 1804500:	19800115 	stw	r6,4(r3)
 1804504:	180a2640 	call	180a264 <__malloc_unlock>
 1804508:	00800044 	movi	r2,1
 180450c:	003fe606 	br	18044a8 <_malloc_trim_r+0x80>
 1804510:	18071700 	call	1807170 <_sbrk_r>
 1804514:	99800217 	ldw	r6,8(r19)
 1804518:	100f883a 	mov	r7,r2
 180451c:	9009883a 	mov	r4,r18
 1804520:	1187c83a 	sub	r3,r2,r6
 1804524:	008003c4 	movi	r2,15
 1804528:	19400054 	ori	r5,r3,1
 180452c:	10ffdc0e 	bge	r2,r3,18044a0 <_malloc_trim_r+0x78>
 1804530:	00806074 	movhi	r2,385
 1804534:	108acf04 	addi	r2,r2,11068
 1804538:	10c00017 	ldw	r3,0(r2)
 180453c:	00806074 	movhi	r2,385
 1804540:	108aec04 	addi	r2,r2,11184
 1804544:	31400115 	stw	r5,4(r6)
 1804548:	38c7c83a 	sub	r3,r7,r3
 180454c:	10c00015 	stw	r3,0(r2)
 1804550:	003fd306 	br	18044a0 <_malloc_trim_r+0x78>

01804554 <_free_r>:
 1804554:	defffd04 	addi	sp,sp,-12
 1804558:	dc400115 	stw	r17,4(sp)
 180455c:	dc000015 	stw	r16,0(sp)
 1804560:	dfc00215 	stw	ra,8(sp)
 1804564:	2821883a 	mov	r16,r5
 1804568:	2023883a 	mov	r17,r4
 180456c:	28005a26 	beq	r5,zero,18046d8 <_free_r+0x184>
 1804570:	180a2440 	call	180a244 <__malloc_lock>
 1804574:	823ffe04 	addi	r8,r16,-8
 1804578:	41400117 	ldw	r5,4(r8)
 180457c:	00bfff84 	movi	r2,-2
 1804580:	02806074 	movhi	r10,385
 1804584:	52849704 	addi	r10,r10,4700
 1804588:	288e703a 	and	r7,r5,r2
 180458c:	41cd883a 	add	r6,r8,r7
 1804590:	30c00117 	ldw	r3,4(r6)
 1804594:	51000217 	ldw	r4,8(r10)
 1804598:	00bfff04 	movi	r2,-4
 180459c:	1892703a 	and	r9,r3,r2
 18045a0:	5017883a 	mov	r11,r10
 18045a4:	31006726 	beq	r6,r4,1804744 <_free_r+0x1f0>
 18045a8:	2880004c 	andi	r2,r5,1
 18045ac:	1005003a 	cmpeq	r2,r2,zero
 18045b0:	32400115 	stw	r9,4(r6)
 18045b4:	10001a1e 	bne	r2,zero,1804620 <_free_r+0xcc>
 18045b8:	000b883a 	mov	r5,zero
 18045bc:	3247883a 	add	r3,r6,r9
 18045c0:	18800117 	ldw	r2,4(r3)
 18045c4:	1080004c 	andi	r2,r2,1
 18045c8:	1000231e 	bne	r2,zero,1804658 <_free_r+0x104>
 18045cc:	280ac03a 	cmpne	r5,r5,zero
 18045d0:	3a4f883a 	add	r7,r7,r9
 18045d4:	2800451e 	bne	r5,zero,18046ec <_free_r+0x198>
 18045d8:	31000217 	ldw	r4,8(r6)
 18045dc:	00806074 	movhi	r2,385
 18045e0:	10849904 	addi	r2,r2,4708
 18045e4:	20807b26 	beq	r4,r2,18047d4 <_free_r+0x280>
 18045e8:	30800317 	ldw	r2,12(r6)
 18045ec:	3a07883a 	add	r3,r7,r8
 18045f0:	19c00015 	stw	r7,0(r3)
 18045f4:	11000215 	stw	r4,8(r2)
 18045f8:	20800315 	stw	r2,12(r4)
 18045fc:	38800054 	ori	r2,r7,1
 1804600:	40800115 	stw	r2,4(r8)
 1804604:	28001a26 	beq	r5,zero,1804670 <_free_r+0x11c>
 1804608:	8809883a 	mov	r4,r17
 180460c:	dfc00217 	ldw	ra,8(sp)
 1804610:	dc400117 	ldw	r17,4(sp)
 1804614:	dc000017 	ldw	r16,0(sp)
 1804618:	dec00304 	addi	sp,sp,12
 180461c:	180a2641 	jmpi	180a264 <__malloc_unlock>
 1804620:	80bffe17 	ldw	r2,-8(r16)
 1804624:	50c00204 	addi	r3,r10,8
 1804628:	4091c83a 	sub	r8,r8,r2
 180462c:	41000217 	ldw	r4,8(r8)
 1804630:	388f883a 	add	r7,r7,r2
 1804634:	20c06126 	beq	r4,r3,18047bc <_free_r+0x268>
 1804638:	40800317 	ldw	r2,12(r8)
 180463c:	3247883a 	add	r3,r6,r9
 1804640:	000b883a 	mov	r5,zero
 1804644:	11000215 	stw	r4,8(r2)
 1804648:	20800315 	stw	r2,12(r4)
 180464c:	18800117 	ldw	r2,4(r3)
 1804650:	1080004c 	andi	r2,r2,1
 1804654:	103fdd26 	beq	r2,zero,18045cc <_free_r+0x78>
 1804658:	38800054 	ori	r2,r7,1
 180465c:	3a07883a 	add	r3,r7,r8
 1804660:	280ac03a 	cmpne	r5,r5,zero
 1804664:	40800115 	stw	r2,4(r8)
 1804668:	19c00015 	stw	r7,0(r3)
 180466c:	283fe61e 	bne	r5,zero,1804608 <_free_r+0xb4>
 1804670:	00807fc4 	movi	r2,511
 1804674:	11c01f2e 	bgeu	r2,r7,18046f4 <_free_r+0x1a0>
 1804678:	3806d27a 	srli	r3,r7,9
 180467c:	1800481e 	bne	r3,zero,18047a0 <_free_r+0x24c>
 1804680:	3804d0fa 	srli	r2,r7,3
 1804684:	100690fa 	slli	r3,r2,3
 1804688:	1acd883a 	add	r6,r3,r11
 180468c:	31400217 	ldw	r5,8(r6)
 1804690:	31405926 	beq	r6,r5,18047f8 <_free_r+0x2a4>
 1804694:	28800117 	ldw	r2,4(r5)
 1804698:	00ffff04 	movi	r3,-4
 180469c:	10c4703a 	and	r2,r2,r3
 18046a0:	3880022e 	bgeu	r7,r2,18046ac <_free_r+0x158>
 18046a4:	29400217 	ldw	r5,8(r5)
 18046a8:	317ffa1e 	bne	r6,r5,1804694 <_free_r+0x140>
 18046ac:	29800317 	ldw	r6,12(r5)
 18046b0:	41800315 	stw	r6,12(r8)
 18046b4:	41400215 	stw	r5,8(r8)
 18046b8:	8809883a 	mov	r4,r17
 18046bc:	2a000315 	stw	r8,12(r5)
 18046c0:	32000215 	stw	r8,8(r6)
 18046c4:	dfc00217 	ldw	ra,8(sp)
 18046c8:	dc400117 	ldw	r17,4(sp)
 18046cc:	dc000017 	ldw	r16,0(sp)
 18046d0:	dec00304 	addi	sp,sp,12
 18046d4:	180a2641 	jmpi	180a264 <__malloc_unlock>
 18046d8:	dfc00217 	ldw	ra,8(sp)
 18046dc:	dc400117 	ldw	r17,4(sp)
 18046e0:	dc000017 	ldw	r16,0(sp)
 18046e4:	dec00304 	addi	sp,sp,12
 18046e8:	f800283a 	ret
 18046ec:	31000217 	ldw	r4,8(r6)
 18046f0:	003fbd06 	br	18045e8 <_free_r+0x94>
 18046f4:	3806d0fa 	srli	r3,r7,3
 18046f8:	00800044 	movi	r2,1
 18046fc:	51400117 	ldw	r5,4(r10)
 1804700:	180890fa 	slli	r4,r3,3
 1804704:	1807d0ba 	srai	r3,r3,2
 1804708:	22c9883a 	add	r4,r4,r11
 180470c:	21800217 	ldw	r6,8(r4)
 1804710:	10c4983a 	sll	r2,r2,r3
 1804714:	41000315 	stw	r4,12(r8)
 1804718:	41800215 	stw	r6,8(r8)
 180471c:	288ab03a 	or	r5,r5,r2
 1804720:	22000215 	stw	r8,8(r4)
 1804724:	8809883a 	mov	r4,r17
 1804728:	51400115 	stw	r5,4(r10)
 180472c:	32000315 	stw	r8,12(r6)
 1804730:	dfc00217 	ldw	ra,8(sp)
 1804734:	dc400117 	ldw	r17,4(sp)
 1804738:	dc000017 	ldw	r16,0(sp)
 180473c:	dec00304 	addi	sp,sp,12
 1804740:	180a2641 	jmpi	180a264 <__malloc_unlock>
 1804744:	2880004c 	andi	r2,r5,1
 1804748:	3a4d883a 	add	r6,r7,r9
 180474c:	1000071e 	bne	r2,zero,180476c <_free_r+0x218>
 1804750:	80bffe17 	ldw	r2,-8(r16)
 1804754:	4091c83a 	sub	r8,r8,r2
 1804758:	41000317 	ldw	r4,12(r8)
 180475c:	40c00217 	ldw	r3,8(r8)
 1804760:	308d883a 	add	r6,r6,r2
 1804764:	20c00215 	stw	r3,8(r4)
 1804768:	19000315 	stw	r4,12(r3)
 180476c:	00806074 	movhi	r2,385
 1804770:	108ace04 	addi	r2,r2,11064
 1804774:	11000017 	ldw	r4,0(r2)
 1804778:	30c00054 	ori	r3,r6,1
 180477c:	52000215 	stw	r8,8(r10)
 1804780:	40c00115 	stw	r3,4(r8)
 1804784:	313fa036 	bltu	r6,r4,1804608 <_free_r+0xb4>
 1804788:	00806074 	movhi	r2,385
 180478c:	108ae104 	addi	r2,r2,11140
 1804790:	11400017 	ldw	r5,0(r2)
 1804794:	8809883a 	mov	r4,r17
 1804798:	18044280 	call	1804428 <_malloc_trim_r>
 180479c:	003f9a06 	br	1804608 <_free_r+0xb4>
 18047a0:	00800104 	movi	r2,4
 18047a4:	10c0072e 	bgeu	r2,r3,18047c4 <_free_r+0x270>
 18047a8:	00800504 	movi	r2,20
 18047ac:	10c01936 	bltu	r2,r3,1804814 <_free_r+0x2c0>
 18047b0:	188016c4 	addi	r2,r3,91
 18047b4:	100690fa 	slli	r3,r2,3
 18047b8:	003fb306 	br	1804688 <_free_r+0x134>
 18047bc:	01400044 	movi	r5,1
 18047c0:	003f7e06 	br	18045bc <_free_r+0x68>
 18047c4:	3804d1ba 	srli	r2,r7,6
 18047c8:	10800e04 	addi	r2,r2,56
 18047cc:	100690fa 	slli	r3,r2,3
 18047d0:	003fad06 	br	1804688 <_free_r+0x134>
 18047d4:	22000315 	stw	r8,12(r4)
 18047d8:	22000215 	stw	r8,8(r4)
 18047dc:	3a05883a 	add	r2,r7,r8
 18047e0:	38c00054 	ori	r3,r7,1
 18047e4:	11c00015 	stw	r7,0(r2)
 18047e8:	41000215 	stw	r4,8(r8)
 18047ec:	40c00115 	stw	r3,4(r8)
 18047f0:	41000315 	stw	r4,12(r8)
 18047f4:	003f8406 	br	1804608 <_free_r+0xb4>
 18047f8:	1005d0ba 	srai	r2,r2,2
 18047fc:	00c00044 	movi	r3,1
 1804800:	51000117 	ldw	r4,4(r10)
 1804804:	1886983a 	sll	r3,r3,r2
 1804808:	20c8b03a 	or	r4,r4,r3
 180480c:	51000115 	stw	r4,4(r10)
 1804810:	003fa706 	br	18046b0 <_free_r+0x15c>
 1804814:	00801504 	movi	r2,84
 1804818:	10c00436 	bltu	r2,r3,180482c <_free_r+0x2d8>
 180481c:	3804d33a 	srli	r2,r7,12
 1804820:	10801b84 	addi	r2,r2,110
 1804824:	100690fa 	slli	r3,r2,3
 1804828:	003f9706 	br	1804688 <_free_r+0x134>
 180482c:	00805504 	movi	r2,340
 1804830:	10c00436 	bltu	r2,r3,1804844 <_free_r+0x2f0>
 1804834:	3804d3fa 	srli	r2,r7,15
 1804838:	10801dc4 	addi	r2,r2,119
 180483c:	100690fa 	slli	r3,r2,3
 1804840:	003f9106 	br	1804688 <_free_r+0x134>
 1804844:	00815504 	movi	r2,1364
 1804848:	10c0032e 	bgeu	r2,r3,1804858 <_free_r+0x304>
 180484c:	00801f84 	movi	r2,126
 1804850:	00c0fc04 	movi	r3,1008
 1804854:	003f8c06 	br	1804688 <_free_r+0x134>
 1804858:	3804d4ba 	srli	r2,r7,18
 180485c:	10801f04 	addi	r2,r2,124
 1804860:	100690fa 	slli	r3,r2,3
 1804864:	003f8806 	br	1804688 <_free_r+0x134>

01804868 <__sfvwrite_r>:
 1804868:	30800217 	ldw	r2,8(r6)
 180486c:	defff504 	addi	sp,sp,-44
 1804870:	df000915 	stw	fp,36(sp)
 1804874:	dd800715 	stw	r22,28(sp)
 1804878:	dc800315 	stw	r18,12(sp)
 180487c:	dfc00a15 	stw	ra,40(sp)
 1804880:	ddc00815 	stw	r23,32(sp)
 1804884:	dd400615 	stw	r21,24(sp)
 1804888:	dd000515 	stw	r20,20(sp)
 180488c:	dcc00415 	stw	r19,16(sp)
 1804890:	dc400215 	stw	r17,8(sp)
 1804894:	dc000115 	stw	r16,4(sp)
 1804898:	302d883a 	mov	r22,r6
 180489c:	2039883a 	mov	fp,r4
 18048a0:	2825883a 	mov	r18,r5
 18048a4:	10001c26 	beq	r2,zero,1804918 <__sfvwrite_r+0xb0>
 18048a8:	29c0030b 	ldhu	r7,12(r5)
 18048ac:	3880020c 	andi	r2,r7,8
 18048b0:	10002726 	beq	r2,zero,1804950 <__sfvwrite_r+0xe8>
 18048b4:	28800417 	ldw	r2,16(r5)
 18048b8:	10002526 	beq	r2,zero,1804950 <__sfvwrite_r+0xe8>
 18048bc:	3880008c 	andi	r2,r7,2
 18048c0:	b5400017 	ldw	r21,0(r22)
 18048c4:	10002826 	beq	r2,zero,1804968 <__sfvwrite_r+0x100>
 18048c8:	0021883a 	mov	r16,zero
 18048cc:	0023883a 	mov	r17,zero
 18048d0:	880d883a 	mov	r6,r17
 18048d4:	e009883a 	mov	r4,fp
 18048d8:	00810004 	movi	r2,1024
 18048dc:	80006e26 	beq	r16,zero,1804a98 <__sfvwrite_r+0x230>
 18048e0:	800f883a 	mov	r7,r16
 18048e4:	91400717 	ldw	r5,28(r18)
 18048e8:	1400012e 	bgeu	r2,r16,18048f0 <__sfvwrite_r+0x88>
 18048ec:	100f883a 	mov	r7,r2
 18048f0:	90c00917 	ldw	r3,36(r18)
 18048f4:	183ee83a 	callr	r3
 18048f8:	1007883a 	mov	r3,r2
 18048fc:	80a1c83a 	sub	r16,r16,r2
 1804900:	88a3883a 	add	r17,r17,r2
 1804904:	00806d0e 	bge	zero,r2,1804abc <__sfvwrite_r+0x254>
 1804908:	b0800217 	ldw	r2,8(r22)
 180490c:	10c5c83a 	sub	r2,r2,r3
 1804910:	b0800215 	stw	r2,8(r22)
 1804914:	103fee1e 	bne	r2,zero,18048d0 <__sfvwrite_r+0x68>
 1804918:	0009883a 	mov	r4,zero
 180491c:	2005883a 	mov	r2,r4
 1804920:	dfc00a17 	ldw	ra,40(sp)
 1804924:	df000917 	ldw	fp,36(sp)
 1804928:	ddc00817 	ldw	r23,32(sp)
 180492c:	dd800717 	ldw	r22,28(sp)
 1804930:	dd400617 	ldw	r21,24(sp)
 1804934:	dd000517 	ldw	r20,20(sp)
 1804938:	dcc00417 	ldw	r19,16(sp)
 180493c:	dc800317 	ldw	r18,12(sp)
 1804940:	dc400217 	ldw	r17,8(sp)
 1804944:	dc000117 	ldw	r16,4(sp)
 1804948:	dec00b04 	addi	sp,sp,44
 180494c:	f800283a 	ret
 1804950:	18026300 	call	1802630 <__swsetup_r>
 1804954:	1000e41e 	bne	r2,zero,1804ce8 <__sfvwrite_r+0x480>
 1804958:	91c0030b 	ldhu	r7,12(r18)
 180495c:	b5400017 	ldw	r21,0(r22)
 1804960:	3880008c 	andi	r2,r7,2
 1804964:	103fd81e 	bne	r2,zero,18048c8 <__sfvwrite_r+0x60>
 1804968:	3880004c 	andi	r2,r7,1
 180496c:	1005003a 	cmpeq	r2,r2,zero
 1804970:	10005726 	beq	r2,zero,1804ad0 <__sfvwrite_r+0x268>
 1804974:	0029883a 	mov	r20,zero
 1804978:	002f883a 	mov	r23,zero
 180497c:	a0004226 	beq	r20,zero,1804a88 <__sfvwrite_r+0x220>
 1804980:	3880800c 	andi	r2,r7,512
 1804984:	94000217 	ldw	r16,8(r18)
 1804988:	10008b26 	beq	r2,zero,1804bb8 <__sfvwrite_r+0x350>
 180498c:	800d883a 	mov	r6,r16
 1804990:	a400a536 	bltu	r20,r16,1804c28 <__sfvwrite_r+0x3c0>
 1804994:	3881200c 	andi	r2,r7,1152
 1804998:	10002726 	beq	r2,zero,1804a38 <__sfvwrite_r+0x1d0>
 180499c:	90800517 	ldw	r2,20(r18)
 18049a0:	92000417 	ldw	r8,16(r18)
 18049a4:	91400017 	ldw	r5,0(r18)
 18049a8:	1087883a 	add	r3,r2,r2
 18049ac:	1887883a 	add	r3,r3,r2
 18049b0:	1808d7fa 	srli	r4,r3,31
 18049b4:	2a21c83a 	sub	r16,r5,r8
 18049b8:	80800044 	addi	r2,r16,1
 18049bc:	20c9883a 	add	r4,r4,r3
 18049c0:	2027d07a 	srai	r19,r4,1
 18049c4:	a085883a 	add	r2,r20,r2
 18049c8:	980d883a 	mov	r6,r19
 18049cc:	9880022e 	bgeu	r19,r2,18049d8 <__sfvwrite_r+0x170>
 18049d0:	1027883a 	mov	r19,r2
 18049d4:	100d883a 	mov	r6,r2
 18049d8:	3881000c 	andi	r2,r7,1024
 18049dc:	1000b826 	beq	r2,zero,1804cc0 <__sfvwrite_r+0x458>
 18049e0:	300b883a 	mov	r5,r6
 18049e4:	e009883a 	mov	r4,fp
 18049e8:	18050dc0 	call	18050dc <_malloc_r>
 18049ec:	10003126 	beq	r2,zero,1804ab4 <__sfvwrite_r+0x24c>
 18049f0:	91400417 	ldw	r5,16(r18)
 18049f4:	1009883a 	mov	r4,r2
 18049f8:	800d883a 	mov	r6,r16
 18049fc:	1023883a 	mov	r17,r2
 1804a00:	18059000 	call	1805900 <memcpy>
 1804a04:	90c0030b 	ldhu	r3,12(r18)
 1804a08:	00beffc4 	movi	r2,-1025
 1804a0c:	1886703a 	and	r3,r3,r2
 1804a10:	18c02014 	ori	r3,r3,128
 1804a14:	90c0030d 	sth	r3,12(r18)
 1804a18:	9c07c83a 	sub	r3,r19,r16
 1804a1c:	8c05883a 	add	r2,r17,r16
 1804a20:	a00d883a 	mov	r6,r20
 1804a24:	a021883a 	mov	r16,r20
 1804a28:	90800015 	stw	r2,0(r18)
 1804a2c:	90c00215 	stw	r3,8(r18)
 1804a30:	94400415 	stw	r17,16(r18)
 1804a34:	94c00515 	stw	r19,20(r18)
 1804a38:	91000017 	ldw	r4,0(r18)
 1804a3c:	b80b883a 	mov	r5,r23
 1804a40:	a023883a 	mov	r17,r20
 1804a44:	18059a00 	call	18059a0 <memmove>
 1804a48:	90c00217 	ldw	r3,8(r18)
 1804a4c:	90800017 	ldw	r2,0(r18)
 1804a50:	a027883a 	mov	r19,r20
 1804a54:	1c07c83a 	sub	r3,r3,r16
 1804a58:	1405883a 	add	r2,r2,r16
 1804a5c:	90c00215 	stw	r3,8(r18)
 1804a60:	a021883a 	mov	r16,r20
 1804a64:	90800015 	stw	r2,0(r18)
 1804a68:	b0800217 	ldw	r2,8(r22)
 1804a6c:	1405c83a 	sub	r2,r2,r16
 1804a70:	b0800215 	stw	r2,8(r22)
 1804a74:	103fa826 	beq	r2,zero,1804918 <__sfvwrite_r+0xb0>
 1804a78:	a469c83a 	sub	r20,r20,r17
 1804a7c:	91c0030b 	ldhu	r7,12(r18)
 1804a80:	bcef883a 	add	r23,r23,r19
 1804a84:	a03fbe1e 	bne	r20,zero,1804980 <__sfvwrite_r+0x118>
 1804a88:	adc00017 	ldw	r23,0(r21)
 1804a8c:	ad000117 	ldw	r20,4(r21)
 1804a90:	ad400204 	addi	r21,r21,8
 1804a94:	003fb906 	br	180497c <__sfvwrite_r+0x114>
 1804a98:	ac400017 	ldw	r17,0(r21)
 1804a9c:	ac000117 	ldw	r16,4(r21)
 1804aa0:	ad400204 	addi	r21,r21,8
 1804aa4:	003f8a06 	br	18048d0 <__sfvwrite_r+0x68>
 1804aa8:	91400417 	ldw	r5,16(r18)
 1804aac:	e009883a 	mov	r4,fp
 1804ab0:	18045540 	call	1804554 <_free_r>
 1804ab4:	00800304 	movi	r2,12
 1804ab8:	e0800015 	stw	r2,0(fp)
 1804abc:	9080030b 	ldhu	r2,12(r18)
 1804ac0:	013fffc4 	movi	r4,-1
 1804ac4:	10801014 	ori	r2,r2,64
 1804ac8:	9080030d 	sth	r2,12(r18)
 1804acc:	003f9306 	br	180491c <__sfvwrite_r+0xb4>
 1804ad0:	0027883a 	mov	r19,zero
 1804ad4:	002f883a 	mov	r23,zero
 1804ad8:	d8000015 	stw	zero,0(sp)
 1804adc:	0029883a 	mov	r20,zero
 1804ae0:	98001e26 	beq	r19,zero,1804b5c <__sfvwrite_r+0x2f4>
 1804ae4:	d8c00017 	ldw	r3,0(sp)
 1804ae8:	1804c03a 	cmpne	r2,r3,zero
 1804aec:	10005e26 	beq	r2,zero,1804c68 <__sfvwrite_r+0x400>
 1804af0:	9821883a 	mov	r16,r19
 1804af4:	a4c0012e 	bgeu	r20,r19,1804afc <__sfvwrite_r+0x294>
 1804af8:	a021883a 	mov	r16,r20
 1804afc:	91000017 	ldw	r4,0(r18)
 1804b00:	90800417 	ldw	r2,16(r18)
 1804b04:	91800217 	ldw	r6,8(r18)
 1804b08:	91c00517 	ldw	r7,20(r18)
 1804b0c:	1100022e 	bgeu	r2,r4,1804b18 <__sfvwrite_r+0x2b0>
 1804b10:	31e3883a 	add	r17,r6,r7
 1804b14:	8c001616 	blt	r17,r16,1804b70 <__sfvwrite_r+0x308>
 1804b18:	81c03816 	blt	r16,r7,1804bfc <__sfvwrite_r+0x394>
 1804b1c:	90c00917 	ldw	r3,36(r18)
 1804b20:	91400717 	ldw	r5,28(r18)
 1804b24:	e009883a 	mov	r4,fp
 1804b28:	b80d883a 	mov	r6,r23
 1804b2c:	183ee83a 	callr	r3
 1804b30:	1023883a 	mov	r17,r2
 1804b34:	00bfe10e 	bge	zero,r2,1804abc <__sfvwrite_r+0x254>
 1804b38:	a469c83a 	sub	r20,r20,r17
 1804b3c:	a0001826 	beq	r20,zero,1804ba0 <__sfvwrite_r+0x338>
 1804b40:	b0800217 	ldw	r2,8(r22)
 1804b44:	1445c83a 	sub	r2,r2,r17
 1804b48:	b0800215 	stw	r2,8(r22)
 1804b4c:	103f7226 	beq	r2,zero,1804918 <__sfvwrite_r+0xb0>
 1804b50:	9c67c83a 	sub	r19,r19,r17
 1804b54:	bc6f883a 	add	r23,r23,r17
 1804b58:	983fe21e 	bne	r19,zero,1804ae4 <__sfvwrite_r+0x27c>
 1804b5c:	adc00017 	ldw	r23,0(r21)
 1804b60:	acc00117 	ldw	r19,4(r21)
 1804b64:	ad400204 	addi	r21,r21,8
 1804b68:	d8000015 	stw	zero,0(sp)
 1804b6c:	003fdc06 	br	1804ae0 <__sfvwrite_r+0x278>
 1804b70:	b80b883a 	mov	r5,r23
 1804b74:	880d883a 	mov	r6,r17
 1804b78:	18059a00 	call	18059a0 <memmove>
 1804b7c:	90c00017 	ldw	r3,0(r18)
 1804b80:	e009883a 	mov	r4,fp
 1804b84:	900b883a 	mov	r5,r18
 1804b88:	1c47883a 	add	r3,r3,r17
 1804b8c:	90c00015 	stw	r3,0(r18)
 1804b90:	1803f380 	call	1803f38 <_fflush_r>
 1804b94:	103fc91e 	bne	r2,zero,1804abc <__sfvwrite_r+0x254>
 1804b98:	a469c83a 	sub	r20,r20,r17
 1804b9c:	a03fe81e 	bne	r20,zero,1804b40 <__sfvwrite_r+0x2d8>
 1804ba0:	e009883a 	mov	r4,fp
 1804ba4:	900b883a 	mov	r5,r18
 1804ba8:	1803f380 	call	1803f38 <_fflush_r>
 1804bac:	103fc31e 	bne	r2,zero,1804abc <__sfvwrite_r+0x254>
 1804bb0:	d8000015 	stw	zero,0(sp)
 1804bb4:	003fe206 	br	1804b40 <__sfvwrite_r+0x2d8>
 1804bb8:	91000017 	ldw	r4,0(r18)
 1804bbc:	90800417 	ldw	r2,16(r18)
 1804bc0:	1100022e 	bgeu	r2,r4,1804bcc <__sfvwrite_r+0x364>
 1804bc4:	8023883a 	mov	r17,r16
 1804bc8:	85003136 	bltu	r16,r20,1804c90 <__sfvwrite_r+0x428>
 1804bcc:	91c00517 	ldw	r7,20(r18)
 1804bd0:	a1c01836 	bltu	r20,r7,1804c34 <__sfvwrite_r+0x3cc>
 1804bd4:	90c00917 	ldw	r3,36(r18)
 1804bd8:	91400717 	ldw	r5,28(r18)
 1804bdc:	e009883a 	mov	r4,fp
 1804be0:	b80d883a 	mov	r6,r23
 1804be4:	183ee83a 	callr	r3
 1804be8:	1021883a 	mov	r16,r2
 1804bec:	00bfb30e 	bge	zero,r2,1804abc <__sfvwrite_r+0x254>
 1804bf0:	1023883a 	mov	r17,r2
 1804bf4:	1027883a 	mov	r19,r2
 1804bf8:	003f9b06 	br	1804a68 <__sfvwrite_r+0x200>
 1804bfc:	b80b883a 	mov	r5,r23
 1804c00:	800d883a 	mov	r6,r16
 1804c04:	18059a00 	call	18059a0 <memmove>
 1804c08:	90c00217 	ldw	r3,8(r18)
 1804c0c:	90800017 	ldw	r2,0(r18)
 1804c10:	8023883a 	mov	r17,r16
 1804c14:	1c07c83a 	sub	r3,r3,r16
 1804c18:	1405883a 	add	r2,r2,r16
 1804c1c:	90c00215 	stw	r3,8(r18)
 1804c20:	90800015 	stw	r2,0(r18)
 1804c24:	003fc406 	br	1804b38 <__sfvwrite_r+0x2d0>
 1804c28:	a00d883a 	mov	r6,r20
 1804c2c:	a021883a 	mov	r16,r20
 1804c30:	003f8106 	br	1804a38 <__sfvwrite_r+0x1d0>
 1804c34:	b80b883a 	mov	r5,r23
 1804c38:	a00d883a 	mov	r6,r20
 1804c3c:	18059a00 	call	18059a0 <memmove>
 1804c40:	90c00217 	ldw	r3,8(r18)
 1804c44:	90800017 	ldw	r2,0(r18)
 1804c48:	a021883a 	mov	r16,r20
 1804c4c:	1d07c83a 	sub	r3,r3,r20
 1804c50:	1505883a 	add	r2,r2,r20
 1804c54:	a023883a 	mov	r17,r20
 1804c58:	a027883a 	mov	r19,r20
 1804c5c:	90c00215 	stw	r3,8(r18)
 1804c60:	90800015 	stw	r2,0(r18)
 1804c64:	003f8006 	br	1804a68 <__sfvwrite_r+0x200>
 1804c68:	b809883a 	mov	r4,r23
 1804c6c:	01400284 	movi	r5,10
 1804c70:	980d883a 	mov	r6,r19
 1804c74:	180581c0 	call	180581c <memchr>
 1804c78:	10001726 	beq	r2,zero,1804cd8 <__sfvwrite_r+0x470>
 1804c7c:	15c5c83a 	sub	r2,r2,r23
 1804c80:	15000044 	addi	r20,r2,1
 1804c84:	00800044 	movi	r2,1
 1804c88:	d8800015 	stw	r2,0(sp)
 1804c8c:	003f9806 	br	1804af0 <__sfvwrite_r+0x288>
 1804c90:	b80b883a 	mov	r5,r23
 1804c94:	800d883a 	mov	r6,r16
 1804c98:	18059a00 	call	18059a0 <memmove>
 1804c9c:	90c00017 	ldw	r3,0(r18)
 1804ca0:	e009883a 	mov	r4,fp
 1804ca4:	900b883a 	mov	r5,r18
 1804ca8:	1c07883a 	add	r3,r3,r16
 1804cac:	90c00015 	stw	r3,0(r18)
 1804cb0:	8027883a 	mov	r19,r16
 1804cb4:	1803f380 	call	1803f38 <_fflush_r>
 1804cb8:	103f6b26 	beq	r2,zero,1804a68 <__sfvwrite_r+0x200>
 1804cbc:	003f7f06 	br	1804abc <__sfvwrite_r+0x254>
 1804cc0:	400b883a 	mov	r5,r8
 1804cc4:	e009883a 	mov	r4,fp
 1804cc8:	1806b0c0 	call	1806b0c <_realloc_r>
 1804ccc:	103f7626 	beq	r2,zero,1804aa8 <__sfvwrite_r+0x240>
 1804cd0:	1023883a 	mov	r17,r2
 1804cd4:	003f5006 	br	1804a18 <__sfvwrite_r+0x1b0>
 1804cd8:	00c00044 	movi	r3,1
 1804cdc:	9d000044 	addi	r20,r19,1
 1804ce0:	d8c00015 	stw	r3,0(sp)
 1804ce4:	003f8206 	br	1804af0 <__sfvwrite_r+0x288>
 1804ce8:	9080030b 	ldhu	r2,12(r18)
 1804cec:	00c00244 	movi	r3,9
 1804cf0:	013fffc4 	movi	r4,-1
 1804cf4:	10801014 	ori	r2,r2,64
 1804cf8:	9080030d 	sth	r2,12(r18)
 1804cfc:	e0c00015 	stw	r3,0(fp)
 1804d00:	003f0606 	br	180491c <__sfvwrite_r+0xb4>

01804d04 <_fwalk_reent>:
 1804d04:	defff704 	addi	sp,sp,-36
 1804d08:	dcc00315 	stw	r19,12(sp)
 1804d0c:	24c0b804 	addi	r19,r4,736
 1804d10:	dd800615 	stw	r22,24(sp)
 1804d14:	dd400515 	stw	r21,20(sp)
 1804d18:	dfc00815 	stw	ra,32(sp)
 1804d1c:	ddc00715 	stw	r23,28(sp)
 1804d20:	dd000415 	stw	r20,16(sp)
 1804d24:	dc800215 	stw	r18,8(sp)
 1804d28:	dc400115 	stw	r17,4(sp)
 1804d2c:	dc000015 	stw	r16,0(sp)
 1804d30:	202b883a 	mov	r21,r4
 1804d34:	282d883a 	mov	r22,r5
 1804d38:	18041c00 	call	18041c0 <__sfp_lock_acquire>
 1804d3c:	98002126 	beq	r19,zero,1804dc4 <_fwalk_reent+0xc0>
 1804d40:	002f883a 	mov	r23,zero
 1804d44:	9c800117 	ldw	r18,4(r19)
 1804d48:	9c000217 	ldw	r16,8(r19)
 1804d4c:	90bfffc4 	addi	r2,r18,-1
 1804d50:	10000d16 	blt	r2,zero,1804d88 <_fwalk_reent+0x84>
 1804d54:	0023883a 	mov	r17,zero
 1804d58:	053fffc4 	movi	r20,-1
 1804d5c:	8080030f 	ldh	r2,12(r16)
 1804d60:	8c400044 	addi	r17,r17,1
 1804d64:	10000626 	beq	r2,zero,1804d80 <_fwalk_reent+0x7c>
 1804d68:	8080038f 	ldh	r2,14(r16)
 1804d6c:	800b883a 	mov	r5,r16
 1804d70:	a809883a 	mov	r4,r21
 1804d74:	15000226 	beq	r2,r20,1804d80 <_fwalk_reent+0x7c>
 1804d78:	b03ee83a 	callr	r22
 1804d7c:	b8aeb03a 	or	r23,r23,r2
 1804d80:	84001704 	addi	r16,r16,92
 1804d84:	947ff51e 	bne	r18,r17,1804d5c <_fwalk_reent+0x58>
 1804d88:	9cc00017 	ldw	r19,0(r19)
 1804d8c:	983fed1e 	bne	r19,zero,1804d44 <_fwalk_reent+0x40>
 1804d90:	18041c40 	call	18041c4 <__sfp_lock_release>
 1804d94:	b805883a 	mov	r2,r23
 1804d98:	dfc00817 	ldw	ra,32(sp)
 1804d9c:	ddc00717 	ldw	r23,28(sp)
 1804da0:	dd800617 	ldw	r22,24(sp)
 1804da4:	dd400517 	ldw	r21,20(sp)
 1804da8:	dd000417 	ldw	r20,16(sp)
 1804dac:	dcc00317 	ldw	r19,12(sp)
 1804db0:	dc800217 	ldw	r18,8(sp)
 1804db4:	dc400117 	ldw	r17,4(sp)
 1804db8:	dc000017 	ldw	r16,0(sp)
 1804dbc:	dec00904 	addi	sp,sp,36
 1804dc0:	f800283a 	ret
 1804dc4:	002f883a 	mov	r23,zero
 1804dc8:	003ff106 	br	1804d90 <_fwalk_reent+0x8c>

01804dcc <_fwalk>:
 1804dcc:	defff804 	addi	sp,sp,-32
 1804dd0:	dcc00315 	stw	r19,12(sp)
 1804dd4:	24c0b804 	addi	r19,r4,736
 1804dd8:	dd400515 	stw	r21,20(sp)
 1804ddc:	dfc00715 	stw	ra,28(sp)
 1804de0:	dd800615 	stw	r22,24(sp)
 1804de4:	dd000415 	stw	r20,16(sp)
 1804de8:	dc800215 	stw	r18,8(sp)
 1804dec:	dc400115 	stw	r17,4(sp)
 1804df0:	dc000015 	stw	r16,0(sp)
 1804df4:	282b883a 	mov	r21,r5
 1804df8:	18041c00 	call	18041c0 <__sfp_lock_acquire>
 1804dfc:	98001f26 	beq	r19,zero,1804e7c <_fwalk+0xb0>
 1804e00:	002d883a 	mov	r22,zero
 1804e04:	9c800117 	ldw	r18,4(r19)
 1804e08:	9c000217 	ldw	r16,8(r19)
 1804e0c:	90bfffc4 	addi	r2,r18,-1
 1804e10:	10000c16 	blt	r2,zero,1804e44 <_fwalk+0x78>
 1804e14:	0023883a 	mov	r17,zero
 1804e18:	053fffc4 	movi	r20,-1
 1804e1c:	8080030f 	ldh	r2,12(r16)
 1804e20:	8c400044 	addi	r17,r17,1
 1804e24:	10000526 	beq	r2,zero,1804e3c <_fwalk+0x70>
 1804e28:	8080038f 	ldh	r2,14(r16)
 1804e2c:	8009883a 	mov	r4,r16
 1804e30:	15000226 	beq	r2,r20,1804e3c <_fwalk+0x70>
 1804e34:	a83ee83a 	callr	r21
 1804e38:	b0acb03a 	or	r22,r22,r2
 1804e3c:	84001704 	addi	r16,r16,92
 1804e40:	947ff61e 	bne	r18,r17,1804e1c <_fwalk+0x50>
 1804e44:	9cc00017 	ldw	r19,0(r19)
 1804e48:	983fee1e 	bne	r19,zero,1804e04 <_fwalk+0x38>
 1804e4c:	18041c40 	call	18041c4 <__sfp_lock_release>
 1804e50:	b005883a 	mov	r2,r22
 1804e54:	dfc00717 	ldw	ra,28(sp)
 1804e58:	dd800617 	ldw	r22,24(sp)
 1804e5c:	dd400517 	ldw	r21,20(sp)
 1804e60:	dd000417 	ldw	r20,16(sp)
 1804e64:	dcc00317 	ldw	r19,12(sp)
 1804e68:	dc800217 	ldw	r18,8(sp)
 1804e6c:	dc400117 	ldw	r17,4(sp)
 1804e70:	dc000017 	ldw	r16,0(sp)
 1804e74:	dec00804 	addi	sp,sp,32
 1804e78:	f800283a 	ret
 1804e7c:	002d883a 	mov	r22,zero
 1804e80:	003ff206 	br	1804e4c <_fwalk+0x80>

01804e84 <__locale_charset>:
 1804e84:	d0a00317 	ldw	r2,-32756(gp)
 1804e88:	f800283a 	ret

01804e8c <_localeconv_r>:
 1804e8c:	00806074 	movhi	r2,385
 1804e90:	10824404 	addi	r2,r2,2320
 1804e94:	f800283a 	ret

01804e98 <localeconv>:
 1804e98:	00806074 	movhi	r2,385
 1804e9c:	108aca04 	addi	r2,r2,11048
 1804ea0:	11000017 	ldw	r4,0(r2)
 1804ea4:	1804e8c1 	jmpi	1804e8c <_localeconv_r>

01804ea8 <_setlocale_r>:
 1804ea8:	defffc04 	addi	sp,sp,-16
 1804eac:	00c06074 	movhi	r3,385
 1804eb0:	18c23f04 	addi	r3,r3,2300
 1804eb4:	dc800215 	stw	r18,8(sp)
 1804eb8:	dc400115 	stw	r17,4(sp)
 1804ebc:	dc000015 	stw	r16,0(sp)
 1804ec0:	2023883a 	mov	r17,r4
 1804ec4:	2825883a 	mov	r18,r5
 1804ec8:	dfc00315 	stw	ra,12(sp)
 1804ecc:	3021883a 	mov	r16,r6
 1804ed0:	3009883a 	mov	r4,r6
 1804ed4:	180b883a 	mov	r5,r3
 1804ed8:	30000926 	beq	r6,zero,1804f00 <_setlocale_r+0x58>
 1804edc:	180732c0 	call	180732c <strcmp>
 1804ee0:	8009883a 	mov	r4,r16
 1804ee4:	01406074 	movhi	r5,385
 1804ee8:	29422a04 	addi	r5,r5,2216
 1804eec:	10000b1e 	bne	r2,zero,1804f1c <_setlocale_r+0x74>
 1804ef0:	8c000d15 	stw	r16,52(r17)
 1804ef4:	8c800c15 	stw	r18,48(r17)
 1804ef8:	00c06074 	movhi	r3,385
 1804efc:	18c23f04 	addi	r3,r3,2300
 1804f00:	1805883a 	mov	r2,r3
 1804f04:	dfc00317 	ldw	ra,12(sp)
 1804f08:	dc800217 	ldw	r18,8(sp)
 1804f0c:	dc400117 	ldw	r17,4(sp)
 1804f10:	dc000017 	ldw	r16,0(sp)
 1804f14:	dec00404 	addi	sp,sp,16
 1804f18:	f800283a 	ret
 1804f1c:	180732c0 	call	180732c <strcmp>
 1804f20:	0007883a 	mov	r3,zero
 1804f24:	103ff226 	beq	r2,zero,1804ef0 <_setlocale_r+0x48>
 1804f28:	003ff506 	br	1804f00 <_setlocale_r+0x58>

01804f2c <setlocale>:
 1804f2c:	01806074 	movhi	r6,385
 1804f30:	318aca04 	addi	r6,r6,11048
 1804f34:	2007883a 	mov	r3,r4
 1804f38:	31000017 	ldw	r4,0(r6)
 1804f3c:	280d883a 	mov	r6,r5
 1804f40:	180b883a 	mov	r5,r3
 1804f44:	1804ea81 	jmpi	1804ea8 <_setlocale_r>

01804f48 <__smakebuf_r>:
 1804f48:	2880030b 	ldhu	r2,12(r5)
 1804f4c:	deffed04 	addi	sp,sp,-76
 1804f50:	dc401015 	stw	r17,64(sp)
 1804f54:	1080008c 	andi	r2,r2,2
 1804f58:	dc000f15 	stw	r16,60(sp)
 1804f5c:	dfc01215 	stw	ra,72(sp)
 1804f60:	dc801115 	stw	r18,68(sp)
 1804f64:	2821883a 	mov	r16,r5
 1804f68:	2023883a 	mov	r17,r4
 1804f6c:	10000b26 	beq	r2,zero,1804f9c <__smakebuf_r+0x54>
 1804f70:	28c010c4 	addi	r3,r5,67
 1804f74:	00800044 	movi	r2,1
 1804f78:	28800515 	stw	r2,20(r5)
 1804f7c:	28c00415 	stw	r3,16(r5)
 1804f80:	28c00015 	stw	r3,0(r5)
 1804f84:	dfc01217 	ldw	ra,72(sp)
 1804f88:	dc801117 	ldw	r18,68(sp)
 1804f8c:	dc401017 	ldw	r17,64(sp)
 1804f90:	dc000f17 	ldw	r16,60(sp)
 1804f94:	dec01304 	addi	sp,sp,76
 1804f98:	f800283a 	ret
 1804f9c:	2940038f 	ldh	r5,14(r5)
 1804fa0:	28002116 	blt	r5,zero,1805028 <__smakebuf_r+0xe0>
 1804fa4:	d80d883a 	mov	r6,sp
 1804fa8:	18076a80 	call	18076a8 <_fstat_r>
 1804fac:	10001e16 	blt	r2,zero,1805028 <__smakebuf_r+0xe0>
 1804fb0:	d8800117 	ldw	r2,4(sp)
 1804fb4:	00e00014 	movui	r3,32768
 1804fb8:	113c000c 	andi	r4,r2,61440
 1804fbc:	20c03126 	beq	r4,r3,1805084 <__smakebuf_r+0x13c>
 1804fc0:	8080030b 	ldhu	r2,12(r16)
 1804fc4:	00c80004 	movi	r3,8192
 1804fc8:	10820014 	ori	r2,r2,2048
 1804fcc:	8080030d 	sth	r2,12(r16)
 1804fd0:	20c01e26 	beq	r4,r3,180504c <__smakebuf_r+0x104>
 1804fd4:	04810004 	movi	r18,1024
 1804fd8:	8809883a 	mov	r4,r17
 1804fdc:	900b883a 	mov	r5,r18
 1804fe0:	18050dc0 	call	18050dc <_malloc_r>
 1804fe4:	1009883a 	mov	r4,r2
 1804fe8:	10003126 	beq	r2,zero,18050b0 <__smakebuf_r+0x168>
 1804fec:	80c0030b 	ldhu	r3,12(r16)
 1804ff0:	00806034 	movhi	r2,384
 1804ff4:	1090ad04 	addi	r2,r2,17076
 1804ff8:	88800f15 	stw	r2,60(r17)
 1804ffc:	18c02014 	ori	r3,r3,128
 1805000:	84800515 	stw	r18,20(r16)
 1805004:	80c0030d 	sth	r3,12(r16)
 1805008:	81000415 	stw	r4,16(r16)
 180500c:	81000015 	stw	r4,0(r16)
 1805010:	dfc01217 	ldw	ra,72(sp)
 1805014:	dc801117 	ldw	r18,68(sp)
 1805018:	dc401017 	ldw	r17,64(sp)
 180501c:	dc000f17 	ldw	r16,60(sp)
 1805020:	dec01304 	addi	sp,sp,76
 1805024:	f800283a 	ret
 1805028:	80c0030b 	ldhu	r3,12(r16)
 180502c:	1880200c 	andi	r2,r3,128
 1805030:	10000426 	beq	r2,zero,1805044 <__smakebuf_r+0xfc>
 1805034:	04801004 	movi	r18,64
 1805038:	18820014 	ori	r2,r3,2048
 180503c:	8080030d 	sth	r2,12(r16)
 1805040:	003fe506 	br	1804fd8 <__smakebuf_r+0x90>
 1805044:	04810004 	movi	r18,1024
 1805048:	003ffb06 	br	1805038 <__smakebuf_r+0xf0>
 180504c:	8140038f 	ldh	r5,14(r16)
 1805050:	8809883a 	mov	r4,r17
 1805054:	180771c0 	call	180771c <_isatty_r>
 1805058:	103fde26 	beq	r2,zero,1804fd4 <__smakebuf_r+0x8c>
 180505c:	8080030b 	ldhu	r2,12(r16)
 1805060:	80c010c4 	addi	r3,r16,67
 1805064:	04810004 	movi	r18,1024
 1805068:	10800054 	ori	r2,r2,1
 180506c:	8080030d 	sth	r2,12(r16)
 1805070:	00800044 	movi	r2,1
 1805074:	80c00415 	stw	r3,16(r16)
 1805078:	80800515 	stw	r2,20(r16)
 180507c:	80c00015 	stw	r3,0(r16)
 1805080:	003fd506 	br	1804fd8 <__smakebuf_r+0x90>
 1805084:	80c00a17 	ldw	r3,40(r16)
 1805088:	00806034 	movhi	r2,384
 180508c:	109c7a04 	addi	r2,r2,29160
 1805090:	18bfcb1e 	bne	r3,r2,1804fc0 <__smakebuf_r+0x78>
 1805094:	8080030b 	ldhu	r2,12(r16)
 1805098:	00c10004 	movi	r3,1024
 180509c:	1825883a 	mov	r18,r3
 18050a0:	10c4b03a 	or	r2,r2,r3
 18050a4:	8080030d 	sth	r2,12(r16)
 18050a8:	80c01315 	stw	r3,76(r16)
 18050ac:	003fca06 	br	1804fd8 <__smakebuf_r+0x90>
 18050b0:	8100030b 	ldhu	r4,12(r16)
 18050b4:	2080800c 	andi	r2,r4,512
 18050b8:	103fb21e 	bne	r2,zero,1804f84 <__smakebuf_r+0x3c>
 18050bc:	80c010c4 	addi	r3,r16,67
 18050c0:	21000094 	ori	r4,r4,2
 18050c4:	00800044 	movi	r2,1
 18050c8:	80800515 	stw	r2,20(r16)
 18050cc:	8100030d 	sth	r4,12(r16)
 18050d0:	80c00415 	stw	r3,16(r16)
 18050d4:	80c00015 	stw	r3,0(r16)
 18050d8:	003faa06 	br	1804f84 <__smakebuf_r+0x3c>

018050dc <_malloc_r>:
 18050dc:	defff604 	addi	sp,sp,-40
 18050e0:	28c002c4 	addi	r3,r5,11
 18050e4:	00800584 	movi	r2,22
 18050e8:	dc800215 	stw	r18,8(sp)
 18050ec:	dfc00915 	stw	ra,36(sp)
 18050f0:	df000815 	stw	fp,32(sp)
 18050f4:	ddc00715 	stw	r23,28(sp)
 18050f8:	dd800615 	stw	r22,24(sp)
 18050fc:	dd400515 	stw	r21,20(sp)
 1805100:	dd000415 	stw	r20,16(sp)
 1805104:	dcc00315 	stw	r19,12(sp)
 1805108:	dc400115 	stw	r17,4(sp)
 180510c:	dc000015 	stw	r16,0(sp)
 1805110:	2025883a 	mov	r18,r4
 1805114:	10c01236 	bltu	r2,r3,1805160 <_malloc_r+0x84>
 1805118:	04400404 	movi	r17,16
 180511c:	8940142e 	bgeu	r17,r5,1805170 <_malloc_r+0x94>
 1805120:	00800304 	movi	r2,12
 1805124:	0007883a 	mov	r3,zero
 1805128:	90800015 	stw	r2,0(r18)
 180512c:	1805883a 	mov	r2,r3
 1805130:	dfc00917 	ldw	ra,36(sp)
 1805134:	df000817 	ldw	fp,32(sp)
 1805138:	ddc00717 	ldw	r23,28(sp)
 180513c:	dd800617 	ldw	r22,24(sp)
 1805140:	dd400517 	ldw	r21,20(sp)
 1805144:	dd000417 	ldw	r20,16(sp)
 1805148:	dcc00317 	ldw	r19,12(sp)
 180514c:	dc800217 	ldw	r18,8(sp)
 1805150:	dc400117 	ldw	r17,4(sp)
 1805154:	dc000017 	ldw	r16,0(sp)
 1805158:	dec00a04 	addi	sp,sp,40
 180515c:	f800283a 	ret
 1805160:	00bffe04 	movi	r2,-8
 1805164:	18a2703a 	and	r17,r3,r2
 1805168:	883fed16 	blt	r17,zero,1805120 <_malloc_r+0x44>
 180516c:	897fec36 	bltu	r17,r5,1805120 <_malloc_r+0x44>
 1805170:	9009883a 	mov	r4,r18
 1805174:	180a2440 	call	180a244 <__malloc_lock>
 1805178:	00807dc4 	movi	r2,503
 180517c:	14402b2e 	bgeu	r2,r17,180522c <_malloc_r+0x150>
 1805180:	8806d27a 	srli	r3,r17,9
 1805184:	18003f1e 	bne	r3,zero,1805284 <_malloc_r+0x1a8>
 1805188:	880cd0fa 	srli	r6,r17,3
 180518c:	300490fa 	slli	r2,r6,3
 1805190:	02c06074 	movhi	r11,385
 1805194:	5ac49704 	addi	r11,r11,4700
 1805198:	12cb883a 	add	r5,r2,r11
 180519c:	2c000317 	ldw	r16,12(r5)
 18051a0:	580f883a 	mov	r7,r11
 18051a4:	2c00041e 	bne	r5,r16,18051b8 <_malloc_r+0xdc>
 18051a8:	00000a06 	br	18051d4 <_malloc_r+0xf8>
 18051ac:	1800860e 	bge	r3,zero,18053c8 <_malloc_r+0x2ec>
 18051b0:	84000317 	ldw	r16,12(r16)
 18051b4:	2c000726 	beq	r5,r16,18051d4 <_malloc_r+0xf8>
 18051b8:	80800117 	ldw	r2,4(r16)
 18051bc:	00ffff04 	movi	r3,-4
 18051c0:	10c8703a 	and	r4,r2,r3
 18051c4:	2447c83a 	sub	r3,r4,r17
 18051c8:	008003c4 	movi	r2,15
 18051cc:	10fff70e 	bge	r2,r3,18051ac <_malloc_r+0xd0>
 18051d0:	31bfffc4 	addi	r6,r6,-1
 18051d4:	32400044 	addi	r9,r6,1
 18051d8:	02806074 	movhi	r10,385
 18051dc:	52849904 	addi	r10,r10,4708
 18051e0:	54000217 	ldw	r16,8(r10)
 18051e4:	8280a026 	beq	r16,r10,1805468 <_malloc_r+0x38c>
 18051e8:	80800117 	ldw	r2,4(r16)
 18051ec:	00ffff04 	movi	r3,-4
 18051f0:	10ca703a 	and	r5,r2,r3
 18051f4:	2c4dc83a 	sub	r6,r5,r17
 18051f8:	008003c4 	movi	r2,15
 18051fc:	11808316 	blt	r2,r6,180540c <_malloc_r+0x330>
 1805200:	52800315 	stw	r10,12(r10)
 1805204:	52800215 	stw	r10,8(r10)
 1805208:	30002916 	blt	r6,zero,18052b0 <_malloc_r+0x1d4>
 180520c:	8147883a 	add	r3,r16,r5
 1805210:	18800117 	ldw	r2,4(r3)
 1805214:	9009883a 	mov	r4,r18
 1805218:	10800054 	ori	r2,r2,1
 180521c:	18800115 	stw	r2,4(r3)
 1805220:	180a2640 	call	180a264 <__malloc_unlock>
 1805224:	80c00204 	addi	r3,r16,8
 1805228:	003fc006 	br	180512c <_malloc_r+0x50>
 180522c:	02c06074 	movhi	r11,385
 1805230:	5ac49704 	addi	r11,r11,4700
 1805234:	8ac5883a 	add	r2,r17,r11
 1805238:	14000317 	ldw	r16,12(r2)
 180523c:	580f883a 	mov	r7,r11
 1805240:	8806d0fa 	srli	r3,r17,3
 1805244:	14006c26 	beq	r2,r16,18053f8 <_malloc_r+0x31c>
 1805248:	80c00117 	ldw	r3,4(r16)
 180524c:	00bfff04 	movi	r2,-4
 1805250:	81800317 	ldw	r6,12(r16)
 1805254:	1886703a 	and	r3,r3,r2
 1805258:	80c7883a 	add	r3,r16,r3
 180525c:	18800117 	ldw	r2,4(r3)
 1805260:	81400217 	ldw	r5,8(r16)
 1805264:	9009883a 	mov	r4,r18
 1805268:	10800054 	ori	r2,r2,1
 180526c:	18800115 	stw	r2,4(r3)
 1805270:	31400215 	stw	r5,8(r6)
 1805274:	29800315 	stw	r6,12(r5)
 1805278:	180a2640 	call	180a264 <__malloc_unlock>
 180527c:	80c00204 	addi	r3,r16,8
 1805280:	003faa06 	br	180512c <_malloc_r+0x50>
 1805284:	00800104 	movi	r2,4
 1805288:	10c0052e 	bgeu	r2,r3,18052a0 <_malloc_r+0x1c4>
 180528c:	00800504 	movi	r2,20
 1805290:	10c07836 	bltu	r2,r3,1805474 <_malloc_r+0x398>
 1805294:	198016c4 	addi	r6,r3,91
 1805298:	300490fa 	slli	r2,r6,3
 180529c:	003fbc06 	br	1805190 <_malloc_r+0xb4>
 18052a0:	8804d1ba 	srli	r2,r17,6
 18052a4:	11800e04 	addi	r6,r2,56
 18052a8:	300490fa 	slli	r2,r6,3
 18052ac:	003fb806 	br	1805190 <_malloc_r+0xb4>
 18052b0:	00807fc4 	movi	r2,511
 18052b4:	1140bb36 	bltu	r2,r5,18055a4 <_malloc_r+0x4c8>
 18052b8:	2806d0fa 	srli	r3,r5,3
 18052bc:	573ffe04 	addi	fp,r10,-8
 18052c0:	00800044 	movi	r2,1
 18052c4:	180890fa 	slli	r4,r3,3
 18052c8:	1807d0ba 	srai	r3,r3,2
 18052cc:	e1c00117 	ldw	r7,4(fp)
 18052d0:	5909883a 	add	r4,r11,r4
 18052d4:	21400217 	ldw	r5,8(r4)
 18052d8:	10c4983a 	sll	r2,r2,r3
 18052dc:	81000315 	stw	r4,12(r16)
 18052e0:	81400215 	stw	r5,8(r16)
 18052e4:	388eb03a 	or	r7,r7,r2
 18052e8:	2c000315 	stw	r16,12(r5)
 18052ec:	24000215 	stw	r16,8(r4)
 18052f0:	e1c00115 	stw	r7,4(fp)
 18052f4:	4807883a 	mov	r3,r9
 18052f8:	4800cd16 	blt	r9,zero,1805630 <_malloc_r+0x554>
 18052fc:	1807d0ba 	srai	r3,r3,2
 1805300:	00800044 	movi	r2,1
 1805304:	10c8983a 	sll	r4,r2,r3
 1805308:	39004436 	bltu	r7,r4,180541c <_malloc_r+0x340>
 180530c:	21c4703a 	and	r2,r4,r7
 1805310:	10000a1e 	bne	r2,zero,180533c <_malloc_r+0x260>
 1805314:	2109883a 	add	r4,r4,r4
 1805318:	00bfff04 	movi	r2,-4
 180531c:	4884703a 	and	r2,r9,r2
 1805320:	3906703a 	and	r3,r7,r4
 1805324:	12400104 	addi	r9,r2,4
 1805328:	1800041e 	bne	r3,zero,180533c <_malloc_r+0x260>
 180532c:	2109883a 	add	r4,r4,r4
 1805330:	3904703a 	and	r2,r7,r4
 1805334:	4a400104 	addi	r9,r9,4
 1805338:	103ffc26 	beq	r2,zero,180532c <_malloc_r+0x250>
 180533c:	480490fa 	slli	r2,r9,3
 1805340:	4819883a 	mov	r12,r9
 1805344:	023fff04 	movi	r8,-4
 1805348:	589b883a 	add	r13,r11,r2
 180534c:	6807883a 	mov	r3,r13
 1805350:	014003c4 	movi	r5,15
 1805354:	1c000317 	ldw	r16,12(r3)
 1805358:	1c00041e 	bne	r3,r16,180536c <_malloc_r+0x290>
 180535c:	0000a706 	br	18055fc <_malloc_r+0x520>
 1805360:	3000ab0e 	bge	r6,zero,1805610 <_malloc_r+0x534>
 1805364:	84000317 	ldw	r16,12(r16)
 1805368:	1c00a426 	beq	r3,r16,18055fc <_malloc_r+0x520>
 180536c:	80800117 	ldw	r2,4(r16)
 1805370:	1204703a 	and	r2,r2,r8
 1805374:	144dc83a 	sub	r6,r2,r17
 1805378:	29bff90e 	bge	r5,r6,1805360 <_malloc_r+0x284>
 180537c:	81000317 	ldw	r4,12(r16)
 1805380:	80c00217 	ldw	r3,8(r16)
 1805384:	89400054 	ori	r5,r17,1
 1805388:	8445883a 	add	r2,r16,r17
 180538c:	20c00215 	stw	r3,8(r4)
 1805390:	19000315 	stw	r4,12(r3)
 1805394:	81400115 	stw	r5,4(r16)
 1805398:	1187883a 	add	r3,r2,r6
 180539c:	31000054 	ori	r4,r6,1
 18053a0:	50800315 	stw	r2,12(r10)
 18053a4:	50800215 	stw	r2,8(r10)
 18053a8:	19800015 	stw	r6,0(r3)
 18053ac:	11000115 	stw	r4,4(r2)
 18053b0:	12800215 	stw	r10,8(r2)
 18053b4:	12800315 	stw	r10,12(r2)
 18053b8:	9009883a 	mov	r4,r18
 18053bc:	180a2640 	call	180a264 <__malloc_unlock>
 18053c0:	80c00204 	addi	r3,r16,8
 18053c4:	003f5906 	br	180512c <_malloc_r+0x50>
 18053c8:	8109883a 	add	r4,r16,r4
 18053cc:	20800117 	ldw	r2,4(r4)
 18053d0:	80c00217 	ldw	r3,8(r16)
 18053d4:	81400317 	ldw	r5,12(r16)
 18053d8:	10800054 	ori	r2,r2,1
 18053dc:	20800115 	stw	r2,4(r4)
 18053e0:	28c00215 	stw	r3,8(r5)
 18053e4:	19400315 	stw	r5,12(r3)
 18053e8:	9009883a 	mov	r4,r18
 18053ec:	180a2640 	call	180a264 <__malloc_unlock>
 18053f0:	80c00204 	addi	r3,r16,8
 18053f4:	003f4d06 	br	180512c <_malloc_r+0x50>
 18053f8:	80800204 	addi	r2,r16,8
 18053fc:	14000317 	ldw	r16,12(r2)
 1805400:	143f911e 	bne	r2,r16,1805248 <_malloc_r+0x16c>
 1805404:	1a400084 	addi	r9,r3,2
 1805408:	003f7306 	br	18051d8 <_malloc_r+0xfc>
 180540c:	88c00054 	ori	r3,r17,1
 1805410:	8445883a 	add	r2,r16,r17
 1805414:	80c00115 	stw	r3,4(r16)
 1805418:	003fdf06 	br	1805398 <_malloc_r+0x2bc>
 180541c:	e4000217 	ldw	r16,8(fp)
 1805420:	00bfff04 	movi	r2,-4
 1805424:	80c00117 	ldw	r3,4(r16)
 1805428:	802d883a 	mov	r22,r16
 180542c:	18aa703a 	and	r21,r3,r2
 1805430:	ac401636 	bltu	r21,r17,180548c <_malloc_r+0x3b0>
 1805434:	ac49c83a 	sub	r4,r21,r17
 1805438:	008003c4 	movi	r2,15
 180543c:	1100130e 	bge	r2,r4,180548c <_malloc_r+0x3b0>
 1805440:	88800054 	ori	r2,r17,1
 1805444:	8447883a 	add	r3,r16,r17
 1805448:	80800115 	stw	r2,4(r16)
 180544c:	20800054 	ori	r2,r4,1
 1805450:	18800115 	stw	r2,4(r3)
 1805454:	e0c00215 	stw	r3,8(fp)
 1805458:	9009883a 	mov	r4,r18
 180545c:	180a2640 	call	180a264 <__malloc_unlock>
 1805460:	80c00204 	addi	r3,r16,8
 1805464:	003f3106 	br	180512c <_malloc_r+0x50>
 1805468:	39c00117 	ldw	r7,4(r7)
 180546c:	573ffe04 	addi	fp,r10,-8
 1805470:	003fa006 	br	18052f4 <_malloc_r+0x218>
 1805474:	00801504 	movi	r2,84
 1805478:	10c06736 	bltu	r2,r3,1805618 <_malloc_r+0x53c>
 180547c:	8804d33a 	srli	r2,r17,12
 1805480:	11801b84 	addi	r6,r2,110
 1805484:	300490fa 	slli	r2,r6,3
 1805488:	003f4106 	br	1805190 <_malloc_r+0xb4>
 180548c:	d0a01717 	ldw	r2,-32676(gp)
 1805490:	d0e00517 	ldw	r3,-32748(gp)
 1805494:	053fffc4 	movi	r20,-1
 1805498:	10800404 	addi	r2,r2,16
 180549c:	88a7883a 	add	r19,r17,r2
 18054a0:	1d000326 	beq	r3,r20,18054b0 <_malloc_r+0x3d4>
 18054a4:	98c3ffc4 	addi	r3,r19,4095
 18054a8:	00bc0004 	movi	r2,-4096
 18054ac:	18a6703a 	and	r19,r3,r2
 18054b0:	9009883a 	mov	r4,r18
 18054b4:	980b883a 	mov	r5,r19
 18054b8:	18071700 	call	1807170 <_sbrk_r>
 18054bc:	1009883a 	mov	r4,r2
 18054c0:	15000426 	beq	r2,r20,18054d4 <_malloc_r+0x3f8>
 18054c4:	854b883a 	add	r5,r16,r21
 18054c8:	1029883a 	mov	r20,r2
 18054cc:	11405a2e 	bgeu	r2,r5,1805638 <_malloc_r+0x55c>
 18054d0:	87000c26 	beq	r16,fp,1805504 <_malloc_r+0x428>
 18054d4:	e4000217 	ldw	r16,8(fp)
 18054d8:	80c00117 	ldw	r3,4(r16)
 18054dc:	00bfff04 	movi	r2,-4
 18054e0:	1884703a 	and	r2,r3,r2
 18054e4:	14400336 	bltu	r2,r17,18054f4 <_malloc_r+0x418>
 18054e8:	1449c83a 	sub	r4,r2,r17
 18054ec:	008003c4 	movi	r2,15
 18054f0:	113fd316 	blt	r2,r4,1805440 <_malloc_r+0x364>
 18054f4:	9009883a 	mov	r4,r18
 18054f8:	180a2640 	call	180a264 <__malloc_unlock>
 18054fc:	0007883a 	mov	r3,zero
 1805500:	003f0a06 	br	180512c <_malloc_r+0x50>
 1805504:	05c06074 	movhi	r23,385
 1805508:	bdcaec04 	addi	r23,r23,11184
 180550c:	b8800017 	ldw	r2,0(r23)
 1805510:	988d883a 	add	r6,r19,r2
 1805514:	b9800015 	stw	r6,0(r23)
 1805518:	d0e00517 	ldw	r3,-32748(gp)
 180551c:	00bfffc4 	movi	r2,-1
 1805520:	18808e26 	beq	r3,r2,180575c <_malloc_r+0x680>
 1805524:	2145c83a 	sub	r2,r4,r5
 1805528:	3085883a 	add	r2,r6,r2
 180552c:	b8800015 	stw	r2,0(r23)
 1805530:	20c001cc 	andi	r3,r4,7
 1805534:	18005f1e 	bne	r3,zero,18056b4 <_malloc_r+0x5d8>
 1805538:	000b883a 	mov	r5,zero
 180553c:	a4c5883a 	add	r2,r20,r19
 1805540:	1083ffcc 	andi	r2,r2,4095
 1805544:	00c40004 	movi	r3,4096
 1805548:	1887c83a 	sub	r3,r3,r2
 180554c:	28e7883a 	add	r19,r5,r3
 1805550:	9009883a 	mov	r4,r18
 1805554:	980b883a 	mov	r5,r19
 1805558:	18071700 	call	1807170 <_sbrk_r>
 180555c:	1007883a 	mov	r3,r2
 1805560:	00bfffc4 	movi	r2,-1
 1805564:	18807a26 	beq	r3,r2,1805750 <_malloc_r+0x674>
 1805568:	1d05c83a 	sub	r2,r3,r20
 180556c:	9885883a 	add	r2,r19,r2
 1805570:	10c00054 	ori	r3,r2,1
 1805574:	b8800017 	ldw	r2,0(r23)
 1805578:	a021883a 	mov	r16,r20
 180557c:	a0c00115 	stw	r3,4(r20)
 1805580:	9885883a 	add	r2,r19,r2
 1805584:	b8800015 	stw	r2,0(r23)
 1805588:	e5000215 	stw	r20,8(fp)
 180558c:	b7003626 	beq	r22,fp,1805668 <_malloc_r+0x58c>
 1805590:	018003c4 	movi	r6,15
 1805594:	35404b36 	bltu	r6,r21,18056c4 <_malloc_r+0x5e8>
 1805598:	00800044 	movi	r2,1
 180559c:	a0800115 	stw	r2,4(r20)
 18055a0:	003fcd06 	br	18054d8 <_malloc_r+0x3fc>
 18055a4:	2808d27a 	srli	r4,r5,9
 18055a8:	2000371e 	bne	r4,zero,1805688 <_malloc_r+0x5ac>
 18055ac:	2808d0fa 	srli	r4,r5,3
 18055b0:	200690fa 	slli	r3,r4,3
 18055b4:	1ad1883a 	add	r8,r3,r11
 18055b8:	41800217 	ldw	r6,8(r8)
 18055bc:	41805b26 	beq	r8,r6,180572c <_malloc_r+0x650>
 18055c0:	30800117 	ldw	r2,4(r6)
 18055c4:	00ffff04 	movi	r3,-4
 18055c8:	10c4703a 	and	r2,r2,r3
 18055cc:	2880022e 	bgeu	r5,r2,18055d8 <_malloc_r+0x4fc>
 18055d0:	31800217 	ldw	r6,8(r6)
 18055d4:	41bffa1e 	bne	r8,r6,18055c0 <_malloc_r+0x4e4>
 18055d8:	32000317 	ldw	r8,12(r6)
 18055dc:	39c00117 	ldw	r7,4(r7)
 18055e0:	82000315 	stw	r8,12(r16)
 18055e4:	81800215 	stw	r6,8(r16)
 18055e8:	07006074 	movhi	fp,385
 18055ec:	e7049704 	addi	fp,fp,4700
 18055f0:	34000315 	stw	r16,12(r6)
 18055f4:	44000215 	stw	r16,8(r8)
 18055f8:	003f3e06 	br	18052f4 <_malloc_r+0x218>
 18055fc:	63000044 	addi	r12,r12,1
 1805600:	608000cc 	andi	r2,r12,3
 1805604:	10005d26 	beq	r2,zero,180577c <_malloc_r+0x6a0>
 1805608:	18c00204 	addi	r3,r3,8
 180560c:	003f5106 	br	1805354 <_malloc_r+0x278>
 1805610:	8089883a 	add	r4,r16,r2
 1805614:	003f6d06 	br	18053cc <_malloc_r+0x2f0>
 1805618:	00805504 	movi	r2,340
 180561c:	10c02036 	bltu	r2,r3,18056a0 <_malloc_r+0x5c4>
 1805620:	8804d3fa 	srli	r2,r17,15
 1805624:	11801dc4 	addi	r6,r2,119
 1805628:	300490fa 	slli	r2,r6,3
 180562c:	003ed806 	br	1805190 <_malloc_r+0xb4>
 1805630:	48c000c4 	addi	r3,r9,3
 1805634:	003f3106 	br	18052fc <_malloc_r+0x220>
 1805638:	05c06074 	movhi	r23,385
 180563c:	bdcaec04 	addi	r23,r23,11184
 1805640:	b8800017 	ldw	r2,0(r23)
 1805644:	988d883a 	add	r6,r19,r2
 1805648:	b9800015 	stw	r6,0(r23)
 180564c:	293fb21e 	bne	r5,r4,1805518 <_malloc_r+0x43c>
 1805650:	2083ffcc 	andi	r2,r4,4095
 1805654:	103fb01e 	bne	r2,zero,1805518 <_malloc_r+0x43c>
 1805658:	e4000217 	ldw	r16,8(fp)
 180565c:	9d45883a 	add	r2,r19,r21
 1805660:	10800054 	ori	r2,r2,1
 1805664:	80800115 	stw	r2,4(r16)
 1805668:	b8c00017 	ldw	r3,0(r23)
 180566c:	d0a01817 	ldw	r2,-32672(gp)
 1805670:	10c0012e 	bgeu	r2,r3,1805678 <_malloc_r+0x59c>
 1805674:	d0e01815 	stw	r3,-32672(gp)
 1805678:	d0a01917 	ldw	r2,-32668(gp)
 180567c:	10ff962e 	bgeu	r2,r3,18054d8 <_malloc_r+0x3fc>
 1805680:	d0e01915 	stw	r3,-32668(gp)
 1805684:	003f9406 	br	18054d8 <_malloc_r+0x3fc>
 1805688:	00800104 	movi	r2,4
 180568c:	11001e36 	bltu	r2,r4,1805708 <_malloc_r+0x62c>
 1805690:	2804d1ba 	srli	r2,r5,6
 1805694:	11000e04 	addi	r4,r2,56
 1805698:	200690fa 	slli	r3,r4,3
 180569c:	003fc506 	br	18055b4 <_malloc_r+0x4d8>
 18056a0:	00815504 	movi	r2,1364
 18056a4:	10c01d2e 	bgeu	r2,r3,180571c <_malloc_r+0x640>
 18056a8:	01801f84 	movi	r6,126
 18056ac:	0080fc04 	movi	r2,1008
 18056b0:	003eb706 	br	1805190 <_malloc_r+0xb4>
 18056b4:	00800204 	movi	r2,8
 18056b8:	10cbc83a 	sub	r5,r2,r3
 18056bc:	2169883a 	add	r20,r4,r5
 18056c0:	003f9e06 	br	180553c <_malloc_r+0x460>
 18056c4:	00bffe04 	movi	r2,-8
 18056c8:	a93ffd04 	addi	r4,r21,-12
 18056cc:	2088703a 	and	r4,r4,r2
 18056d0:	b10b883a 	add	r5,r22,r4
 18056d4:	00c00144 	movi	r3,5
 18056d8:	28c00215 	stw	r3,8(r5)
 18056dc:	28c00115 	stw	r3,4(r5)
 18056e0:	b0800117 	ldw	r2,4(r22)
 18056e4:	1080004c 	andi	r2,r2,1
 18056e8:	2084b03a 	or	r2,r4,r2
 18056ec:	b0800115 	stw	r2,4(r22)
 18056f0:	313fdd2e 	bgeu	r6,r4,1805668 <_malloc_r+0x58c>
 18056f4:	b1400204 	addi	r5,r22,8
 18056f8:	9009883a 	mov	r4,r18
 18056fc:	18045540 	call	1804554 <_free_r>
 1805700:	e4000217 	ldw	r16,8(fp)
 1805704:	003fd806 	br	1805668 <_malloc_r+0x58c>
 1805708:	00800504 	movi	r2,20
 180570c:	11001536 	bltu	r2,r4,1805764 <_malloc_r+0x688>
 1805710:	210016c4 	addi	r4,r4,91
 1805714:	200690fa 	slli	r3,r4,3
 1805718:	003fa606 	br	18055b4 <_malloc_r+0x4d8>
 180571c:	8804d4ba 	srli	r2,r17,18
 1805720:	11801f04 	addi	r6,r2,124
 1805724:	300490fa 	slli	r2,r6,3
 1805728:	003e9906 	br	1805190 <_malloc_r+0xb4>
 180572c:	2009d0ba 	srai	r4,r4,2
 1805730:	01406074 	movhi	r5,385
 1805734:	29449704 	addi	r5,r5,4700
 1805738:	00c00044 	movi	r3,1
 180573c:	28800117 	ldw	r2,4(r5)
 1805740:	1906983a 	sll	r3,r3,r4
 1805744:	10c4b03a 	or	r2,r2,r3
 1805748:	28800115 	stw	r2,4(r5)
 180574c:	003fa306 	br	18055dc <_malloc_r+0x500>
 1805750:	0027883a 	mov	r19,zero
 1805754:	00c00044 	movi	r3,1
 1805758:	003f8606 	br	1805574 <_malloc_r+0x498>
 180575c:	d1200515 	stw	r4,-32748(gp)
 1805760:	003f7306 	br	1805530 <_malloc_r+0x454>
 1805764:	00801504 	movi	r2,84
 1805768:	11001936 	bltu	r2,r4,18057d0 <_malloc_r+0x6f4>
 180576c:	2804d33a 	srli	r2,r5,12
 1805770:	11001b84 	addi	r4,r2,110
 1805774:	200690fa 	slli	r3,r4,3
 1805778:	003f8e06 	br	18055b4 <_malloc_r+0x4d8>
 180577c:	480b883a 	mov	r5,r9
 1805780:	6807883a 	mov	r3,r13
 1805784:	288000cc 	andi	r2,r5,3
 1805788:	18fffe04 	addi	r3,r3,-8
 180578c:	297fffc4 	addi	r5,r5,-1
 1805790:	10001526 	beq	r2,zero,18057e8 <_malloc_r+0x70c>
 1805794:	18800217 	ldw	r2,8(r3)
 1805798:	10fffa26 	beq	r2,r3,1805784 <_malloc_r+0x6a8>
 180579c:	2109883a 	add	r4,r4,r4
 18057a0:	393f1e36 	bltu	r7,r4,180541c <_malloc_r+0x340>
 18057a4:	203f1d26 	beq	r4,zero,180541c <_malloc_r+0x340>
 18057a8:	21c4703a 	and	r2,r4,r7
 18057ac:	10000226 	beq	r2,zero,18057b8 <_malloc_r+0x6dc>
 18057b0:	6013883a 	mov	r9,r12
 18057b4:	003ee106 	br	180533c <_malloc_r+0x260>
 18057b8:	2109883a 	add	r4,r4,r4
 18057bc:	3904703a 	and	r2,r7,r4
 18057c0:	63000104 	addi	r12,r12,4
 18057c4:	103ffc26 	beq	r2,zero,18057b8 <_malloc_r+0x6dc>
 18057c8:	6013883a 	mov	r9,r12
 18057cc:	003edb06 	br	180533c <_malloc_r+0x260>
 18057d0:	00805504 	movi	r2,340
 18057d4:	11000836 	bltu	r2,r4,18057f8 <_malloc_r+0x71c>
 18057d8:	2804d3fa 	srli	r2,r5,15
 18057dc:	11001dc4 	addi	r4,r2,119
 18057e0:	200690fa 	slli	r3,r4,3
 18057e4:	003f7306 	br	18055b4 <_malloc_r+0x4d8>
 18057e8:	0104303a 	nor	r2,zero,r4
 18057ec:	388e703a 	and	r7,r7,r2
 18057f0:	e1c00115 	stw	r7,4(fp)
 18057f4:	003fe906 	br	180579c <_malloc_r+0x6c0>
 18057f8:	00815504 	movi	r2,1364
 18057fc:	1100032e 	bgeu	r2,r4,180580c <_malloc_r+0x730>
 1805800:	01001f84 	movi	r4,126
 1805804:	00c0fc04 	movi	r3,1008
 1805808:	003f6a06 	br	18055b4 <_malloc_r+0x4d8>
 180580c:	2804d4ba 	srli	r2,r5,18
 1805810:	11001f04 	addi	r4,r2,124
 1805814:	200690fa 	slli	r3,r4,3
 1805818:	003f6606 	br	18055b4 <_malloc_r+0x4d8>

0180581c <memchr>:
 180581c:	008000c4 	movi	r2,3
 1805820:	29403fcc 	andi	r5,r5,255
 1805824:	2007883a 	mov	r3,r4
 1805828:	1180022e 	bgeu	r2,r6,1805834 <memchr+0x18>
 180582c:	2084703a 	and	r2,r4,r2
 1805830:	10000b26 	beq	r2,zero,1805860 <memchr+0x44>
 1805834:	313fffc4 	addi	r4,r6,-1
 1805838:	3000051e 	bne	r6,zero,1805850 <memchr+0x34>
 180583c:	00002c06 	br	18058f0 <memchr+0xd4>
 1805840:	213fffc4 	addi	r4,r4,-1
 1805844:	00bfffc4 	movi	r2,-1
 1805848:	18c00044 	addi	r3,r3,1
 180584c:	20802826 	beq	r4,r2,18058f0 <memchr+0xd4>
 1805850:	18800003 	ldbu	r2,0(r3)
 1805854:	28bffa1e 	bne	r5,r2,1805840 <memchr+0x24>
 1805858:	1805883a 	mov	r2,r3
 180585c:	f800283a 	ret
 1805860:	0011883a 	mov	r8,zero
 1805864:	0007883a 	mov	r3,zero
 1805868:	01c00104 	movi	r7,4
 180586c:	4004923a 	slli	r2,r8,8
 1805870:	18c00044 	addi	r3,r3,1
 1805874:	1151883a 	add	r8,r2,r5
 1805878:	19fffc1e 	bne	r3,r7,180586c <memchr+0x50>
 180587c:	02bfbff4 	movhi	r10,65279
 1805880:	52bfbfc4 	addi	r10,r10,-257
 1805884:	02602074 	movhi	r9,32897
 1805888:	4a602004 	addi	r9,r9,-32640
 180588c:	02c000c4 	movi	r11,3
 1805890:	20800017 	ldw	r2,0(r4)
 1805894:	31bfff04 	addi	r6,r6,-4
 1805898:	200f883a 	mov	r7,r4
 180589c:	1204f03a 	xor	r2,r2,r8
 18058a0:	1287883a 	add	r3,r2,r10
 18058a4:	1a46703a 	and	r3,r3,r9
 18058a8:	0084303a 	nor	r2,zero,r2
 18058ac:	10c4703a 	and	r2,r2,r3
 18058b0:	10000b26 	beq	r2,zero,18058e0 <memchr+0xc4>
 18058b4:	20800003 	ldbu	r2,0(r4)
 18058b8:	28800f26 	beq	r5,r2,18058f8 <memchr+0xdc>
 18058bc:	20800043 	ldbu	r2,1(r4)
 18058c0:	21c00044 	addi	r7,r4,1
 18058c4:	28800c26 	beq	r5,r2,18058f8 <memchr+0xdc>
 18058c8:	20800083 	ldbu	r2,2(r4)
 18058cc:	21c00084 	addi	r7,r4,2
 18058d0:	28800926 	beq	r5,r2,18058f8 <memchr+0xdc>
 18058d4:	208000c3 	ldbu	r2,3(r4)
 18058d8:	21c000c4 	addi	r7,r4,3
 18058dc:	28800626 	beq	r5,r2,18058f8 <memchr+0xdc>
 18058e0:	21000104 	addi	r4,r4,4
 18058e4:	59bfea36 	bltu	r11,r6,1805890 <memchr+0x74>
 18058e8:	2007883a 	mov	r3,r4
 18058ec:	003fd106 	br	1805834 <memchr+0x18>
 18058f0:	0005883a 	mov	r2,zero
 18058f4:	f800283a 	ret
 18058f8:	3805883a 	mov	r2,r7
 18058fc:	f800283a 	ret

01805900 <memcpy>:
 1805900:	01c003c4 	movi	r7,15
 1805904:	2007883a 	mov	r3,r4
 1805908:	3980032e 	bgeu	r7,r6,1805918 <memcpy+0x18>
 180590c:	2904b03a 	or	r2,r5,r4
 1805910:	108000cc 	andi	r2,r2,3
 1805914:	10000926 	beq	r2,zero,180593c <memcpy+0x3c>
 1805918:	30000626 	beq	r6,zero,1805934 <memcpy+0x34>
 180591c:	30cd883a 	add	r6,r6,r3
 1805920:	28800003 	ldbu	r2,0(r5)
 1805924:	29400044 	addi	r5,r5,1
 1805928:	18800005 	stb	r2,0(r3)
 180592c:	18c00044 	addi	r3,r3,1
 1805930:	30fffb1e 	bne	r6,r3,1805920 <memcpy+0x20>
 1805934:	2005883a 	mov	r2,r4
 1805938:	f800283a 	ret
 180593c:	3811883a 	mov	r8,r7
 1805940:	200f883a 	mov	r7,r4
 1805944:	28c00017 	ldw	r3,0(r5)
 1805948:	31bffc04 	addi	r6,r6,-16
 180594c:	38c00015 	stw	r3,0(r7)
 1805950:	28800117 	ldw	r2,4(r5)
 1805954:	38800115 	stw	r2,4(r7)
 1805958:	28c00217 	ldw	r3,8(r5)
 180595c:	38c00215 	stw	r3,8(r7)
 1805960:	28800317 	ldw	r2,12(r5)
 1805964:	29400404 	addi	r5,r5,16
 1805968:	38800315 	stw	r2,12(r7)
 180596c:	39c00404 	addi	r7,r7,16
 1805970:	41bff436 	bltu	r8,r6,1805944 <memcpy+0x44>
 1805974:	008000c4 	movi	r2,3
 1805978:	1180072e 	bgeu	r2,r6,1805998 <memcpy+0x98>
 180597c:	1007883a 	mov	r3,r2
 1805980:	28800017 	ldw	r2,0(r5)
 1805984:	31bfff04 	addi	r6,r6,-4
 1805988:	29400104 	addi	r5,r5,4
 180598c:	38800015 	stw	r2,0(r7)
 1805990:	39c00104 	addi	r7,r7,4
 1805994:	19bffa36 	bltu	r3,r6,1805980 <memcpy+0x80>
 1805998:	3807883a 	mov	r3,r7
 180599c:	003fde06 	br	1805918 <memcpy+0x18>

018059a0 <memmove>:
 18059a0:	2807883a 	mov	r3,r5
 18059a4:	2011883a 	mov	r8,r4
 18059a8:	29000c2e 	bgeu	r5,r4,18059dc <memmove+0x3c>
 18059ac:	298f883a 	add	r7,r5,r6
 18059b0:	21c00a2e 	bgeu	r4,r7,18059dc <memmove+0x3c>
 18059b4:	30000726 	beq	r6,zero,18059d4 <memmove+0x34>
 18059b8:	2187883a 	add	r3,r4,r6
 18059bc:	198dc83a 	sub	r6,r3,r6
 18059c0:	39ffffc4 	addi	r7,r7,-1
 18059c4:	38800003 	ldbu	r2,0(r7)
 18059c8:	18ffffc4 	addi	r3,r3,-1
 18059cc:	18800005 	stb	r2,0(r3)
 18059d0:	19bffb1e 	bne	r3,r6,18059c0 <memmove+0x20>
 18059d4:	2005883a 	mov	r2,r4
 18059d8:	f800283a 	ret
 18059dc:	01c003c4 	movi	r7,15
 18059e0:	39800a36 	bltu	r7,r6,1805a0c <memmove+0x6c>
 18059e4:	303ffb26 	beq	r6,zero,18059d4 <memmove+0x34>
 18059e8:	400f883a 	mov	r7,r8
 18059ec:	320d883a 	add	r6,r6,r8
 18059f0:	28800003 	ldbu	r2,0(r5)
 18059f4:	29400044 	addi	r5,r5,1
 18059f8:	38800005 	stb	r2,0(r7)
 18059fc:	39c00044 	addi	r7,r7,1
 1805a00:	39bffb1e 	bne	r7,r6,18059f0 <memmove+0x50>
 1805a04:	2005883a 	mov	r2,r4
 1805a08:	f800283a 	ret
 1805a0c:	1904b03a 	or	r2,r3,r4
 1805a10:	108000cc 	andi	r2,r2,3
 1805a14:	103ff31e 	bne	r2,zero,18059e4 <memmove+0x44>
 1805a18:	3811883a 	mov	r8,r7
 1805a1c:	180b883a 	mov	r5,r3
 1805a20:	200f883a 	mov	r7,r4
 1805a24:	28c00017 	ldw	r3,0(r5)
 1805a28:	31bffc04 	addi	r6,r6,-16
 1805a2c:	38c00015 	stw	r3,0(r7)
 1805a30:	28800117 	ldw	r2,4(r5)
 1805a34:	38800115 	stw	r2,4(r7)
 1805a38:	28c00217 	ldw	r3,8(r5)
 1805a3c:	38c00215 	stw	r3,8(r7)
 1805a40:	28800317 	ldw	r2,12(r5)
 1805a44:	29400404 	addi	r5,r5,16
 1805a48:	38800315 	stw	r2,12(r7)
 1805a4c:	39c00404 	addi	r7,r7,16
 1805a50:	41bff436 	bltu	r8,r6,1805a24 <memmove+0x84>
 1805a54:	008000c4 	movi	r2,3
 1805a58:	1180072e 	bgeu	r2,r6,1805a78 <memmove+0xd8>
 1805a5c:	1007883a 	mov	r3,r2
 1805a60:	28800017 	ldw	r2,0(r5)
 1805a64:	31bfff04 	addi	r6,r6,-4
 1805a68:	29400104 	addi	r5,r5,4
 1805a6c:	38800015 	stw	r2,0(r7)
 1805a70:	39c00104 	addi	r7,r7,4
 1805a74:	19bffa36 	bltu	r3,r6,1805a60 <memmove+0xc0>
 1805a78:	3811883a 	mov	r8,r7
 1805a7c:	003fd906 	br	18059e4 <memmove+0x44>

01805a80 <memset>:
 1805a80:	008000c4 	movi	r2,3
 1805a84:	29403fcc 	andi	r5,r5,255
 1805a88:	2007883a 	mov	r3,r4
 1805a8c:	1180022e 	bgeu	r2,r6,1805a98 <memset+0x18>
 1805a90:	2084703a 	and	r2,r4,r2
 1805a94:	10000826 	beq	r2,zero,1805ab8 <memset+0x38>
 1805a98:	30000526 	beq	r6,zero,1805ab0 <memset+0x30>
 1805a9c:	2805883a 	mov	r2,r5
 1805aa0:	30cd883a 	add	r6,r6,r3
 1805aa4:	18800005 	stb	r2,0(r3)
 1805aa8:	18c00044 	addi	r3,r3,1
 1805aac:	19bffd1e 	bne	r3,r6,1805aa4 <memset+0x24>
 1805ab0:	2005883a 	mov	r2,r4
 1805ab4:	f800283a 	ret
 1805ab8:	2804923a 	slli	r2,r5,8
 1805abc:	020003c4 	movi	r8,15
 1805ac0:	200f883a 	mov	r7,r4
 1805ac4:	2884b03a 	or	r2,r5,r2
 1805ac8:	1006943a 	slli	r3,r2,16
 1805acc:	10c6b03a 	or	r3,r2,r3
 1805ad0:	41800a2e 	bgeu	r8,r6,1805afc <memset+0x7c>
 1805ad4:	4005883a 	mov	r2,r8
 1805ad8:	31bffc04 	addi	r6,r6,-16
 1805adc:	38c00015 	stw	r3,0(r7)
 1805ae0:	38c00115 	stw	r3,4(r7)
 1805ae4:	38c00215 	stw	r3,8(r7)
 1805ae8:	38c00315 	stw	r3,12(r7)
 1805aec:	39c00404 	addi	r7,r7,16
 1805af0:	11bff936 	bltu	r2,r6,1805ad8 <memset+0x58>
 1805af4:	008000c4 	movi	r2,3
 1805af8:	1180052e 	bgeu	r2,r6,1805b10 <memset+0x90>
 1805afc:	31bfff04 	addi	r6,r6,-4
 1805b00:	008000c4 	movi	r2,3
 1805b04:	38c00015 	stw	r3,0(r7)
 1805b08:	39c00104 	addi	r7,r7,4
 1805b0c:	11bffb36 	bltu	r2,r6,1805afc <memset+0x7c>
 1805b10:	3807883a 	mov	r3,r7
 1805b14:	003fe006 	br	1805a98 <memset+0x18>

01805b18 <_Bfree>:
 1805b18:	28000826 	beq	r5,zero,1805b3c <_Bfree+0x24>
 1805b1c:	28800117 	ldw	r2,4(r5)
 1805b20:	21001317 	ldw	r4,76(r4)
 1805b24:	1085883a 	add	r2,r2,r2
 1805b28:	1085883a 	add	r2,r2,r2
 1805b2c:	1105883a 	add	r2,r2,r4
 1805b30:	10c00017 	ldw	r3,0(r2)
 1805b34:	28c00015 	stw	r3,0(r5)
 1805b38:	11400015 	stw	r5,0(r2)
 1805b3c:	f800283a 	ret

01805b40 <__hi0bits>:
 1805b40:	20bfffec 	andhi	r2,r4,65535
 1805b44:	10001426 	beq	r2,zero,1805b98 <__hi0bits+0x58>
 1805b48:	0007883a 	mov	r3,zero
 1805b4c:	20bfc02c 	andhi	r2,r4,65280
 1805b50:	1000021e 	bne	r2,zero,1805b5c <__hi0bits+0x1c>
 1805b54:	2008923a 	slli	r4,r4,8
 1805b58:	18c00204 	addi	r3,r3,8
 1805b5c:	20bc002c 	andhi	r2,r4,61440
 1805b60:	1000021e 	bne	r2,zero,1805b6c <__hi0bits+0x2c>
 1805b64:	2008913a 	slli	r4,r4,4
 1805b68:	18c00104 	addi	r3,r3,4
 1805b6c:	20b0002c 	andhi	r2,r4,49152
 1805b70:	1000031e 	bne	r2,zero,1805b80 <__hi0bits+0x40>
 1805b74:	2105883a 	add	r2,r4,r4
 1805b78:	18c00084 	addi	r3,r3,2
 1805b7c:	1089883a 	add	r4,r2,r2
 1805b80:	20000316 	blt	r4,zero,1805b90 <__hi0bits+0x50>
 1805b84:	2090002c 	andhi	r2,r4,16384
 1805b88:	10000626 	beq	r2,zero,1805ba4 <__hi0bits+0x64>
 1805b8c:	18c00044 	addi	r3,r3,1
 1805b90:	1805883a 	mov	r2,r3
 1805b94:	f800283a 	ret
 1805b98:	2008943a 	slli	r4,r4,16
 1805b9c:	00c00404 	movi	r3,16
 1805ba0:	003fea06 	br	1805b4c <__hi0bits+0xc>
 1805ba4:	00c00804 	movi	r3,32
 1805ba8:	1805883a 	mov	r2,r3
 1805bac:	f800283a 	ret

01805bb0 <__lo0bits>:
 1805bb0:	20c00017 	ldw	r3,0(r4)
 1805bb4:	188001cc 	andi	r2,r3,7
 1805bb8:	10000a26 	beq	r2,zero,1805be4 <__lo0bits+0x34>
 1805bbc:	1880004c 	andi	r2,r3,1
 1805bc0:	1005003a 	cmpeq	r2,r2,zero
 1805bc4:	10002126 	beq	r2,zero,1805c4c <__lo0bits+0x9c>
 1805bc8:	1880008c 	andi	r2,r3,2
 1805bcc:	1000251e 	bne	r2,zero,1805c64 <__lo0bits+0xb4>
 1805bd0:	1804d0ba 	srli	r2,r3,2
 1805bd4:	01400084 	movi	r5,2
 1805bd8:	20800015 	stw	r2,0(r4)
 1805bdc:	2805883a 	mov	r2,r5
 1805be0:	f800283a 	ret
 1805be4:	18bfffcc 	andi	r2,r3,65535
 1805be8:	10001526 	beq	r2,zero,1805c40 <__lo0bits+0x90>
 1805bec:	000b883a 	mov	r5,zero
 1805bf0:	18803fcc 	andi	r2,r3,255
 1805bf4:	1000021e 	bne	r2,zero,1805c00 <__lo0bits+0x50>
 1805bf8:	1806d23a 	srli	r3,r3,8
 1805bfc:	29400204 	addi	r5,r5,8
 1805c00:	188003cc 	andi	r2,r3,15
 1805c04:	1000021e 	bne	r2,zero,1805c10 <__lo0bits+0x60>
 1805c08:	1806d13a 	srli	r3,r3,4
 1805c0c:	29400104 	addi	r5,r5,4
 1805c10:	188000cc 	andi	r2,r3,3
 1805c14:	1000021e 	bne	r2,zero,1805c20 <__lo0bits+0x70>
 1805c18:	1806d0ba 	srli	r3,r3,2
 1805c1c:	29400084 	addi	r5,r5,2
 1805c20:	1880004c 	andi	r2,r3,1
 1805c24:	1000031e 	bne	r2,zero,1805c34 <__lo0bits+0x84>
 1805c28:	1806d07a 	srli	r3,r3,1
 1805c2c:	18000a26 	beq	r3,zero,1805c58 <__lo0bits+0xa8>
 1805c30:	29400044 	addi	r5,r5,1
 1805c34:	2805883a 	mov	r2,r5
 1805c38:	20c00015 	stw	r3,0(r4)
 1805c3c:	f800283a 	ret
 1805c40:	1806d43a 	srli	r3,r3,16
 1805c44:	01400404 	movi	r5,16
 1805c48:	003fe906 	br	1805bf0 <__lo0bits+0x40>
 1805c4c:	000b883a 	mov	r5,zero
 1805c50:	2805883a 	mov	r2,r5
 1805c54:	f800283a 	ret
 1805c58:	01400804 	movi	r5,32
 1805c5c:	2805883a 	mov	r2,r5
 1805c60:	f800283a 	ret
 1805c64:	1804d07a 	srli	r2,r3,1
 1805c68:	01400044 	movi	r5,1
 1805c6c:	20800015 	stw	r2,0(r4)
 1805c70:	003fda06 	br	1805bdc <__lo0bits+0x2c>

01805c74 <__mcmp>:
 1805c74:	20800417 	ldw	r2,16(r4)
 1805c78:	28c00417 	ldw	r3,16(r5)
 1805c7c:	10cfc83a 	sub	r7,r2,r3
 1805c80:	38000c1e 	bne	r7,zero,1805cb4 <__mcmp+0x40>
 1805c84:	18c5883a 	add	r2,r3,r3
 1805c88:	1085883a 	add	r2,r2,r2
 1805c8c:	10c00504 	addi	r3,r2,20
 1805c90:	21000504 	addi	r4,r4,20
 1805c94:	28cb883a 	add	r5,r5,r3
 1805c98:	2085883a 	add	r2,r4,r2
 1805c9c:	10bfff04 	addi	r2,r2,-4
 1805ca0:	297fff04 	addi	r5,r5,-4
 1805ca4:	11800017 	ldw	r6,0(r2)
 1805ca8:	28c00017 	ldw	r3,0(r5)
 1805cac:	30c0031e 	bne	r6,r3,1805cbc <__mcmp+0x48>
 1805cb0:	20bffa36 	bltu	r4,r2,1805c9c <__mcmp+0x28>
 1805cb4:	3805883a 	mov	r2,r7
 1805cb8:	f800283a 	ret
 1805cbc:	30c00336 	bltu	r6,r3,1805ccc <__mcmp+0x58>
 1805cc0:	01c00044 	movi	r7,1
 1805cc4:	3805883a 	mov	r2,r7
 1805cc8:	f800283a 	ret
 1805ccc:	01ffffc4 	movi	r7,-1
 1805cd0:	003ff806 	br	1805cb4 <__mcmp+0x40>

01805cd4 <__ulp>:
 1805cd4:	295ffc2c 	andhi	r5,r5,32752
 1805cd8:	013f3034 	movhi	r4,64704
 1805cdc:	290b883a 	add	r5,r5,r4
 1805ce0:	0145c83a 	sub	r2,zero,r5
 1805ce4:	1007d53a 	srai	r3,r2,20
 1805ce8:	000d883a 	mov	r6,zero
 1805cec:	0140040e 	bge	zero,r5,1805d00 <__ulp+0x2c>
 1805cf0:	280f883a 	mov	r7,r5
 1805cf4:	3807883a 	mov	r3,r7
 1805cf8:	3005883a 	mov	r2,r6
 1805cfc:	f800283a 	ret
 1805d00:	008004c4 	movi	r2,19
 1805d04:	193ffb04 	addi	r4,r3,-20
 1805d08:	10c00c0e 	bge	r2,r3,1805d3c <__ulp+0x68>
 1805d0c:	008007c4 	movi	r2,31
 1805d10:	1107c83a 	sub	r3,r2,r4
 1805d14:	00800784 	movi	r2,30
 1805d18:	01400044 	movi	r5,1
 1805d1c:	11000216 	blt	r2,r4,1805d28 <__ulp+0x54>
 1805d20:	00800044 	movi	r2,1
 1805d24:	10ca983a 	sll	r5,r2,r3
 1805d28:	000f883a 	mov	r7,zero
 1805d2c:	280d883a 	mov	r6,r5
 1805d30:	3807883a 	mov	r3,r7
 1805d34:	3005883a 	mov	r2,r6
 1805d38:	f800283a 	ret
 1805d3c:	00800234 	movhi	r2,8
 1805d40:	10cfd83a 	sra	r7,r2,r3
 1805d44:	000d883a 	mov	r6,zero
 1805d48:	3005883a 	mov	r2,r6
 1805d4c:	3807883a 	mov	r3,r7
 1805d50:	f800283a 	ret

01805d54 <__b2d>:
 1805d54:	20800417 	ldw	r2,16(r4)
 1805d58:	defff904 	addi	sp,sp,-28
 1805d5c:	dd000415 	stw	r20,16(sp)
 1805d60:	1085883a 	add	r2,r2,r2
 1805d64:	25000504 	addi	r20,r4,20
 1805d68:	1085883a 	add	r2,r2,r2
 1805d6c:	dc000015 	stw	r16,0(sp)
 1805d70:	a0a1883a 	add	r16,r20,r2
 1805d74:	dd400515 	stw	r21,20(sp)
 1805d78:	857fff17 	ldw	r21,-4(r16)
 1805d7c:	dc400115 	stw	r17,4(sp)
 1805d80:	dfc00615 	stw	ra,24(sp)
 1805d84:	a809883a 	mov	r4,r21
 1805d88:	2823883a 	mov	r17,r5
 1805d8c:	dcc00315 	stw	r19,12(sp)
 1805d90:	dc800215 	stw	r18,8(sp)
 1805d94:	1805b400 	call	1805b40 <__hi0bits>
 1805d98:	100b883a 	mov	r5,r2
 1805d9c:	00800804 	movi	r2,32
 1805da0:	1145c83a 	sub	r2,r2,r5
 1805da4:	88800015 	stw	r2,0(r17)
 1805da8:	00800284 	movi	r2,10
 1805dac:	80ffff04 	addi	r3,r16,-4
 1805db0:	11401416 	blt	r2,r5,1805e04 <__b2d+0xb0>
 1805db4:	008002c4 	movi	r2,11
 1805db8:	1149c83a 	sub	r4,r2,r5
 1805dbc:	a0c02736 	bltu	r20,r3,1805e5c <__b2d+0x108>
 1805dc0:	000d883a 	mov	r6,zero
 1805dc4:	28800544 	addi	r2,r5,21
 1805dc8:	a906d83a 	srl	r3,r21,r4
 1805dcc:	a884983a 	sll	r2,r21,r2
 1805dd0:	1ccffc34 	orhi	r19,r3,16368
 1805dd4:	11a4b03a 	or	r18,r2,r6
 1805dd8:	9005883a 	mov	r2,r18
 1805ddc:	9807883a 	mov	r3,r19
 1805de0:	dfc00617 	ldw	ra,24(sp)
 1805de4:	dd400517 	ldw	r21,20(sp)
 1805de8:	dd000417 	ldw	r20,16(sp)
 1805dec:	dcc00317 	ldw	r19,12(sp)
 1805df0:	dc800217 	ldw	r18,8(sp)
 1805df4:	dc400117 	ldw	r17,4(sp)
 1805df8:	dc000017 	ldw	r16,0(sp)
 1805dfc:	dec00704 	addi	sp,sp,28
 1805e00:	f800283a 	ret
 1805e04:	a0c00e36 	bltu	r20,r3,1805e40 <__b2d+0xec>
 1805e08:	293ffd44 	addi	r4,r5,-11
 1805e0c:	000d883a 	mov	r6,zero
 1805e10:	20000f26 	beq	r4,zero,1805e50 <__b2d+0xfc>
 1805e14:	00800804 	movi	r2,32
 1805e18:	110bc83a 	sub	r5,r2,r4
 1805e1c:	a0c01236 	bltu	r20,r3,1805e68 <__b2d+0x114>
 1805e20:	000f883a 	mov	r7,zero
 1805e24:	a904983a 	sll	r2,r21,r4
 1805e28:	3146d83a 	srl	r3,r6,r5
 1805e2c:	3108983a 	sll	r4,r6,r4
 1805e30:	108ffc34 	orhi	r2,r2,16368
 1805e34:	18a6b03a 	or	r19,r3,r2
 1805e38:	3924b03a 	or	r18,r7,r4
 1805e3c:	003fe606 	br	1805dd8 <__b2d+0x84>
 1805e40:	293ffd44 	addi	r4,r5,-11
 1805e44:	81bffe17 	ldw	r6,-8(r16)
 1805e48:	80fffe04 	addi	r3,r16,-8
 1805e4c:	203ff11e 	bne	r4,zero,1805e14 <__b2d+0xc0>
 1805e50:	accffc34 	orhi	r19,r21,16368
 1805e54:	3025883a 	mov	r18,r6
 1805e58:	003fdf06 	br	1805dd8 <__b2d+0x84>
 1805e5c:	18bfff17 	ldw	r2,-4(r3)
 1805e60:	110cd83a 	srl	r6,r2,r4
 1805e64:	003fd706 	br	1805dc4 <__b2d+0x70>
 1805e68:	18bfff17 	ldw	r2,-4(r3)
 1805e6c:	114ed83a 	srl	r7,r2,r5
 1805e70:	003fec06 	br	1805e24 <__b2d+0xd0>

01805e74 <__ratio>:
 1805e74:	defff904 	addi	sp,sp,-28
 1805e78:	dc400215 	stw	r17,8(sp)
 1805e7c:	2823883a 	mov	r17,r5
 1805e80:	d80b883a 	mov	r5,sp
 1805e84:	dfc00615 	stw	ra,24(sp)
 1805e88:	dd000515 	stw	r20,20(sp)
 1805e8c:	dcc00415 	stw	r19,16(sp)
 1805e90:	dc800315 	stw	r18,12(sp)
 1805e94:	2025883a 	mov	r18,r4
 1805e98:	1805d540 	call	1805d54 <__b2d>
 1805e9c:	8809883a 	mov	r4,r17
 1805ea0:	d9400104 	addi	r5,sp,4
 1805ea4:	1027883a 	mov	r19,r2
 1805ea8:	1829883a 	mov	r20,r3
 1805eac:	1805d540 	call	1805d54 <__b2d>
 1805eb0:	89000417 	ldw	r4,16(r17)
 1805eb4:	91c00417 	ldw	r7,16(r18)
 1805eb8:	d9800117 	ldw	r6,4(sp)
 1805ebc:	180b883a 	mov	r5,r3
 1805ec0:	390fc83a 	sub	r7,r7,r4
 1805ec4:	1009883a 	mov	r4,r2
 1805ec8:	d8800017 	ldw	r2,0(sp)
 1805ecc:	380e917a 	slli	r7,r7,5
 1805ed0:	2011883a 	mov	r8,r4
 1805ed4:	1185c83a 	sub	r2,r2,r6
 1805ed8:	11c5883a 	add	r2,r2,r7
 1805edc:	1006953a 	slli	r3,r2,20
 1805ee0:	2813883a 	mov	r9,r5
 1805ee4:	00800d0e 	bge	zero,r2,1805f1c <__ratio+0xa8>
 1805ee8:	1d29883a 	add	r20,r3,r20
 1805eec:	a00b883a 	mov	r5,r20
 1805ef0:	480f883a 	mov	r7,r9
 1805ef4:	9809883a 	mov	r4,r19
 1805ef8:	400d883a 	mov	r6,r8
 1805efc:	1808cd00 	call	1808cd0 <__divdf3>
 1805f00:	dfc00617 	ldw	ra,24(sp)
 1805f04:	dd000517 	ldw	r20,20(sp)
 1805f08:	dcc00417 	ldw	r19,16(sp)
 1805f0c:	dc800317 	ldw	r18,12(sp)
 1805f10:	dc400217 	ldw	r17,8(sp)
 1805f14:	dec00704 	addi	sp,sp,28
 1805f18:	f800283a 	ret
 1805f1c:	28d3c83a 	sub	r9,r5,r3
 1805f20:	003ff206 	br	1805eec <__ratio+0x78>

01805f24 <_mprec_log10>:
 1805f24:	defffe04 	addi	sp,sp,-8
 1805f28:	008005c4 	movi	r2,23
 1805f2c:	dc000015 	stw	r16,0(sp)
 1805f30:	dfc00115 	stw	ra,4(sp)
 1805f34:	2021883a 	mov	r16,r4
 1805f38:	11000c16 	blt	r2,r4,1805f6c <_mprec_log10+0x48>
 1805f3c:	200490fa 	slli	r2,r4,3
 1805f40:	00c06074 	movhi	r3,385
 1805f44:	18c25004 	addi	r3,r3,2368
 1805f48:	10c5883a 	add	r2,r2,r3
 1805f4c:	12400117 	ldw	r9,4(r2)
 1805f50:	12000017 	ldw	r8,0(r2)
 1805f54:	4807883a 	mov	r3,r9
 1805f58:	4005883a 	mov	r2,r8
 1805f5c:	dfc00117 	ldw	ra,4(sp)
 1805f60:	dc000017 	ldw	r16,0(sp)
 1805f64:	dec00204 	addi	sp,sp,8
 1805f68:	f800283a 	ret
 1805f6c:	0011883a 	mov	r8,zero
 1805f70:	024ffc34 	movhi	r9,16368
 1805f74:	0005883a 	mov	r2,zero
 1805f78:	00d00934 	movhi	r3,16420
 1805f7c:	480b883a 	mov	r5,r9
 1805f80:	4009883a 	mov	r4,r8
 1805f84:	180f883a 	mov	r7,r3
 1805f88:	100d883a 	mov	r6,r2
 1805f8c:	180890c0 	call	180890c <__muldf3>
 1805f90:	843fffc4 	addi	r16,r16,-1
 1805f94:	1011883a 	mov	r8,r2
 1805f98:	1813883a 	mov	r9,r3
 1805f9c:	803ff51e 	bne	r16,zero,1805f74 <_mprec_log10+0x50>
 1805fa0:	4005883a 	mov	r2,r8
 1805fa4:	4807883a 	mov	r3,r9
 1805fa8:	dfc00117 	ldw	ra,4(sp)
 1805fac:	dc000017 	ldw	r16,0(sp)
 1805fb0:	dec00204 	addi	sp,sp,8
 1805fb4:	f800283a 	ret

01805fb8 <__copybits>:
 1805fb8:	297fffc4 	addi	r5,r5,-1
 1805fbc:	30800417 	ldw	r2,16(r6)
 1805fc0:	280bd17a 	srai	r5,r5,5
 1805fc4:	31800504 	addi	r6,r6,20
 1805fc8:	1085883a 	add	r2,r2,r2
 1805fcc:	294b883a 	add	r5,r5,r5
 1805fd0:	294b883a 	add	r5,r5,r5
 1805fd4:	1085883a 	add	r2,r2,r2
 1805fd8:	290b883a 	add	r5,r5,r4
 1805fdc:	3087883a 	add	r3,r6,r2
 1805fe0:	29400104 	addi	r5,r5,4
 1805fe4:	30c0052e 	bgeu	r6,r3,1805ffc <__copybits+0x44>
 1805fe8:	30800017 	ldw	r2,0(r6)
 1805fec:	31800104 	addi	r6,r6,4
 1805ff0:	20800015 	stw	r2,0(r4)
 1805ff4:	21000104 	addi	r4,r4,4
 1805ff8:	30fffb36 	bltu	r6,r3,1805fe8 <__copybits+0x30>
 1805ffc:	2140032e 	bgeu	r4,r5,180600c <__copybits+0x54>
 1806000:	20000015 	stw	zero,0(r4)
 1806004:	21000104 	addi	r4,r4,4
 1806008:	217ffd36 	bltu	r4,r5,1806000 <__copybits+0x48>
 180600c:	f800283a 	ret

01806010 <__any_on>:
 1806010:	20800417 	ldw	r2,16(r4)
 1806014:	2807d17a 	srai	r3,r5,5
 1806018:	21000504 	addi	r4,r4,20
 180601c:	10c00d0e 	bge	r2,r3,1806054 <__any_on+0x44>
 1806020:	1085883a 	add	r2,r2,r2
 1806024:	1085883a 	add	r2,r2,r2
 1806028:	208d883a 	add	r6,r4,r2
 180602c:	2180182e 	bgeu	r4,r6,1806090 <__any_on+0x80>
 1806030:	30bfff17 	ldw	r2,-4(r6)
 1806034:	30ffff04 	addi	r3,r6,-4
 1806038:	1000041e 	bne	r2,zero,180604c <__any_on+0x3c>
 180603c:	20c0142e 	bgeu	r4,r3,1806090 <__any_on+0x80>
 1806040:	18ffff04 	addi	r3,r3,-4
 1806044:	18800017 	ldw	r2,0(r3)
 1806048:	103ffc26 	beq	r2,zero,180603c <__any_on+0x2c>
 180604c:	00800044 	movi	r2,1
 1806050:	f800283a 	ret
 1806054:	18800a0e 	bge	r3,r2,1806080 <__any_on+0x70>
 1806058:	294007cc 	andi	r5,r5,31
 180605c:	28000826 	beq	r5,zero,1806080 <__any_on+0x70>
 1806060:	18c5883a 	add	r2,r3,r3
 1806064:	1085883a 	add	r2,r2,r2
 1806068:	208d883a 	add	r6,r4,r2
 180606c:	30c00017 	ldw	r3,0(r6)
 1806070:	1944d83a 	srl	r2,r3,r5
 1806074:	1144983a 	sll	r2,r2,r5
 1806078:	18bff41e 	bne	r3,r2,180604c <__any_on+0x3c>
 180607c:	003feb06 	br	180602c <__any_on+0x1c>
 1806080:	18c5883a 	add	r2,r3,r3
 1806084:	1085883a 	add	r2,r2,r2
 1806088:	208d883a 	add	r6,r4,r2
 180608c:	003fe706 	br	180602c <__any_on+0x1c>
 1806090:	0005883a 	mov	r2,zero
 1806094:	f800283a 	ret

01806098 <_Balloc>:
 1806098:	20c01317 	ldw	r3,76(r4)
 180609c:	defffb04 	addi	sp,sp,-20
 18060a0:	dcc00315 	stw	r19,12(sp)
 18060a4:	dc800215 	stw	r18,8(sp)
 18060a8:	dfc00415 	stw	ra,16(sp)
 18060ac:	2825883a 	mov	r18,r5
 18060b0:	dc400115 	stw	r17,4(sp)
 18060b4:	dc000015 	stw	r16,0(sp)
 18060b8:	2027883a 	mov	r19,r4
 18060bc:	01800404 	movi	r6,16
 18060c0:	01400104 	movi	r5,4
 18060c4:	18001726 	beq	r3,zero,1806124 <_Balloc+0x8c>
 18060c8:	01400044 	movi	r5,1
 18060cc:	9485883a 	add	r2,r18,r18
 18060d0:	2ca2983a 	sll	r17,r5,r18
 18060d4:	1085883a 	add	r2,r2,r2
 18060d8:	10c7883a 	add	r3,r2,r3
 18060dc:	1c000017 	ldw	r16,0(r3)
 18060e0:	8c4d883a 	add	r6,r17,r17
 18060e4:	318d883a 	add	r6,r6,r6
 18060e8:	9809883a 	mov	r4,r19
 18060ec:	31800504 	addi	r6,r6,20
 18060f0:	80001226 	beq	r16,zero,180613c <_Balloc+0xa4>
 18060f4:	80800017 	ldw	r2,0(r16)
 18060f8:	18800015 	stw	r2,0(r3)
 18060fc:	80000415 	stw	zero,16(r16)
 1806100:	80000315 	stw	zero,12(r16)
 1806104:	8005883a 	mov	r2,r16
 1806108:	dfc00417 	ldw	ra,16(sp)
 180610c:	dcc00317 	ldw	r19,12(sp)
 1806110:	dc800217 	ldw	r18,8(sp)
 1806114:	dc400117 	ldw	r17,4(sp)
 1806118:	dc000017 	ldw	r16,0(sp)
 180611c:	dec00504 	addi	sp,sp,20
 1806120:	f800283a 	ret
 1806124:	18074600 	call	1807460 <_calloc_r>
 1806128:	1007883a 	mov	r3,r2
 180612c:	0021883a 	mov	r16,zero
 1806130:	98801315 	stw	r2,76(r19)
 1806134:	103fe41e 	bne	r2,zero,18060c8 <_Balloc+0x30>
 1806138:	003ff206 	br	1806104 <_Balloc+0x6c>
 180613c:	18074600 	call	1807460 <_calloc_r>
 1806140:	103ff026 	beq	r2,zero,1806104 <_Balloc+0x6c>
 1806144:	1021883a 	mov	r16,r2
 1806148:	14800115 	stw	r18,4(r2)
 180614c:	14400215 	stw	r17,8(r2)
 1806150:	003fea06 	br	18060fc <_Balloc+0x64>

01806154 <__d2b>:
 1806154:	defff504 	addi	sp,sp,-44
 1806158:	dcc00515 	stw	r19,20(sp)
 180615c:	04c00044 	movi	r19,1
 1806160:	dc000215 	stw	r16,8(sp)
 1806164:	2821883a 	mov	r16,r5
 1806168:	980b883a 	mov	r5,r19
 180616c:	ddc00915 	stw	r23,36(sp)
 1806170:	dd800815 	stw	r22,32(sp)
 1806174:	dd400715 	stw	r21,28(sp)
 1806178:	dd000615 	stw	r20,24(sp)
 180617c:	dc800415 	stw	r18,16(sp)
 1806180:	dc400315 	stw	r17,12(sp)
 1806184:	dfc00a15 	stw	ra,40(sp)
 1806188:	3023883a 	mov	r17,r6
 180618c:	382d883a 	mov	r22,r7
 1806190:	ddc00b17 	ldw	r23,44(sp)
 1806194:	18060980 	call	1806098 <_Balloc>
 1806198:	1025883a 	mov	r18,r2
 180619c:	00a00034 	movhi	r2,32768
 18061a0:	10bfffc4 	addi	r2,r2,-1
 18061a4:	8888703a 	and	r4,r17,r2
 18061a8:	202ad53a 	srli	r21,r4,20
 18061ac:	00800434 	movhi	r2,16
 18061b0:	10bfffc4 	addi	r2,r2,-1
 18061b4:	8886703a 	and	r3,r17,r2
 18061b8:	a829003a 	cmpeq	r20,r21,zero
 18061bc:	800b883a 	mov	r5,r16
 18061c0:	d8c00115 	stw	r3,4(sp)
 18061c4:	94000504 	addi	r16,r18,20
 18061c8:	a000021e 	bne	r20,zero,18061d4 <__d2b+0x80>
 18061cc:	18c00434 	orhi	r3,r3,16
 18061d0:	d8c00115 	stw	r3,4(sp)
 18061d4:	28002726 	beq	r5,zero,1806274 <__d2b+0x120>
 18061d8:	d809883a 	mov	r4,sp
 18061dc:	d9400015 	stw	r5,0(sp)
 18061e0:	1805bb00 	call	1805bb0 <__lo0bits>
 18061e4:	100d883a 	mov	r6,r2
 18061e8:	10003526 	beq	r2,zero,18062c0 <__d2b+0x16c>
 18061ec:	d8c00117 	ldw	r3,4(sp)
 18061f0:	00800804 	movi	r2,32
 18061f4:	1185c83a 	sub	r2,r2,r6
 18061f8:	d9000017 	ldw	r4,0(sp)
 18061fc:	1886983a 	sll	r3,r3,r2
 1806200:	1906b03a 	or	r3,r3,r4
 1806204:	90c00515 	stw	r3,20(r18)
 1806208:	d8c00117 	ldw	r3,4(sp)
 180620c:	1986d83a 	srl	r3,r3,r6
 1806210:	d8c00115 	stw	r3,4(sp)
 1806214:	180b003a 	cmpeq	r5,r3,zero
 1806218:	00800084 	movi	r2,2
 180621c:	114bc83a 	sub	r5,r2,r5
 1806220:	80c00115 	stw	r3,4(r16)
 1806224:	91400415 	stw	r5,16(r18)
 1806228:	a0001a1e 	bne	r20,zero,1806294 <__d2b+0x140>
 180622c:	3545883a 	add	r2,r6,r21
 1806230:	10bef344 	addi	r2,r2,-1075
 1806234:	00c00d44 	movi	r3,53
 1806238:	b0800015 	stw	r2,0(r22)
 180623c:	1987c83a 	sub	r3,r3,r6
 1806240:	b8c00015 	stw	r3,0(r23)
 1806244:	9005883a 	mov	r2,r18
 1806248:	dfc00a17 	ldw	ra,40(sp)
 180624c:	ddc00917 	ldw	r23,36(sp)
 1806250:	dd800817 	ldw	r22,32(sp)
 1806254:	dd400717 	ldw	r21,28(sp)
 1806258:	dd000617 	ldw	r20,24(sp)
 180625c:	dcc00517 	ldw	r19,20(sp)
 1806260:	dc800417 	ldw	r18,16(sp)
 1806264:	dc400317 	ldw	r17,12(sp)
 1806268:	dc000217 	ldw	r16,8(sp)
 180626c:	dec00b04 	addi	sp,sp,44
 1806270:	f800283a 	ret
 1806274:	d9000104 	addi	r4,sp,4
 1806278:	1805bb00 	call	1805bb0 <__lo0bits>
 180627c:	11800804 	addi	r6,r2,32
 1806280:	d8800117 	ldw	r2,4(sp)
 1806284:	94c00415 	stw	r19,16(r18)
 1806288:	980b883a 	mov	r5,r19
 180628c:	90800515 	stw	r2,20(r18)
 1806290:	a03fe626 	beq	r20,zero,180622c <__d2b+0xd8>
 1806294:	2945883a 	add	r2,r5,r5
 1806298:	1085883a 	add	r2,r2,r2
 180629c:	1405883a 	add	r2,r2,r16
 18062a0:	113fff17 	ldw	r4,-4(r2)
 18062a4:	30fef384 	addi	r3,r6,-1074
 18062a8:	2820917a 	slli	r16,r5,5
 18062ac:	b0c00015 	stw	r3,0(r22)
 18062b0:	1805b400 	call	1805b40 <__hi0bits>
 18062b4:	80a1c83a 	sub	r16,r16,r2
 18062b8:	bc000015 	stw	r16,0(r23)
 18062bc:	003fe106 	br	1806244 <__d2b+0xf0>
 18062c0:	d8800017 	ldw	r2,0(sp)
 18062c4:	90800515 	stw	r2,20(r18)
 18062c8:	d8c00117 	ldw	r3,4(sp)
 18062cc:	003fd106 	br	1806214 <__d2b+0xc0>

018062d0 <__mdiff>:
 18062d0:	defffb04 	addi	sp,sp,-20
 18062d4:	dc000015 	stw	r16,0(sp)
 18062d8:	2821883a 	mov	r16,r5
 18062dc:	dc800215 	stw	r18,8(sp)
 18062e0:	300b883a 	mov	r5,r6
 18062e4:	2025883a 	mov	r18,r4
 18062e8:	8009883a 	mov	r4,r16
 18062ec:	dc400115 	stw	r17,4(sp)
 18062f0:	dfc00415 	stw	ra,16(sp)
 18062f4:	dcc00315 	stw	r19,12(sp)
 18062f8:	3023883a 	mov	r17,r6
 18062fc:	1805c740 	call	1805c74 <__mcmp>
 1806300:	10004226 	beq	r2,zero,180640c <__mdiff+0x13c>
 1806304:	10005016 	blt	r2,zero,1806448 <__mdiff+0x178>
 1806308:	0027883a 	mov	r19,zero
 180630c:	81400117 	ldw	r5,4(r16)
 1806310:	9009883a 	mov	r4,r18
 1806314:	18060980 	call	1806098 <_Balloc>
 1806318:	1019883a 	mov	r12,r2
 180631c:	82800417 	ldw	r10,16(r16)
 1806320:	88800417 	ldw	r2,16(r17)
 1806324:	81800504 	addi	r6,r16,20
 1806328:	5287883a 	add	r3,r10,r10
 180632c:	1085883a 	add	r2,r2,r2
 1806330:	18c7883a 	add	r3,r3,r3
 1806334:	1085883a 	add	r2,r2,r2
 1806338:	8a000504 	addi	r8,r17,20
 180633c:	64c00315 	stw	r19,12(r12)
 1806340:	30db883a 	add	r13,r6,r3
 1806344:	4097883a 	add	r11,r8,r2
 1806348:	61c00504 	addi	r7,r12,20
 180634c:	0013883a 	mov	r9,zero
 1806350:	31000017 	ldw	r4,0(r6)
 1806354:	41400017 	ldw	r5,0(r8)
 1806358:	42000104 	addi	r8,r8,4
 180635c:	20bfffcc 	andi	r2,r4,65535
 1806360:	28ffffcc 	andi	r3,r5,65535
 1806364:	10c5c83a 	sub	r2,r2,r3
 1806368:	1245883a 	add	r2,r2,r9
 180636c:	2008d43a 	srli	r4,r4,16
 1806370:	280ad43a 	srli	r5,r5,16
 1806374:	1007d43a 	srai	r3,r2,16
 1806378:	3880000d 	sth	r2,0(r7)
 180637c:	2149c83a 	sub	r4,r4,r5
 1806380:	20c9883a 	add	r4,r4,r3
 1806384:	3900008d 	sth	r4,2(r7)
 1806388:	31800104 	addi	r6,r6,4
 180638c:	39c00104 	addi	r7,r7,4
 1806390:	2013d43a 	srai	r9,r4,16
 1806394:	42ffee36 	bltu	r8,r11,1806350 <__mdiff+0x80>
 1806398:	33400c2e 	bgeu	r6,r13,18063cc <__mdiff+0xfc>
 180639c:	30800017 	ldw	r2,0(r6)
 18063a0:	31800104 	addi	r6,r6,4
 18063a4:	10ffffcc 	andi	r3,r2,65535
 18063a8:	1a47883a 	add	r3,r3,r9
 18063ac:	1004d43a 	srli	r2,r2,16
 18063b0:	1809d43a 	srai	r4,r3,16
 18063b4:	38c0000d 	sth	r3,0(r7)
 18063b8:	1105883a 	add	r2,r2,r4
 18063bc:	3880008d 	sth	r2,2(r7)
 18063c0:	1013d43a 	srai	r9,r2,16
 18063c4:	39c00104 	addi	r7,r7,4
 18063c8:	337ff436 	bltu	r6,r13,180639c <__mdiff+0xcc>
 18063cc:	38bfff17 	ldw	r2,-4(r7)
 18063d0:	38ffff04 	addi	r3,r7,-4
 18063d4:	1000041e 	bne	r2,zero,18063e8 <__mdiff+0x118>
 18063d8:	18ffff04 	addi	r3,r3,-4
 18063dc:	18800017 	ldw	r2,0(r3)
 18063e0:	52bfffc4 	addi	r10,r10,-1
 18063e4:	103ffc26 	beq	r2,zero,18063d8 <__mdiff+0x108>
 18063e8:	6005883a 	mov	r2,r12
 18063ec:	62800415 	stw	r10,16(r12)
 18063f0:	dfc00417 	ldw	ra,16(sp)
 18063f4:	dcc00317 	ldw	r19,12(sp)
 18063f8:	dc800217 	ldw	r18,8(sp)
 18063fc:	dc400117 	ldw	r17,4(sp)
 1806400:	dc000017 	ldw	r16,0(sp)
 1806404:	dec00504 	addi	sp,sp,20
 1806408:	f800283a 	ret
 180640c:	9009883a 	mov	r4,r18
 1806410:	000b883a 	mov	r5,zero
 1806414:	18060980 	call	1806098 <_Balloc>
 1806418:	1019883a 	mov	r12,r2
 180641c:	00800044 	movi	r2,1
 1806420:	60800415 	stw	r2,16(r12)
 1806424:	6005883a 	mov	r2,r12
 1806428:	60000515 	stw	zero,20(r12)
 180642c:	dfc00417 	ldw	ra,16(sp)
 1806430:	dcc00317 	ldw	r19,12(sp)
 1806434:	dc800217 	ldw	r18,8(sp)
 1806438:	dc400117 	ldw	r17,4(sp)
 180643c:	dc000017 	ldw	r16,0(sp)
 1806440:	dec00504 	addi	sp,sp,20
 1806444:	f800283a 	ret
 1806448:	880d883a 	mov	r6,r17
 180644c:	04c00044 	movi	r19,1
 1806450:	8023883a 	mov	r17,r16
 1806454:	3021883a 	mov	r16,r6
 1806458:	003fac06 	br	180630c <__mdiff+0x3c>

0180645c <__lshift>:
 180645c:	defff904 	addi	sp,sp,-28
 1806460:	28800417 	ldw	r2,16(r5)
 1806464:	dc000015 	stw	r16,0(sp)
 1806468:	3021d17a 	srai	r16,r6,5
 180646c:	28c00217 	ldw	r3,8(r5)
 1806470:	10800044 	addi	r2,r2,1
 1806474:	dc400115 	stw	r17,4(sp)
 1806478:	80a3883a 	add	r17,r16,r2
 180647c:	dd400515 	stw	r21,20(sp)
 1806480:	dd000415 	stw	r20,16(sp)
 1806484:	dc800215 	stw	r18,8(sp)
 1806488:	dfc00615 	stw	ra,24(sp)
 180648c:	2825883a 	mov	r18,r5
 1806490:	dcc00315 	stw	r19,12(sp)
 1806494:	3029883a 	mov	r20,r6
 1806498:	202b883a 	mov	r21,r4
 180649c:	29400117 	ldw	r5,4(r5)
 18064a0:	1c40030e 	bge	r3,r17,18064b0 <__lshift+0x54>
 18064a4:	18c7883a 	add	r3,r3,r3
 18064a8:	29400044 	addi	r5,r5,1
 18064ac:	1c7ffd16 	blt	r3,r17,18064a4 <__lshift+0x48>
 18064b0:	a809883a 	mov	r4,r21
 18064b4:	18060980 	call	1806098 <_Balloc>
 18064b8:	1027883a 	mov	r19,r2
 18064bc:	11400504 	addi	r5,r2,20
 18064c0:	0400090e 	bge	zero,r16,18064e8 <__lshift+0x8c>
 18064c4:	2805883a 	mov	r2,r5
 18064c8:	0007883a 	mov	r3,zero
 18064cc:	18c00044 	addi	r3,r3,1
 18064d0:	10000015 	stw	zero,0(r2)
 18064d4:	10800104 	addi	r2,r2,4
 18064d8:	80fffc1e 	bne	r16,r3,18064cc <__lshift+0x70>
 18064dc:	8405883a 	add	r2,r16,r16
 18064e0:	1085883a 	add	r2,r2,r2
 18064e4:	288b883a 	add	r5,r5,r2
 18064e8:	90800417 	ldw	r2,16(r18)
 18064ec:	91000504 	addi	r4,r18,20
 18064f0:	a18007cc 	andi	r6,r20,31
 18064f4:	1085883a 	add	r2,r2,r2
 18064f8:	1085883a 	add	r2,r2,r2
 18064fc:	208f883a 	add	r7,r4,r2
 1806500:	30001e26 	beq	r6,zero,180657c <__lshift+0x120>
 1806504:	00800804 	movi	r2,32
 1806508:	1191c83a 	sub	r8,r2,r6
 180650c:	0007883a 	mov	r3,zero
 1806510:	20800017 	ldw	r2,0(r4)
 1806514:	1184983a 	sll	r2,r2,r6
 1806518:	1884b03a 	or	r2,r3,r2
 180651c:	28800015 	stw	r2,0(r5)
 1806520:	20c00017 	ldw	r3,0(r4)
 1806524:	21000104 	addi	r4,r4,4
 1806528:	29400104 	addi	r5,r5,4
 180652c:	1a06d83a 	srl	r3,r3,r8
 1806530:	21fff736 	bltu	r4,r7,1806510 <__lshift+0xb4>
 1806534:	28c00015 	stw	r3,0(r5)
 1806538:	18000126 	beq	r3,zero,1806540 <__lshift+0xe4>
 180653c:	8c400044 	addi	r17,r17,1
 1806540:	88bfffc4 	addi	r2,r17,-1
 1806544:	98800415 	stw	r2,16(r19)
 1806548:	a809883a 	mov	r4,r21
 180654c:	900b883a 	mov	r5,r18
 1806550:	1805b180 	call	1805b18 <_Bfree>
 1806554:	9805883a 	mov	r2,r19
 1806558:	dfc00617 	ldw	ra,24(sp)
 180655c:	dd400517 	ldw	r21,20(sp)
 1806560:	dd000417 	ldw	r20,16(sp)
 1806564:	dcc00317 	ldw	r19,12(sp)
 1806568:	dc800217 	ldw	r18,8(sp)
 180656c:	dc400117 	ldw	r17,4(sp)
 1806570:	dc000017 	ldw	r16,0(sp)
 1806574:	dec00704 	addi	sp,sp,28
 1806578:	f800283a 	ret
 180657c:	20800017 	ldw	r2,0(r4)
 1806580:	21000104 	addi	r4,r4,4
 1806584:	28800015 	stw	r2,0(r5)
 1806588:	29400104 	addi	r5,r5,4
 180658c:	21ffec2e 	bgeu	r4,r7,1806540 <__lshift+0xe4>
 1806590:	20800017 	ldw	r2,0(r4)
 1806594:	21000104 	addi	r4,r4,4
 1806598:	28800015 	stw	r2,0(r5)
 180659c:	29400104 	addi	r5,r5,4
 18065a0:	21fff636 	bltu	r4,r7,180657c <__lshift+0x120>
 18065a4:	003fe606 	br	1806540 <__lshift+0xe4>

018065a8 <__multiply>:
 18065a8:	defff904 	addi	sp,sp,-28
 18065ac:	dcc00315 	stw	r19,12(sp)
 18065b0:	dc800215 	stw	r18,8(sp)
 18065b4:	2cc00417 	ldw	r19,16(r5)
 18065b8:	34800417 	ldw	r18,16(r6)
 18065bc:	dd000415 	stw	r20,16(sp)
 18065c0:	dc400115 	stw	r17,4(sp)
 18065c4:	dfc00615 	stw	ra,24(sp)
 18065c8:	dd400515 	stw	r21,20(sp)
 18065cc:	dc000015 	stw	r16,0(sp)
 18065d0:	2823883a 	mov	r17,r5
 18065d4:	3029883a 	mov	r20,r6
 18065d8:	9c80040e 	bge	r19,r18,18065ec <__multiply+0x44>
 18065dc:	9027883a 	mov	r19,r18
 18065e0:	2c800417 	ldw	r18,16(r5)
 18065e4:	2829883a 	mov	r20,r5
 18065e8:	3023883a 	mov	r17,r6
 18065ec:	88800217 	ldw	r2,8(r17)
 18065f0:	9ca1883a 	add	r16,r19,r18
 18065f4:	89400117 	ldw	r5,4(r17)
 18065f8:	1400010e 	bge	r2,r16,1806600 <__multiply+0x58>
 18065fc:	29400044 	addi	r5,r5,1
 1806600:	18060980 	call	1806098 <_Balloc>
 1806604:	102b883a 	mov	r21,r2
 1806608:	8405883a 	add	r2,r16,r16
 180660c:	1085883a 	add	r2,r2,r2
 1806610:	a9000504 	addi	r4,r21,20
 1806614:	209d883a 	add	r14,r4,r2
 1806618:	2380042e 	bgeu	r4,r14,180662c <__multiply+0x84>
 180661c:	2005883a 	mov	r2,r4
 1806620:	10000015 	stw	zero,0(r2)
 1806624:	10800104 	addi	r2,r2,4
 1806628:	13bffd36 	bltu	r2,r14,1806620 <__multiply+0x78>
 180662c:	9485883a 	add	r2,r18,r18
 1806630:	9cc7883a 	add	r3,r19,r19
 1806634:	a1800504 	addi	r6,r20,20
 1806638:	1085883a 	add	r2,r2,r2
 180663c:	8b400504 	addi	r13,r17,20
 1806640:	18c7883a 	add	r3,r3,r3
 1806644:	309f883a 	add	r15,r6,r2
 1806648:	68d7883a 	add	r11,r13,r3
 180664c:	33c03b2e 	bgeu	r6,r15,180673c <__multiply+0x194>
 1806650:	2019883a 	mov	r12,r4
 1806654:	30800017 	ldw	r2,0(r6)
 1806658:	127fffcc 	andi	r9,r2,65535
 180665c:	48001826 	beq	r9,zero,18066c0 <__multiply+0x118>
 1806660:	6811883a 	mov	r8,r13
 1806664:	600f883a 	mov	r7,r12
 1806668:	0015883a 	mov	r10,zero
 180666c:	40c00017 	ldw	r3,0(r8)
 1806670:	39400017 	ldw	r5,0(r7)
 1806674:	42000104 	addi	r8,r8,4
 1806678:	193fffcc 	andi	r4,r3,65535
 180667c:	4909383a 	mul	r4,r9,r4
 1806680:	1806d43a 	srli	r3,r3,16
 1806684:	28bfffcc 	andi	r2,r5,65535
 1806688:	5085883a 	add	r2,r10,r2
 180668c:	2089883a 	add	r4,r4,r2
 1806690:	48c7383a 	mul	r3,r9,r3
 1806694:	280ad43a 	srli	r5,r5,16
 1806698:	2004d43a 	srli	r2,r4,16
 180669c:	3900000d 	sth	r4,0(r7)
 18066a0:	1947883a 	add	r3,r3,r5
 18066a4:	10c5883a 	add	r2,r2,r3
 18066a8:	3880008d 	sth	r2,2(r7)
 18066ac:	1014d43a 	srli	r10,r2,16
 18066b0:	39c00104 	addi	r7,r7,4
 18066b4:	42ffed36 	bltu	r8,r11,180666c <__multiply+0xc4>
 18066b8:	3a800015 	stw	r10,0(r7)
 18066bc:	30800017 	ldw	r2,0(r6)
 18066c0:	1012d43a 	srli	r9,r2,16
 18066c4:	48001926 	beq	r9,zero,180672c <__multiply+0x184>
 18066c8:	60800017 	ldw	r2,0(r12)
 18066cc:	6811883a 	mov	r8,r13
 18066d0:	600f883a 	mov	r7,r12
 18066d4:	0015883a 	mov	r10,zero
 18066d8:	100b883a 	mov	r5,r2
 18066dc:	41000017 	ldw	r4,0(r8)
 18066e0:	2806d43a 	srli	r3,r5,16
 18066e4:	3880000d 	sth	r2,0(r7)
 18066e8:	20bfffcc 	andi	r2,r4,65535
 18066ec:	4885383a 	mul	r2,r9,r2
 18066f0:	50c7883a 	add	r3,r10,r3
 18066f4:	2008d43a 	srli	r4,r4,16
 18066f8:	10c5883a 	add	r2,r2,r3
 18066fc:	3880008d 	sth	r2,2(r7)
 1806700:	39c00104 	addi	r7,r7,4
 1806704:	39400017 	ldw	r5,0(r7)
 1806708:	4909383a 	mul	r4,r9,r4
 180670c:	1004d43a 	srli	r2,r2,16
 1806710:	28ffffcc 	andi	r3,r5,65535
 1806714:	20c9883a 	add	r4,r4,r3
 1806718:	1105883a 	add	r2,r2,r4
 180671c:	42000104 	addi	r8,r8,4
 1806720:	1014d43a 	srli	r10,r2,16
 1806724:	42ffed36 	bltu	r8,r11,18066dc <__multiply+0x134>
 1806728:	38800015 	stw	r2,0(r7)
 180672c:	31800104 	addi	r6,r6,4
 1806730:	33c0022e 	bgeu	r6,r15,180673c <__multiply+0x194>
 1806734:	63000104 	addi	r12,r12,4
 1806738:	003fc606 	br	1806654 <__multiply+0xac>
 180673c:	0400090e 	bge	zero,r16,1806764 <__multiply+0x1bc>
 1806740:	70bfff17 	ldw	r2,-4(r14)
 1806744:	70ffff04 	addi	r3,r14,-4
 1806748:	10000326 	beq	r2,zero,1806758 <__multiply+0x1b0>
 180674c:	00000506 	br	1806764 <__multiply+0x1bc>
 1806750:	18800017 	ldw	r2,0(r3)
 1806754:	1000031e 	bne	r2,zero,1806764 <__multiply+0x1bc>
 1806758:	843fffc4 	addi	r16,r16,-1
 180675c:	18ffff04 	addi	r3,r3,-4
 1806760:	803ffb1e 	bne	r16,zero,1806750 <__multiply+0x1a8>
 1806764:	a805883a 	mov	r2,r21
 1806768:	ac000415 	stw	r16,16(r21)
 180676c:	dfc00617 	ldw	ra,24(sp)
 1806770:	dd400517 	ldw	r21,20(sp)
 1806774:	dd000417 	ldw	r20,16(sp)
 1806778:	dcc00317 	ldw	r19,12(sp)
 180677c:	dc800217 	ldw	r18,8(sp)
 1806780:	dc400117 	ldw	r17,4(sp)
 1806784:	dc000017 	ldw	r16,0(sp)
 1806788:	dec00704 	addi	sp,sp,28
 180678c:	f800283a 	ret

01806790 <__i2b>:
 1806790:	defffd04 	addi	sp,sp,-12
 1806794:	dc000015 	stw	r16,0(sp)
 1806798:	04000044 	movi	r16,1
 180679c:	dc800115 	stw	r18,4(sp)
 18067a0:	2825883a 	mov	r18,r5
 18067a4:	800b883a 	mov	r5,r16
 18067a8:	dfc00215 	stw	ra,8(sp)
 18067ac:	18060980 	call	1806098 <_Balloc>
 18067b0:	14000415 	stw	r16,16(r2)
 18067b4:	14800515 	stw	r18,20(r2)
 18067b8:	dfc00217 	ldw	ra,8(sp)
 18067bc:	dc800117 	ldw	r18,4(sp)
 18067c0:	dc000017 	ldw	r16,0(sp)
 18067c4:	dec00304 	addi	sp,sp,12
 18067c8:	f800283a 	ret

018067cc <__multadd>:
 18067cc:	defffa04 	addi	sp,sp,-24
 18067d0:	dc800215 	stw	r18,8(sp)
 18067d4:	2c800417 	ldw	r18,16(r5)
 18067d8:	dd000415 	stw	r20,16(sp)
 18067dc:	dcc00315 	stw	r19,12(sp)
 18067e0:	dc000015 	stw	r16,0(sp)
 18067e4:	dfc00515 	stw	ra,20(sp)
 18067e8:	3821883a 	mov	r16,r7
 18067ec:	dc400115 	stw	r17,4(sp)
 18067f0:	2827883a 	mov	r19,r5
 18067f4:	2029883a 	mov	r20,r4
 18067f8:	2a000504 	addi	r8,r5,20
 18067fc:	000f883a 	mov	r7,zero
 1806800:	40800017 	ldw	r2,0(r8)
 1806804:	39c00044 	addi	r7,r7,1
 1806808:	10ffffcc 	andi	r3,r2,65535
 180680c:	1987383a 	mul	r3,r3,r6
 1806810:	1004d43a 	srli	r2,r2,16
 1806814:	1c07883a 	add	r3,r3,r16
 1806818:	180ad43a 	srli	r5,r3,16
 180681c:	1185383a 	mul	r2,r2,r6
 1806820:	18ffffcc 	andi	r3,r3,65535
 1806824:	1145883a 	add	r2,r2,r5
 1806828:	1008943a 	slli	r4,r2,16
 180682c:	1020d43a 	srli	r16,r2,16
 1806830:	20c9883a 	add	r4,r4,r3
 1806834:	41000015 	stw	r4,0(r8)
 1806838:	42000104 	addi	r8,r8,4
 180683c:	3cbff016 	blt	r7,r18,1806800 <__multadd+0x34>
 1806840:	80000826 	beq	r16,zero,1806864 <__multadd+0x98>
 1806844:	98800217 	ldw	r2,8(r19)
 1806848:	90800f0e 	bge	r18,r2,1806888 <__multadd+0xbc>
 180684c:	9485883a 	add	r2,r18,r18
 1806850:	1085883a 	add	r2,r2,r2
 1806854:	14c5883a 	add	r2,r2,r19
 1806858:	90c00044 	addi	r3,r18,1
 180685c:	14000515 	stw	r16,20(r2)
 1806860:	98c00415 	stw	r3,16(r19)
 1806864:	9805883a 	mov	r2,r19
 1806868:	dfc00517 	ldw	ra,20(sp)
 180686c:	dd000417 	ldw	r20,16(sp)
 1806870:	dcc00317 	ldw	r19,12(sp)
 1806874:	dc800217 	ldw	r18,8(sp)
 1806878:	dc400117 	ldw	r17,4(sp)
 180687c:	dc000017 	ldw	r16,0(sp)
 1806880:	dec00604 	addi	sp,sp,24
 1806884:	f800283a 	ret
 1806888:	99400117 	ldw	r5,4(r19)
 180688c:	a009883a 	mov	r4,r20
 1806890:	29400044 	addi	r5,r5,1
 1806894:	18060980 	call	1806098 <_Balloc>
 1806898:	99800417 	ldw	r6,16(r19)
 180689c:	99400304 	addi	r5,r19,12
 18068a0:	11000304 	addi	r4,r2,12
 18068a4:	318d883a 	add	r6,r6,r6
 18068a8:	318d883a 	add	r6,r6,r6
 18068ac:	31800204 	addi	r6,r6,8
 18068b0:	1023883a 	mov	r17,r2
 18068b4:	18059000 	call	1805900 <memcpy>
 18068b8:	980b883a 	mov	r5,r19
 18068bc:	a009883a 	mov	r4,r20
 18068c0:	1805b180 	call	1805b18 <_Bfree>
 18068c4:	8827883a 	mov	r19,r17
 18068c8:	003fe006 	br	180684c <__multadd+0x80>

018068cc <__pow5mult>:
 18068cc:	defffa04 	addi	sp,sp,-24
 18068d0:	308000cc 	andi	r2,r6,3
 18068d4:	dd000415 	stw	r20,16(sp)
 18068d8:	dcc00315 	stw	r19,12(sp)
 18068dc:	dc000015 	stw	r16,0(sp)
 18068e0:	dfc00515 	stw	ra,20(sp)
 18068e4:	dc800215 	stw	r18,8(sp)
 18068e8:	dc400115 	stw	r17,4(sp)
 18068ec:	3021883a 	mov	r16,r6
 18068f0:	2027883a 	mov	r19,r4
 18068f4:	2829883a 	mov	r20,r5
 18068f8:	10002b1e 	bne	r2,zero,18069a8 <__pow5mult+0xdc>
 18068fc:	8025d0ba 	srai	r18,r16,2
 1806900:	90001b26 	beq	r18,zero,1806970 <__pow5mult+0xa4>
 1806904:	9c001217 	ldw	r16,72(r19)
 1806908:	8000081e 	bne	r16,zero,180692c <__pow5mult+0x60>
 180690c:	00003006 	br	18069d0 <__pow5mult+0x104>
 1806910:	800b883a 	mov	r5,r16
 1806914:	800d883a 	mov	r6,r16
 1806918:	9809883a 	mov	r4,r19
 180691c:	90001426 	beq	r18,zero,1806970 <__pow5mult+0xa4>
 1806920:	80800017 	ldw	r2,0(r16)
 1806924:	10001b26 	beq	r2,zero,1806994 <__pow5mult+0xc8>
 1806928:	1021883a 	mov	r16,r2
 180692c:	9080004c 	andi	r2,r18,1
 1806930:	1005003a 	cmpeq	r2,r2,zero
 1806934:	9025d07a 	srai	r18,r18,1
 1806938:	800d883a 	mov	r6,r16
 180693c:	9809883a 	mov	r4,r19
 1806940:	a00b883a 	mov	r5,r20
 1806944:	103ff21e 	bne	r2,zero,1806910 <__pow5mult+0x44>
 1806948:	18065a80 	call	18065a8 <__multiply>
 180694c:	a00b883a 	mov	r5,r20
 1806950:	9809883a 	mov	r4,r19
 1806954:	1023883a 	mov	r17,r2
 1806958:	1805b180 	call	1805b18 <_Bfree>
 180695c:	8829883a 	mov	r20,r17
 1806960:	800b883a 	mov	r5,r16
 1806964:	800d883a 	mov	r6,r16
 1806968:	9809883a 	mov	r4,r19
 180696c:	903fec1e 	bne	r18,zero,1806920 <__pow5mult+0x54>
 1806970:	a005883a 	mov	r2,r20
 1806974:	dfc00517 	ldw	ra,20(sp)
 1806978:	dd000417 	ldw	r20,16(sp)
 180697c:	dcc00317 	ldw	r19,12(sp)
 1806980:	dc800217 	ldw	r18,8(sp)
 1806984:	dc400117 	ldw	r17,4(sp)
 1806988:	dc000017 	ldw	r16,0(sp)
 180698c:	dec00604 	addi	sp,sp,24
 1806990:	f800283a 	ret
 1806994:	18065a80 	call	18065a8 <__multiply>
 1806998:	80800015 	stw	r2,0(r16)
 180699c:	1021883a 	mov	r16,r2
 18069a0:	10000015 	stw	zero,0(r2)
 18069a4:	003fe106 	br	180692c <__pow5mult+0x60>
 18069a8:	1085883a 	add	r2,r2,r2
 18069ac:	00c06074 	movhi	r3,385
 18069b0:	18c29604 	addi	r3,r3,2648
 18069b4:	1085883a 	add	r2,r2,r2
 18069b8:	10c5883a 	add	r2,r2,r3
 18069bc:	11bfff17 	ldw	r6,-4(r2)
 18069c0:	000f883a 	mov	r7,zero
 18069c4:	18067cc0 	call	18067cc <__multadd>
 18069c8:	1029883a 	mov	r20,r2
 18069cc:	003fcb06 	br	18068fc <__pow5mult+0x30>
 18069d0:	9809883a 	mov	r4,r19
 18069d4:	01409c44 	movi	r5,625
 18069d8:	18067900 	call	1806790 <__i2b>
 18069dc:	98801215 	stw	r2,72(r19)
 18069e0:	1021883a 	mov	r16,r2
 18069e4:	10000015 	stw	zero,0(r2)
 18069e8:	003fd006 	br	180692c <__pow5mult+0x60>

018069ec <__s2b>:
 18069ec:	defff904 	addi	sp,sp,-28
 18069f0:	dcc00315 	stw	r19,12(sp)
 18069f4:	dc800215 	stw	r18,8(sp)
 18069f8:	2827883a 	mov	r19,r5
 18069fc:	2025883a 	mov	r18,r4
 1806a00:	01400244 	movi	r5,9
 1806a04:	39000204 	addi	r4,r7,8
 1806a08:	dd000415 	stw	r20,16(sp)
 1806a0c:	dc400115 	stw	r17,4(sp)
 1806a10:	dfc00615 	stw	ra,24(sp)
 1806a14:	dd400515 	stw	r21,20(sp)
 1806a18:	dc000015 	stw	r16,0(sp)
 1806a1c:	3829883a 	mov	r20,r7
 1806a20:	3023883a 	mov	r17,r6
 1806a24:	18095b00 	call	18095b0 <__divsi3>
 1806a28:	00c00044 	movi	r3,1
 1806a2c:	1880350e 	bge	r3,r2,1806b04 <__s2b+0x118>
 1806a30:	000b883a 	mov	r5,zero
 1806a34:	18c7883a 	add	r3,r3,r3
 1806a38:	29400044 	addi	r5,r5,1
 1806a3c:	18bffd16 	blt	r3,r2,1806a34 <__s2b+0x48>
 1806a40:	9009883a 	mov	r4,r18
 1806a44:	18060980 	call	1806098 <_Balloc>
 1806a48:	1011883a 	mov	r8,r2
 1806a4c:	d8800717 	ldw	r2,28(sp)
 1806a50:	00c00044 	movi	r3,1
 1806a54:	01800244 	movi	r6,9
 1806a58:	40800515 	stw	r2,20(r8)
 1806a5c:	40c00415 	stw	r3,16(r8)
 1806a60:	3440260e 	bge	r6,r17,1806afc <__s2b+0x110>
 1806a64:	3021883a 	mov	r16,r6
 1806a68:	99ab883a 	add	r21,r19,r6
 1806a6c:	9c05883a 	add	r2,r19,r16
 1806a70:	11c00007 	ldb	r7,0(r2)
 1806a74:	400b883a 	mov	r5,r8
 1806a78:	9009883a 	mov	r4,r18
 1806a7c:	39fff404 	addi	r7,r7,-48
 1806a80:	01800284 	movi	r6,10
 1806a84:	18067cc0 	call	18067cc <__multadd>
 1806a88:	84000044 	addi	r16,r16,1
 1806a8c:	1011883a 	mov	r8,r2
 1806a90:	8c3ff61e 	bne	r17,r16,1806a6c <__s2b+0x80>
 1806a94:	ac45883a 	add	r2,r21,r17
 1806a98:	117ffe04 	addi	r5,r2,-8
 1806a9c:	880d883a 	mov	r6,r17
 1806aa0:	35000c0e 	bge	r6,r20,1806ad4 <__s2b+0xe8>
 1806aa4:	a185c83a 	sub	r2,r20,r6
 1806aa8:	2821883a 	mov	r16,r5
 1806aac:	28a3883a 	add	r17,r5,r2
 1806ab0:	81c00007 	ldb	r7,0(r16)
 1806ab4:	400b883a 	mov	r5,r8
 1806ab8:	9009883a 	mov	r4,r18
 1806abc:	39fff404 	addi	r7,r7,-48
 1806ac0:	01800284 	movi	r6,10
 1806ac4:	18067cc0 	call	18067cc <__multadd>
 1806ac8:	84000044 	addi	r16,r16,1
 1806acc:	1011883a 	mov	r8,r2
 1806ad0:	847ff71e 	bne	r16,r17,1806ab0 <__s2b+0xc4>
 1806ad4:	4005883a 	mov	r2,r8
 1806ad8:	dfc00617 	ldw	ra,24(sp)
 1806adc:	dd400517 	ldw	r21,20(sp)
 1806ae0:	dd000417 	ldw	r20,16(sp)
 1806ae4:	dcc00317 	ldw	r19,12(sp)
 1806ae8:	dc800217 	ldw	r18,8(sp)
 1806aec:	dc400117 	ldw	r17,4(sp)
 1806af0:	dc000017 	ldw	r16,0(sp)
 1806af4:	dec00704 	addi	sp,sp,28
 1806af8:	f800283a 	ret
 1806afc:	99400284 	addi	r5,r19,10
 1806b00:	003fe706 	br	1806aa0 <__s2b+0xb4>
 1806b04:	000b883a 	mov	r5,zero
 1806b08:	003fcd06 	br	1806a40 <__s2b+0x54>

01806b0c <_realloc_r>:
 1806b0c:	defff404 	addi	sp,sp,-48
 1806b10:	dd800815 	stw	r22,32(sp)
 1806b14:	dc800415 	stw	r18,16(sp)
 1806b18:	dc400315 	stw	r17,12(sp)
 1806b1c:	dfc00b15 	stw	ra,44(sp)
 1806b20:	df000a15 	stw	fp,40(sp)
 1806b24:	ddc00915 	stw	r23,36(sp)
 1806b28:	dd400715 	stw	r21,28(sp)
 1806b2c:	dd000615 	stw	r20,24(sp)
 1806b30:	dcc00515 	stw	r19,20(sp)
 1806b34:	dc000215 	stw	r16,8(sp)
 1806b38:	2825883a 	mov	r18,r5
 1806b3c:	3023883a 	mov	r17,r6
 1806b40:	202d883a 	mov	r22,r4
 1806b44:	2800c926 	beq	r5,zero,1806e6c <_realloc_r+0x360>
 1806b48:	180a2440 	call	180a244 <__malloc_lock>
 1806b4c:	943ffe04 	addi	r16,r18,-8
 1806b50:	88c002c4 	addi	r3,r17,11
 1806b54:	00800584 	movi	r2,22
 1806b58:	82000117 	ldw	r8,4(r16)
 1806b5c:	10c01b2e 	bgeu	r2,r3,1806bcc <_realloc_r+0xc0>
 1806b60:	00bffe04 	movi	r2,-8
 1806b64:	188e703a 	and	r7,r3,r2
 1806b68:	3839883a 	mov	fp,r7
 1806b6c:	38001a16 	blt	r7,zero,1806bd8 <_realloc_r+0xcc>
 1806b70:	e4401936 	bltu	fp,r17,1806bd8 <_realloc_r+0xcc>
 1806b74:	013fff04 	movi	r4,-4
 1806b78:	4126703a 	and	r19,r8,r4
 1806b7c:	99c02616 	blt	r19,r7,1806c18 <_realloc_r+0x10c>
 1806b80:	802b883a 	mov	r21,r16
 1806b84:	9829883a 	mov	r20,r19
 1806b88:	84000204 	addi	r16,r16,8
 1806b8c:	a80f883a 	mov	r7,r21
 1806b90:	a70dc83a 	sub	r6,r20,fp
 1806b94:	008003c4 	movi	r2,15
 1806b98:	1180c136 	bltu	r2,r6,1806ea0 <_realloc_r+0x394>
 1806b9c:	38800117 	ldw	r2,4(r7)
 1806ba0:	a549883a 	add	r4,r20,r21
 1806ba4:	1080004c 	andi	r2,r2,1
 1806ba8:	a084b03a 	or	r2,r20,r2
 1806bac:	38800115 	stw	r2,4(r7)
 1806bb0:	20c00117 	ldw	r3,4(r4)
 1806bb4:	18c00054 	ori	r3,r3,1
 1806bb8:	20c00115 	stw	r3,4(r4)
 1806bbc:	b009883a 	mov	r4,r22
 1806bc0:	180a2640 	call	180a264 <__malloc_unlock>
 1806bc4:	8023883a 	mov	r17,r16
 1806bc8:	00000606 	br	1806be4 <_realloc_r+0xd8>
 1806bcc:	01c00404 	movi	r7,16
 1806bd0:	3839883a 	mov	fp,r7
 1806bd4:	e47fe72e 	bgeu	fp,r17,1806b74 <_realloc_r+0x68>
 1806bd8:	00800304 	movi	r2,12
 1806bdc:	0023883a 	mov	r17,zero
 1806be0:	b0800015 	stw	r2,0(r22)
 1806be4:	8805883a 	mov	r2,r17
 1806be8:	dfc00b17 	ldw	ra,44(sp)
 1806bec:	df000a17 	ldw	fp,40(sp)
 1806bf0:	ddc00917 	ldw	r23,36(sp)
 1806bf4:	dd800817 	ldw	r22,32(sp)
 1806bf8:	dd400717 	ldw	r21,28(sp)
 1806bfc:	dd000617 	ldw	r20,24(sp)
 1806c00:	dcc00517 	ldw	r19,20(sp)
 1806c04:	dc800417 	ldw	r18,16(sp)
 1806c08:	dc400317 	ldw	r17,12(sp)
 1806c0c:	dc000217 	ldw	r16,8(sp)
 1806c10:	dec00c04 	addi	sp,sp,48
 1806c14:	f800283a 	ret
 1806c18:	00806074 	movhi	r2,385
 1806c1c:	10849704 	addi	r2,r2,4700
 1806c20:	12400217 	ldw	r9,8(r2)
 1806c24:	84cd883a 	add	r6,r16,r19
 1806c28:	802b883a 	mov	r21,r16
 1806c2c:	3240b926 	beq	r6,r9,1806f14 <_realloc_r+0x408>
 1806c30:	31400117 	ldw	r5,4(r6)
 1806c34:	00bfff84 	movi	r2,-2
 1806c38:	2884703a 	and	r2,r5,r2
 1806c3c:	1185883a 	add	r2,r2,r6
 1806c40:	10c00117 	ldw	r3,4(r2)
 1806c44:	18c0004c 	andi	r3,r3,1
 1806c48:	1807003a 	cmpeq	r3,r3,zero
 1806c4c:	1800a326 	beq	r3,zero,1806edc <_realloc_r+0x3d0>
 1806c50:	2908703a 	and	r4,r5,r4
 1806c54:	9929883a 	add	r20,r19,r4
 1806c58:	a1c0a30e 	bge	r20,r7,1806ee8 <_realloc_r+0x3dc>
 1806c5c:	4080004c 	andi	r2,r8,1
 1806c60:	1000551e 	bne	r2,zero,1806db8 <_realloc_r+0x2ac>
 1806c64:	80800017 	ldw	r2,0(r16)
 1806c68:	80afc83a 	sub	r23,r16,r2
 1806c6c:	b8c00117 	ldw	r3,4(r23)
 1806c70:	00bfff04 	movi	r2,-4
 1806c74:	1884703a 	and	r2,r3,r2
 1806c78:	30002e26 	beq	r6,zero,1806d34 <_realloc_r+0x228>
 1806c7c:	3240b926 	beq	r6,r9,1806f64 <_realloc_r+0x458>
 1806c80:	98a9883a 	add	r20,r19,r2
 1806c84:	2509883a 	add	r4,r4,r20
 1806c88:	d9000015 	stw	r4,0(sp)
 1806c8c:	21c02a16 	blt	r4,r7,1806d38 <_realloc_r+0x22c>
 1806c90:	30800317 	ldw	r2,12(r6)
 1806c94:	30c00217 	ldw	r3,8(r6)
 1806c98:	01400904 	movi	r5,36
 1806c9c:	99bfff04 	addi	r6,r19,-4
 1806ca0:	18800315 	stw	r2,12(r3)
 1806ca4:	10c00215 	stw	r3,8(r2)
 1806ca8:	b9000317 	ldw	r4,12(r23)
 1806cac:	b8800217 	ldw	r2,8(r23)
 1806cb0:	b82b883a 	mov	r21,r23
 1806cb4:	bc000204 	addi	r16,r23,8
 1806cb8:	20800215 	stw	r2,8(r4)
 1806cbc:	11000315 	stw	r4,12(r2)
 1806cc0:	2980e436 	bltu	r5,r6,1807054 <_realloc_r+0x548>
 1806cc4:	008004c4 	movi	r2,19
 1806cc8:	9009883a 	mov	r4,r18
 1806ccc:	8011883a 	mov	r8,r16
 1806cd0:	11800f2e 	bgeu	r2,r6,1806d10 <_realloc_r+0x204>
 1806cd4:	90800017 	ldw	r2,0(r18)
 1806cd8:	ba000404 	addi	r8,r23,16
 1806cdc:	91000204 	addi	r4,r18,8
 1806ce0:	b8800215 	stw	r2,8(r23)
 1806ce4:	90c00117 	ldw	r3,4(r18)
 1806ce8:	008006c4 	movi	r2,27
 1806cec:	b8c00315 	stw	r3,12(r23)
 1806cf0:	1180072e 	bgeu	r2,r6,1806d10 <_realloc_r+0x204>
 1806cf4:	90c00217 	ldw	r3,8(r18)
 1806cf8:	ba000604 	addi	r8,r23,24
 1806cfc:	91000404 	addi	r4,r18,16
 1806d00:	b8c00415 	stw	r3,16(r23)
 1806d04:	90800317 	ldw	r2,12(r18)
 1806d08:	b8800515 	stw	r2,20(r23)
 1806d0c:	3140e726 	beq	r6,r5,18070ac <_realloc_r+0x5a0>
 1806d10:	20800017 	ldw	r2,0(r4)
 1806d14:	dd000017 	ldw	r20,0(sp)
 1806d18:	b80f883a 	mov	r7,r23
 1806d1c:	40800015 	stw	r2,0(r8)
 1806d20:	20c00117 	ldw	r3,4(r4)
 1806d24:	40c00115 	stw	r3,4(r8)
 1806d28:	20800217 	ldw	r2,8(r4)
 1806d2c:	40800215 	stw	r2,8(r8)
 1806d30:	003f9706 	br	1806b90 <_realloc_r+0x84>
 1806d34:	98a9883a 	add	r20,r19,r2
 1806d38:	a1c01f16 	blt	r20,r7,1806db8 <_realloc_r+0x2ac>
 1806d3c:	b8c00317 	ldw	r3,12(r23)
 1806d40:	b8800217 	ldw	r2,8(r23)
 1806d44:	99bfff04 	addi	r6,r19,-4
 1806d48:	01400904 	movi	r5,36
 1806d4c:	b82b883a 	mov	r21,r23
 1806d50:	18800215 	stw	r2,8(r3)
 1806d54:	10c00315 	stw	r3,12(r2)
 1806d58:	bc000204 	addi	r16,r23,8
 1806d5c:	2980c336 	bltu	r5,r6,180706c <_realloc_r+0x560>
 1806d60:	008004c4 	movi	r2,19
 1806d64:	9009883a 	mov	r4,r18
 1806d68:	8011883a 	mov	r8,r16
 1806d6c:	11800f2e 	bgeu	r2,r6,1806dac <_realloc_r+0x2a0>
 1806d70:	90800017 	ldw	r2,0(r18)
 1806d74:	ba000404 	addi	r8,r23,16
 1806d78:	91000204 	addi	r4,r18,8
 1806d7c:	b8800215 	stw	r2,8(r23)
 1806d80:	90c00117 	ldw	r3,4(r18)
 1806d84:	008006c4 	movi	r2,27
 1806d88:	b8c00315 	stw	r3,12(r23)
 1806d8c:	1180072e 	bgeu	r2,r6,1806dac <_realloc_r+0x2a0>
 1806d90:	90c00217 	ldw	r3,8(r18)
 1806d94:	ba000604 	addi	r8,r23,24
 1806d98:	91000404 	addi	r4,r18,16
 1806d9c:	b8c00415 	stw	r3,16(r23)
 1806da0:	90800317 	ldw	r2,12(r18)
 1806da4:	b8800515 	stw	r2,20(r23)
 1806da8:	3140c726 	beq	r6,r5,18070c8 <_realloc_r+0x5bc>
 1806dac:	20800017 	ldw	r2,0(r4)
 1806db0:	b80f883a 	mov	r7,r23
 1806db4:	003fd906 	br	1806d1c <_realloc_r+0x210>
 1806db8:	880b883a 	mov	r5,r17
 1806dbc:	b009883a 	mov	r4,r22
 1806dc0:	18050dc0 	call	18050dc <_malloc_r>
 1806dc4:	1023883a 	mov	r17,r2
 1806dc8:	10002526 	beq	r2,zero,1806e60 <_realloc_r+0x354>
 1806dcc:	80800117 	ldw	r2,4(r16)
 1806dd0:	00ffff84 	movi	r3,-2
 1806dd4:	893ffe04 	addi	r4,r17,-8
 1806dd8:	10c4703a 	and	r2,r2,r3
 1806ddc:	8085883a 	add	r2,r16,r2
 1806de0:	20809526 	beq	r4,r2,1807038 <_realloc_r+0x52c>
 1806de4:	99bfff04 	addi	r6,r19,-4
 1806de8:	01c00904 	movi	r7,36
 1806dec:	39804536 	bltu	r7,r6,1806f04 <_realloc_r+0x3f8>
 1806df0:	008004c4 	movi	r2,19
 1806df4:	9009883a 	mov	r4,r18
 1806df8:	880b883a 	mov	r5,r17
 1806dfc:	11800f2e 	bgeu	r2,r6,1806e3c <_realloc_r+0x330>
 1806e00:	90800017 	ldw	r2,0(r18)
 1806e04:	89400204 	addi	r5,r17,8
 1806e08:	91000204 	addi	r4,r18,8
 1806e0c:	88800015 	stw	r2,0(r17)
 1806e10:	90c00117 	ldw	r3,4(r18)
 1806e14:	008006c4 	movi	r2,27
 1806e18:	88c00115 	stw	r3,4(r17)
 1806e1c:	1180072e 	bgeu	r2,r6,1806e3c <_realloc_r+0x330>
 1806e20:	90c00217 	ldw	r3,8(r18)
 1806e24:	89400404 	addi	r5,r17,16
 1806e28:	91000404 	addi	r4,r18,16
 1806e2c:	88c00215 	stw	r3,8(r17)
 1806e30:	90800317 	ldw	r2,12(r18)
 1806e34:	88800315 	stw	r2,12(r17)
 1806e38:	31c09126 	beq	r6,r7,1807080 <_realloc_r+0x574>
 1806e3c:	20800017 	ldw	r2,0(r4)
 1806e40:	28800015 	stw	r2,0(r5)
 1806e44:	20c00117 	ldw	r3,4(r4)
 1806e48:	28c00115 	stw	r3,4(r5)
 1806e4c:	20800217 	ldw	r2,8(r4)
 1806e50:	28800215 	stw	r2,8(r5)
 1806e54:	900b883a 	mov	r5,r18
 1806e58:	b009883a 	mov	r4,r22
 1806e5c:	18045540 	call	1804554 <_free_r>
 1806e60:	b009883a 	mov	r4,r22
 1806e64:	180a2640 	call	180a264 <__malloc_unlock>
 1806e68:	003f5e06 	br	1806be4 <_realloc_r+0xd8>
 1806e6c:	300b883a 	mov	r5,r6
 1806e70:	dfc00b17 	ldw	ra,44(sp)
 1806e74:	df000a17 	ldw	fp,40(sp)
 1806e78:	ddc00917 	ldw	r23,36(sp)
 1806e7c:	dd800817 	ldw	r22,32(sp)
 1806e80:	dd400717 	ldw	r21,28(sp)
 1806e84:	dd000617 	ldw	r20,24(sp)
 1806e88:	dcc00517 	ldw	r19,20(sp)
 1806e8c:	dc800417 	ldw	r18,16(sp)
 1806e90:	dc400317 	ldw	r17,12(sp)
 1806e94:	dc000217 	ldw	r16,8(sp)
 1806e98:	dec00c04 	addi	sp,sp,48
 1806e9c:	18050dc1 	jmpi	18050dc <_malloc_r>
 1806ea0:	38800117 	ldw	r2,4(r7)
 1806ea4:	e54b883a 	add	r5,fp,r21
 1806ea8:	31000054 	ori	r4,r6,1
 1806eac:	1080004c 	andi	r2,r2,1
 1806eb0:	1704b03a 	or	r2,r2,fp
 1806eb4:	38800115 	stw	r2,4(r7)
 1806eb8:	29000115 	stw	r4,4(r5)
 1806ebc:	2987883a 	add	r3,r5,r6
 1806ec0:	18800117 	ldw	r2,4(r3)
 1806ec4:	29400204 	addi	r5,r5,8
 1806ec8:	b009883a 	mov	r4,r22
 1806ecc:	10800054 	ori	r2,r2,1
 1806ed0:	18800115 	stw	r2,4(r3)
 1806ed4:	18045540 	call	1804554 <_free_r>
 1806ed8:	003f3806 	br	1806bbc <_realloc_r+0xb0>
 1806edc:	000d883a 	mov	r6,zero
 1806ee0:	0009883a 	mov	r4,zero
 1806ee4:	003f5d06 	br	1806c5c <_realloc_r+0x150>
 1806ee8:	30c00217 	ldw	r3,8(r6)
 1806eec:	30800317 	ldw	r2,12(r6)
 1806ef0:	800f883a 	mov	r7,r16
 1806ef4:	84000204 	addi	r16,r16,8
 1806ef8:	10c00215 	stw	r3,8(r2)
 1806efc:	18800315 	stw	r2,12(r3)
 1806f00:	003f2306 	br	1806b90 <_realloc_r+0x84>
 1806f04:	8809883a 	mov	r4,r17
 1806f08:	900b883a 	mov	r5,r18
 1806f0c:	18059a00 	call	18059a0 <memmove>
 1806f10:	003fd006 	br	1806e54 <_realloc_r+0x348>
 1806f14:	30800117 	ldw	r2,4(r6)
 1806f18:	e0c00404 	addi	r3,fp,16
 1806f1c:	1108703a 	and	r4,r2,r4
 1806f20:	9905883a 	add	r2,r19,r4
 1806f24:	10ff4d16 	blt	r2,r3,1806c5c <_realloc_r+0x150>
 1806f28:	1705c83a 	sub	r2,r2,fp
 1806f2c:	870b883a 	add	r5,r16,fp
 1806f30:	10800054 	ori	r2,r2,1
 1806f34:	28800115 	stw	r2,4(r5)
 1806f38:	80c00117 	ldw	r3,4(r16)
 1806f3c:	00806074 	movhi	r2,385
 1806f40:	10849704 	addi	r2,r2,4700
 1806f44:	b009883a 	mov	r4,r22
 1806f48:	18c0004c 	andi	r3,r3,1
 1806f4c:	e0c6b03a 	or	r3,fp,r3
 1806f50:	11400215 	stw	r5,8(r2)
 1806f54:	80c00115 	stw	r3,4(r16)
 1806f58:	180a2640 	call	180a264 <__malloc_unlock>
 1806f5c:	84400204 	addi	r17,r16,8
 1806f60:	003f2006 	br	1806be4 <_realloc_r+0xd8>
 1806f64:	98a9883a 	add	r20,r19,r2
 1806f68:	2509883a 	add	r4,r4,r20
 1806f6c:	e0800404 	addi	r2,fp,16
 1806f70:	d9000115 	stw	r4,4(sp)
 1806f74:	20bf7016 	blt	r4,r2,1806d38 <_realloc_r+0x22c>
 1806f78:	b8c00317 	ldw	r3,12(r23)
 1806f7c:	b8800217 	ldw	r2,8(r23)
 1806f80:	99bfff04 	addi	r6,r19,-4
 1806f84:	01400904 	movi	r5,36
 1806f88:	18800215 	stw	r2,8(r3)
 1806f8c:	10c00315 	stw	r3,12(r2)
 1806f90:	bc400204 	addi	r17,r23,8
 1806f94:	29804136 	bltu	r5,r6,180709c <_realloc_r+0x590>
 1806f98:	008004c4 	movi	r2,19
 1806f9c:	9009883a 	mov	r4,r18
 1806fa0:	880f883a 	mov	r7,r17
 1806fa4:	11800f2e 	bgeu	r2,r6,1806fe4 <_realloc_r+0x4d8>
 1806fa8:	90800017 	ldw	r2,0(r18)
 1806fac:	b9c00404 	addi	r7,r23,16
 1806fb0:	91000204 	addi	r4,r18,8
 1806fb4:	b8800215 	stw	r2,8(r23)
 1806fb8:	90c00117 	ldw	r3,4(r18)
 1806fbc:	008006c4 	movi	r2,27
 1806fc0:	b8c00315 	stw	r3,12(r23)
 1806fc4:	1180072e 	bgeu	r2,r6,1806fe4 <_realloc_r+0x4d8>
 1806fc8:	90c00217 	ldw	r3,8(r18)
 1806fcc:	b9c00604 	addi	r7,r23,24
 1806fd0:	91000404 	addi	r4,r18,16
 1806fd4:	b8c00415 	stw	r3,16(r23)
 1806fd8:	90800317 	ldw	r2,12(r18)
 1806fdc:	b8800515 	stw	r2,20(r23)
 1806fe0:	31404026 	beq	r6,r5,18070e4 <_realloc_r+0x5d8>
 1806fe4:	20800017 	ldw	r2,0(r4)
 1806fe8:	38800015 	stw	r2,0(r7)
 1806fec:	20c00117 	ldw	r3,4(r4)
 1806ff0:	38c00115 	stw	r3,4(r7)
 1806ff4:	20800217 	ldw	r2,8(r4)
 1806ff8:	38800215 	stw	r2,8(r7)
 1806ffc:	d8c00117 	ldw	r3,4(sp)
 1807000:	bf0b883a 	add	r5,r23,fp
 1807004:	b009883a 	mov	r4,r22
 1807008:	1f05c83a 	sub	r2,r3,fp
 180700c:	10800054 	ori	r2,r2,1
 1807010:	28800115 	stw	r2,4(r5)
 1807014:	b8c00117 	ldw	r3,4(r23)
 1807018:	00806074 	movhi	r2,385
 180701c:	10849704 	addi	r2,r2,4700
 1807020:	11400215 	stw	r5,8(r2)
 1807024:	18c0004c 	andi	r3,r3,1
 1807028:	e0c6b03a 	or	r3,fp,r3
 180702c:	b8c00115 	stw	r3,4(r23)
 1807030:	180a2640 	call	180a264 <__malloc_unlock>
 1807034:	003eeb06 	br	1806be4 <_realloc_r+0xd8>
 1807038:	20800117 	ldw	r2,4(r4)
 180703c:	00ffff04 	movi	r3,-4
 1807040:	800f883a 	mov	r7,r16
 1807044:	10c4703a 	and	r2,r2,r3
 1807048:	98a9883a 	add	r20,r19,r2
 180704c:	84000204 	addi	r16,r16,8
 1807050:	003ecf06 	br	1806b90 <_realloc_r+0x84>
 1807054:	900b883a 	mov	r5,r18
 1807058:	8009883a 	mov	r4,r16
 180705c:	18059a00 	call	18059a0 <memmove>
 1807060:	dd000017 	ldw	r20,0(sp)
 1807064:	b80f883a 	mov	r7,r23
 1807068:	003ec906 	br	1806b90 <_realloc_r+0x84>
 180706c:	900b883a 	mov	r5,r18
 1807070:	8009883a 	mov	r4,r16
 1807074:	18059a00 	call	18059a0 <memmove>
 1807078:	b80f883a 	mov	r7,r23
 180707c:	003ec406 	br	1806b90 <_realloc_r+0x84>
 1807080:	90c00417 	ldw	r3,16(r18)
 1807084:	89400604 	addi	r5,r17,24
 1807088:	91000604 	addi	r4,r18,24
 180708c:	88c00415 	stw	r3,16(r17)
 1807090:	90800517 	ldw	r2,20(r18)
 1807094:	88800515 	stw	r2,20(r17)
 1807098:	003f6806 	br	1806e3c <_realloc_r+0x330>
 180709c:	900b883a 	mov	r5,r18
 18070a0:	8809883a 	mov	r4,r17
 18070a4:	18059a00 	call	18059a0 <memmove>
 18070a8:	003fd406 	br	1806ffc <_realloc_r+0x4f0>
 18070ac:	90c00417 	ldw	r3,16(r18)
 18070b0:	91000604 	addi	r4,r18,24
 18070b4:	ba000804 	addi	r8,r23,32
 18070b8:	b8c00615 	stw	r3,24(r23)
 18070bc:	90800517 	ldw	r2,20(r18)
 18070c0:	b8800715 	stw	r2,28(r23)
 18070c4:	003f1206 	br	1806d10 <_realloc_r+0x204>
 18070c8:	90c00417 	ldw	r3,16(r18)
 18070cc:	91000604 	addi	r4,r18,24
 18070d0:	ba000804 	addi	r8,r23,32
 18070d4:	b8c00615 	stw	r3,24(r23)
 18070d8:	90800517 	ldw	r2,20(r18)
 18070dc:	b8800715 	stw	r2,28(r23)
 18070e0:	003f3206 	br	1806dac <_realloc_r+0x2a0>
 18070e4:	90c00417 	ldw	r3,16(r18)
 18070e8:	91000604 	addi	r4,r18,24
 18070ec:	b9c00804 	addi	r7,r23,32
 18070f0:	b8c00615 	stw	r3,24(r23)
 18070f4:	90800517 	ldw	r2,20(r18)
 18070f8:	b8800715 	stw	r2,28(r23)
 18070fc:	003fb906 	br	1806fe4 <_realloc_r+0x4d8>

01807100 <__isinfd>:
 1807100:	200d883a 	mov	r6,r4
 1807104:	0109c83a 	sub	r4,zero,r4
 1807108:	2188b03a 	or	r4,r4,r6
 180710c:	2008d7fa 	srli	r4,r4,31
 1807110:	00a00034 	movhi	r2,32768
 1807114:	10bfffc4 	addi	r2,r2,-1
 1807118:	1144703a 	and	r2,r2,r5
 180711c:	2088b03a 	or	r4,r4,r2
 1807120:	009ffc34 	movhi	r2,32752
 1807124:	1105c83a 	sub	r2,r2,r4
 1807128:	0087c83a 	sub	r3,zero,r2
 180712c:	10c4b03a 	or	r2,r2,r3
 1807130:	1004d7fa 	srli	r2,r2,31
 1807134:	00c00044 	movi	r3,1
 1807138:	1885c83a 	sub	r2,r3,r2
 180713c:	f800283a 	ret

01807140 <__isnand>:
 1807140:	200d883a 	mov	r6,r4
 1807144:	0109c83a 	sub	r4,zero,r4
 1807148:	2188b03a 	or	r4,r4,r6
 180714c:	2008d7fa 	srli	r4,r4,31
 1807150:	00a00034 	movhi	r2,32768
 1807154:	10bfffc4 	addi	r2,r2,-1
 1807158:	1144703a 	and	r2,r2,r5
 180715c:	2088b03a 	or	r4,r4,r2
 1807160:	009ffc34 	movhi	r2,32752
 1807164:	1105c83a 	sub	r2,r2,r4
 1807168:	1004d7fa 	srli	r2,r2,31
 180716c:	f800283a 	ret

01807170 <_sbrk_r>:
 1807170:	defffd04 	addi	sp,sp,-12
 1807174:	dc000015 	stw	r16,0(sp)
 1807178:	04006074 	movhi	r16,385
 180717c:	840ae404 	addi	r16,r16,11152
 1807180:	dc400115 	stw	r17,4(sp)
 1807184:	80000015 	stw	zero,0(r16)
 1807188:	2023883a 	mov	r17,r4
 180718c:	2809883a 	mov	r4,r5
 1807190:	dfc00215 	stw	ra,8(sp)
 1807194:	180a4640 	call	180a464 <sbrk>
 1807198:	1007883a 	mov	r3,r2
 180719c:	00bfffc4 	movi	r2,-1
 18071a0:	18800626 	beq	r3,r2,18071bc <_sbrk_r+0x4c>
 18071a4:	1805883a 	mov	r2,r3
 18071a8:	dfc00217 	ldw	ra,8(sp)
 18071ac:	dc400117 	ldw	r17,4(sp)
 18071b0:	dc000017 	ldw	r16,0(sp)
 18071b4:	dec00304 	addi	sp,sp,12
 18071b8:	f800283a 	ret
 18071bc:	80800017 	ldw	r2,0(r16)
 18071c0:	103ff826 	beq	r2,zero,18071a4 <_sbrk_r+0x34>
 18071c4:	88800015 	stw	r2,0(r17)
 18071c8:	1805883a 	mov	r2,r3
 18071cc:	dfc00217 	ldw	ra,8(sp)
 18071d0:	dc400117 	ldw	r17,4(sp)
 18071d4:	dc000017 	ldw	r16,0(sp)
 18071d8:	dec00304 	addi	sp,sp,12
 18071dc:	f800283a 	ret

018071e0 <__sclose>:
 18071e0:	2940038f 	ldh	r5,14(r5)
 18071e4:	18075141 	jmpi	1807514 <_close_r>

018071e8 <__sseek>:
 18071e8:	defffe04 	addi	sp,sp,-8
 18071ec:	dc000015 	stw	r16,0(sp)
 18071f0:	2821883a 	mov	r16,r5
 18071f4:	2940038f 	ldh	r5,14(r5)
 18071f8:	dfc00115 	stw	ra,4(sp)
 18071fc:	180778c0 	call	180778c <_lseek_r>
 1807200:	1007883a 	mov	r3,r2
 1807204:	00bfffc4 	movi	r2,-1
 1807208:	18800926 	beq	r3,r2,1807230 <__sseek+0x48>
 180720c:	8080030b 	ldhu	r2,12(r16)
 1807210:	80c01415 	stw	r3,80(r16)
 1807214:	10840014 	ori	r2,r2,4096
 1807218:	8080030d 	sth	r2,12(r16)
 180721c:	1805883a 	mov	r2,r3
 1807220:	dfc00117 	ldw	ra,4(sp)
 1807224:	dc000017 	ldw	r16,0(sp)
 1807228:	dec00204 	addi	sp,sp,8
 180722c:	f800283a 	ret
 1807230:	8080030b 	ldhu	r2,12(r16)
 1807234:	10bbffcc 	andi	r2,r2,61439
 1807238:	8080030d 	sth	r2,12(r16)
 180723c:	1805883a 	mov	r2,r3
 1807240:	dfc00117 	ldw	ra,4(sp)
 1807244:	dc000017 	ldw	r16,0(sp)
 1807248:	dec00204 	addi	sp,sp,8
 180724c:	f800283a 	ret

01807250 <__swrite>:
 1807250:	2880030b 	ldhu	r2,12(r5)
 1807254:	defffb04 	addi	sp,sp,-20
 1807258:	dcc00315 	stw	r19,12(sp)
 180725c:	1080400c 	andi	r2,r2,256
 1807260:	dc800215 	stw	r18,8(sp)
 1807264:	dc400115 	stw	r17,4(sp)
 1807268:	dc000015 	stw	r16,0(sp)
 180726c:	3027883a 	mov	r19,r6
 1807270:	3825883a 	mov	r18,r7
 1807274:	dfc00415 	stw	ra,16(sp)
 1807278:	2821883a 	mov	r16,r5
 180727c:	000d883a 	mov	r6,zero
 1807280:	01c00084 	movi	r7,2
 1807284:	2023883a 	mov	r17,r4
 1807288:	10000226 	beq	r2,zero,1807294 <__swrite+0x44>
 180728c:	2940038f 	ldh	r5,14(r5)
 1807290:	180778c0 	call	180778c <_lseek_r>
 1807294:	8080030b 	ldhu	r2,12(r16)
 1807298:	8140038f 	ldh	r5,14(r16)
 180729c:	8809883a 	mov	r4,r17
 18072a0:	10bbffcc 	andi	r2,r2,61439
 18072a4:	980d883a 	mov	r6,r19
 18072a8:	900f883a 	mov	r7,r18
 18072ac:	8080030d 	sth	r2,12(r16)
 18072b0:	dfc00417 	ldw	ra,16(sp)
 18072b4:	dcc00317 	ldw	r19,12(sp)
 18072b8:	dc800217 	ldw	r18,8(sp)
 18072bc:	dc400117 	ldw	r17,4(sp)
 18072c0:	dc000017 	ldw	r16,0(sp)
 18072c4:	dec00504 	addi	sp,sp,20
 18072c8:	18073e81 	jmpi	18073e8 <_write_r>

018072cc <__sread>:
 18072cc:	defffe04 	addi	sp,sp,-8
 18072d0:	dc000015 	stw	r16,0(sp)
 18072d4:	2821883a 	mov	r16,r5
 18072d8:	2940038f 	ldh	r5,14(r5)
 18072dc:	dfc00115 	stw	ra,4(sp)
 18072e0:	18078040 	call	1807804 <_read_r>
 18072e4:	1007883a 	mov	r3,r2
 18072e8:	10000816 	blt	r2,zero,180730c <__sread+0x40>
 18072ec:	80801417 	ldw	r2,80(r16)
 18072f0:	10c5883a 	add	r2,r2,r3
 18072f4:	80801415 	stw	r2,80(r16)
 18072f8:	1805883a 	mov	r2,r3
 18072fc:	dfc00117 	ldw	ra,4(sp)
 1807300:	dc000017 	ldw	r16,0(sp)
 1807304:	dec00204 	addi	sp,sp,8
 1807308:	f800283a 	ret
 180730c:	8080030b 	ldhu	r2,12(r16)
 1807310:	10bbffcc 	andi	r2,r2,61439
 1807314:	8080030d 	sth	r2,12(r16)
 1807318:	1805883a 	mov	r2,r3
 180731c:	dfc00117 	ldw	ra,4(sp)
 1807320:	dc000017 	ldw	r16,0(sp)
 1807324:	dec00204 	addi	sp,sp,8
 1807328:	f800283a 	ret

0180732c <strcmp>:
 180732c:	2144b03a 	or	r2,r4,r5
 1807330:	108000cc 	andi	r2,r2,3
 1807334:	10001d1e 	bne	r2,zero,18073ac <strcmp+0x80>
 1807338:	200f883a 	mov	r7,r4
 180733c:	28800017 	ldw	r2,0(r5)
 1807340:	21000017 	ldw	r4,0(r4)
 1807344:	280d883a 	mov	r6,r5
 1807348:	2080161e 	bne	r4,r2,18073a4 <strcmp+0x78>
 180734c:	023fbff4 	movhi	r8,65279
 1807350:	423fbfc4 	addi	r8,r8,-257
 1807354:	2207883a 	add	r3,r4,r8
 1807358:	01602074 	movhi	r5,32897
 180735c:	29602004 	addi	r5,r5,-32640
 1807360:	1946703a 	and	r3,r3,r5
 1807364:	0104303a 	nor	r2,zero,r4
 1807368:	10c4703a 	and	r2,r2,r3
 180736c:	10001c1e 	bne	r2,zero,18073e0 <strcmp+0xb4>
 1807370:	4013883a 	mov	r9,r8
 1807374:	2811883a 	mov	r8,r5
 1807378:	00000106 	br	1807380 <strcmp+0x54>
 180737c:	1800181e 	bne	r3,zero,18073e0 <strcmp+0xb4>
 1807380:	39c00104 	addi	r7,r7,4
 1807384:	39000017 	ldw	r4,0(r7)
 1807388:	31800104 	addi	r6,r6,4
 180738c:	31400017 	ldw	r5,0(r6)
 1807390:	2245883a 	add	r2,r4,r9
 1807394:	1204703a 	and	r2,r2,r8
 1807398:	0106303a 	nor	r3,zero,r4
 180739c:	1886703a 	and	r3,r3,r2
 18073a0:	217ff626 	beq	r4,r5,180737c <strcmp+0x50>
 18073a4:	3809883a 	mov	r4,r7
 18073a8:	300b883a 	mov	r5,r6
 18073ac:	20c00007 	ldb	r3,0(r4)
 18073b0:	1800051e 	bne	r3,zero,18073c8 <strcmp+0x9c>
 18073b4:	00000606 	br	18073d0 <strcmp+0xa4>
 18073b8:	21000044 	addi	r4,r4,1
 18073bc:	20c00007 	ldb	r3,0(r4)
 18073c0:	29400044 	addi	r5,r5,1
 18073c4:	18000226 	beq	r3,zero,18073d0 <strcmp+0xa4>
 18073c8:	28800007 	ldb	r2,0(r5)
 18073cc:	18bffa26 	beq	r3,r2,18073b8 <strcmp+0x8c>
 18073d0:	20c00003 	ldbu	r3,0(r4)
 18073d4:	28800003 	ldbu	r2,0(r5)
 18073d8:	1885c83a 	sub	r2,r3,r2
 18073dc:	f800283a 	ret
 18073e0:	0005883a 	mov	r2,zero
 18073e4:	f800283a 	ret

018073e8 <_write_r>:
 18073e8:	defffd04 	addi	sp,sp,-12
 18073ec:	dc000015 	stw	r16,0(sp)
 18073f0:	04006074 	movhi	r16,385
 18073f4:	840ae404 	addi	r16,r16,11152
 18073f8:	dc400115 	stw	r17,4(sp)
 18073fc:	80000015 	stw	zero,0(r16)
 1807400:	2023883a 	mov	r17,r4
 1807404:	2809883a 	mov	r4,r5
 1807408:	300b883a 	mov	r5,r6
 180740c:	380d883a 	mov	r6,r7
 1807410:	dfc00215 	stw	ra,8(sp)
 1807414:	180a5500 	call	180a550 <write>
 1807418:	1007883a 	mov	r3,r2
 180741c:	00bfffc4 	movi	r2,-1
 1807420:	18800626 	beq	r3,r2,180743c <_write_r+0x54>
 1807424:	1805883a 	mov	r2,r3
 1807428:	dfc00217 	ldw	ra,8(sp)
 180742c:	dc400117 	ldw	r17,4(sp)
 1807430:	dc000017 	ldw	r16,0(sp)
 1807434:	dec00304 	addi	sp,sp,12
 1807438:	f800283a 	ret
 180743c:	80800017 	ldw	r2,0(r16)
 1807440:	103ff826 	beq	r2,zero,1807424 <_write_r+0x3c>
 1807444:	88800015 	stw	r2,0(r17)
 1807448:	1805883a 	mov	r2,r3
 180744c:	dfc00217 	ldw	ra,8(sp)
 1807450:	dc400117 	ldw	r17,4(sp)
 1807454:	dc000017 	ldw	r16,0(sp)
 1807458:	dec00304 	addi	sp,sp,12
 180745c:	f800283a 	ret

01807460 <_calloc_r>:
 1807460:	298b383a 	mul	r5,r5,r6
 1807464:	defffe04 	addi	sp,sp,-8
 1807468:	dc000015 	stw	r16,0(sp)
 180746c:	dfc00115 	stw	ra,4(sp)
 1807470:	18050dc0 	call	18050dc <_malloc_r>
 1807474:	1021883a 	mov	r16,r2
 1807478:	01c00904 	movi	r7,36
 180747c:	10000d26 	beq	r2,zero,18074b4 <_calloc_r+0x54>
 1807480:	10ffff17 	ldw	r3,-4(r2)
 1807484:	1009883a 	mov	r4,r2
 1807488:	00bfff04 	movi	r2,-4
 180748c:	1886703a 	and	r3,r3,r2
 1807490:	1887883a 	add	r3,r3,r2
 1807494:	180d883a 	mov	r6,r3
 1807498:	000b883a 	mov	r5,zero
 180749c:	38c01736 	bltu	r7,r3,18074fc <_calloc_r+0x9c>
 18074a0:	008004c4 	movi	r2,19
 18074a4:	10c00836 	bltu	r2,r3,18074c8 <_calloc_r+0x68>
 18074a8:	20000215 	stw	zero,8(r4)
 18074ac:	20000015 	stw	zero,0(r4)
 18074b0:	20000115 	stw	zero,4(r4)
 18074b4:	8005883a 	mov	r2,r16
 18074b8:	dfc00117 	ldw	ra,4(sp)
 18074bc:	dc000017 	ldw	r16,0(sp)
 18074c0:	dec00204 	addi	sp,sp,8
 18074c4:	f800283a 	ret
 18074c8:	008006c4 	movi	r2,27
 18074cc:	80000015 	stw	zero,0(r16)
 18074d0:	80000115 	stw	zero,4(r16)
 18074d4:	81000204 	addi	r4,r16,8
 18074d8:	10fff32e 	bgeu	r2,r3,18074a8 <_calloc_r+0x48>
 18074dc:	80000215 	stw	zero,8(r16)
 18074e0:	80000315 	stw	zero,12(r16)
 18074e4:	81000404 	addi	r4,r16,16
 18074e8:	19ffef1e 	bne	r3,r7,18074a8 <_calloc_r+0x48>
 18074ec:	81000604 	addi	r4,r16,24
 18074f0:	80000415 	stw	zero,16(r16)
 18074f4:	80000515 	stw	zero,20(r16)
 18074f8:	003feb06 	br	18074a8 <_calloc_r+0x48>
 18074fc:	1805a800 	call	1805a80 <memset>
 1807500:	8005883a 	mov	r2,r16
 1807504:	dfc00117 	ldw	ra,4(sp)
 1807508:	dc000017 	ldw	r16,0(sp)
 180750c:	dec00204 	addi	sp,sp,8
 1807510:	f800283a 	ret

01807514 <_close_r>:
 1807514:	defffd04 	addi	sp,sp,-12
 1807518:	dc000015 	stw	r16,0(sp)
 180751c:	04006074 	movhi	r16,385
 1807520:	840ae404 	addi	r16,r16,11152
 1807524:	dc400115 	stw	r17,4(sp)
 1807528:	80000015 	stw	zero,0(r16)
 180752c:	2023883a 	mov	r17,r4
 1807530:	2809883a 	mov	r4,r5
 1807534:	dfc00215 	stw	ra,8(sp)
 1807538:	1809cac0 	call	1809cac <close>
 180753c:	1007883a 	mov	r3,r2
 1807540:	00bfffc4 	movi	r2,-1
 1807544:	18800626 	beq	r3,r2,1807560 <_close_r+0x4c>
 1807548:	1805883a 	mov	r2,r3
 180754c:	dfc00217 	ldw	ra,8(sp)
 1807550:	dc400117 	ldw	r17,4(sp)
 1807554:	dc000017 	ldw	r16,0(sp)
 1807558:	dec00304 	addi	sp,sp,12
 180755c:	f800283a 	ret
 1807560:	80800017 	ldw	r2,0(r16)
 1807564:	103ff826 	beq	r2,zero,1807548 <_close_r+0x34>
 1807568:	88800015 	stw	r2,0(r17)
 180756c:	1805883a 	mov	r2,r3
 1807570:	dfc00217 	ldw	ra,8(sp)
 1807574:	dc400117 	ldw	r17,4(sp)
 1807578:	dc000017 	ldw	r16,0(sp)
 180757c:	dec00304 	addi	sp,sp,12
 1807580:	f800283a 	ret

01807584 <_fclose_r>:
 1807584:	defffc04 	addi	sp,sp,-16
 1807588:	dc400115 	stw	r17,4(sp)
 180758c:	dc000015 	stw	r16,0(sp)
 1807590:	dfc00315 	stw	ra,12(sp)
 1807594:	dc800215 	stw	r18,8(sp)
 1807598:	2821883a 	mov	r16,r5
 180759c:	2023883a 	mov	r17,r4
 18075a0:	28002926 	beq	r5,zero,1807648 <_fclose_r+0xc4>
 18075a4:	18041c00 	call	18041c0 <__sfp_lock_acquire>
 18075a8:	88000226 	beq	r17,zero,18075b4 <_fclose_r+0x30>
 18075ac:	88800e17 	ldw	r2,56(r17)
 18075b0:	10002d26 	beq	r2,zero,1807668 <_fclose_r+0xe4>
 18075b4:	8080030f 	ldh	r2,12(r16)
 18075b8:	10002226 	beq	r2,zero,1807644 <_fclose_r+0xc0>
 18075bc:	8809883a 	mov	r4,r17
 18075c0:	800b883a 	mov	r5,r16
 18075c4:	1803f380 	call	1803f38 <_fflush_r>
 18075c8:	1025883a 	mov	r18,r2
 18075cc:	80800b17 	ldw	r2,44(r16)
 18075d0:	10000426 	beq	r2,zero,18075e4 <_fclose_r+0x60>
 18075d4:	81400717 	ldw	r5,28(r16)
 18075d8:	8809883a 	mov	r4,r17
 18075dc:	103ee83a 	callr	r2
 18075e0:	10002a16 	blt	r2,zero,180768c <_fclose_r+0x108>
 18075e4:	8080030b 	ldhu	r2,12(r16)
 18075e8:	1080200c 	andi	r2,r2,128
 18075ec:	1000231e 	bne	r2,zero,180767c <_fclose_r+0xf8>
 18075f0:	81400c17 	ldw	r5,48(r16)
 18075f4:	28000526 	beq	r5,zero,180760c <_fclose_r+0x88>
 18075f8:	80801004 	addi	r2,r16,64
 18075fc:	28800226 	beq	r5,r2,1807608 <_fclose_r+0x84>
 1807600:	8809883a 	mov	r4,r17
 1807604:	18045540 	call	1804554 <_free_r>
 1807608:	80000c15 	stw	zero,48(r16)
 180760c:	81401117 	ldw	r5,68(r16)
 1807610:	28000326 	beq	r5,zero,1807620 <_fclose_r+0x9c>
 1807614:	8809883a 	mov	r4,r17
 1807618:	18045540 	call	1804554 <_free_r>
 180761c:	80001115 	stw	zero,68(r16)
 1807620:	8000030d 	sth	zero,12(r16)
 1807624:	18041c40 	call	18041c4 <__sfp_lock_release>
 1807628:	9005883a 	mov	r2,r18
 180762c:	dfc00317 	ldw	ra,12(sp)
 1807630:	dc800217 	ldw	r18,8(sp)
 1807634:	dc400117 	ldw	r17,4(sp)
 1807638:	dc000017 	ldw	r16,0(sp)
 180763c:	dec00404 	addi	sp,sp,16
 1807640:	f800283a 	ret
 1807644:	18041c40 	call	18041c4 <__sfp_lock_release>
 1807648:	0025883a 	mov	r18,zero
 180764c:	9005883a 	mov	r2,r18
 1807650:	dfc00317 	ldw	ra,12(sp)
 1807654:	dc800217 	ldw	r18,8(sp)
 1807658:	dc400117 	ldw	r17,4(sp)
 180765c:	dc000017 	ldw	r16,0(sp)
 1807660:	dec00404 	addi	sp,sp,16
 1807664:	f800283a 	ret
 1807668:	8809883a 	mov	r4,r17
 180766c:	18041d00 	call	18041d0 <__sinit>
 1807670:	8080030f 	ldh	r2,12(r16)
 1807674:	103fd11e 	bne	r2,zero,18075bc <_fclose_r+0x38>
 1807678:	003ff206 	br	1807644 <_fclose_r+0xc0>
 180767c:	81400417 	ldw	r5,16(r16)
 1807680:	8809883a 	mov	r4,r17
 1807684:	18045540 	call	1804554 <_free_r>
 1807688:	003fd906 	br	18075f0 <_fclose_r+0x6c>
 180768c:	04bfffc4 	movi	r18,-1
 1807690:	003fd406 	br	18075e4 <_fclose_r+0x60>

01807694 <fclose>:
 1807694:	00806074 	movhi	r2,385
 1807698:	108aca04 	addi	r2,r2,11048
 180769c:	200b883a 	mov	r5,r4
 18076a0:	11000017 	ldw	r4,0(r2)
 18076a4:	18075841 	jmpi	1807584 <_fclose_r>

018076a8 <_fstat_r>:
 18076a8:	defffd04 	addi	sp,sp,-12
 18076ac:	dc000015 	stw	r16,0(sp)
 18076b0:	04006074 	movhi	r16,385
 18076b4:	840ae404 	addi	r16,r16,11152
 18076b8:	dc400115 	stw	r17,4(sp)
 18076bc:	80000015 	stw	zero,0(r16)
 18076c0:	2023883a 	mov	r17,r4
 18076c4:	2809883a 	mov	r4,r5
 18076c8:	300b883a 	mov	r5,r6
 18076cc:	dfc00215 	stw	ra,8(sp)
 18076d0:	1809e340 	call	1809e34 <fstat>
 18076d4:	1007883a 	mov	r3,r2
 18076d8:	00bfffc4 	movi	r2,-1
 18076dc:	18800626 	beq	r3,r2,18076f8 <_fstat_r+0x50>
 18076e0:	1805883a 	mov	r2,r3
 18076e4:	dfc00217 	ldw	ra,8(sp)
 18076e8:	dc400117 	ldw	r17,4(sp)
 18076ec:	dc000017 	ldw	r16,0(sp)
 18076f0:	dec00304 	addi	sp,sp,12
 18076f4:	f800283a 	ret
 18076f8:	80800017 	ldw	r2,0(r16)
 18076fc:	103ff826 	beq	r2,zero,18076e0 <_fstat_r+0x38>
 1807700:	88800015 	stw	r2,0(r17)
 1807704:	1805883a 	mov	r2,r3
 1807708:	dfc00217 	ldw	ra,8(sp)
 180770c:	dc400117 	ldw	r17,4(sp)
 1807710:	dc000017 	ldw	r16,0(sp)
 1807714:	dec00304 	addi	sp,sp,12
 1807718:	f800283a 	ret

0180771c <_isatty_r>:
 180771c:	defffd04 	addi	sp,sp,-12
 1807720:	dc000015 	stw	r16,0(sp)
 1807724:	04006074 	movhi	r16,385
 1807728:	840ae404 	addi	r16,r16,11152
 180772c:	dc400115 	stw	r17,4(sp)
 1807730:	80000015 	stw	zero,0(r16)
 1807734:	2023883a 	mov	r17,r4
 1807738:	2809883a 	mov	r4,r5
 180773c:	dfc00215 	stw	ra,8(sp)
 1807740:	1809f680 	call	1809f68 <isatty>
 1807744:	1007883a 	mov	r3,r2
 1807748:	00bfffc4 	movi	r2,-1
 180774c:	18800626 	beq	r3,r2,1807768 <_isatty_r+0x4c>
 1807750:	1805883a 	mov	r2,r3
 1807754:	dfc00217 	ldw	ra,8(sp)
 1807758:	dc400117 	ldw	r17,4(sp)
 180775c:	dc000017 	ldw	r16,0(sp)
 1807760:	dec00304 	addi	sp,sp,12
 1807764:	f800283a 	ret
 1807768:	80800017 	ldw	r2,0(r16)
 180776c:	103ff826 	beq	r2,zero,1807750 <_isatty_r+0x34>
 1807770:	88800015 	stw	r2,0(r17)
 1807774:	1805883a 	mov	r2,r3
 1807778:	dfc00217 	ldw	ra,8(sp)
 180777c:	dc400117 	ldw	r17,4(sp)
 1807780:	dc000017 	ldw	r16,0(sp)
 1807784:	dec00304 	addi	sp,sp,12
 1807788:	f800283a 	ret

0180778c <_lseek_r>:
 180778c:	defffd04 	addi	sp,sp,-12
 1807790:	dc000015 	stw	r16,0(sp)
 1807794:	04006074 	movhi	r16,385
 1807798:	840ae404 	addi	r16,r16,11152
 180779c:	dc400115 	stw	r17,4(sp)
 18077a0:	80000015 	stw	zero,0(r16)
 18077a4:	2023883a 	mov	r17,r4
 18077a8:	2809883a 	mov	r4,r5
 18077ac:	300b883a 	mov	r5,r6
 18077b0:	380d883a 	mov	r6,r7
 18077b4:	dfc00215 	stw	ra,8(sp)
 18077b8:	180a0880 	call	180a088 <lseek>
 18077bc:	1007883a 	mov	r3,r2
 18077c0:	00bfffc4 	movi	r2,-1
 18077c4:	18800626 	beq	r3,r2,18077e0 <_lseek_r+0x54>
 18077c8:	1805883a 	mov	r2,r3
 18077cc:	dfc00217 	ldw	ra,8(sp)
 18077d0:	dc400117 	ldw	r17,4(sp)
 18077d4:	dc000017 	ldw	r16,0(sp)
 18077d8:	dec00304 	addi	sp,sp,12
 18077dc:	f800283a 	ret
 18077e0:	80800017 	ldw	r2,0(r16)
 18077e4:	103ff826 	beq	r2,zero,18077c8 <_lseek_r+0x3c>
 18077e8:	88800015 	stw	r2,0(r17)
 18077ec:	1805883a 	mov	r2,r3
 18077f0:	dfc00217 	ldw	ra,8(sp)
 18077f4:	dc400117 	ldw	r17,4(sp)
 18077f8:	dc000017 	ldw	r16,0(sp)
 18077fc:	dec00304 	addi	sp,sp,12
 1807800:	f800283a 	ret

01807804 <_read_r>:
 1807804:	defffd04 	addi	sp,sp,-12
 1807808:	dc000015 	stw	r16,0(sp)
 180780c:	04006074 	movhi	r16,385
 1807810:	840ae404 	addi	r16,r16,11152
 1807814:	dc400115 	stw	r17,4(sp)
 1807818:	80000015 	stw	zero,0(r16)
 180781c:	2023883a 	mov	r17,r4
 1807820:	2809883a 	mov	r4,r5
 1807824:	300b883a 	mov	r5,r6
 1807828:	380d883a 	mov	r6,r7
 180782c:	dfc00215 	stw	ra,8(sp)
 1807830:	180a2840 	call	180a284 <read>
 1807834:	1007883a 	mov	r3,r2
 1807838:	00bfffc4 	movi	r2,-1
 180783c:	18800626 	beq	r3,r2,1807858 <_read_r+0x54>
 1807840:	1805883a 	mov	r2,r3
 1807844:	dfc00217 	ldw	ra,8(sp)
 1807848:	dc400117 	ldw	r17,4(sp)
 180784c:	dc000017 	ldw	r16,0(sp)
 1807850:	dec00304 	addi	sp,sp,12
 1807854:	f800283a 	ret
 1807858:	80800017 	ldw	r2,0(r16)
 180785c:	103ff826 	beq	r2,zero,1807840 <_read_r+0x3c>
 1807860:	88800015 	stw	r2,0(r17)
 1807864:	1805883a 	mov	r2,r3
 1807868:	dfc00217 	ldw	ra,8(sp)
 180786c:	dc400117 	ldw	r17,4(sp)
 1807870:	dc000017 	ldw	r16,0(sp)
 1807874:	dec00304 	addi	sp,sp,12
 1807878:	f800283a 	ret

0180787c <__udivdi3>:
 180787c:	defff004 	addi	sp,sp,-64
 1807880:	2005883a 	mov	r2,r4
 1807884:	3011883a 	mov	r8,r6
 1807888:	df000e15 	stw	fp,56(sp)
 180788c:	dd000a15 	stw	r20,40(sp)
 1807890:	dc000615 	stw	r16,24(sp)
 1807894:	dfc00f15 	stw	ra,60(sp)
 1807898:	ddc00d15 	stw	r23,52(sp)
 180789c:	dd800c15 	stw	r22,48(sp)
 18078a0:	dd400b15 	stw	r21,44(sp)
 18078a4:	dcc00915 	stw	r19,36(sp)
 18078a8:	dc800815 	stw	r18,32(sp)
 18078ac:	dc400715 	stw	r17,28(sp)
 18078b0:	4021883a 	mov	r16,r8
 18078b4:	1039883a 	mov	fp,r2
 18078b8:	2829883a 	mov	r20,r5
 18078bc:	38003b1e 	bne	r7,zero,18079ac <__udivdi3+0x130>
 18078c0:	2a005c36 	bltu	r5,r8,1807a34 <__udivdi3+0x1b8>
 18078c4:	4000a626 	beq	r8,zero,1807b60 <__udivdi3+0x2e4>
 18078c8:	00bfffd4 	movui	r2,65535
 18078cc:	14009e36 	bltu	r2,r16,1807b48 <__udivdi3+0x2cc>
 18078d0:	00803fc4 	movi	r2,255
 18078d4:	14013d36 	bltu	r2,r16,1807dcc <__udivdi3+0x550>
 18078d8:	000b883a 	mov	r5,zero
 18078dc:	0005883a 	mov	r2,zero
 18078e0:	8084d83a 	srl	r2,r16,r2
 18078e4:	01006074 	movhi	r4,385
 18078e8:	21029e04 	addi	r4,r4,2680
 18078ec:	01800804 	movi	r6,32
 18078f0:	1105883a 	add	r2,r2,r4
 18078f4:	10c00003 	ldbu	r3,0(r2)
 18078f8:	28c7883a 	add	r3,r5,r3
 18078fc:	30edc83a 	sub	r22,r6,r3
 1807900:	b000ee1e 	bne	r22,zero,1807cbc <__udivdi3+0x440>
 1807904:	802ad43a 	srli	r21,r16,16
 1807908:	00800044 	movi	r2,1
 180790c:	a423c83a 	sub	r17,r20,r16
 1807910:	85ffffcc 	andi	r23,r16,65535
 1807914:	d8800315 	stw	r2,12(sp)
 1807918:	8809883a 	mov	r4,r17
 180791c:	a80b883a 	mov	r5,r21
 1807920:	18096700 	call	1809670 <__udivsi3>
 1807924:	8809883a 	mov	r4,r17
 1807928:	a80b883a 	mov	r5,r21
 180792c:	102d883a 	mov	r22,r2
 1807930:	18096780 	call	1809678 <__umodsi3>
 1807934:	1004943a 	slli	r2,r2,16
 1807938:	e006d43a 	srli	r3,fp,16
 180793c:	bda3383a 	mul	r17,r23,r22
 1807940:	10c4b03a 	or	r2,r2,r3
 1807944:	1440042e 	bgeu	r2,r17,1807958 <__udivdi3+0xdc>
 1807948:	1405883a 	add	r2,r2,r16
 180794c:	b5bfffc4 	addi	r22,r22,-1
 1807950:	14000136 	bltu	r2,r16,1807958 <__udivdi3+0xdc>
 1807954:	14413d36 	bltu	r2,r17,1807e4c <__udivdi3+0x5d0>
 1807958:	1463c83a 	sub	r17,r2,r17
 180795c:	8809883a 	mov	r4,r17
 1807960:	a80b883a 	mov	r5,r21
 1807964:	18096700 	call	1809670 <__udivsi3>
 1807968:	8809883a 	mov	r4,r17
 180796c:	a80b883a 	mov	r5,r21
 1807970:	1029883a 	mov	r20,r2
 1807974:	18096780 	call	1809678 <__umodsi3>
 1807978:	1004943a 	slli	r2,r2,16
 180797c:	bd09383a 	mul	r4,r23,r20
 1807980:	e0ffffcc 	andi	r3,fp,65535
 1807984:	10c4b03a 	or	r2,r2,r3
 1807988:	1100042e 	bgeu	r2,r4,180799c <__udivdi3+0x120>
 180798c:	8085883a 	add	r2,r16,r2
 1807990:	a53fffc4 	addi	r20,r20,-1
 1807994:	14000136 	bltu	r2,r16,180799c <__udivdi3+0x120>
 1807998:	11012036 	bltu	r2,r4,1807e1c <__udivdi3+0x5a0>
 180799c:	b004943a 	slli	r2,r22,16
 18079a0:	d9000317 	ldw	r4,12(sp)
 18079a4:	a084b03a 	or	r2,r20,r2
 18079a8:	00001506 	br	1807a00 <__udivdi3+0x184>
 18079ac:	380d883a 	mov	r6,r7
 18079b0:	29c06236 	bltu	r5,r7,1807b3c <__udivdi3+0x2c0>
 18079b4:	00bfffd4 	movui	r2,65535
 18079b8:	11c05a36 	bltu	r2,r7,1807b24 <__udivdi3+0x2a8>
 18079bc:	00803fc4 	movi	r2,255
 18079c0:	11c0fc36 	bltu	r2,r7,1807db4 <__udivdi3+0x538>
 18079c4:	000b883a 	mov	r5,zero
 18079c8:	0005883a 	mov	r2,zero
 18079cc:	3084d83a 	srl	r2,r6,r2
 18079d0:	01006074 	movhi	r4,385
 18079d4:	21029e04 	addi	r4,r4,2680
 18079d8:	01c00804 	movi	r7,32
 18079dc:	1105883a 	add	r2,r2,r4
 18079e0:	10c00003 	ldbu	r3,0(r2)
 18079e4:	28c7883a 	add	r3,r5,r3
 18079e8:	38efc83a 	sub	r23,r7,r3
 18079ec:	b800691e 	bne	r23,zero,1807b94 <__udivdi3+0x318>
 18079f0:	35000136 	bltu	r6,r20,18079f8 <__udivdi3+0x17c>
 18079f4:	e4005136 	bltu	fp,r16,1807b3c <__udivdi3+0x2c0>
 18079f8:	00800044 	movi	r2,1
 18079fc:	0009883a 	mov	r4,zero
 1807a00:	2007883a 	mov	r3,r4
 1807a04:	dfc00f17 	ldw	ra,60(sp)
 1807a08:	df000e17 	ldw	fp,56(sp)
 1807a0c:	ddc00d17 	ldw	r23,52(sp)
 1807a10:	dd800c17 	ldw	r22,48(sp)
 1807a14:	dd400b17 	ldw	r21,44(sp)
 1807a18:	dd000a17 	ldw	r20,40(sp)
 1807a1c:	dcc00917 	ldw	r19,36(sp)
 1807a20:	dc800817 	ldw	r18,32(sp)
 1807a24:	dc400717 	ldw	r17,28(sp)
 1807a28:	dc000617 	ldw	r16,24(sp)
 1807a2c:	dec01004 	addi	sp,sp,64
 1807a30:	f800283a 	ret
 1807a34:	00bfffd4 	movui	r2,65535
 1807a38:	12005036 	bltu	r2,r8,1807b7c <__udivdi3+0x300>
 1807a3c:	00803fc4 	movi	r2,255
 1807a40:	1200e836 	bltu	r2,r8,1807de4 <__udivdi3+0x568>
 1807a44:	000b883a 	mov	r5,zero
 1807a48:	0005883a 	mov	r2,zero
 1807a4c:	8084d83a 	srl	r2,r16,r2
 1807a50:	01006074 	movhi	r4,385
 1807a54:	21029e04 	addi	r4,r4,2680
 1807a58:	01800804 	movi	r6,32
 1807a5c:	1105883a 	add	r2,r2,r4
 1807a60:	10c00003 	ldbu	r3,0(r2)
 1807a64:	28c7883a 	add	r3,r5,r3
 1807a68:	30cbc83a 	sub	r5,r6,r3
 1807a6c:	28000626 	beq	r5,zero,1807a88 <__udivdi3+0x20c>
 1807a70:	3145c83a 	sub	r2,r6,r5
 1807a74:	e084d83a 	srl	r2,fp,r2
 1807a78:	a146983a 	sll	r3,r20,r5
 1807a7c:	e178983a 	sll	fp,fp,r5
 1807a80:	8160983a 	sll	r16,r16,r5
 1807a84:	18a8b03a 	or	r20,r3,r2
 1807a88:	802ad43a 	srli	r21,r16,16
 1807a8c:	a009883a 	mov	r4,r20
 1807a90:	85ffffcc 	andi	r23,r16,65535
 1807a94:	a80b883a 	mov	r5,r21
 1807a98:	18096700 	call	1809670 <__udivsi3>
 1807a9c:	a009883a 	mov	r4,r20
 1807aa0:	a80b883a 	mov	r5,r21
 1807aa4:	102d883a 	mov	r22,r2
 1807aa8:	18096780 	call	1809678 <__umodsi3>
 1807aac:	1004943a 	slli	r2,r2,16
 1807ab0:	e006d43a 	srli	r3,fp,16
 1807ab4:	bda3383a 	mul	r17,r23,r22
 1807ab8:	10c4b03a 	or	r2,r2,r3
 1807abc:	1440042e 	bgeu	r2,r17,1807ad0 <__udivdi3+0x254>
 1807ac0:	1405883a 	add	r2,r2,r16
 1807ac4:	b5bfffc4 	addi	r22,r22,-1
 1807ac8:	14000136 	bltu	r2,r16,1807ad0 <__udivdi3+0x254>
 1807acc:	1440d536 	bltu	r2,r17,1807e24 <__udivdi3+0x5a8>
 1807ad0:	1463c83a 	sub	r17,r2,r17
 1807ad4:	8809883a 	mov	r4,r17
 1807ad8:	a80b883a 	mov	r5,r21
 1807adc:	18096700 	call	1809670 <__udivsi3>
 1807ae0:	8809883a 	mov	r4,r17
 1807ae4:	a80b883a 	mov	r5,r21
 1807ae8:	1029883a 	mov	r20,r2
 1807aec:	18096780 	call	1809678 <__umodsi3>
 1807af0:	1004943a 	slli	r2,r2,16
 1807af4:	bd09383a 	mul	r4,r23,r20
 1807af8:	e0ffffcc 	andi	r3,fp,65535
 1807afc:	10c4b03a 	or	r2,r2,r3
 1807b00:	1100042e 	bgeu	r2,r4,1807b14 <__udivdi3+0x298>
 1807b04:	8085883a 	add	r2,r16,r2
 1807b08:	a53fffc4 	addi	r20,r20,-1
 1807b0c:	14000136 	bltu	r2,r16,1807b14 <__udivdi3+0x298>
 1807b10:	1100c736 	bltu	r2,r4,1807e30 <__udivdi3+0x5b4>
 1807b14:	b004943a 	slli	r2,r22,16
 1807b18:	0009883a 	mov	r4,zero
 1807b1c:	a084b03a 	or	r2,r20,r2
 1807b20:	003fb706 	br	1807a00 <__udivdi3+0x184>
 1807b24:	00804034 	movhi	r2,256
 1807b28:	10bfffc4 	addi	r2,r2,-1
 1807b2c:	11c0a436 	bltu	r2,r7,1807dc0 <__udivdi3+0x544>
 1807b30:	01400404 	movi	r5,16
 1807b34:	2805883a 	mov	r2,r5
 1807b38:	003fa406 	br	18079cc <__udivdi3+0x150>
 1807b3c:	0005883a 	mov	r2,zero
 1807b40:	0009883a 	mov	r4,zero
 1807b44:	003fae06 	br	1807a00 <__udivdi3+0x184>
 1807b48:	00804034 	movhi	r2,256
 1807b4c:	10bfffc4 	addi	r2,r2,-1
 1807b50:	1400a136 	bltu	r2,r16,1807dd8 <__udivdi3+0x55c>
 1807b54:	01400404 	movi	r5,16
 1807b58:	2805883a 	mov	r2,r5
 1807b5c:	003f6006 	br	18078e0 <__udivdi3+0x64>
 1807b60:	01000044 	movi	r4,1
 1807b64:	000b883a 	mov	r5,zero
 1807b68:	18096700 	call	1809670 <__udivsi3>
 1807b6c:	1021883a 	mov	r16,r2
 1807b70:	00bfffd4 	movui	r2,65535
 1807b74:	143ff436 	bltu	r2,r16,1807b48 <__udivdi3+0x2cc>
 1807b78:	003f5506 	br	18078d0 <__udivdi3+0x54>
 1807b7c:	00804034 	movhi	r2,256
 1807b80:	10bfffc4 	addi	r2,r2,-1
 1807b84:	12009a36 	bltu	r2,r8,1807df0 <__udivdi3+0x574>
 1807b88:	01400404 	movi	r5,16
 1807b8c:	2805883a 	mov	r2,r5
 1807b90:	003fae06 	br	1807a4c <__udivdi3+0x1d0>
 1807b94:	3dc5c83a 	sub	r2,r7,r23
 1807b98:	35c8983a 	sll	r4,r6,r23
 1807b9c:	8086d83a 	srl	r3,r16,r2
 1807ba0:	a0a2d83a 	srl	r17,r20,r2
 1807ba4:	e084d83a 	srl	r2,fp,r2
 1807ba8:	20eab03a 	or	r21,r4,r3
 1807bac:	a82cd43a 	srli	r22,r21,16
 1807bb0:	a5c6983a 	sll	r3,r20,r23
 1807bb4:	8809883a 	mov	r4,r17
 1807bb8:	b00b883a 	mov	r5,r22
 1807bbc:	1886b03a 	or	r3,r3,r2
 1807bc0:	d8c00215 	stw	r3,8(sp)
 1807bc4:	18096700 	call	1809670 <__udivsi3>
 1807bc8:	8809883a 	mov	r4,r17
 1807bcc:	b00b883a 	mov	r5,r22
 1807bd0:	1029883a 	mov	r20,r2
 1807bd4:	18096780 	call	1809678 <__umodsi3>
 1807bd8:	a8ffffcc 	andi	r3,r21,65535
 1807bdc:	d8c00515 	stw	r3,20(sp)
 1807be0:	d9000217 	ldw	r4,8(sp)
 1807be4:	d9400517 	ldw	r5,20(sp)
 1807be8:	1004943a 	slli	r2,r2,16
 1807bec:	2006d43a 	srli	r3,r4,16
 1807bf0:	85e0983a 	sll	r16,r16,r23
 1807bf4:	2d23383a 	mul	r17,r5,r20
 1807bf8:	10c4b03a 	or	r2,r2,r3
 1807bfc:	dc000015 	stw	r16,0(sp)
 1807c00:	1440032e 	bgeu	r2,r17,1807c10 <__udivdi3+0x394>
 1807c04:	1545883a 	add	r2,r2,r21
 1807c08:	a53fffc4 	addi	r20,r20,-1
 1807c0c:	15407f2e 	bgeu	r2,r21,1807e0c <__udivdi3+0x590>
 1807c10:	1463c83a 	sub	r17,r2,r17
 1807c14:	8809883a 	mov	r4,r17
 1807c18:	b00b883a 	mov	r5,r22
 1807c1c:	18096700 	call	1809670 <__udivsi3>
 1807c20:	8809883a 	mov	r4,r17
 1807c24:	b00b883a 	mov	r5,r22
 1807c28:	1021883a 	mov	r16,r2
 1807c2c:	18096780 	call	1809678 <__umodsi3>
 1807c30:	d8c00517 	ldw	r3,20(sp)
 1807c34:	d9000217 	ldw	r4,8(sp)
 1807c38:	1004943a 	slli	r2,r2,16
 1807c3c:	1c0f383a 	mul	r7,r3,r16
 1807c40:	20ffffcc 	andi	r3,r4,65535
 1807c44:	10e2b03a 	or	r17,r2,r3
 1807c48:	89c0032e 	bgeu	r17,r7,1807c58 <__udivdi3+0x3dc>
 1807c4c:	8d63883a 	add	r17,r17,r21
 1807c50:	843fffc4 	addi	r16,r16,-1
 1807c54:	8d40692e 	bgeu	r17,r21,1807dfc <__udivdi3+0x580>
 1807c58:	a008943a 	slli	r4,r20,16
 1807c5c:	d9400017 	ldw	r5,0(sp)
 1807c60:	89e3c83a 	sub	r17,r17,r7
 1807c64:	8110b03a 	or	r8,r16,r4
 1807c68:	280cd43a 	srli	r6,r5,16
 1807c6c:	28ffffcc 	andi	r3,r5,65535
 1807c70:	40bfffcc 	andi	r2,r8,65535
 1807c74:	400ad43a 	srli	r5,r8,16
 1807c78:	10d3383a 	mul	r9,r2,r3
 1807c7c:	1185383a 	mul	r2,r2,r6
 1807c80:	28c7383a 	mul	r3,r5,r3
 1807c84:	4808d43a 	srli	r4,r9,16
 1807c88:	298b383a 	mul	r5,r5,r6
 1807c8c:	10c5883a 	add	r2,r2,r3
 1807c90:	2089883a 	add	r4,r4,r2
 1807c94:	20c0022e 	bgeu	r4,r3,1807ca0 <__udivdi3+0x424>
 1807c98:	00800074 	movhi	r2,1
 1807c9c:	288b883a 	add	r5,r5,r2
 1807ca0:	2004d43a 	srli	r2,r4,16
 1807ca4:	288b883a 	add	r5,r5,r2
 1807ca8:	89403f36 	bltu	r17,r5,1807da8 <__udivdi3+0x52c>
 1807cac:	89403926 	beq	r17,r5,1807d94 <__udivdi3+0x518>
 1807cb0:	4005883a 	mov	r2,r8
 1807cb4:	0009883a 	mov	r4,zero
 1807cb8:	003f5106 	br	1807a00 <__udivdi3+0x184>
 1807cbc:	85a0983a 	sll	r16,r16,r22
 1807cc0:	3585c83a 	sub	r2,r6,r22
 1807cc4:	a0a2d83a 	srl	r17,r20,r2
 1807cc8:	802ad43a 	srli	r21,r16,16
 1807ccc:	e084d83a 	srl	r2,fp,r2
 1807cd0:	a586983a 	sll	r3,r20,r22
 1807cd4:	8809883a 	mov	r4,r17
 1807cd8:	a80b883a 	mov	r5,r21
 1807cdc:	1886b03a 	or	r3,r3,r2
 1807ce0:	d8c00115 	stw	r3,4(sp)
 1807ce4:	18096700 	call	1809670 <__udivsi3>
 1807ce8:	8809883a 	mov	r4,r17
 1807cec:	a80b883a 	mov	r5,r21
 1807cf0:	d8800415 	stw	r2,16(sp)
 1807cf4:	18096780 	call	1809678 <__umodsi3>
 1807cf8:	d9000117 	ldw	r4,4(sp)
 1807cfc:	d9400417 	ldw	r5,16(sp)
 1807d00:	1004943a 	slli	r2,r2,16
 1807d04:	85ffffcc 	andi	r23,r16,65535
 1807d08:	2006d43a 	srli	r3,r4,16
 1807d0c:	b963383a 	mul	r17,r23,r5
 1807d10:	10c4b03a 	or	r2,r2,r3
 1807d14:	1440042e 	bgeu	r2,r17,1807d28 <__udivdi3+0x4ac>
 1807d18:	297fffc4 	addi	r5,r5,-1
 1807d1c:	1405883a 	add	r2,r2,r16
 1807d20:	d9400415 	stw	r5,16(sp)
 1807d24:	1400442e 	bgeu	r2,r16,1807e38 <__udivdi3+0x5bc>
 1807d28:	1463c83a 	sub	r17,r2,r17
 1807d2c:	8809883a 	mov	r4,r17
 1807d30:	a80b883a 	mov	r5,r21
 1807d34:	18096700 	call	1809670 <__udivsi3>
 1807d38:	8809883a 	mov	r4,r17
 1807d3c:	a80b883a 	mov	r5,r21
 1807d40:	1029883a 	mov	r20,r2
 1807d44:	18096780 	call	1809678 <__umodsi3>
 1807d48:	d9400117 	ldw	r5,4(sp)
 1807d4c:	1004943a 	slli	r2,r2,16
 1807d50:	bd09383a 	mul	r4,r23,r20
 1807d54:	28ffffcc 	andi	r3,r5,65535
 1807d58:	10c6b03a 	or	r3,r2,r3
 1807d5c:	1900062e 	bgeu	r3,r4,1807d78 <__udivdi3+0x4fc>
 1807d60:	1c07883a 	add	r3,r3,r16
 1807d64:	a53fffc4 	addi	r20,r20,-1
 1807d68:	1c000336 	bltu	r3,r16,1807d78 <__udivdi3+0x4fc>
 1807d6c:	1900022e 	bgeu	r3,r4,1807d78 <__udivdi3+0x4fc>
 1807d70:	a53fffc4 	addi	r20,r20,-1
 1807d74:	1c07883a 	add	r3,r3,r16
 1807d78:	d9400417 	ldw	r5,16(sp)
 1807d7c:	e5b8983a 	sll	fp,fp,r22
 1807d80:	1923c83a 	sub	r17,r3,r4
 1807d84:	2804943a 	slli	r2,r5,16
 1807d88:	a0a8b03a 	or	r20,r20,r2
 1807d8c:	dd000315 	stw	r20,12(sp)
 1807d90:	003ee106 	br	1807918 <__udivdi3+0x9c>
 1807d94:	2004943a 	slli	r2,r4,16
 1807d98:	e5c8983a 	sll	r4,fp,r23
 1807d9c:	48ffffcc 	andi	r3,r9,65535
 1807da0:	10c5883a 	add	r2,r2,r3
 1807da4:	20bfc22e 	bgeu	r4,r2,1807cb0 <__udivdi3+0x434>
 1807da8:	40bfffc4 	addi	r2,r8,-1
 1807dac:	0009883a 	mov	r4,zero
 1807db0:	003f1306 	br	1807a00 <__udivdi3+0x184>
 1807db4:	01400204 	movi	r5,8
 1807db8:	2805883a 	mov	r2,r5
 1807dbc:	003f0306 	br	18079cc <__udivdi3+0x150>
 1807dc0:	01400604 	movi	r5,24
 1807dc4:	2805883a 	mov	r2,r5
 1807dc8:	003f0006 	br	18079cc <__udivdi3+0x150>
 1807dcc:	01400204 	movi	r5,8
 1807dd0:	2805883a 	mov	r2,r5
 1807dd4:	003ec206 	br	18078e0 <__udivdi3+0x64>
 1807dd8:	01400604 	movi	r5,24
 1807ddc:	2805883a 	mov	r2,r5
 1807de0:	003ebf06 	br	18078e0 <__udivdi3+0x64>
 1807de4:	01400204 	movi	r5,8
 1807de8:	2805883a 	mov	r2,r5
 1807dec:	003f1706 	br	1807a4c <__udivdi3+0x1d0>
 1807df0:	01400604 	movi	r5,24
 1807df4:	2805883a 	mov	r2,r5
 1807df8:	003f1406 	br	1807a4c <__udivdi3+0x1d0>
 1807dfc:	89ff962e 	bgeu	r17,r7,1807c58 <__udivdi3+0x3dc>
 1807e00:	8d63883a 	add	r17,r17,r21
 1807e04:	843fffc4 	addi	r16,r16,-1
 1807e08:	003f9306 	br	1807c58 <__udivdi3+0x3dc>
 1807e0c:	147f802e 	bgeu	r2,r17,1807c10 <__udivdi3+0x394>
 1807e10:	a53fffc4 	addi	r20,r20,-1
 1807e14:	1545883a 	add	r2,r2,r21
 1807e18:	003f7d06 	br	1807c10 <__udivdi3+0x394>
 1807e1c:	a53fffc4 	addi	r20,r20,-1
 1807e20:	003ede06 	br	180799c <__udivdi3+0x120>
 1807e24:	b5bfffc4 	addi	r22,r22,-1
 1807e28:	1405883a 	add	r2,r2,r16
 1807e2c:	003f2806 	br	1807ad0 <__udivdi3+0x254>
 1807e30:	a53fffc4 	addi	r20,r20,-1
 1807e34:	003f3706 	br	1807b14 <__udivdi3+0x298>
 1807e38:	147fbb2e 	bgeu	r2,r17,1807d28 <__udivdi3+0x4ac>
 1807e3c:	297fffc4 	addi	r5,r5,-1
 1807e40:	1405883a 	add	r2,r2,r16
 1807e44:	d9400415 	stw	r5,16(sp)
 1807e48:	003fb706 	br	1807d28 <__udivdi3+0x4ac>
 1807e4c:	b5bfffc4 	addi	r22,r22,-1
 1807e50:	1405883a 	add	r2,r2,r16
 1807e54:	003ec006 	br	1807958 <__udivdi3+0xdc>

01807e58 <__umoddi3>:
 1807e58:	defff104 	addi	sp,sp,-60
 1807e5c:	dd800b15 	stw	r22,44(sp)
 1807e60:	dd000915 	stw	r20,36(sp)
 1807e64:	dc000515 	stw	r16,20(sp)
 1807e68:	dfc00e15 	stw	ra,56(sp)
 1807e6c:	df000d15 	stw	fp,52(sp)
 1807e70:	ddc00c15 	stw	r23,48(sp)
 1807e74:	dd400a15 	stw	r21,40(sp)
 1807e78:	dcc00815 	stw	r19,32(sp)
 1807e7c:	dc800715 	stw	r18,28(sp)
 1807e80:	dc400615 	stw	r17,24(sp)
 1807e84:	3021883a 	mov	r16,r6
 1807e88:	202d883a 	mov	r22,r4
 1807e8c:	2829883a 	mov	r20,r5
 1807e90:	38002b1e 	bne	r7,zero,1807f40 <__umoddi3+0xe8>
 1807e94:	29805036 	bltu	r5,r6,1807fd8 <__umoddi3+0x180>
 1807e98:	30008a26 	beq	r6,zero,18080c4 <__umoddi3+0x26c>
 1807e9c:	00bfffd4 	movui	r2,65535
 1807ea0:	14008236 	bltu	r2,r16,18080ac <__umoddi3+0x254>
 1807ea4:	00803fc4 	movi	r2,255
 1807ea8:	14013636 	bltu	r2,r16,1808384 <__umoddi3+0x52c>
 1807eac:	000b883a 	mov	r5,zero
 1807eb0:	0005883a 	mov	r2,zero
 1807eb4:	8084d83a 	srl	r2,r16,r2
 1807eb8:	01006074 	movhi	r4,385
 1807ebc:	21029e04 	addi	r4,r4,2680
 1807ec0:	01800804 	movi	r6,32
 1807ec4:	1105883a 	add	r2,r2,r4
 1807ec8:	10c00003 	ldbu	r3,0(r2)
 1807ecc:	28c7883a 	add	r3,r5,r3
 1807ed0:	30efc83a 	sub	r23,r6,r3
 1807ed4:	b800941e 	bne	r23,zero,1808128 <__umoddi3+0x2d0>
 1807ed8:	802ad43a 	srli	r21,r16,16
 1807edc:	a423c83a 	sub	r17,r20,r16
 1807ee0:	0039883a 	mov	fp,zero
 1807ee4:	853fffcc 	andi	r20,r16,65535
 1807ee8:	8809883a 	mov	r4,r17
 1807eec:	a80b883a 	mov	r5,r21
 1807ef0:	18096700 	call	1809670 <__udivsi3>
 1807ef4:	8809883a 	mov	r4,r17
 1807ef8:	a80b883a 	mov	r5,r21
 1807efc:	a0a3383a 	mul	r17,r20,r2
 1807f00:	18096780 	call	1809678 <__umodsi3>
 1807f04:	1004943a 	slli	r2,r2,16
 1807f08:	b006d43a 	srli	r3,r22,16
 1807f0c:	10c4b03a 	or	r2,r2,r3
 1807f10:	1440032e 	bgeu	r2,r17,1807f20 <__umoddi3+0xc8>
 1807f14:	1405883a 	add	r2,r2,r16
 1807f18:	14000136 	bltu	r2,r16,1807f20 <__umoddi3+0xc8>
 1807f1c:	14413536 	bltu	r2,r17,18083f4 <__umoddi3+0x59c>
 1807f20:	1463c83a 	sub	r17,r2,r17
 1807f24:	8809883a 	mov	r4,r17
 1807f28:	a80b883a 	mov	r5,r21
 1807f2c:	18096700 	call	1809670 <__udivsi3>
 1807f30:	8809883a 	mov	r4,r17
 1807f34:	a0a3383a 	mul	r17,r20,r2
 1807f38:	a80b883a 	mov	r5,r21
 1807f3c:	00004d06 	br	1808074 <__umoddi3+0x21c>
 1807f40:	380d883a 	mov	r6,r7
 1807f44:	29c0102e 	bgeu	r5,r7,1807f88 <__umoddi3+0x130>
 1807f48:	2011883a 	mov	r8,r4
 1807f4c:	2813883a 	mov	r9,r5
 1807f50:	4005883a 	mov	r2,r8
 1807f54:	4807883a 	mov	r3,r9
 1807f58:	dfc00e17 	ldw	ra,56(sp)
 1807f5c:	df000d17 	ldw	fp,52(sp)
 1807f60:	ddc00c17 	ldw	r23,48(sp)
 1807f64:	dd800b17 	ldw	r22,44(sp)
 1807f68:	dd400a17 	ldw	r21,40(sp)
 1807f6c:	dd000917 	ldw	r20,36(sp)
 1807f70:	dcc00817 	ldw	r19,32(sp)
 1807f74:	dc800717 	ldw	r18,28(sp)
 1807f78:	dc400617 	ldw	r17,24(sp)
 1807f7c:	dc000517 	ldw	r16,20(sp)
 1807f80:	dec00f04 	addi	sp,sp,60
 1807f84:	f800283a 	ret
 1807f88:	00bfffd4 	movui	r2,65535
 1807f8c:	11c05a36 	bltu	r2,r7,18080f8 <__umoddi3+0x2a0>
 1807f90:	00803fc4 	movi	r2,255
 1807f94:	11c0fe36 	bltu	r2,r7,1808390 <__umoddi3+0x538>
 1807f98:	000b883a 	mov	r5,zero
 1807f9c:	0005883a 	mov	r2,zero
 1807fa0:	3084d83a 	srl	r2,r6,r2
 1807fa4:	01006074 	movhi	r4,385
 1807fa8:	21029e04 	addi	r4,r4,2680
 1807fac:	01c00804 	movi	r7,32
 1807fb0:	1105883a 	add	r2,r2,r4
 1807fb4:	10c00003 	ldbu	r3,0(r2)
 1807fb8:	28c7883a 	add	r3,r5,r3
 1807fbc:	38ebc83a 	sub	r21,r7,r3
 1807fc0:	a800851e 	bne	r21,zero,18081d8 <__umoddi3+0x380>
 1807fc4:	35005236 	bltu	r6,r20,1808110 <__umoddi3+0x2b8>
 1807fc8:	b400512e 	bgeu	r22,r16,1808110 <__umoddi3+0x2b8>
 1807fcc:	b011883a 	mov	r8,r22
 1807fd0:	a013883a 	mov	r9,r20
 1807fd4:	003fde06 	br	1807f50 <__umoddi3+0xf8>
 1807fd8:	00bfffd4 	movui	r2,65535
 1807fdc:	11804036 	bltu	r2,r6,18080e0 <__umoddi3+0x288>
 1807fe0:	00803fc4 	movi	r2,255
 1807fe4:	1180ed36 	bltu	r2,r6,180839c <__umoddi3+0x544>
 1807fe8:	000b883a 	mov	r5,zero
 1807fec:	0005883a 	mov	r2,zero
 1807ff0:	8084d83a 	srl	r2,r16,r2
 1807ff4:	01006074 	movhi	r4,385
 1807ff8:	21029e04 	addi	r4,r4,2680
 1807ffc:	01800804 	movi	r6,32
 1808000:	1105883a 	add	r2,r2,r4
 1808004:	10c00003 	ldbu	r3,0(r2)
 1808008:	28c7883a 	add	r3,r5,r3
 180800c:	30c7c83a 	sub	r3,r6,r3
 1808010:	1800bf1e 	bne	r3,zero,1808310 <__umoddi3+0x4b8>
 1808014:	0039883a 	mov	fp,zero
 1808018:	802ad43a 	srli	r21,r16,16
 180801c:	a009883a 	mov	r4,r20
 1808020:	85ffffcc 	andi	r23,r16,65535
 1808024:	a80b883a 	mov	r5,r21
 1808028:	18096700 	call	1809670 <__udivsi3>
 180802c:	a009883a 	mov	r4,r20
 1808030:	a80b883a 	mov	r5,r21
 1808034:	b8a3383a 	mul	r17,r23,r2
 1808038:	18096780 	call	1809678 <__umodsi3>
 180803c:	1004943a 	slli	r2,r2,16
 1808040:	b006d43a 	srli	r3,r22,16
 1808044:	10c4b03a 	or	r2,r2,r3
 1808048:	1440032e 	bgeu	r2,r17,1808058 <__umoddi3+0x200>
 180804c:	1405883a 	add	r2,r2,r16
 1808050:	14000136 	bltu	r2,r16,1808058 <__umoddi3+0x200>
 1808054:	1440e536 	bltu	r2,r17,18083ec <__umoddi3+0x594>
 1808058:	1463c83a 	sub	r17,r2,r17
 180805c:	8809883a 	mov	r4,r17
 1808060:	a80b883a 	mov	r5,r21
 1808064:	18096700 	call	1809670 <__udivsi3>
 1808068:	8809883a 	mov	r4,r17
 180806c:	b8a3383a 	mul	r17,r23,r2
 1808070:	a80b883a 	mov	r5,r21
 1808074:	18096780 	call	1809678 <__umodsi3>
 1808078:	1004943a 	slli	r2,r2,16
 180807c:	b0ffffcc 	andi	r3,r22,65535
 1808080:	10c4b03a 	or	r2,r2,r3
 1808084:	1440042e 	bgeu	r2,r17,1808098 <__umoddi3+0x240>
 1808088:	1405883a 	add	r2,r2,r16
 180808c:	14000236 	bltu	r2,r16,1808098 <__umoddi3+0x240>
 1808090:	1440012e 	bgeu	r2,r17,1808098 <__umoddi3+0x240>
 1808094:	1405883a 	add	r2,r2,r16
 1808098:	1445c83a 	sub	r2,r2,r17
 180809c:	1724d83a 	srl	r18,r2,fp
 18080a0:	0013883a 	mov	r9,zero
 18080a4:	9011883a 	mov	r8,r18
 18080a8:	003fa906 	br	1807f50 <__umoddi3+0xf8>
 18080ac:	00804034 	movhi	r2,256
 18080b0:	10bfffc4 	addi	r2,r2,-1
 18080b4:	1400b036 	bltu	r2,r16,1808378 <__umoddi3+0x520>
 18080b8:	01400404 	movi	r5,16
 18080bc:	2805883a 	mov	r2,r5
 18080c0:	003f7c06 	br	1807eb4 <__umoddi3+0x5c>
 18080c4:	01000044 	movi	r4,1
 18080c8:	000b883a 	mov	r5,zero
 18080cc:	18096700 	call	1809670 <__udivsi3>
 18080d0:	1021883a 	mov	r16,r2
 18080d4:	00bfffd4 	movui	r2,65535
 18080d8:	143ff436 	bltu	r2,r16,18080ac <__umoddi3+0x254>
 18080dc:	003f7106 	br	1807ea4 <__umoddi3+0x4c>
 18080e0:	00804034 	movhi	r2,256
 18080e4:	10bfffc4 	addi	r2,r2,-1
 18080e8:	1180af36 	bltu	r2,r6,18083a8 <__umoddi3+0x550>
 18080ec:	01400404 	movi	r5,16
 18080f0:	2805883a 	mov	r2,r5
 18080f4:	003fbe06 	br	1807ff0 <__umoddi3+0x198>
 18080f8:	00804034 	movhi	r2,256
 18080fc:	10bfffc4 	addi	r2,r2,-1
 1808100:	11c0ac36 	bltu	r2,r7,18083b4 <__umoddi3+0x55c>
 1808104:	01400404 	movi	r5,16
 1808108:	2805883a 	mov	r2,r5
 180810c:	003fa406 	br	1807fa0 <__umoddi3+0x148>
 1808110:	b409c83a 	sub	r4,r22,r16
 1808114:	b105803a 	cmpltu	r2,r22,r4
 1808118:	a187c83a 	sub	r3,r20,r6
 180811c:	18a9c83a 	sub	r20,r3,r2
 1808120:	202d883a 	mov	r22,r4
 1808124:	003fa906 	br	1807fcc <__umoddi3+0x174>
 1808128:	85e0983a 	sll	r16,r16,r23
 180812c:	35c5c83a 	sub	r2,r6,r23
 1808130:	a0a2d83a 	srl	r17,r20,r2
 1808134:	802ad43a 	srli	r21,r16,16
 1808138:	b084d83a 	srl	r2,r22,r2
 180813c:	a5c6983a 	sll	r3,r20,r23
 1808140:	8809883a 	mov	r4,r17
 1808144:	a80b883a 	mov	r5,r21
 1808148:	1886b03a 	or	r3,r3,r2
 180814c:	d8c00115 	stw	r3,4(sp)
 1808150:	853fffcc 	andi	r20,r16,65535
 1808154:	18096700 	call	1809670 <__udivsi3>
 1808158:	8809883a 	mov	r4,r17
 180815c:	a80b883a 	mov	r5,r21
 1808160:	a0a3383a 	mul	r17,r20,r2
 1808164:	18096780 	call	1809678 <__umodsi3>
 1808168:	d9000117 	ldw	r4,4(sp)
 180816c:	1004943a 	slli	r2,r2,16
 1808170:	b839883a 	mov	fp,r23
 1808174:	2006d43a 	srli	r3,r4,16
 1808178:	10c4b03a 	or	r2,r2,r3
 180817c:	1440022e 	bgeu	r2,r17,1808188 <__umoddi3+0x330>
 1808180:	1405883a 	add	r2,r2,r16
 1808184:	1400962e 	bgeu	r2,r16,18083e0 <__umoddi3+0x588>
 1808188:	1463c83a 	sub	r17,r2,r17
 180818c:	8809883a 	mov	r4,r17
 1808190:	a80b883a 	mov	r5,r21
 1808194:	18096700 	call	1809670 <__udivsi3>
 1808198:	8809883a 	mov	r4,r17
 180819c:	a80b883a 	mov	r5,r21
 18081a0:	a0a3383a 	mul	r17,r20,r2
 18081a4:	18096780 	call	1809678 <__umodsi3>
 18081a8:	d9400117 	ldw	r5,4(sp)
 18081ac:	1004943a 	slli	r2,r2,16
 18081b0:	28ffffcc 	andi	r3,r5,65535
 18081b4:	10c4b03a 	or	r2,r2,r3
 18081b8:	1440042e 	bgeu	r2,r17,18081cc <__umoddi3+0x374>
 18081bc:	1405883a 	add	r2,r2,r16
 18081c0:	14000236 	bltu	r2,r16,18081cc <__umoddi3+0x374>
 18081c4:	1440012e 	bgeu	r2,r17,18081cc <__umoddi3+0x374>
 18081c8:	1405883a 	add	r2,r2,r16
 18081cc:	b5ec983a 	sll	r22,r22,r23
 18081d0:	1463c83a 	sub	r17,r2,r17
 18081d4:	003f4406 	br	1807ee8 <__umoddi3+0x90>
 18081d8:	3d4fc83a 	sub	r7,r7,r21
 18081dc:	3546983a 	sll	r3,r6,r21
 18081e0:	81c4d83a 	srl	r2,r16,r7
 18081e4:	a1e2d83a 	srl	r17,r20,r7
 18081e8:	a54c983a 	sll	r6,r20,r21
 18081ec:	18aeb03a 	or	r23,r3,r2
 18081f0:	b828d43a 	srli	r20,r23,16
 18081f4:	b1c4d83a 	srl	r2,r22,r7
 18081f8:	8809883a 	mov	r4,r17
 18081fc:	a00b883a 	mov	r5,r20
 1808200:	308cb03a 	or	r6,r6,r2
 1808204:	d9c00315 	stw	r7,12(sp)
 1808208:	d9800215 	stw	r6,8(sp)
 180820c:	18096700 	call	1809670 <__udivsi3>
 1808210:	8809883a 	mov	r4,r17
 1808214:	a00b883a 	mov	r5,r20
 1808218:	1039883a 	mov	fp,r2
 180821c:	18096780 	call	1809678 <__umodsi3>
 1808220:	b8ffffcc 	andi	r3,r23,65535
 1808224:	d8c00415 	stw	r3,16(sp)
 1808228:	d9000217 	ldw	r4,8(sp)
 180822c:	d9400417 	ldw	r5,16(sp)
 1808230:	1004943a 	slli	r2,r2,16
 1808234:	2006d43a 	srli	r3,r4,16
 1808238:	8560983a 	sll	r16,r16,r21
 180823c:	2f23383a 	mul	r17,r5,fp
 1808240:	10c4b03a 	or	r2,r2,r3
 1808244:	dc000015 	stw	r16,0(sp)
 1808248:	b56c983a 	sll	r22,r22,r21
 180824c:	1440032e 	bgeu	r2,r17,180825c <__umoddi3+0x404>
 1808250:	15c5883a 	add	r2,r2,r23
 1808254:	e73fffc4 	addi	fp,fp,-1
 1808258:	15c05d2e 	bgeu	r2,r23,18083d0 <__umoddi3+0x578>
 180825c:	1463c83a 	sub	r17,r2,r17
 1808260:	8809883a 	mov	r4,r17
 1808264:	a00b883a 	mov	r5,r20
 1808268:	18096700 	call	1809670 <__udivsi3>
 180826c:	8809883a 	mov	r4,r17
 1808270:	a00b883a 	mov	r5,r20
 1808274:	1021883a 	mov	r16,r2
 1808278:	18096780 	call	1809678 <__umodsi3>
 180827c:	d8c00417 	ldw	r3,16(sp)
 1808280:	d9000217 	ldw	r4,8(sp)
 1808284:	1004943a 	slli	r2,r2,16
 1808288:	1c23383a 	mul	r17,r3,r16
 180828c:	20ffffcc 	andi	r3,r4,65535
 1808290:	10ceb03a 	or	r7,r2,r3
 1808294:	3c40032e 	bgeu	r7,r17,18082a4 <__umoddi3+0x44c>
 1808298:	3dcf883a 	add	r7,r7,r23
 180829c:	843fffc4 	addi	r16,r16,-1
 18082a0:	3dc0472e 	bgeu	r7,r23,18083c0 <__umoddi3+0x568>
 18082a4:	e004943a 	slli	r2,fp,16
 18082a8:	d9400017 	ldw	r5,0(sp)
 18082ac:	3c4fc83a 	sub	r7,r7,r17
 18082b0:	8084b03a 	or	r2,r16,r2
 18082b4:	28ffffcc 	andi	r3,r5,65535
 18082b8:	280cd43a 	srli	r6,r5,16
 18082bc:	100ad43a 	srli	r5,r2,16
 18082c0:	10bfffcc 	andi	r2,r2,65535
 18082c4:	10d1383a 	mul	r8,r2,r3
 18082c8:	28c7383a 	mul	r3,r5,r3
 18082cc:	1185383a 	mul	r2,r2,r6
 18082d0:	4008d43a 	srli	r4,r8,16
 18082d4:	298b383a 	mul	r5,r5,r6
 18082d8:	10c5883a 	add	r2,r2,r3
 18082dc:	2089883a 	add	r4,r4,r2
 18082e0:	20c0022e 	bgeu	r4,r3,18082ec <__umoddi3+0x494>
 18082e4:	00800074 	movhi	r2,1
 18082e8:	288b883a 	add	r5,r5,r2
 18082ec:	2004d43a 	srli	r2,r4,16
 18082f0:	2008943a 	slli	r4,r4,16
 18082f4:	40ffffcc 	andi	r3,r8,65535
 18082f8:	288b883a 	add	r5,r5,r2
 18082fc:	20c9883a 	add	r4,r4,r3
 1808300:	39400b36 	bltu	r7,r5,1808330 <__umoddi3+0x4d8>
 1808304:	39403d26 	beq	r7,r5,18083fc <__umoddi3+0x5a4>
 1808308:	394bc83a 	sub	r5,r7,r5
 180830c:	00000f06 	br	180834c <__umoddi3+0x4f4>
 1808310:	30c5c83a 	sub	r2,r6,r3
 1808314:	1839883a 	mov	fp,r3
 1808318:	b084d83a 	srl	r2,r22,r2
 180831c:	a0c6983a 	sll	r3,r20,r3
 1808320:	8720983a 	sll	r16,r16,fp
 1808324:	b72c983a 	sll	r22,r22,fp
 1808328:	18a8b03a 	or	r20,r3,r2
 180832c:	003f3a06 	br	1808018 <__umoddi3+0x1c0>
 1808330:	d8c00017 	ldw	r3,0(sp)
 1808334:	20c5c83a 	sub	r2,r4,r3
 1808338:	2089803a 	cmpltu	r4,r4,r2
 180833c:	2dc7c83a 	sub	r3,r5,r23
 1808340:	1907c83a 	sub	r3,r3,r4
 1808344:	38cbc83a 	sub	r5,r7,r3
 1808348:	1009883a 	mov	r4,r2
 180834c:	b105c83a 	sub	r2,r22,r4
 1808350:	b087803a 	cmpltu	r3,r22,r2
 1808354:	28c7c83a 	sub	r3,r5,r3
 1808358:	d9400317 	ldw	r5,12(sp)
 180835c:	1544d83a 	srl	r2,r2,r21
 1808360:	1948983a 	sll	r4,r3,r5
 1808364:	1d46d83a 	srl	r3,r3,r21
 1808368:	20a4b03a 	or	r18,r4,r2
 180836c:	9011883a 	mov	r8,r18
 1808370:	1813883a 	mov	r9,r3
 1808374:	003ef606 	br	1807f50 <__umoddi3+0xf8>
 1808378:	01400604 	movi	r5,24
 180837c:	2805883a 	mov	r2,r5
 1808380:	003ecc06 	br	1807eb4 <__umoddi3+0x5c>
 1808384:	01400204 	movi	r5,8
 1808388:	2805883a 	mov	r2,r5
 180838c:	003ec906 	br	1807eb4 <__umoddi3+0x5c>
 1808390:	01400204 	movi	r5,8
 1808394:	2805883a 	mov	r2,r5
 1808398:	003f0106 	br	1807fa0 <__umoddi3+0x148>
 180839c:	01400204 	movi	r5,8
 18083a0:	2805883a 	mov	r2,r5
 18083a4:	003f1206 	br	1807ff0 <__umoddi3+0x198>
 18083a8:	01400604 	movi	r5,24
 18083ac:	2805883a 	mov	r2,r5
 18083b0:	003f0f06 	br	1807ff0 <__umoddi3+0x198>
 18083b4:	01400604 	movi	r5,24
 18083b8:	2805883a 	mov	r2,r5
 18083bc:	003ef806 	br	1807fa0 <__umoddi3+0x148>
 18083c0:	3c7fb82e 	bgeu	r7,r17,18082a4 <__umoddi3+0x44c>
 18083c4:	843fffc4 	addi	r16,r16,-1
 18083c8:	3dcf883a 	add	r7,r7,r23
 18083cc:	003fb506 	br	18082a4 <__umoddi3+0x44c>
 18083d0:	147fa22e 	bgeu	r2,r17,180825c <__umoddi3+0x404>
 18083d4:	e73fffc4 	addi	fp,fp,-1
 18083d8:	15c5883a 	add	r2,r2,r23
 18083dc:	003f9f06 	br	180825c <__umoddi3+0x404>
 18083e0:	147f692e 	bgeu	r2,r17,1808188 <__umoddi3+0x330>
 18083e4:	1405883a 	add	r2,r2,r16
 18083e8:	003f6706 	br	1808188 <__umoddi3+0x330>
 18083ec:	1405883a 	add	r2,r2,r16
 18083f0:	003f1906 	br	1808058 <__umoddi3+0x200>
 18083f4:	1405883a 	add	r2,r2,r16
 18083f8:	003ec906 	br	1807f20 <__umoddi3+0xc8>
 18083fc:	b13fcc36 	bltu	r22,r4,1808330 <__umoddi3+0x4d8>
 1808400:	000b883a 	mov	r5,zero
 1808404:	003fd106 	br	180834c <__umoddi3+0x4f4>

01808408 <_fpadd_parts>:
 1808408:	defff804 	addi	sp,sp,-32
 180840c:	dcc00315 	stw	r19,12(sp)
 1808410:	2027883a 	mov	r19,r4
 1808414:	21000017 	ldw	r4,0(r4)
 1808418:	00c00044 	movi	r3,1
 180841c:	dd400515 	stw	r21,20(sp)
 1808420:	dd000415 	stw	r20,16(sp)
 1808424:	ddc00715 	stw	r23,28(sp)
 1808428:	dd800615 	stw	r22,24(sp)
 180842c:	dc800215 	stw	r18,8(sp)
 1808430:	dc400115 	stw	r17,4(sp)
 1808434:	dc000015 	stw	r16,0(sp)
 1808438:	282b883a 	mov	r21,r5
 180843c:	3029883a 	mov	r20,r6
 1808440:	1900632e 	bgeu	r3,r4,18085d0 <_fpadd_parts+0x1c8>
 1808444:	28800017 	ldw	r2,0(r5)
 1808448:	1880812e 	bgeu	r3,r2,1808650 <_fpadd_parts+0x248>
 180844c:	00c00104 	movi	r3,4
 1808450:	20c0dc26 	beq	r4,r3,18087c4 <_fpadd_parts+0x3bc>
 1808454:	10c07e26 	beq	r2,r3,1808650 <_fpadd_parts+0x248>
 1808458:	00c00084 	movi	r3,2
 180845c:	10c06726 	beq	r2,r3,18085fc <_fpadd_parts+0x1f4>
 1808460:	20c07b26 	beq	r4,r3,1808650 <_fpadd_parts+0x248>
 1808464:	9dc00217 	ldw	r23,8(r19)
 1808468:	28c00217 	ldw	r3,8(r5)
 180846c:	9c400317 	ldw	r17,12(r19)
 1808470:	2bc00317 	ldw	r15,12(r5)
 1808474:	b8cdc83a 	sub	r6,r23,r3
 1808478:	9c800417 	ldw	r18,16(r19)
 180847c:	2c000417 	ldw	r16,16(r5)
 1808480:	3009883a 	mov	r4,r6
 1808484:	30009716 	blt	r6,zero,18086e4 <_fpadd_parts+0x2dc>
 1808488:	00800fc4 	movi	r2,63
 180848c:	11806b16 	blt	r2,r6,180863c <_fpadd_parts+0x234>
 1808490:	0100a40e 	bge	zero,r4,1808724 <_fpadd_parts+0x31c>
 1808494:	35bff804 	addi	r22,r6,-32
 1808498:	b000bc16 	blt	r22,zero,180878c <_fpadd_parts+0x384>
 180849c:	8596d83a 	srl	r11,r16,r22
 18084a0:	0019883a 	mov	r12,zero
 18084a4:	0013883a 	mov	r9,zero
 18084a8:	01000044 	movi	r4,1
 18084ac:	0015883a 	mov	r10,zero
 18084b0:	b000be16 	blt	r22,zero,18087ac <_fpadd_parts+0x3a4>
 18084b4:	2590983a 	sll	r8,r4,r22
 18084b8:	000f883a 	mov	r7,zero
 18084bc:	00bfffc4 	movi	r2,-1
 18084c0:	3889883a 	add	r4,r7,r2
 18084c4:	408b883a 	add	r5,r8,r2
 18084c8:	21cd803a 	cmpltu	r6,r4,r7
 18084cc:	314b883a 	add	r5,r6,r5
 18084d0:	7904703a 	and	r2,r15,r4
 18084d4:	8146703a 	and	r3,r16,r5
 18084d8:	10c4b03a 	or	r2,r2,r3
 18084dc:	10000226 	beq	r2,zero,18084e8 <_fpadd_parts+0xe0>
 18084e0:	02400044 	movi	r9,1
 18084e4:	0015883a 	mov	r10,zero
 18084e8:	5a5eb03a 	or	r15,r11,r9
 18084ec:	62a0b03a 	or	r16,r12,r10
 18084f0:	99400117 	ldw	r5,4(r19)
 18084f4:	a8800117 	ldw	r2,4(r21)
 18084f8:	28806e26 	beq	r5,r2,18086b4 <_fpadd_parts+0x2ac>
 18084fc:	28006626 	beq	r5,zero,1808698 <_fpadd_parts+0x290>
 1808500:	7c45c83a 	sub	r2,r15,r17
 1808504:	7889803a 	cmpltu	r4,r15,r2
 1808508:	8487c83a 	sub	r3,r16,r18
 180850c:	1909c83a 	sub	r4,r3,r4
 1808510:	100d883a 	mov	r6,r2
 1808514:	200f883a 	mov	r7,r4
 1808518:	38007716 	blt	r7,zero,18086f8 <_fpadd_parts+0x2f0>
 180851c:	a5c00215 	stw	r23,8(r20)
 1808520:	a1c00415 	stw	r7,16(r20)
 1808524:	a0000115 	stw	zero,4(r20)
 1808528:	a1800315 	stw	r6,12(r20)
 180852c:	a2000317 	ldw	r8,12(r20)
 1808530:	a2400417 	ldw	r9,16(r20)
 1808534:	00bfffc4 	movi	r2,-1
 1808538:	408b883a 	add	r5,r8,r2
 180853c:	2a09803a 	cmpltu	r4,r5,r8
 1808540:	488d883a 	add	r6,r9,r2
 1808544:	01c40034 	movhi	r7,4096
 1808548:	39ffffc4 	addi	r7,r7,-1
 180854c:	218d883a 	add	r6,r4,r6
 1808550:	39801736 	bltu	r7,r6,18085b0 <_fpadd_parts+0x1a8>
 1808554:	31c06526 	beq	r6,r7,18086ec <_fpadd_parts+0x2e4>
 1808558:	a3000217 	ldw	r12,8(r20)
 180855c:	4209883a 	add	r4,r8,r8
 1808560:	00bfffc4 	movi	r2,-1
 1808564:	220f803a 	cmpltu	r7,r4,r8
 1808568:	4a4b883a 	add	r5,r9,r9
 180856c:	394f883a 	add	r7,r7,r5
 1808570:	2095883a 	add	r10,r4,r2
 1808574:	3897883a 	add	r11,r7,r2
 1808578:	510d803a 	cmpltu	r6,r10,r4
 180857c:	6099883a 	add	r12,r12,r2
 1808580:	32d7883a 	add	r11,r6,r11
 1808584:	00840034 	movhi	r2,4096
 1808588:	10bfffc4 	addi	r2,r2,-1
 180858c:	2011883a 	mov	r8,r4
 1808590:	3813883a 	mov	r9,r7
 1808594:	a1000315 	stw	r4,12(r20)
 1808598:	a1c00415 	stw	r7,16(r20)
 180859c:	a3000215 	stw	r12,8(r20)
 18085a0:	12c00336 	bltu	r2,r11,18085b0 <_fpadd_parts+0x1a8>
 18085a4:	58bfed1e 	bne	r11,r2,180855c <_fpadd_parts+0x154>
 18085a8:	00bfff84 	movi	r2,-2
 18085ac:	12bfeb2e 	bgeu	r2,r10,180855c <_fpadd_parts+0x154>
 18085b0:	a2800417 	ldw	r10,16(r20)
 18085b4:	008000c4 	movi	r2,3
 18085b8:	00c80034 	movhi	r3,8192
 18085bc:	18ffffc4 	addi	r3,r3,-1
 18085c0:	a2400317 	ldw	r9,12(r20)
 18085c4:	a0800015 	stw	r2,0(r20)
 18085c8:	1a802336 	bltu	r3,r10,1808658 <_fpadd_parts+0x250>
 18085cc:	a027883a 	mov	r19,r20
 18085d0:	9805883a 	mov	r2,r19
 18085d4:	ddc00717 	ldw	r23,28(sp)
 18085d8:	dd800617 	ldw	r22,24(sp)
 18085dc:	dd400517 	ldw	r21,20(sp)
 18085e0:	dd000417 	ldw	r20,16(sp)
 18085e4:	dcc00317 	ldw	r19,12(sp)
 18085e8:	dc800217 	ldw	r18,8(sp)
 18085ec:	dc400117 	ldw	r17,4(sp)
 18085f0:	dc000017 	ldw	r16,0(sp)
 18085f4:	dec00804 	addi	sp,sp,32
 18085f8:	f800283a 	ret
 18085fc:	20fff41e 	bne	r4,r3,18085d0 <_fpadd_parts+0x1c8>
 1808600:	31000015 	stw	r4,0(r6)
 1808604:	98800117 	ldw	r2,4(r19)
 1808608:	30800115 	stw	r2,4(r6)
 180860c:	98c00217 	ldw	r3,8(r19)
 1808610:	30c00215 	stw	r3,8(r6)
 1808614:	98800317 	ldw	r2,12(r19)
 1808618:	30800315 	stw	r2,12(r6)
 180861c:	98c00417 	ldw	r3,16(r19)
 1808620:	30c00415 	stw	r3,16(r6)
 1808624:	98800117 	ldw	r2,4(r19)
 1808628:	28c00117 	ldw	r3,4(r5)
 180862c:	3027883a 	mov	r19,r6
 1808630:	10c4703a 	and	r2,r2,r3
 1808634:	30800115 	stw	r2,4(r6)
 1808638:	003fe506 	br	18085d0 <_fpadd_parts+0x1c8>
 180863c:	1dc02616 	blt	r3,r23,18086d8 <_fpadd_parts+0x2d0>
 1808640:	0023883a 	mov	r17,zero
 1808644:	182f883a 	mov	r23,r3
 1808648:	0025883a 	mov	r18,zero
 180864c:	003fa806 	br	18084f0 <_fpadd_parts+0xe8>
 1808650:	a827883a 	mov	r19,r21
 1808654:	003fde06 	br	18085d0 <_fpadd_parts+0x1c8>
 1808658:	01800044 	movi	r6,1
 180865c:	500497fa 	slli	r2,r10,31
 1808660:	4808d07a 	srli	r4,r9,1
 1808664:	518ad83a 	srl	r5,r10,r6
 1808668:	a2000217 	ldw	r8,8(r20)
 180866c:	1108b03a 	or	r4,r2,r4
 1808670:	0007883a 	mov	r3,zero
 1808674:	4984703a 	and	r2,r9,r6
 1808678:	208cb03a 	or	r6,r4,r2
 180867c:	28ceb03a 	or	r7,r5,r3
 1808680:	42000044 	addi	r8,r8,1
 1808684:	a027883a 	mov	r19,r20
 1808688:	a1c00415 	stw	r7,16(r20)
 180868c:	a2000215 	stw	r8,8(r20)
 1808690:	a1800315 	stw	r6,12(r20)
 1808694:	003fce06 	br	18085d0 <_fpadd_parts+0x1c8>
 1808698:	8bc5c83a 	sub	r2,r17,r15
 180869c:	8889803a 	cmpltu	r4,r17,r2
 18086a0:	9407c83a 	sub	r3,r18,r16
 18086a4:	1909c83a 	sub	r4,r3,r4
 18086a8:	100d883a 	mov	r6,r2
 18086ac:	200f883a 	mov	r7,r4
 18086b0:	003f9906 	br	1808518 <_fpadd_parts+0x110>
 18086b4:	7c45883a 	add	r2,r15,r17
 18086b8:	13c9803a 	cmpltu	r4,r2,r15
 18086bc:	8487883a 	add	r3,r16,r18
 18086c0:	20c9883a 	add	r4,r4,r3
 18086c4:	a1400115 	stw	r5,4(r20)
 18086c8:	a5c00215 	stw	r23,8(r20)
 18086cc:	a0800315 	stw	r2,12(r20)
 18086d0:	a1000415 	stw	r4,16(r20)
 18086d4:	003fb606 	br	18085b0 <_fpadd_parts+0x1a8>
 18086d8:	001f883a 	mov	r15,zero
 18086dc:	0021883a 	mov	r16,zero
 18086e0:	003f8306 	br	18084f0 <_fpadd_parts+0xe8>
 18086e4:	018dc83a 	sub	r6,zero,r6
 18086e8:	003f6706 	br	1808488 <_fpadd_parts+0x80>
 18086ec:	00bfff84 	movi	r2,-2
 18086f0:	117faf36 	bltu	r2,r5,18085b0 <_fpadd_parts+0x1a8>
 18086f4:	003f9806 	br	1808558 <_fpadd_parts+0x150>
 18086f8:	0005883a 	mov	r2,zero
 18086fc:	1189c83a 	sub	r4,r2,r6
 1808700:	1105803a 	cmpltu	r2,r2,r4
 1808704:	01cbc83a 	sub	r5,zero,r7
 1808708:	2885c83a 	sub	r2,r5,r2
 180870c:	01800044 	movi	r6,1
 1808710:	a1800115 	stw	r6,4(r20)
 1808714:	a5c00215 	stw	r23,8(r20)
 1808718:	a1000315 	stw	r4,12(r20)
 180871c:	a0800415 	stw	r2,16(r20)
 1808720:	003f8206 	br	180852c <_fpadd_parts+0x124>
 1808724:	203f7226 	beq	r4,zero,18084f0 <_fpadd_parts+0xe8>
 1808728:	35bff804 	addi	r22,r6,-32
 180872c:	b9af883a 	add	r23,r23,r6
 1808730:	b0003116 	blt	r22,zero,18087f8 <_fpadd_parts+0x3f0>
 1808734:	959ad83a 	srl	r13,r18,r22
 1808738:	001d883a 	mov	r14,zero
 180873c:	000f883a 	mov	r7,zero
 1808740:	01000044 	movi	r4,1
 1808744:	0011883a 	mov	r8,zero
 1808748:	b0002516 	blt	r22,zero,18087e0 <_fpadd_parts+0x3d8>
 180874c:	2594983a 	sll	r10,r4,r22
 1808750:	0013883a 	mov	r9,zero
 1808754:	00bfffc4 	movi	r2,-1
 1808758:	4889883a 	add	r4,r9,r2
 180875c:	508b883a 	add	r5,r10,r2
 1808760:	224d803a 	cmpltu	r6,r4,r9
 1808764:	314b883a 	add	r5,r6,r5
 1808768:	8904703a 	and	r2,r17,r4
 180876c:	9146703a 	and	r3,r18,r5
 1808770:	10c4b03a 	or	r2,r2,r3
 1808774:	10000226 	beq	r2,zero,1808780 <_fpadd_parts+0x378>
 1808778:	01c00044 	movi	r7,1
 180877c:	0011883a 	mov	r8,zero
 1808780:	69e2b03a 	or	r17,r13,r7
 1808784:	7224b03a 	or	r18,r14,r8
 1808788:	003f5906 	br	18084f0 <_fpadd_parts+0xe8>
 180878c:	8407883a 	add	r3,r16,r16
 1808790:	008007c4 	movi	r2,31
 1808794:	1185c83a 	sub	r2,r2,r6
 1808798:	1886983a 	sll	r3,r3,r2
 180879c:	7996d83a 	srl	r11,r15,r6
 18087a0:	8198d83a 	srl	r12,r16,r6
 18087a4:	1ad6b03a 	or	r11,r3,r11
 18087a8:	003f3e06 	br	18084a4 <_fpadd_parts+0x9c>
 18087ac:	2006d07a 	srli	r3,r4,1
 18087b0:	008007c4 	movi	r2,31
 18087b4:	1185c83a 	sub	r2,r2,r6
 18087b8:	1890d83a 	srl	r8,r3,r2
 18087bc:	218e983a 	sll	r7,r4,r6
 18087c0:	003f3e06 	br	18084bc <_fpadd_parts+0xb4>
 18087c4:	113f821e 	bne	r2,r4,18085d0 <_fpadd_parts+0x1c8>
 18087c8:	28c00117 	ldw	r3,4(r5)
 18087cc:	98800117 	ldw	r2,4(r19)
 18087d0:	10ff7f26 	beq	r2,r3,18085d0 <_fpadd_parts+0x1c8>
 18087d4:	04c06074 	movhi	r19,385
 18087d8:	9cc29904 	addi	r19,r19,2660
 18087dc:	003f7c06 	br	18085d0 <_fpadd_parts+0x1c8>
 18087e0:	2006d07a 	srli	r3,r4,1
 18087e4:	008007c4 	movi	r2,31
 18087e8:	1185c83a 	sub	r2,r2,r6
 18087ec:	1894d83a 	srl	r10,r3,r2
 18087f0:	2192983a 	sll	r9,r4,r6
 18087f4:	003fd706 	br	1808754 <_fpadd_parts+0x34c>
 18087f8:	9487883a 	add	r3,r18,r18
 18087fc:	008007c4 	movi	r2,31
 1808800:	1185c83a 	sub	r2,r2,r6
 1808804:	1886983a 	sll	r3,r3,r2
 1808808:	899ad83a 	srl	r13,r17,r6
 180880c:	919cd83a 	srl	r14,r18,r6
 1808810:	1b5ab03a 	or	r13,r3,r13
 1808814:	003fc906 	br	180873c <_fpadd_parts+0x334>

01808818 <__subdf3>:
 1808818:	deffea04 	addi	sp,sp,-88
 180881c:	dcc01415 	stw	r19,80(sp)
 1808820:	dcc00404 	addi	r19,sp,16
 1808824:	2011883a 	mov	r8,r4
 1808828:	2813883a 	mov	r9,r5
 180882c:	dc401315 	stw	r17,76(sp)
 1808830:	d809883a 	mov	r4,sp
 1808834:	980b883a 	mov	r5,r19
 1808838:	dc400904 	addi	r17,sp,36
 180883c:	dfc01515 	stw	ra,84(sp)
 1808840:	da400115 	stw	r9,4(sp)
 1808844:	d9c00315 	stw	r7,12(sp)
 1808848:	da000015 	stw	r8,0(sp)
 180884c:	d9800215 	stw	r6,8(sp)
 1808850:	1809aac0 	call	1809aac <__unpack_d>
 1808854:	d9000204 	addi	r4,sp,8
 1808858:	880b883a 	mov	r5,r17
 180885c:	1809aac0 	call	1809aac <__unpack_d>
 1808860:	d8800a17 	ldw	r2,40(sp)
 1808864:	880b883a 	mov	r5,r17
 1808868:	9809883a 	mov	r4,r19
 180886c:	d9800e04 	addi	r6,sp,56
 1808870:	1080005c 	xori	r2,r2,1
 1808874:	d8800a15 	stw	r2,40(sp)
 1808878:	18084080 	call	1808408 <_fpadd_parts>
 180887c:	1009883a 	mov	r4,r2
 1808880:	18097980 	call	1809798 <__pack_d>
 1808884:	dfc01517 	ldw	ra,84(sp)
 1808888:	dcc01417 	ldw	r19,80(sp)
 180888c:	dc401317 	ldw	r17,76(sp)
 1808890:	dec01604 	addi	sp,sp,88
 1808894:	f800283a 	ret

01808898 <__adddf3>:
 1808898:	deffea04 	addi	sp,sp,-88
 180889c:	dcc01415 	stw	r19,80(sp)
 18088a0:	dcc00404 	addi	r19,sp,16
 18088a4:	2011883a 	mov	r8,r4
 18088a8:	2813883a 	mov	r9,r5
 18088ac:	dc401315 	stw	r17,76(sp)
 18088b0:	d809883a 	mov	r4,sp
 18088b4:	980b883a 	mov	r5,r19
 18088b8:	dc400904 	addi	r17,sp,36
 18088bc:	dfc01515 	stw	ra,84(sp)
 18088c0:	da400115 	stw	r9,4(sp)
 18088c4:	d9c00315 	stw	r7,12(sp)
 18088c8:	da000015 	stw	r8,0(sp)
 18088cc:	d9800215 	stw	r6,8(sp)
 18088d0:	1809aac0 	call	1809aac <__unpack_d>
 18088d4:	d9000204 	addi	r4,sp,8
 18088d8:	880b883a 	mov	r5,r17
 18088dc:	1809aac0 	call	1809aac <__unpack_d>
 18088e0:	d9800e04 	addi	r6,sp,56
 18088e4:	9809883a 	mov	r4,r19
 18088e8:	880b883a 	mov	r5,r17
 18088ec:	18084080 	call	1808408 <_fpadd_parts>
 18088f0:	1009883a 	mov	r4,r2
 18088f4:	18097980 	call	1809798 <__pack_d>
 18088f8:	dfc01517 	ldw	ra,84(sp)
 18088fc:	dcc01417 	ldw	r19,80(sp)
 1808900:	dc401317 	ldw	r17,76(sp)
 1808904:	dec01604 	addi	sp,sp,88
 1808908:	f800283a 	ret

0180890c <__muldf3>:
 180890c:	deffe004 	addi	sp,sp,-128
 1808910:	dc401815 	stw	r17,96(sp)
 1808914:	dc400404 	addi	r17,sp,16
 1808918:	2011883a 	mov	r8,r4
 180891c:	2813883a 	mov	r9,r5
 1808920:	dc001715 	stw	r16,92(sp)
 1808924:	d809883a 	mov	r4,sp
 1808928:	880b883a 	mov	r5,r17
 180892c:	dc000904 	addi	r16,sp,36
 1808930:	dfc01f15 	stw	ra,124(sp)
 1808934:	da400115 	stw	r9,4(sp)
 1808938:	d9c00315 	stw	r7,12(sp)
 180893c:	da000015 	stw	r8,0(sp)
 1808940:	d9800215 	stw	r6,8(sp)
 1808944:	ddc01e15 	stw	r23,120(sp)
 1808948:	dd801d15 	stw	r22,116(sp)
 180894c:	dd401c15 	stw	r21,112(sp)
 1808950:	dd001b15 	stw	r20,108(sp)
 1808954:	dcc01a15 	stw	r19,104(sp)
 1808958:	dc801915 	stw	r18,100(sp)
 180895c:	1809aac0 	call	1809aac <__unpack_d>
 1808960:	d9000204 	addi	r4,sp,8
 1808964:	800b883a 	mov	r5,r16
 1808968:	1809aac0 	call	1809aac <__unpack_d>
 180896c:	d9000417 	ldw	r4,16(sp)
 1808970:	00800044 	movi	r2,1
 1808974:	1100102e 	bgeu	r2,r4,18089b8 <__muldf3+0xac>
 1808978:	d8c00917 	ldw	r3,36(sp)
 180897c:	10c0062e 	bgeu	r2,r3,1808998 <__muldf3+0x8c>
 1808980:	00800104 	movi	r2,4
 1808984:	20800a26 	beq	r4,r2,18089b0 <__muldf3+0xa4>
 1808988:	1880cc26 	beq	r3,r2,1808cbc <__muldf3+0x3b0>
 180898c:	00800084 	movi	r2,2
 1808990:	20800926 	beq	r4,r2,18089b8 <__muldf3+0xac>
 1808994:	1880191e 	bne	r3,r2,18089fc <__muldf3+0xf0>
 1808998:	d8c00a17 	ldw	r3,40(sp)
 180899c:	d8800517 	ldw	r2,20(sp)
 18089a0:	8009883a 	mov	r4,r16
 18089a4:	10c4c03a 	cmpne	r2,r2,r3
 18089a8:	d8800a15 	stw	r2,40(sp)
 18089ac:	00000706 	br	18089cc <__muldf3+0xc0>
 18089b0:	00800084 	movi	r2,2
 18089b4:	1880c326 	beq	r3,r2,1808cc4 <__muldf3+0x3b8>
 18089b8:	d8800517 	ldw	r2,20(sp)
 18089bc:	d8c00a17 	ldw	r3,40(sp)
 18089c0:	8809883a 	mov	r4,r17
 18089c4:	10c4c03a 	cmpne	r2,r2,r3
 18089c8:	d8800515 	stw	r2,20(sp)
 18089cc:	18097980 	call	1809798 <__pack_d>
 18089d0:	dfc01f17 	ldw	ra,124(sp)
 18089d4:	ddc01e17 	ldw	r23,120(sp)
 18089d8:	dd801d17 	ldw	r22,116(sp)
 18089dc:	dd401c17 	ldw	r21,112(sp)
 18089e0:	dd001b17 	ldw	r20,108(sp)
 18089e4:	dcc01a17 	ldw	r19,104(sp)
 18089e8:	dc801917 	ldw	r18,100(sp)
 18089ec:	dc401817 	ldw	r17,96(sp)
 18089f0:	dc001717 	ldw	r16,92(sp)
 18089f4:	dec02004 	addi	sp,sp,128
 18089f8:	f800283a 	ret
 18089fc:	dd800717 	ldw	r22,28(sp)
 1808a00:	dc800c17 	ldw	r18,48(sp)
 1808a04:	002b883a 	mov	r21,zero
 1808a08:	0023883a 	mov	r17,zero
 1808a0c:	a80b883a 	mov	r5,r21
 1808a10:	b00d883a 	mov	r6,r22
 1808a14:	880f883a 	mov	r7,r17
 1808a18:	ddc00817 	ldw	r23,32(sp)
 1808a1c:	dcc00d17 	ldw	r19,52(sp)
 1808a20:	9009883a 	mov	r4,r18
 1808a24:	18096800 	call	1809680 <__muldi3>
 1808a28:	001b883a 	mov	r13,zero
 1808a2c:	680f883a 	mov	r7,r13
 1808a30:	b009883a 	mov	r4,r22
 1808a34:	000b883a 	mov	r5,zero
 1808a38:	980d883a 	mov	r6,r19
 1808a3c:	b82d883a 	mov	r22,r23
 1808a40:	002f883a 	mov	r23,zero
 1808a44:	db401615 	stw	r13,88(sp)
 1808a48:	d8801315 	stw	r2,76(sp)
 1808a4c:	d8c01415 	stw	r3,80(sp)
 1808a50:	dcc01515 	stw	r19,84(sp)
 1808a54:	18096800 	call	1809680 <__muldi3>
 1808a58:	b00d883a 	mov	r6,r22
 1808a5c:	000b883a 	mov	r5,zero
 1808a60:	9009883a 	mov	r4,r18
 1808a64:	b80f883a 	mov	r7,r23
 1808a68:	1021883a 	mov	r16,r2
 1808a6c:	1823883a 	mov	r17,r3
 1808a70:	18096800 	call	1809680 <__muldi3>
 1808a74:	8085883a 	add	r2,r16,r2
 1808a78:	140d803a 	cmpltu	r6,r2,r16
 1808a7c:	88c7883a 	add	r3,r17,r3
 1808a80:	30cd883a 	add	r6,r6,r3
 1808a84:	1029883a 	mov	r20,r2
 1808a88:	302b883a 	mov	r21,r6
 1808a8c:	da801317 	ldw	r10,76(sp)
 1808a90:	dac01417 	ldw	r11,80(sp)
 1808a94:	db001517 	ldw	r12,84(sp)
 1808a98:	db401617 	ldw	r13,88(sp)
 1808a9c:	3440612e 	bgeu	r6,r17,1808c24 <__muldf3+0x318>
 1808aa0:	0009883a 	mov	r4,zero
 1808aa4:	5105883a 	add	r2,r10,r4
 1808aa8:	128d803a 	cmpltu	r6,r2,r10
 1808aac:	5d07883a 	add	r3,r11,r20
 1808ab0:	30cd883a 	add	r6,r6,r3
 1808ab4:	0021883a 	mov	r16,zero
 1808ab8:	04400044 	movi	r17,1
 1808abc:	1025883a 	mov	r18,r2
 1808ac0:	3027883a 	mov	r19,r6
 1808ac4:	32c06236 	bltu	r6,r11,1808c50 <__muldf3+0x344>
 1808ac8:	59807a26 	beq	r11,r6,1808cb4 <__muldf3+0x3a8>
 1808acc:	680b883a 	mov	r5,r13
 1808ad0:	b80f883a 	mov	r7,r23
 1808ad4:	6009883a 	mov	r4,r12
 1808ad8:	b00d883a 	mov	r6,r22
 1808adc:	18096800 	call	1809680 <__muldi3>
 1808ae0:	1009883a 	mov	r4,r2
 1808ae4:	000f883a 	mov	r7,zero
 1808ae8:	1545883a 	add	r2,r2,r21
 1808aec:	1111803a 	cmpltu	r8,r2,r4
 1808af0:	19c7883a 	add	r3,r3,r7
 1808af4:	40c7883a 	add	r3,r8,r3
 1808af8:	88cb883a 	add	r5,r17,r3
 1808afc:	d8c00617 	ldw	r3,24(sp)
 1808b00:	8089883a 	add	r4,r16,r2
 1808b04:	d8800b17 	ldw	r2,44(sp)
 1808b08:	18c00104 	addi	r3,r3,4
 1808b0c:	240d803a 	cmpltu	r6,r4,r16
 1808b10:	10c7883a 	add	r3,r2,r3
 1808b14:	2013883a 	mov	r9,r4
 1808b18:	d8800a17 	ldw	r2,40(sp)
 1808b1c:	d9000517 	ldw	r4,20(sp)
 1808b20:	314d883a 	add	r6,r6,r5
 1808b24:	3015883a 	mov	r10,r6
 1808b28:	2088c03a 	cmpne	r4,r4,r2
 1808b2c:	00880034 	movhi	r2,8192
 1808b30:	10bfffc4 	addi	r2,r2,-1
 1808b34:	d9000f15 	stw	r4,60(sp)
 1808b38:	d8c01015 	stw	r3,64(sp)
 1808b3c:	1180162e 	bgeu	r2,r6,1808b98 <__muldf3+0x28c>
 1808b40:	1811883a 	mov	r8,r3
 1808b44:	101f883a 	mov	r15,r2
 1808b48:	980497fa 	slli	r2,r19,31
 1808b4c:	9016d07a 	srli	r11,r18,1
 1808b50:	500697fa 	slli	r3,r10,31
 1808b54:	480cd07a 	srli	r6,r9,1
 1808b58:	500ed07a 	srli	r7,r10,1
 1808b5c:	12d6b03a 	or	r11,r2,r11
 1808b60:	00800044 	movi	r2,1
 1808b64:	198cb03a 	or	r6,r3,r6
 1808b68:	4888703a 	and	r4,r9,r2
 1808b6c:	9818d07a 	srli	r12,r19,1
 1808b70:	001b883a 	mov	r13,zero
 1808b74:	03a00034 	movhi	r14,32768
 1808b78:	3013883a 	mov	r9,r6
 1808b7c:	3815883a 	mov	r10,r7
 1808b80:	4091883a 	add	r8,r8,r2
 1808b84:	20000226 	beq	r4,zero,1808b90 <__muldf3+0x284>
 1808b88:	5b64b03a 	or	r18,r11,r13
 1808b8c:	63a6b03a 	or	r19,r12,r14
 1808b90:	7abfed36 	bltu	r15,r10,1808b48 <__muldf3+0x23c>
 1808b94:	da001015 	stw	r8,64(sp)
 1808b98:	00840034 	movhi	r2,4096
 1808b9c:	10bfffc4 	addi	r2,r2,-1
 1808ba0:	12801436 	bltu	r2,r10,1808bf4 <__muldf3+0x2e8>
 1808ba4:	da001017 	ldw	r8,64(sp)
 1808ba8:	101f883a 	mov	r15,r2
 1808bac:	4a45883a 	add	r2,r9,r9
 1808bb0:	124d803a 	cmpltu	r6,r2,r9
 1808bb4:	5287883a 	add	r3,r10,r10
 1808bb8:	9497883a 	add	r11,r18,r18
 1808bbc:	5c8f803a 	cmpltu	r7,r11,r18
 1808bc0:	9cd9883a 	add	r12,r19,r19
 1808bc4:	01000044 	movi	r4,1
 1808bc8:	30cd883a 	add	r6,r6,r3
 1808bcc:	3b0f883a 	add	r7,r7,r12
 1808bd0:	423fffc4 	addi	r8,r8,-1
 1808bd4:	1013883a 	mov	r9,r2
 1808bd8:	3015883a 	mov	r10,r6
 1808bdc:	111ab03a 	or	r13,r2,r4
 1808be0:	98003016 	blt	r19,zero,1808ca4 <__muldf3+0x398>
 1808be4:	5825883a 	mov	r18,r11
 1808be8:	3827883a 	mov	r19,r7
 1808bec:	7abfef2e 	bgeu	r15,r10,1808bac <__muldf3+0x2a0>
 1808bf0:	da001015 	stw	r8,64(sp)
 1808bf4:	00803fc4 	movi	r2,255
 1808bf8:	488e703a 	and	r7,r9,r2
 1808bfc:	00802004 	movi	r2,128
 1808c00:	0007883a 	mov	r3,zero
 1808c04:	0011883a 	mov	r8,zero
 1808c08:	38801826 	beq	r7,r2,1808c6c <__muldf3+0x360>
 1808c0c:	008000c4 	movi	r2,3
 1808c10:	d9000e04 	addi	r4,sp,56
 1808c14:	da801215 	stw	r10,72(sp)
 1808c18:	d8800e15 	stw	r2,56(sp)
 1808c1c:	da401115 	stw	r9,68(sp)
 1808c20:	003f6a06 	br	18089cc <__muldf3+0xc0>
 1808c24:	89802126 	beq	r17,r6,1808cac <__muldf3+0x3a0>
 1808c28:	0009883a 	mov	r4,zero
 1808c2c:	5105883a 	add	r2,r10,r4
 1808c30:	128d803a 	cmpltu	r6,r2,r10
 1808c34:	5d07883a 	add	r3,r11,r20
 1808c38:	30cd883a 	add	r6,r6,r3
 1808c3c:	0021883a 	mov	r16,zero
 1808c40:	0023883a 	mov	r17,zero
 1808c44:	1025883a 	mov	r18,r2
 1808c48:	3027883a 	mov	r19,r6
 1808c4c:	32ff9e2e 	bgeu	r6,r11,1808ac8 <__muldf3+0x1bc>
 1808c50:	00800044 	movi	r2,1
 1808c54:	8089883a 	add	r4,r16,r2
 1808c58:	240d803a 	cmpltu	r6,r4,r16
 1808c5c:	344d883a 	add	r6,r6,r17
 1808c60:	2021883a 	mov	r16,r4
 1808c64:	3023883a 	mov	r17,r6
 1808c68:	003f9806 	br	1808acc <__muldf3+0x1c0>
 1808c6c:	403fe71e 	bne	r8,zero,1808c0c <__muldf3+0x300>
 1808c70:	01004004 	movi	r4,256
 1808c74:	4904703a 	and	r2,r9,r4
 1808c78:	10c4b03a 	or	r2,r2,r3
 1808c7c:	103fe31e 	bne	r2,zero,1808c0c <__muldf3+0x300>
 1808c80:	94c4b03a 	or	r2,r18,r19
 1808c84:	103fe126 	beq	r2,zero,1808c0c <__muldf3+0x300>
 1808c88:	49c5883a 	add	r2,r9,r7
 1808c8c:	1251803a 	cmpltu	r8,r2,r9
 1808c90:	4291883a 	add	r8,r8,r10
 1808c94:	013fc004 	movi	r4,-256
 1808c98:	1112703a 	and	r9,r2,r4
 1808c9c:	4015883a 	mov	r10,r8
 1808ca0:	003fda06 	br	1808c0c <__muldf3+0x300>
 1808ca4:	6813883a 	mov	r9,r13
 1808ca8:	003fce06 	br	1808be4 <__muldf3+0x2d8>
 1808cac:	143f7c36 	bltu	r2,r16,1808aa0 <__muldf3+0x194>
 1808cb0:	003fdd06 	br	1808c28 <__muldf3+0x31c>
 1808cb4:	12bf852e 	bgeu	r2,r10,1808acc <__muldf3+0x1c0>
 1808cb8:	003fe506 	br	1808c50 <__muldf3+0x344>
 1808cbc:	00800084 	movi	r2,2
 1808cc0:	20bf351e 	bne	r4,r2,1808998 <__muldf3+0x8c>
 1808cc4:	01006074 	movhi	r4,385
 1808cc8:	21029904 	addi	r4,r4,2660
 1808ccc:	003f3f06 	br	18089cc <__muldf3+0xc0>

01808cd0 <__divdf3>:
 1808cd0:	deffed04 	addi	sp,sp,-76
 1808cd4:	dcc01115 	stw	r19,68(sp)
 1808cd8:	dcc00404 	addi	r19,sp,16
 1808cdc:	2011883a 	mov	r8,r4
 1808ce0:	2813883a 	mov	r9,r5
 1808ce4:	dc000e15 	stw	r16,56(sp)
 1808ce8:	d809883a 	mov	r4,sp
 1808cec:	980b883a 	mov	r5,r19
 1808cf0:	dc000904 	addi	r16,sp,36
 1808cf4:	dfc01215 	stw	ra,72(sp)
 1808cf8:	da400115 	stw	r9,4(sp)
 1808cfc:	d9c00315 	stw	r7,12(sp)
 1808d00:	da000015 	stw	r8,0(sp)
 1808d04:	d9800215 	stw	r6,8(sp)
 1808d08:	dc801015 	stw	r18,64(sp)
 1808d0c:	dc400f15 	stw	r17,60(sp)
 1808d10:	1809aac0 	call	1809aac <__unpack_d>
 1808d14:	d9000204 	addi	r4,sp,8
 1808d18:	800b883a 	mov	r5,r16
 1808d1c:	1809aac0 	call	1809aac <__unpack_d>
 1808d20:	d9000417 	ldw	r4,16(sp)
 1808d24:	00800044 	movi	r2,1
 1808d28:	11000b2e 	bgeu	r2,r4,1808d58 <__divdf3+0x88>
 1808d2c:	d9400917 	ldw	r5,36(sp)
 1808d30:	1140762e 	bgeu	r2,r5,1808f0c <__divdf3+0x23c>
 1808d34:	d8800517 	ldw	r2,20(sp)
 1808d38:	d8c00a17 	ldw	r3,40(sp)
 1808d3c:	01800104 	movi	r6,4
 1808d40:	10c4f03a 	xor	r2,r2,r3
 1808d44:	d8800515 	stw	r2,20(sp)
 1808d48:	21800226 	beq	r4,r6,1808d54 <__divdf3+0x84>
 1808d4c:	00800084 	movi	r2,2
 1808d50:	2080141e 	bne	r4,r2,1808da4 <__divdf3+0xd4>
 1808d54:	29000926 	beq	r5,r4,1808d7c <__divdf3+0xac>
 1808d58:	9809883a 	mov	r4,r19
 1808d5c:	18097980 	call	1809798 <__pack_d>
 1808d60:	dfc01217 	ldw	ra,72(sp)
 1808d64:	dcc01117 	ldw	r19,68(sp)
 1808d68:	dc801017 	ldw	r18,64(sp)
 1808d6c:	dc400f17 	ldw	r17,60(sp)
 1808d70:	dc000e17 	ldw	r16,56(sp)
 1808d74:	dec01304 	addi	sp,sp,76
 1808d78:	f800283a 	ret
 1808d7c:	01006074 	movhi	r4,385
 1808d80:	21029904 	addi	r4,r4,2660
 1808d84:	18097980 	call	1809798 <__pack_d>
 1808d88:	dfc01217 	ldw	ra,72(sp)
 1808d8c:	dcc01117 	ldw	r19,68(sp)
 1808d90:	dc801017 	ldw	r18,64(sp)
 1808d94:	dc400f17 	ldw	r17,60(sp)
 1808d98:	dc000e17 	ldw	r16,56(sp)
 1808d9c:	dec01304 	addi	sp,sp,76
 1808da0:	f800283a 	ret
 1808da4:	29805b26 	beq	r5,r6,1808f14 <__divdf3+0x244>
 1808da8:	28802d26 	beq	r5,r2,1808e60 <__divdf3+0x190>
 1808dac:	d8c00617 	ldw	r3,24(sp)
 1808db0:	d8800b17 	ldw	r2,44(sp)
 1808db4:	d9c00817 	ldw	r7,32(sp)
 1808db8:	dc400d17 	ldw	r17,52(sp)
 1808dbc:	188bc83a 	sub	r5,r3,r2
 1808dc0:	d9800717 	ldw	r6,28(sp)
 1808dc4:	dc000c17 	ldw	r16,48(sp)
 1808dc8:	d9400615 	stw	r5,24(sp)
 1808dcc:	3c403836 	bltu	r7,r17,1808eb0 <__divdf3+0x1e0>
 1808dd0:	89c03626 	beq	r17,r7,1808eac <__divdf3+0x1dc>
 1808dd4:	0015883a 	mov	r10,zero
 1808dd8:	001d883a 	mov	r14,zero
 1808ddc:	02c40034 	movhi	r11,4096
 1808de0:	001f883a 	mov	r15,zero
 1808de4:	003f883a 	mov	ra,zero
 1808de8:	04800f44 	movi	r18,61
 1808dec:	00000f06 	br	1808e2c <__divdf3+0x15c>
 1808df0:	601d883a 	mov	r14,r12
 1808df4:	681f883a 	mov	r15,r13
 1808df8:	400d883a 	mov	r6,r8
 1808dfc:	100f883a 	mov	r7,r2
 1808e00:	3191883a 	add	r8,r6,r6
 1808e04:	5808d07a 	srli	r4,r11,1
 1808e08:	4185803a 	cmpltu	r2,r8,r6
 1808e0c:	39d3883a 	add	r9,r7,r7
 1808e10:	28c6b03a 	or	r3,r5,r3
 1808e14:	1245883a 	add	r2,r2,r9
 1808e18:	1815883a 	mov	r10,r3
 1808e1c:	2017883a 	mov	r11,r4
 1808e20:	400d883a 	mov	r6,r8
 1808e24:	100f883a 	mov	r7,r2
 1808e28:	fc801726 	beq	ra,r18,1808e88 <__divdf3+0x1b8>
 1808e2c:	580a97fa 	slli	r5,r11,31
 1808e30:	5006d07a 	srli	r3,r10,1
 1808e34:	ffc00044 	addi	ra,ra,1
 1808e38:	3c7ff136 	bltu	r7,r17,1808e00 <__divdf3+0x130>
 1808e3c:	3411c83a 	sub	r8,r6,r16
 1808e40:	3205803a 	cmpltu	r2,r6,r8
 1808e44:	3c53c83a 	sub	r9,r7,r17
 1808e48:	7298b03a 	or	r12,r14,r10
 1808e4c:	7adab03a 	or	r13,r15,r11
 1808e50:	4885c83a 	sub	r2,r9,r2
 1808e54:	89ffe61e 	bne	r17,r7,1808df0 <__divdf3+0x120>
 1808e58:	343fe936 	bltu	r6,r16,1808e00 <__divdf3+0x130>
 1808e5c:	003fe406 	br	1808df0 <__divdf3+0x120>
 1808e60:	9809883a 	mov	r4,r19
 1808e64:	d9800415 	stw	r6,16(sp)
 1808e68:	18097980 	call	1809798 <__pack_d>
 1808e6c:	dfc01217 	ldw	ra,72(sp)
 1808e70:	dcc01117 	ldw	r19,68(sp)
 1808e74:	dc801017 	ldw	r18,64(sp)
 1808e78:	dc400f17 	ldw	r17,60(sp)
 1808e7c:	dc000e17 	ldw	r16,56(sp)
 1808e80:	dec01304 	addi	sp,sp,76
 1808e84:	f800283a 	ret
 1808e88:	00803fc4 	movi	r2,255
 1808e8c:	7090703a 	and	r8,r14,r2
 1808e90:	00802004 	movi	r2,128
 1808e94:	0007883a 	mov	r3,zero
 1808e98:	0013883a 	mov	r9,zero
 1808e9c:	40800d26 	beq	r8,r2,1808ed4 <__divdf3+0x204>
 1808ea0:	dbc00815 	stw	r15,32(sp)
 1808ea4:	db800715 	stw	r14,28(sp)
 1808ea8:	003fab06 	br	1808d58 <__divdf3+0x88>
 1808eac:	343fc92e 	bgeu	r6,r16,1808dd4 <__divdf3+0x104>
 1808eb0:	3185883a 	add	r2,r6,r6
 1808eb4:	1189803a 	cmpltu	r4,r2,r6
 1808eb8:	39c7883a 	add	r3,r7,r7
 1808ebc:	20c9883a 	add	r4,r4,r3
 1808ec0:	297fffc4 	addi	r5,r5,-1
 1808ec4:	100d883a 	mov	r6,r2
 1808ec8:	200f883a 	mov	r7,r4
 1808ecc:	d9400615 	stw	r5,24(sp)
 1808ed0:	003fc006 	br	1808dd4 <__divdf3+0x104>
 1808ed4:	483ff21e 	bne	r9,zero,1808ea0 <__divdf3+0x1d0>
 1808ed8:	01004004 	movi	r4,256
 1808edc:	7104703a 	and	r2,r14,r4
 1808ee0:	10c4b03a 	or	r2,r2,r3
 1808ee4:	103fee1e 	bne	r2,zero,1808ea0 <__divdf3+0x1d0>
 1808ee8:	31c4b03a 	or	r2,r6,r7
 1808eec:	103fec26 	beq	r2,zero,1808ea0 <__divdf3+0x1d0>
 1808ef0:	7205883a 	add	r2,r14,r8
 1808ef4:	1391803a 	cmpltu	r8,r2,r14
 1808ef8:	43d1883a 	add	r8,r8,r15
 1808efc:	013fc004 	movi	r4,-256
 1808f00:	111c703a 	and	r14,r2,r4
 1808f04:	401f883a 	mov	r15,r8
 1808f08:	003fe506 	br	1808ea0 <__divdf3+0x1d0>
 1808f0c:	8009883a 	mov	r4,r16
 1808f10:	003f9206 	br	1808d5c <__divdf3+0x8c>
 1808f14:	9809883a 	mov	r4,r19
 1808f18:	d8000715 	stw	zero,28(sp)
 1808f1c:	d8000815 	stw	zero,32(sp)
 1808f20:	d8000615 	stw	zero,24(sp)
 1808f24:	003f8d06 	br	1808d5c <__divdf3+0x8c>

01808f28 <__eqdf2>:
 1808f28:	deffef04 	addi	sp,sp,-68
 1808f2c:	dc400f15 	stw	r17,60(sp)
 1808f30:	dc400404 	addi	r17,sp,16
 1808f34:	2005883a 	mov	r2,r4
 1808f38:	2807883a 	mov	r3,r5
 1808f3c:	dc000e15 	stw	r16,56(sp)
 1808f40:	d809883a 	mov	r4,sp
 1808f44:	880b883a 	mov	r5,r17
 1808f48:	dc000904 	addi	r16,sp,36
 1808f4c:	d8c00115 	stw	r3,4(sp)
 1808f50:	d8800015 	stw	r2,0(sp)
 1808f54:	d9800215 	stw	r6,8(sp)
 1808f58:	dfc01015 	stw	ra,64(sp)
 1808f5c:	d9c00315 	stw	r7,12(sp)
 1808f60:	1809aac0 	call	1809aac <__unpack_d>
 1808f64:	d9000204 	addi	r4,sp,8
 1808f68:	800b883a 	mov	r5,r16
 1808f6c:	1809aac0 	call	1809aac <__unpack_d>
 1808f70:	d8800417 	ldw	r2,16(sp)
 1808f74:	00c00044 	movi	r3,1
 1808f78:	180d883a 	mov	r6,r3
 1808f7c:	1880062e 	bgeu	r3,r2,1808f98 <__eqdf2+0x70>
 1808f80:	d8800917 	ldw	r2,36(sp)
 1808f84:	8809883a 	mov	r4,r17
 1808f88:	800b883a 	mov	r5,r16
 1808f8c:	1880022e 	bgeu	r3,r2,1808f98 <__eqdf2+0x70>
 1808f90:	1809be40 	call	1809be4 <__fpcmp_parts_d>
 1808f94:	100d883a 	mov	r6,r2
 1808f98:	3005883a 	mov	r2,r6
 1808f9c:	dfc01017 	ldw	ra,64(sp)
 1808fa0:	dc400f17 	ldw	r17,60(sp)
 1808fa4:	dc000e17 	ldw	r16,56(sp)
 1808fa8:	dec01104 	addi	sp,sp,68
 1808fac:	f800283a 	ret

01808fb0 <__nedf2>:
 1808fb0:	deffef04 	addi	sp,sp,-68
 1808fb4:	dc400f15 	stw	r17,60(sp)
 1808fb8:	dc400404 	addi	r17,sp,16
 1808fbc:	2005883a 	mov	r2,r4
 1808fc0:	2807883a 	mov	r3,r5
 1808fc4:	dc000e15 	stw	r16,56(sp)
 1808fc8:	d809883a 	mov	r4,sp
 1808fcc:	880b883a 	mov	r5,r17
 1808fd0:	dc000904 	addi	r16,sp,36
 1808fd4:	d8c00115 	stw	r3,4(sp)
 1808fd8:	d8800015 	stw	r2,0(sp)
 1808fdc:	d9800215 	stw	r6,8(sp)
 1808fe0:	dfc01015 	stw	ra,64(sp)
 1808fe4:	d9c00315 	stw	r7,12(sp)
 1808fe8:	1809aac0 	call	1809aac <__unpack_d>
 1808fec:	d9000204 	addi	r4,sp,8
 1808ff0:	800b883a 	mov	r5,r16
 1808ff4:	1809aac0 	call	1809aac <__unpack_d>
 1808ff8:	d8800417 	ldw	r2,16(sp)
 1808ffc:	00c00044 	movi	r3,1
 1809000:	180d883a 	mov	r6,r3
 1809004:	1880062e 	bgeu	r3,r2,1809020 <__nedf2+0x70>
 1809008:	d8800917 	ldw	r2,36(sp)
 180900c:	8809883a 	mov	r4,r17
 1809010:	800b883a 	mov	r5,r16
 1809014:	1880022e 	bgeu	r3,r2,1809020 <__nedf2+0x70>
 1809018:	1809be40 	call	1809be4 <__fpcmp_parts_d>
 180901c:	100d883a 	mov	r6,r2
 1809020:	3005883a 	mov	r2,r6
 1809024:	dfc01017 	ldw	ra,64(sp)
 1809028:	dc400f17 	ldw	r17,60(sp)
 180902c:	dc000e17 	ldw	r16,56(sp)
 1809030:	dec01104 	addi	sp,sp,68
 1809034:	f800283a 	ret

01809038 <__gtdf2>:
 1809038:	deffef04 	addi	sp,sp,-68
 180903c:	dc400f15 	stw	r17,60(sp)
 1809040:	dc400404 	addi	r17,sp,16
 1809044:	2005883a 	mov	r2,r4
 1809048:	2807883a 	mov	r3,r5
 180904c:	dc000e15 	stw	r16,56(sp)
 1809050:	d809883a 	mov	r4,sp
 1809054:	880b883a 	mov	r5,r17
 1809058:	dc000904 	addi	r16,sp,36
 180905c:	d8c00115 	stw	r3,4(sp)
 1809060:	d8800015 	stw	r2,0(sp)
 1809064:	d9800215 	stw	r6,8(sp)
 1809068:	dfc01015 	stw	ra,64(sp)
 180906c:	d9c00315 	stw	r7,12(sp)
 1809070:	1809aac0 	call	1809aac <__unpack_d>
 1809074:	d9000204 	addi	r4,sp,8
 1809078:	800b883a 	mov	r5,r16
 180907c:	1809aac0 	call	1809aac <__unpack_d>
 1809080:	d8800417 	ldw	r2,16(sp)
 1809084:	00c00044 	movi	r3,1
 1809088:	01bfffc4 	movi	r6,-1
 180908c:	1880062e 	bgeu	r3,r2,18090a8 <__gtdf2+0x70>
 1809090:	d8800917 	ldw	r2,36(sp)
 1809094:	8809883a 	mov	r4,r17
 1809098:	800b883a 	mov	r5,r16
 180909c:	1880022e 	bgeu	r3,r2,18090a8 <__gtdf2+0x70>
 18090a0:	1809be40 	call	1809be4 <__fpcmp_parts_d>
 18090a4:	100d883a 	mov	r6,r2
 18090a8:	3005883a 	mov	r2,r6
 18090ac:	dfc01017 	ldw	ra,64(sp)
 18090b0:	dc400f17 	ldw	r17,60(sp)
 18090b4:	dc000e17 	ldw	r16,56(sp)
 18090b8:	dec01104 	addi	sp,sp,68
 18090bc:	f800283a 	ret

018090c0 <__gedf2>:
 18090c0:	deffef04 	addi	sp,sp,-68
 18090c4:	dc400f15 	stw	r17,60(sp)
 18090c8:	dc400404 	addi	r17,sp,16
 18090cc:	2005883a 	mov	r2,r4
 18090d0:	2807883a 	mov	r3,r5
 18090d4:	dc000e15 	stw	r16,56(sp)
 18090d8:	d809883a 	mov	r4,sp
 18090dc:	880b883a 	mov	r5,r17
 18090e0:	dc000904 	addi	r16,sp,36
 18090e4:	d8c00115 	stw	r3,4(sp)
 18090e8:	d8800015 	stw	r2,0(sp)
 18090ec:	d9800215 	stw	r6,8(sp)
 18090f0:	dfc01015 	stw	ra,64(sp)
 18090f4:	d9c00315 	stw	r7,12(sp)
 18090f8:	1809aac0 	call	1809aac <__unpack_d>
 18090fc:	d9000204 	addi	r4,sp,8
 1809100:	800b883a 	mov	r5,r16
 1809104:	1809aac0 	call	1809aac <__unpack_d>
 1809108:	d8800417 	ldw	r2,16(sp)
 180910c:	00c00044 	movi	r3,1
 1809110:	01bfffc4 	movi	r6,-1
 1809114:	1880062e 	bgeu	r3,r2,1809130 <__gedf2+0x70>
 1809118:	d8800917 	ldw	r2,36(sp)
 180911c:	8809883a 	mov	r4,r17
 1809120:	800b883a 	mov	r5,r16
 1809124:	1880022e 	bgeu	r3,r2,1809130 <__gedf2+0x70>
 1809128:	1809be40 	call	1809be4 <__fpcmp_parts_d>
 180912c:	100d883a 	mov	r6,r2
 1809130:	3005883a 	mov	r2,r6
 1809134:	dfc01017 	ldw	ra,64(sp)
 1809138:	dc400f17 	ldw	r17,60(sp)
 180913c:	dc000e17 	ldw	r16,56(sp)
 1809140:	dec01104 	addi	sp,sp,68
 1809144:	f800283a 	ret

01809148 <__ltdf2>:
 1809148:	deffef04 	addi	sp,sp,-68
 180914c:	dc400f15 	stw	r17,60(sp)
 1809150:	dc400404 	addi	r17,sp,16
 1809154:	2005883a 	mov	r2,r4
 1809158:	2807883a 	mov	r3,r5
 180915c:	dc000e15 	stw	r16,56(sp)
 1809160:	d809883a 	mov	r4,sp
 1809164:	880b883a 	mov	r5,r17
 1809168:	dc000904 	addi	r16,sp,36
 180916c:	d8c00115 	stw	r3,4(sp)
 1809170:	d8800015 	stw	r2,0(sp)
 1809174:	d9800215 	stw	r6,8(sp)
 1809178:	dfc01015 	stw	ra,64(sp)
 180917c:	d9c00315 	stw	r7,12(sp)
 1809180:	1809aac0 	call	1809aac <__unpack_d>
 1809184:	d9000204 	addi	r4,sp,8
 1809188:	800b883a 	mov	r5,r16
 180918c:	1809aac0 	call	1809aac <__unpack_d>
 1809190:	d8800417 	ldw	r2,16(sp)
 1809194:	00c00044 	movi	r3,1
 1809198:	180d883a 	mov	r6,r3
 180919c:	1880062e 	bgeu	r3,r2,18091b8 <__ltdf2+0x70>
 18091a0:	d8800917 	ldw	r2,36(sp)
 18091a4:	8809883a 	mov	r4,r17
 18091a8:	800b883a 	mov	r5,r16
 18091ac:	1880022e 	bgeu	r3,r2,18091b8 <__ltdf2+0x70>
 18091b0:	1809be40 	call	1809be4 <__fpcmp_parts_d>
 18091b4:	100d883a 	mov	r6,r2
 18091b8:	3005883a 	mov	r2,r6
 18091bc:	dfc01017 	ldw	ra,64(sp)
 18091c0:	dc400f17 	ldw	r17,60(sp)
 18091c4:	dc000e17 	ldw	r16,56(sp)
 18091c8:	dec01104 	addi	sp,sp,68
 18091cc:	f800283a 	ret

018091d0 <__floatsidf>:
 18091d0:	2006d7fa 	srli	r3,r4,31
 18091d4:	defff604 	addi	sp,sp,-40
 18091d8:	008000c4 	movi	r2,3
 18091dc:	dfc00915 	stw	ra,36(sp)
 18091e0:	dcc00815 	stw	r19,32(sp)
 18091e4:	dc800715 	stw	r18,28(sp)
 18091e8:	dc400615 	stw	r17,24(sp)
 18091ec:	dc000515 	stw	r16,20(sp)
 18091f0:	d8800015 	stw	r2,0(sp)
 18091f4:	d8c00115 	stw	r3,4(sp)
 18091f8:	20000f1e 	bne	r4,zero,1809238 <__floatsidf+0x68>
 18091fc:	00800084 	movi	r2,2
 1809200:	d8800015 	stw	r2,0(sp)
 1809204:	d809883a 	mov	r4,sp
 1809208:	18097980 	call	1809798 <__pack_d>
 180920c:	1009883a 	mov	r4,r2
 1809210:	180b883a 	mov	r5,r3
 1809214:	2005883a 	mov	r2,r4
 1809218:	2807883a 	mov	r3,r5
 180921c:	dfc00917 	ldw	ra,36(sp)
 1809220:	dcc00817 	ldw	r19,32(sp)
 1809224:	dc800717 	ldw	r18,28(sp)
 1809228:	dc400617 	ldw	r17,24(sp)
 180922c:	dc000517 	ldw	r16,20(sp)
 1809230:	dec00a04 	addi	sp,sp,40
 1809234:	f800283a 	ret
 1809238:	00800f04 	movi	r2,60
 180923c:	1807003a 	cmpeq	r3,r3,zero
 1809240:	d8800215 	stw	r2,8(sp)
 1809244:	18001126 	beq	r3,zero,180928c <__floatsidf+0xbc>
 1809248:	0027883a 	mov	r19,zero
 180924c:	2025883a 	mov	r18,r4
 1809250:	d9000315 	stw	r4,12(sp)
 1809254:	dcc00415 	stw	r19,16(sp)
 1809258:	18097180 	call	1809718 <__clzsi2>
 180925c:	11000744 	addi	r4,r2,29
 1809260:	013fe80e 	bge	zero,r4,1809204 <__floatsidf+0x34>
 1809264:	10bfff44 	addi	r2,r2,-3
 1809268:	10000c16 	blt	r2,zero,180929c <__floatsidf+0xcc>
 180926c:	90a2983a 	sll	r17,r18,r2
 1809270:	0021883a 	mov	r16,zero
 1809274:	d8800217 	ldw	r2,8(sp)
 1809278:	dc400415 	stw	r17,16(sp)
 180927c:	dc000315 	stw	r16,12(sp)
 1809280:	1105c83a 	sub	r2,r2,r4
 1809284:	d8800215 	stw	r2,8(sp)
 1809288:	003fde06 	br	1809204 <__floatsidf+0x34>
 180928c:	00a00034 	movhi	r2,32768
 1809290:	20800a26 	beq	r4,r2,18092bc <__floatsidf+0xec>
 1809294:	0109c83a 	sub	r4,zero,r4
 1809298:	003feb06 	br	1809248 <__floatsidf+0x78>
 180929c:	9006d07a 	srli	r3,r18,1
 18092a0:	008007c4 	movi	r2,31
 18092a4:	1105c83a 	sub	r2,r2,r4
 18092a8:	1886d83a 	srl	r3,r3,r2
 18092ac:	9922983a 	sll	r17,r19,r4
 18092b0:	9120983a 	sll	r16,r18,r4
 18092b4:	1c62b03a 	or	r17,r3,r17
 18092b8:	003fee06 	br	1809274 <__floatsidf+0xa4>
 18092bc:	0009883a 	mov	r4,zero
 18092c0:	01707834 	movhi	r5,49632
 18092c4:	003fd306 	br	1809214 <__floatsidf+0x44>

018092c8 <__fixdfsi>:
 18092c8:	defff804 	addi	sp,sp,-32
 18092cc:	2005883a 	mov	r2,r4
 18092d0:	2807883a 	mov	r3,r5
 18092d4:	d809883a 	mov	r4,sp
 18092d8:	d9400204 	addi	r5,sp,8
 18092dc:	d8c00115 	stw	r3,4(sp)
 18092e0:	d8800015 	stw	r2,0(sp)
 18092e4:	dfc00715 	stw	ra,28(sp)
 18092e8:	1809aac0 	call	1809aac <__unpack_d>
 18092ec:	d8c00217 	ldw	r3,8(sp)
 18092f0:	00800084 	movi	r2,2
 18092f4:	1880051e 	bne	r3,r2,180930c <__fixdfsi+0x44>
 18092f8:	0007883a 	mov	r3,zero
 18092fc:	1805883a 	mov	r2,r3
 1809300:	dfc00717 	ldw	ra,28(sp)
 1809304:	dec00804 	addi	sp,sp,32
 1809308:	f800283a 	ret
 180930c:	00800044 	movi	r2,1
 1809310:	10fff92e 	bgeu	r2,r3,18092f8 <__fixdfsi+0x30>
 1809314:	00800104 	movi	r2,4
 1809318:	18800426 	beq	r3,r2,180932c <__fixdfsi+0x64>
 180931c:	d8c00417 	ldw	r3,16(sp)
 1809320:	183ff516 	blt	r3,zero,18092f8 <__fixdfsi+0x30>
 1809324:	00800784 	movi	r2,30
 1809328:	10c0080e 	bge	r2,r3,180934c <__fixdfsi+0x84>
 180932c:	d8800317 	ldw	r2,12(sp)
 1809330:	1000121e 	bne	r2,zero,180937c <__fixdfsi+0xb4>
 1809334:	00e00034 	movhi	r3,32768
 1809338:	18ffffc4 	addi	r3,r3,-1
 180933c:	1805883a 	mov	r2,r3
 1809340:	dfc00717 	ldw	ra,28(sp)
 1809344:	dec00804 	addi	sp,sp,32
 1809348:	f800283a 	ret
 180934c:	00800f04 	movi	r2,60
 1809350:	10d1c83a 	sub	r8,r2,r3
 1809354:	40bff804 	addi	r2,r8,-32
 1809358:	d9800517 	ldw	r6,20(sp)
 180935c:	d9c00617 	ldw	r7,24(sp)
 1809360:	10000816 	blt	r2,zero,1809384 <__fixdfsi+0xbc>
 1809364:	3888d83a 	srl	r4,r7,r2
 1809368:	d8800317 	ldw	r2,12(sp)
 180936c:	2007883a 	mov	r3,r4
 1809370:	103fe226 	beq	r2,zero,18092fc <__fixdfsi+0x34>
 1809374:	0107c83a 	sub	r3,zero,r4
 1809378:	003fe006 	br	18092fc <__fixdfsi+0x34>
 180937c:	00e00034 	movhi	r3,32768
 1809380:	003fde06 	br	18092fc <__fixdfsi+0x34>
 1809384:	39c7883a 	add	r3,r7,r7
 1809388:	008007c4 	movi	r2,31
 180938c:	1205c83a 	sub	r2,r2,r8
 1809390:	1886983a 	sll	r3,r3,r2
 1809394:	3208d83a 	srl	r4,r6,r8
 1809398:	1908b03a 	or	r4,r3,r4
 180939c:	003ff206 	br	1809368 <__fixdfsi+0xa0>

018093a0 <__floatunsidf>:
 18093a0:	defff204 	addi	sp,sp,-56
 18093a4:	dfc00d15 	stw	ra,52(sp)
 18093a8:	ddc00c15 	stw	r23,48(sp)
 18093ac:	dd800b15 	stw	r22,44(sp)
 18093b0:	dd400a15 	stw	r21,40(sp)
 18093b4:	dd000915 	stw	r20,36(sp)
 18093b8:	dcc00815 	stw	r19,32(sp)
 18093bc:	dc800715 	stw	r18,28(sp)
 18093c0:	dc400615 	stw	r17,24(sp)
 18093c4:	dc000515 	stw	r16,20(sp)
 18093c8:	d8000115 	stw	zero,4(sp)
 18093cc:	20000f1e 	bne	r4,zero,180940c <__floatunsidf+0x6c>
 18093d0:	00800084 	movi	r2,2
 18093d4:	d8800015 	stw	r2,0(sp)
 18093d8:	d809883a 	mov	r4,sp
 18093dc:	18097980 	call	1809798 <__pack_d>
 18093e0:	dfc00d17 	ldw	ra,52(sp)
 18093e4:	ddc00c17 	ldw	r23,48(sp)
 18093e8:	dd800b17 	ldw	r22,44(sp)
 18093ec:	dd400a17 	ldw	r21,40(sp)
 18093f0:	dd000917 	ldw	r20,36(sp)
 18093f4:	dcc00817 	ldw	r19,32(sp)
 18093f8:	dc800717 	ldw	r18,28(sp)
 18093fc:	dc400617 	ldw	r17,24(sp)
 1809400:	dc000517 	ldw	r16,20(sp)
 1809404:	dec00e04 	addi	sp,sp,56
 1809408:	f800283a 	ret
 180940c:	008000c4 	movi	r2,3
 1809410:	00c00f04 	movi	r3,60
 1809414:	002f883a 	mov	r23,zero
 1809418:	202d883a 	mov	r22,r4
 180941c:	d8800015 	stw	r2,0(sp)
 1809420:	d8c00215 	stw	r3,8(sp)
 1809424:	d9000315 	stw	r4,12(sp)
 1809428:	ddc00415 	stw	r23,16(sp)
 180942c:	18097180 	call	1809718 <__clzsi2>
 1809430:	12400744 	addi	r9,r2,29
 1809434:	48000b16 	blt	r9,zero,1809464 <__floatunsidf+0xc4>
 1809438:	483fe726 	beq	r9,zero,18093d8 <__floatunsidf+0x38>
 180943c:	10bfff44 	addi	r2,r2,-3
 1809440:	10002e16 	blt	r2,zero,18094fc <__floatunsidf+0x15c>
 1809444:	b0a2983a 	sll	r17,r22,r2
 1809448:	0021883a 	mov	r16,zero
 180944c:	d8800217 	ldw	r2,8(sp)
 1809450:	dc400415 	stw	r17,16(sp)
 1809454:	dc000315 	stw	r16,12(sp)
 1809458:	1245c83a 	sub	r2,r2,r9
 180945c:	d8800215 	stw	r2,8(sp)
 1809460:	003fdd06 	br	18093d8 <__floatunsidf+0x38>
 1809464:	0255c83a 	sub	r10,zero,r9
 1809468:	51bff804 	addi	r6,r10,-32
 180946c:	30001b16 	blt	r6,zero,18094dc <__floatunsidf+0x13c>
 1809470:	b9a8d83a 	srl	r20,r23,r6
 1809474:	002b883a 	mov	r21,zero
 1809478:	000f883a 	mov	r7,zero
 180947c:	01000044 	movi	r4,1
 1809480:	0011883a 	mov	r8,zero
 1809484:	30002516 	blt	r6,zero,180951c <__floatunsidf+0x17c>
 1809488:	21a6983a 	sll	r19,r4,r6
 180948c:	0025883a 	mov	r18,zero
 1809490:	00bfffc4 	movi	r2,-1
 1809494:	9089883a 	add	r4,r18,r2
 1809498:	988b883a 	add	r5,r19,r2
 180949c:	248d803a 	cmpltu	r6,r4,r18
 18094a0:	314b883a 	add	r5,r6,r5
 18094a4:	b104703a 	and	r2,r22,r4
 18094a8:	b946703a 	and	r3,r23,r5
 18094ac:	10c4b03a 	or	r2,r2,r3
 18094b0:	10000226 	beq	r2,zero,18094bc <__floatunsidf+0x11c>
 18094b4:	01c00044 	movi	r7,1
 18094b8:	0011883a 	mov	r8,zero
 18094bc:	d9000217 	ldw	r4,8(sp)
 18094c0:	a1c4b03a 	or	r2,r20,r7
 18094c4:	aa06b03a 	or	r3,r21,r8
 18094c8:	2249c83a 	sub	r4,r4,r9
 18094cc:	d8c00415 	stw	r3,16(sp)
 18094d0:	d9000215 	stw	r4,8(sp)
 18094d4:	d8800315 	stw	r2,12(sp)
 18094d8:	003fbf06 	br	18093d8 <__floatunsidf+0x38>
 18094dc:	bdc7883a 	add	r3,r23,r23
 18094e0:	008007c4 	movi	r2,31
 18094e4:	1285c83a 	sub	r2,r2,r10
 18094e8:	1886983a 	sll	r3,r3,r2
 18094ec:	b2a8d83a 	srl	r20,r22,r10
 18094f0:	baaad83a 	srl	r21,r23,r10
 18094f4:	1d28b03a 	or	r20,r3,r20
 18094f8:	003fdf06 	br	1809478 <__floatunsidf+0xd8>
 18094fc:	b006d07a 	srli	r3,r22,1
 1809500:	008007c4 	movi	r2,31
 1809504:	1245c83a 	sub	r2,r2,r9
 1809508:	1886d83a 	srl	r3,r3,r2
 180950c:	ba62983a 	sll	r17,r23,r9
 1809510:	b260983a 	sll	r16,r22,r9
 1809514:	1c62b03a 	or	r17,r3,r17
 1809518:	003fcc06 	br	180944c <__floatunsidf+0xac>
 180951c:	2006d07a 	srli	r3,r4,1
 1809520:	008007c4 	movi	r2,31
 1809524:	1285c83a 	sub	r2,r2,r10
 1809528:	18a6d83a 	srl	r19,r3,r2
 180952c:	22a4983a 	sll	r18,r4,r10
 1809530:	003fd706 	br	1809490 <__floatunsidf+0xf0>

01809534 <udivmodsi4>:
 1809534:	29001b2e 	bgeu	r5,r4,18095a4 <udivmodsi4+0x70>
 1809538:	28001a16 	blt	r5,zero,18095a4 <udivmodsi4+0x70>
 180953c:	00800044 	movi	r2,1
 1809540:	0007883a 	mov	r3,zero
 1809544:	01c007c4 	movi	r7,31
 1809548:	00000306 	br	1809558 <udivmodsi4+0x24>
 180954c:	19c01326 	beq	r3,r7,180959c <udivmodsi4+0x68>
 1809550:	18c00044 	addi	r3,r3,1
 1809554:	28000416 	blt	r5,zero,1809568 <udivmodsi4+0x34>
 1809558:	294b883a 	add	r5,r5,r5
 180955c:	1085883a 	add	r2,r2,r2
 1809560:	293ffa36 	bltu	r5,r4,180954c <udivmodsi4+0x18>
 1809564:	10000d26 	beq	r2,zero,180959c <udivmodsi4+0x68>
 1809568:	0007883a 	mov	r3,zero
 180956c:	21400236 	bltu	r4,r5,1809578 <udivmodsi4+0x44>
 1809570:	2149c83a 	sub	r4,r4,r5
 1809574:	1886b03a 	or	r3,r3,r2
 1809578:	1004d07a 	srli	r2,r2,1
 180957c:	280ad07a 	srli	r5,r5,1
 1809580:	103ffa1e 	bne	r2,zero,180956c <udivmodsi4+0x38>
 1809584:	30000226 	beq	r6,zero,1809590 <udivmodsi4+0x5c>
 1809588:	2005883a 	mov	r2,r4
 180958c:	f800283a 	ret
 1809590:	1809883a 	mov	r4,r3
 1809594:	2005883a 	mov	r2,r4
 1809598:	f800283a 	ret
 180959c:	0007883a 	mov	r3,zero
 18095a0:	003ff806 	br	1809584 <udivmodsi4+0x50>
 18095a4:	00800044 	movi	r2,1
 18095a8:	0007883a 	mov	r3,zero
 18095ac:	003fef06 	br	180956c <udivmodsi4+0x38>

018095b0 <__divsi3>:
 18095b0:	defffe04 	addi	sp,sp,-8
 18095b4:	dc000015 	stw	r16,0(sp)
 18095b8:	dfc00115 	stw	ra,4(sp)
 18095bc:	0021883a 	mov	r16,zero
 18095c0:	20000c16 	blt	r4,zero,18095f4 <__divsi3+0x44>
 18095c4:	000d883a 	mov	r6,zero
 18095c8:	28000e16 	blt	r5,zero,1809604 <__divsi3+0x54>
 18095cc:	18095340 	call	1809534 <udivmodsi4>
 18095d0:	1007883a 	mov	r3,r2
 18095d4:	8005003a 	cmpeq	r2,r16,zero
 18095d8:	1000011e 	bne	r2,zero,18095e0 <__divsi3+0x30>
 18095dc:	00c7c83a 	sub	r3,zero,r3
 18095e0:	1805883a 	mov	r2,r3
 18095e4:	dfc00117 	ldw	ra,4(sp)
 18095e8:	dc000017 	ldw	r16,0(sp)
 18095ec:	dec00204 	addi	sp,sp,8
 18095f0:	f800283a 	ret
 18095f4:	0109c83a 	sub	r4,zero,r4
 18095f8:	04000044 	movi	r16,1
 18095fc:	000d883a 	mov	r6,zero
 1809600:	283ff20e 	bge	r5,zero,18095cc <__divsi3+0x1c>
 1809604:	014bc83a 	sub	r5,zero,r5
 1809608:	8021003a 	cmpeq	r16,r16,zero
 180960c:	003fef06 	br	18095cc <__divsi3+0x1c>

01809610 <__modsi3>:
 1809610:	deffff04 	addi	sp,sp,-4
 1809614:	dfc00015 	stw	ra,0(sp)
 1809618:	01800044 	movi	r6,1
 180961c:	2807883a 	mov	r3,r5
 1809620:	20000416 	blt	r4,zero,1809634 <__modsi3+0x24>
 1809624:	28000c16 	blt	r5,zero,1809658 <__modsi3+0x48>
 1809628:	dfc00017 	ldw	ra,0(sp)
 180962c:	dec00104 	addi	sp,sp,4
 1809630:	18095341 	jmpi	1809534 <udivmodsi4>
 1809634:	0109c83a 	sub	r4,zero,r4
 1809638:	28000b16 	blt	r5,zero,1809668 <__modsi3+0x58>
 180963c:	180b883a 	mov	r5,r3
 1809640:	01800044 	movi	r6,1
 1809644:	18095340 	call	1809534 <udivmodsi4>
 1809648:	0085c83a 	sub	r2,zero,r2
 180964c:	dfc00017 	ldw	ra,0(sp)
 1809650:	dec00104 	addi	sp,sp,4
 1809654:	f800283a 	ret
 1809658:	014bc83a 	sub	r5,zero,r5
 180965c:	dfc00017 	ldw	ra,0(sp)
 1809660:	dec00104 	addi	sp,sp,4
 1809664:	18095341 	jmpi	1809534 <udivmodsi4>
 1809668:	0147c83a 	sub	r3,zero,r5
 180966c:	003ff306 	br	180963c <__modsi3+0x2c>

01809670 <__udivsi3>:
 1809670:	000d883a 	mov	r6,zero
 1809674:	18095341 	jmpi	1809534 <udivmodsi4>

01809678 <__umodsi3>:
 1809678:	01800044 	movi	r6,1
 180967c:	18095341 	jmpi	1809534 <udivmodsi4>

01809680 <__muldi3>:
 1809680:	2011883a 	mov	r8,r4
 1809684:	427fffcc 	andi	r9,r8,65535
 1809688:	4018d43a 	srli	r12,r8,16
 180968c:	32bfffcc 	andi	r10,r6,65535
 1809690:	3016d43a 	srli	r11,r6,16
 1809694:	4a85383a 	mul	r2,r9,r10
 1809698:	6295383a 	mul	r10,r12,r10
 180969c:	4ad3383a 	mul	r9,r9,r11
 18096a0:	113fffcc 	andi	r4,r2,65535
 18096a4:	1004d43a 	srli	r2,r2,16
 18096a8:	4a93883a 	add	r9,r9,r10
 18096ac:	3807883a 	mov	r3,r7
 18096b0:	1245883a 	add	r2,r2,r9
 18096b4:	280f883a 	mov	r7,r5
 18096b8:	180b883a 	mov	r5,r3
 18096bc:	1006943a 	slli	r3,r2,16
 18096c0:	defffd04 	addi	sp,sp,-12
 18096c4:	dc800215 	stw	r18,8(sp)
 18096c8:	1907883a 	add	r3,r3,r4
 18096cc:	dc400115 	stw	r17,4(sp)
 18096d0:	dc000015 	stw	r16,0(sp)
 18096d4:	4165383a 	mul	r18,r8,r5
 18096d8:	31e3383a 	mul	r17,r6,r7
 18096dc:	1012d43a 	srli	r9,r2,16
 18096e0:	62d9383a 	mul	r12,r12,r11
 18096e4:	181f883a 	mov	r15,r3
 18096e8:	1280022e 	bgeu	r2,r10,18096f4 <__muldi3+0x74>
 18096ec:	00800074 	movhi	r2,1
 18096f0:	6099883a 	add	r12,r12,r2
 18096f4:	624d883a 	add	r6,r12,r9
 18096f8:	9187883a 	add	r3,r18,r6
 18096fc:	88c7883a 	add	r3,r17,r3
 1809700:	7805883a 	mov	r2,r15
 1809704:	dc800217 	ldw	r18,8(sp)
 1809708:	dc400117 	ldw	r17,4(sp)
 180970c:	dc000017 	ldw	r16,0(sp)
 1809710:	dec00304 	addi	sp,sp,12
 1809714:	f800283a 	ret

01809718 <__clzsi2>:
 1809718:	00bfffd4 	movui	r2,65535
 180971c:	11000e36 	bltu	r2,r4,1809758 <__clzsi2+0x40>
 1809720:	00803fc4 	movi	r2,255
 1809724:	01400204 	movi	r5,8
 1809728:	0007883a 	mov	r3,zero
 180972c:	11001036 	bltu	r2,r4,1809770 <__clzsi2+0x58>
 1809730:	000b883a 	mov	r5,zero
 1809734:	20c6d83a 	srl	r3,r4,r3
 1809738:	00806074 	movhi	r2,385
 180973c:	10829e04 	addi	r2,r2,2680
 1809740:	1887883a 	add	r3,r3,r2
 1809744:	18800003 	ldbu	r2,0(r3)
 1809748:	00c00804 	movi	r3,32
 180974c:	2885883a 	add	r2,r5,r2
 1809750:	1885c83a 	sub	r2,r3,r2
 1809754:	f800283a 	ret
 1809758:	01400404 	movi	r5,16
 180975c:	00804034 	movhi	r2,256
 1809760:	10bfffc4 	addi	r2,r2,-1
 1809764:	2807883a 	mov	r3,r5
 1809768:	113ff22e 	bgeu	r2,r4,1809734 <__clzsi2+0x1c>
 180976c:	01400604 	movi	r5,24
 1809770:	2807883a 	mov	r3,r5
 1809774:	20c6d83a 	srl	r3,r4,r3
 1809778:	00806074 	movhi	r2,385
 180977c:	10829e04 	addi	r2,r2,2680
 1809780:	1887883a 	add	r3,r3,r2
 1809784:	18800003 	ldbu	r2,0(r3)
 1809788:	00c00804 	movi	r3,32
 180978c:	2885883a 	add	r2,r5,r2
 1809790:	1885c83a 	sub	r2,r3,r2
 1809794:	f800283a 	ret

01809798 <__pack_d>:
 1809798:	20c00017 	ldw	r3,0(r4)
 180979c:	defffd04 	addi	sp,sp,-12
 18097a0:	dc000015 	stw	r16,0(sp)
 18097a4:	dc800215 	stw	r18,8(sp)
 18097a8:	dc400115 	stw	r17,4(sp)
 18097ac:	00800044 	movi	r2,1
 18097b0:	22000317 	ldw	r8,12(r4)
 18097b4:	001f883a 	mov	r15,zero
 18097b8:	22400417 	ldw	r9,16(r4)
 18097bc:	24000117 	ldw	r16,4(r4)
 18097c0:	10c0552e 	bgeu	r2,r3,1809918 <__pack_d+0x180>
 18097c4:	00800104 	movi	r2,4
 18097c8:	18804f26 	beq	r3,r2,1809908 <__pack_d+0x170>
 18097cc:	00800084 	movi	r2,2
 18097d0:	18800226 	beq	r3,r2,18097dc <__pack_d+0x44>
 18097d4:	4244b03a 	or	r2,r8,r9
 18097d8:	10001a1e 	bne	r2,zero,1809844 <__pack_d+0xac>
 18097dc:	000d883a 	mov	r6,zero
 18097e0:	000f883a 	mov	r7,zero
 18097e4:	0011883a 	mov	r8,zero
 18097e8:	00800434 	movhi	r2,16
 18097ec:	10bfffc4 	addi	r2,r2,-1
 18097f0:	301d883a 	mov	r14,r6
 18097f4:	3884703a 	and	r2,r7,r2
 18097f8:	400a953a 	slli	r5,r8,20
 18097fc:	79bffc2c 	andhi	r6,r15,65520
 1809800:	308cb03a 	or	r6,r6,r2
 1809804:	00e00434 	movhi	r3,32784
 1809808:	18ffffc4 	addi	r3,r3,-1
 180980c:	800497fa 	slli	r2,r16,31
 1809810:	30c6703a 	and	r3,r6,r3
 1809814:	1946b03a 	or	r3,r3,r5
 1809818:	01600034 	movhi	r5,32768
 180981c:	297fffc4 	addi	r5,r5,-1
 1809820:	194a703a 	and	r5,r3,r5
 1809824:	288ab03a 	or	r5,r5,r2
 1809828:	2807883a 	mov	r3,r5
 180982c:	7005883a 	mov	r2,r14
 1809830:	dc800217 	ldw	r18,8(sp)
 1809834:	dc400117 	ldw	r17,4(sp)
 1809838:	dc000017 	ldw	r16,0(sp)
 180983c:	dec00304 	addi	sp,sp,12
 1809840:	f800283a 	ret
 1809844:	21000217 	ldw	r4,8(r4)
 1809848:	00bf0084 	movi	r2,-1022
 180984c:	20803f16 	blt	r4,r2,180994c <__pack_d+0x1b4>
 1809850:	0080ffc4 	movi	r2,1023
 1809854:	11002c16 	blt	r2,r4,1809908 <__pack_d+0x170>
 1809858:	00803fc4 	movi	r2,255
 180985c:	408c703a 	and	r6,r8,r2
 1809860:	00802004 	movi	r2,128
 1809864:	0007883a 	mov	r3,zero
 1809868:	000f883a 	mov	r7,zero
 180986c:	2280ffc4 	addi	r10,r4,1023
 1809870:	30801e26 	beq	r6,r2,18098ec <__pack_d+0x154>
 1809874:	00801fc4 	movi	r2,127
 1809878:	4089883a 	add	r4,r8,r2
 180987c:	220d803a 	cmpltu	r6,r4,r8
 1809880:	324d883a 	add	r6,r6,r9
 1809884:	2011883a 	mov	r8,r4
 1809888:	3013883a 	mov	r9,r6
 180988c:	00880034 	movhi	r2,8192
 1809890:	10bfffc4 	addi	r2,r2,-1
 1809894:	12400d36 	bltu	r2,r9,18098cc <__pack_d+0x134>
 1809898:	4804963a 	slli	r2,r9,24
 180989c:	400cd23a 	srli	r6,r8,8
 18098a0:	480ed23a 	srli	r7,r9,8
 18098a4:	013fffc4 	movi	r4,-1
 18098a8:	118cb03a 	or	r6,r2,r6
 18098ac:	01400434 	movhi	r5,16
 18098b0:	297fffc4 	addi	r5,r5,-1
 18098b4:	3104703a 	and	r2,r6,r4
 18098b8:	3946703a 	and	r3,r7,r5
 18098bc:	5201ffcc 	andi	r8,r10,2047
 18098c0:	100d883a 	mov	r6,r2
 18098c4:	180f883a 	mov	r7,r3
 18098c8:	003fc706 	br	18097e8 <__pack_d+0x50>
 18098cc:	480897fa 	slli	r4,r9,31
 18098d0:	4004d07a 	srli	r2,r8,1
 18098d4:	4806d07a 	srli	r3,r9,1
 18098d8:	52800044 	addi	r10,r10,1
 18098dc:	2084b03a 	or	r2,r4,r2
 18098e0:	1011883a 	mov	r8,r2
 18098e4:	1813883a 	mov	r9,r3
 18098e8:	003feb06 	br	1809898 <__pack_d+0x100>
 18098ec:	383fe11e 	bne	r7,zero,1809874 <__pack_d+0xdc>
 18098f0:	01004004 	movi	r4,256
 18098f4:	4104703a 	and	r2,r8,r4
 18098f8:	10c4b03a 	or	r2,r2,r3
 18098fc:	103fe326 	beq	r2,zero,180988c <__pack_d+0xf4>
 1809900:	3005883a 	mov	r2,r6
 1809904:	003fdc06 	br	1809878 <__pack_d+0xe0>
 1809908:	000d883a 	mov	r6,zero
 180990c:	000f883a 	mov	r7,zero
 1809910:	0201ffc4 	movi	r8,2047
 1809914:	003fb406 	br	18097e8 <__pack_d+0x50>
 1809918:	0005883a 	mov	r2,zero
 180991c:	00c00234 	movhi	r3,8
 1809920:	408cb03a 	or	r6,r8,r2
 1809924:	48ceb03a 	or	r7,r9,r3
 1809928:	013fffc4 	movi	r4,-1
 180992c:	01400434 	movhi	r5,16
 1809930:	297fffc4 	addi	r5,r5,-1
 1809934:	3104703a 	and	r2,r6,r4
 1809938:	3946703a 	and	r3,r7,r5
 180993c:	100d883a 	mov	r6,r2
 1809940:	180f883a 	mov	r7,r3
 1809944:	0201ffc4 	movi	r8,2047
 1809948:	003fa706 	br	18097e8 <__pack_d+0x50>
 180994c:	1109c83a 	sub	r4,r2,r4
 1809950:	00800e04 	movi	r2,56
 1809954:	11004316 	blt	r2,r4,1809a64 <__pack_d+0x2cc>
 1809958:	21fff804 	addi	r7,r4,-32
 180995c:	38004516 	blt	r7,zero,1809a74 <__pack_d+0x2dc>
 1809960:	49d8d83a 	srl	r12,r9,r7
 1809964:	001b883a 	mov	r13,zero
 1809968:	0023883a 	mov	r17,zero
 180996c:	01400044 	movi	r5,1
 1809970:	0025883a 	mov	r18,zero
 1809974:	38004716 	blt	r7,zero,1809a94 <__pack_d+0x2fc>
 1809978:	29d6983a 	sll	r11,r5,r7
 180997c:	0015883a 	mov	r10,zero
 1809980:	00bfffc4 	movi	r2,-1
 1809984:	5089883a 	add	r4,r10,r2
 1809988:	588b883a 	add	r5,r11,r2
 180998c:	228d803a 	cmpltu	r6,r4,r10
 1809990:	314b883a 	add	r5,r6,r5
 1809994:	4104703a 	and	r2,r8,r4
 1809998:	4946703a 	and	r3,r9,r5
 180999c:	10c4b03a 	or	r2,r2,r3
 18099a0:	10000226 	beq	r2,zero,18099ac <__pack_d+0x214>
 18099a4:	04400044 	movi	r17,1
 18099a8:	0025883a 	mov	r18,zero
 18099ac:	00803fc4 	movi	r2,255
 18099b0:	644eb03a 	or	r7,r12,r17
 18099b4:	3892703a 	and	r9,r7,r2
 18099b8:	00802004 	movi	r2,128
 18099bc:	6c90b03a 	or	r8,r13,r18
 18099c0:	0015883a 	mov	r10,zero
 18099c4:	48801626 	beq	r9,r2,1809a20 <__pack_d+0x288>
 18099c8:	01001fc4 	movi	r4,127
 18099cc:	3905883a 	add	r2,r7,r4
 18099d0:	11cd803a 	cmpltu	r6,r2,r7
 18099d4:	320d883a 	add	r6,r6,r8
 18099d8:	100f883a 	mov	r7,r2
 18099dc:	00840034 	movhi	r2,4096
 18099e0:	10bfffc4 	addi	r2,r2,-1
 18099e4:	3011883a 	mov	r8,r6
 18099e8:	0007883a 	mov	r3,zero
 18099ec:	11801b36 	bltu	r2,r6,1809a5c <__pack_d+0x2c4>
 18099f0:	4004963a 	slli	r2,r8,24
 18099f4:	3808d23a 	srli	r4,r7,8
 18099f8:	400ad23a 	srli	r5,r8,8
 18099fc:	1813883a 	mov	r9,r3
 1809a00:	1108b03a 	or	r4,r2,r4
 1809a04:	00bfffc4 	movi	r2,-1
 1809a08:	00c00434 	movhi	r3,16
 1809a0c:	18ffffc4 	addi	r3,r3,-1
 1809a10:	208c703a 	and	r6,r4,r2
 1809a14:	28ce703a 	and	r7,r5,r3
 1809a18:	4a01ffcc 	andi	r8,r9,2047
 1809a1c:	003f7206 	br	18097e8 <__pack_d+0x50>
 1809a20:	503fe91e 	bne	r10,zero,18099c8 <__pack_d+0x230>
 1809a24:	01004004 	movi	r4,256
 1809a28:	3904703a 	and	r2,r7,r4
 1809a2c:	0007883a 	mov	r3,zero
 1809a30:	10c4b03a 	or	r2,r2,r3
 1809a34:	10000626 	beq	r2,zero,1809a50 <__pack_d+0x2b8>
 1809a38:	3a45883a 	add	r2,r7,r9
 1809a3c:	11cd803a 	cmpltu	r6,r2,r7
 1809a40:	320d883a 	add	r6,r6,r8
 1809a44:	100f883a 	mov	r7,r2
 1809a48:	3011883a 	mov	r8,r6
 1809a4c:	0007883a 	mov	r3,zero
 1809a50:	00840034 	movhi	r2,4096
 1809a54:	10bfffc4 	addi	r2,r2,-1
 1809a58:	123fe52e 	bgeu	r2,r8,18099f0 <__pack_d+0x258>
 1809a5c:	00c00044 	movi	r3,1
 1809a60:	003fe306 	br	18099f0 <__pack_d+0x258>
 1809a64:	0009883a 	mov	r4,zero
 1809a68:	0013883a 	mov	r9,zero
 1809a6c:	000b883a 	mov	r5,zero
 1809a70:	003fe406 	br	1809a04 <__pack_d+0x26c>
 1809a74:	4a47883a 	add	r3,r9,r9
 1809a78:	008007c4 	movi	r2,31
 1809a7c:	1105c83a 	sub	r2,r2,r4
 1809a80:	1886983a 	sll	r3,r3,r2
 1809a84:	4118d83a 	srl	r12,r8,r4
 1809a88:	491ad83a 	srl	r13,r9,r4
 1809a8c:	1b18b03a 	or	r12,r3,r12
 1809a90:	003fb506 	br	1809968 <__pack_d+0x1d0>
 1809a94:	2806d07a 	srli	r3,r5,1
 1809a98:	008007c4 	movi	r2,31
 1809a9c:	1105c83a 	sub	r2,r2,r4
 1809aa0:	1896d83a 	srl	r11,r3,r2
 1809aa4:	2914983a 	sll	r10,r5,r4
 1809aa8:	003fb506 	br	1809980 <__pack_d+0x1e8>

01809aac <__unpack_d>:
 1809aac:	20c00117 	ldw	r3,4(r4)
 1809ab0:	22400017 	ldw	r9,0(r4)
 1809ab4:	00800434 	movhi	r2,16
 1809ab8:	10bfffc4 	addi	r2,r2,-1
 1809abc:	1808d53a 	srli	r4,r3,20
 1809ac0:	180cd7fa 	srli	r6,r3,31
 1809ac4:	1894703a 	and	r10,r3,r2
 1809ac8:	2201ffcc 	andi	r8,r4,2047
 1809acc:	281b883a 	mov	r13,r5
 1809ad0:	4817883a 	mov	r11,r9
 1809ad4:	29800115 	stw	r6,4(r5)
 1809ad8:	5019883a 	mov	r12,r10
 1809adc:	40001e1e 	bne	r8,zero,1809b58 <__unpack_d+0xac>
 1809ae0:	4a84b03a 	or	r2,r9,r10
 1809ae4:	10001926 	beq	r2,zero,1809b4c <__unpack_d+0xa0>
 1809ae8:	4804d63a 	srli	r2,r9,24
 1809aec:	500c923a 	slli	r6,r10,8
 1809af0:	013f0084 	movi	r4,-1022
 1809af4:	00c40034 	movhi	r3,4096
 1809af8:	18ffffc4 	addi	r3,r3,-1
 1809afc:	118cb03a 	or	r6,r2,r6
 1809b00:	008000c4 	movi	r2,3
 1809b04:	480a923a 	slli	r5,r9,8
 1809b08:	68800015 	stw	r2,0(r13)
 1809b0c:	69000215 	stw	r4,8(r13)
 1809b10:	19800b36 	bltu	r3,r6,1809b40 <__unpack_d+0x94>
 1809b14:	200f883a 	mov	r7,r4
 1809b18:	1811883a 	mov	r8,r3
 1809b1c:	2945883a 	add	r2,r5,r5
 1809b20:	1149803a 	cmpltu	r4,r2,r5
 1809b24:	3187883a 	add	r3,r6,r6
 1809b28:	20c9883a 	add	r4,r4,r3
 1809b2c:	100b883a 	mov	r5,r2
 1809b30:	200d883a 	mov	r6,r4
 1809b34:	39ffffc4 	addi	r7,r7,-1
 1809b38:	413ff82e 	bgeu	r8,r4,1809b1c <__unpack_d+0x70>
 1809b3c:	69c00215 	stw	r7,8(r13)
 1809b40:	69800415 	stw	r6,16(r13)
 1809b44:	69400315 	stw	r5,12(r13)
 1809b48:	f800283a 	ret
 1809b4c:	00800084 	movi	r2,2
 1809b50:	28800015 	stw	r2,0(r5)
 1809b54:	f800283a 	ret
 1809b58:	0081ffc4 	movi	r2,2047
 1809b5c:	40800f26 	beq	r8,r2,1809b9c <__unpack_d+0xf0>
 1809b60:	480cd63a 	srli	r6,r9,24
 1809b64:	5006923a 	slli	r3,r10,8
 1809b68:	4804923a 	slli	r2,r9,8
 1809b6c:	0009883a 	mov	r4,zero
 1809b70:	30c6b03a 	or	r3,r6,r3
 1809b74:	01440034 	movhi	r5,4096
 1809b78:	110cb03a 	or	r6,r2,r4
 1809b7c:	423f0044 	addi	r8,r8,-1023
 1809b80:	194eb03a 	or	r7,r3,r5
 1809b84:	008000c4 	movi	r2,3
 1809b88:	69c00415 	stw	r7,16(r13)
 1809b8c:	6a000215 	stw	r8,8(r13)
 1809b90:	68800015 	stw	r2,0(r13)
 1809b94:	69800315 	stw	r6,12(r13)
 1809b98:	f800283a 	ret
 1809b9c:	4a84b03a 	or	r2,r9,r10
 1809ba0:	1000031e 	bne	r2,zero,1809bb0 <__unpack_d+0x104>
 1809ba4:	00800104 	movi	r2,4
 1809ba8:	28800015 	stw	r2,0(r5)
 1809bac:	f800283a 	ret
 1809bb0:	0009883a 	mov	r4,zero
 1809bb4:	01400234 	movhi	r5,8
 1809bb8:	4904703a 	and	r2,r9,r4
 1809bbc:	5146703a 	and	r3,r10,r5
 1809bc0:	10c4b03a 	or	r2,r2,r3
 1809bc4:	10000526 	beq	r2,zero,1809bdc <__unpack_d+0x130>
 1809bc8:	00800044 	movi	r2,1
 1809bcc:	68800015 	stw	r2,0(r13)
 1809bd0:	6b000415 	stw	r12,16(r13)
 1809bd4:	6ac00315 	stw	r11,12(r13)
 1809bd8:	f800283a 	ret
 1809bdc:	68000015 	stw	zero,0(r13)
 1809be0:	003ffb06 	br	1809bd0 <__unpack_d+0x124>

01809be4 <__fpcmp_parts_d>:
 1809be4:	21800017 	ldw	r6,0(r4)
 1809be8:	00c00044 	movi	r3,1
 1809bec:	19800a2e 	bgeu	r3,r6,1809c18 <__fpcmp_parts_d+0x34>
 1809bf0:	28800017 	ldw	r2,0(r5)
 1809bf4:	1880082e 	bgeu	r3,r2,1809c18 <__fpcmp_parts_d+0x34>
 1809bf8:	00c00104 	movi	r3,4
 1809bfc:	30c02626 	beq	r6,r3,1809c98 <__fpcmp_parts_d+0xb4>
 1809c00:	10c02226 	beq	r2,r3,1809c8c <__fpcmp_parts_d+0xa8>
 1809c04:	00c00084 	movi	r3,2
 1809c08:	30c00526 	beq	r6,r3,1809c20 <__fpcmp_parts_d+0x3c>
 1809c0c:	10c0071e 	bne	r2,r3,1809c2c <__fpcmp_parts_d+0x48>
 1809c10:	20800117 	ldw	r2,4(r4)
 1809c14:	1000091e 	bne	r2,zero,1809c3c <__fpcmp_parts_d+0x58>
 1809c18:	00800044 	movi	r2,1
 1809c1c:	f800283a 	ret
 1809c20:	10c01a1e 	bne	r2,r3,1809c8c <__fpcmp_parts_d+0xa8>
 1809c24:	0005883a 	mov	r2,zero
 1809c28:	f800283a 	ret
 1809c2c:	22000117 	ldw	r8,4(r4)
 1809c30:	28800117 	ldw	r2,4(r5)
 1809c34:	40800326 	beq	r8,r2,1809c44 <__fpcmp_parts_d+0x60>
 1809c38:	403ff726 	beq	r8,zero,1809c18 <__fpcmp_parts_d+0x34>
 1809c3c:	00bfffc4 	movi	r2,-1
 1809c40:	f800283a 	ret
 1809c44:	20c00217 	ldw	r3,8(r4)
 1809c48:	28800217 	ldw	r2,8(r5)
 1809c4c:	10fffa16 	blt	r2,r3,1809c38 <__fpcmp_parts_d+0x54>
 1809c50:	18800916 	blt	r3,r2,1809c78 <__fpcmp_parts_d+0x94>
 1809c54:	21c00417 	ldw	r7,16(r4)
 1809c58:	28c00417 	ldw	r3,16(r5)
 1809c5c:	21800317 	ldw	r6,12(r4)
 1809c60:	28800317 	ldw	r2,12(r5)
 1809c64:	19fff436 	bltu	r3,r7,1809c38 <__fpcmp_parts_d+0x54>
 1809c68:	38c00526 	beq	r7,r3,1809c80 <__fpcmp_parts_d+0x9c>
 1809c6c:	38c00236 	bltu	r7,r3,1809c78 <__fpcmp_parts_d+0x94>
 1809c70:	19ffec1e 	bne	r3,r7,1809c24 <__fpcmp_parts_d+0x40>
 1809c74:	30bfeb2e 	bgeu	r6,r2,1809c24 <__fpcmp_parts_d+0x40>
 1809c78:	403fe71e 	bne	r8,zero,1809c18 <__fpcmp_parts_d+0x34>
 1809c7c:	003fef06 	br	1809c3c <__fpcmp_parts_d+0x58>
 1809c80:	11bffa2e 	bgeu	r2,r6,1809c6c <__fpcmp_parts_d+0x88>
 1809c84:	403fe426 	beq	r8,zero,1809c18 <__fpcmp_parts_d+0x34>
 1809c88:	003fec06 	br	1809c3c <__fpcmp_parts_d+0x58>
 1809c8c:	28800117 	ldw	r2,4(r5)
 1809c90:	103fe11e 	bne	r2,zero,1809c18 <__fpcmp_parts_d+0x34>
 1809c94:	003fe906 	br	1809c3c <__fpcmp_parts_d+0x58>
 1809c98:	11bfdd1e 	bne	r2,r6,1809c10 <__fpcmp_parts_d+0x2c>
 1809c9c:	28c00117 	ldw	r3,4(r5)
 1809ca0:	20800117 	ldw	r2,4(r4)
 1809ca4:	1885c83a 	sub	r2,r3,r2
 1809ca8:	f800283a 	ret

01809cac <close>:
 *
 * ALT_CLOSE is mapped onto the close() system call in alt_syscall.h
 */
 
int ALT_CLOSE (int fildes)
{
 1809cac:	defff804 	addi	sp,sp,-32
 1809cb0:	dfc00715 	stw	ra,28(sp)
 1809cb4:	df000615 	stw	fp,24(sp)
 1809cb8:	df000604 	addi	fp,sp,24
 1809cbc:	e13ffc15 	stw	r4,-16(fp)
   * A common error case is that when the file descriptor was created, the call
   * to open() failed resulting in a negative file descriptor. This is trapped
   * below so that we don't try and process an invalid file descriptor.
   */

  fd = (fildes < 0) ? NULL : &alt_fd_list[fildes];
 1809cc0:	e0bffc17 	ldw	r2,-16(fp)
 1809cc4:	1004803a 	cmplt	r2,r2,zero
 1809cc8:	1000081e 	bne	r2,zero,1809cec <close+0x40>
 1809ccc:	e0bffc17 	ldw	r2,-16(fp)
 1809cd0:	10800324 	muli	r2,r2,12
 1809cd4:	1007883a 	mov	r3,r2
 1809cd8:	00806074 	movhi	r2,385
 1809cdc:	1085a304 	addi	r2,r2,5772
 1809ce0:	1887883a 	add	r3,r3,r2
 1809ce4:	e0ffff15 	stw	r3,-4(fp)
 1809ce8:	00000106 	br	1809cf0 <close+0x44>
 1809cec:	e03fff15 	stw	zero,-4(fp)
 1809cf0:	e0bfff17 	ldw	r2,-4(fp)
 1809cf4:	e0bffb15 	stw	r2,-20(fp)

  if (fd)
 1809cf8:	e0bffb17 	ldw	r2,-20(fp)
 1809cfc:	1005003a 	cmpeq	r2,r2,zero
 1809d00:	10001d1e 	bne	r2,zero,1809d78 <close+0xcc>
    /*
     * If the associated file system/device has a close function, call it so 
     * that any necessary cleanup code can run.
     */

    rval = (fd->dev->close) ? fd->dev->close(fd) : 0;
 1809d04:	e0bffb17 	ldw	r2,-20(fp)
 1809d08:	10800017 	ldw	r2,0(r2)
 1809d0c:	10800417 	ldw	r2,16(r2)
 1809d10:	1005003a 	cmpeq	r2,r2,zero
 1809d14:	1000071e 	bne	r2,zero,1809d34 <close+0x88>
 1809d18:	e0bffb17 	ldw	r2,-20(fp)
 1809d1c:	10800017 	ldw	r2,0(r2)
 1809d20:	10800417 	ldw	r2,16(r2)
 1809d24:	e13ffb17 	ldw	r4,-20(fp)
 1809d28:	103ee83a 	callr	r2
 1809d2c:	e0bffe15 	stw	r2,-8(fp)
 1809d30:	00000106 	br	1809d38 <close+0x8c>
 1809d34:	e03ffe15 	stw	zero,-8(fp)
 1809d38:	e0bffe17 	ldw	r2,-8(fp)
 1809d3c:	e0bffa15 	stw	r2,-24(fp)

    /* Free the file descriptor structure and return. */

    alt_release_fd (fildes);
 1809d40:	e13ffc17 	ldw	r4,-16(fp)
 1809d44:	180a4040 	call	180a404 <alt_release_fd>
    if (rval < 0)
 1809d48:	e0bffa17 	ldw	r2,-24(fp)
 1809d4c:	1004403a 	cmpge	r2,r2,zero
 1809d50:	1000071e 	bne	r2,zero,1809d70 <close+0xc4>
    {
      ALT_ERRNO = -rval;
 1809d54:	1809da80 	call	1809da8 <alt_get_errno>
 1809d58:	e0fffa17 	ldw	r3,-24(fp)
 1809d5c:	00c7c83a 	sub	r3,zero,r3
 1809d60:	10c00015 	stw	r3,0(r2)
      return -1;
 1809d64:	00bfffc4 	movi	r2,-1
 1809d68:	e0bffd15 	stw	r2,-12(fp)
 1809d6c:	00000806 	br	1809d90 <close+0xe4>
    }
    return 0;
 1809d70:	e03ffd15 	stw	zero,-12(fp)
 1809d74:	00000606 	br	1809d90 <close+0xe4>
  }
  else
  {
    ALT_ERRNO = EBADFD;
 1809d78:	1809da80 	call	1809da8 <alt_get_errno>
 1809d7c:	1007883a 	mov	r3,r2
 1809d80:	00801444 	movi	r2,81
 1809d84:	18800015 	stw	r2,0(r3)
    return -1;
 1809d88:	00bfffc4 	movi	r2,-1
 1809d8c:	e0bffd15 	stw	r2,-12(fp)
 1809d90:	e0bffd17 	ldw	r2,-12(fp)
  }
}
 1809d94:	e037883a 	mov	sp,fp
 1809d98:	dfc00117 	ldw	ra,4(sp)
 1809d9c:	df000017 	ldw	fp,0(sp)
 1809da0:	dec00204 	addi	sp,sp,8
 1809da4:	f800283a 	ret

01809da8 <alt_get_errno>:
#undef errno

extern int errno;

static ALT_INLINE int* alt_get_errno(void)
{
 1809da8:	defffd04 	addi	sp,sp,-12
 1809dac:	dfc00215 	stw	ra,8(sp)
 1809db0:	df000115 	stw	fp,4(sp)
 1809db4:	df000104 	addi	fp,sp,4
  return ((alt_errno) ? alt_errno() : &errno);
 1809db8:	00806074 	movhi	r2,385
 1809dbc:	108ad504 	addi	r2,r2,11092
 1809dc0:	10800017 	ldw	r2,0(r2)
 1809dc4:	1005003a 	cmpeq	r2,r2,zero
 1809dc8:	1000061e 	bne	r2,zero,1809de4 <alt_get_errno+0x3c>
 1809dcc:	00806074 	movhi	r2,385
 1809dd0:	108ad504 	addi	r2,r2,11092
 1809dd4:	10800017 	ldw	r2,0(r2)
 1809dd8:	103ee83a 	callr	r2
 1809ddc:	e0bfff15 	stw	r2,-4(fp)
 1809de0:	00000306 	br	1809df0 <alt_get_errno+0x48>
 1809de4:	00806074 	movhi	r2,385
 1809de8:	108ae404 	addi	r2,r2,11152
 1809dec:	e0bfff15 	stw	r2,-4(fp)
 1809df0:	e0bfff17 	ldw	r2,-4(fp)
}
 1809df4:	e037883a 	mov	sp,fp
 1809df8:	dfc00117 	ldw	ra,4(sp)
 1809dfc:	df000017 	ldw	fp,0(sp)
 1809e00:	dec00204 	addi	sp,sp,8
 1809e04:	f800283a 	ret

01809e08 <alt_dev_null_write>:
 * by the alt_dev_null device. It simple discards all data passed to it, and
 * indicates that the data has been successfully transmitted.
 */

static int alt_dev_null_write (alt_fd* fd, const char* ptr, int len)
{
 1809e08:	defffc04 	addi	sp,sp,-16
 1809e0c:	df000315 	stw	fp,12(sp)
 1809e10:	df000304 	addi	fp,sp,12
 1809e14:	e13ffd15 	stw	r4,-12(fp)
 1809e18:	e17ffe15 	stw	r5,-8(fp)
 1809e1c:	e1bfff15 	stw	r6,-4(fp)
  return len;
 1809e20:	e0bfff17 	ldw	r2,-4(fp)
}
 1809e24:	e037883a 	mov	sp,fp
 1809e28:	df000017 	ldw	fp,0(sp)
 1809e2c:	dec00104 	addi	sp,sp,4
 1809e30:	f800283a 	ret

01809e34 <fstat>:
}

#else /* !ALT_USE_DIRECT_DRIVERS */

int ALT_FSTAT (int file, struct stat *st)
{
 1809e34:	defff904 	addi	sp,sp,-28
 1809e38:	dfc00615 	stw	ra,24(sp)
 1809e3c:	df000515 	stw	fp,20(sp)
 1809e40:	df000504 	addi	fp,sp,20
 1809e44:	e13ffc15 	stw	r4,-16(fp)
 1809e48:	e17ffd15 	stw	r5,-12(fp)
   * A common error case is that when the file descriptor was created, the call
   * to open() failed resulting in a negative file descriptor. This is trapped
   * below so that we don't try and process an invalid file descriptor.
   */

  fd = (file < 0) ? NULL : &alt_fd_list[file];
 1809e4c:	e0bffc17 	ldw	r2,-16(fp)
 1809e50:	1004803a 	cmplt	r2,r2,zero
 1809e54:	1000081e 	bne	r2,zero,1809e78 <fstat+0x44>
 1809e58:	e0bffc17 	ldw	r2,-16(fp)
 1809e5c:	10800324 	muli	r2,r2,12
 1809e60:	1007883a 	mov	r3,r2
 1809e64:	00806074 	movhi	r2,385
 1809e68:	1085a304 	addi	r2,r2,5772
 1809e6c:	1887883a 	add	r3,r3,r2
 1809e70:	e0ffff15 	stw	r3,-4(fp)
 1809e74:	00000106 	br	1809e7c <fstat+0x48>
 1809e78:	e03fff15 	stw	zero,-4(fp)
 1809e7c:	e0bfff17 	ldw	r2,-4(fp)
 1809e80:	e0bffb15 	stw	r2,-20(fp)
  
  if (fd)
 1809e84:	e0bffb17 	ldw	r2,-20(fp)
 1809e88:	1005003a 	cmpeq	r2,r2,zero
 1809e8c:	1000121e 	bne	r2,zero,1809ed8 <fstat+0xa4>
  {
    /* Call the drivers fstat() function to fill out the "st" structure. */

    if (fd->dev->fstat)
 1809e90:	e0bffb17 	ldw	r2,-20(fp)
 1809e94:	10800017 	ldw	r2,0(r2)
 1809e98:	10800817 	ldw	r2,32(r2)
 1809e9c:	1005003a 	cmpeq	r2,r2,zero
 1809ea0:	1000081e 	bne	r2,zero,1809ec4 <fstat+0x90>
    {
      return fd->dev->fstat(fd, st);
 1809ea4:	e0bffb17 	ldw	r2,-20(fp)
 1809ea8:	10800017 	ldw	r2,0(r2)
 1809eac:	10800817 	ldw	r2,32(r2)
 1809eb0:	e13ffb17 	ldw	r4,-20(fp)
 1809eb4:	e17ffd17 	ldw	r5,-12(fp)
 1809eb8:	103ee83a 	callr	r2
 1809ebc:	e0bffe15 	stw	r2,-8(fp)
 1809ec0:	00000b06 	br	1809ef0 <fstat+0xbc>
     * device.
     */
 
    else
    {
      st->st_mode = _IFCHR;
 1809ec4:	e0fffd17 	ldw	r3,-12(fp)
 1809ec8:	00880004 	movi	r2,8192
 1809ecc:	18800115 	stw	r2,4(r3)
      return 0;
 1809ed0:	e03ffe15 	stw	zero,-8(fp)
 1809ed4:	00000606 	br	1809ef0 <fstat+0xbc>
    }
  }
  else
  {
    ALT_ERRNO = EBADFD;
 1809ed8:	1809f080 	call	1809f08 <alt_get_errno>
 1809edc:	1007883a 	mov	r3,r2
 1809ee0:	00801444 	movi	r2,81
 1809ee4:	18800015 	stw	r2,0(r3)
    return -1;
 1809ee8:	00bfffc4 	movi	r2,-1
 1809eec:	e0bffe15 	stw	r2,-8(fp)
 1809ef0:	e0bffe17 	ldw	r2,-8(fp)
  }
}
 1809ef4:	e037883a 	mov	sp,fp
 1809ef8:	dfc00117 	ldw	ra,4(sp)
 1809efc:	df000017 	ldw	fp,0(sp)
 1809f00:	dec00204 	addi	sp,sp,8
 1809f04:	f800283a 	ret

01809f08 <alt_get_errno>:
#undef errno

extern int errno;

static ALT_INLINE int* alt_get_errno(void)
{
 1809f08:	defffd04 	addi	sp,sp,-12
 1809f0c:	dfc00215 	stw	ra,8(sp)
 1809f10:	df000115 	stw	fp,4(sp)
 1809f14:	df000104 	addi	fp,sp,4
  return ((alt_errno) ? alt_errno() : &errno);
 1809f18:	00806074 	movhi	r2,385
 1809f1c:	108ad504 	addi	r2,r2,11092
 1809f20:	10800017 	ldw	r2,0(r2)
 1809f24:	1005003a 	cmpeq	r2,r2,zero
 1809f28:	1000061e 	bne	r2,zero,1809f44 <alt_get_errno+0x3c>
 1809f2c:	00806074 	movhi	r2,385
 1809f30:	108ad504 	addi	r2,r2,11092
 1809f34:	10800017 	ldw	r2,0(r2)
 1809f38:	103ee83a 	callr	r2
 1809f3c:	e0bfff15 	stw	r2,-4(fp)
 1809f40:	00000306 	br	1809f50 <alt_get_errno+0x48>
 1809f44:	00806074 	movhi	r2,385
 1809f48:	108ae404 	addi	r2,r2,11152
 1809f4c:	e0bfff15 	stw	r2,-4(fp)
 1809f50:	e0bfff17 	ldw	r2,-4(fp)
}
 1809f54:	e037883a 	mov	sp,fp
 1809f58:	dfc00117 	ldw	ra,4(sp)
 1809f5c:	df000017 	ldw	fp,0(sp)
 1809f60:	dec00204 	addi	sp,sp,8
 1809f64:	f800283a 	ret

01809f68 <isatty>:
 *
 * ALT_ISATTY is mapped onto the isatty() system call in alt_syscall.h
 */
 
int ALT_ISATTY (int file)
{
 1809f68:	deffeb04 	addi	sp,sp,-84
 1809f6c:	dfc01415 	stw	ra,80(sp)
 1809f70:	df001315 	stw	fp,76(sp)
 1809f74:	df001304 	addi	fp,sp,76
 1809f78:	e13ffd15 	stw	r4,-12(fp)
   * A common error case is that when the file descriptor was created, the call
   * to open() failed resulting in a negative file descriptor. This is trapped
   * below so that we don't try and process an invalid file descriptor.
   */

  fd = (file < 0) ? NULL : &alt_fd_list[file];
 1809f7c:	e0bffd17 	ldw	r2,-12(fp)
 1809f80:	1004803a 	cmplt	r2,r2,zero
 1809f84:	1000081e 	bne	r2,zero,1809fa8 <isatty+0x40>
 1809f88:	e0bffd17 	ldw	r2,-12(fp)
 1809f8c:	10800324 	muli	r2,r2,12
 1809f90:	1007883a 	mov	r3,r2
 1809f94:	00806074 	movhi	r2,385
 1809f98:	1085a304 	addi	r2,r2,5772
 1809f9c:	1887883a 	add	r3,r3,r2
 1809fa0:	e0ffff15 	stw	r3,-4(fp)
 1809fa4:	00000106 	br	1809fac <isatty+0x44>
 1809fa8:	e03fff15 	stw	zero,-4(fp)
 1809fac:	e0bfff17 	ldw	r2,-4(fp)
 1809fb0:	e0bfed15 	stw	r2,-76(fp)
  
  if (fd)
 1809fb4:	e0bfed17 	ldw	r2,-76(fp)
 1809fb8:	1005003a 	cmpeq	r2,r2,zero
 1809fbc:	10000f1e 	bne	r2,zero,1809ffc <isatty+0x94>
    /*
     * If a device driver does not provide an fstat() function, then it is 
     * treated as a terminal device by default.
     */

    if (!fd->dev->fstat)
 1809fc0:	e0bfed17 	ldw	r2,-76(fp)
 1809fc4:	10800017 	ldw	r2,0(r2)
 1809fc8:	10800817 	ldw	r2,32(r2)
 1809fcc:	1004c03a 	cmpne	r2,r2,zero
 1809fd0:	1000031e 	bne	r2,zero,1809fe0 <isatty+0x78>
    {
      return 1;
 1809fd4:	00800044 	movi	r2,1
 1809fd8:	e0bffe15 	stw	r2,-8(fp)
 1809fdc:	00000c06 	br	180a010 <isatty+0xa8>
     * this is called so that the device can identify itself.
     */ 

    else
    {
      fstat (file, &stat);
 1809fe0:	e17fee04 	addi	r5,fp,-72
 1809fe4:	e13ffd17 	ldw	r4,-12(fp)
 1809fe8:	1809e340 	call	1809e34 <fstat>
      return (stat.st_mode == _IFCHR) ? 1 : 0;
 1809fec:	e0bfef17 	ldw	r2,-68(fp)
 1809ff0:	10880020 	cmpeqi	r2,r2,8192
 1809ff4:	e0bffe15 	stw	r2,-8(fp)
 1809ff8:	00000506 	br	180a010 <isatty+0xa8>
    }
  }
  else
  {
    ALT_ERRNO = EBADFD;
 1809ffc:	180a0280 	call	180a028 <alt_get_errno>
 180a000:	1007883a 	mov	r3,r2
 180a004:	00801444 	movi	r2,81
 180a008:	18800015 	stw	r2,0(r3)
    return 0;
 180a00c:	e03ffe15 	stw	zero,-8(fp)
 180a010:	e0bffe17 	ldw	r2,-8(fp)
  }
}
 180a014:	e037883a 	mov	sp,fp
 180a018:	dfc00117 	ldw	ra,4(sp)
 180a01c:	df000017 	ldw	fp,0(sp)
 180a020:	dec00204 	addi	sp,sp,8
 180a024:	f800283a 	ret

0180a028 <alt_get_errno>:
#undef errno

extern int errno;

static ALT_INLINE int* alt_get_errno(void)
{
 180a028:	defffd04 	addi	sp,sp,-12
 180a02c:	dfc00215 	stw	ra,8(sp)
 180a030:	df000115 	stw	fp,4(sp)
 180a034:	df000104 	addi	fp,sp,4
  return ((alt_errno) ? alt_errno() : &errno);
 180a038:	00806074 	movhi	r2,385
 180a03c:	108ad504 	addi	r2,r2,11092
 180a040:	10800017 	ldw	r2,0(r2)
 180a044:	1005003a 	cmpeq	r2,r2,zero
 180a048:	1000061e 	bne	r2,zero,180a064 <alt_get_errno+0x3c>
 180a04c:	00806074 	movhi	r2,385
 180a050:	108ad504 	addi	r2,r2,11092
 180a054:	10800017 	ldw	r2,0(r2)
 180a058:	103ee83a 	callr	r2
 180a05c:	e0bfff15 	stw	r2,-4(fp)
 180a060:	00000306 	br	180a070 <alt_get_errno+0x48>
 180a064:	00806074 	movhi	r2,385
 180a068:	108ae404 	addi	r2,r2,11152
 180a06c:	e0bfff15 	stw	r2,-4(fp)
 180a070:	e0bfff17 	ldw	r2,-4(fp)
}
 180a074:	e037883a 	mov	sp,fp
 180a078:	dfc00117 	ldw	ra,4(sp)
 180a07c:	df000017 	ldw	fp,0(sp)
 180a080:	dec00204 	addi	sp,sp,8
 180a084:	f800283a 	ret

0180a088 <lseek>:
 * ALT_LSEEK is mapped onto the lseek() system call in alt_syscall.h
 *
 */

off_t ALT_LSEEK (int file, off_t ptr, int dir)
{
 180a088:	defff804 	addi	sp,sp,-32
 180a08c:	dfc00715 	stw	ra,28(sp)
 180a090:	df000615 	stw	fp,24(sp)
 180a094:	df000604 	addi	fp,sp,24
 180a098:	e13ffc15 	stw	r4,-16(fp)
 180a09c:	e17ffd15 	stw	r5,-12(fp)
 180a0a0:	e1bffe15 	stw	r6,-8(fp)
  alt_fd* fd;
  off_t   rc = 0; 
 180a0a4:	e03ffa15 	stw	zero,-24(fp)
   * A common error case is that when the file descriptor was created, the call
   * to open() failed resulting in a negative file descriptor. This is trapped
   * below so that we don't try and process an invalid file descriptor.
   */

  fd = (file < 0) ? NULL : &alt_fd_list[file];
 180a0a8:	e0bffc17 	ldw	r2,-16(fp)
 180a0ac:	1004803a 	cmplt	r2,r2,zero
 180a0b0:	1000081e 	bne	r2,zero,180a0d4 <lseek+0x4c>
 180a0b4:	e0bffc17 	ldw	r2,-16(fp)
 180a0b8:	10800324 	muli	r2,r2,12
 180a0bc:	1007883a 	mov	r3,r2
 180a0c0:	00806074 	movhi	r2,385
 180a0c4:	1085a304 	addi	r2,r2,5772
 180a0c8:	1887883a 	add	r3,r3,r2
 180a0cc:	e0ffff15 	stw	r3,-4(fp)
 180a0d0:	00000106 	br	180a0d8 <lseek+0x50>
 180a0d4:	e03fff15 	stw	zero,-4(fp)
 180a0d8:	e0bfff17 	ldw	r2,-4(fp)
 180a0dc:	e0bffb15 	stw	r2,-20(fp)
  
  if (fd) 
 180a0e0:	e0bffb17 	ldw	r2,-20(fp)
 180a0e4:	1005003a 	cmpeq	r2,r2,zero
 180a0e8:	1000111e 	bne	r2,zero,180a130 <lseek+0xa8>
    /*
     * If the device driver provides an implementation of the lseek() function,
     * then call that to process the request.
     */
 
    if (fd->dev->lseek)
 180a0ec:	e0bffb17 	ldw	r2,-20(fp)
 180a0f0:	10800017 	ldw	r2,0(r2)
 180a0f4:	10800717 	ldw	r2,28(r2)
 180a0f8:	1005003a 	cmpeq	r2,r2,zero
 180a0fc:	1000091e 	bne	r2,zero,180a124 <lseek+0x9c>
    {
      rc = fd->dev->lseek(fd, ptr, dir);
 180a100:	e0bffb17 	ldw	r2,-20(fp)
 180a104:	10800017 	ldw	r2,0(r2)
 180a108:	10800717 	ldw	r2,28(r2)
 180a10c:	e13ffb17 	ldw	r4,-20(fp)
 180a110:	e17ffd17 	ldw	r5,-12(fp)
 180a114:	e1bffe17 	ldw	r6,-8(fp)
 180a118:	103ee83a 	callr	r2
 180a11c:	e0bffa15 	stw	r2,-24(fp)
 180a120:	00000506 	br	180a138 <lseek+0xb0>
     * Otherwise return an error.
     */

    else
    {
      rc = -ENOTSUP;
 180a124:	00bfde84 	movi	r2,-134
 180a128:	e0bffa15 	stw	r2,-24(fp)
 180a12c:	00000206 	br	180a138 <lseek+0xb0>
    }
  }
  else  
  {
    rc = -EBADFD;
 180a130:	00bfebc4 	movi	r2,-81
 180a134:	e0bffa15 	stw	r2,-24(fp)
  }

  if (rc < 0)
 180a138:	e0bffa17 	ldw	r2,-24(fp)
 180a13c:	1004403a 	cmpge	r2,r2,zero
 180a140:	1000071e 	bne	r2,zero,180a160 <lseek+0xd8>
  {
    ALT_ERRNO = -rc;
 180a144:	180a1780 	call	180a178 <alt_get_errno>
 180a148:	1007883a 	mov	r3,r2
 180a14c:	e0bffa17 	ldw	r2,-24(fp)
 180a150:	0085c83a 	sub	r2,zero,r2
 180a154:	18800015 	stw	r2,0(r3)
    rc = -1;
 180a158:	00bfffc4 	movi	r2,-1
 180a15c:	e0bffa15 	stw	r2,-24(fp)
  }

  return rc;
 180a160:	e0bffa17 	ldw	r2,-24(fp)
}
 180a164:	e037883a 	mov	sp,fp
 180a168:	dfc00117 	ldw	ra,4(sp)
 180a16c:	df000017 	ldw	fp,0(sp)
 180a170:	dec00204 	addi	sp,sp,8
 180a174:	f800283a 	ret

0180a178 <alt_get_errno>:
#undef errno

extern int errno;

static ALT_INLINE int* alt_get_errno(void)
{
 180a178:	defffd04 	addi	sp,sp,-12
 180a17c:	dfc00215 	stw	ra,8(sp)
 180a180:	df000115 	stw	fp,4(sp)
 180a184:	df000104 	addi	fp,sp,4
  return ((alt_errno) ? alt_errno() : &errno);
 180a188:	00806074 	movhi	r2,385
 180a18c:	108ad504 	addi	r2,r2,11092
 180a190:	10800017 	ldw	r2,0(r2)
 180a194:	1005003a 	cmpeq	r2,r2,zero
 180a198:	1000061e 	bne	r2,zero,180a1b4 <alt_get_errno+0x3c>
 180a19c:	00806074 	movhi	r2,385
 180a1a0:	108ad504 	addi	r2,r2,11092
 180a1a4:	10800017 	ldw	r2,0(r2)
 180a1a8:	103ee83a 	callr	r2
 180a1ac:	e0bfff15 	stw	r2,-4(fp)
 180a1b0:	00000306 	br	180a1c0 <alt_get_errno+0x48>
 180a1b4:	00806074 	movhi	r2,385
 180a1b8:	108ae404 	addi	r2,r2,11152
 180a1bc:	e0bfff15 	stw	r2,-4(fp)
 180a1c0:	e0bfff17 	ldw	r2,-4(fp)
}
 180a1c4:	e037883a 	mov	sp,fp
 180a1c8:	dfc00117 	ldw	ra,4(sp)
 180a1cc:	df000017 	ldw	fp,0(sp)
 180a1d0:	dec00204 	addi	sp,sp,8
 180a1d4:	f800283a 	ret

0180a1d8 <alt_main>:
 * devices/filesystems/components in the system; and call the entry point for
 * the users application, i.e. main().
 */

void alt_main (void)
{
 180a1d8:	defffd04 	addi	sp,sp,-12
 180a1dc:	dfc00215 	stw	ra,8(sp)
 180a1e0:	df000115 	stw	fp,4(sp)
 180a1e4:	df000104 	addi	fp,sp,4
#endif

  /* ALT LOG - please see HAL/sys/alt_log_printf.h for details */
  ALT_LOG_PRINT_BOOT("[alt_main.c] Entering alt_main, calling alt_irq_init.\r\n");
  /* Initialize the interrupt controller. */
  alt_irq_init (NULL);
 180a1e8:	0009883a 	mov	r4,zero
 180a1ec:	180a6d00 	call	180a6d0 <alt_irq_init>
  ALT_LOG_PRINT_BOOT("[alt_main.c] Done OS Init, calling alt_sem_create.\r\n");
  ALT_SEM_CREATE (&alt_fd_list_lock, 1);

  /* Initialize the device drivers/software components. */
  ALT_LOG_PRINT_BOOT("[alt_main.c] Calling alt_sys_init.\r\n");
  alt_sys_init();
 180a1f0:	180a7040 	call	180a704 <alt_sys_init>
   * devices be present (not equal to /dev/null) and if direct drivers
   * aren't being used.
   */

    ALT_LOG_PRINT_BOOT("[alt_main.c] Redirecting IO.\r\n");
    alt_io_redirect(ALT_STDOUT, ALT_STDIN, ALT_STDERR);
 180a1f4:	01006074 	movhi	r4,385
 180a1f8:	2102e104 	addi	r4,r4,2948
 180a1fc:	01406074 	movhi	r5,385
 180a200:	2942e104 	addi	r5,r5,2948
 180a204:	01806074 	movhi	r6,385
 180a208:	3182e104 	addi	r6,r6,2948
 180a20c:	180f2c00 	call	180f2c0 <alt_io_redirect>
  /* 
   * Call the C++ constructors 
   */

  ALT_LOG_PRINT_BOOT("[alt_main.c] Calling C++ constructors.\r\n");
  _do_ctors ();
 180a210:	180ed980 	call	180ed98 <_do_ctors>
   * redefined as _exit()). This is in the interest of reducing code footprint,
   * in that the atexit() overhead is removed when it's not needed.
   */

  ALT_LOG_PRINT_BOOT("[alt_main.c] Calling atexit.\r\n");
  atexit (_do_dtors);
 180a214:	01006074 	movhi	r4,385
 180a218:	213b7f04 	addi	r4,r4,-4612
 180a21c:	18103c80 	call	18103c8 <atexit>
  ALT_LOG_PRINT_BOOT("[alt_main.c] Calling main.\r\n");

#ifdef ALT_NO_EXIT
  main (alt_argc, alt_argv, alt_envp);
#else
  result = main (alt_argc, alt_argv, alt_envp);
 180a220:	d1201b17 	ldw	r4,-32660(gp)
 180a224:	d1601c17 	ldw	r5,-32656(gp)
 180a228:	d1a01d17 	ldw	r6,-32652(gp)
 180a22c:	18000480 	call	1800048 <main>
 180a230:	e0bfff15 	stw	r2,-4(fp)
  close(STDOUT_FILENO);
 180a234:	01000044 	movi	r4,1
 180a238:	1809cac0 	call	1809cac <close>
  exit (result);
 180a23c:	e13fff17 	ldw	r4,-4(fp)
 180a240:	18103dc0 	call	18103dc <exit>

0180a244 <__malloc_lock>:
 * configuration is single threaded, so there is nothing to do here. Note that 
 * this requires that malloc is never called by an interrupt service routine.
 */

void __malloc_lock ( struct _reent *_r )
{
 180a244:	defffe04 	addi	sp,sp,-8
 180a248:	df000115 	stw	fp,4(sp)
 180a24c:	df000104 	addi	fp,sp,4
 180a250:	e13fff15 	stw	r4,-4(fp)
}
 180a254:	e037883a 	mov	sp,fp
 180a258:	df000017 	ldw	fp,0(sp)
 180a25c:	dec00104 	addi	sp,sp,4
 180a260:	f800283a 	ret

0180a264 <__malloc_unlock>:
/*
 *
 */

void __malloc_unlock ( struct _reent *_r )
{
 180a264:	defffe04 	addi	sp,sp,-8
 180a268:	df000115 	stw	fp,4(sp)
 180a26c:	df000104 	addi	fp,sp,4
 180a270:	e13fff15 	stw	r4,-4(fp)
}
 180a274:	e037883a 	mov	sp,fp
 180a278:	df000017 	ldw	fp,0(sp)
 180a27c:	dec00104 	addi	sp,sp,4
 180a280:	f800283a 	ret

0180a284 <read>:
}

#else /* !ALT_USE_DIRECT_DRIVERS */

int ALT_READ (int file, void *ptr, size_t len)
{
 180a284:	defff704 	addi	sp,sp,-36
 180a288:	dfc00815 	stw	ra,32(sp)
 180a28c:	df000715 	stw	fp,28(sp)
 180a290:	df000704 	addi	fp,sp,28
 180a294:	e13ffb15 	stw	r4,-20(fp)
 180a298:	e17ffc15 	stw	r5,-16(fp)
 180a29c:	e1bffd15 	stw	r6,-12(fp)
   * A common error case is that when the file descriptor was created, the call
   * to open() failed resulting in a negative file descriptor. This is trapped
   * below so that we don't try and process an invalid file descriptor.
   */

  fd = (file < 0) ? NULL : &alt_fd_list[file];
 180a2a0:	e0bffb17 	ldw	r2,-20(fp)
 180a2a4:	1004803a 	cmplt	r2,r2,zero
 180a2a8:	1000081e 	bne	r2,zero,180a2cc <read+0x48>
 180a2ac:	e0bffb17 	ldw	r2,-20(fp)
 180a2b0:	10800324 	muli	r2,r2,12
 180a2b4:	1007883a 	mov	r3,r2
 180a2b8:	00806074 	movhi	r2,385
 180a2bc:	1085a304 	addi	r2,r2,5772
 180a2c0:	1887883a 	add	r3,r3,r2
 180a2c4:	e0ffff15 	stw	r3,-4(fp)
 180a2c8:	00000106 	br	180a2d0 <read+0x4c>
 180a2cc:	e03fff15 	stw	zero,-4(fp)
 180a2d0:	e0bfff17 	ldw	r2,-4(fp)
 180a2d4:	e0bffa15 	stw	r2,-24(fp)
  
  if (fd)
 180a2d8:	e0bffa17 	ldw	r2,-24(fp)
 180a2dc:	1005003a 	cmpeq	r2,r2,zero
 180a2e0:	1000241e 	bne	r2,zero,180a374 <read+0xf0>
     * If the file has not been opened with read access, or if the driver does
     * not provide an implementation of read(), generate an error. Otherwise
     * call the drivers read() function to process the request.
     */

    if (((fd->fd_flags & O_ACCMODE) != O_WRONLY) && 
 180a2e4:	e0bffa17 	ldw	r2,-24(fp)
 180a2e8:	10800217 	ldw	r2,8(r2)
 180a2ec:	108000cc 	andi	r2,r2,3
 180a2f0:	10800060 	cmpeqi	r2,r2,1
 180a2f4:	10001a1e 	bne	r2,zero,180a360 <read+0xdc>
 180a2f8:	e0bffa17 	ldw	r2,-24(fp)
 180a2fc:	10800017 	ldw	r2,0(r2)
 180a300:	10800517 	ldw	r2,20(r2)
 180a304:	1005003a 	cmpeq	r2,r2,zero
 180a308:	1000151e 	bne	r2,zero,180a360 <read+0xdc>
        (fd->dev->read))
      {
        if ((rval = fd->dev->read(fd, ptr, len)) < 0)
 180a30c:	e0bffa17 	ldw	r2,-24(fp)
 180a310:	10800017 	ldw	r2,0(r2)
 180a314:	10800517 	ldw	r2,20(r2)
 180a318:	e17ffc17 	ldw	r5,-16(fp)
 180a31c:	e1bffd17 	ldw	r6,-12(fp)
 180a320:	e13ffa17 	ldw	r4,-24(fp)
 180a324:	103ee83a 	callr	r2
 180a328:	e0bff915 	stw	r2,-28(fp)
 180a32c:	e0bff917 	ldw	r2,-28(fp)
 180a330:	1004403a 	cmpge	r2,r2,zero
 180a334:	1000071e 	bne	r2,zero,180a354 <read+0xd0>
        {
          ALT_ERRNO = -rval;
 180a338:	180a3a40 	call	180a3a4 <alt_get_errno>
 180a33c:	e0fff917 	ldw	r3,-28(fp)
 180a340:	00c7c83a 	sub	r3,zero,r3
 180a344:	10c00015 	stw	r3,0(r2)
          return -1;
 180a348:	00bfffc4 	movi	r2,-1
 180a34c:	e0bffe15 	stw	r2,-8(fp)
 180a350:	00000e06 	br	180a38c <read+0x108>
        }
        return rval;
 180a354:	e0bff917 	ldw	r2,-28(fp)
 180a358:	e0bffe15 	stw	r2,-8(fp)
 180a35c:	00000b06 	br	180a38c <read+0x108>
      }
      else
      {
        ALT_ERRNO = EACCES;
 180a360:	180a3a40 	call	180a3a4 <alt_get_errno>
 180a364:	1007883a 	mov	r3,r2
 180a368:	00800344 	movi	r2,13
 180a36c:	18800015 	stw	r2,0(r3)
 180a370:	00000406 	br	180a384 <read+0x100>
      }
    }
  else
  {
    ALT_ERRNO = EBADFD;
 180a374:	180a3a40 	call	180a3a4 <alt_get_errno>
 180a378:	1007883a 	mov	r3,r2
 180a37c:	00801444 	movi	r2,81
 180a380:	18800015 	stw	r2,0(r3)
  }
  return -1;
 180a384:	00bfffc4 	movi	r2,-1
 180a388:	e0bffe15 	stw	r2,-8(fp)
 180a38c:	e0bffe17 	ldw	r2,-8(fp)
}
 180a390:	e037883a 	mov	sp,fp
 180a394:	dfc00117 	ldw	ra,4(sp)
 180a398:	df000017 	ldw	fp,0(sp)
 180a39c:	dec00204 	addi	sp,sp,8
 180a3a0:	f800283a 	ret

0180a3a4 <alt_get_errno>:
#undef errno

extern int errno;

static ALT_INLINE int* alt_get_errno(void)
{
 180a3a4:	defffd04 	addi	sp,sp,-12
 180a3a8:	dfc00215 	stw	ra,8(sp)
 180a3ac:	df000115 	stw	fp,4(sp)
 180a3b0:	df000104 	addi	fp,sp,4
  return ((alt_errno) ? alt_errno() : &errno);
 180a3b4:	00806074 	movhi	r2,385
 180a3b8:	108ad504 	addi	r2,r2,11092
 180a3bc:	10800017 	ldw	r2,0(r2)
 180a3c0:	1005003a 	cmpeq	r2,r2,zero
 180a3c4:	1000061e 	bne	r2,zero,180a3e0 <alt_get_errno+0x3c>
 180a3c8:	00806074 	movhi	r2,385
 180a3cc:	108ad504 	addi	r2,r2,11092
 180a3d0:	10800017 	ldw	r2,0(r2)
 180a3d4:	103ee83a 	callr	r2
 180a3d8:	e0bfff15 	stw	r2,-4(fp)
 180a3dc:	00000306 	br	180a3ec <alt_get_errno+0x48>
 180a3e0:	00806074 	movhi	r2,385
 180a3e4:	108ae404 	addi	r2,r2,11152
 180a3e8:	e0bfff15 	stw	r2,-4(fp)
 180a3ec:	e0bfff17 	ldw	r2,-4(fp)
}
 180a3f0:	e037883a 	mov	sp,fp
 180a3f4:	dfc00117 	ldw	ra,4(sp)
 180a3f8:	df000017 	ldw	fp,0(sp)
 180a3fc:	dec00204 	addi	sp,sp,8
 180a400:	f800283a 	ret

0180a404 <alt_release_fd>:
 * File descriptors correcponding to standard in, standard out and standard 
 * error cannont be released backed to the pool. They are always reserved.
 */

void alt_release_fd (int fd)
{
 180a404:	defffe04 	addi	sp,sp,-8
 180a408:	df000115 	stw	fp,4(sp)
 180a40c:	df000104 	addi	fp,sp,4
 180a410:	e13fff15 	stw	r4,-4(fp)
  if (fd > 2)
 180a414:	e0bfff17 	ldw	r2,-4(fp)
 180a418:	108000d0 	cmplti	r2,r2,3
 180a41c:	10000d1e 	bne	r2,zero,180a454 <alt_release_fd+0x50>
  {
    alt_fd_list[fd].fd_flags = 0;
 180a420:	e0bfff17 	ldw	r2,-4(fp)
 180a424:	00c06074 	movhi	r3,385
 180a428:	18c5a304 	addi	r3,r3,5772
 180a42c:	10800324 	muli	r2,r2,12
 180a430:	10c5883a 	add	r2,r2,r3
 180a434:	10800204 	addi	r2,r2,8
 180a438:	10000015 	stw	zero,0(r2)
    alt_fd_list[fd].dev      = 0;
 180a43c:	e0bfff17 	ldw	r2,-4(fp)
 180a440:	00c06074 	movhi	r3,385
 180a444:	18c5a304 	addi	r3,r3,5772
 180a448:	10800324 	muli	r2,r2,12
 180a44c:	10c5883a 	add	r2,r2,r3
 180a450:	10000015 	stw	zero,0(r2)
  }
}
 180a454:	e037883a 	mov	sp,fp
 180a458:	df000017 	ldw	fp,0(sp)
 180a45c:	dec00104 	addi	sp,sp,4
 180a460:	f800283a 	ret

0180a464 <sbrk>:
#endif
 
caddr_t ALT_SBRK (int incr) __attribute__ ((no_instrument_function ));

caddr_t ALT_SBRK (int incr)
{ 
 180a464:	defff804 	addi	sp,sp,-32
 180a468:	df000715 	stw	fp,28(sp)
 180a46c:	df000704 	addi	fp,sp,28
 180a470:	e13ffe15 	stw	r4,-8(fp)
static ALT_INLINE alt_irq_context ALT_ALWAYS_INLINE 
       alt_irq_disable_all (void)
{
  alt_irq_context context;

  NIOS2_READ_STATUS (context);
 180a474:	0005303a 	rdctl	r2,status
 180a478:	e0bffb15 	stw	r2,-20(fp)

  NIOS2_WRITE_STATUS (context & ~NIOS2_STATUS_PIE_MSK);
 180a47c:	e0fffb17 	ldw	r3,-20(fp)
 180a480:	00bfff84 	movi	r2,-2
 180a484:	1884703a 	and	r2,r3,r2
 180a488:	1001703a 	wrctl	status,r2
  
  return context;
 180a48c:	e0bffb17 	ldw	r2,-20(fp)
  alt_irq_context context;
  char *prev_heap_end; 

  context = alt_irq_disable_all();
 180a490:	e0bffd15 	stw	r2,-12(fp)

  /* Always return data aligned on a word boundary */
  heap_end = (char *)(((unsigned int)heap_end + 3) & ~3);
 180a494:	d0a00c17 	ldw	r2,-32720(gp)
 180a498:	10c000c4 	addi	r3,r2,3
 180a49c:	00bfff04 	movi	r2,-4
 180a4a0:	1884703a 	and	r2,r3,r2
 180a4a4:	d0a00c15 	stw	r2,-32720(gp)
  if (((heap_end + incr) - __alt_heap_start) > ALT_MAX_HEAP_BYTES) {
    alt_irq_enable_all(context);
    return (caddr_t)-1;
  }
#else
  if ((heap_end + incr) > __alt_heap_limit) {
 180a4a8:	d0e00c17 	ldw	r3,-32720(gp)
 180a4ac:	e0bffe17 	ldw	r2,-8(fp)
 180a4b0:	1887883a 	add	r3,r3,r2
 180a4b4:	00808034 	movhi	r2,512
 180a4b8:	10800004 	addi	r2,r2,0
 180a4bc:	10c0072e 	bgeu	r2,r3,180a4dc <sbrk+0x78>
 180a4c0:	e0bffd17 	ldw	r2,-12(fp)
 180a4c4:	e0bffa15 	stw	r2,-24(fp)
  status &= ~NIOS2_STATUS_PIE_MSK;
  status |= (context & NIOS2_STATUS_PIE_MSK);
  
  NIOS2_WRITE_STATUS (status);
#else
  NIOS2_WRITE_STATUS (context);
 180a4c8:	e0bffa17 	ldw	r2,-24(fp)
 180a4cc:	1001703a 	wrctl	status,r2
    alt_irq_enable_all(context);
    return (caddr_t)-1;
 180a4d0:	00bfffc4 	movi	r2,-1
 180a4d4:	e0bfff15 	stw	r2,-4(fp)
 180a4d8:	00000c06 	br	180a50c <sbrk+0xa8>
  }
#endif

  prev_heap_end = heap_end; 
 180a4dc:	d0a00c17 	ldw	r2,-32720(gp)
 180a4e0:	e0bffc15 	stw	r2,-16(fp)
  heap_end += incr; 
 180a4e4:	d0e00c17 	ldw	r3,-32720(gp)
 180a4e8:	e0bffe17 	ldw	r2,-8(fp)
 180a4ec:	1885883a 	add	r2,r3,r2
 180a4f0:	d0a00c15 	stw	r2,-32720(gp)
 180a4f4:	e0bffd17 	ldw	r2,-12(fp)
 180a4f8:	e0bff915 	stw	r2,-28(fp)
 180a4fc:	e0bff917 	ldw	r2,-28(fp)
 180a500:	1001703a 	wrctl	status,r2

#endif

  alt_irq_enable_all(context);

  return (caddr_t) prev_heap_end; 
 180a504:	e0bffc17 	ldw	r2,-16(fp)
 180a508:	e0bfff15 	stw	r2,-4(fp)
 180a50c:	e0bfff17 	ldw	r2,-4(fp)
} 
 180a510:	e037883a 	mov	sp,fp
 180a514:	df000017 	ldw	fp,0(sp)
 180a518:	dec00104 	addi	sp,sp,4
 180a51c:	f800283a 	ret

0180a520 <usleep>:
#if defined (__GNUC__) && __GNUC__ >= 4
int ALT_USLEEP (useconds_t us)
#else
unsigned int ALT_USLEEP (unsigned int us)
#endif
{
 180a520:	defffd04 	addi	sp,sp,-12
 180a524:	dfc00215 	stw	ra,8(sp)
 180a528:	df000115 	stw	fp,4(sp)
 180a52c:	df000104 	addi	fp,sp,4
 180a530:	e13fff15 	stw	r4,-4(fp)
  return alt_busy_sleep(us);
 180a534:	e13fff17 	ldw	r4,-4(fp)
 180a538:	180eae00 	call	180eae0 <alt_busy_sleep>
}
 180a53c:	e037883a 	mov	sp,fp
 180a540:	dfc00117 	ldw	ra,4(sp)
 180a544:	df000017 	ldw	fp,0(sp)
 180a548:	dec00204 	addi	sp,sp,8
 180a54c:	f800283a 	ret

0180a550 <write>:
}

#else /* !ALT_USE_DIRECT_DRIVERS */

int ALT_WRITE (int file, const void *ptr, size_t len)
{
 180a550:	defff704 	addi	sp,sp,-36
 180a554:	dfc00815 	stw	ra,32(sp)
 180a558:	df000715 	stw	fp,28(sp)
 180a55c:	df000704 	addi	fp,sp,28
 180a560:	e13ffb15 	stw	r4,-20(fp)
 180a564:	e17ffc15 	stw	r5,-16(fp)
 180a568:	e1bffd15 	stw	r6,-12(fp)
   * A common error case is that when the file descriptor was created, the call
   * to open() failed resulting in a negative file descriptor. This is trapped
   * below so that we don't try and process an invalid file descriptor.
   */

  fd = (file < 0) ? NULL : &alt_fd_list[file];
 180a56c:	e0bffb17 	ldw	r2,-20(fp)
 180a570:	1004803a 	cmplt	r2,r2,zero
 180a574:	1000081e 	bne	r2,zero,180a598 <write+0x48>
 180a578:	e0bffb17 	ldw	r2,-20(fp)
 180a57c:	10800324 	muli	r2,r2,12
 180a580:	1007883a 	mov	r3,r2
 180a584:	00806074 	movhi	r2,385
 180a588:	1085a304 	addi	r2,r2,5772
 180a58c:	1887883a 	add	r3,r3,r2
 180a590:	e0ffff15 	stw	r3,-4(fp)
 180a594:	00000106 	br	180a59c <write+0x4c>
 180a598:	e03fff15 	stw	zero,-4(fp)
 180a59c:	e0bfff17 	ldw	r2,-4(fp)
 180a5a0:	e0bffa15 	stw	r2,-24(fp)
  
  if (fd)
 180a5a4:	e0bffa17 	ldw	r2,-24(fp)
 180a5a8:	1005003a 	cmpeq	r2,r2,zero
 180a5ac:	1000241e 	bne	r2,zero,180a640 <write+0xf0>
     * If the file has not been opened with write access, or if the driver does
     * not provide an implementation of write(), generate an error. Otherwise
     * call the drivers write() function to process the request.
     */

    if (((fd->fd_flags & O_ACCMODE) != O_RDONLY) && fd->dev->write)
 180a5b0:	e0bffa17 	ldw	r2,-24(fp)
 180a5b4:	10800217 	ldw	r2,8(r2)
 180a5b8:	108000cc 	andi	r2,r2,3
 180a5bc:	1005003a 	cmpeq	r2,r2,zero
 180a5c0:	10001a1e 	bne	r2,zero,180a62c <write+0xdc>
 180a5c4:	e0bffa17 	ldw	r2,-24(fp)
 180a5c8:	10800017 	ldw	r2,0(r2)
 180a5cc:	10800617 	ldw	r2,24(r2)
 180a5d0:	1005003a 	cmpeq	r2,r2,zero
 180a5d4:	1000151e 	bne	r2,zero,180a62c <write+0xdc>
    {
      
      /* ALT_LOG - see altera_hal/HAL/inc/sys/alt_log_printf.h */
      ALT_LOG_WRITE_FUNCTION(ptr,len);

      if ((rval = fd->dev->write(fd, ptr, len)) < 0)
 180a5d8:	e0bffa17 	ldw	r2,-24(fp)
 180a5dc:	10800017 	ldw	r2,0(r2)
 180a5e0:	10800617 	ldw	r2,24(r2)
 180a5e4:	e17ffc17 	ldw	r5,-16(fp)
 180a5e8:	e1bffd17 	ldw	r6,-12(fp)
 180a5ec:	e13ffa17 	ldw	r4,-24(fp)
 180a5f0:	103ee83a 	callr	r2
 180a5f4:	e0bff915 	stw	r2,-28(fp)
 180a5f8:	e0bff917 	ldw	r2,-28(fp)
 180a5fc:	1004403a 	cmpge	r2,r2,zero
 180a600:	1000071e 	bne	r2,zero,180a620 <write+0xd0>
      {
        ALT_ERRNO = -rval;
 180a604:	180a6700 	call	180a670 <alt_get_errno>
 180a608:	e0fff917 	ldw	r3,-28(fp)
 180a60c:	00c7c83a 	sub	r3,zero,r3
 180a610:	10c00015 	stw	r3,0(r2)
        return -1;
 180a614:	00bfffc4 	movi	r2,-1
 180a618:	e0bffe15 	stw	r2,-8(fp)
 180a61c:	00000e06 	br	180a658 <write+0x108>
      }
      return rval;
 180a620:	e0bff917 	ldw	r2,-28(fp)
 180a624:	e0bffe15 	stw	r2,-8(fp)
 180a628:	00000b06 	br	180a658 <write+0x108>
    }
    else
    {
      ALT_ERRNO = EACCES;
 180a62c:	180a6700 	call	180a670 <alt_get_errno>
 180a630:	1007883a 	mov	r3,r2
 180a634:	00800344 	movi	r2,13
 180a638:	18800015 	stw	r2,0(r3)
 180a63c:	00000406 	br	180a650 <write+0x100>
    }
  }
  else  
  {
    ALT_ERRNO = EBADFD;
 180a640:	180a6700 	call	180a670 <alt_get_errno>
 180a644:	1007883a 	mov	r3,r2
 180a648:	00801444 	movi	r2,81
 180a64c:	18800015 	stw	r2,0(r3)
  }
  return -1;
 180a650:	00bfffc4 	movi	r2,-1
 180a654:	e0bffe15 	stw	r2,-8(fp)
 180a658:	e0bffe17 	ldw	r2,-8(fp)
}
 180a65c:	e037883a 	mov	sp,fp
 180a660:	dfc00117 	ldw	ra,4(sp)
 180a664:	df000017 	ldw	fp,0(sp)
 180a668:	dec00204 	addi	sp,sp,8
 180a66c:	f800283a 	ret

0180a670 <alt_get_errno>:
#undef errno

extern int errno;

static ALT_INLINE int* alt_get_errno(void)
{
 180a670:	defffd04 	addi	sp,sp,-12
 180a674:	dfc00215 	stw	ra,8(sp)
 180a678:	df000115 	stw	fp,4(sp)
 180a67c:	df000104 	addi	fp,sp,4
  return ((alt_errno) ? alt_errno() : &errno);
 180a680:	00806074 	movhi	r2,385
 180a684:	108ad504 	addi	r2,r2,11092
 180a688:	10800017 	ldw	r2,0(r2)
 180a68c:	1005003a 	cmpeq	r2,r2,zero
 180a690:	1000061e 	bne	r2,zero,180a6ac <alt_get_errno+0x3c>
 180a694:	00806074 	movhi	r2,385
 180a698:	108ad504 	addi	r2,r2,11092
 180a69c:	10800017 	ldw	r2,0(r2)
 180a6a0:	103ee83a 	callr	r2
 180a6a4:	e0bfff15 	stw	r2,-4(fp)
 180a6a8:	00000306 	br	180a6b8 <alt_get_errno+0x48>
 180a6ac:	00806074 	movhi	r2,385
 180a6b0:	108ae404 	addi	r2,r2,11152
 180a6b4:	e0bfff15 	stw	r2,-4(fp)
 180a6b8:	e0bfff17 	ldw	r2,-4(fp)
}
 180a6bc:	e037883a 	mov	sp,fp
 180a6c0:	dfc00117 	ldw	ra,4(sp)
 180a6c4:	df000017 	ldw	fp,0(sp)
 180a6c8:	dec00204 	addi	sp,sp,8
 180a6cc:	f800283a 	ret

0180a6d0 <alt_irq_init>:
 * The "base" parameter is ignored and only
 * present for backwards-compatibility.
 */

void alt_irq_init ( const void* base )
{
 180a6d0:	defffd04 	addi	sp,sp,-12
 180a6d4:	dfc00215 	stw	ra,8(sp)
 180a6d8:	df000115 	stw	fp,4(sp)
 180a6dc:	df000104 	addi	fp,sp,4
 180a6e0:	e13fff15 	stw	r4,-4(fp)
    ALTERA_NIOS2_IRQ_INIT ( CPU, cpu);
 180a6e4:	180f7a00 	call	180f7a0 <altera_nios2_irq_init>
 * alt_irq_cpu_enable_interrupts() enables the CPU to start taking interrupts.
 */
static ALT_INLINE void ALT_ALWAYS_INLINE 
       alt_irq_cpu_enable_interrupts ()
{
    NIOS2_WRITE_STATUS(NIOS2_STATUS_PIE_MSK
 180a6e8:	00800044 	movi	r2,1
 180a6ec:	1001703a 	wrctl	status,r2
    alt_irq_cpu_enable_interrupts();
}
 180a6f0:	e037883a 	mov	sp,fp
 180a6f4:	dfc00117 	ldw	ra,4(sp)
 180a6f8:	df000017 	ldw	fp,0(sp)
 180a6fc:	dec00204 	addi	sp,sp,8
 180a700:	f800283a 	ret

0180a704 <alt_sys_init>:
 * Initialize the non-interrupt controller devices.
 * Called after alt_irq_init().
 */

void alt_sys_init( void )
{
 180a704:	defffe04 	addi	sp,sp,-8
 180a708:	dfc00115 	stw	ra,4(sp)
 180a70c:	df000015 	stw	fp,0(sp)
 180a710:	d839883a 	mov	fp,sp
    ALTERA_AVALON_TIMER_INIT ( PROFILE_TIMER, profile_timer);
 180a714:	0009883a 	mov	r4,zero
 180a718:	000b883a 	mov	r5,zero
 180a71c:	01800144 	movi	r6,5
 180a720:	01d38804 	movi	r7,20000
 180a724:	180df4c0 	call	180df4c <alt_avalon_timer_sc_init>
    ALTERA_AVALON_TIMER_INIT ( TIMER, timer);
    ALTERA_AVALON_TIMER_INIT ( USER_TIMER, user_timer);
    ALTERA_AVALON_CFI_FLASH_INIT ( CFI_FLASH, cfi_flash);
 180a728:	01006074 	movhi	r4,385
 180a72c:	21060304 	addi	r4,r4,6156
 180a730:	180a7d80 	call	180a7d8 <alt_flash_cfi_init>
    ALTERA_AVALON_JTAG_UART_INIT ( JTAG_UART, jtag_uart);
 180a734:	01006074 	movhi	r4,385
 180a738:	21064304 	addi	r4,r4,6412
 180a73c:	000b883a 	mov	r5,zero
 180a740:	000d883a 	mov	r6,zero
 180a744:	180c6400 	call	180c640 <altera_avalon_jtag_uart_init>
 180a748:	01006074 	movhi	r4,385
 180a74c:	21063904 	addi	r4,r4,6372
 180a750:	180a7a00 	call	180a7a0 <alt_dev_reg>
    ALTERA_AVALON_LCD_16207_INIT ( LCD, lcd);
 180a754:	01006074 	movhi	r4,385
 180a758:	210a5b04 	addi	r4,r4,10604
 180a75c:	180dd480 	call	180dd48 <altera_avalon_lcd_16207_init>
 180a760:	01006074 	movhi	r4,385
 180a764:	210a5104 	addi	r4,r4,10564
 180a768:	180a7a00 	call	180a7a0 <alt_dev_reg>
    ALTERA_AVALON_SYSID_INIT ( SYSID, sysid);
    ALTERA_AVALON_UART_INIT ( UART, uart);
 180a76c:	01006074 	movhi	r4,385
 180a770:	210aa304 	addi	r4,r4,10892
 180a774:	000b883a 	mov	r5,zero
 180a778:	01800044 	movi	r6,1
 180a77c:	180e0d40 	call	180e0d4 <altera_avalon_uart_init>
 180a780:	01006074 	movhi	r4,385
 180a784:	210a9904 	addi	r4,r4,10852
 180a788:	180a7a00 	call	180a7a0 <alt_dev_reg>
}
 180a78c:	e037883a 	mov	sp,fp
 180a790:	dfc00117 	ldw	ra,4(sp)
 180a794:	df000017 	ldw	fp,0(sp)
 180a798:	dec00204 	addi	sp,sp,8
 180a79c:	f800283a 	ret

0180a7a0 <alt_dev_reg>:
 */

extern int alt_fs_reg  (alt_dev* dev); 

static ALT_INLINE int alt_dev_reg (alt_dev* dev)
{
 180a7a0:	defffd04 	addi	sp,sp,-12
 180a7a4:	dfc00215 	stw	ra,8(sp)
 180a7a8:	df000115 	stw	fp,4(sp)
 180a7ac:	df000104 	addi	fp,sp,4
 180a7b0:	e13fff15 	stw	r4,-4(fp)
  extern alt_llist alt_dev_list;

  return alt_dev_llist_insert ((alt_dev_llist*) dev, &alt_dev_list);
 180a7b4:	e13fff17 	ldw	r4,-4(fp)
 180a7b8:	01406074 	movhi	r5,385
 180a7bc:	294ad204 	addi	r5,r5,11080
 180a7c0:	180ec840 	call	180ec84 <alt_dev_llist_insert>
}
 180a7c4:	e037883a 	mov	sp,fp
 180a7c8:	dfc00117 	ldw	ra,4(sp)
 180a7cc:	df000017 	ldw	fp,0(sp)
 180a7d0:	dec00204 	addi	sp,sp,8
 180a7d4:	f800283a 	ret

0180a7d8 <alt_flash_cfi_init>:
 * Read the CFI table and fill out the alt_flash_cfi_dev structure with all the 
 * information we need to program the flash.
 * 
 */
int alt_flash_cfi_init( alt_flash_cfi_dev* flash  )
{
 180a7d8:	defffc04 	addi	sp,sp,-16
 180a7dc:	dfc00315 	stw	ra,12(sp)
 180a7e0:	df000215 	stw	fp,8(sp)
 180a7e4:	df000204 	addi	fp,sp,8
 180a7e8:	e13fff15 	stw	r4,-4(fp)
  int ret_code = 0;
 180a7ec:	e03ffe15 	stw	zero,-8(fp)
 
  ret_code = alt_read_cfi_width( flash );
 180a7f0:	e13fff17 	ldw	r4,-4(fp)
 180a7f4:	180bc700 	call	180bc70 <alt_read_cfi_width>
 180a7f8:	e0bffe15 	stw	r2,-8(fp)
  
  if (!ret_code)
 180a7fc:	e0bffe17 	ldw	r2,-8(fp)
 180a800:	1004c03a 	cmpne	r2,r2,zero
 180a804:	1000031e 	bne	r2,zero,180a814 <alt_flash_cfi_init+0x3c>
    ret_code = alt_set_flash_width_func( flash );
 180a808:	e13fff17 	ldw	r4,-4(fp)
 180a80c:	180b3e80 	call	180b3e8 <alt_set_flash_width_func>
 180a810:	e0bffe15 	stw	r2,-8(fp)
  
  if (!ret_code)
 180a814:	e0bffe17 	ldw	r2,-8(fp)
 180a818:	1004c03a 	cmpne	r2,r2,zero
 180a81c:	1000031e 	bne	r2,zero,180a82c <alt_flash_cfi_init+0x54>
    ret_code = alt_read_cfi_table( flash );
 180a820:	e13fff17 	ldw	r4,-4(fp)
 180a824:	180b6f00 	call	180b6f0 <alt_read_cfi_table>
 180a828:	e0bffe15 	stw	r2,-8(fp)

  if (!ret_code) 
 180a82c:	e0bffe17 	ldw	r2,-8(fp)
 180a830:	1004c03a 	cmpne	r2,r2,zero
 180a834:	1000031e 	bne	r2,zero,180a844 <alt_flash_cfi_init+0x6c>
    ret_code = alt_set_flash_algorithm_func( flash);
 180a838:	e13fff17 	ldw	r4,-4(fp)
 180a83c:	180b5c80 	call	180b5c8 <alt_set_flash_algorithm_func>
 180a840:	e0bffe15 	stw	r2,-8(fp)

  /*
  *  Register this device as a valid flash device type
  */ 
  if (!ret_code)
 180a844:	e0bffe17 	ldw	r2,-8(fp)
 180a848:	1004c03a 	cmpne	r2,r2,zero
 180a84c:	1000031e 	bne	r2,zero,180a85c <alt_flash_cfi_init+0x84>
    ret_code = alt_flash_device_register(&(flash->dev));
 180a850:	e13fff17 	ldw	r4,-4(fp)
 180a854:	180a8740 	call	180a874 <alt_flash_device_register>
 180a858:	e0bffe15 	stw	r2,-8(fp)
 
  return ret_code;
 180a85c:	e0bffe17 	ldw	r2,-8(fp)
}
 180a860:	e037883a 	mov	sp,fp
 180a864:	dfc00117 	ldw	ra,4(sp)
 180a868:	df000017 	ldw	fp,0(sp)
 180a86c:	dec00204 	addi	sp,sp,8
 180a870:	f800283a 	ret

0180a874 <alt_flash_device_register>:

typedef struct alt_flash_dev alt_flash_dev; 
typedef alt_flash_dev alt_flash_fd;

static ALT_INLINE int alt_flash_device_register( alt_flash_fd* fd)
{
 180a874:	defffd04 	addi	sp,sp,-12
 180a878:	dfc00215 	stw	ra,8(sp)
 180a87c:	df000115 	stw	fp,4(sp)
 180a880:	df000104 	addi	fp,sp,4
 180a884:	e13fff15 	stw	r4,-4(fp)
  extern alt_llist alt_flash_dev_list;

  return alt_dev_llist_insert ((alt_dev_llist*) fd, &alt_flash_dev_list);
 180a888:	e13fff17 	ldw	r4,-4(fp)
 180a88c:	01406074 	movhi	r5,385
 180a890:	294ad804 	addi	r5,r5,11104
 180a894:	180ec840 	call	180ec84 <alt_dev_llist_insert>
}
 180a898:	e037883a 	mov	sp,fp
 180a89c:	dfc00117 	ldw	ra,4(sp)
 180a8a0:	df000017 	ldw	fp,0(sp)
 180a8a4:	dec00204 	addi	sp,sp,8
 180a8a8:	f800283a 	ret

0180a8ac <alt_flash_cfi_write>:
 * large buffer to tie up in our programming library, when not all users will 
 * want that functionality.
 */
 int alt_flash_cfi_write( alt_flash_dev* flash_info, int offset, 
                          const void* src_addr, int length )
 {
 180a8ac:	deffef04 	addi	sp,sp,-68
 180a8b0:	dfc01015 	stw	ra,64(sp)
 180a8b4:	df000f15 	stw	fp,60(sp)
 180a8b8:	df000f04 	addi	fp,sp,60
 180a8bc:	e13ffa15 	stw	r4,-24(fp)
 180a8c0:	e17ffb15 	stw	r5,-20(fp)
 180a8c4:	e1bffc15 	stw	r6,-16(fp)
 180a8c8:	e1fffd15 	stw	r7,-12(fp)
  int         ret_code = 0;
 180a8cc:	e03ff915 	stw	zero,-28(fp)
  int         i,j;
  int         data_to_write;
  int         full_length = length;
 180a8d0:	e0bffd17 	ldw	r2,-12(fp)
 180a8d4:	e0bff515 	stw	r2,-44(fp)
  int         current_offset;
  int         start_offset = offset;
 180a8d8:	e0bffb17 	ldw	r2,-20(fp)
 180a8dc:	e0bff315 	stw	r2,-52(fp)
  alt_flash_cfi_dev* flash = (alt_flash_cfi_dev*)flash_info;
 180a8e0:	e0bffa17 	ldw	r2,-24(fp)
 180a8e4:	e0bff215 	stw	r2,-56(fp)

  /*
   * First and foremost which sectors are affected?
   */   
  for(i=0;i<flash->dev.number_of_regions;i++)
 180a8e8:	e03ff815 	stw	zero,-32(fp)
 180a8ec:	00008e06 	br	180ab28 <alt_flash_cfi_write+0x27c>
  {
    /* Is it in this erase block region?*/
    if((offset >= flash->dev.region_info[i].offset) &&
 180a8f0:	e0bff817 	ldw	r2,-32(fp)
 180a8f4:	e0fff217 	ldw	r3,-56(fp)
 180a8f8:	1004913a 	slli	r2,r2,4
 180a8fc:	10c5883a 	add	r2,r2,r3
 180a900:	10800d04 	addi	r2,r2,52
 180a904:	10c00017 	ldw	r3,0(r2)
 180a908:	e0bffb17 	ldw	r2,-20(fp)
 180a90c:	10c08316 	blt	r2,r3,180ab1c <alt_flash_cfi_write+0x270>
 180a910:	e0bff817 	ldw	r2,-32(fp)
 180a914:	e0fff217 	ldw	r3,-56(fp)
 180a918:	1004913a 	slli	r2,r2,4
 180a91c:	10c5883a 	add	r2,r2,r3
 180a920:	10800d04 	addi	r2,r2,52
 180a924:	11000017 	ldw	r4,0(r2)
 180a928:	e0bff817 	ldw	r2,-32(fp)
 180a92c:	e0fff217 	ldw	r3,-56(fp)
 180a930:	1004913a 	slli	r2,r2,4
 180a934:	10c5883a 	add	r2,r2,r3
 180a938:	10800e04 	addi	r2,r2,56
 180a93c:	10800017 	ldw	r2,0(r2)
 180a940:	2087883a 	add	r3,r4,r2
 180a944:	e0bffb17 	ldw	r2,-20(fp)
 180a948:	10c0740e 	bge	r2,r3,180ab1c <alt_flash_cfi_write+0x270>
      (offset < (flash->dev.region_info[i].offset + 
      flash->dev.region_info[i].region_size)))
    {
      current_offset = flash->dev.region_info[i].offset;
 180a94c:	e0bff817 	ldw	r2,-32(fp)
 180a950:	e0fff217 	ldw	r3,-56(fp)
 180a954:	1004913a 	slli	r2,r2,4
 180a958:	10c5883a 	add	r2,r2,r3
 180a95c:	10800d04 	addi	r2,r2,52
 180a960:	10800017 	ldw	r2,0(r2)
 180a964:	e0bff415 	stw	r2,-48(fp)

      for(j=0;j<flash->dev.region_info[i].number_of_blocks;j++)
 180a968:	e03ff715 	stw	zero,-36(fp)
 180a96c:	00006306 	br	180aafc <alt_flash_cfi_write+0x250>
      {
        if ((offset >= current_offset ) && 
 180a970:	e0fffb17 	ldw	r3,-20(fp)
 180a974:	e0bff417 	ldw	r2,-48(fp)
 180a978:	18805416 	blt	r3,r2,180aacc <alt_flash_cfi_write+0x220>
 180a97c:	e0bff817 	ldw	r2,-32(fp)
 180a980:	e0fff217 	ldw	r3,-56(fp)
 180a984:	1004913a 	slli	r2,r2,4
 180a988:	10c5883a 	add	r2,r2,r3
 180a98c:	10801004 	addi	r2,r2,64
 180a990:	10c00017 	ldw	r3,0(r2)
 180a994:	e0bff417 	ldw	r2,-48(fp)
 180a998:	1887883a 	add	r3,r3,r2
 180a99c:	e0bffb17 	ldw	r2,-20(fp)
 180a9a0:	10c04a0e 	bge	r2,r3,180aacc <alt_flash_cfi_write+0x220>
        {
          /*
           * Check if the contents of the block are different
           * from the data we wish to put there
           */
          data_to_write = ( current_offset + flash->dev.region_info[i].block_size 
 180a9a4:	e0bff817 	ldw	r2,-32(fp)
 180a9a8:	e0fff217 	ldw	r3,-56(fp)
 180a9ac:	1004913a 	slli	r2,r2,4
 180a9b0:	10c5883a 	add	r2,r2,r3
 180a9b4:	10801004 	addi	r2,r2,64
 180a9b8:	10c00017 	ldw	r3,0(r2)
 180a9bc:	e0bff417 	ldw	r2,-48(fp)
 180a9c0:	1887883a 	add	r3,r3,r2
 180a9c4:	e0bffb17 	ldw	r2,-20(fp)
 180a9c8:	1885c83a 	sub	r2,r3,r2
 180a9cc:	e0bff615 	stw	r2,-40(fp)
                            - offset); 
          data_to_write = MIN(data_to_write, length);
 180a9d0:	e0bff617 	ldw	r2,-40(fp)
 180a9d4:	e0bfff15 	stw	r2,-4(fp)
 180a9d8:	e0fffd17 	ldw	r3,-12(fp)
 180a9dc:	e0fffe15 	stw	r3,-8(fp)
 180a9e0:	e0bfff17 	ldw	r2,-4(fp)
 180a9e4:	e0fffe17 	ldw	r3,-8(fp)
 180a9e8:	10c0020e 	bge	r2,r3,180a9f4 <alt_flash_cfi_write+0x148>
 180a9ec:	e0bfff17 	ldw	r2,-4(fp)
 180a9f0:	e0bffe15 	stw	r2,-8(fp)
 180a9f4:	e0fffe17 	ldw	r3,-8(fp)
 180a9f8:	e0fff615 	stw	r3,-40(fp)
          if(memcmp(src_addr, 
 180a9fc:	e0bff217 	ldw	r2,-56(fp)
 180aa00:	10800a17 	ldw	r2,40(r2)
 180aa04:	1007883a 	mov	r3,r2
 180aa08:	e0bffb17 	ldw	r2,-20(fp)
 180aa0c:	188b883a 	add	r5,r3,r2
 180aa10:	e1bff617 	ldw	r6,-40(fp)
 180aa14:	e13ffc17 	ldw	r4,-16(fp)
 180aa18:	18104140 	call	1810414 <memcmp>
 180aa1c:	1005003a 	cmpeq	r2,r2,zero
 180aa20:	1000131e 	bne	r2,zero,180aa70 <alt_flash_cfi_write+0x1c4>
                    (alt_u8*)flash->dev.base_addr+offset,
                    data_to_write))
          {
            ret_code = (*flash->dev.erase_block)( &flash->dev, current_offset);
 180aa24:	e0bff217 	ldw	r2,-56(fp)
 180aa28:	10800817 	ldw	r2,32(r2)
 180aa2c:	e13ff217 	ldw	r4,-56(fp)
 180aa30:	e17ff417 	ldw	r5,-48(fp)
 180aa34:	103ee83a 	callr	r2
 180aa38:	e0bff915 	stw	r2,-28(fp)

            if (!ret_code)
 180aa3c:	e0bff917 	ldw	r2,-28(fp)
 180aa40:	1004c03a 	cmpne	r2,r2,zero
 180aa44:	10000a1e 	bne	r2,zero,180aa70 <alt_flash_cfi_write+0x1c4>
            {
              ret_code = (*flash->dev.write_block)( 
 180aa48:	e0bff217 	ldw	r2,-56(fp)
 180aa4c:	10c00917 	ldw	r3,36(r2)
 180aa50:	e13ff217 	ldw	r4,-56(fp)
 180aa54:	e0bff617 	ldw	r2,-40(fp)
 180aa58:	d8800015 	stw	r2,0(sp)
 180aa5c:	e17ff417 	ldw	r5,-48(fp)
 180aa60:	e1bffb17 	ldw	r6,-20(fp)
 180aa64:	e1fffc17 	ldw	r7,-16(fp)
 180aa68:	183ee83a 	callr	r3
 180aa6c:	e0bff915 	stw	r2,-28(fp)
                                                  data_to_write);
            }
          }    
    
          /* Was this the last block? */    
          if ((length == data_to_write) || ret_code)
 180aa70:	e0fffd17 	ldw	r3,-12(fp)
 180aa74:	e0bff617 	ldw	r2,-40(fp)
 180aa78:	18802f26 	beq	r3,r2,180ab38 <alt_flash_cfi_write+0x28c>
 180aa7c:	e0bff917 	ldw	r2,-28(fp)
 180aa80:	1004c03a 	cmpne	r2,r2,zero
 180aa84:	10002c1e 	bne	r2,zero,180ab38 <alt_flash_cfi_write+0x28c>
          {
            goto finished;
          }
          
          length -= data_to_write;
 180aa88:	e0fffd17 	ldw	r3,-12(fp)
 180aa8c:	e0bff617 	ldw	r2,-40(fp)
 180aa90:	1885c83a 	sub	r2,r3,r2
 180aa94:	e0bffd15 	stw	r2,-12(fp)
          offset = current_offset + flash->dev.region_info[i].block_size;
 180aa98:	e0bff817 	ldw	r2,-32(fp)
 180aa9c:	e0fff217 	ldw	r3,-56(fp)
 180aaa0:	1004913a 	slli	r2,r2,4
 180aaa4:	10c5883a 	add	r2,r2,r3
 180aaa8:	10801004 	addi	r2,r2,64
 180aaac:	10c00017 	ldw	r3,0(r2)
 180aab0:	e0bff417 	ldw	r2,-48(fp)
 180aab4:	1885883a 	add	r2,r3,r2
 180aab8:	e0bffb15 	stw	r2,-20(fp)
          src_addr = (alt_u8*)src_addr + data_to_write;
 180aabc:	e0fffc17 	ldw	r3,-16(fp)
 180aac0:	e0bff617 	ldw	r2,-40(fp)
 180aac4:	1885883a 	add	r2,r3,r2
 180aac8:	e0bffc15 	stw	r2,-16(fp)
        }
        current_offset += flash->dev.region_info[i].block_size;
 180aacc:	e0bff817 	ldw	r2,-32(fp)
 180aad0:	e0fff217 	ldw	r3,-56(fp)
 180aad4:	1004913a 	slli	r2,r2,4
 180aad8:	10c5883a 	add	r2,r2,r3
 180aadc:	10801004 	addi	r2,r2,64
 180aae0:	10c00017 	ldw	r3,0(r2)
 180aae4:	e0bff417 	ldw	r2,-48(fp)
 180aae8:	10c5883a 	add	r2,r2,r3
 180aaec:	e0bff415 	stw	r2,-48(fp)
      (offset < (flash->dev.region_info[i].offset + 
      flash->dev.region_info[i].region_size)))
    {
      current_offset = flash->dev.region_info[i].offset;

      for(j=0;j<flash->dev.region_info[i].number_of_blocks;j++)
 180aaf0:	e0bff717 	ldw	r2,-36(fp)
 180aaf4:	10800044 	addi	r2,r2,1
 180aaf8:	e0bff715 	stw	r2,-36(fp)
 180aafc:	e0bff817 	ldw	r2,-32(fp)
 180ab00:	e0fff217 	ldw	r3,-56(fp)
 180ab04:	1004913a 	slli	r2,r2,4
 180ab08:	10c5883a 	add	r2,r2,r3
 180ab0c:	10800f04 	addi	r2,r2,60
 180ab10:	10c00017 	ldw	r3,0(r2)
 180ab14:	e0bff717 	ldw	r2,-36(fp)
 180ab18:	10ff9516 	blt	r2,r3,180a970 <alt_flash_cfi_write+0xc4>
  alt_flash_cfi_dev* flash = (alt_flash_cfi_dev*)flash_info;

  /*
   * First and foremost which sectors are affected?
   */   
  for(i=0;i<flash->dev.number_of_regions;i++)
 180ab1c:	e0bff817 	ldw	r2,-32(fp)
 180ab20:	10800044 	addi	r2,r2,1
 180ab24:	e0bff815 	stw	r2,-32(fp)
 180ab28:	e0bff217 	ldw	r2,-56(fp)
 180ab2c:	10c00c17 	ldw	r3,48(r2)
 180ab30:	e0bff817 	ldw	r2,-32(fp)
 180ab34:	10ff6e16 	blt	r2,r3,180a8f0 <alt_flash_cfi_write+0x44>
      }     
    } 
  }
finished:    

  alt_dcache_flush((alt_u8*)flash->dev.base_addr+start_offset, full_length);
 180ab38:	e0bff217 	ldw	r2,-56(fp)
 180ab3c:	10800a17 	ldw	r2,40(r2)
 180ab40:	1007883a 	mov	r3,r2
 180ab44:	e0bff317 	ldw	r2,-52(fp)
 180ab48:	1889883a 	add	r4,r3,r2
 180ab4c:	e17ff517 	ldw	r5,-44(fp)
 180ab50:	180ec0c0 	call	180ec0c <alt_dcache_flush>
  return ret_code;
 180ab54:	e0bff917 	ldw	r2,-28(fp)
}
 180ab58:	e037883a 	mov	sp,fp
 180ab5c:	dfc00117 	ldw	ra,4(sp)
 180ab60:	df000017 	ldw	fp,0(sp)
 180ab64:	dec00204 	addi	sp,sp,8
 180ab68:	f800283a 	ret

0180ab6c <alt_flash_cfi_get_info>:
 * 
 *  Pass the table of erase blocks to the user
 */
int alt_flash_cfi_get_info( alt_flash_fd* fd, flash_region** info, 
                            int* number_of_regions)
{
 180ab6c:	defffa04 	addi	sp,sp,-24
 180ab70:	df000515 	stw	fp,20(sp)
 180ab74:	df000504 	addi	fp,sp,20
 180ab78:	e13ffd15 	stw	r4,-12(fp)
 180ab7c:	e17ffe15 	stw	r5,-8(fp)
 180ab80:	e1bfff15 	stw	r6,-4(fp)
  int ret_code = 0;
 180ab84:	e03ffc15 	stw	zero,-16(fp)
  alt_flash_dev* flash = (alt_flash_dev*)fd;
 180ab88:	e0bffd17 	ldw	r2,-12(fp)
 180ab8c:	e0bffb15 	stw	r2,-20(fp)

  *number_of_regions = flash->number_of_regions;
 180ab90:	e0bffb17 	ldw	r2,-20(fp)
 180ab94:	10c00c17 	ldw	r3,48(r2)
 180ab98:	e0bfff17 	ldw	r2,-4(fp)
 180ab9c:	10c00015 	stw	r3,0(r2)

  if (!flash->number_of_regions)
 180aba0:	e0bffb17 	ldw	r2,-20(fp)
 180aba4:	10800c17 	ldw	r2,48(r2)
 180aba8:	1004c03a 	cmpne	r2,r2,zero
 180abac:	1000031e 	bne	r2,zero,180abbc <alt_flash_cfi_get_info+0x50>
  {
    ret_code = -EIO;
 180abb0:	00bffec4 	movi	r2,-5
 180abb4:	e0bffc15 	stw	r2,-16(fp)
 180abb8:	00000b06 	br	180abe8 <alt_flash_cfi_get_info+0x7c>
  }
  else if (flash->number_of_regions > ALT_MAX_NUMBER_OF_FLASH_REGIONS)
 180abbc:	e0bffb17 	ldw	r2,-20(fp)
 180abc0:	10800c17 	ldw	r2,48(r2)
 180abc4:	10800250 	cmplti	r2,r2,9
 180abc8:	1000031e 	bne	r2,zero,180abd8 <alt_flash_cfi_get_info+0x6c>
  {
    ret_code = -ENOMEM;
 180abcc:	00bffd04 	movi	r2,-12
 180abd0:	e0bffc15 	stw	r2,-16(fp)
 180abd4:	00000406 	br	180abe8 <alt_flash_cfi_get_info+0x7c>
  }
  else
  {
    *info = &flash->region_info[0];
 180abd8:	e0bffb17 	ldw	r2,-20(fp)
 180abdc:	10c00d04 	addi	r3,r2,52
 180abe0:	e0bffe17 	ldw	r2,-8(fp)
 180abe4:	10c00015 	stw	r3,0(r2)
  }

  return ret_code;
 180abe8:	e0bffc17 	ldw	r2,-16(fp)
}
 180abec:	e037883a 	mov	sp,fp
 180abf0:	df000017 	ldw	fp,0(sp)
 180abf4:	dec00104 	addi	sp,sp,4
 180abf8:	f800283a 	ret

0180abfc <alt_flash_cfi_read>:
 *  Read from an area in flash, you could use memcopy yourself
 *  for these flash types, but we're trying to be generic and future proof
 */
int alt_flash_cfi_read( alt_flash_dev* flash_info, int offset, 
                        void* dest_addr, int length )
{
 180abfc:	defff904 	addi	sp,sp,-28
 180ac00:	dfc00615 	stw	ra,24(sp)
 180ac04:	df000515 	stw	fp,20(sp)
 180ac08:	df000504 	addi	fp,sp,20
 180ac0c:	e13ffc15 	stw	r4,-16(fp)
 180ac10:	e17ffd15 	stw	r5,-12(fp)
 180ac14:	e1bffe15 	stw	r6,-8(fp)
 180ac18:	e1ffff15 	stw	r7,-4(fp)
  alt_flash_cfi_dev* flash = (alt_flash_cfi_dev*)flash_info;
 180ac1c:	e0bffc17 	ldw	r2,-16(fp)
 180ac20:	e0bffb15 	stw	r2,-20(fp)
  memcpy(dest_addr, (alt_u8*)flash->dev.base_addr+offset, length);
 180ac24:	e0bffb17 	ldw	r2,-20(fp)
 180ac28:	10800a17 	ldw	r2,40(r2)
 180ac2c:	1007883a 	mov	r3,r2
 180ac30:	e0bffd17 	ldw	r2,-12(fp)
 180ac34:	1887883a 	add	r3,r3,r2
 180ac38:	e1bfff17 	ldw	r6,-4(fp)
 180ac3c:	e0bffe17 	ldw	r2,-8(fp)
 180ac40:	1009883a 	mov	r4,r2
 180ac44:	180b883a 	mov	r5,r3
 180ac48:	18059000 	call	1805900 <memcpy>
  return 0;
 180ac4c:	0005883a 	mov	r2,zero
}
 180ac50:	e037883a 	mov	sp,fp
 180ac54:	dfc00117 	ldw	ra,4(sp)
 180ac58:	df000017 	ldw	fp,0(sp)
 180ac5c:	dec00204 	addi	sp,sp,8
 180ac60:	f800283a 	ret

0180ac64 <alt_write_value_to_flash>:
* It writes the largest word size that the flash can support
* so if it's an 8 bit flash it writes bytes
* 16 bit half word etc.
*/
void alt_write_value_to_flash(alt_flash_cfi_dev* flash, int offset, const alt_u8* src_addr)
{
 180ac64:	defffa04 	addi	sp,sp,-24
 180ac68:	df000515 	stw	fp,20(sp)
 180ac6c:	df000504 	addi	fp,sp,20
 180ac70:	e13ffd15 	stw	r4,-12(fp)
 180ac74:	e17ffe15 	stw	r5,-8(fp)
 180ac78:	e1bfff15 	stw	r6,-4(fp)
  alt_u16 half_word_value;
  alt_u32 word_value;

  if (flash->mode_width == 1)
 180ac7c:	e0bffd17 	ldw	r2,-12(fp)
 180ac80:	10802e17 	ldw	r2,184(r2)
 180ac84:	10800058 	cmpnei	r2,r2,1
 180ac88:	10000b1e 	bne	r2,zero,180acb8 <alt_write_value_to_flash+0x54>
  {
    IOWR_8DIRECT(flash->dev.base_addr, offset, *src_addr);
 180ac8c:	e0bffd17 	ldw	r2,-12(fp)
 180ac90:	10800a17 	ldw	r2,40(r2)
 180ac94:	1007883a 	mov	r3,r2
 180ac98:	e0bffe17 	ldw	r2,-8(fp)
 180ac9c:	1889883a 	add	r4,r3,r2
 180aca0:	e0bfff17 	ldw	r2,-4(fp)
 180aca4:	10800003 	ldbu	r2,0(r2)
 180aca8:	10c03fcc 	andi	r3,r2,255
 180acac:	2005883a 	mov	r2,r4
 180acb0:	10c00025 	stbio	r3,0(r2)
 180acb4:	00004006 	br	180adb8 <alt_write_value_to_flash+0x154>
  }
  else if (flash->mode_width == 2)
 180acb8:	e0bffd17 	ldw	r2,-12(fp)
 180acbc:	10802e17 	ldw	r2,184(r2)
 180acc0:	10800098 	cmpnei	r2,r2,2
 180acc4:	1000151e 	bne	r2,zero,180ad1c <alt_write_value_to_flash+0xb8>
  {
    half_word_value = (alt_u16)(*src_addr);
 180acc8:	e0bfff17 	ldw	r2,-4(fp)
 180accc:	10800003 	ldbu	r2,0(r2)
 180acd0:	10803fcc 	andi	r2,r2,255
 180acd4:	e0bffc0d 	sth	r2,-16(fp)
    half_word_value |= (alt_u16)(*(src_addr + 1)) << 8;
 180acd8:	e0bfff17 	ldw	r2,-4(fp)
 180acdc:	10800044 	addi	r2,r2,1
 180ace0:	10800003 	ldbu	r2,0(r2)
 180ace4:	10803fcc 	andi	r2,r2,255
 180ace8:	1004923a 	slli	r2,r2,8
 180acec:	1007883a 	mov	r3,r2
 180acf0:	e0bffc0b 	ldhu	r2,-16(fp)
 180acf4:	1884b03a 	or	r2,r3,r2
 180acf8:	e0bffc0d 	sth	r2,-16(fp)
    IOWR_16DIRECT(flash->dev.base_addr, offset, half_word_value);
 180acfc:	e0bffd17 	ldw	r2,-12(fp)
 180ad00:	10800a17 	ldw	r2,40(r2)
 180ad04:	1007883a 	mov	r3,r2
 180ad08:	e0bffe17 	ldw	r2,-8(fp)
 180ad0c:	1885883a 	add	r2,r3,r2
 180ad10:	e0fffc0b 	ldhu	r3,-16(fp)
 180ad14:	10c0002d 	sthio	r3,0(r2)
 180ad18:	00002706 	br	180adb8 <alt_write_value_to_flash+0x154>
  }
  else if (flash->mode_width == 4)
 180ad1c:	e0bffd17 	ldw	r2,-12(fp)
 180ad20:	10802e17 	ldw	r2,184(r2)
 180ad24:	10800118 	cmpnei	r2,r2,4
 180ad28:	1000231e 	bne	r2,zero,180adb8 <alt_write_value_to_flash+0x154>
  {
    word_value = (alt_u32)(*src_addr);
 180ad2c:	e0bfff17 	ldw	r2,-4(fp)
 180ad30:	10800003 	ldbu	r2,0(r2)
 180ad34:	10803fcc 	andi	r2,r2,255
 180ad38:	e0bffb15 	stw	r2,-20(fp)
    word_value |= ((alt_u32)(*(src_addr + 1)) << 8);
 180ad3c:	e0bfff17 	ldw	r2,-4(fp)
 180ad40:	10800044 	addi	r2,r2,1
 180ad44:	10800003 	ldbu	r2,0(r2)
 180ad48:	10803fcc 	andi	r2,r2,255
 180ad4c:	1006923a 	slli	r3,r2,8
 180ad50:	e0bffb17 	ldw	r2,-20(fp)
 180ad54:	10c4b03a 	or	r2,r2,r3
 180ad58:	e0bffb15 	stw	r2,-20(fp)
    word_value |= ((alt_u32)(*(src_addr + 2)) << 16);
 180ad5c:	e0bfff17 	ldw	r2,-4(fp)
 180ad60:	10800084 	addi	r2,r2,2
 180ad64:	10800003 	ldbu	r2,0(r2)
 180ad68:	10803fcc 	andi	r2,r2,255
 180ad6c:	1006943a 	slli	r3,r2,16
 180ad70:	e0bffb17 	ldw	r2,-20(fp)
 180ad74:	10c4b03a 	or	r2,r2,r3
 180ad78:	e0bffb15 	stw	r2,-20(fp)
    word_value |= ((alt_u32)(*(src_addr + 3)) << 24);
 180ad7c:	e0bfff17 	ldw	r2,-4(fp)
 180ad80:	108000c4 	addi	r2,r2,3
 180ad84:	10800003 	ldbu	r2,0(r2)
 180ad88:	10803fcc 	andi	r2,r2,255
 180ad8c:	1006963a 	slli	r3,r2,24
 180ad90:	e0bffb17 	ldw	r2,-20(fp)
 180ad94:	10c4b03a 	or	r2,r2,r3
 180ad98:	e0bffb15 	stw	r2,-20(fp)
    IOWR_32DIRECT(flash->dev.base_addr, offset, word_value);
 180ad9c:	e0bffd17 	ldw	r2,-12(fp)
 180ada0:	10800a17 	ldw	r2,40(r2)
 180ada4:	1007883a 	mov	r3,r2
 180ada8:	e0bffe17 	ldw	r2,-8(fp)
 180adac:	1885883a 	add	r2,r3,r2
 180adb0:	e0fffb17 	ldw	r3,-20(fp)
 180adb4:	10c00035 	stwio	r3,0(r2)
  }

  return;
}
 180adb8:	e037883a 	mov	sp,fp
 180adbc:	df000017 	ldw	fp,0(sp)
 180adc0:	dec00104 	addi	sp,sp,4
 180adc4:	f800283a 	ret

0180adc8 <alt_flash_program_block>:
*/
int alt_flash_program_block(  alt_flash_cfi_dev* flash, const int offset, 
                        const alt_u8* src_addr, 
                        const int length,
                        alt_program_word_fn program_word_func)
{
 180adc8:	defff304 	addi	sp,sp,-52
 180adcc:	dfc00c15 	stw	ra,48(sp)
 180add0:	df000b15 	stw	fp,44(sp)
 180add4:	df000b04 	addi	fp,sp,44
 180add8:	e13ffc15 	stw	r4,-16(fp)
 180addc:	e17ffd15 	stw	r5,-12(fp)
 180ade0:	e1bffe15 	stw	r6,-8(fp)
 180ade4:	e1ffff15 	stw	r7,-4(fp)
  int     ret_code = 0;
 180ade8:	e03ffa15 	stw	zero,-24(fp)

  /*
   * First take care of any writes which are on none native boundaries
   * as far as the flash is concerned.
   */
  bytes_to_preserve = ((int)((alt_u8*)flash->dev.base_addr + offset) % 
 180adec:	e0bffc17 	ldw	r2,-16(fp)
 180adf0:	10800a17 	ldw	r2,40(r2)
 180adf4:	1007883a 	mov	r3,r2
 180adf8:	e0bffd17 	ldw	r2,-12(fp)
 180adfc:	1885883a 	add	r2,r3,r2
 180ae00:	1009883a 	mov	r4,r2
 180ae04:	e0bffc17 	ldw	r2,-16(fp)
 180ae08:	10c02e17 	ldw	r3,184(r2)
 180ae0c:	20c5283a 	div	r2,r4,r3
 180ae10:	10c5383a 	mul	r2,r2,r3
 180ae14:	2085c83a 	sub	r2,r4,r2
 180ae18:	e0bff915 	stw	r2,-28(fp)
                      flash->mode_width);
  if ( bytes_to_preserve != 0)
 180ae1c:	e0bff917 	ldw	r2,-28(fp)
 180ae20:	1005003a 	cmpeq	r2,r2,zero
 180ae24:	10003a1e 	bne	r2,zero,180af10 <alt_flash_program_block+0x148>
  {
    unaligned_bytes = flash->mode_width - bytes_to_preserve;
 180ae28:	e0bffc17 	ldw	r2,-16(fp)
 180ae2c:	10c02e17 	ldw	r3,184(r2)
 180ae30:	e0bff917 	ldw	r2,-28(fp)
 180ae34:	1885c83a 	sub	r2,r3,r2
 180ae38:	e0bff815 	stw	r2,-32(fp)
    /*
     * Read the bytes we wish to preserve out of flash
     */
    for (i=0;i<bytes_to_preserve;i++)
 180ae3c:	e03ff615 	stw	zero,-40(fp)
 180ae40:	00001206 	br	180ae8c <alt_flash_program_block+0xc4>
    {
      unaligned[i] = IORD_8DIRECT(flash->dev.base_addr, 
 180ae44:	e17ff617 	ldw	r5,-40(fp)
 180ae48:	e0bffc17 	ldw	r2,-16(fp)
 180ae4c:	10800a17 	ldw	r2,40(r2)
 180ae50:	1009883a 	mov	r4,r2
 180ae54:	e0fffd17 	ldw	r3,-12(fp)
 180ae58:	e0bff917 	ldw	r2,-28(fp)
 180ae5c:	1887c83a 	sub	r3,r3,r2
 180ae60:	e0bff617 	ldw	r2,-40(fp)
 180ae64:	1885883a 	add	r2,r3,r2
 180ae68:	2085883a 	add	r2,r4,r2
 180ae6c:	10800023 	ldbuio	r2,0(r2)
 180ae70:	1007883a 	mov	r3,r2
 180ae74:	e0bffb04 	addi	r2,fp,-20
 180ae78:	1145883a 	add	r2,r2,r5
 180ae7c:	10c00005 	stb	r3,0(r2)
  {
    unaligned_bytes = flash->mode_width - bytes_to_preserve;
    /*
     * Read the bytes we wish to preserve out of flash
     */
    for (i=0;i<bytes_to_preserve;i++)
 180ae80:	e0bff617 	ldw	r2,-40(fp)
 180ae84:	10800044 	addi	r2,r2,1
 180ae88:	e0bff615 	stw	r2,-40(fp)
 180ae8c:	e0fff617 	ldw	r3,-40(fp)
 180ae90:	e0bff917 	ldw	r2,-28(fp)
 180ae94:	18bfeb16 	blt	r3,r2,180ae44 <alt_flash_program_block+0x7c>
    {
      unaligned[i] = IORD_8DIRECT(flash->dev.base_addr, 
                                offset-bytes_to_preserve+i);
    }

    for (i=0;i<unaligned_bytes;i++)
 180ae98:	e03ff615 	stw	zero,-40(fp)
 180ae9c:	00000e06 	br	180aed8 <alt_flash_program_block+0x110>
    {
      unaligned[bytes_to_preserve + i] = *(alt_u8*)(src_addr + i);
 180aea0:	e0fff917 	ldw	r3,-28(fp)
 180aea4:	e0bff617 	ldw	r2,-40(fp)
 180aea8:	1889883a 	add	r4,r3,r2
 180aeac:	e0bff617 	ldw	r2,-40(fp)
 180aeb0:	1007883a 	mov	r3,r2
 180aeb4:	e0bffe17 	ldw	r2,-8(fp)
 180aeb8:	1885883a 	add	r2,r3,r2
 180aebc:	10c00003 	ldbu	r3,0(r2)
 180aec0:	e0bffb04 	addi	r2,fp,-20
 180aec4:	1105883a 	add	r2,r2,r4
 180aec8:	10c00005 	stb	r3,0(r2)
    {
      unaligned[i] = IORD_8DIRECT(flash->dev.base_addr, 
                                offset-bytes_to_preserve+i);
    }

    for (i=0;i<unaligned_bytes;i++)
 180aecc:	e0bff617 	ldw	r2,-40(fp)
 180aed0:	10800044 	addi	r2,r2,1
 180aed4:	e0bff615 	stw	r2,-40(fp)
 180aed8:	e0fff617 	ldw	r3,-40(fp)
 180aedc:	e0bff817 	ldw	r2,-32(fp)
 180aee0:	18bfef16 	blt	r3,r2,180aea0 <alt_flash_program_block+0xd8>
    {
      unaligned[bytes_to_preserve + i] = *(alt_u8*)(src_addr + i);
    }
    
    ret_code = (*program_word_func)(flash, offset-bytes_to_preserve, unaligned);
 180aee4:	e0fffd17 	ldw	r3,-12(fp)
 180aee8:	e0bff917 	ldw	r2,-28(fp)
 180aeec:	188bc83a 	sub	r5,r3,r2
 180aef0:	e1bffb04 	addi	r6,fp,-20
 180aef4:	e0800217 	ldw	r2,8(fp)
 180aef8:	e13ffc17 	ldw	r4,-16(fp)
 180aefc:	103ee83a 	callr	r2
 180af00:	e0bffa15 	stw	r2,-24(fp)
    i = unaligned_bytes;
 180af04:	e0bff817 	ldw	r2,-32(fp)
 180af08:	e0bff615 	stw	r2,-40(fp)
 180af0c:	00000106 	br	180af14 <alt_flash_program_block+0x14c>
  }
  else
  {
    i = 0;
 180af10:	e03ff615 	stw	zero,-40(fp)
  }

  unaligned_end_bytes = (offset+length) % flash->mode_width;
 180af14:	e0fffd17 	ldw	r3,-12(fp)
 180af18:	e0bfff17 	ldw	r2,-4(fp)
 180af1c:	1889883a 	add	r4,r3,r2
 180af20:	e0bffc17 	ldw	r2,-16(fp)
 180af24:	10c02e17 	ldw	r3,184(r2)
 180af28:	20c5283a 	div	r2,r4,r3
 180af2c:	10c5383a 	mul	r2,r2,r3
 180af30:	2085c83a 	sub	r2,r4,r2
 180af34:	e0bff715 	stw	r2,-36(fp)
  while ((ret_code == 0) && (i < (length-unaligned_end_bytes)))
 180af38:	00001006 	br	180af7c <alt_flash_program_block+0x1b4>
  {
    ret_code = (*program_word_func)(flash, offset+i, src_addr+i);
 180af3c:	e0fffd17 	ldw	r3,-12(fp)
 180af40:	e0bff617 	ldw	r2,-40(fp)
 180af44:	188b883a 	add	r5,r3,r2
 180af48:	e0bff617 	ldw	r2,-40(fp)
 180af4c:	1007883a 	mov	r3,r2
 180af50:	e0bffe17 	ldw	r2,-8(fp)
 180af54:	188d883a 	add	r6,r3,r2
 180af58:	e0800217 	ldw	r2,8(fp)
 180af5c:	e13ffc17 	ldw	r4,-16(fp)
 180af60:	103ee83a 	callr	r2
 180af64:	e0bffa15 	stw	r2,-24(fp)
    i += flash->mode_width;     
 180af68:	e0bffc17 	ldw	r2,-16(fp)
 180af6c:	10c02e17 	ldw	r3,184(r2)
 180af70:	e0bff617 	ldw	r2,-40(fp)
 180af74:	10c5883a 	add	r2,r2,r3
 180af78:	e0bff615 	stw	r2,-40(fp)
  {
    i = 0;
  }

  unaligned_end_bytes = (offset+length) % flash->mode_width;
  while ((ret_code == 0) && (i < (length-unaligned_end_bytes)))
 180af7c:	e0bffa17 	ldw	r2,-24(fp)
 180af80:	1004c03a 	cmpne	r2,r2,zero
 180af84:	1000051e 	bne	r2,zero,180af9c <alt_flash_program_block+0x1d4>
 180af88:	e0ffff17 	ldw	r3,-4(fp)
 180af8c:	e0bff717 	ldw	r2,-36(fp)
 180af90:	1887c83a 	sub	r3,r3,r2
 180af94:	e0bff617 	ldw	r2,-40(fp)
 180af98:	10ffe816 	blt	r2,r3,180af3c <alt_flash_program_block+0x174>

  /*
   * Now take care of any writes at the end of the buffer which are on none 
   * native boundaries as far as the flash is concerned.
   */
  if (unaligned_end_bytes && !ret_code)
 180af9c:	e0bff717 	ldw	r2,-36(fp)
 180afa0:	1005003a 	cmpeq	r2,r2,zero
 180afa4:	10003c1e 	bne	r2,zero,180b098 <alt_flash_program_block+0x2d0>
 180afa8:	e0bffa17 	ldw	r2,-24(fp)
 180afac:	1004c03a 	cmpne	r2,r2,zero
 180afb0:	1000391e 	bne	r2,zero,180b098 <alt_flash_program_block+0x2d0>
  {
    bytes_to_preserve = flash->mode_width - unaligned_end_bytes;
 180afb4:	e0bffc17 	ldw	r2,-16(fp)
 180afb8:	10c02e17 	ldw	r3,184(r2)
 180afbc:	e0bff717 	ldw	r2,-36(fp)
 180afc0:	1885c83a 	sub	r2,r3,r2
 180afc4:	e0bff915 	stw	r2,-28(fp)
    
    for (j=0;j<unaligned_end_bytes;j++)
 180afc8:	e03ff515 	stw	zero,-44(fp)
 180afcc:	00000e06 	br	180b008 <alt_flash_program_block+0x240>
    {
      unaligned[j] = *(alt_u8*)(src_addr+i+j);
 180afd0:	e13ff517 	ldw	r4,-44(fp)
 180afd4:	e0bff617 	ldw	r2,-40(fp)
 180afd8:	1007883a 	mov	r3,r2
 180afdc:	e0bffe17 	ldw	r2,-8(fp)
 180afe0:	1887883a 	add	r3,r3,r2
 180afe4:	e0bff517 	ldw	r2,-44(fp)
 180afe8:	1885883a 	add	r2,r3,r2
 180afec:	10c00003 	ldbu	r3,0(r2)
 180aff0:	e0bffb04 	addi	r2,fp,-20
 180aff4:	1105883a 	add	r2,r2,r4
 180aff8:	10c00005 	stb	r3,0(r2)
   */
  if (unaligned_end_bytes && !ret_code)
  {
    bytes_to_preserve = flash->mode_width - unaligned_end_bytes;
    
    for (j=0;j<unaligned_end_bytes;j++)
 180affc:	e0bff517 	ldw	r2,-44(fp)
 180b000:	10800044 	addi	r2,r2,1
 180b004:	e0bff515 	stw	r2,-44(fp)
 180b008:	e0fff517 	ldw	r3,-44(fp)
 180b00c:	e0bff717 	ldw	r2,-36(fp)
 180b010:	18bfef16 	blt	r3,r2,180afd0 <alt_flash_program_block+0x208>
    {
      unaligned[j] = *(alt_u8*)(src_addr+i+j);
    }
    
    for (j=0;j<bytes_to_preserve;j++)
 180b014:	e03ff515 	stw	zero,-44(fp)
 180b018:	00001406 	br	180b06c <alt_flash_program_block+0x2a4>
    {
      unaligned[unaligned_end_bytes+j] = IORD_8DIRECT(flash->dev.base_addr, 
 180b01c:	e0fff717 	ldw	r3,-36(fp)
 180b020:	e0bff517 	ldw	r2,-44(fp)
 180b024:	188b883a 	add	r5,r3,r2
 180b028:	e0bffc17 	ldw	r2,-16(fp)
 180b02c:	10800a17 	ldw	r2,40(r2)
 180b030:	1009883a 	mov	r4,r2
 180b034:	e0fffd17 	ldw	r3,-12(fp)
 180b038:	e0bfff17 	ldw	r2,-4(fp)
 180b03c:	1887883a 	add	r3,r3,r2
 180b040:	e0bff517 	ldw	r2,-44(fp)
 180b044:	1885883a 	add	r2,r3,r2
 180b048:	2085883a 	add	r2,r4,r2
 180b04c:	10800023 	ldbuio	r2,0(r2)
 180b050:	1007883a 	mov	r3,r2
 180b054:	e0bffb04 	addi	r2,fp,-20
 180b058:	1145883a 	add	r2,r2,r5
 180b05c:	10c00005 	stb	r3,0(r2)
    for (j=0;j<unaligned_end_bytes;j++)
    {
      unaligned[j] = *(alt_u8*)(src_addr+i+j);
    }
    
    for (j=0;j<bytes_to_preserve;j++)
 180b060:	e0bff517 	ldw	r2,-44(fp)
 180b064:	10800044 	addi	r2,r2,1
 180b068:	e0bff515 	stw	r2,-44(fp)
 180b06c:	e0fff517 	ldw	r3,-44(fp)
 180b070:	e0bff917 	ldw	r2,-28(fp)
 180b074:	18bfe916 	blt	r3,r2,180b01c <alt_flash_program_block+0x254>
    {
      unaligned[unaligned_end_bytes+j] = IORD_8DIRECT(flash->dev.base_addr, 
                                                      offset+length+j);
    }

    ret_code = (*program_word_func)(flash, offset+i, unaligned);      
 180b078:	e0fffd17 	ldw	r3,-12(fp)
 180b07c:	e0bff617 	ldw	r2,-40(fp)
 180b080:	188b883a 	add	r5,r3,r2
 180b084:	e1bffb04 	addi	r6,fp,-20
 180b088:	e0800217 	ldw	r2,8(fp)
 180b08c:	e13ffc17 	ldw	r4,-16(fp)
 180b090:	103ee83a 	callr	r2
 180b094:	e0bffa15 	stw	r2,-24(fp)
  }

  return ret_code;
 180b098:	e0bffa17 	ldw	r2,-24(fp)
}
 180b09c:	e037883a 	mov	sp,fp
 180b0a0:	dfc00117 	ldw	ra,4(sp)
 180b0a4:	df000017 	ldw	fp,0(sp)
 180b0a8:	dec00204 	addi	sp,sp,8
 180b0ac:	f800283a 	ret

0180b0b0 <alt_read_query_entry_8bit>:

/*
 *  Read an 8 bit value from the CFI query table in flash
 */
alt_u8 alt_read_query_entry_8bit( alt_flash_cfi_dev* flash, int address)
{
 180b0b0:	defffd04 	addi	sp,sp,-12
 180b0b4:	df000215 	stw	fp,8(sp)
 180b0b8:	df000204 	addi	fp,sp,8
 180b0bc:	e13ffe15 	stw	r4,-8(fp)
 180b0c0:	e17fff15 	stw	r5,-4(fp)
  return IORD_8DIRECT((alt_u8*)flash->dev.base_addr, address);
 180b0c4:	e0bffe17 	ldw	r2,-8(fp)
 180b0c8:	10800a17 	ldw	r2,40(r2)
 180b0cc:	1007883a 	mov	r3,r2
 180b0d0:	e0bfff17 	ldw	r2,-4(fp)
 180b0d4:	1885883a 	add	r2,r3,r2
 180b0d8:	10800023 	ldbuio	r2,0(r2)
 180b0dc:	10803fcc 	andi	r2,r2,255
}
 180b0e0:	e037883a 	mov	sp,fp
 180b0e4:	df000017 	ldw	fp,0(sp)
 180b0e8:	dec00104 	addi	sp,sp,4
 180b0ec:	f800283a 	ret

0180b0f0 <alt_read_query_entry_16bit>:

alt_u8 alt_read_query_entry_16bit( alt_flash_cfi_dev* flash, int address)
{
 180b0f0:	defffd04 	addi	sp,sp,-12
 180b0f4:	df000215 	stw	fp,8(sp)
 180b0f8:	df000204 	addi	fp,sp,8
 180b0fc:	e13ffe15 	stw	r4,-8(fp)
 180b100:	e17fff15 	stw	r5,-4(fp)
  return (IORD_16DIRECT((alt_u8*)flash->dev.base_addr, address*2) & 0xff);
 180b104:	e0bffe17 	ldw	r2,-8(fp)
 180b108:	10800a17 	ldw	r2,40(r2)
 180b10c:	1007883a 	mov	r3,r2
 180b110:	e0bfff17 	ldw	r2,-4(fp)
 180b114:	1085883a 	add	r2,r2,r2
 180b118:	1885883a 	add	r2,r3,r2
 180b11c:	1080002b 	ldhuio	r2,0(r2)
 180b120:	10803fcc 	andi	r2,r2,255
}
 180b124:	e037883a 	mov	sp,fp
 180b128:	df000017 	ldw	fp,0(sp)
 180b12c:	dec00104 	addi	sp,sp,4
 180b130:	f800283a 	ret

0180b134 <alt_read_query_entry_32bit>:

alt_u8 alt_read_query_entry_32bit( alt_flash_cfi_dev* flash, int address)
{
 180b134:	defffd04 	addi	sp,sp,-12
 180b138:	df000215 	stw	fp,8(sp)
 180b13c:	df000204 	addi	fp,sp,8
 180b140:	e13ffe15 	stw	r4,-8(fp)
 180b144:	e17fff15 	stw	r5,-4(fp)
  return (IORD_32DIRECT((alt_u8*)flash->dev.base_addr, address*4) & 0xff);
 180b148:	e0bffe17 	ldw	r2,-8(fp)
 180b14c:	10800a17 	ldw	r2,40(r2)
 180b150:	1007883a 	mov	r3,r2
 180b154:	e0bfff17 	ldw	r2,-4(fp)
 180b158:	1085883a 	add	r2,r2,r2
 180b15c:	1085883a 	add	r2,r2,r2
 180b160:	1885883a 	add	r2,r3,r2
 180b164:	10800037 	ldwio	r2,0(r2)
 180b168:	10803fcc 	andi	r2,r2,255
}
 180b16c:	e037883a 	mov	sp,fp
 180b170:	df000017 	ldw	fp,0(sp)
 180b174:	dec00104 	addi	sp,sp,4
 180b178:	f800283a 	ret

0180b17c <alt_write_flash_command_8bit_device_8bit_mode>:

/*
 * Write an 8 bit command to a flash
 */
void alt_write_flash_command_8bit_device_8bit_mode( void* base_addr, int offset, alt_u8 value)
{
 180b17c:	defffc04 	addi	sp,sp,-16
 180b180:	df000315 	stw	fp,12(sp)
 180b184:	df000304 	addi	fp,sp,12
 180b188:	e13ffd15 	stw	r4,-12(fp)
 180b18c:	e17ffe15 	stw	r5,-8(fp)
 180b190:	e1bfff05 	stb	r6,-4(fp)
  IOWR_8DIRECT(base_addr, offset, value);
 180b194:	e0fffd17 	ldw	r3,-12(fp)
 180b198:	e0bffe17 	ldw	r2,-8(fp)
 180b19c:	1885883a 	add	r2,r3,r2
 180b1a0:	e0ffff03 	ldbu	r3,-4(fp)
 180b1a4:	10c00025 	stbio	r3,0(r2)
  return;
}
 180b1a8:	e037883a 	mov	sp,fp
 180b1ac:	df000017 	ldw	fp,0(sp)
 180b1b0:	dec00104 	addi	sp,sp,4
 180b1b4:	f800283a 	ret

0180b1b8 <alt_write_flash_command_16bit_device_8bit_mode>:

void alt_write_flash_command_16bit_device_8bit_mode( void* base_addr, int offset, alt_u8 value)
{
 180b1b8:	defffc04 	addi	sp,sp,-16
 180b1bc:	df000315 	stw	fp,12(sp)
 180b1c0:	df000304 	addi	fp,sp,12
 180b1c4:	e13ffd15 	stw	r4,-12(fp)
 180b1c8:	e17ffe15 	stw	r5,-8(fp)
 180b1cc:	e1bfff05 	stb	r6,-4(fp)
  if (offset % 2)
 180b1d0:	e0bffe17 	ldw	r2,-8(fp)
 180b1d4:	1080004c 	andi	r2,r2,1
 180b1d8:	10803fcc 	andi	r2,r2,255
 180b1dc:	1005003a 	cmpeq	r2,r2,zero
 180b1e0:	1000081e 	bne	r2,zero,180b204 <alt_write_flash_command_16bit_device_8bit_mode+0x4c>
  {
    IOWR_8DIRECT(base_addr, offset*2, value);
 180b1e4:	e0bffe17 	ldw	r2,-8(fp)
 180b1e8:	1085883a 	add	r2,r2,r2
 180b1ec:	1007883a 	mov	r3,r2
 180b1f0:	e0bffd17 	ldw	r2,-12(fp)
 180b1f4:	1885883a 	add	r2,r3,r2
 180b1f8:	e0ffff03 	ldbu	r3,-4(fp)
 180b1fc:	10c00025 	stbio	r3,0(r2)
 180b200:	00000806 	br	180b224 <alt_write_flash_command_16bit_device_8bit_mode+0x6c>
  }
  else
  {
    IOWR_8DIRECT(base_addr, (offset*2)+1, value);
 180b204:	e0bffe17 	ldw	r2,-8(fp)
 180b208:	1085883a 	add	r2,r2,r2
 180b20c:	1007883a 	mov	r3,r2
 180b210:	e0bffd17 	ldw	r2,-12(fp)
 180b214:	1885883a 	add	r2,r3,r2
 180b218:	10800044 	addi	r2,r2,1
 180b21c:	e0ffff03 	ldbu	r3,-4(fp)
 180b220:	10c00025 	stbio	r3,0(r2)
  }
  return;
}
 180b224:	e037883a 	mov	sp,fp
 180b228:	df000017 	ldw	fp,0(sp)
 180b22c:	dec00104 	addi	sp,sp,4
 180b230:	f800283a 	ret

0180b234 <alt_write_flash_command_32bit_device_8bit_mode>:

void alt_write_flash_command_32bit_device_8bit_mode( void* base_addr, int offset, alt_u8 value)
{
 180b234:	defffc04 	addi	sp,sp,-16
 180b238:	df000315 	stw	fp,12(sp)
 180b23c:	df000304 	addi	fp,sp,12
 180b240:	e13ffd15 	stw	r4,-12(fp)
 180b244:	e17ffe15 	stw	r5,-8(fp)
 180b248:	e1bfff05 	stb	r6,-4(fp)
  IOWR_8DIRECT(base_addr, offset*4, value);
 180b24c:	e0bffe17 	ldw	r2,-8(fp)
 180b250:	1085883a 	add	r2,r2,r2
 180b254:	1085883a 	add	r2,r2,r2
 180b258:	1007883a 	mov	r3,r2
 180b25c:	e0bffd17 	ldw	r2,-12(fp)
 180b260:	1885883a 	add	r2,r3,r2
 180b264:	e0ffff03 	ldbu	r3,-4(fp)
 180b268:	10c00025 	stbio	r3,0(r2)
  return;
}
 180b26c:	e037883a 	mov	sp,fp
 180b270:	df000017 	ldw	fp,0(sp)
 180b274:	dec00104 	addi	sp,sp,4
 180b278:	f800283a 	ret

0180b27c <alt_write_flash_command_16bit_device_16bit_mode>:

void alt_write_flash_command_16bit_device_16bit_mode( void* base_addr, int offset, alt_u8 value)
{
 180b27c:	defffc04 	addi	sp,sp,-16
 180b280:	df000315 	stw	fp,12(sp)
 180b284:	df000304 	addi	fp,sp,12
 180b288:	e13ffd15 	stw	r4,-12(fp)
 180b28c:	e17ffe15 	stw	r5,-8(fp)
 180b290:	e1bfff05 	stb	r6,-4(fp)
  IOWR_16DIRECT(base_addr, offset*2, ((alt_u16)value)& 0x00ff);
 180b294:	e0bffe17 	ldw	r2,-8(fp)
 180b298:	1085883a 	add	r2,r2,r2
 180b29c:	1007883a 	mov	r3,r2
 180b2a0:	e0bffd17 	ldw	r2,-12(fp)
 180b2a4:	1885883a 	add	r2,r3,r2
 180b2a8:	e0ffff03 	ldbu	r3,-4(fp)
 180b2ac:	10c0002d 	sthio	r3,0(r2)
  return;
}
 180b2b0:	e037883a 	mov	sp,fp
 180b2b4:	df000017 	ldw	fp,0(sp)
 180b2b8:	dec00104 	addi	sp,sp,4
 180b2bc:	f800283a 	ret

0180b2c0 <alt_write_flash_command_32bit_device_16bit_mode>:

void alt_write_flash_command_32bit_device_16bit_mode( void* base_addr, int offset, alt_u8 value)
{
 180b2c0:	defffc04 	addi	sp,sp,-16
 180b2c4:	df000315 	stw	fp,12(sp)
 180b2c8:	df000304 	addi	fp,sp,12
 180b2cc:	e13ffd15 	stw	r4,-12(fp)
 180b2d0:	e17ffe15 	stw	r5,-8(fp)
 180b2d4:	e1bfff05 	stb	r6,-4(fp)
  IOWR_16DIRECT(base_addr, offset*4, ((alt_u16)value)& 0x00ff);
 180b2d8:	e0bffe17 	ldw	r2,-8(fp)
 180b2dc:	1085883a 	add	r2,r2,r2
 180b2e0:	1085883a 	add	r2,r2,r2
 180b2e4:	1007883a 	mov	r3,r2
 180b2e8:	e0bffd17 	ldw	r2,-12(fp)
 180b2ec:	1885883a 	add	r2,r3,r2
 180b2f0:	e0ffff03 	ldbu	r3,-4(fp)
 180b2f4:	10c0002d 	sthio	r3,0(r2)
  return;
}
 180b2f8:	e037883a 	mov	sp,fp
 180b2fc:	df000017 	ldw	fp,0(sp)
 180b300:	dec00104 	addi	sp,sp,4
 180b304:	f800283a 	ret

0180b308 <alt_write_flash_command_32bit_device_32bit_mode>:

void alt_write_flash_command_32bit_device_32bit_mode( void* base_addr, int offset, alt_u8 value)
{
 180b308:	defffc04 	addi	sp,sp,-16
 180b30c:	df000315 	stw	fp,12(sp)
 180b310:	df000304 	addi	fp,sp,12
 180b314:	e13ffd15 	stw	r4,-12(fp)
 180b318:	e17ffe15 	stw	r5,-8(fp)
 180b31c:	e1bfff05 	stb	r6,-4(fp)
  IOWR_32DIRECT(base_addr, offset*4, ((alt_u32)value)& 0x000000ff);
 180b320:	e0bffe17 	ldw	r2,-8(fp)
 180b324:	1085883a 	add	r2,r2,r2
 180b328:	1085883a 	add	r2,r2,r2
 180b32c:	1007883a 	mov	r3,r2
 180b330:	e0bffd17 	ldw	r2,-12(fp)
 180b334:	1885883a 	add	r2,r3,r2
 180b338:	e0ffff03 	ldbu	r3,-4(fp)
 180b33c:	10c00035 	stwio	r3,0(r2)
  return;
}
 180b340:	e037883a 	mov	sp,fp
 180b344:	df000017 	ldw	fp,0(sp)
 180b348:	dec00104 	addi	sp,sp,4
 180b34c:	f800283a 	ret

0180b350 <alt_write_native_8bit>:

/*
 * Write the value passed to the flash
 */
void alt_write_native_8bit( void* address, alt_u32 value)
{
 180b350:	defffd04 	addi	sp,sp,-12
 180b354:	df000215 	stw	fp,8(sp)
 180b358:	df000204 	addi	fp,sp,8
 180b35c:	e13ffe15 	stw	r4,-8(fp)
 180b360:	e17fff15 	stw	r5,-4(fp)
  IOWR_8DIRECT(address, 0, (alt_u8)(value&0xff));
 180b364:	e0bfff17 	ldw	r2,-4(fp)
 180b368:	10c03fcc 	andi	r3,r2,255
 180b36c:	e0bffe17 	ldw	r2,-8(fp)
 180b370:	10c00025 	stbio	r3,0(r2)
  return;
}
 180b374:	e037883a 	mov	sp,fp
 180b378:	df000017 	ldw	fp,0(sp)
 180b37c:	dec00104 	addi	sp,sp,4
 180b380:	f800283a 	ret

0180b384 <alt_write_native_16bit>:

void alt_write_native_16bit( void* address, alt_u32 value)
{
 180b384:	defffd04 	addi	sp,sp,-12
 180b388:	df000215 	stw	fp,8(sp)
 180b38c:	df000204 	addi	fp,sp,8
 180b390:	e13ffe15 	stw	r4,-8(fp)
 180b394:	e17fff15 	stw	r5,-4(fp)
  IOWR_16DIRECT(address, 0, ((alt_u16)value)& 0xffff);
 180b398:	e0bfff17 	ldw	r2,-4(fp)
 180b39c:	10ffffcc 	andi	r3,r2,65535
 180b3a0:	e0bffe17 	ldw	r2,-8(fp)
 180b3a4:	10c0002d 	sthio	r3,0(r2)
  return;
}
 180b3a8:	e037883a 	mov	sp,fp
 180b3ac:	df000017 	ldw	fp,0(sp)
 180b3b0:	dec00104 	addi	sp,sp,4
 180b3b4:	f800283a 	ret

0180b3b8 <alt_write_native_32bit>:

void alt_write_native_32bit( void* address, alt_u32 value)
{
 180b3b8:	defffd04 	addi	sp,sp,-12
 180b3bc:	df000215 	stw	fp,8(sp)
 180b3c0:	df000204 	addi	fp,sp,8
 180b3c4:	e13ffe15 	stw	r4,-8(fp)
 180b3c8:	e17fff15 	stw	r5,-4(fp)
  IOWR_32DIRECT(address, 0, value);
 180b3cc:	e0ffff17 	ldw	r3,-4(fp)
 180b3d0:	e0bffe17 	ldw	r2,-8(fp)
 180b3d4:	10c00035 	stwio	r3,0(r2)
  return;
}
 180b3d8:	e037883a 	mov	sp,fp
 180b3dc:	df000017 	ldw	fp,0(sp)
 180b3e0:	dec00104 	addi	sp,sp,4
 180b3e4:	f800283a 	ret

0180b3e8 <alt_set_flash_width_func>:
 * 
 * Setup the function pointers for writing a byte to the flash for the width
 * of the device
 */
int alt_set_flash_width_func( alt_flash_cfi_dev* flash)
{ 
 180b3e8:	defffb04 	addi	sp,sp,-20
 180b3ec:	df000415 	stw	fp,16(sp)
 180b3f0:	df000404 	addi	fp,sp,16
 180b3f4:	e13ffd15 	stw	r4,-12(fp)
  int ret_code = 0;
 180b3f8:	e03ffc15 	stw	zero,-16(fp)
  
  switch(flash->mode_width)
 180b3fc:	e0bffd17 	ldw	r2,-12(fp)
 180b400:	10802e17 	ldw	r2,184(r2)
 180b404:	e0bfff15 	stw	r2,-4(fp)
 180b408:	e0ffff17 	ldw	r3,-4(fp)
 180b40c:	188000a0 	cmpeqi	r2,r3,2
 180b410:	1000261e 	bne	r2,zero,180b4ac <alt_set_flash_width_func+0xc4>
 180b414:	e0ffff17 	ldw	r3,-4(fp)
 180b418:	18800120 	cmpeqi	r2,r3,4
 180b41c:	1000391e 	bne	r2,zero,180b504 <alt_set_flash_width_func+0x11c>
 180b420:	e0ffff17 	ldw	r3,-4(fp)
 180b424:	18800060 	cmpeqi	r2,r3,1
 180b428:	1000011e 	bne	r2,zero,180b430 <alt_set_flash_width_func+0x48>
 180b42c:	00003e06 	br	180b528 <alt_set_flash_width_func+0x140>
  {
    case 1:
    {
      flash->write_native = alt_write_native_8bit;
 180b430:	e0fffd17 	ldw	r3,-12(fp)
 180b434:	00806074 	movhi	r2,385
 180b438:	10acd404 	addi	r2,r2,-19632
 180b43c:	18803515 	stw	r2,212(r3)

      if (flash->device_width == 1)
 180b440:	e0bffd17 	ldw	r2,-12(fp)
 180b444:	10802f17 	ldw	r2,188(r2)
 180b448:	10800058 	cmpnei	r2,r2,1
 180b44c:	1000051e 	bne	r2,zero,180b464 <alt_set_flash_width_func+0x7c>
      {
        flash->write_command = alt_write_flash_command_8bit_device_8bit_mode;
 180b450:	e0fffd17 	ldw	r3,-12(fp)
 180b454:	00806074 	movhi	r2,385
 180b458:	10ac5f04 	addi	r2,r2,-20100
 180b45c:	18803315 	stw	r2,204(r3)
 180b460:	00003306 	br	180b530 <alt_set_flash_width_func+0x148>
      }
      else if (flash->device_width == 2)
 180b464:	e0bffd17 	ldw	r2,-12(fp)
 180b468:	10802f17 	ldw	r2,188(r2)
 180b46c:	10800098 	cmpnei	r2,r2,2
 180b470:	1000051e 	bne	r2,zero,180b488 <alt_set_flash_width_func+0xa0>
      {
        flash->write_command = alt_write_flash_command_16bit_device_8bit_mode;
 180b474:	e0fffd17 	ldw	r3,-12(fp)
 180b478:	00806074 	movhi	r2,385
 180b47c:	10ac6e04 	addi	r2,r2,-20040
 180b480:	18803315 	stw	r2,204(r3)
 180b484:	00002a06 	br	180b530 <alt_set_flash_width_func+0x148>
      }
      else if (flash->device_width == 4)
 180b488:	e0bffd17 	ldw	r2,-12(fp)
 180b48c:	10802f17 	ldw	r2,188(r2)
 180b490:	10800118 	cmpnei	r2,r2,4
 180b494:	1000261e 	bne	r2,zero,180b530 <alt_set_flash_width_func+0x148>
      {
        flash->write_command = alt_write_flash_command_32bit_device_8bit_mode;
 180b498:	e0fffd17 	ldw	r3,-12(fp)
 180b49c:	00806074 	movhi	r2,385
 180b4a0:	10ac8d04 	addi	r2,r2,-19916
 180b4a4:	18803315 	stw	r2,204(r3)
      }
      break;
 180b4a8:	00002106 	br	180b530 <alt_set_flash_width_func+0x148>
    }
    case 2:
    {
      flash->write_native = alt_write_native_16bit;
 180b4ac:	e0fffd17 	ldw	r3,-12(fp)
 180b4b0:	00806074 	movhi	r2,385
 180b4b4:	10ace104 	addi	r2,r2,-19580
 180b4b8:	18803515 	stw	r2,212(r3)

      if (flash->device_width == 2)
 180b4bc:	e0bffd17 	ldw	r2,-12(fp)
 180b4c0:	10802f17 	ldw	r2,188(r2)
 180b4c4:	10800098 	cmpnei	r2,r2,2
 180b4c8:	1000051e 	bne	r2,zero,180b4e0 <alt_set_flash_width_func+0xf8>
      {
        flash->write_command = alt_write_flash_command_16bit_device_16bit_mode;
 180b4cc:	e0fffd17 	ldw	r3,-12(fp)
 180b4d0:	00806074 	movhi	r2,385
 180b4d4:	10ac9f04 	addi	r2,r2,-19844
 180b4d8:	18803315 	stw	r2,204(r3)
 180b4dc:	00001406 	br	180b530 <alt_set_flash_width_func+0x148>
      }
      else if (flash->device_width == 4)
 180b4e0:	e0bffd17 	ldw	r2,-12(fp)
 180b4e4:	10802f17 	ldw	r2,188(r2)
 180b4e8:	10800118 	cmpnei	r2,r2,4
 180b4ec:	1000101e 	bne	r2,zero,180b530 <alt_set_flash_width_func+0x148>
      {
        flash->write_command = alt_write_flash_command_32bit_device_16bit_mode;
 180b4f0:	e0fffd17 	ldw	r3,-12(fp)
 180b4f4:	00806074 	movhi	r2,385
 180b4f8:	10acb004 	addi	r2,r2,-19776
 180b4fc:	18803315 	stw	r2,204(r3)
      }

      break;
 180b500:	00000b06 	br	180b530 <alt_set_flash_width_func+0x148>
    }
    case 4:
    {
      flash->write_native = alt_write_native_32bit;
 180b504:	e0fffd17 	ldw	r3,-12(fp)
 180b508:	00806074 	movhi	r2,385
 180b50c:	10acee04 	addi	r2,r2,-19528
 180b510:	18803515 	stw	r2,212(r3)
      flash->write_command = alt_write_flash_command_32bit_device_32bit_mode;
 180b514:	e0fffd17 	ldw	r3,-12(fp)
 180b518:	00806074 	movhi	r2,385
 180b51c:	10acc204 	addi	r2,r2,-19704
 180b520:	18803315 	stw	r2,204(r3)
      break;
 180b524:	00000206 	br	180b530 <alt_set_flash_width_func+0x148>
    }
    default:
    {
      ret_code = -EACCES;
 180b528:	00bffcc4 	movi	r2,-13
 180b52c:	e0bffc15 	stw	r2,-16(fp)
    }
  }

  if (!ret_code)
 180b530:	e0bffc17 	ldw	r2,-16(fp)
 180b534:	1004c03a 	cmpne	r2,r2,zero
 180b538:	10001e1e 	bne	r2,zero,180b5b4 <alt_set_flash_width_func+0x1cc>
  {
    switch(flash->device_width)
 180b53c:	e0bffd17 	ldw	r2,-12(fp)
 180b540:	10802f17 	ldw	r2,188(r2)
 180b544:	e0bffe15 	stw	r2,-8(fp)
 180b548:	e0fffe17 	ldw	r3,-8(fp)
 180b54c:	188000a0 	cmpeqi	r2,r3,2
 180b550:	10000c1e 	bne	r2,zero,180b584 <alt_set_flash_width_func+0x19c>
 180b554:	e0fffe17 	ldw	r3,-8(fp)
 180b558:	18800120 	cmpeqi	r2,r3,4
 180b55c:	10000e1e 	bne	r2,zero,180b598 <alt_set_flash_width_func+0x1b0>
 180b560:	e0fffe17 	ldw	r3,-8(fp)
 180b564:	18800060 	cmpeqi	r2,r3,1
 180b568:	1000011e 	bne	r2,zero,180b570 <alt_set_flash_width_func+0x188>
 180b56c:	00000f06 	br	180b5ac <alt_set_flash_width_func+0x1c4>
    {
      case 1:
      {
        flash->read_query = alt_read_query_entry_8bit;
 180b570:	e0fffd17 	ldw	r3,-12(fp)
 180b574:	00806074 	movhi	r2,385
 180b578:	10ac2c04 	addi	r2,r2,-20304
 180b57c:	18803415 	stw	r2,208(r3)
        break;
 180b580:	00000c06 	br	180b5b4 <alt_set_flash_width_func+0x1cc>
      }
      case 2:
      {
        flash->read_query = alt_read_query_entry_16bit;
 180b584:	e0fffd17 	ldw	r3,-12(fp)
 180b588:	00806074 	movhi	r2,385
 180b58c:	10ac3c04 	addi	r2,r2,-20240
 180b590:	18803415 	stw	r2,208(r3)
        break;
 180b594:	00000706 	br	180b5b4 <alt_set_flash_width_func+0x1cc>
      }
      case 4:
      {
        flash->read_query = alt_read_query_entry_32bit;
 180b598:	e0fffd17 	ldw	r3,-12(fp)
 180b59c:	00806074 	movhi	r2,385
 180b5a0:	10ac4d04 	addi	r2,r2,-20172
 180b5a4:	18803415 	stw	r2,208(r3)
        break;
 180b5a8:	00000206 	br	180b5b4 <alt_set_flash_width_func+0x1cc>
      }
      default:
      {
        ret_code = -EACCES;
 180b5ac:	00bffcc4 	movi	r2,-13
 180b5b0:	e0bffc15 	stw	r2,-16(fp)
      }
    }
  }

  return ret_code;
 180b5b4:	e0bffc17 	ldw	r2,-16(fp)
}
 180b5b8:	e037883a 	mov	sp,fp
 180b5bc:	df000017 	ldw	fp,0(sp)
 180b5c0:	dec00104 	addi	sp,sp,4
 180b5c4:	f800283a 	ret

0180b5c8 <alt_set_flash_algorithm_func>:
 * 
 * Setup the function pointers to the functions for this algorithm
 * 
 */
int alt_set_flash_algorithm_func( alt_flash_cfi_dev* flash)
{
 180b5c8:	defffc04 	addi	sp,sp,-16
 180b5cc:	df000315 	stw	fp,12(sp)
 180b5d0:	df000304 	addi	fp,sp,12
 180b5d4:	e13ffe15 	stw	r4,-8(fp)
  int ret_code = 0;
 180b5d8:	e03ffd15 	stw	zero,-12(fp)
 
  switch(flash->algorithm)
 180b5dc:	e0bffe17 	ldw	r2,-8(fp)
 180b5e0:	10802d17 	ldw	r2,180(r2)
 180b5e4:	e0bfff15 	stw	r2,-4(fp)
 180b5e8:	e0ffff17 	ldw	r3,-4(fp)
 180b5ec:	188000a0 	cmpeqi	r2,r3,2
 180b5f0:	1000071e 	bne	r2,zero,180b610 <alt_set_flash_algorithm_func+0x48>
 180b5f4:	e0ffff17 	ldw	r3,-4(fp)
 180b5f8:	188000e0 	cmpeqi	r2,r3,3
 180b5fc:	10000d1e 	bne	r2,zero,180b634 <alt_set_flash_algorithm_func+0x6c>
 180b600:	e0ffff17 	ldw	r3,-4(fp)
 180b604:	18800060 	cmpeqi	r2,r3,1
 180b608:	10000a1e 	bne	r2,zero,180b634 <alt_set_flash_algorithm_func+0x6c>
 180b60c:	00001206 	br	180b658 <alt_set_flash_algorithm_func+0x90>
  {
    case CFI_ALG_AMD:
    {
      flash->dev.erase_block = alt_erase_block_amd;
 180b610:	e0fffe17 	ldw	r3,-8(fp)
 180b614:	00806074 	movhi	r2,385
 180b618:	10be0a04 	addi	r2,r2,-2008
 180b61c:	18800815 	stw	r2,32(r3)
      flash->dev.write_block = alt_program_amd;
 180b620:	e0fffe17 	ldw	r3,-8(fp)
 180b624:	00806074 	movhi	r2,385
 180b628:	10bdf004 	addi	r2,r2,-2112
 180b62c:	18800915 	stw	r2,36(r3)
      break;
 180b630:	00000b06 	br	180b660 <alt_set_flash_algorithm_func+0x98>
    }
    case CFI_ALG_INTEL:
    case CFI_ALG_INTEL_STRATA:
    {
      flash->dev.erase_block = alt_erase_block_intel;
 180b634:	e0fffe17 	ldw	r3,-8(fp)
 180b638:	00806074 	movhi	r2,385
 180b63c:	10bf2904 	addi	r2,r2,-860
 180b640:	18800815 	stw	r2,32(r3)
      flash->dev.write_block = alt_program_intel;
 180b644:	e0fffe17 	ldw	r3,-8(fp)
 180b648:	00806074 	movhi	r2,385
 180b64c:	10bf0804 	addi	r2,r2,-992
 180b650:	18800915 	stw	r2,36(r3)
      break;
 180b654:	00000206 	br	180b660 <alt_set_flash_algorithm_func+0x98>
    }
    default:
    {
      ret_code = -EIO;
 180b658:	00bffec4 	movi	r2,-5
 180b65c:	e0bffd15 	stw	r2,-12(fp)
    }
  } 
  return ret_code;  
 180b660:	e0bffd17 	ldw	r2,-12(fp)
}
 180b664:	e037883a 	mov	sp,fp
 180b668:	df000017 	ldw	fp,0(sp)
 180b66c:	dec00104 	addi	sp,sp,4
 180b670:	f800283a 	ret

0180b674 <alt_read_16bit_query_entry>:
 * read_16bit_query_entry
 * 
 * Read a 16 bit entry from the CFI Query table
 */
static alt_u16 alt_read_16bit_query_entry(alt_flash_cfi_dev* flash, int address)
{
 180b674:	defffb04 	addi	sp,sp,-20
 180b678:	dfc00415 	stw	ra,16(sp)
 180b67c:	df000315 	stw	fp,12(sp)
 180b680:	df000304 	addi	fp,sp,12
 180b684:	e13ffe15 	stw	r4,-8(fp)
 180b688:	e17fff15 	stw	r5,-4(fp)
  alt_u16 ret_code;

  ret_code = (*flash->read_query)( flash, address);
 180b68c:	e0bffe17 	ldw	r2,-8(fp)
 180b690:	10803417 	ldw	r2,208(r2)
 180b694:	e13ffe17 	ldw	r4,-8(fp)
 180b698:	e17fff17 	ldw	r5,-4(fp)
 180b69c:	103ee83a 	callr	r2
 180b6a0:	10803fcc 	andi	r2,r2,255
 180b6a4:	e0bffd0d 	sth	r2,-12(fp)
  ret_code |= (((int)(*flash->read_query)(flash, address+1)) << 8);                   
 180b6a8:	e0bffe17 	ldw	r2,-8(fp)
 180b6ac:	10c03417 	ldw	r3,208(r2)
 180b6b0:	e0bfff17 	ldw	r2,-4(fp)
 180b6b4:	11400044 	addi	r5,r2,1
 180b6b8:	e13ffe17 	ldw	r4,-8(fp)
 180b6bc:	183ee83a 	callr	r3
 180b6c0:	10803fcc 	andi	r2,r2,255
 180b6c4:	1004923a 	slli	r2,r2,8
 180b6c8:	1007883a 	mov	r3,r2
 180b6cc:	e0bffd0b 	ldhu	r2,-12(fp)
 180b6d0:	1884b03a 	or	r2,r3,r2
 180b6d4:	e0bffd0d 	sth	r2,-12(fp)

  return ret_code;
 180b6d8:	e0bffd0b 	ldhu	r2,-12(fp)
}
 180b6dc:	e037883a 	mov	sp,fp
 180b6e0:	dfc00117 	ldw	ra,4(sp)
 180b6e4:	df000017 	ldw	fp,0(sp)
 180b6e8:	dec00204 	addi	sp,sp,8
 180b6ec:	f800283a 	ret

0180b6f0 <alt_read_cfi_table>:
 * read_cfi_table
 * 
 * Read the CFI Table
 */
int alt_read_cfi_table(alt_flash_cfi_dev* flash)
{
 180b6f0:	defff204 	addi	sp,sp,-56
 180b6f4:	dfc00d15 	stw	ra,52(sp)
 180b6f8:	df000c15 	stw	fp,48(sp)
 180b6fc:	dc000b15 	stw	r16,44(sp)
 180b700:	df000b04 	addi	fp,sp,44
 180b704:	e13fff15 	stw	r4,-4(fp)
  int   i,j;
  int   device_size;
  int   ret_code = 0;
 180b708:	e03ffb15 	stw	zero,-20(fp)
  int   size = 0;
 180b70c:	e03ffa15 	stw	zero,-24(fp)
  int   swap;
  int   typical_timeout;
  int   max_timeout;
  int   offset = 0;
 180b710:	e03ff615 	stw	zero,-40(fp)
   
  /*
  * Check that the Primary Vendor Specific table
  * starts with the letters PRI                                                         
  */
  ret_code = alt_check_primary_table(flash);
 180b714:	e13fff17 	ldw	r4,-4(fp)
 180b718:	180c41c0 	call	180c41c <alt_check_primary_table>
 180b71c:	e0bffb15 	stw	r2,-20(fp)

  if (!ret_code)
 180b720:	e0bffb17 	ldw	r2,-20(fp)
 180b724:	1004c03a 	cmpne	r2,r2,zero
 180b728:	10014a1e 	bne	r2,zero,180bc54 <alt_read_cfi_table+0x564>
  {
    flash->algorithm = (*flash->read_query)(flash, 0x13);
 180b72c:	e0bfff17 	ldw	r2,-4(fp)
 180b730:	10803417 	ldw	r2,208(r2)
 180b734:	e13fff17 	ldw	r4,-4(fp)
 180b738:	014004c4 	movi	r5,19
 180b73c:	103ee83a 	callr	r2
 180b740:	10c03fcc 	andi	r3,r2,255
 180b744:	e0bfff17 	ldw	r2,-4(fp)
 180b748:	10c02d15 	stw	r3,180(r2)
  
    /* 
     * Let's read the write timeout values from the flash 
     * 
     */
    typical_timeout = (*flash->read_query)( flash, 0x1f);
 180b74c:	e0bfff17 	ldw	r2,-4(fp)
 180b750:	10803417 	ldw	r2,208(r2)
 180b754:	e13fff17 	ldw	r4,-4(fp)
 180b758:	014007c4 	movi	r5,31
 180b75c:	103ee83a 	callr	r2
 180b760:	10803fcc 	andi	r2,r2,255
 180b764:	e0bff815 	stw	r2,-32(fp)
    max_timeout = (*flash->read_query)( flash, 0x23);
 180b768:	e0bfff17 	ldw	r2,-4(fp)
 180b76c:	10803417 	ldw	r2,208(r2)
 180b770:	e13fff17 	ldw	r4,-4(fp)
 180b774:	014008c4 	movi	r5,35
 180b778:	103ee83a 	callr	r2
 180b77c:	10803fcc 	andi	r2,r2,255
 180b780:	e0bff715 	stw	r2,-36(fp)
    
    if ((typical_timeout == 0 ) || (max_timeout == 0))
 180b784:	e0bff817 	ldw	r2,-32(fp)
 180b788:	1005003a 	cmpeq	r2,r2,zero
 180b78c:	1000031e 	bne	r2,zero,180b79c <alt_read_cfi_table+0xac>
 180b790:	e0bff717 	ldw	r2,-36(fp)
 180b794:	1004c03a 	cmpne	r2,r2,zero
 180b798:	1000041e 	bne	r2,zero,180b7ac <alt_read_cfi_table+0xbc>
    {
      flash->write_timeout = 1000; /* 1ms should be more than enough */
 180b79c:	e0ffff17 	ldw	r3,-4(fp)
 180b7a0:	0080fa04 	movi	r2,1000
 180b7a4:	18803015 	stw	r2,192(r3)
     * 
     */
    typical_timeout = (*flash->read_query)( flash, 0x1f);
    max_timeout = (*flash->read_query)( flash, 0x23);
    
    if ((typical_timeout == 0 ) || (max_timeout == 0))
 180b7a8:	00000706 	br	180b7c8 <alt_read_cfi_table+0xd8>
    {
      flash->write_timeout = 1000; /* 1ms should be more than enough */
    }
    else
    {
      flash->write_timeout = (1 << typical_timeout) * (1 << max_timeout);
 180b7ac:	00c00044 	movi	r3,1
 180b7b0:	e0bff817 	ldw	r2,-32(fp)
 180b7b4:	1886983a 	sll	r3,r3,r2
 180b7b8:	e0bff717 	ldw	r2,-36(fp)
 180b7bc:	1886983a 	sll	r3,r3,r2
 180b7c0:	e0bfff17 	ldw	r2,-4(fp)
 180b7c4:	10c03015 	stw	r3,192(r2)
    }
   
    /* Let's read the block erase timeout values from the flash */
    typical_timeout = (*flash->read_query)( flash, 0x21);
 180b7c8:	e0bfff17 	ldw	r2,-4(fp)
 180b7cc:	10803417 	ldw	r2,208(r2)
 180b7d0:	e13fff17 	ldw	r4,-4(fp)
 180b7d4:	01400844 	movi	r5,33
 180b7d8:	103ee83a 	callr	r2
 180b7dc:	10803fcc 	andi	r2,r2,255
 180b7e0:	e0bff815 	stw	r2,-32(fp)
    max_timeout = (*flash->read_query)( flash, 0x25);
 180b7e4:	e0bfff17 	ldw	r2,-4(fp)
 180b7e8:	10803417 	ldw	r2,208(r2)
 180b7ec:	e13fff17 	ldw	r4,-4(fp)
 180b7f0:	01400944 	movi	r5,37
 180b7f4:	103ee83a 	callr	r2
 180b7f8:	10803fcc 	andi	r2,r2,255
 180b7fc:	e0bff715 	stw	r2,-36(fp)
    
    if ((typical_timeout == 0 ) || (max_timeout == 0))
 180b800:	e0bff817 	ldw	r2,-32(fp)
 180b804:	1005003a 	cmpeq	r2,r2,zero
 180b808:	1000031e 	bne	r2,zero,180b818 <alt_read_cfi_table+0x128>
 180b80c:	e0bff717 	ldw	r2,-36(fp)
 180b810:	1004c03a 	cmpne	r2,r2,zero
 180b814:	1000051e 	bne	r2,zero,180b82c <alt_read_cfi_table+0x13c>
    {
      flash->erase_timeout = 20000000; /* 20s should be more than enough */
 180b818:	e0ffff17 	ldw	r3,-4(fp)
 180b81c:	00804c74 	movhi	r2,305
 180b820:	108b4004 	addi	r2,r2,11520
 180b824:	18803115 	stw	r2,196(r3)
   
    /* Let's read the block erase timeout values from the flash */
    typical_timeout = (*flash->read_query)( flash, 0x21);
    max_timeout = (*flash->read_query)( flash, 0x25);
    
    if ((typical_timeout == 0 ) || (max_timeout == 0))
 180b828:	00000806 	br	180b84c <alt_read_cfi_table+0x15c>
    {
      flash->erase_timeout = 20000000; /* 20s should be more than enough */
    }
    else
    {
      flash->erase_timeout = (1 << typical_timeout) * (1 << max_timeout) * 1000;
 180b82c:	00c00044 	movi	r3,1
 180b830:	e0bff817 	ldw	r2,-32(fp)
 180b834:	1886983a 	sll	r3,r3,r2
 180b838:	e0bff717 	ldw	r2,-36(fp)
 180b83c:	1884983a 	sll	r2,r3,r2
 180b840:	10c0fa24 	muli	r3,r2,1000
 180b844:	e0bfff17 	ldw	r2,-4(fp)
 180b848:	10c03115 	stw	r3,196(r2)
    }
   
    device_size = 0x1 << (*flash->read_query)( flash, 0x27);
 180b84c:	e0bfff17 	ldw	r2,-4(fp)
 180b850:	10803417 	ldw	r2,208(r2)
 180b854:	e13fff17 	ldw	r4,-4(fp)
 180b858:	014009c4 	movi	r5,39
 180b85c:	103ee83a 	callr	r2
 180b860:	10c03fcc 	andi	r3,r2,255
 180b864:	00800044 	movi	r2,1
 180b868:	10c4983a 	sll	r2,r2,r3
 180b86c:	e0bffc15 	stw	r2,-16(fp)
  
    flash->dev.number_of_regions = (*flash->read_query)(flash, 0x2c);
 180b870:	e0bfff17 	ldw	r2,-4(fp)
 180b874:	10803417 	ldw	r2,208(r2)
 180b878:	e13fff17 	ldw	r4,-4(fp)
 180b87c:	01400b04 	movi	r5,44
 180b880:	103ee83a 	callr	r2
 180b884:	10c03fcc 	andi	r3,r2,255
 180b888:	e0bfff17 	ldw	r2,-4(fp)
 180b88c:	10c00c15 	stw	r3,48(r2)
    
    if (flash->dev.number_of_regions > ALT_MAX_NUMBER_OF_FLASH_REGIONS)
 180b890:	e0bfff17 	ldw	r2,-4(fp)
 180b894:	10800c17 	ldw	r2,48(r2)
 180b898:	10800250 	cmplti	r2,r2,9
 180b89c:	1000031e 	bne	r2,zero,180b8ac <alt_read_cfi_table+0x1bc>
    {
      ret_code = -ENOMEM;
 180b8a0:	00bffd04 	movi	r2,-12
 180b8a4:	e0bffb15 	stw	r2,-20(fp)
 180b8a8:	00005e06 	br	180ba24 <alt_read_cfi_table+0x334>
    }
    else
    {
      for(i=0;i<flash->dev.number_of_regions;i++)
 180b8ac:	e03ffe15 	stw	zero,-8(fp)
 180b8b0:	00005306 	br	180ba00 <alt_read_cfi_table+0x310>
      {
        flash->dev.region_info[i].number_of_blocks =  alt_read_16bit_query_entry( 
 180b8b4:	e43ffe17 	ldw	r16,-8(fp)
 180b8b8:	e0bffe17 	ldw	r2,-8(fp)
 180b8bc:	1085883a 	add	r2,r2,r2
 180b8c0:	1085883a 	add	r2,r2,r2
 180b8c4:	11400b44 	addi	r5,r2,45
 180b8c8:	e13fff17 	ldw	r4,-4(fp)
 180b8cc:	180b6740 	call	180b674 <alt_read_16bit_query_entry>
 180b8d0:	113fffcc 	andi	r4,r2,65535
 180b8d4:	e0ffff17 	ldw	r3,-4(fp)
 180b8d8:	8004913a 	slli	r2,r16,4
 180b8dc:	10c5883a 	add	r2,r2,r3
 180b8e0:	10800f04 	addi	r2,r2,60
 180b8e4:	11000015 	stw	r4,0(r2)
                                                            flash,
                                                            (0x2D+i*4));
        flash->dev.region_info[i].number_of_blocks += 1; 
 180b8e8:	e17ffe17 	ldw	r5,-8(fp)
 180b8ec:	e0bffe17 	ldw	r2,-8(fp)
 180b8f0:	e0ffff17 	ldw	r3,-4(fp)
 180b8f4:	1004913a 	slli	r2,r2,4
 180b8f8:	10c5883a 	add	r2,r2,r3
 180b8fc:	10800f04 	addi	r2,r2,60
 180b900:	10800017 	ldw	r2,0(r2)
 180b904:	11000044 	addi	r4,r2,1
 180b908:	e0ffff17 	ldw	r3,-4(fp)
 180b90c:	2804913a 	slli	r2,r5,4
 180b910:	10c5883a 	add	r2,r2,r3
 180b914:	10800f04 	addi	r2,r2,60
 180b918:	11000015 	stw	r4,0(r2)
        flash->dev.region_info[i].block_size =  alt_read_16bit_query_entry( flash, 
 180b91c:	e43ffe17 	ldw	r16,-8(fp)
 180b920:	e0bffe17 	ldw	r2,-8(fp)
 180b924:	1085883a 	add	r2,r2,r2
 180b928:	1085883a 	add	r2,r2,r2
 180b92c:	11400bc4 	addi	r5,r2,47
 180b930:	e13fff17 	ldw	r4,-4(fp)
 180b934:	180b6740 	call	180b674 <alt_read_16bit_query_entry>
 180b938:	113fffcc 	andi	r4,r2,65535
 180b93c:	e0ffff17 	ldw	r3,-4(fp)
 180b940:	8004913a 	slli	r2,r16,4
 180b944:	10c5883a 	add	r2,r2,r3
 180b948:	10801004 	addi	r2,r2,64
 180b94c:	11000015 	stw	r4,0(r2)
                                                              (0x2F+i*4));
        flash->dev.region_info[i].block_size *= 256;
 180b950:	e17ffe17 	ldw	r5,-8(fp)
 180b954:	e0bffe17 	ldw	r2,-8(fp)
 180b958:	e0ffff17 	ldw	r3,-4(fp)
 180b95c:	1004913a 	slli	r2,r2,4
 180b960:	10c5883a 	add	r2,r2,r3
 180b964:	10801004 	addi	r2,r2,64
 180b968:	10800017 	ldw	r2,0(r2)
 180b96c:	1008923a 	slli	r4,r2,8
 180b970:	e0ffff17 	ldw	r3,-4(fp)
 180b974:	2804913a 	slli	r2,r5,4
 180b978:	10c5883a 	add	r2,r2,r3
 180b97c:	10801004 	addi	r2,r2,64
 180b980:	11000015 	stw	r4,0(r2)
        flash->dev.region_info[i].region_size = 
 180b984:	e17ffe17 	ldw	r5,-8(fp)
 180b988:	e0bffe17 	ldw	r2,-8(fp)
 180b98c:	e0ffff17 	ldw	r3,-4(fp)
 180b990:	1004913a 	slli	r2,r2,4
 180b994:	10c5883a 	add	r2,r2,r3
 180b998:	10800f04 	addi	r2,r2,60
 180b99c:	11000017 	ldw	r4,0(r2)
 180b9a0:	e0bffe17 	ldw	r2,-8(fp)
 180b9a4:	e0ffff17 	ldw	r3,-4(fp)
 180b9a8:	1004913a 	slli	r2,r2,4
 180b9ac:	10c5883a 	add	r2,r2,r3
 180b9b0:	10801004 	addi	r2,r2,64
 180b9b4:	10800017 	ldw	r2,0(r2)
 180b9b8:	2089383a 	mul	r4,r4,r2
 180b9bc:	e0ffff17 	ldw	r3,-4(fp)
 180b9c0:	2804913a 	slli	r2,r5,4
 180b9c4:	10c5883a 	add	r2,r2,r3
 180b9c8:	10800e04 	addi	r2,r2,56
 180b9cc:	11000015 	stw	r4,0(r2)
                                    flash->dev.region_info[i].number_of_blocks 
                                    * flash->dev.region_info[i].block_size;
        size += flash->dev.region_info[i].region_size;
 180b9d0:	e0bffe17 	ldw	r2,-8(fp)
 180b9d4:	e0ffff17 	ldw	r3,-4(fp)
 180b9d8:	1004913a 	slli	r2,r2,4
 180b9dc:	10c5883a 	add	r2,r2,r3
 180b9e0:	10800e04 	addi	r2,r2,56
 180b9e4:	10c00017 	ldw	r3,0(r2)
 180b9e8:	e0bffa17 	ldw	r2,-24(fp)
 180b9ec:	10c5883a 	add	r2,r2,r3
 180b9f0:	e0bffa15 	stw	r2,-24(fp)
    {
      ret_code = -ENOMEM;
    }
    else
    {
      for(i=0;i<flash->dev.number_of_regions;i++)
 180b9f4:	e0bffe17 	ldw	r2,-8(fp)
 180b9f8:	10800044 	addi	r2,r2,1
 180b9fc:	e0bffe15 	stw	r2,-8(fp)
 180ba00:	e0bfff17 	ldw	r2,-4(fp)
 180ba04:	10c00c17 	ldw	r3,48(r2)
 180ba08:	e0bffe17 	ldw	r2,-8(fp)
 180ba0c:	10ffa916 	blt	r2,r3,180b8b4 <alt_read_cfi_table+0x1c4>
                                    flash->dev.region_info[i].number_of_blocks 
                                    * flash->dev.region_info[i].block_size;
        size += flash->dev.region_info[i].region_size;
      }
       
      if (size != device_size)
 180ba10:	e0fffa17 	ldw	r3,-24(fp)
 180ba14:	e0bffc17 	ldw	r2,-16(fp)
 180ba18:	18800226 	beq	r3,r2,180ba24 <alt_read_cfi_table+0x334>
      {
        ret_code = -ENODEV;
 180ba1c:	00bffb44 	movi	r2,-19
 180ba20:	e0bffb15 	stw	r2,-20(fp)
      }
    }
    
    boot_mode = (*flash->read_query)( flash, flash->primary_address + 0xf);
 180ba24:	e0bfff17 	ldw	r2,-4(fp)
 180ba28:	10c03417 	ldw	r3,208(r2)
 180ba2c:	e0bfff17 	ldw	r2,-4(fp)
 180ba30:	10803217 	ldw	r2,200(r2)
 180ba34:	114003c4 	addi	r5,r2,15
 180ba38:	e13fff17 	ldw	r4,-4(fp)
 180ba3c:	183ee83a 	callr	r3
 180ba40:	e0bff505 	stb	r2,-44(fp)
     * Intel Flash parts describe the sections in the order they appear
     * for AMD they just put all the small ones first then the bigger ones
     * So if it's a top boot part we have to reverse the order of the sectors
     * so they're in the correct order
     */
    if ((flash->algorithm == CFI_ALG_AMD) && (boot_mode == TOP_BOOT_DEVICE))
 180ba44:	e0bfff17 	ldw	r2,-4(fp)
 180ba48:	10802d17 	ldw	r2,180(r2)
 180ba4c:	10800098 	cmpnei	r2,r2,2
 180ba50:	1000601e 	bne	r2,zero,180bbd4 <alt_read_cfi_table+0x4e4>
 180ba54:	e0bff503 	ldbu	r2,-44(fp)
 180ba58:	108000d8 	cmpnei	r2,r2,3
 180ba5c:	10005d1e 	bne	r2,zero,180bbd4 <alt_read_cfi_table+0x4e4>
    {
      for(i=flash->dev.number_of_regions-1, j=0;
 180ba60:	e0bfff17 	ldw	r2,-4(fp)
 180ba64:	10800c17 	ldw	r2,48(r2)
 180ba68:	10bfffc4 	addi	r2,r2,-1
 180ba6c:	e0bffe15 	stw	r2,-8(fp)
 180ba70:	e03ffd15 	stw	zero,-12(fp)
          j<=i;i--,j++)
 180ba74:	00005406 	br	180bbc8 <alt_read_cfi_table+0x4d8>
      {
        swap = flash->dev.region_info[i].region_size;
 180ba78:	e0bffe17 	ldw	r2,-8(fp)
 180ba7c:	e0ffff17 	ldw	r3,-4(fp)
 180ba80:	1004913a 	slli	r2,r2,4
 180ba84:	10c5883a 	add	r2,r2,r3
 180ba88:	10800e04 	addi	r2,r2,56
 180ba8c:	10800017 	ldw	r2,0(r2)
 180ba90:	e0bff915 	stw	r2,-28(fp)
        flash->dev.region_info[i].region_size =  
 180ba94:	e17ffe17 	ldw	r5,-8(fp)
 180ba98:	e0bffd17 	ldw	r2,-12(fp)
 180ba9c:	e0ffff17 	ldw	r3,-4(fp)
 180baa0:	1004913a 	slli	r2,r2,4
 180baa4:	10c5883a 	add	r2,r2,r3
 180baa8:	10800e04 	addi	r2,r2,56
 180baac:	11000017 	ldw	r4,0(r2)
 180bab0:	e0ffff17 	ldw	r3,-4(fp)
 180bab4:	2804913a 	slli	r2,r5,4
 180bab8:	10c5883a 	add	r2,r2,r3
 180babc:	10800e04 	addi	r2,r2,56
 180bac0:	11000015 	stw	r4,0(r2)
                                flash->dev.region_info[j].region_size;
        flash->dev.region_info[j].region_size = swap;
 180bac4:	e0bffd17 	ldw	r2,-12(fp)
 180bac8:	e0ffff17 	ldw	r3,-4(fp)
 180bacc:	1004913a 	slli	r2,r2,4
 180bad0:	10c5883a 	add	r2,r2,r3
 180bad4:	10c00e04 	addi	r3,r2,56
 180bad8:	e0bff917 	ldw	r2,-28(fp)
 180badc:	18800015 	stw	r2,0(r3)

        swap = flash->dev.region_info[i].block_size;
 180bae0:	e0bffe17 	ldw	r2,-8(fp)
 180bae4:	e0ffff17 	ldw	r3,-4(fp)
 180bae8:	1004913a 	slli	r2,r2,4
 180baec:	10c5883a 	add	r2,r2,r3
 180baf0:	10801004 	addi	r2,r2,64
 180baf4:	10800017 	ldw	r2,0(r2)
 180baf8:	e0bff915 	stw	r2,-28(fp)
        flash->dev.region_info[i].block_size =  
 180bafc:	e17ffe17 	ldw	r5,-8(fp)
 180bb00:	e0bffd17 	ldw	r2,-12(fp)
 180bb04:	e0ffff17 	ldw	r3,-4(fp)
 180bb08:	1004913a 	slli	r2,r2,4
 180bb0c:	10c5883a 	add	r2,r2,r3
 180bb10:	10801004 	addi	r2,r2,64
 180bb14:	11000017 	ldw	r4,0(r2)
 180bb18:	e0ffff17 	ldw	r3,-4(fp)
 180bb1c:	2804913a 	slli	r2,r5,4
 180bb20:	10c5883a 	add	r2,r2,r3
 180bb24:	10801004 	addi	r2,r2,64
 180bb28:	11000015 	stw	r4,0(r2)
                                flash->dev.region_info[j].block_size;
        flash->dev.region_info[j].block_size = swap;
 180bb2c:	e0bffd17 	ldw	r2,-12(fp)
 180bb30:	e0ffff17 	ldw	r3,-4(fp)
 180bb34:	1004913a 	slli	r2,r2,4
 180bb38:	10c5883a 	add	r2,r2,r3
 180bb3c:	10c01004 	addi	r3,r2,64
 180bb40:	e0bff917 	ldw	r2,-28(fp)
 180bb44:	18800015 	stw	r2,0(r3)
 
        swap = flash->dev.region_info[i].number_of_blocks;
 180bb48:	e0bffe17 	ldw	r2,-8(fp)
 180bb4c:	e0ffff17 	ldw	r3,-4(fp)
 180bb50:	1004913a 	slli	r2,r2,4
 180bb54:	10c5883a 	add	r2,r2,r3
 180bb58:	10800f04 	addi	r2,r2,60
 180bb5c:	10800017 	ldw	r2,0(r2)
 180bb60:	e0bff915 	stw	r2,-28(fp)
        flash->dev.region_info[i].number_of_blocks =  
 180bb64:	e17ffe17 	ldw	r5,-8(fp)
 180bb68:	e0bffd17 	ldw	r2,-12(fp)
 180bb6c:	e0ffff17 	ldw	r3,-4(fp)
 180bb70:	1004913a 	slli	r2,r2,4
 180bb74:	10c5883a 	add	r2,r2,r3
 180bb78:	10800f04 	addi	r2,r2,60
 180bb7c:	11000017 	ldw	r4,0(r2)
 180bb80:	e0ffff17 	ldw	r3,-4(fp)
 180bb84:	2804913a 	slli	r2,r5,4
 180bb88:	10c5883a 	add	r2,r2,r3
 180bb8c:	10800f04 	addi	r2,r2,60
 180bb90:	11000015 	stw	r4,0(r2)
                                flash->dev.region_info[j].number_of_blocks;
        flash->dev.region_info[j].number_of_blocks = swap;
 180bb94:	e0bffd17 	ldw	r2,-12(fp)
 180bb98:	e0ffff17 	ldw	r3,-4(fp)
 180bb9c:	1004913a 	slli	r2,r2,4
 180bba0:	10c5883a 	add	r2,r2,r3
 180bba4:	10c00f04 	addi	r3,r2,60
 180bba8:	e0bff917 	ldw	r2,-28(fp)
 180bbac:	18800015 	stw	r2,0(r3)
     * so they're in the correct order
     */
    if ((flash->algorithm == CFI_ALG_AMD) && (boot_mode == TOP_BOOT_DEVICE))
    {
      for(i=flash->dev.number_of_regions-1, j=0;
          j<=i;i--,j++)
 180bbb0:	e0bffe17 	ldw	r2,-8(fp)
 180bbb4:	10bfffc4 	addi	r2,r2,-1
 180bbb8:	e0bffe15 	stw	r2,-8(fp)
 180bbbc:	e0bffd17 	ldw	r2,-12(fp)
 180bbc0:	10800044 	addi	r2,r2,1
 180bbc4:	e0bffd15 	stw	r2,-12(fp)
 180bbc8:	e0fffd17 	ldw	r3,-12(fp)
 180bbcc:	e0bffe17 	ldw	r2,-8(fp)
 180bbd0:	10ffa90e 	bge	r2,r3,180ba78 <alt_read_cfi_table+0x388>
        flash->dev.region_info[j].number_of_blocks = swap;

      } 
    }
    
    for(i=0;i<flash->dev.number_of_regions;i++)
 180bbd4:	e03ffe15 	stw	zero,-8(fp)
 180bbd8:	00001306 	br	180bc28 <alt_read_cfi_table+0x538>
    {
      flash->dev.region_info[i].offset = offset;
 180bbdc:	e0bffe17 	ldw	r2,-8(fp)
 180bbe0:	e0ffff17 	ldw	r3,-4(fp)
 180bbe4:	1004913a 	slli	r2,r2,4
 180bbe8:	10c5883a 	add	r2,r2,r3
 180bbec:	10c00d04 	addi	r3,r2,52
 180bbf0:	e0bff617 	ldw	r2,-40(fp)
 180bbf4:	18800015 	stw	r2,0(r3)
      offset += flash->dev.region_info[i].region_size;
 180bbf8:	e0bffe17 	ldw	r2,-8(fp)
 180bbfc:	e0ffff17 	ldw	r3,-4(fp)
 180bc00:	1004913a 	slli	r2,r2,4
 180bc04:	10c5883a 	add	r2,r2,r3
 180bc08:	10800e04 	addi	r2,r2,56
 180bc0c:	10c00017 	ldw	r3,0(r2)
 180bc10:	e0bff617 	ldw	r2,-40(fp)
 180bc14:	10c5883a 	add	r2,r2,r3
 180bc18:	e0bff615 	stw	r2,-40(fp)
        flash->dev.region_info[j].number_of_blocks = swap;

      } 
    }
    
    for(i=0;i<flash->dev.number_of_regions;i++)
 180bc1c:	e0bffe17 	ldw	r2,-8(fp)
 180bc20:	10800044 	addi	r2,r2,1
 180bc24:	e0bffe15 	stw	r2,-8(fp)
 180bc28:	e0bfff17 	ldw	r2,-4(fp)
 180bc2c:	10c00c17 	ldw	r3,48(r2)
 180bc30:	e0bffe17 	ldw	r2,-8(fp)
 180bc34:	10ffe916 	blt	r2,r3,180bbdc <alt_read_cfi_table+0x4ec>
    {
      flash->dev.region_info[i].offset = offset;
      offset += flash->dev.region_info[i].region_size;
    }
    
    (*flash->write_command)(flash->dev.base_addr, 
 180bc38:	e0bfff17 	ldw	r2,-4(fp)
 180bc3c:	10c03317 	ldw	r3,204(r2)
 180bc40:	e0bfff17 	ldw	r2,-4(fp)
 180bc44:	11000a17 	ldw	r4,40(r2)
 180bc48:	01401544 	movi	r5,85
 180bc4c:	01803fc4 	movi	r6,255
 180bc50:	183ee83a 	callr	r3
                            0x55, 
                            READ_ARRAY_MODE);
  }  

  return ret_code;
 180bc54:	e0bffb17 	ldw	r2,-20(fp)
}
 180bc58:	e037883a 	mov	sp,fp
 180bc5c:	dfc00217 	ldw	ra,8(sp)
 180bc60:	df000117 	ldw	fp,4(sp)
 180bc64:	dc000017 	ldw	r16,0(sp)
 180bc68:	dec00304 	addi	sp,sp,12
 180bc6c:	f800283a 	ret

0180bc70 <alt_read_cfi_width>:
 * 
 * Work out the width of the device we're talking to and sanity check that we  
 * can read the CFI and the Primary Vendor specific Table
 */
int alt_read_cfi_width(alt_flash_cfi_dev* flash)
{
 180bc70:	defff704 	addi	sp,sp,-36
 180bc74:	dfc00815 	stw	ra,32(sp)
 180bc78:	df000715 	stw	fp,28(sp)
 180bc7c:	df000704 	addi	fp,sp,28
 180bc80:	e13fff15 	stw	r4,-4(fp)
  int i;
  alt_u8 byte_id[12];
  alt_u16 iface;
  int ret_code = 0;
 180bc84:	e03ff915 	stw	zero,-28(fp)

  /*
  * Check for 8 bit wide flash
  */
  alt_write_flash_command_8bit_device_8bit_mode(flash->dev.base_addr, 0x55, QUERY_MODE);
 180bc88:	e0bfff17 	ldw	r2,-4(fp)
 180bc8c:	11000a17 	ldw	r4,40(r2)
 180bc90:	01401544 	movi	r5,85
 180bc94:	01802604 	movi	r6,152
 180bc98:	180b17c0 	call	180b17c <alt_write_flash_command_8bit_device_8bit_mode>

  for(i=0;i<3;i++)
 180bc9c:	e03ffb15 	stw	zero,-20(fp)
 180bca0:	00000f06 	br	180bce0 <alt_read_cfi_width+0x70>
  {
    byte_id[i] = IORD_8DIRECT(flash->dev.base_addr, QUERY_ADDR+i);
 180bca4:	e13ffb17 	ldw	r4,-20(fp)
 180bca8:	e0bfff17 	ldw	r2,-4(fp)
 180bcac:	10800a17 	ldw	r2,40(r2)
 180bcb0:	1007883a 	mov	r3,r2
 180bcb4:	e0bffb17 	ldw	r2,-20(fp)
 180bcb8:	1885883a 	add	r2,r3,r2
 180bcbc:	10800404 	addi	r2,r2,16
 180bcc0:	10800023 	ldbuio	r2,0(r2)
 180bcc4:	1007883a 	mov	r3,r2
 180bcc8:	e0bffc04 	addi	r2,fp,-16
 180bccc:	1105883a 	add	r2,r2,r4
 180bcd0:	10c00005 	stb	r3,0(r2)
  /*
  * Check for 8 bit wide flash
  */
  alt_write_flash_command_8bit_device_8bit_mode(flash->dev.base_addr, 0x55, QUERY_MODE);

  for(i=0;i<3;i++)
 180bcd4:	e0bffb17 	ldw	r2,-20(fp)
 180bcd8:	10800044 	addi	r2,r2,1
 180bcdc:	e0bffb15 	stw	r2,-20(fp)
 180bce0:	e0bffb17 	ldw	r2,-20(fp)
 180bce4:	108000d0 	cmplti	r2,r2,3
 180bce8:	103fee1e 	bne	r2,zero,180bca4 <alt_read_cfi_width+0x34>
  {
    byte_id[i] = IORD_8DIRECT(flash->dev.base_addr, QUERY_ADDR+i);
  }

  if ((byte_id[0] == 'Q') &&
 180bcec:	e0bffc03 	ldbu	r2,-16(fp)
 180bcf0:	10803fcc 	andi	r2,r2,255
 180bcf4:	10801458 	cmpnei	r2,r2,81
 180bcf8:	10001d1e 	bne	r2,zero,180bd70 <alt_read_cfi_width+0x100>
 180bcfc:	e0bffc43 	ldbu	r2,-15(fp)
 180bd00:	10803fcc 	andi	r2,r2,255
 180bd04:	10801498 	cmpnei	r2,r2,82
 180bd08:	1000191e 	bne	r2,zero,180bd70 <alt_read_cfi_width+0x100>
 180bd0c:	e0bffc83 	ldbu	r2,-14(fp)
 180bd10:	10803fcc 	andi	r2,r2,255
 180bd14:	10801658 	cmpnei	r2,r2,89
 180bd18:	1000151e 	bne	r2,zero,180bd70 <alt_read_cfi_width+0x100>
      (byte_id[1] == 'R') &&
      (byte_id[2] == 'Y'))
  {
    flash->mode_width = 1;
 180bd1c:	e0ffff17 	ldw	r3,-4(fp)
 180bd20:	00800044 	movi	r2,1
 180bd24:	18802e15 	stw	r2,184(r3)
    flash->device_width = 1; 
 180bd28:	e0ffff17 	ldw	r3,-4(fp)
 180bd2c:	00800044 	movi	r2,1
 180bd30:	18802f15 	stw	r2,188(r3)
    iface = IORD_16DIRECT(flash->dev.base_addr, INTERFACE_ADDR);
 180bd34:	e0bfff17 	ldw	r2,-4(fp)
 180bd38:	10800a17 	ldw	r2,40(r2)
 180bd3c:	10800a04 	addi	r2,r2,40
 180bd40:	1080002b 	ldhuio	r2,0(r2)
 180bd44:	e0bffa0d 	sth	r2,-24(fp)
    iface += 1;
 180bd48:	e0bffa0b 	ldhu	r2,-24(fp)
 180bd4c:	10800044 	addi	r2,r2,1
 180bd50:	e0bffa0d 	sth	r2,-24(fp)
    if (!(iface & 0x1))
 180bd54:	e0bffa0b 	ldhu	r2,-24(fp)
 180bd58:	1080004c 	andi	r2,r2,1
 180bd5c:	1004c03a 	cmpne	r2,r2,zero
 180bd60:	1001a81e 	bne	r2,zero,180c404 <alt_read_cfi_width+0x794>
    {
      ret_code = -ENODEV;
 180bd64:	00bffb44 	movi	r2,-19
 180bd68:	e0bff915 	stw	r2,-28(fp)
  for(i=0;i<3;i++)
  {
    byte_id[i] = IORD_8DIRECT(flash->dev.base_addr, QUERY_ADDR+i);
  }

  if ((byte_id[0] == 'Q') &&
 180bd6c:	0001a506 	br	180c404 <alt_read_cfi_width+0x794>
  else
  {
    /*
    * Check for 8/16 bit in byte wide mode
    */
    alt_write_flash_command_16bit_device_8bit_mode(flash->dev.base_addr, 0x55, QUERY_MODE);
 180bd70:	e0bfff17 	ldw	r2,-4(fp)
 180bd74:	11000a17 	ldw	r4,40(r2)
 180bd78:	01401544 	movi	r5,85
 180bd7c:	01802604 	movi	r6,152
 180bd80:	180b1b80 	call	180b1b8 <alt_write_flash_command_16bit_device_8bit_mode>
    for(i=0;i<6;i++)
 180bd84:	e03ffb15 	stw	zero,-20(fp)
 180bd88:	00000f06 	br	180bdc8 <alt_read_cfi_width+0x158>
    {
      byte_id[i] = IORD_8DIRECT(flash->dev.base_addr, (QUERY_ADDR*2)+i);
 180bd8c:	e13ffb17 	ldw	r4,-20(fp)
 180bd90:	e0bfff17 	ldw	r2,-4(fp)
 180bd94:	10800a17 	ldw	r2,40(r2)
 180bd98:	1007883a 	mov	r3,r2
 180bd9c:	e0bffb17 	ldw	r2,-20(fp)
 180bda0:	1885883a 	add	r2,r3,r2
 180bda4:	10800804 	addi	r2,r2,32
 180bda8:	10800023 	ldbuio	r2,0(r2)
 180bdac:	1007883a 	mov	r3,r2
 180bdb0:	e0bffc04 	addi	r2,fp,-16
 180bdb4:	1105883a 	add	r2,r2,r4
 180bdb8:	10c00005 	stb	r3,0(r2)
  {
    /*
    * Check for 8/16 bit in byte wide mode
    */
    alt_write_flash_command_16bit_device_8bit_mode(flash->dev.base_addr, 0x55, QUERY_MODE);
    for(i=0;i<6;i++)
 180bdbc:	e0bffb17 	ldw	r2,-20(fp)
 180bdc0:	10800044 	addi	r2,r2,1
 180bdc4:	e0bffb15 	stw	r2,-20(fp)
 180bdc8:	e0bffb17 	ldw	r2,-20(fp)
 180bdcc:	10800190 	cmplti	r2,r2,6
 180bdd0:	103fee1e 	bne	r2,zero,180bd8c <alt_read_cfi_width+0x11c>
    {
      byte_id[i] = IORD_8DIRECT(flash->dev.base_addr, (QUERY_ADDR*2)+i);
    }

    if ((byte_id[0] == 'Q') && 
 180bdd4:	e0bffc03 	ldbu	r2,-16(fp)
 180bdd8:	10803fcc 	andi	r2,r2,255
 180bddc:	10801458 	cmpnei	r2,r2,81
 180bde0:	1000291e 	bne	r2,zero,180be88 <alt_read_cfi_width+0x218>
 180bde4:	e0bffc43 	ldbu	r2,-15(fp)
 180bde8:	10803fcc 	andi	r2,r2,255
 180bdec:	10801458 	cmpnei	r2,r2,81
 180bdf0:	1000251e 	bne	r2,zero,180be88 <alt_read_cfi_width+0x218>
 180bdf4:	e0bffc83 	ldbu	r2,-14(fp)
 180bdf8:	10803fcc 	andi	r2,r2,255
 180bdfc:	10801498 	cmpnei	r2,r2,82
 180be00:	1000211e 	bne	r2,zero,180be88 <alt_read_cfi_width+0x218>
 180be04:	e0bffcc3 	ldbu	r2,-13(fp)
 180be08:	10803fcc 	andi	r2,r2,255
 180be0c:	10801498 	cmpnei	r2,r2,82
 180be10:	10001d1e 	bne	r2,zero,180be88 <alt_read_cfi_width+0x218>
 180be14:	e0bffd03 	ldbu	r2,-12(fp)
 180be18:	10803fcc 	andi	r2,r2,255
 180be1c:	10801658 	cmpnei	r2,r2,89
 180be20:	1000191e 	bne	r2,zero,180be88 <alt_read_cfi_width+0x218>
 180be24:	e0bffd43 	ldbu	r2,-11(fp)
 180be28:	10803fcc 	andi	r2,r2,255
 180be2c:	10801658 	cmpnei	r2,r2,89
 180be30:	1000151e 	bne	r2,zero,180be88 <alt_read_cfi_width+0x218>
        (byte_id[2] == 'R') &&
        (byte_id[3] == 'R') && 
        (byte_id[4] == 'Y') && 
        (byte_id[5] == 'Y'))
    {
      flash->mode_width = 1;
 180be34:	e0ffff17 	ldw	r3,-4(fp)
 180be38:	00800044 	movi	r2,1
 180be3c:	18802e15 	stw	r2,184(r3)
      flash->device_width = 2; 
 180be40:	e0ffff17 	ldw	r3,-4(fp)
 180be44:	00800084 	movi	r2,2
 180be48:	18802f15 	stw	r2,188(r3)
      iface = IORD_16DIRECT(flash->dev.base_addr, INTERFACE_ADDR*2);
 180be4c:	e0bfff17 	ldw	r2,-4(fp)
 180be50:	10800a17 	ldw	r2,40(r2)
 180be54:	10801404 	addi	r2,r2,80
 180be58:	1080002b 	ldhuio	r2,0(r2)
 180be5c:	e0bffa0d 	sth	r2,-24(fp)
      iface += 1;
 180be60:	e0bffa0b 	ldhu	r2,-24(fp)
 180be64:	10800044 	addi	r2,r2,1
 180be68:	e0bffa0d 	sth	r2,-24(fp)
      if (!(iface & 0x1))
 180be6c:	e0bffa0b 	ldhu	r2,-24(fp)
 180be70:	1080004c 	andi	r2,r2,1
 180be74:	1004c03a 	cmpne	r2,r2,zero
 180be78:	1001621e 	bne	r2,zero,180c404 <alt_read_cfi_width+0x794>
      {
        ret_code = -ENODEV;
 180be7c:	00bffb44 	movi	r2,-19
 180be80:	e0bff915 	stw	r2,-28(fp)
    for(i=0;i<6;i++)
    {
      byte_id[i] = IORD_8DIRECT(flash->dev.base_addr, (QUERY_ADDR*2)+i);
    }

    if ((byte_id[0] == 'Q') && 
 180be84:	00015f06 	br	180c404 <alt_read_cfi_width+0x794>
    else
    {
      /*
      * Check for 16 bit flash in word mode
      */
      alt_write_flash_command_16bit_device_16bit_mode(flash->dev.base_addr, 0x55, QUERY_MODE);
 180be88:	e0bfff17 	ldw	r2,-4(fp)
 180be8c:	11000a17 	ldw	r4,40(r2)
 180be90:	01401544 	movi	r5,85
 180be94:	01802604 	movi	r6,152
 180be98:	180b27c0 	call	180b27c <alt_write_flash_command_16bit_device_16bit_mode>
      for(i=0;i<6;i++)
 180be9c:	e03ffb15 	stw	zero,-20(fp)
 180bea0:	00000f06 	br	180bee0 <alt_read_cfi_width+0x270>
      {
        byte_id[i] = IORD_8DIRECT(flash->dev.base_addr, (QUERY_ADDR*2)+i);
 180bea4:	e13ffb17 	ldw	r4,-20(fp)
 180bea8:	e0bfff17 	ldw	r2,-4(fp)
 180beac:	10800a17 	ldw	r2,40(r2)
 180beb0:	1007883a 	mov	r3,r2
 180beb4:	e0bffb17 	ldw	r2,-20(fp)
 180beb8:	1885883a 	add	r2,r3,r2
 180bebc:	10800804 	addi	r2,r2,32
 180bec0:	10800023 	ldbuio	r2,0(r2)
 180bec4:	1007883a 	mov	r3,r2
 180bec8:	e0bffc04 	addi	r2,fp,-16
 180becc:	1105883a 	add	r2,r2,r4
 180bed0:	10c00005 	stb	r3,0(r2)
    {
      /*
      * Check for 16 bit flash in word mode
      */
      alt_write_flash_command_16bit_device_16bit_mode(flash->dev.base_addr, 0x55, QUERY_MODE);
      for(i=0;i<6;i++)
 180bed4:	e0bffb17 	ldw	r2,-20(fp)
 180bed8:	10800044 	addi	r2,r2,1
 180bedc:	e0bffb15 	stw	r2,-20(fp)
 180bee0:	e0bffb17 	ldw	r2,-20(fp)
 180bee4:	10800190 	cmplti	r2,r2,6
 180bee8:	103fee1e 	bne	r2,zero,180bea4 <alt_read_cfi_width+0x234>
      {
        byte_id[i] = IORD_8DIRECT(flash->dev.base_addr, (QUERY_ADDR*2)+i);
      }

      if ((byte_id[0] == 'Q') && 
 180beec:	e0bffc03 	ldbu	r2,-16(fp)
 180bef0:	10803fcc 	andi	r2,r2,255
 180bef4:	10801458 	cmpnei	r2,r2,81
 180bef8:	1000291e 	bne	r2,zero,180bfa0 <alt_read_cfi_width+0x330>
 180befc:	e0bffc43 	ldbu	r2,-15(fp)
 180bf00:	10803fcc 	andi	r2,r2,255
 180bf04:	1004c03a 	cmpne	r2,r2,zero
 180bf08:	1000251e 	bne	r2,zero,180bfa0 <alt_read_cfi_width+0x330>
 180bf0c:	e0bffc83 	ldbu	r2,-14(fp)
 180bf10:	10803fcc 	andi	r2,r2,255
 180bf14:	10801498 	cmpnei	r2,r2,82
 180bf18:	1000211e 	bne	r2,zero,180bfa0 <alt_read_cfi_width+0x330>
 180bf1c:	e0bffcc3 	ldbu	r2,-13(fp)
 180bf20:	10803fcc 	andi	r2,r2,255
 180bf24:	1004c03a 	cmpne	r2,r2,zero
 180bf28:	10001d1e 	bne	r2,zero,180bfa0 <alt_read_cfi_width+0x330>
 180bf2c:	e0bffd03 	ldbu	r2,-12(fp)
 180bf30:	10803fcc 	andi	r2,r2,255
 180bf34:	10801658 	cmpnei	r2,r2,89
 180bf38:	1000191e 	bne	r2,zero,180bfa0 <alt_read_cfi_width+0x330>
 180bf3c:	e0bffd43 	ldbu	r2,-11(fp)
 180bf40:	10803fcc 	andi	r2,r2,255
 180bf44:	1004c03a 	cmpne	r2,r2,zero
 180bf48:	1000151e 	bne	r2,zero,180bfa0 <alt_read_cfi_width+0x330>
          (byte_id[2] == 'R') && 
          (byte_id[3] == '\0') && 
          (byte_id[4] == 'Y') && 
          (byte_id[5] == '\0'))
      {
        flash->mode_width = 2;
 180bf4c:	e0ffff17 	ldw	r3,-4(fp)
 180bf50:	00800084 	movi	r2,2
 180bf54:	18802e15 	stw	r2,184(r3)
        flash->device_width = 2; 
 180bf58:	e0ffff17 	ldw	r3,-4(fp)
 180bf5c:	00800084 	movi	r2,2
 180bf60:	18802f15 	stw	r2,188(r3)
        iface = IORD_16DIRECT(flash->dev.base_addr, INTERFACE_ADDR*2);
 180bf64:	e0bfff17 	ldw	r2,-4(fp)
 180bf68:	10800a17 	ldw	r2,40(r2)
 180bf6c:	10801404 	addi	r2,r2,80
 180bf70:	1080002b 	ldhuio	r2,0(r2)
 180bf74:	e0bffa0d 	sth	r2,-24(fp)
        iface += 1;
 180bf78:	e0bffa0b 	ldhu	r2,-24(fp)
 180bf7c:	10800044 	addi	r2,r2,1
 180bf80:	e0bffa0d 	sth	r2,-24(fp)
        if (!(iface & 0x2))
 180bf84:	e0bffa0b 	ldhu	r2,-24(fp)
 180bf88:	1080008c 	andi	r2,r2,2
 180bf8c:	1004c03a 	cmpne	r2,r2,zero
 180bf90:	10011c1e 	bne	r2,zero,180c404 <alt_read_cfi_width+0x794>
        {
          ret_code = -ENODEV;
 180bf94:	00bffb44 	movi	r2,-19
 180bf98:	e0bff915 	stw	r2,-28(fp)
      for(i=0;i<6;i++)
      {
        byte_id[i] = IORD_8DIRECT(flash->dev.base_addr, (QUERY_ADDR*2)+i);
      }

      if ((byte_id[0] == 'Q') && 
 180bf9c:	00011906 	br	180c404 <alt_read_cfi_width+0x794>
      else
      {
        /*
        * Check for 32bit wide flash in 32 bit mode
        */
        alt_write_flash_command_32bit_device_32bit_mode(flash->dev.base_addr, 0x55, QUERY_MODE);
 180bfa0:	e0bfff17 	ldw	r2,-4(fp)
 180bfa4:	11000a17 	ldw	r4,40(r2)
 180bfa8:	01401544 	movi	r5,85
 180bfac:	01802604 	movi	r6,152
 180bfb0:	180b3080 	call	180b308 <alt_write_flash_command_32bit_device_32bit_mode>
        for(i=0;i<12;i++)
 180bfb4:	e03ffb15 	stw	zero,-20(fp)
 180bfb8:	00000f06 	br	180bff8 <alt_read_cfi_width+0x388>
        {
          byte_id[i] = IORD_8DIRECT(flash->dev.base_addr, (QUERY_ADDR*4)+i);
 180bfbc:	e13ffb17 	ldw	r4,-20(fp)
 180bfc0:	e0bfff17 	ldw	r2,-4(fp)
 180bfc4:	10800a17 	ldw	r2,40(r2)
 180bfc8:	1007883a 	mov	r3,r2
 180bfcc:	e0bffb17 	ldw	r2,-20(fp)
 180bfd0:	1885883a 	add	r2,r3,r2
 180bfd4:	10801004 	addi	r2,r2,64
 180bfd8:	10800023 	ldbuio	r2,0(r2)
 180bfdc:	1007883a 	mov	r3,r2
 180bfe0:	e0bffc04 	addi	r2,fp,-16
 180bfe4:	1105883a 	add	r2,r2,r4
 180bfe8:	10c00005 	stb	r3,0(r2)
      {
        /*
        * Check for 32bit wide flash in 32 bit mode
        */
        alt_write_flash_command_32bit_device_32bit_mode(flash->dev.base_addr, 0x55, QUERY_MODE);
        for(i=0;i<12;i++)
 180bfec:	e0bffb17 	ldw	r2,-20(fp)
 180bff0:	10800044 	addi	r2,r2,1
 180bff4:	e0bffb15 	stw	r2,-20(fp)
 180bff8:	e0bffb17 	ldw	r2,-20(fp)
 180bffc:	10800310 	cmplti	r2,r2,12
 180c000:	103fee1e 	bne	r2,zero,180bfbc <alt_read_cfi_width+0x34c>
        {
          byte_id[i] = IORD_8DIRECT(flash->dev.base_addr, (QUERY_ADDR*4)+i);
        }

        if ((byte_id[0] == 'Q') &&
 180c004:	e0bffc03 	ldbu	r2,-16(fp)
 180c008:	10803fcc 	andi	r2,r2,255
 180c00c:	10801458 	cmpnei	r2,r2,81
 180c010:	1000411e 	bne	r2,zero,180c118 <alt_read_cfi_width+0x4a8>
 180c014:	e0bffc43 	ldbu	r2,-15(fp)
 180c018:	10803fcc 	andi	r2,r2,255
 180c01c:	1004c03a 	cmpne	r2,r2,zero
 180c020:	10003d1e 	bne	r2,zero,180c118 <alt_read_cfi_width+0x4a8>
 180c024:	e0bffc83 	ldbu	r2,-14(fp)
 180c028:	10803fcc 	andi	r2,r2,255
 180c02c:	1004c03a 	cmpne	r2,r2,zero
 180c030:	1000391e 	bne	r2,zero,180c118 <alt_read_cfi_width+0x4a8>
 180c034:	e0bffcc3 	ldbu	r2,-13(fp)
 180c038:	10803fcc 	andi	r2,r2,255
 180c03c:	1004c03a 	cmpne	r2,r2,zero
 180c040:	1000351e 	bne	r2,zero,180c118 <alt_read_cfi_width+0x4a8>
 180c044:	e0bffd03 	ldbu	r2,-12(fp)
 180c048:	10803fcc 	andi	r2,r2,255
 180c04c:	10801498 	cmpnei	r2,r2,82
 180c050:	1000311e 	bne	r2,zero,180c118 <alt_read_cfi_width+0x4a8>
 180c054:	e0bffd43 	ldbu	r2,-11(fp)
 180c058:	10803fcc 	andi	r2,r2,255
 180c05c:	1004c03a 	cmpne	r2,r2,zero
 180c060:	10002d1e 	bne	r2,zero,180c118 <alt_read_cfi_width+0x4a8>
 180c064:	e0bffd83 	ldbu	r2,-10(fp)
 180c068:	10803fcc 	andi	r2,r2,255
 180c06c:	1004c03a 	cmpne	r2,r2,zero
 180c070:	1000291e 	bne	r2,zero,180c118 <alt_read_cfi_width+0x4a8>
 180c074:	e0bffdc3 	ldbu	r2,-9(fp)
 180c078:	10803fcc 	andi	r2,r2,255
 180c07c:	1004c03a 	cmpne	r2,r2,zero
 180c080:	1000251e 	bne	r2,zero,180c118 <alt_read_cfi_width+0x4a8>
 180c084:	e0bffe03 	ldbu	r2,-8(fp)
 180c088:	10803fcc 	andi	r2,r2,255
 180c08c:	10801658 	cmpnei	r2,r2,89
 180c090:	1000211e 	bne	r2,zero,180c118 <alt_read_cfi_width+0x4a8>
 180c094:	e0bffe43 	ldbu	r2,-7(fp)
 180c098:	10803fcc 	andi	r2,r2,255
 180c09c:	1004c03a 	cmpne	r2,r2,zero
 180c0a0:	10001d1e 	bne	r2,zero,180c118 <alt_read_cfi_width+0x4a8>
 180c0a4:	e0bffe83 	ldbu	r2,-6(fp)
 180c0a8:	10803fcc 	andi	r2,r2,255
 180c0ac:	1004c03a 	cmpne	r2,r2,zero
 180c0b0:	1000191e 	bne	r2,zero,180c118 <alt_read_cfi_width+0x4a8>
 180c0b4:	e0bffec3 	ldbu	r2,-5(fp)
 180c0b8:	10803fcc 	andi	r2,r2,255
 180c0bc:	1004c03a 	cmpne	r2,r2,zero
 180c0c0:	1000151e 	bne	r2,zero,180c118 <alt_read_cfi_width+0x4a8>
          (byte_id[8] == 'Y') && 
          (byte_id[9] == '\0') && 
          (byte_id[10] == '\0') && 
          (byte_id[11] == '\0'))
        {
          flash->mode_width = 4;
 180c0c4:	e0ffff17 	ldw	r3,-4(fp)
 180c0c8:	00800104 	movi	r2,4
 180c0cc:	18802e15 	stw	r2,184(r3)
          flash->device_width = 4; 
 180c0d0:	e0ffff17 	ldw	r3,-4(fp)
 180c0d4:	00800104 	movi	r2,4
 180c0d8:	18802f15 	stw	r2,188(r3)
          iface = IORD_32DIRECT(flash->dev.base_addr, INTERFACE_ADDR*4);
 180c0dc:	e0bfff17 	ldw	r2,-4(fp)
 180c0e0:	10800a17 	ldw	r2,40(r2)
 180c0e4:	10802804 	addi	r2,r2,160
 180c0e8:	10800037 	ldwio	r2,0(r2)
 180c0ec:	e0bffa0d 	sth	r2,-24(fp)
          iface += 1;
 180c0f0:	e0bffa0b 	ldhu	r2,-24(fp)
 180c0f4:	10800044 	addi	r2,r2,1
 180c0f8:	e0bffa0d 	sth	r2,-24(fp)
          if (!(iface & 0x4))
 180c0fc:	e0bffa0b 	ldhu	r2,-24(fp)
 180c100:	1080010c 	andi	r2,r2,4
 180c104:	1004c03a 	cmpne	r2,r2,zero
 180c108:	1000be1e 	bne	r2,zero,180c404 <alt_read_cfi_width+0x794>
          {
            ret_code = -ENODEV;
 180c10c:	00bffb44 	movi	r2,-19
 180c110:	e0bff915 	stw	r2,-28(fp)
        for(i=0;i<12;i++)
        {
          byte_id[i] = IORD_8DIRECT(flash->dev.base_addr, (QUERY_ADDR*4)+i);
        }

        if ((byte_id[0] == 'Q') &&
 180c114:	0000bb06 	br	180c404 <alt_read_cfi_width+0x794>
        else
        {
          /*
          * Check for 32 bit wide in 16 bit mode
          */
          alt_write_flash_command_32bit_device_16bit_mode(flash->dev.base_addr, 0x55, QUERY_MODE);
 180c118:	e0bfff17 	ldw	r2,-4(fp)
 180c11c:	11000a17 	ldw	r4,40(r2)
 180c120:	01401544 	movi	r5,85
 180c124:	01802604 	movi	r6,152
 180c128:	180b2c00 	call	180b2c0 <alt_write_flash_command_32bit_device_16bit_mode>
          for(i=0;i<12;i++)
 180c12c:	e03ffb15 	stw	zero,-20(fp)
 180c130:	00000f06 	br	180c170 <alt_read_cfi_width+0x500>
          {
            byte_id[i] = IORD_8DIRECT(flash->dev.base_addr, (QUERY_ADDR*4)+i);
 180c134:	e13ffb17 	ldw	r4,-20(fp)
 180c138:	e0bfff17 	ldw	r2,-4(fp)
 180c13c:	10800a17 	ldw	r2,40(r2)
 180c140:	1007883a 	mov	r3,r2
 180c144:	e0bffb17 	ldw	r2,-20(fp)
 180c148:	1885883a 	add	r2,r3,r2
 180c14c:	10801004 	addi	r2,r2,64
 180c150:	10800023 	ldbuio	r2,0(r2)
 180c154:	1007883a 	mov	r3,r2
 180c158:	e0bffc04 	addi	r2,fp,-16
 180c15c:	1105883a 	add	r2,r2,r4
 180c160:	10c00005 	stb	r3,0(r2)
        {
          /*
          * Check for 32 bit wide in 16 bit mode
          */
          alt_write_flash_command_32bit_device_16bit_mode(flash->dev.base_addr, 0x55, QUERY_MODE);
          for(i=0;i<12;i++)
 180c164:	e0bffb17 	ldw	r2,-20(fp)
 180c168:	10800044 	addi	r2,r2,1
 180c16c:	e0bffb15 	stw	r2,-20(fp)
 180c170:	e0bffb17 	ldw	r2,-20(fp)
 180c174:	10800310 	cmplti	r2,r2,12
 180c178:	103fee1e 	bne	r2,zero,180c134 <alt_read_cfi_width+0x4c4>
          {
            byte_id[i] = IORD_8DIRECT(flash->dev.base_addr, (QUERY_ADDR*4)+i);
          }

          if ((byte_id[0] == 'Q') &&
 180c17c:	e0bffc03 	ldbu	r2,-16(fp)
 180c180:	10803fcc 	andi	r2,r2,255
 180c184:	10801458 	cmpnei	r2,r2,81
 180c188:	1000411e 	bne	r2,zero,180c290 <alt_read_cfi_width+0x620>
 180c18c:	e0bffc43 	ldbu	r2,-15(fp)
 180c190:	10803fcc 	andi	r2,r2,255
 180c194:	1004c03a 	cmpne	r2,r2,zero
 180c198:	10003d1e 	bne	r2,zero,180c290 <alt_read_cfi_width+0x620>
 180c19c:	e0bffc83 	ldbu	r2,-14(fp)
 180c1a0:	10803fcc 	andi	r2,r2,255
 180c1a4:	10801458 	cmpnei	r2,r2,81
 180c1a8:	1000391e 	bne	r2,zero,180c290 <alt_read_cfi_width+0x620>
 180c1ac:	e0bffcc3 	ldbu	r2,-13(fp)
 180c1b0:	10803fcc 	andi	r2,r2,255
 180c1b4:	1004c03a 	cmpne	r2,r2,zero
 180c1b8:	1000351e 	bne	r2,zero,180c290 <alt_read_cfi_width+0x620>
 180c1bc:	e0bffd03 	ldbu	r2,-12(fp)
 180c1c0:	10803fcc 	andi	r2,r2,255
 180c1c4:	10801498 	cmpnei	r2,r2,82
 180c1c8:	1000311e 	bne	r2,zero,180c290 <alt_read_cfi_width+0x620>
 180c1cc:	e0bffd43 	ldbu	r2,-11(fp)
 180c1d0:	10803fcc 	andi	r2,r2,255
 180c1d4:	1004c03a 	cmpne	r2,r2,zero
 180c1d8:	10002d1e 	bne	r2,zero,180c290 <alt_read_cfi_width+0x620>
 180c1dc:	e0bffd83 	ldbu	r2,-10(fp)
 180c1e0:	10803fcc 	andi	r2,r2,255
 180c1e4:	10801498 	cmpnei	r2,r2,82
 180c1e8:	1000291e 	bne	r2,zero,180c290 <alt_read_cfi_width+0x620>
 180c1ec:	e0bffdc3 	ldbu	r2,-9(fp)
 180c1f0:	10803fcc 	andi	r2,r2,255
 180c1f4:	1004c03a 	cmpne	r2,r2,zero
 180c1f8:	1000251e 	bne	r2,zero,180c290 <alt_read_cfi_width+0x620>
 180c1fc:	e0bffe03 	ldbu	r2,-8(fp)
 180c200:	10803fcc 	andi	r2,r2,255
 180c204:	10801658 	cmpnei	r2,r2,89
 180c208:	1000211e 	bne	r2,zero,180c290 <alt_read_cfi_width+0x620>
 180c20c:	e0bffe43 	ldbu	r2,-7(fp)
 180c210:	10803fcc 	andi	r2,r2,255
 180c214:	1004c03a 	cmpne	r2,r2,zero
 180c218:	10001d1e 	bne	r2,zero,180c290 <alt_read_cfi_width+0x620>
 180c21c:	e0bffe83 	ldbu	r2,-6(fp)
 180c220:	10803fcc 	andi	r2,r2,255
 180c224:	10801658 	cmpnei	r2,r2,89
 180c228:	1000191e 	bne	r2,zero,180c290 <alt_read_cfi_width+0x620>
 180c22c:	e0bffec3 	ldbu	r2,-5(fp)
 180c230:	10803fcc 	andi	r2,r2,255
 180c234:	1004c03a 	cmpne	r2,r2,zero
 180c238:	1000151e 	bne	r2,zero,180c290 <alt_read_cfi_width+0x620>
              (byte_id[8] == 'Y') &&
              (byte_id[9] == '\0') &&
              (byte_id[10] == 'Y') &&
              (byte_id[11] == '\0'))
          {
            flash->mode_width = 2;
 180c23c:	e0ffff17 	ldw	r3,-4(fp)
 180c240:	00800084 	movi	r2,2
 180c244:	18802e15 	stw	r2,184(r3)
            flash->device_width = 4; 
 180c248:	e0ffff17 	ldw	r3,-4(fp)
 180c24c:	00800104 	movi	r2,4
 180c250:	18802f15 	stw	r2,188(r3)
            iface = IORD_32DIRECT(flash->dev.base_addr, INTERFACE_ADDR*4);
 180c254:	e0bfff17 	ldw	r2,-4(fp)
 180c258:	10800a17 	ldw	r2,40(r2)
 180c25c:	10802804 	addi	r2,r2,160
 180c260:	10800037 	ldwio	r2,0(r2)
 180c264:	e0bffa0d 	sth	r2,-24(fp)
            iface += 1;
 180c268:	e0bffa0b 	ldhu	r2,-24(fp)
 180c26c:	10800044 	addi	r2,r2,1
 180c270:	e0bffa0d 	sth	r2,-24(fp)
            if (!(iface & 0x4))
 180c274:	e0bffa0b 	ldhu	r2,-24(fp)
 180c278:	1080010c 	andi	r2,r2,4
 180c27c:	1004c03a 	cmpne	r2,r2,zero
 180c280:	1000601e 	bne	r2,zero,180c404 <alt_read_cfi_width+0x794>
            {
              ret_code = -ENODEV;
 180c284:	00bffb44 	movi	r2,-19
 180c288:	e0bff915 	stw	r2,-28(fp)
          for(i=0;i<12;i++)
          {
            byte_id[i] = IORD_8DIRECT(flash->dev.base_addr, (QUERY_ADDR*4)+i);
          }

          if ((byte_id[0] == 'Q') &&
 180c28c:	00005d06 	br	180c404 <alt_read_cfi_width+0x794>
          else
          {
            /*
            * 32 Bit wide flash in byte mode
            */
            alt_write_flash_command_32bit_device_8bit_mode(flash->dev.base_addr, 0x55, QUERY_MODE);
 180c290:	e0bfff17 	ldw	r2,-4(fp)
 180c294:	11000a17 	ldw	r4,40(r2)
 180c298:	01401544 	movi	r5,85
 180c29c:	01802604 	movi	r6,152
 180c2a0:	180b2340 	call	180b234 <alt_write_flash_command_32bit_device_8bit_mode>
            for(i=0;i<12;i++)
 180c2a4:	e03ffb15 	stw	zero,-20(fp)
 180c2a8:	00000f06 	br	180c2e8 <alt_read_cfi_width+0x678>
            {
              byte_id[i] = IORD_8DIRECT(flash->dev.base_addr, (QUERY_ADDR*4)+i);
 180c2ac:	e13ffb17 	ldw	r4,-20(fp)
 180c2b0:	e0bfff17 	ldw	r2,-4(fp)
 180c2b4:	10800a17 	ldw	r2,40(r2)
 180c2b8:	1007883a 	mov	r3,r2
 180c2bc:	e0bffb17 	ldw	r2,-20(fp)
 180c2c0:	1885883a 	add	r2,r3,r2
 180c2c4:	10801004 	addi	r2,r2,64
 180c2c8:	10800023 	ldbuio	r2,0(r2)
 180c2cc:	1007883a 	mov	r3,r2
 180c2d0:	e0bffc04 	addi	r2,fp,-16
 180c2d4:	1105883a 	add	r2,r2,r4
 180c2d8:	10c00005 	stb	r3,0(r2)
          {
            /*
            * 32 Bit wide flash in byte mode
            */
            alt_write_flash_command_32bit_device_8bit_mode(flash->dev.base_addr, 0x55, QUERY_MODE);
            for(i=0;i<12;i++)
 180c2dc:	e0bffb17 	ldw	r2,-20(fp)
 180c2e0:	10800044 	addi	r2,r2,1
 180c2e4:	e0bffb15 	stw	r2,-20(fp)
 180c2e8:	e0bffb17 	ldw	r2,-20(fp)
 180c2ec:	10800310 	cmplti	r2,r2,12
 180c2f0:	103fee1e 	bne	r2,zero,180c2ac <alt_read_cfi_width+0x63c>
            {
              byte_id[i] = IORD_8DIRECT(flash->dev.base_addr, (QUERY_ADDR*4)+i);
            }

            if ((byte_id[0] == 'Q') &&
 180c2f4:	e0bffc03 	ldbu	r2,-16(fp)
 180c2f8:	10803fcc 	andi	r2,r2,255
 180c2fc:	10801458 	cmpnei	r2,r2,81
 180c300:	1000401e 	bne	r2,zero,180c404 <alt_read_cfi_width+0x794>
 180c304:	e0bffc43 	ldbu	r2,-15(fp)
 180c308:	10803fcc 	andi	r2,r2,255
 180c30c:	10801458 	cmpnei	r2,r2,81
 180c310:	10003c1e 	bne	r2,zero,180c404 <alt_read_cfi_width+0x794>
 180c314:	e0bffc83 	ldbu	r2,-14(fp)
 180c318:	10803fcc 	andi	r2,r2,255
 180c31c:	10801458 	cmpnei	r2,r2,81
 180c320:	1000381e 	bne	r2,zero,180c404 <alt_read_cfi_width+0x794>
 180c324:	e0bffcc3 	ldbu	r2,-13(fp)
 180c328:	10803fcc 	andi	r2,r2,255
 180c32c:	10801458 	cmpnei	r2,r2,81
 180c330:	1000341e 	bne	r2,zero,180c404 <alt_read_cfi_width+0x794>
 180c334:	e0bffd03 	ldbu	r2,-12(fp)
 180c338:	10803fcc 	andi	r2,r2,255
 180c33c:	10801498 	cmpnei	r2,r2,82
 180c340:	1000301e 	bne	r2,zero,180c404 <alt_read_cfi_width+0x794>
 180c344:	e0bffd43 	ldbu	r2,-11(fp)
 180c348:	10803fcc 	andi	r2,r2,255
 180c34c:	10801498 	cmpnei	r2,r2,82
 180c350:	10002c1e 	bne	r2,zero,180c404 <alt_read_cfi_width+0x794>
 180c354:	e0bffd83 	ldbu	r2,-10(fp)
 180c358:	10803fcc 	andi	r2,r2,255
 180c35c:	10801498 	cmpnei	r2,r2,82
 180c360:	1000281e 	bne	r2,zero,180c404 <alt_read_cfi_width+0x794>
 180c364:	e0bffdc3 	ldbu	r2,-9(fp)
 180c368:	10803fcc 	andi	r2,r2,255
 180c36c:	10801498 	cmpnei	r2,r2,82
 180c370:	1000241e 	bne	r2,zero,180c404 <alt_read_cfi_width+0x794>
 180c374:	e0bffe03 	ldbu	r2,-8(fp)
 180c378:	10803fcc 	andi	r2,r2,255
 180c37c:	10801658 	cmpnei	r2,r2,89
 180c380:	1000201e 	bne	r2,zero,180c404 <alt_read_cfi_width+0x794>
 180c384:	e0bffe43 	ldbu	r2,-7(fp)
 180c388:	10803fcc 	andi	r2,r2,255
 180c38c:	10801658 	cmpnei	r2,r2,89
 180c390:	10001c1e 	bne	r2,zero,180c404 <alt_read_cfi_width+0x794>
 180c394:	e0bffe83 	ldbu	r2,-6(fp)
 180c398:	10803fcc 	andi	r2,r2,255
 180c39c:	10801658 	cmpnei	r2,r2,89
 180c3a0:	1000181e 	bne	r2,zero,180c404 <alt_read_cfi_width+0x794>
 180c3a4:	e0bffec3 	ldbu	r2,-5(fp)
 180c3a8:	10803fcc 	andi	r2,r2,255
 180c3ac:	10801658 	cmpnei	r2,r2,89
 180c3b0:	1000141e 	bne	r2,zero,180c404 <alt_read_cfi_width+0x794>
                (byte_id[8] == 'Y') && 
                (byte_id[9] == 'Y') && 
                (byte_id[10] == 'Y') && 
                (byte_id[11] == 'Y'))
            {
              flash->mode_width = 1;
 180c3b4:	e0ffff17 	ldw	r3,-4(fp)
 180c3b8:	00800044 	movi	r2,1
 180c3bc:	18802e15 	stw	r2,184(r3)
              flash->device_width = 4; 
 180c3c0:	e0ffff17 	ldw	r3,-4(fp)
 180c3c4:	00800104 	movi	r2,4
 180c3c8:	18802f15 	stw	r2,188(r3)
              iface = IORD_32DIRECT(flash->dev.base_addr, INTERFACE_ADDR*4);
 180c3cc:	e0bfff17 	ldw	r2,-4(fp)
 180c3d0:	10800a17 	ldw	r2,40(r2)
 180c3d4:	10802804 	addi	r2,r2,160
 180c3d8:	10800037 	ldwio	r2,0(r2)
 180c3dc:	e0bffa0d 	sth	r2,-24(fp)
              iface += 1;
 180c3e0:	e0bffa0b 	ldhu	r2,-24(fp)
 180c3e4:	10800044 	addi	r2,r2,1
 180c3e8:	e0bffa0d 	sth	r2,-24(fp)
              if (!(iface & 0x4))
 180c3ec:	e0bffa0b 	ldhu	r2,-24(fp)
 180c3f0:	1080010c 	andi	r2,r2,4
 180c3f4:	1004c03a 	cmpne	r2,r2,zero
 180c3f8:	1000021e 	bne	r2,zero,180c404 <alt_read_cfi_width+0x794>
              {
                ret_code = -ENODEV;
 180c3fc:	00bffb44 	movi	r2,-19
 180c400:	e0bff915 	stw	r2,-28(fp)
        }
      }
    }
  }
  
  return ret_code;
 180c404:	e0bff917 	ldw	r2,-28(fp)
}
 180c408:	e037883a 	mov	sp,fp
 180c40c:	dfc00117 	ldw	ra,4(sp)
 180c410:	df000017 	ldw	fp,0(sp)
 180c414:	dec00204 	addi	sp,sp,8
 180c418:	f800283a 	ret

0180c41c <alt_check_primary_table>:
 * 
 * Check that the primary Vendor table starts with the 
 * correct pattern
 */
int alt_check_primary_table(alt_flash_cfi_dev* flash)
{
 180c41c:	defff904 	addi	sp,sp,-28
 180c420:	dfc00615 	stw	ra,24(sp)
 180c424:	df000515 	stw	fp,20(sp)
 180c428:	dc000415 	stw	r16,16(sp)
 180c42c:	df000404 	addi	fp,sp,16
 180c430:	e13fff15 	stw	r4,-4(fp)
  int i;
  int ret_code = 0;
 180c434:	e03ffc15 	stw	zero,-16(fp)
  alt_u8 primary_query_string[3];
  
  flash->primary_address = alt_read_16bit_query_entry( flash, 
 180c438:	e13fff17 	ldw	r4,-4(fp)
 180c43c:	01400544 	movi	r5,21
 180c440:	180b6740 	call	180b674 <alt_read_16bit_query_entry>
 180c444:	10ffffcc 	andi	r3,r2,65535
 180c448:	e0bfff17 	ldw	r2,-4(fp)
 180c44c:	10c03215 	stw	r3,200(r2)
                            PRIMARY_ADDR);
  
  for(i=0;i<3;i++)
 180c450:	e03ffd15 	stw	zero,-12(fp)
 180c454:	00001006 	br	180c498 <alt_check_primary_table+0x7c>
  {
    primary_query_string[i] = 
 180c458:	e43ffd17 	ldw	r16,-12(fp)
 180c45c:	e0bfff17 	ldw	r2,-4(fp)
 180c460:	11803417 	ldw	r6,208(r2)
 180c464:	e0bfff17 	ldw	r2,-4(fp)
 180c468:	10c03217 	ldw	r3,200(r2)
 180c46c:	e0bffd17 	ldw	r2,-12(fp)
 180c470:	188b883a 	add	r5,r3,r2
 180c474:	e13fff17 	ldw	r4,-4(fp)
 180c478:	303ee83a 	callr	r6
 180c47c:	1007883a 	mov	r3,r2
 180c480:	e0bffe04 	addi	r2,fp,-8
 180c484:	1405883a 	add	r2,r2,r16
 180c488:	10c00005 	stb	r3,0(r2)
  alt_u8 primary_query_string[3];
  
  flash->primary_address = alt_read_16bit_query_entry( flash, 
                            PRIMARY_ADDR);
  
  for(i=0;i<3;i++)
 180c48c:	e0bffd17 	ldw	r2,-12(fp)
 180c490:	10800044 	addi	r2,r2,1
 180c494:	e0bffd15 	stw	r2,-12(fp)
 180c498:	e0bffd17 	ldw	r2,-12(fp)
 180c49c:	108000d0 	cmplti	r2,r2,3
 180c4a0:	103fed1e 	bne	r2,zero,180c458 <alt_check_primary_table+0x3c>
  {
    primary_query_string[i] = 
          (*flash->read_query)( flash,(flash->primary_address + i));
  }
    
  if ((primary_query_string[0] != 'P') ||
 180c4a4:	e0bffe03 	ldbu	r2,-8(fp)
 180c4a8:	10803fcc 	andi	r2,r2,255
 180c4ac:	10801418 	cmpnei	r2,r2,80
 180c4b0:	1000081e 	bne	r2,zero,180c4d4 <alt_check_primary_table+0xb8>
 180c4b4:	e0bffe43 	ldbu	r2,-7(fp)
 180c4b8:	10803fcc 	andi	r2,r2,255
 180c4bc:	10801498 	cmpnei	r2,r2,82
 180c4c0:	1000041e 	bne	r2,zero,180c4d4 <alt_check_primary_table+0xb8>
 180c4c4:	e0bffe83 	ldbu	r2,-6(fp)
 180c4c8:	10803fcc 	andi	r2,r2,255
 180c4cc:	10801260 	cmpeqi	r2,r2,73
 180c4d0:	1000021e 	bne	r2,zero,180c4dc <alt_check_primary_table+0xc0>
      (primary_query_string[1] != 'R') ||
      (primary_query_string[2] != 'I'))
  {
    ret_code = -ENODEV;
 180c4d4:	00bffb44 	movi	r2,-19
 180c4d8:	e0bffc15 	stw	r2,-16(fp)
  }
  
  return ret_code;
 180c4dc:	e0bffc17 	ldw	r2,-16(fp)
}
 180c4e0:	e037883a 	mov	sp,fp
 180c4e4:	dfc00217 	ldw	ra,8(sp)
 180c4e8:	df000117 	ldw	fp,4(sp)
 180c4ec:	dc000017 	ldw	r16,0(sp)
 180c4f0:	dec00304 	addi	sp,sp,12
 180c4f4:	f800283a 	ret

0180c4f8 <altera_avalon_jtag_uart_read_fd>:
 *
 */

int 
altera_avalon_jtag_uart_read_fd(alt_fd* fd, char* buffer, int space)
{
 180c4f8:	defffa04 	addi	sp,sp,-24
 180c4fc:	dfc00515 	stw	ra,20(sp)
 180c500:	df000415 	stw	fp,16(sp)
 180c504:	df000404 	addi	fp,sp,16
 180c508:	e13ffd15 	stw	r4,-12(fp)
 180c50c:	e17ffe15 	stw	r5,-8(fp)
 180c510:	e1bfff15 	stw	r6,-4(fp)
    altera_avalon_jtag_uart_dev* dev = (altera_avalon_jtag_uart_dev*) fd->dev; 
 180c514:	e0bffd17 	ldw	r2,-12(fp)
 180c518:	10800017 	ldw	r2,0(r2)
 180c51c:	e0bffc15 	stw	r2,-16(fp)

    return altera_avalon_jtag_uart_read(&dev->state, buffer, space,
 180c520:	e0bffc17 	ldw	r2,-16(fp)
 180c524:	11000a04 	addi	r4,r2,40
 180c528:	e0bffd17 	ldw	r2,-12(fp)
 180c52c:	11c00217 	ldw	r7,8(r2)
 180c530:	e17ffe17 	ldw	r5,-8(fp)
 180c534:	e1bfff17 	ldw	r6,-4(fp)
 180c538:	180cb400 	call	180cb40 <altera_avalon_jtag_uart_read>
      fd->fd_flags);
}
 180c53c:	e037883a 	mov	sp,fp
 180c540:	dfc00117 	ldw	ra,4(sp)
 180c544:	df000017 	ldw	fp,0(sp)
 180c548:	dec00204 	addi	sp,sp,8
 180c54c:	f800283a 	ret

0180c550 <altera_avalon_jtag_uart_write_fd>:

int 
altera_avalon_jtag_uart_write_fd(alt_fd* fd, const char* buffer, int space)
{
 180c550:	defffa04 	addi	sp,sp,-24
 180c554:	dfc00515 	stw	ra,20(sp)
 180c558:	df000415 	stw	fp,16(sp)
 180c55c:	df000404 	addi	fp,sp,16
 180c560:	e13ffd15 	stw	r4,-12(fp)
 180c564:	e17ffe15 	stw	r5,-8(fp)
 180c568:	e1bfff15 	stw	r6,-4(fp)
    altera_avalon_jtag_uart_dev* dev = (altera_avalon_jtag_uart_dev*) fd->dev; 
 180c56c:	e0bffd17 	ldw	r2,-12(fp)
 180c570:	10800017 	ldw	r2,0(r2)
 180c574:	e0bffc15 	stw	r2,-16(fp)

    return altera_avalon_jtag_uart_write(&dev->state, buffer, space,
 180c578:	e0bffc17 	ldw	r2,-16(fp)
 180c57c:	11000a04 	addi	r4,r2,40
 180c580:	e0bffd17 	ldw	r2,-12(fp)
 180c584:	11c00217 	ldw	r7,8(r2)
 180c588:	e17ffe17 	ldw	r5,-8(fp)
 180c58c:	e1bfff17 	ldw	r6,-4(fp)
 180c590:	180cd640 	call	180cd64 <altera_avalon_jtag_uart_write>
      fd->fd_flags);
}
 180c594:	e037883a 	mov	sp,fp
 180c598:	dfc00117 	ldw	ra,4(sp)
 180c59c:	df000017 	ldw	fp,0(sp)
 180c5a0:	dec00204 	addi	sp,sp,8
 180c5a4:	f800283a 	ret

0180c5a8 <altera_avalon_jtag_uart_close_fd>:

#ifndef ALTERA_AVALON_JTAG_UART_SMALL

int 
altera_avalon_jtag_uart_close_fd(alt_fd* fd)
{
 180c5a8:	defffc04 	addi	sp,sp,-16
 180c5ac:	dfc00315 	stw	ra,12(sp)
 180c5b0:	df000215 	stw	fp,8(sp)
 180c5b4:	df000204 	addi	fp,sp,8
 180c5b8:	e13fff15 	stw	r4,-4(fp)
    altera_avalon_jtag_uart_dev* dev = (altera_avalon_jtag_uart_dev*) fd->dev; 
 180c5bc:	e0bfff17 	ldw	r2,-4(fp)
 180c5c0:	10800017 	ldw	r2,0(r2)
 180c5c4:	e0bffe15 	stw	r2,-8(fp)

    return altera_avalon_jtag_uart_close(&dev->state, fd->fd_flags);
 180c5c8:	e0bffe17 	ldw	r2,-8(fp)
 180c5cc:	11000a04 	addi	r4,r2,40
 180c5d0:	e0bfff17 	ldw	r2,-4(fp)
 180c5d4:	11400217 	ldw	r5,8(r2)
 180c5d8:	180c9d80 	call	180c9d8 <altera_avalon_jtag_uart_close>
}
 180c5dc:	e037883a 	mov	sp,fp
 180c5e0:	dfc00117 	ldw	ra,4(sp)
 180c5e4:	df000017 	ldw	fp,0(sp)
 180c5e8:	dec00204 	addi	sp,sp,8
 180c5ec:	f800283a 	ret

0180c5f0 <altera_avalon_jtag_uart_ioctl_fd>:

int 
altera_avalon_jtag_uart_ioctl_fd(alt_fd* fd, int req, void* arg)
{
 180c5f0:	defffa04 	addi	sp,sp,-24
 180c5f4:	dfc00515 	stw	ra,20(sp)
 180c5f8:	df000415 	stw	fp,16(sp)
 180c5fc:	df000404 	addi	fp,sp,16
 180c600:	e13ffd15 	stw	r4,-12(fp)
 180c604:	e17ffe15 	stw	r5,-8(fp)
 180c608:	e1bfff15 	stw	r6,-4(fp)
    altera_avalon_jtag_uart_dev* dev = (altera_avalon_jtag_uart_dev*) fd->dev;
 180c60c:	e0bffd17 	ldw	r2,-12(fp)
 180c610:	10800017 	ldw	r2,0(r2)
 180c614:	e0bffc15 	stw	r2,-16(fp)

    return altera_avalon_jtag_uart_ioctl(&dev->state, req, arg);
 180c618:	e0bffc17 	ldw	r2,-16(fp)
 180c61c:	11000a04 	addi	r4,r2,40
 180c620:	e17ffe17 	ldw	r5,-8(fp)
 180c624:	e1bfff17 	ldw	r6,-4(fp)
 180c628:	180ca4c0 	call	180ca4c <altera_avalon_jtag_uart_ioctl>
}
 180c62c:	e037883a 	mov	sp,fp
 180c630:	dfc00117 	ldw	ra,4(sp)
 180c634:	df000017 	ldw	fp,0(sp)
 180c638:	dec00204 	addi	sp,sp,8
 180c63c:	f800283a 	ret

0180c640 <altera_avalon_jtag_uart_init>:
 * Return 1 on sucessful IRQ register and 0 on failure.
 */

void altera_avalon_jtag_uart_init(altera_avalon_jtag_uart_state* sp, 
                                  int irq_controller_id, int irq)
{
 180c640:	defffa04 	addi	sp,sp,-24
 180c644:	dfc00515 	stw	ra,20(sp)
 180c648:	df000415 	stw	fp,16(sp)
 180c64c:	df000404 	addi	fp,sp,16
 180c650:	e13ffd15 	stw	r4,-12(fp)
 180c654:	e17ffe15 	stw	r5,-8(fp)
 180c658:	e1bfff15 	stw	r6,-4(fp)
  ALT_FLAG_CREATE(&sp->events, 0);
  ALT_SEM_CREATE(&sp->read_lock, 1);
  ALT_SEM_CREATE(&sp->write_lock, 1);

  /* enable read interrupts at the device */
  sp->irq_enable = ALTERA_AVALON_JTAG_UART_CONTROL_RE_MSK;
 180c65c:	e0fffd17 	ldw	r3,-12(fp)
 180c660:	00800044 	movi	r2,1
 180c664:	18800815 	stw	r2,32(r3)

  IOWR_ALTERA_AVALON_JTAG_UART_CONTROL(sp->base, sp->irq_enable); 
 180c668:	e0bffd17 	ldw	r2,-12(fp)
 180c66c:	10800017 	ldw	r2,0(r2)
 180c670:	11000104 	addi	r4,r2,4
 180c674:	e0bffd17 	ldw	r2,-12(fp)
 180c678:	10800817 	ldw	r2,32(r2)
 180c67c:	1007883a 	mov	r3,r2
 180c680:	2005883a 	mov	r2,r4
 180c684:	10c00035 	stwio	r3,0(r2)
  
  /* register the interrupt handler */
#ifdef ALT_ENHANCED_INTERRUPT_API_PRESENT
  alt_ic_isr_register(irq_controller_id, irq, altera_avalon_jtag_uart_irq, 
 180c688:	e13ffe17 	ldw	r4,-8(fp)
 180c68c:	e17fff17 	ldw	r5,-4(fp)
 180c690:	d8000015 	stw	zero,0(sp)
 180c694:	01806074 	movhi	r6,385
 180c698:	31b1c004 	addi	r6,r6,-14592
 180c69c:	e1fffd17 	ldw	r7,-12(fp)
 180c6a0:	180ef300 	call	180ef30 <alt_ic_isr_register>
#else
  alt_irq_register(irq, sp, altera_avalon_jtag_uart_irq);
#endif  

  /* Register an alarm to go off every second to check for presence of host */
  sp->host_inactive = 0;
 180c6a4:	e0bffd17 	ldw	r2,-12(fp)
 180c6a8:	10000915 	stw	zero,36(r2)

  if (alt_alarm_start(&sp->alarm, alt_ticks_per_second(), 
 180c6ac:	e0bffd17 	ldw	r2,-12(fp)
 180c6b0:	11000204 	addi	r4,r2,8
 * Obtain the system clock rate in ticks/s. 
 */

static ALT_INLINE alt_u32 ALT_ALWAYS_INLINE alt_ticks_per_second (void)
{
  return _alt_tick_rate;
 180c6b4:	00806074 	movhi	r2,385
 180c6b8:	108ae904 	addi	r2,r2,11172
 180c6bc:	10800017 	ldw	r2,0(r2)
 180c6c0:	100b883a 	mov	r5,r2
 180c6c4:	01806074 	movhi	r6,385
 180c6c8:	31b24a04 	addi	r6,r6,-14040
 180c6cc:	e1fffd17 	ldw	r7,-12(fp)
 180c6d0:	180e98c0 	call	180e98c <alt_alarm_start>
 180c6d4:	1004403a 	cmpge	r2,r2,zero
 180c6d8:	1000041e 	bne	r2,zero,180c6ec <altera_avalon_jtag_uart_init+0xac>
    &altera_avalon_jtag_uart_timeout, sp) < 0)
  {
    /* If we can't set the alarm then record "don't know if host present" 
     * and behave as though the host is present.
     */
    sp->timeout = INT_MAX;
 180c6dc:	e0fffd17 	ldw	r3,-12(fp)
 180c6e0:	00a00034 	movhi	r2,32768
 180c6e4:	10bfffc4 	addi	r2,r2,-1
 180c6e8:	18800115 	stw	r2,4(r3)
  }

  /* ALT_LOG - see altera_hal/HAL/inc/sys/alt_log_printf.h */ 
  ALT_LOG_JTAG_UART_ALARM_REGISTER(sp, sp->base);
}
 180c6ec:	e037883a 	mov	sp,fp
 180c6f0:	dfc00117 	ldw	ra,4(sp)
 180c6f4:	df000017 	ldw	fp,0(sp)
 180c6f8:	dec00204 	addi	sp,sp,8
 180c6fc:	f800283a 	ret

0180c700 <altera_avalon_jtag_uart_irq>:
#ifdef ALT_ENHANCED_INTERRUPT_API_PRESENT
static void altera_avalon_jtag_uart_irq(void* context)
#else
static void altera_avalon_jtag_uart_irq(void* context, alt_u32 id)
#endif
{
 180c700:	defff804 	addi	sp,sp,-32
 180c704:	df000715 	stw	fp,28(sp)
 180c708:	df000704 	addi	fp,sp,28
 180c70c:	e13fff15 	stw	r4,-4(fp)
  altera_avalon_jtag_uart_state* sp = (altera_avalon_jtag_uart_state*) context;
 180c710:	e0bfff17 	ldw	r2,-4(fp)
 180c714:	e0bffe15 	stw	r2,-8(fp)
  unsigned int base = sp->base;
 180c718:	e0bffe17 	ldw	r2,-8(fp)
 180c71c:	10800017 	ldw	r2,0(r2)
 180c720:	e0bffd15 	stw	r2,-12(fp)
 180c724:	00000006 	br	180c728 <altera_avalon_jtag_uart_irq+0x28>
  /* ALT_LOG - see altera_hal/HAL/inc/sys/alt_log_printf.h */ 
  ALT_LOG_JTAG_UART_ISR_FUNCTION(base, sp);

  for ( ; ; )
  {
    unsigned int control = IORD_ALTERA_AVALON_JTAG_UART_CONTROL(base);
 180c728:	e0bffd17 	ldw	r2,-12(fp)
 180c72c:	10800104 	addi	r2,r2,4
 180c730:	10800037 	ldwio	r2,0(r2)
 180c734:	e0bffc15 	stw	r2,-16(fp)

    /* Return once nothing more to do */
    if ((control & (ALTERA_AVALON_JTAG_UART_CONTROL_RI_MSK | ALTERA_AVALON_JTAG_UART_CONTROL_WI_MSK)) == 0)
 180c738:	e0bffc17 	ldw	r2,-16(fp)
 180c73c:	1080c00c 	andi	r2,r2,768
 180c740:	1005003a 	cmpeq	r2,r2,zero
 180c744:	1000741e 	bne	r2,zero,180c918 <altera_avalon_jtag_uart_irq+0x218>
      break;

    if (control & ALTERA_AVALON_JTAG_UART_CONTROL_RI_MSK)
 180c748:	e0bffc17 	ldw	r2,-16(fp)
 180c74c:	1080400c 	andi	r2,r2,256
 180c750:	1005003a 	cmpeq	r2,r2,zero
 180c754:	1000351e 	bne	r2,zero,180c82c <altera_avalon_jtag_uart_irq+0x12c>
    {
      /* process a read irq.  Start by assuming that there is data in the
       * receive FIFO (otherwise why would we have been interrupted?)
       */
      unsigned int data = 1 << ALTERA_AVALON_JTAG_UART_DATA_RAVAIL_OFST;
 180c758:	00800074 	movhi	r2,1
 180c75c:	e0bffb15 	stw	r2,-20(fp)
      for ( ; ; )
      {
        /* Check whether there is space in the buffer.  If not then we must not
         * read any characters from the buffer as they will be lost.
         */
        unsigned int next = (sp->rx_in + 1) % ALTERA_AVALON_JTAG_UART_BUF_LEN;
 180c760:	e0bffe17 	ldw	r2,-8(fp)
 180c764:	10800a17 	ldw	r2,40(r2)
 180c768:	10800044 	addi	r2,r2,1
 180c76c:	1081ffcc 	andi	r2,r2,2047
 180c770:	e0bffa15 	stw	r2,-24(fp)
        if (next == sp->rx_out)
 180c774:	e0bffe17 	ldw	r2,-8(fp)
 180c778:	10c00b17 	ldw	r3,44(r2)
 180c77c:	e0bffa17 	ldw	r2,-24(fp)
 180c780:	18801626 	beq	r3,r2,180c7dc <altera_avalon_jtag_uart_irq+0xdc>
          break;

        /* Try to remove a character from the FIFO and find out whether there
         * are any more characters remaining.
         */
        data = IORD_ALTERA_AVALON_JTAG_UART_DATA(base);
 180c784:	e0bffd17 	ldw	r2,-12(fp)
 180c788:	10800037 	ldwio	r2,0(r2)
 180c78c:	e0bffb15 	stw	r2,-20(fp)
        
        if ((data & ALTERA_AVALON_JTAG_UART_DATA_RVALID_MSK) == 0)
 180c790:	e0bffb17 	ldw	r2,-20(fp)
 180c794:	10a0000c 	andi	r2,r2,32768
 180c798:	1005003a 	cmpeq	r2,r2,zero
 180c79c:	10000f1e 	bne	r2,zero,180c7dc <altera_avalon_jtag_uart_irq+0xdc>
          break;

        sp->rx_buf[sp->rx_in] = (data & ALTERA_AVALON_JTAG_UART_DATA_DATA_MSK) >> ALTERA_AVALON_JTAG_UART_DATA_DATA_OFST;
 180c7a0:	e0bffe17 	ldw	r2,-8(fp)
 180c7a4:	10c00a17 	ldw	r3,40(r2)
 180c7a8:	e0bffb17 	ldw	r2,-20(fp)
 180c7ac:	1009883a 	mov	r4,r2
 180c7b0:	e0bffe17 	ldw	r2,-8(fp)
 180c7b4:	1885883a 	add	r2,r3,r2
 180c7b8:	10800e04 	addi	r2,r2,56
 180c7bc:	11000005 	stb	r4,0(r2)
        sp->rx_in = (sp->rx_in + 1) % ALTERA_AVALON_JTAG_UART_BUF_LEN;
 180c7c0:	e0bffe17 	ldw	r2,-8(fp)
 180c7c4:	10800a17 	ldw	r2,40(r2)
 180c7c8:	10800044 	addi	r2,r2,1
 180c7cc:	10c1ffcc 	andi	r3,r2,2047
 180c7d0:	e0bffe17 	ldw	r2,-8(fp)
 180c7d4:	10c00a15 	stw	r3,40(r2)

        /* Post an event to notify jtag_uart_read that a character has been read */
        ALT_FLAG_POST (sp->events, ALT_JTAG_UART_READ_RDY, OS_FLAG_SET);
      }
 180c7d8:	003fe106 	br	180c760 <altera_avalon_jtag_uart_irq+0x60>

      if (data & ALTERA_AVALON_JTAG_UART_DATA_RAVAIL_MSK)
 180c7dc:	e0bffb17 	ldw	r2,-20(fp)
 180c7e0:	10bfffec 	andhi	r2,r2,65535
 180c7e4:	1005003a 	cmpeq	r2,r2,zero
 180c7e8:	1000101e 	bne	r2,zero,180c82c <altera_avalon_jtag_uart_irq+0x12c>
      {
        /* If there is still data available here then the buffer is full 
         * so turn off receive interrupts until some space becomes available.
         */
        sp->irq_enable &= ~ALTERA_AVALON_JTAG_UART_CONTROL_RE_MSK;
 180c7ec:	e0bffe17 	ldw	r2,-8(fp)
 180c7f0:	10c00817 	ldw	r3,32(r2)
 180c7f4:	00bfff84 	movi	r2,-2
 180c7f8:	1886703a 	and	r3,r3,r2
 180c7fc:	e0bffe17 	ldw	r2,-8(fp)
 180c800:	10c00815 	stw	r3,32(r2)
        IOWR_ALTERA_AVALON_JTAG_UART_CONTROL(base, sp->irq_enable);
 180c804:	e0bffd17 	ldw	r2,-12(fp)
 180c808:	11000104 	addi	r4,r2,4
 180c80c:	e0bffe17 	ldw	r2,-8(fp)
 180c810:	10800817 	ldw	r2,32(r2)
 180c814:	1007883a 	mov	r3,r2
 180c818:	2005883a 	mov	r2,r4
 180c81c:	10c00035 	stwio	r3,0(r2)
        
        /* Dummy read to ensure IRQ is cleared prior to ISR completion */
        IORD_ALTERA_AVALON_JTAG_UART_CONTROL(base);
 180c820:	e0bffd17 	ldw	r2,-12(fp)
 180c824:	10800104 	addi	r2,r2,4
 180c828:	10800037 	ldwio	r2,0(r2)
      }
    }

    if (control & ALTERA_AVALON_JTAG_UART_CONTROL_WI_MSK)
 180c82c:	e0bffc17 	ldw	r2,-16(fp)
 180c830:	1080800c 	andi	r2,r2,512
 180c834:	1005003a 	cmpeq	r2,r2,zero
 180c838:	103fbb1e 	bne	r2,zero,180c728 <altera_avalon_jtag_uart_irq+0x28>
    {
      /* process a write irq */
      unsigned int space = (control & ALTERA_AVALON_JTAG_UART_CONTROL_WSPACE_MSK) >> ALTERA_AVALON_JTAG_UART_CONTROL_WSPACE_OFST;
 180c83c:	e0bffc17 	ldw	r2,-16(fp)
 180c840:	10bfffec 	andhi	r2,r2,65535
 180c844:	1004d43a 	srli	r2,r2,16
 180c848:	e0bff915 	stw	r2,-28(fp)

      while (space > 0 && sp->tx_out != sp->tx_in)
 180c84c:	00001506 	br	180c8a4 <altera_avalon_jtag_uart_irq+0x1a4>
      {
        IOWR_ALTERA_AVALON_JTAG_UART_DATA(base, sp->tx_buf[sp->tx_out]);
 180c850:	e13ffd17 	ldw	r4,-12(fp)
 180c854:	e0bffe17 	ldw	r2,-8(fp)
 180c858:	10c00d17 	ldw	r3,52(r2)
 180c85c:	e0bffe17 	ldw	r2,-8(fp)
 180c860:	1885883a 	add	r2,r3,r2
 180c864:	10820e04 	addi	r2,r2,2104
 180c868:	10800003 	ldbu	r2,0(r2)
 180c86c:	10c03fcc 	andi	r3,r2,255
 180c870:	18c0201c 	xori	r3,r3,128
 180c874:	18ffe004 	addi	r3,r3,-128
 180c878:	2005883a 	mov	r2,r4
 180c87c:	10c00035 	stwio	r3,0(r2)

        sp->tx_out = (sp->tx_out + 1) % ALTERA_AVALON_JTAG_UART_BUF_LEN;
 180c880:	e0bffe17 	ldw	r2,-8(fp)
 180c884:	10800d17 	ldw	r2,52(r2)
 180c888:	10800044 	addi	r2,r2,1
 180c88c:	10c1ffcc 	andi	r3,r2,2047
 180c890:	e0bffe17 	ldw	r2,-8(fp)
 180c894:	10c00d15 	stw	r3,52(r2)

        /* Post an event to notify jtag_uart_write that a character has been written */
        ALT_FLAG_POST (sp->events, ALT_JTAG_UART_WRITE_RDY, OS_FLAG_SET);

        space--;
 180c898:	e0bff917 	ldw	r2,-28(fp)
 180c89c:	10bfffc4 	addi	r2,r2,-1
 180c8a0:	e0bff915 	stw	r2,-28(fp)
    if (control & ALTERA_AVALON_JTAG_UART_CONTROL_WI_MSK)
    {
      /* process a write irq */
      unsigned int space = (control & ALTERA_AVALON_JTAG_UART_CONTROL_WSPACE_MSK) >> ALTERA_AVALON_JTAG_UART_CONTROL_WSPACE_OFST;

      while (space > 0 && sp->tx_out != sp->tx_in)
 180c8a4:	e0bff917 	ldw	r2,-28(fp)
 180c8a8:	1005003a 	cmpeq	r2,r2,zero
 180c8ac:	1000051e 	bne	r2,zero,180c8c4 <altera_avalon_jtag_uart_irq+0x1c4>
 180c8b0:	e0bffe17 	ldw	r2,-8(fp)
 180c8b4:	10c00d17 	ldw	r3,52(r2)
 180c8b8:	e0bffe17 	ldw	r2,-8(fp)
 180c8bc:	10800c17 	ldw	r2,48(r2)
 180c8c0:	18bfe31e 	bne	r3,r2,180c850 <altera_avalon_jtag_uart_irq+0x150>
        ALT_FLAG_POST (sp->events, ALT_JTAG_UART_WRITE_RDY, OS_FLAG_SET);

        space--;
      }

      if (space > 0)
 180c8c4:	e0bff917 	ldw	r2,-28(fp)
 180c8c8:	1005003a 	cmpeq	r2,r2,zero
 180c8cc:	103f961e 	bne	r2,zero,180c728 <altera_avalon_jtag_uart_irq+0x28>
      {
        /* If we don't have any more data available then turn off the TX interrupt */
        sp->irq_enable &= ~ALTERA_AVALON_JTAG_UART_CONTROL_WE_MSK;
 180c8d0:	e0bffe17 	ldw	r2,-8(fp)
 180c8d4:	10c00817 	ldw	r3,32(r2)
 180c8d8:	00bfff44 	movi	r2,-3
 180c8dc:	1886703a 	and	r3,r3,r2
 180c8e0:	e0bffe17 	ldw	r2,-8(fp)
 180c8e4:	10c00815 	stw	r3,32(r2)
        IOWR_ALTERA_AVALON_JTAG_UART_CONTROL(sp->base, sp->irq_enable);
 180c8e8:	e0bffe17 	ldw	r2,-8(fp)
 180c8ec:	10800017 	ldw	r2,0(r2)
 180c8f0:	11000104 	addi	r4,r2,4
 180c8f4:	e0bffe17 	ldw	r2,-8(fp)
 180c8f8:	10800817 	ldw	r2,32(r2)
 180c8fc:	1007883a 	mov	r3,r2
 180c900:	2005883a 	mov	r2,r4
 180c904:	10c00035 	stwio	r3,0(r2)
        
        /* Dummy read to ensure IRQ is cleared prior to ISR completion */
        IORD_ALTERA_AVALON_JTAG_UART_CONTROL(base);
 180c908:	e0bffd17 	ldw	r2,-12(fp)
 180c90c:	10800104 	addi	r2,r2,4
 180c910:	10800037 	ldwio	r2,0(r2)
      }
    }
  }
 180c914:	003f8406 	br	180c728 <altera_avalon_jtag_uart_irq+0x28>
}
 180c918:	e037883a 	mov	sp,fp
 180c91c:	df000017 	ldw	fp,0(sp)
 180c920:	dec00104 	addi	sp,sp,4
 180c924:	f800283a 	ret

0180c928 <altera_avalon_jtag_uart_timeout>:
 * Timeout routine is called every second
 */

static alt_u32 
altera_avalon_jtag_uart_timeout(void* context) 
{
 180c928:	defffc04 	addi	sp,sp,-16
 180c92c:	df000315 	stw	fp,12(sp)
 180c930:	df000304 	addi	fp,sp,12
 180c934:	e13fff15 	stw	r4,-4(fp)
  altera_avalon_jtag_uart_state* sp = (altera_avalon_jtag_uart_state *) context;
 180c938:	e0bfff17 	ldw	r2,-4(fp)
 180c93c:	e0bffe15 	stw	r2,-8(fp)

  unsigned int control = IORD_ALTERA_AVALON_JTAG_UART_CONTROL(sp->base);
 180c940:	e0bffe17 	ldw	r2,-8(fp)
 180c944:	10800017 	ldw	r2,0(r2)
 180c948:	10800104 	addi	r2,r2,4
 180c94c:	10800037 	ldwio	r2,0(r2)
 180c950:	e0bffd15 	stw	r2,-12(fp)

  if (control & ALTERA_AVALON_JTAG_UART_CONTROL_AC_MSK)
 180c954:	e0bffd17 	ldw	r2,-12(fp)
 180c958:	1081000c 	andi	r2,r2,1024
 180c95c:	1005003a 	cmpeq	r2,r2,zero
 180c960:	10000c1e 	bne	r2,zero,180c994 <altera_avalon_jtag_uart_timeout+0x6c>
  {
    IOWR_ALTERA_AVALON_JTAG_UART_CONTROL(sp->base, sp->irq_enable | ALTERA_AVALON_JTAG_UART_CONTROL_AC_MSK);
 180c964:	e0bffe17 	ldw	r2,-8(fp)
 180c968:	10800017 	ldw	r2,0(r2)
 180c96c:	11000104 	addi	r4,r2,4
 180c970:	e0bffe17 	ldw	r2,-8(fp)
 180c974:	10800817 	ldw	r2,32(r2)
 180c978:	10810014 	ori	r2,r2,1024
 180c97c:	1007883a 	mov	r3,r2
 180c980:	2005883a 	mov	r2,r4
 180c984:	10c00035 	stwio	r3,0(r2)
    sp->host_inactive = 0;
 180c988:	e0bffe17 	ldw	r2,-8(fp)
 180c98c:	10000915 	stw	zero,36(r2)
 180c990:	00000a06 	br	180c9bc <altera_avalon_jtag_uart_timeout+0x94>
  }
  else if (sp->host_inactive < INT_MAX - 2) {
 180c994:	e0bffe17 	ldw	r2,-8(fp)
 180c998:	10c00917 	ldw	r3,36(r2)
 180c99c:	00a00034 	movhi	r2,32768
 180c9a0:	10bfff04 	addi	r2,r2,-4
 180c9a4:	10c00536 	bltu	r2,r3,180c9bc <altera_avalon_jtag_uart_timeout+0x94>
    sp->host_inactive++;
 180c9a8:	e0bffe17 	ldw	r2,-8(fp)
 180c9ac:	10800917 	ldw	r2,36(r2)
 180c9b0:	10c00044 	addi	r3,r2,1
 180c9b4:	e0bffe17 	ldw	r2,-8(fp)
 180c9b8:	10c00915 	stw	r3,36(r2)
 180c9bc:	00806074 	movhi	r2,385
 180c9c0:	108ae904 	addi	r2,r2,11172
 180c9c4:	10800017 	ldw	r2,0(r2)
      ALT_FLAG_POST (sp->events, ALT_JTAG_UART_TIMEOUT, OS_FLAG_SET);
    }
  }

  return alt_ticks_per_second();
}
 180c9c8:	e037883a 	mov	sp,fp
 180c9cc:	df000017 	ldw	fp,0(sp)
 180c9d0:	dec00104 	addi	sp,sp,4
 180c9d4:	f800283a 	ret

0180c9d8 <altera_avalon_jtag_uart_close>:
 * The close routine is not implemented for the small driver; instead it will
 * map to null. This is because the small driver simply waits while characters
 * are transmitted; there is no interrupt-serviced buffer to empty 
 */
int altera_avalon_jtag_uart_close(altera_avalon_jtag_uart_state* sp, int flags)
{
 180c9d8:	defffc04 	addi	sp,sp,-16
 180c9dc:	df000315 	stw	fp,12(sp)
 180c9e0:	df000304 	addi	fp,sp,12
 180c9e4:	e13ffd15 	stw	r4,-12(fp)
 180c9e8:	e17ffe15 	stw	r5,-8(fp)
  /* 
   * Wait for all transmit data to be emptied by the JTAG UART ISR, or
   * for a host-inactivity timeout, in which case transmit data will be lost
   */
  while ( (sp->tx_out != sp->tx_in) && (sp->host_inactive < sp->timeout) ) {
 180c9ec:	00000706 	br	180ca0c <altera_avalon_jtag_uart_close+0x34>
    if (flags & O_NONBLOCK) {
 180c9f0:	e0bffe17 	ldw	r2,-8(fp)
 180c9f4:	1090000c 	andi	r2,r2,16384
 180c9f8:	1005003a 	cmpeq	r2,r2,zero
 180c9fc:	1000031e 	bne	r2,zero,180ca0c <altera_avalon_jtag_uart_close+0x34>
      return -EWOULDBLOCK; 
 180ca00:	00bffd44 	movi	r2,-11
 180ca04:	e0bfff15 	stw	r2,-4(fp)
 180ca08:	00000b06 	br	180ca38 <altera_avalon_jtag_uart_close+0x60>
{
  /* 
   * Wait for all transmit data to be emptied by the JTAG UART ISR, or
   * for a host-inactivity timeout, in which case transmit data will be lost
   */
  while ( (sp->tx_out != sp->tx_in) && (sp->host_inactive < sp->timeout) ) {
 180ca0c:	e0bffd17 	ldw	r2,-12(fp)
 180ca10:	10c00d17 	ldw	r3,52(r2)
 180ca14:	e0bffd17 	ldw	r2,-12(fp)
 180ca18:	10800c17 	ldw	r2,48(r2)
 180ca1c:	18800526 	beq	r3,r2,180ca34 <altera_avalon_jtag_uart_close+0x5c>
 180ca20:	e0bffd17 	ldw	r2,-12(fp)
 180ca24:	10c00917 	ldw	r3,36(r2)
 180ca28:	e0bffd17 	ldw	r2,-12(fp)
 180ca2c:	10800117 	ldw	r2,4(r2)
 180ca30:	18bfef36 	bltu	r3,r2,180c9f0 <altera_avalon_jtag_uart_close+0x18>
    if (flags & O_NONBLOCK) {
      return -EWOULDBLOCK; 
    }
  }

  return 0;
 180ca34:	e03fff15 	stw	zero,-4(fp)
 180ca38:	e0bfff17 	ldw	r2,-4(fp)
}
 180ca3c:	e037883a 	mov	sp,fp
 180ca40:	df000017 	ldw	fp,0(sp)
 180ca44:	dec00104 	addi	sp,sp,4
 180ca48:	f800283a 	ret

0180ca4c <altera_avalon_jtag_uart_ioctl>:
/* ----------------------------------------------------------- */

int 
altera_avalon_jtag_uart_ioctl(altera_avalon_jtag_uart_state* sp, int req,
  void* arg)
{
 180ca4c:	defff804 	addi	sp,sp,-32
 180ca50:	df000715 	stw	fp,28(sp)
 180ca54:	df000704 	addi	fp,sp,28
 180ca58:	e13ffb15 	stw	r4,-20(fp)
 180ca5c:	e17ffc15 	stw	r5,-16(fp)
 180ca60:	e1bffd15 	stw	r6,-12(fp)
  int rc = -ENOTTY;
 180ca64:	00bff9c4 	movi	r2,-25
 180ca68:	e0bffa15 	stw	r2,-24(fp)

  switch (req)
 180ca6c:	e0bffc17 	ldw	r2,-16(fp)
 180ca70:	e0bfff15 	stw	r2,-4(fp)
 180ca74:	e0ffff17 	ldw	r3,-4(fp)
 180ca78:	189a8060 	cmpeqi	r2,r3,27137
 180ca7c:	1000041e 	bne	r2,zero,180ca90 <altera_avalon_jtag_uart_ioctl+0x44>
 180ca80:	e0ffff17 	ldw	r3,-4(fp)
 180ca84:	189a80a0 	cmpeqi	r2,r3,27138
 180ca88:	10001b1e 	bne	r2,zero,180caf8 <altera_avalon_jtag_uart_ioctl+0xac>
 180ca8c:	00002706 	br	180cb2c <altera_avalon_jtag_uart_ioctl+0xe0>
  {
  case TIOCSTIMEOUT:
    /* Set the time to wait until assuming host is not connected */
    if (sp->timeout != INT_MAX)
 180ca90:	e0bffb17 	ldw	r2,-20(fp)
 180ca94:	10c00117 	ldw	r3,4(r2)
 180ca98:	00a00034 	movhi	r2,32768
 180ca9c:	10bfffc4 	addi	r2,r2,-1
 180caa0:	18802226 	beq	r3,r2,180cb2c <altera_avalon_jtag_uart_ioctl+0xe0>
    {
      int timeout = *((int *)arg);
 180caa4:	e0bffd17 	ldw	r2,-12(fp)
 180caa8:	10800017 	ldw	r2,0(r2)
 180caac:	e0bff915 	stw	r2,-28(fp)
      sp->timeout = (timeout >= 2 && timeout < INT_MAX) ? timeout : INT_MAX - 1;
 180cab0:	e0bff917 	ldw	r2,-28(fp)
 180cab4:	10800090 	cmplti	r2,r2,2
 180cab8:	1000071e 	bne	r2,zero,180cad8 <altera_avalon_jtag_uart_ioctl+0x8c>
 180cabc:	e0fff917 	ldw	r3,-28(fp)
 180cac0:	00a00034 	movhi	r2,32768
 180cac4:	10bfffc4 	addi	r2,r2,-1
 180cac8:	18800326 	beq	r3,r2,180cad8 <altera_avalon_jtag_uart_ioctl+0x8c>
 180cacc:	e0bff917 	ldw	r2,-28(fp)
 180cad0:	e0bffe15 	stw	r2,-8(fp)
 180cad4:	00000306 	br	180cae4 <altera_avalon_jtag_uart_ioctl+0x98>
 180cad8:	00e00034 	movhi	r3,32768
 180cadc:	18ffff84 	addi	r3,r3,-2
 180cae0:	e0fffe15 	stw	r3,-8(fp)
 180cae4:	e0bffb17 	ldw	r2,-20(fp)
 180cae8:	e0fffe17 	ldw	r3,-8(fp)
 180caec:	10c00115 	stw	r3,4(r2)
      rc = 0;
 180caf0:	e03ffa15 	stw	zero,-24(fp)
    }
    break;
 180caf4:	00000d06 	br	180cb2c <altera_avalon_jtag_uart_ioctl+0xe0>

  case TIOCGCONNECTED:
    /* Find out whether host is connected */
    if (sp->timeout != INT_MAX)
 180caf8:	e0bffb17 	ldw	r2,-20(fp)
 180cafc:	10c00117 	ldw	r3,4(r2)
 180cb00:	00a00034 	movhi	r2,32768
 180cb04:	10bfffc4 	addi	r2,r2,-1
 180cb08:	18800826 	beq	r3,r2,180cb2c <altera_avalon_jtag_uart_ioctl+0xe0>
    {
      *((int *)arg) = (sp->host_inactive < sp->timeout) ? 1 : 0;
 180cb0c:	e13ffd17 	ldw	r4,-12(fp)
 180cb10:	e0bffb17 	ldw	r2,-20(fp)
 180cb14:	10c00917 	ldw	r3,36(r2)
 180cb18:	e0bffb17 	ldw	r2,-20(fp)
 180cb1c:	10800117 	ldw	r2,4(r2)
 180cb20:	1885803a 	cmpltu	r2,r3,r2
 180cb24:	20800015 	stw	r2,0(r4)
      rc = 0;
 180cb28:	e03ffa15 	stw	zero,-24(fp)

  default:
    break;
  }

  return rc;
 180cb2c:	e0bffa17 	ldw	r2,-24(fp)
}
 180cb30:	e037883a 	mov	sp,fp
 180cb34:	df000017 	ldw	fp,0(sp)
 180cb38:	dec00104 	addi	sp,sp,4
 180cb3c:	f800283a 	ret

0180cb40 <altera_avalon_jtag_uart_read>:
/* ----------------------------------------------------------- */

int 
altera_avalon_jtag_uart_read(altera_avalon_jtag_uart_state* sp, 
  char * buffer, int space, int flags)
{
 180cb40:	defff204 	addi	sp,sp,-56
 180cb44:	dfc00d15 	stw	ra,52(sp)
 180cb48:	df000c15 	stw	fp,48(sp)
 180cb4c:	df000c04 	addi	fp,sp,48
 180cb50:	e13ffb15 	stw	r4,-20(fp)
 180cb54:	e17ffc15 	stw	r5,-16(fp)
 180cb58:	e1bffd15 	stw	r6,-12(fp)
 180cb5c:	e1fffe15 	stw	r7,-8(fp)
  char * ptr = buffer;
 180cb60:	e0bffc17 	ldw	r2,-16(fp)
 180cb64:	e0bffa15 	stw	r2,-24(fp)
   * When running in a multi threaded environment, obtain the "read_lock"
   * semaphore. This ensures that reading from the device is thread-safe.
   */
  ALT_SEM_PEND (sp->read_lock, 0);

  while (space > 0)
 180cb68:	00004806 	br	180cc8c <altera_avalon_jtag_uart_read+0x14c>
    unsigned int in, out;

    /* Read as much data as possible */
    do
    {
      in  = sp->rx_in;
 180cb6c:	e0bffb17 	ldw	r2,-20(fp)
 180cb70:	10800a17 	ldw	r2,40(r2)
 180cb74:	e0bff715 	stw	r2,-36(fp)
      out = sp->rx_out;
 180cb78:	e0bffb17 	ldw	r2,-20(fp)
 180cb7c:	10800b17 	ldw	r2,44(r2)
 180cb80:	e0bff615 	stw	r2,-40(fp)

      if (in >= out)
 180cb84:	e0fff717 	ldw	r3,-36(fp)
 180cb88:	e0bff617 	ldw	r2,-40(fp)
 180cb8c:	18800536 	bltu	r3,r2,180cba4 <altera_avalon_jtag_uart_read+0x64>
        n = in - out;
 180cb90:	e0bff717 	ldw	r2,-36(fp)
 180cb94:	e0fff617 	ldw	r3,-40(fp)
 180cb98:	10c5c83a 	sub	r2,r2,r3
 180cb9c:	e0bff815 	stw	r2,-32(fp)
 180cba0:	00000406 	br	180cbb4 <altera_avalon_jtag_uart_read+0x74>
      else
        n = ALTERA_AVALON_JTAG_UART_BUF_LEN - out;
 180cba4:	00820004 	movi	r2,2048
 180cba8:	e0fff617 	ldw	r3,-40(fp)
 180cbac:	10c5c83a 	sub	r2,r2,r3
 180cbb0:	e0bff815 	stw	r2,-32(fp)

      if (n == 0)
 180cbb4:	e0bff817 	ldw	r2,-32(fp)
 180cbb8:	1005003a 	cmpeq	r2,r2,zero
 180cbbc:	10001f1e 	bne	r2,zero,180cc3c <altera_avalon_jtag_uart_read+0xfc>
        break; /* No more data available */

      if (n > space)
 180cbc0:	e0fffd17 	ldw	r3,-12(fp)
 180cbc4:	e0bff817 	ldw	r2,-32(fp)
 180cbc8:	1880022e 	bgeu	r3,r2,180cbd4 <altera_avalon_jtag_uart_read+0x94>
        n = space;
 180cbcc:	e0bffd17 	ldw	r2,-12(fp)
 180cbd0:	e0bff815 	stw	r2,-32(fp)

      memcpy(ptr, sp->rx_buf + out, n);
 180cbd4:	e0bffb17 	ldw	r2,-20(fp)
 180cbd8:	10c00e04 	addi	r3,r2,56
 180cbdc:	e0bff617 	ldw	r2,-40(fp)
 180cbe0:	1887883a 	add	r3,r3,r2
 180cbe4:	e0bffa17 	ldw	r2,-24(fp)
 180cbe8:	1009883a 	mov	r4,r2
 180cbec:	180b883a 	mov	r5,r3
 180cbf0:	e1bff817 	ldw	r6,-32(fp)
 180cbf4:	18059000 	call	1805900 <memcpy>
      ptr   += n;
 180cbf8:	e0fff817 	ldw	r3,-32(fp)
 180cbfc:	e0bffa17 	ldw	r2,-24(fp)
 180cc00:	10c5883a 	add	r2,r2,r3
 180cc04:	e0bffa15 	stw	r2,-24(fp)
      space -= n;
 180cc08:	e0fffd17 	ldw	r3,-12(fp)
 180cc0c:	e0bff817 	ldw	r2,-32(fp)
 180cc10:	1885c83a 	sub	r2,r3,r2
 180cc14:	e0bffd15 	stw	r2,-12(fp)

      sp->rx_out = (out + n) % ALTERA_AVALON_JTAG_UART_BUF_LEN;
 180cc18:	e0fff617 	ldw	r3,-40(fp)
 180cc1c:	e0bff817 	ldw	r2,-32(fp)
 180cc20:	1885883a 	add	r2,r3,r2
 180cc24:	10c1ffcc 	andi	r3,r2,2047
 180cc28:	e0bffb17 	ldw	r2,-20(fp)
 180cc2c:	10c00b15 	stw	r3,44(r2)
    }
    while (space > 0);
 180cc30:	e0bffd17 	ldw	r2,-12(fp)
 180cc34:	10800048 	cmpgei	r2,r2,1
 180cc38:	103fcc1e 	bne	r2,zero,180cb6c <altera_avalon_jtag_uart_read+0x2c>

    /* If we read any data then return it */
    if (ptr != buffer)
 180cc3c:	e0fffa17 	ldw	r3,-24(fp)
 180cc40:	e0bffc17 	ldw	r2,-16(fp)
 180cc44:	1880141e 	bne	r3,r2,180cc98 <altera_avalon_jtag_uart_read+0x158>
      break;

    /* If in non-blocking mode then return error */
    if (flags & O_NONBLOCK)
 180cc48:	e0bffe17 	ldw	r2,-8(fp)
 180cc4c:	1090000c 	andi	r2,r2,16384
 180cc50:	1004c03a 	cmpne	r2,r2,zero
 180cc54:	1000101e 	bne	r2,zero,180cc98 <altera_avalon_jtag_uart_read+0x158>
      while (in == sp->rx_in && sp->host_inactive < sp->timeout)
        ;
    }
#else
    /* No OS: Always spin */
    while (in == sp->rx_in && sp->host_inactive < sp->timeout)
 180cc58:	e0bffb17 	ldw	r2,-20(fp)
 180cc5c:	10c00a17 	ldw	r3,40(r2)
 180cc60:	e0bff717 	ldw	r2,-36(fp)
 180cc64:	1880051e 	bne	r3,r2,180cc7c <altera_avalon_jtag_uart_read+0x13c>
 180cc68:	e0bffb17 	ldw	r2,-20(fp)
 180cc6c:	10c00917 	ldw	r3,36(r2)
 180cc70:	e0bffb17 	ldw	r2,-20(fp)
 180cc74:	10800117 	ldw	r2,4(r2)
 180cc78:	18bff736 	bltu	r3,r2,180cc58 <altera_avalon_jtag_uart_read+0x118>
      ;
#endif /* __ucosii__ */

    if (in == sp->rx_in)
 180cc7c:	e0bffb17 	ldw	r2,-20(fp)
 180cc80:	10c00a17 	ldw	r3,40(r2)
 180cc84:	e0bff717 	ldw	r2,-36(fp)
 180cc88:	18800326 	beq	r3,r2,180cc98 <altera_avalon_jtag_uart_read+0x158>
   * When running in a multi threaded environment, obtain the "read_lock"
   * semaphore. This ensures that reading from the device is thread-safe.
   */
  ALT_SEM_PEND (sp->read_lock, 0);

  while (space > 0)
 180cc8c:	e0bffd17 	ldw	r2,-12(fp)
 180cc90:	10800048 	cmpgei	r2,r2,1
 180cc94:	103fb51e 	bne	r2,zero,180cb6c <altera_avalon_jtag_uart_read+0x2c>
   * semaphore so that other threads can access the buffer.
   */

  ALT_SEM_POST (sp->read_lock);

  if (ptr != buffer)
 180cc98:	e0fffa17 	ldw	r3,-24(fp)
 180cc9c:	e0bffc17 	ldw	r2,-16(fp)
 180cca0:	18801926 	beq	r3,r2,180cd08 <altera_avalon_jtag_uart_read+0x1c8>
static ALT_INLINE alt_irq_context ALT_ALWAYS_INLINE 
       alt_irq_disable_all (void)
{
  alt_irq_context context;

  NIOS2_READ_STATUS (context);
 180cca4:	0005303a 	rdctl	r2,status
 180cca8:	e0bff515 	stw	r2,-44(fp)

  NIOS2_WRITE_STATUS (context & ~NIOS2_STATUS_PIE_MSK);
 180ccac:	e0fff517 	ldw	r3,-44(fp)
 180ccb0:	00bfff84 	movi	r2,-2
 180ccb4:	1884703a 	and	r2,r3,r2
 180ccb8:	1001703a 	wrctl	status,r2
  
  return context;
 180ccbc:	e0bff517 	ldw	r2,-44(fp)
  {
    /* If we read any data then there is space in the buffer so enable interrupts */
    context = alt_irq_disable_all();
 180ccc0:	e0bff915 	stw	r2,-28(fp)
    sp->irq_enable |= ALTERA_AVALON_JTAG_UART_CONTROL_RE_MSK;
 180ccc4:	e0bffb17 	ldw	r2,-20(fp)
 180ccc8:	10800817 	ldw	r2,32(r2)
 180cccc:	10c00054 	ori	r3,r2,1
 180ccd0:	e0bffb17 	ldw	r2,-20(fp)
 180ccd4:	10c00815 	stw	r3,32(r2)
    IOWR_ALTERA_AVALON_JTAG_UART_CONTROL(sp->base, sp->irq_enable);
 180ccd8:	e0bffb17 	ldw	r2,-20(fp)
 180ccdc:	10800017 	ldw	r2,0(r2)
 180cce0:	11000104 	addi	r4,r2,4
 180cce4:	e0bffb17 	ldw	r2,-20(fp)
 180cce8:	10800817 	ldw	r2,32(r2)
 180ccec:	1007883a 	mov	r3,r2
 180ccf0:	2005883a 	mov	r2,r4
 180ccf4:	10c00035 	stwio	r3,0(r2)
 180ccf8:	e0bff917 	ldw	r2,-28(fp)
 180ccfc:	e0bff415 	stw	r2,-48(fp)
  status &= ~NIOS2_STATUS_PIE_MSK;
  status |= (context & NIOS2_STATUS_PIE_MSK);
  
  NIOS2_WRITE_STATUS (status);
#else
  NIOS2_WRITE_STATUS (context);
 180cd00:	e0bff417 	ldw	r2,-48(fp)
 180cd04:	1001703a 	wrctl	status,r2
    alt_irq_enable_all(context);
  }

  if (ptr != buffer)
 180cd08:	e0fffa17 	ldw	r3,-24(fp)
 180cd0c:	e0bffc17 	ldw	r2,-16(fp)
 180cd10:	18800526 	beq	r3,r2,180cd28 <altera_avalon_jtag_uart_read+0x1e8>
    return ptr - buffer;
 180cd14:	e0fffa17 	ldw	r3,-24(fp)
 180cd18:	e0bffc17 	ldw	r2,-16(fp)
 180cd1c:	1887c83a 	sub	r3,r3,r2
 180cd20:	e0ffff15 	stw	r3,-4(fp)
 180cd24:	00000906 	br	180cd4c <altera_avalon_jtag_uart_read+0x20c>
  else if (flags & O_NONBLOCK)
 180cd28:	e0bffe17 	ldw	r2,-8(fp)
 180cd2c:	1090000c 	andi	r2,r2,16384
 180cd30:	1005003a 	cmpeq	r2,r2,zero
 180cd34:	1000031e 	bne	r2,zero,180cd44 <altera_avalon_jtag_uart_read+0x204>
    return -EWOULDBLOCK;
 180cd38:	00bffd44 	movi	r2,-11
 180cd3c:	e0bfff15 	stw	r2,-4(fp)
 180cd40:	00000206 	br	180cd4c <altera_avalon_jtag_uart_read+0x20c>
  else
    return -EIO;
 180cd44:	00bffec4 	movi	r2,-5
 180cd48:	e0bfff15 	stw	r2,-4(fp)
 180cd4c:	e0bfff17 	ldw	r2,-4(fp)
}
 180cd50:	e037883a 	mov	sp,fp
 180cd54:	dfc00117 	ldw	ra,4(sp)
 180cd58:	df000017 	ldw	fp,0(sp)
 180cd5c:	dec00204 	addi	sp,sp,8
 180cd60:	f800283a 	ret

0180cd64 <altera_avalon_jtag_uart_write>:
/* ----------------------------------------------------------- */

int 
altera_avalon_jtag_uart_write(altera_avalon_jtag_uart_state* sp, 
  const char * ptr, int count, int flags)
{
 180cd64:	defff204 	addi	sp,sp,-56
 180cd68:	dfc00d15 	stw	ra,52(sp)
 180cd6c:	df000c15 	stw	fp,48(sp)
 180cd70:	df000c04 	addi	fp,sp,48
 180cd74:	e13ffb15 	stw	r4,-20(fp)
 180cd78:	e17ffc15 	stw	r5,-16(fp)
 180cd7c:	e1bffd15 	stw	r6,-12(fp)
 180cd80:	e1fffe15 	stw	r7,-8(fp)
  /* Remove warning at optimisation level 03 by seting out to 0 */
  unsigned int in, out=0;
 180cd84:	e03ff915 	stw	zero,-28(fp)
  unsigned int n;
  alt_irq_context context;

  const char * start = ptr;
 180cd88:	e0bffc17 	ldw	r2,-16(fp)
 180cd8c:	e0bff615 	stw	r2,-40(fp)
  ALT_SEM_PEND (sp->write_lock, 0);

  do
  {
    /* Copy as much as we can into the transmit buffer */
    while (count > 0)
 180cd90:	00003a06 	br	180ce7c <altera_avalon_jtag_uart_write+0x118>
    {
      /* We need a stable value of the out pointer to calculate the space available */
      in  = sp->tx_in;
 180cd94:	e0bffb17 	ldw	r2,-20(fp)
 180cd98:	10800c17 	ldw	r2,48(r2)
 180cd9c:	e0bffa15 	stw	r2,-24(fp)
      out = sp->tx_out;
 180cda0:	e0bffb17 	ldw	r2,-20(fp)
 180cda4:	10800d17 	ldw	r2,52(r2)
 180cda8:	e0bff915 	stw	r2,-28(fp)

      if (in < out)
 180cdac:	e0fffa17 	ldw	r3,-24(fp)
 180cdb0:	e0bff917 	ldw	r2,-28(fp)
 180cdb4:	1880062e 	bgeu	r3,r2,180cdd0 <altera_avalon_jtag_uart_write+0x6c>
        n = out - 1 - in;
 180cdb8:	e0fff917 	ldw	r3,-28(fp)
 180cdbc:	e0bffa17 	ldw	r2,-24(fp)
 180cdc0:	1885c83a 	sub	r2,r3,r2
 180cdc4:	10bfffc4 	addi	r2,r2,-1
 180cdc8:	e0bff815 	stw	r2,-32(fp)
 180cdcc:	00000c06 	br	180ce00 <altera_avalon_jtag_uart_write+0x9c>
      else if (out > 0)
 180cdd0:	e0bff917 	ldw	r2,-28(fp)
 180cdd4:	1005003a 	cmpeq	r2,r2,zero
 180cdd8:	1000051e 	bne	r2,zero,180cdf0 <altera_avalon_jtag_uart_write+0x8c>
        n = ALTERA_AVALON_JTAG_UART_BUF_LEN - in;
 180cddc:	00820004 	movi	r2,2048
 180cde0:	e0fffa17 	ldw	r3,-24(fp)
 180cde4:	10c5c83a 	sub	r2,r2,r3
 180cde8:	e0bff815 	stw	r2,-32(fp)
 180cdec:	00000406 	br	180ce00 <altera_avalon_jtag_uart_write+0x9c>
      else
        n = ALTERA_AVALON_JTAG_UART_BUF_LEN - 1 - in;
 180cdf0:	0081ffc4 	movi	r2,2047
 180cdf4:	e0fffa17 	ldw	r3,-24(fp)
 180cdf8:	10c5c83a 	sub	r2,r2,r3
 180cdfc:	e0bff815 	stw	r2,-32(fp)

      if (n == 0)
 180ce00:	e0bff817 	ldw	r2,-32(fp)
 180ce04:	1005003a 	cmpeq	r2,r2,zero
 180ce08:	10001f1e 	bne	r2,zero,180ce88 <altera_avalon_jtag_uart_write+0x124>
        break;

      if (n > count)
 180ce0c:	e0fffd17 	ldw	r3,-12(fp)
 180ce10:	e0bff817 	ldw	r2,-32(fp)
 180ce14:	1880022e 	bgeu	r3,r2,180ce20 <altera_avalon_jtag_uart_write+0xbc>
        n = count;
 180ce18:	e0bffd17 	ldw	r2,-12(fp)
 180ce1c:	e0bff815 	stw	r2,-32(fp)

      memcpy(sp->tx_buf + in, ptr, n);
 180ce20:	e0bffb17 	ldw	r2,-20(fp)
 180ce24:	10c20e04 	addi	r3,r2,2104
 180ce28:	e0bffa17 	ldw	r2,-24(fp)
 180ce2c:	1885883a 	add	r2,r3,r2
 180ce30:	e0fffc17 	ldw	r3,-16(fp)
 180ce34:	1009883a 	mov	r4,r2
 180ce38:	180b883a 	mov	r5,r3
 180ce3c:	e1bff817 	ldw	r6,-32(fp)
 180ce40:	18059000 	call	1805900 <memcpy>
      ptr   += n;
 180ce44:	e0fff817 	ldw	r3,-32(fp)
 180ce48:	e0bffc17 	ldw	r2,-16(fp)
 180ce4c:	10c5883a 	add	r2,r2,r3
 180ce50:	e0bffc15 	stw	r2,-16(fp)
      count -= n;
 180ce54:	e0fffd17 	ldw	r3,-12(fp)
 180ce58:	e0bff817 	ldw	r2,-32(fp)
 180ce5c:	1885c83a 	sub	r2,r3,r2
 180ce60:	e0bffd15 	stw	r2,-12(fp)

      sp->tx_in = (in + n) % ALTERA_AVALON_JTAG_UART_BUF_LEN;
 180ce64:	e0fffa17 	ldw	r3,-24(fp)
 180ce68:	e0bff817 	ldw	r2,-32(fp)
 180ce6c:	1885883a 	add	r2,r3,r2
 180ce70:	10c1ffcc 	andi	r3,r2,2047
 180ce74:	e0bffb17 	ldw	r2,-20(fp)
 180ce78:	10c00c15 	stw	r3,48(r2)
  ALT_SEM_PEND (sp->write_lock, 0);

  do
  {
    /* Copy as much as we can into the transmit buffer */
    while (count > 0)
 180ce7c:	e0bffd17 	ldw	r2,-12(fp)
 180ce80:	10800048 	cmpgei	r2,r2,1
 180ce84:	103fc31e 	bne	r2,zero,180cd94 <altera_avalon_jtag_uart_write+0x30>
static ALT_INLINE alt_irq_context ALT_ALWAYS_INLINE 
       alt_irq_disable_all (void)
{
  alt_irq_context context;

  NIOS2_READ_STATUS (context);
 180ce88:	0005303a 	rdctl	r2,status
 180ce8c:	e0bff515 	stw	r2,-44(fp)

  NIOS2_WRITE_STATUS (context & ~NIOS2_STATUS_PIE_MSK);
 180ce90:	e0fff517 	ldw	r3,-44(fp)
 180ce94:	00bfff84 	movi	r2,-2
 180ce98:	1884703a 	and	r2,r3,r2
 180ce9c:	1001703a 	wrctl	status,r2
  
  return context;
 180cea0:	e0bff517 	ldw	r2,-44(fp)
     * to enable interrupts if there is no space left in the FIFO
     *
     * For now kick the interrupt routine every time to make it transmit 
     * the data 
     */
    context = alt_irq_disable_all();
 180cea4:	e0bff715 	stw	r2,-36(fp)
    sp->irq_enable |= ALTERA_AVALON_JTAG_UART_CONTROL_WE_MSK;
 180cea8:	e0bffb17 	ldw	r2,-20(fp)
 180ceac:	10800817 	ldw	r2,32(r2)
 180ceb0:	10c00094 	ori	r3,r2,2
 180ceb4:	e0bffb17 	ldw	r2,-20(fp)
 180ceb8:	10c00815 	stw	r3,32(r2)
    IOWR_ALTERA_AVALON_JTAG_UART_CONTROL(sp->base, sp->irq_enable);
 180cebc:	e0bffb17 	ldw	r2,-20(fp)
 180cec0:	10800017 	ldw	r2,0(r2)
 180cec4:	11000104 	addi	r4,r2,4
 180cec8:	e0bffb17 	ldw	r2,-20(fp)
 180cecc:	10800817 	ldw	r2,32(r2)
 180ced0:	1007883a 	mov	r3,r2
 180ced4:	2005883a 	mov	r2,r4
 180ced8:	10c00035 	stwio	r3,0(r2)
 180cedc:	e0bff717 	ldw	r2,-36(fp)
 180cee0:	e0bff415 	stw	r2,-48(fp)
  status &= ~NIOS2_STATUS_PIE_MSK;
  status |= (context & NIOS2_STATUS_PIE_MSK);
  
  NIOS2_WRITE_STATUS (status);
#else
  NIOS2_WRITE_STATUS (context);
 180cee4:	e0bff417 	ldw	r2,-48(fp)
 180cee8:	1001703a 	wrctl	status,r2
    /* 
     * If there is any data left then either return now or block until 
     * some has been sent 
     */
    /* consider: test whether there is anything there while doing this and delay for at most 2s. */
    if (count > 0)
 180ceec:	e0bffd17 	ldw	r2,-12(fp)
 180cef0:	10800050 	cmplti	r2,r2,1
 180cef4:	1000111e 	bne	r2,zero,180cf3c <altera_avalon_jtag_uart_write+0x1d8>
    {
      if (flags & O_NONBLOCK)
 180cef8:	e0bffe17 	ldw	r2,-8(fp)
 180cefc:	1090000c 	andi	r2,r2,16384
 180cf00:	1004c03a 	cmpne	r2,r2,zero
 180cf04:	1000101e 	bne	r2,zero,180cf48 <altera_avalon_jtag_uart_write+0x1e4>
      /*
       * No OS present: Always wait for data to be removed from buffer.  Once
       * the interrupt routine has removed some data then we will be able to
       * insert some more.
       */
      while (out == sp->tx_out && sp->host_inactive < sp->timeout)
 180cf08:	e0bffb17 	ldw	r2,-20(fp)
 180cf0c:	10c00d17 	ldw	r3,52(r2)
 180cf10:	e0bff917 	ldw	r2,-28(fp)
 180cf14:	1880051e 	bne	r3,r2,180cf2c <altera_avalon_jtag_uart_write+0x1c8>
 180cf18:	e0bffb17 	ldw	r2,-20(fp)
 180cf1c:	10c00917 	ldw	r3,36(r2)
 180cf20:	e0bffb17 	ldw	r2,-20(fp)
 180cf24:	10800117 	ldw	r2,4(r2)
 180cf28:	18bff736 	bltu	r3,r2,180cf08 <altera_avalon_jtag_uart_write+0x1a4>
        ;
#endif /* __ucosii__ */

      if (out == sp->tx_out)
 180cf2c:	e0bffb17 	ldw	r2,-20(fp)
 180cf30:	10c00d17 	ldw	r3,52(r2)
 180cf34:	e0bff917 	ldw	r2,-28(fp)
 180cf38:	18800326 	beq	r3,r2,180cf48 <altera_avalon_jtag_uart_write+0x1e4>
        break;
    }
  }
  while (count > 0);
 180cf3c:	e0bffd17 	ldw	r2,-12(fp)
 180cf40:	10800048 	cmpgei	r2,r2,1
 180cf44:	103fcd1e 	bne	r2,zero,180ce7c <altera_avalon_jtag_uart_write+0x118>
   * Now that access to the circular buffer is complete, release the write
   * semaphore so that other threads can access the buffer.
   */
  ALT_SEM_POST (sp->write_lock);

  if (ptr != start)
 180cf48:	e0fffc17 	ldw	r3,-16(fp)
 180cf4c:	e0bff617 	ldw	r2,-40(fp)
 180cf50:	18800526 	beq	r3,r2,180cf68 <altera_avalon_jtag_uart_write+0x204>
    return ptr - start;
 180cf54:	e0fffc17 	ldw	r3,-16(fp)
 180cf58:	e0bff617 	ldw	r2,-40(fp)
 180cf5c:	1887c83a 	sub	r3,r3,r2
 180cf60:	e0ffff15 	stw	r3,-4(fp)
 180cf64:	00000906 	br	180cf8c <altera_avalon_jtag_uart_write+0x228>
  else if (flags & O_NONBLOCK)
 180cf68:	e0bffe17 	ldw	r2,-8(fp)
 180cf6c:	1090000c 	andi	r2,r2,16384
 180cf70:	1005003a 	cmpeq	r2,r2,zero
 180cf74:	1000031e 	bne	r2,zero,180cf84 <altera_avalon_jtag_uart_write+0x220>
    return -EWOULDBLOCK;
 180cf78:	00bffd44 	movi	r2,-11
 180cf7c:	e0bfff15 	stw	r2,-4(fp)
 180cf80:	00000206 	br	180cf8c <altera_avalon_jtag_uart_write+0x228>
  else
    return -EIO; /* Host not connected */
 180cf84:	00bffec4 	movi	r2,-5
 180cf88:	e0bfff15 	stw	r2,-4(fp)
 180cf8c:	e0bfff17 	ldw	r2,-4(fp)
}
 180cf90:	e037883a 	mov	sp,fp
 180cf94:	dfc00117 	ldw	ra,4(sp)
 180cf98:	df000017 	ldw	fp,0(sp)
 180cf9c:	dec00204 	addi	sp,sp,8
 180cfa0:	f800283a 	ret

0180cfa4 <lcd_write_command>:

/* --------------------------------------------------------------------- */

static void lcd_write_command(altera_avalon_lcd_16207_state* sp, 
  unsigned char command)
{
 180cfa4:	defffa04 	addi	sp,sp,-24
 180cfa8:	dfc00515 	stw	ra,20(sp)
 180cfac:	df000415 	stw	fp,16(sp)
 180cfb0:	df000404 	addi	fp,sp,16
 180cfb4:	e13ffe15 	stw	r4,-8(fp)
 180cfb8:	e17fff05 	stb	r5,-4(fp)
  unsigned int base = sp->base;
 180cfbc:	e0bffe17 	ldw	r2,-8(fp)
 180cfc0:	10800017 	ldw	r2,0(r2)
 180cfc4:	e0bffd15 	stw	r2,-12(fp)
  /* We impose a timeout on the driver in case the LCD panel isn't connected.
   * The first time we call this function the timeout is approx 25ms 
   * (assuming 5 cycles per loop and a 200MHz clock).  Obviously systems
   * with slower clocks, or debug builds, or slower memory will take longer.
   */
  int i = 1000000;
 180cfc8:	008003f4 	movhi	r2,15
 180cfcc:	10909004 	addi	r2,r2,16960
 180cfd0:	e0bffc15 	stw	r2,-16(fp)

  /* Don't bother if the LCD panel didn't work before */
  if (sp->broken)
 180cfd4:	e0bffe17 	ldw	r2,-8(fp)
 180cfd8:	10800803 	ldbu	r2,32(r2)
 180cfdc:	10803fcc 	andi	r2,r2,255
 180cfe0:	1080201c 	xori	r2,r2,128
 180cfe4:	10bfe004 	addi	r2,r2,-128
 180cfe8:	1004c03a 	cmpne	r2,r2,zero
 180cfec:	1000161e 	bne	r2,zero,180d048 <lcd_write_command+0xa4>
    return;

  /* Wait until LCD isn't busy. */
  while (IORD_ALTERA_AVALON_LCD_16207_STATUS(base) & ALTERA_AVALON_LCD_16207_STATUS_BUSY_MSK)
 180cff0:	00000a06 	br	180d01c <lcd_write_command+0x78>
    if (--i == 0)
 180cff4:	e0bffc17 	ldw	r2,-16(fp)
 180cff8:	10bfffc4 	addi	r2,r2,-1
 180cffc:	e0bffc15 	stw	r2,-16(fp)
 180d000:	e0bffc17 	ldw	r2,-16(fp)
 180d004:	1004c03a 	cmpne	r2,r2,zero
 180d008:	1000041e 	bne	r2,zero,180d01c <lcd_write_command+0x78>
    {
      sp->broken = 1;
 180d00c:	e0fffe17 	ldw	r3,-8(fp)
 180d010:	00800044 	movi	r2,1
 180d014:	18800805 	stb	r2,32(r3)
      return;
 180d018:	00000b06 	br	180d048 <lcd_write_command+0xa4>
  /* Don't bother if the LCD panel didn't work before */
  if (sp->broken)
    return;

  /* Wait until LCD isn't busy. */
  while (IORD_ALTERA_AVALON_LCD_16207_STATUS(base) & ALTERA_AVALON_LCD_16207_STATUS_BUSY_MSK)
 180d01c:	e0bffd17 	ldw	r2,-12(fp)
 180d020:	10800104 	addi	r2,r2,4
 180d024:	10800037 	ldwio	r2,0(r2)
 180d028:	1080200c 	andi	r2,r2,128
 180d02c:	1004c03a 	cmpne	r2,r2,zero
 180d030:	103ff01e 	bne	r2,zero,180cff4 <lcd_write_command+0x50>
    }

  /* Despite what it says in the datasheet, the LCD isn't ready to accept
   * a write immediately after it returns BUSY=0.  Wait for 100us more.
   */
  usleep(100);
 180d034:	01001904 	movi	r4,100
 180d038:	180a5200 	call	180a520 <usleep>

  IOWR_ALTERA_AVALON_LCD_16207_COMMAND(base, command);
 180d03c:	e0bffd17 	ldw	r2,-12(fp)
 180d040:	e0ffff03 	ldbu	r3,-4(fp)
 180d044:	10c00035 	stwio	r3,0(r2)
}
 180d048:	e037883a 	mov	sp,fp
 180d04c:	dfc00117 	ldw	ra,4(sp)
 180d050:	df000017 	ldw	fp,0(sp)
 180d054:	dec00204 	addi	sp,sp,8
 180d058:	f800283a 	ret

0180d05c <lcd_write_data>:

/* --------------------------------------------------------------------- */

static void lcd_write_data(altera_avalon_lcd_16207_state* sp, 
  unsigned char data)
{
 180d05c:	defffa04 	addi	sp,sp,-24
 180d060:	dfc00515 	stw	ra,20(sp)
 180d064:	df000415 	stw	fp,16(sp)
 180d068:	df000404 	addi	fp,sp,16
 180d06c:	e13ffe15 	stw	r4,-8(fp)
 180d070:	e17fff05 	stb	r5,-4(fp)
  unsigned int base = sp->base;
 180d074:	e0bffe17 	ldw	r2,-8(fp)
 180d078:	10800017 	ldw	r2,0(r2)
 180d07c:	e0bffd15 	stw	r2,-12(fp)
  /* We impose a timeout on the driver in case the LCD panel isn't connected.
   * The first time we call this function the timeout is approx 25ms 
   * (assuming 5 cycles per loop and a 200MHz clock).  Obviously systems
   * with slower clocks, or debug builds, or slower memory will take longer.
   */
  int i = 1000000;
 180d080:	008003f4 	movhi	r2,15
 180d084:	10909004 	addi	r2,r2,16960
 180d088:	e0bffc15 	stw	r2,-16(fp)

  /* Don't bother if the LCD panel didn't work before */
  if (sp->broken)
 180d08c:	e0bffe17 	ldw	r2,-8(fp)
 180d090:	10800803 	ldbu	r2,32(r2)
 180d094:	10803fcc 	andi	r2,r2,255
 180d098:	1080201c 	xori	r2,r2,128
 180d09c:	10bfe004 	addi	r2,r2,-128
 180d0a0:	1004c03a 	cmpne	r2,r2,zero
 180d0a4:	10001d1e 	bne	r2,zero,180d11c <lcd_write_data+0xc0>
    return;

  /* Wait until LCD isn't busy. */
  while (IORD_ALTERA_AVALON_LCD_16207_STATUS(base) & ALTERA_AVALON_LCD_16207_STATUS_BUSY_MSK)
 180d0a8:	00000a06 	br	180d0d4 <lcd_write_data+0x78>
    if (--i == 0)
 180d0ac:	e0bffc17 	ldw	r2,-16(fp)
 180d0b0:	10bfffc4 	addi	r2,r2,-1
 180d0b4:	e0bffc15 	stw	r2,-16(fp)
 180d0b8:	e0bffc17 	ldw	r2,-16(fp)
 180d0bc:	1004c03a 	cmpne	r2,r2,zero
 180d0c0:	1000041e 	bne	r2,zero,180d0d4 <lcd_write_data+0x78>
    {
      sp->broken = 1;
 180d0c4:	e0fffe17 	ldw	r3,-8(fp)
 180d0c8:	00800044 	movi	r2,1
 180d0cc:	18800805 	stb	r2,32(r3)
      return;
 180d0d0:	00001206 	br	180d11c <lcd_write_data+0xc0>
  /* Don't bother if the LCD panel didn't work before */
  if (sp->broken)
    return;

  /* Wait until LCD isn't busy. */
  while (IORD_ALTERA_AVALON_LCD_16207_STATUS(base) & ALTERA_AVALON_LCD_16207_STATUS_BUSY_MSK)
 180d0d4:	e0bffd17 	ldw	r2,-12(fp)
 180d0d8:	10800104 	addi	r2,r2,4
 180d0dc:	10800037 	ldwio	r2,0(r2)
 180d0e0:	1080200c 	andi	r2,r2,128
 180d0e4:	1004c03a 	cmpne	r2,r2,zero
 180d0e8:	103ff01e 	bne	r2,zero,180d0ac <lcd_write_data+0x50>
    }

  /* Despite what it says in the datasheet, the LCD isn't ready to accept
   * a write immediately after it returns BUSY=0.  Wait for 100us more.
   */
  usleep(100);
 180d0ec:	01001904 	movi	r4,100
 180d0f0:	180a5200 	call	180a520 <usleep>

  IOWR_ALTERA_AVALON_LCD_16207_DATA(base, data);
 180d0f4:	e0bffd17 	ldw	r2,-12(fp)
 180d0f8:	10800204 	addi	r2,r2,8
 180d0fc:	e0ffff03 	ldbu	r3,-4(fp)
 180d100:	10c00035 	stwio	r3,0(r2)

  sp->address++;
 180d104:	e0bffe17 	ldw	r2,-8(fp)
 180d108:	108008c3 	ldbu	r2,35(r2)
 180d10c:	10800044 	addi	r2,r2,1
 180d110:	1007883a 	mov	r3,r2
 180d114:	e0bffe17 	ldw	r2,-8(fp)
 180d118:	10c008c5 	stb	r3,35(r2)
}
 180d11c:	e037883a 	mov	sp,fp
 180d120:	dfc00117 	ldw	ra,4(sp)
 180d124:	df000017 	ldw	fp,0(sp)
 180d128:	dec00204 	addi	sp,sp,8
 180d12c:	f800283a 	ret

0180d130 <lcd_clear_screen>:

/* --------------------------------------------------------------------- */

static void lcd_clear_screen(altera_avalon_lcd_16207_state* sp)
{
 180d130:	defffc04 	addi	sp,sp,-16
 180d134:	dfc00315 	stw	ra,12(sp)
 180d138:	df000215 	stw	fp,8(sp)
 180d13c:	df000204 	addi	fp,sp,8
 180d140:	e13fff15 	stw	r4,-4(fp)
  int y;

  lcd_write_command(sp, LCD_CMD_CLEAR);
 180d144:	e13fff17 	ldw	r4,-4(fp)
 180d148:	01400044 	movi	r5,1
 180d14c:	180cfa40 	call	180cfa4 <lcd_write_command>

  sp->x = 0;
 180d150:	e0bfff17 	ldw	r2,-4(fp)
 180d154:	10000845 	stb	zero,33(r2)
  sp->y = 0;
 180d158:	e0bfff17 	ldw	r2,-4(fp)
 180d15c:	10000885 	stb	zero,34(r2)
  sp->address = 0;
 180d160:	e0bfff17 	ldw	r2,-4(fp)
 180d164:	100008c5 	stb	zero,35(r2)

  for (y = 0 ; y < ALT_LCD_HEIGHT ; y++)
 180d168:	e03ffe15 	stw	zero,-8(fp)
 180d16c:	00001906 	br	180d1d4 <lcd_clear_screen+0xa4>
  {
    memset(sp->line[y].data, ' ', sizeof(sp->line[0].data));
 180d170:	e0bffe17 	ldw	r2,-8(fp)
 180d174:	108018e4 	muli	r2,r2,99
 180d178:	10c01004 	addi	r3,r2,64
 180d17c:	e0bfff17 	ldw	r2,-4(fp)
 180d180:	1889883a 	add	r4,r3,r2
 180d184:	01400804 	movi	r5,32
 180d188:	01801444 	movi	r6,81
 180d18c:	1805a800 	call	1805a80 <memset>
    memset(sp->line[y].visible, ' ', sizeof(sp->line[0].visible));
 180d190:	e0bffe17 	ldw	r2,-8(fp)
 180d194:	108018e4 	muli	r2,r2,99
 180d198:	10c00c04 	addi	r3,r2,48
 180d19c:	e0bfff17 	ldw	r2,-4(fp)
 180d1a0:	1889883a 	add	r4,r3,r2
 180d1a4:	01400804 	movi	r5,32
 180d1a8:	01800404 	movi	r6,16
 180d1ac:	1805a800 	call	1805a80 <memset>
    sp->line[y].width = 0;
 180d1b0:	e0bffe17 	ldw	r2,-8(fp)
 180d1b4:	e0ffff17 	ldw	r3,-4(fp)
 180d1b8:	108018e4 	muli	r2,r2,99
 180d1bc:	10c5883a 	add	r2,r2,r3
 180d1c0:	10802404 	addi	r2,r2,144
 180d1c4:	10000045 	stb	zero,1(r2)

  sp->x = 0;
  sp->y = 0;
  sp->address = 0;

  for (y = 0 ; y < ALT_LCD_HEIGHT ; y++)
 180d1c8:	e0bffe17 	ldw	r2,-8(fp)
 180d1cc:	10800044 	addi	r2,r2,1
 180d1d0:	e0bffe15 	stw	r2,-8(fp)
 180d1d4:	e0bffe17 	ldw	r2,-8(fp)
 180d1d8:	10800090 	cmplti	r2,r2,2
 180d1dc:	103fe41e 	bne	r2,zero,180d170 <lcd_clear_screen+0x40>
  {
    memset(sp->line[y].data, ' ', sizeof(sp->line[0].data));
    memset(sp->line[y].visible, ' ', sizeof(sp->line[0].visible));
    sp->line[y].width = 0;
  }
}
 180d1e0:	e037883a 	mov	sp,fp
 180d1e4:	dfc00117 	ldw	ra,4(sp)
 180d1e8:	df000017 	ldw	fp,0(sp)
 180d1ec:	dec00204 	addi	sp,sp,8
 180d1f0:	f800283a 	ret

0180d1f4 <lcd_repaint_screen>:

/* --------------------------------------------------------------------- */

static void lcd_repaint_screen(altera_avalon_lcd_16207_state* sp)
{
 180d1f4:	defff704 	addi	sp,sp,-36
 180d1f8:	dfc00815 	stw	ra,32(sp)
 180d1fc:	df000715 	stw	fp,28(sp)
 180d200:	df000704 	addi	fp,sp,28
 180d204:	e13fff15 	stw	r4,-4(fp)
  /* scrollpos controls how much the lines have scrolled round.  The speed
   * each line scrolls at is controlled by its speed variable - while
   * scrolline lines will wrap at the position set by width
   */

  int scrollpos = sp->scrollpos;
 180d208:	e0bfff17 	ldw	r2,-4(fp)
 180d20c:	10800943 	ldbu	r2,37(r2)
 180d210:	10803fcc 	andi	r2,r2,255
 180d214:	1080201c 	xori	r2,r2,128
 180d218:	10bfe004 	addi	r2,r2,-128
 180d21c:	e0bffc15 	stw	r2,-16(fp)

  for (y = 0 ; y < ALT_LCD_HEIGHT ; y++)
 180d220:	e03ffe15 	stw	zero,-8(fp)
 180d224:	00006606 	br	180d3c0 <lcd_repaint_screen+0x1cc>
  {
    int width  = sp->line[y].width;
 180d228:	e0bffe17 	ldw	r2,-8(fp)
 180d22c:	e0ffff17 	ldw	r3,-4(fp)
 180d230:	108018e4 	muli	r2,r2,99
 180d234:	10c5883a 	add	r2,r2,r3
 180d238:	10802404 	addi	r2,r2,144
 180d23c:	10800043 	ldbu	r2,1(r2)
 180d240:	10803fcc 	andi	r2,r2,255
 180d244:	1080201c 	xori	r2,r2,128
 180d248:	10bfe004 	addi	r2,r2,-128
 180d24c:	e0bffb15 	stw	r2,-20(fp)
    int offset = (scrollpos * sp->line[y].speed) >> 8;
 180d250:	e0bffe17 	ldw	r2,-8(fp)
 180d254:	e0ffff17 	ldw	r3,-4(fp)
 180d258:	108018e4 	muli	r2,r2,99
 180d25c:	10c5883a 	add	r2,r2,r3
 180d260:	10802404 	addi	r2,r2,144
 180d264:	10800083 	ldbu	r2,2(r2)
 180d268:	10c03fcc 	andi	r3,r2,255
 180d26c:	e0bffc17 	ldw	r2,-16(fp)
 180d270:	1885383a 	mul	r2,r3,r2
 180d274:	1005d23a 	srai	r2,r2,8
 180d278:	e0bffa15 	stw	r2,-24(fp)
    if (offset >= width)
 180d27c:	e0fffa17 	ldw	r3,-24(fp)
 180d280:	e0bffb17 	ldw	r2,-20(fp)
 180d284:	18800116 	blt	r3,r2,180d28c <lcd_repaint_screen+0x98>
      offset = 0;
 180d288:	e03ffa15 	stw	zero,-24(fp)

    for (x = 0 ; x < ALT_LCD_WIDTH ; x++)
 180d28c:	e03ffd15 	stw	zero,-12(fp)
 180d290:	00004506 	br	180d3a8 <lcd_repaint_screen+0x1b4>
    {
      char c = sp->line[y].data[(x + offset) % width];
 180d294:	e17ffe17 	ldw	r5,-8(fp)
 180d298:	e0fffd17 	ldw	r3,-12(fp)
 180d29c:	e0bffa17 	ldw	r2,-24(fp)
 180d2a0:	1889883a 	add	r4,r3,r2
 180d2a4:	e0bffb17 	ldw	r2,-20(fp)
 180d2a8:	2087283a 	div	r3,r4,r2
 180d2ac:	e0bffb17 	ldw	r2,-20(fp)
 180d2b0:	1885383a 	mul	r2,r3,r2
 180d2b4:	2089c83a 	sub	r4,r4,r2
 180d2b8:	e0ffff17 	ldw	r3,-4(fp)
 180d2bc:	288018e4 	muli	r2,r5,99
 180d2c0:	10c5883a 	add	r2,r2,r3
 180d2c4:	1105883a 	add	r2,r2,r4
 180d2c8:	10801004 	addi	r2,r2,64
 180d2cc:	10800003 	ldbu	r2,0(r2)
 180d2d0:	e0bff945 	stb	r2,-27(fp)

      /* Writing data takes 40us, so don't do it unless required */
      if (sp->line[y].visible[x] != c)
 180d2d4:	e0bffe17 	ldw	r2,-8(fp)
 180d2d8:	e13ffd17 	ldw	r4,-12(fp)
 180d2dc:	e0ffff17 	ldw	r3,-4(fp)
 180d2e0:	108018e4 	muli	r2,r2,99
 180d2e4:	10c5883a 	add	r2,r2,r3
 180d2e8:	1105883a 	add	r2,r2,r4
 180d2ec:	10800c04 	addi	r2,r2,48
 180d2f0:	10800003 	ldbu	r2,0(r2)
 180d2f4:	10c03fcc 	andi	r3,r2,255
 180d2f8:	18c0201c 	xori	r3,r3,128
 180d2fc:	18ffe004 	addi	r3,r3,-128
 180d300:	e0bff947 	ldb	r2,-27(fp)
 180d304:	18802526 	beq	r3,r2,180d39c <lcd_repaint_screen+0x1a8>
      {
        unsigned char address = x + colstart[y];
 180d308:	e0fffe17 	ldw	r3,-8(fp)
 180d30c:	d0a00d04 	addi	r2,gp,-32716
 180d310:	1885883a 	add	r2,r3,r2
 180d314:	10800003 	ldbu	r2,0(r2)
 180d318:	1007883a 	mov	r3,r2
 180d31c:	e0bffd17 	ldw	r2,-12(fp)
 180d320:	1885883a 	add	r2,r3,r2
 180d324:	e0bff905 	stb	r2,-28(fp)

        if (address != sp->address)
 180d328:	e0fff903 	ldbu	r3,-28(fp)
 180d32c:	e0bfff17 	ldw	r2,-4(fp)
 180d330:	108008c3 	ldbu	r2,35(r2)
 180d334:	10803fcc 	andi	r2,r2,255
 180d338:	1080201c 	xori	r2,r2,128
 180d33c:	10bfe004 	addi	r2,r2,-128
 180d340:	18800926 	beq	r3,r2,180d368 <lcd_repaint_screen+0x174>
        {
          lcd_write_command(sp, LCD_CMD_WRITE_DATA | address);
 180d344:	e0fff903 	ldbu	r3,-28(fp)
 180d348:	00bfe004 	movi	r2,-128
 180d34c:	1884b03a 	or	r2,r3,r2
 180d350:	11403fcc 	andi	r5,r2,255
 180d354:	e13fff17 	ldw	r4,-4(fp)
 180d358:	180cfa40 	call	180cfa4 <lcd_write_command>
          sp->address = address;
 180d35c:	e0fff903 	ldbu	r3,-28(fp)
 180d360:	e0bfff17 	ldw	r2,-4(fp)
 180d364:	10c008c5 	stb	r3,35(r2)
        }

        lcd_write_data(sp, c);
 180d368:	e0bff943 	ldbu	r2,-27(fp)
 180d36c:	11403fcc 	andi	r5,r2,255
 180d370:	e13fff17 	ldw	r4,-4(fp)
 180d374:	180d05c0 	call	180d05c <lcd_write_data>
        sp->line[y].visible[x] = c;
 180d378:	e0bffe17 	ldw	r2,-8(fp)
 180d37c:	e13ffd17 	ldw	r4,-12(fp)
 180d380:	e0ffff17 	ldw	r3,-4(fp)
 180d384:	108018e4 	muli	r2,r2,99
 180d388:	10c5883a 	add	r2,r2,r3
 180d38c:	1105883a 	add	r2,r2,r4
 180d390:	10c00c04 	addi	r3,r2,48
 180d394:	e0bff943 	ldbu	r2,-27(fp)
 180d398:	18800005 	stb	r2,0(r3)
    int width  = sp->line[y].width;
    int offset = (scrollpos * sp->line[y].speed) >> 8;
    if (offset >= width)
      offset = 0;

    for (x = 0 ; x < ALT_LCD_WIDTH ; x++)
 180d39c:	e0bffd17 	ldw	r2,-12(fp)
 180d3a0:	10800044 	addi	r2,r2,1
 180d3a4:	e0bffd15 	stw	r2,-12(fp)
 180d3a8:	e0bffd17 	ldw	r2,-12(fp)
 180d3ac:	10800410 	cmplti	r2,r2,16
 180d3b0:	103fb81e 	bne	r2,zero,180d294 <lcd_repaint_screen+0xa0>
   * scrolline lines will wrap at the position set by width
   */

  int scrollpos = sp->scrollpos;

  for (y = 0 ; y < ALT_LCD_HEIGHT ; y++)
 180d3b4:	e0bffe17 	ldw	r2,-8(fp)
 180d3b8:	10800044 	addi	r2,r2,1
 180d3bc:	e0bffe15 	stw	r2,-8(fp)
 180d3c0:	e0bffe17 	ldw	r2,-8(fp)
 180d3c4:	10800090 	cmplti	r2,r2,2
 180d3c8:	103f971e 	bne	r2,zero,180d228 <lcd_repaint_screen+0x34>
        lcd_write_data(sp, c);
        sp->line[y].visible[x] = c;
      }
    }
  }
}
 180d3cc:	e037883a 	mov	sp,fp
 180d3d0:	dfc00117 	ldw	ra,4(sp)
 180d3d4:	df000017 	ldw	fp,0(sp)
 180d3d8:	dec00204 	addi	sp,sp,8
 180d3dc:	f800283a 	ret

0180d3e0 <lcd_scroll_up>:

/* --------------------------------------------------------------------- */

static void lcd_scroll_up(altera_avalon_lcd_16207_state* sp)
{
 180d3e0:	defffc04 	addi	sp,sp,-16
 180d3e4:	dfc00315 	stw	ra,12(sp)
 180d3e8:	df000215 	stw	fp,8(sp)
 180d3ec:	df000204 	addi	fp,sp,8
 180d3f0:	e13fff15 	stw	r4,-4(fp)
  int y;

  for (y = 0 ; y < ALT_LCD_HEIGHT ; y++)
 180d3f4:	e03ffe15 	stw	zero,-8(fp)
 180d3f8:	00001d06 	br	180d470 <lcd_scroll_up+0x90>
  {
    if (y < ALT_LCD_HEIGHT-1)
 180d3fc:	e0bffe17 	ldw	r2,-8(fp)
 180d400:	10800048 	cmpgei	r2,r2,1
 180d404:	10000f1e 	bne	r2,zero,180d444 <lcd_scroll_up+0x64>
      memcpy(sp->line[y].data, sp->line[y+1].data, ALT_LCD_VIRTUAL_WIDTH);
 180d408:	e0bffe17 	ldw	r2,-8(fp)
 180d40c:	108018e4 	muli	r2,r2,99
 180d410:	10c01004 	addi	r3,r2,64
 180d414:	e0bfff17 	ldw	r2,-4(fp)
 180d418:	1889883a 	add	r4,r3,r2
 180d41c:	e0bffe17 	ldw	r2,-8(fp)
 180d420:	10800044 	addi	r2,r2,1
 180d424:	108018e4 	muli	r2,r2,99
 180d428:	10c01004 	addi	r3,r2,64
 180d42c:	e0bfff17 	ldw	r2,-4(fp)
 180d430:	1885883a 	add	r2,r3,r2
 180d434:	100b883a 	mov	r5,r2
 180d438:	01801404 	movi	r6,80
 180d43c:	18059000 	call	1805900 <memcpy>
 180d440:	00000806 	br	180d464 <lcd_scroll_up+0x84>
    else
      memset(sp->line[y].data, ' ', ALT_LCD_VIRTUAL_WIDTH);
 180d444:	e0bffe17 	ldw	r2,-8(fp)
 180d448:	108018e4 	muli	r2,r2,99
 180d44c:	10c01004 	addi	r3,r2,64
 180d450:	e0bfff17 	ldw	r2,-4(fp)
 180d454:	1889883a 	add	r4,r3,r2
 180d458:	01400804 	movi	r5,32
 180d45c:	01801404 	movi	r6,80
 180d460:	1805a800 	call	1805a80 <memset>

static void lcd_scroll_up(altera_avalon_lcd_16207_state* sp)
{
  int y;

  for (y = 0 ; y < ALT_LCD_HEIGHT ; y++)
 180d464:	e0bffe17 	ldw	r2,-8(fp)
 180d468:	10800044 	addi	r2,r2,1
 180d46c:	e0bffe15 	stw	r2,-8(fp)
 180d470:	e0bffe17 	ldw	r2,-8(fp)
 180d474:	10800090 	cmplti	r2,r2,2
 180d478:	103fe01e 	bne	r2,zero,180d3fc <lcd_scroll_up+0x1c>
      memcpy(sp->line[y].data, sp->line[y+1].data, ALT_LCD_VIRTUAL_WIDTH);
    else
      memset(sp->line[y].data, ' ', ALT_LCD_VIRTUAL_WIDTH);
  }

  sp->y--;
 180d47c:	e0bfff17 	ldw	r2,-4(fp)
 180d480:	10800883 	ldbu	r2,34(r2)
 180d484:	10bfffc4 	addi	r2,r2,-1
 180d488:	1007883a 	mov	r3,r2
 180d48c:	e0bfff17 	ldw	r2,-4(fp)
 180d490:	10c00885 	stb	r3,34(r2)
}
 180d494:	e037883a 	mov	sp,fp
 180d498:	dfc00117 	ldw	ra,4(sp)
 180d49c:	df000017 	ldw	fp,0(sp)
 180d4a0:	dec00204 	addi	sp,sp,8
 180d4a4:	f800283a 	ret

0180d4a8 <lcd_handle_escape>:

/* --------------------------------------------------------------------- */

static void lcd_handle_escape(altera_avalon_lcd_16207_state* sp, char c)
{
 180d4a8:	defff804 	addi	sp,sp,-32
 180d4ac:	dfc00715 	stw	ra,28(sp)
 180d4b0:	df000615 	stw	fp,24(sp)
 180d4b4:	df000604 	addi	fp,sp,24
 180d4b8:	e13ffd15 	stw	r4,-12(fp)
 180d4bc:	e17ffe05 	stb	r5,-8(fp)
  int parm1 = 0, parm2 = 0;
 180d4c0:	e03ffc15 	stw	zero,-16(fp)
 180d4c4:	e03ffb15 	stw	zero,-20(fp)

  if (sp->escape[0] == '[')
 180d4c8:	e0bffd17 	ldw	r2,-12(fp)
 180d4cc:	10800a03 	ldbu	r2,40(r2)
 180d4d0:	10803fcc 	andi	r2,r2,255
 180d4d4:	1080201c 	xori	r2,r2,128
 180d4d8:	10bfe004 	addi	r2,r2,-128
 180d4dc:	108016d8 	cmpnei	r2,r2,91
 180d4e0:	1000491e 	bne	r2,zero,180d608 <lcd_handle_escape+0x160>
  {
    char * ptr = sp->escape+1;
 180d4e4:	e0bffd17 	ldw	r2,-12(fp)
 180d4e8:	10800a04 	addi	r2,r2,40
 180d4ec:	10800044 	addi	r2,r2,1
 180d4f0:	e0bffa15 	stw	r2,-24(fp)
    while (isdigit(*ptr))
 180d4f4:	00000d06 	br	180d52c <lcd_handle_escape+0x84>
      parm1 = (parm1 * 10) + (*ptr++ - '0');
 180d4f8:	e0bffc17 	ldw	r2,-16(fp)
 180d4fc:	10c002a4 	muli	r3,r2,10
 180d500:	e0bffa17 	ldw	r2,-24(fp)
 180d504:	10800003 	ldbu	r2,0(r2)
 180d508:	10803fcc 	andi	r2,r2,255
 180d50c:	1080201c 	xori	r2,r2,128
 180d510:	10bfe004 	addi	r2,r2,-128
 180d514:	1885883a 	add	r2,r3,r2
 180d518:	10bff404 	addi	r2,r2,-48
 180d51c:	e0bffc15 	stw	r2,-16(fp)
 180d520:	e0bffa17 	ldw	r2,-24(fp)
 180d524:	10800044 	addi	r2,r2,1
 180d528:	e0bffa15 	stw	r2,-24(fp)
  int parm1 = 0, parm2 = 0;

  if (sp->escape[0] == '[')
  {
    char * ptr = sp->escape+1;
    while (isdigit(*ptr))
 180d52c:	e0bffa17 	ldw	r2,-24(fp)
 180d530:	10800003 	ldbu	r2,0(r2)
 180d534:	10803fcc 	andi	r2,r2,255
 180d538:	1080201c 	xori	r2,r2,128
 180d53c:	10bfe004 	addi	r2,r2,-128
 180d540:	1007883a 	mov	r3,r2
 180d544:	00806074 	movhi	r2,385
 180d548:	108add04 	addi	r2,r2,11124
 180d54c:	10800017 	ldw	r2,0(r2)
 180d550:	1885883a 	add	r2,r3,r2
 180d554:	10800003 	ldbu	r2,0(r2)
 180d558:	10803fcc 	andi	r2,r2,255
 180d55c:	1080010c 	andi	r2,r2,4
 180d560:	1004c03a 	cmpne	r2,r2,zero
 180d564:	103fe41e 	bne	r2,zero,180d4f8 <lcd_handle_escape+0x50>
      parm1 = (parm1 * 10) + (*ptr++ - '0');

    if (*ptr == ';')
 180d568:	e0bffa17 	ldw	r2,-24(fp)
 180d56c:	10800003 	ldbu	r2,0(r2)
 180d570:	10803fcc 	andi	r2,r2,255
 180d574:	1080201c 	xori	r2,r2,128
 180d578:	10bfe004 	addi	r2,r2,-128
 180d57c:	10800ed8 	cmpnei	r2,r2,59
 180d580:	1000231e 	bne	r2,zero,180d610 <lcd_handle_escape+0x168>
    {
      ptr++;
 180d584:	e0bffa17 	ldw	r2,-24(fp)
 180d588:	10800044 	addi	r2,r2,1
 180d58c:	e0bffa15 	stw	r2,-24(fp)
      while (isdigit(*ptr))
 180d590:	00000d06 	br	180d5c8 <lcd_handle_escape+0x120>
        parm2 = (parm2 * 10) + (*ptr++ - '0');
 180d594:	e0bffb17 	ldw	r2,-20(fp)
 180d598:	10c002a4 	muli	r3,r2,10
 180d59c:	e0bffa17 	ldw	r2,-24(fp)
 180d5a0:	10800003 	ldbu	r2,0(r2)
 180d5a4:	10803fcc 	andi	r2,r2,255
 180d5a8:	1080201c 	xori	r2,r2,128
 180d5ac:	10bfe004 	addi	r2,r2,-128
 180d5b0:	1885883a 	add	r2,r3,r2
 180d5b4:	10bff404 	addi	r2,r2,-48
 180d5b8:	e0bffb15 	stw	r2,-20(fp)
 180d5bc:	e0bffa17 	ldw	r2,-24(fp)
 180d5c0:	10800044 	addi	r2,r2,1
 180d5c4:	e0bffa15 	stw	r2,-24(fp)
      parm1 = (parm1 * 10) + (*ptr++ - '0');

    if (*ptr == ';')
    {
      ptr++;
      while (isdigit(*ptr))
 180d5c8:	e0bffa17 	ldw	r2,-24(fp)
 180d5cc:	10800003 	ldbu	r2,0(r2)
 180d5d0:	10803fcc 	andi	r2,r2,255
 180d5d4:	1080201c 	xori	r2,r2,128
 180d5d8:	10bfe004 	addi	r2,r2,-128
 180d5dc:	1007883a 	mov	r3,r2
 180d5e0:	00806074 	movhi	r2,385
 180d5e4:	108add04 	addi	r2,r2,11124
 180d5e8:	10800017 	ldw	r2,0(r2)
 180d5ec:	1885883a 	add	r2,r3,r2
 180d5f0:	10800003 	ldbu	r2,0(r2)
 180d5f4:	10803fcc 	andi	r2,r2,255
 180d5f8:	1080010c 	andi	r2,r2,4
 180d5fc:	1004c03a 	cmpne	r2,r2,zero
 180d600:	103fe41e 	bne	r2,zero,180d594 <lcd_handle_escape+0xec>
 180d604:	00000206 	br	180d610 <lcd_handle_escape+0x168>
        parm2 = (parm2 * 10) + (*ptr++ - '0');
    }
  }
  else
    parm1 = -1;
 180d608:	00bfffc4 	movi	r2,-1
 180d60c:	e0bffc15 	stw	r2,-16(fp)

  switch (c)
 180d610:	e0bffe07 	ldb	r2,-8(fp)
 180d614:	e0bfff15 	stw	r2,-4(fp)
 180d618:	e0ffff17 	ldw	r3,-4(fp)
 180d61c:	188012a0 	cmpeqi	r2,r3,74
 180d620:	10002f1e 	bne	r2,zero,180d6e0 <lcd_handle_escape+0x238>
 180d624:	e0ffff17 	ldw	r3,-4(fp)
 180d628:	188012c8 	cmpgei	r2,r3,75
 180d62c:	1000041e 	bne	r2,zero,180d640 <lcd_handle_escape+0x198>
 180d630:	e0ffff17 	ldw	r3,-4(fp)
 180d634:	18801220 	cmpeqi	r2,r3,72
 180d638:	1000081e 	bne	r2,zero,180d65c <lcd_handle_escape+0x1b4>
 180d63c:	00004906 	br	180d764 <lcd_handle_escape+0x2bc>
 180d640:	e0ffff17 	ldw	r3,-4(fp)
 180d644:	188012e0 	cmpeqi	r2,r3,75
 180d648:	10002b1e 	bne	r2,zero,180d6f8 <lcd_handle_escape+0x250>
 180d64c:	e0ffff17 	ldw	r3,-4(fp)
 180d650:	188019a0 	cmpeqi	r2,r3,102
 180d654:	1000011e 	bne	r2,zero,180d65c <lcd_handle_escape+0x1b4>
 180d658:	00004206 	br	180d764 <lcd_handle_escape+0x2bc>
  {
  case 'H': /* ESC '[' <y> ';' <x> 'H'  : Move cursor to location */
  case 'f': /* Same as above */
    if (parm2 > 0)
 180d65c:	e0bffb17 	ldw	r2,-20(fp)
 180d660:	10800050 	cmplti	r2,r2,1
 180d664:	1000051e 	bne	r2,zero,180d67c <lcd_handle_escape+0x1d4>
      sp->x = parm2 - 1;
 180d668:	e0bffb17 	ldw	r2,-20(fp)
 180d66c:	10bfffc4 	addi	r2,r2,-1
 180d670:	1007883a 	mov	r3,r2
 180d674:	e0bffd17 	ldw	r2,-12(fp)
 180d678:	10c00845 	stb	r3,33(r2)
    if (parm1 > 0)
 180d67c:	e0bffc17 	ldw	r2,-16(fp)
 180d680:	10800050 	cmplti	r2,r2,1
 180d684:	1000371e 	bne	r2,zero,180d764 <lcd_handle_escape+0x2bc>
    {
      sp->y = parm1 - 1;
 180d688:	e0bffc17 	ldw	r2,-16(fp)
 180d68c:	10bfffc4 	addi	r2,r2,-1
 180d690:	1007883a 	mov	r3,r2
 180d694:	e0bffd17 	ldw	r2,-12(fp)
 180d698:	10c00885 	stb	r3,34(r2)
      if (sp->y > ALT_LCD_HEIGHT * 2)
 180d69c:	e0bffd17 	ldw	r2,-12(fp)
 180d6a0:	10800883 	ldbu	r2,34(r2)
 180d6a4:	10803fcc 	andi	r2,r2,255
 180d6a8:	10800170 	cmpltui	r2,r2,5
 180d6ac:	1000061e 	bne	r2,zero,180d6c8 <lcd_handle_escape+0x220>
        sp->y = ALT_LCD_HEIGHT * 2;
 180d6b0:	e0fffd17 	ldw	r3,-12(fp)
 180d6b4:	00800104 	movi	r2,4
 180d6b8:	18800885 	stb	r2,34(r3)
      while (sp->y > ALT_LCD_HEIGHT)
 180d6bc:	00000206 	br	180d6c8 <lcd_handle_escape+0x220>
        lcd_scroll_up(sp);
 180d6c0:	e13ffd17 	ldw	r4,-12(fp)
 180d6c4:	180d3e00 	call	180d3e0 <lcd_scroll_up>
    if (parm1 > 0)
    {
      sp->y = parm1 - 1;
      if (sp->y > ALT_LCD_HEIGHT * 2)
        sp->y = ALT_LCD_HEIGHT * 2;
      while (sp->y > ALT_LCD_HEIGHT)
 180d6c8:	e0bffd17 	ldw	r2,-12(fp)
 180d6cc:	10800883 	ldbu	r2,34(r2)
 180d6d0:	10803fcc 	andi	r2,r2,255
 180d6d4:	108000e8 	cmpgeui	r2,r2,3
 180d6d8:	103ff91e 	bne	r2,zero,180d6c0 <lcd_handle_escape+0x218>
        lcd_scroll_up(sp);
    }
    break;
 180d6dc:	00002106 	br	180d764 <lcd_handle_escape+0x2bc>
    /*   ESC J      is clear to beginning of line    [unimplemented]
     *   ESC [ 0 J  is clear to bottom of screen     [unimplemented]
     *   ESC [ 1 J  is clear to beginning of screen  [unimplemented]
     *   ESC [ 2 J  is clear screen
     */
    if (parm1 == 2)
 180d6e0:	e0bffc17 	ldw	r2,-16(fp)
 180d6e4:	10800098 	cmpnei	r2,r2,2
 180d6e8:	10001e1e 	bne	r2,zero,180d764 <lcd_handle_escape+0x2bc>
      lcd_clear_screen(sp);
 180d6ec:	e13ffd17 	ldw	r4,-12(fp)
 180d6f0:	180d1300 	call	180d130 <lcd_clear_screen>
    break;
 180d6f4:	00001b06 	br	180d764 <lcd_handle_escape+0x2bc>
    /*   ESC K      is clear to end of line
     *   ESC [ 0 K  is clear to end of line
     *   ESC [ 1 K  is clear to beginning of line    [unimplemented]
     *   ESC [ 2 K  is clear line                    [unimplemented]
     */
    if (parm1 < 1)
 180d6f8:	e0bffc17 	ldw	r2,-16(fp)
 180d6fc:	10800048 	cmpgei	r2,r2,1
 180d700:	1000181e 	bne	r2,zero,180d764 <lcd_handle_escape+0x2bc>
    {
      if (sp->x < ALT_LCD_VIRTUAL_WIDTH)
 180d704:	e0bffd17 	ldw	r2,-12(fp)
 180d708:	10800843 	ldbu	r2,33(r2)
 180d70c:	10803fcc 	andi	r2,r2,255
 180d710:	10801428 	cmpgeui	r2,r2,80
 180d714:	1000131e 	bne	r2,zero,180d764 <lcd_handle_escape+0x2bc>
        memset(sp->line[sp->y].data + sp->x, ' ', ALT_LCD_VIRTUAL_WIDTH - sp->x);
 180d718:	e0bffd17 	ldw	r2,-12(fp)
 180d71c:	10800883 	ldbu	r2,34(r2)
 180d720:	10803fcc 	andi	r2,r2,255
 180d724:	108018e4 	muli	r2,r2,99
 180d728:	10c01004 	addi	r3,r2,64
 180d72c:	e0bffd17 	ldw	r2,-12(fp)
 180d730:	1887883a 	add	r3,r3,r2
 180d734:	e0bffd17 	ldw	r2,-12(fp)
 180d738:	10800843 	ldbu	r2,33(r2)
 180d73c:	10803fcc 	andi	r2,r2,255
 180d740:	1889883a 	add	r4,r3,r2
 180d744:	e0bffd17 	ldw	r2,-12(fp)
 180d748:	10800843 	ldbu	r2,33(r2)
 180d74c:	10c03fcc 	andi	r3,r2,255
 180d750:	00801404 	movi	r2,80
 180d754:	10c5c83a 	sub	r2,r2,r3
 180d758:	100d883a 	mov	r6,r2
 180d75c:	01400804 	movi	r5,32
 180d760:	1805a800 	call	1805a80 <memset>
    }
    break;
  }
}
 180d764:	e037883a 	mov	sp,fp
 180d768:	dfc00117 	ldw	ra,4(sp)
 180d76c:	df000017 	ldw	fp,0(sp)
 180d770:	dec00204 	addi	sp,sp,8
 180d774:	f800283a 	ret

0180d778 <altera_avalon_lcd_16207_write>:

/* --------------------------------------------------------------------- */

int altera_avalon_lcd_16207_write(altera_avalon_lcd_16207_state* sp, 
  const char* ptr, int len, int flags)
{
 180d778:	defff304 	addi	sp,sp,-52
 180d77c:	dfc00c15 	stw	ra,48(sp)
 180d780:	df000b15 	stw	fp,44(sp)
 180d784:	df000b04 	addi	fp,sp,44
 180d788:	e13ffc15 	stw	r4,-16(fp)
 180d78c:	e17ffd15 	stw	r5,-12(fp)
 180d790:	e1bffe15 	stw	r6,-8(fp)
 180d794:	e1ffff15 	stw	r7,-4(fp)
  const char* end = ptr + len;
 180d798:	e0bffe17 	ldw	r2,-8(fp)
 180d79c:	1007883a 	mov	r3,r2
 180d7a0:	e0bffd17 	ldw	r2,-12(fp)
 180d7a4:	10c5883a 	add	r2,r2,r3
 180d7a8:	e0bffb15 	stw	r2,-20(fp)

  ALT_SEM_PEND (sp->write_lock, 0);

  /* Tell the routine which is called off the timer interrupt that the
   * foreground routines are active so it must not repaint the display. */
  sp->active = 1;
 180d7ac:	e0fffc17 	ldw	r3,-16(fp)
 180d7b0:	00800044 	movi	r2,1
 180d7b4:	188009c5 	stb	r2,39(r3)

  for ( ; ptr < end ; ptr++)
 180d7b8:	0000a206 	br	180da44 <altera_avalon_lcd_16207_write+0x2cc>
  {
    char c = *ptr;
 180d7bc:	e0bffd17 	ldw	r2,-12(fp)
 180d7c0:	10800003 	ldbu	r2,0(r2)
 180d7c4:	e0bff805 	stb	r2,-32(fp)

    if (sp->esccount >= 0)
 180d7c8:	e0bffc17 	ldw	r2,-16(fp)
 180d7cc:	10800903 	ldbu	r2,36(r2)
 180d7d0:	10803fcc 	andi	r2,r2,255
 180d7d4:	1080201c 	xori	r2,r2,128
 180d7d8:	10bfe004 	addi	r2,r2,-128
 180d7dc:	1004803a 	cmplt	r2,r2,zero
 180d7e0:	10003b1e 	bne	r2,zero,180d8d0 <altera_avalon_lcd_16207_write+0x158>
    {
      unsigned int esccount = sp->esccount;
 180d7e4:	e0bffc17 	ldw	r2,-16(fp)
 180d7e8:	10800903 	ldbu	r2,36(r2)
 180d7ec:	10803fcc 	andi	r2,r2,255
 180d7f0:	1080201c 	xori	r2,r2,128
 180d7f4:	10bfe004 	addi	r2,r2,-128
 180d7f8:	e0bff715 	stw	r2,-36(fp)

      /* Single character escape sequences can end with any character
       * Multi character escape sequences start with '[' and contain
       * digits and semicolons before terminating
       */
      if ((esccount == 0 && c != '[') ||
 180d7fc:	e0bff717 	ldw	r2,-36(fp)
 180d800:	1004c03a 	cmpne	r2,r2,zero
 180d804:	1000031e 	bne	r2,zero,180d814 <altera_avalon_lcd_16207_write+0x9c>
 180d808:	e0bff807 	ldb	r2,-32(fp)
 180d80c:	108016d8 	cmpnei	r2,r2,91
 180d810:	1000111e 	bne	r2,zero,180d858 <altera_avalon_lcd_16207_write+0xe0>
 180d814:	e0bff717 	ldw	r2,-36(fp)
 180d818:	1005003a 	cmpeq	r2,r2,zero
 180d81c:	10001a1e 	bne	r2,zero,180d888 <altera_avalon_lcd_16207_write+0x110>
 180d820:	e0bff807 	ldb	r2,-32(fp)
 180d824:	1007883a 	mov	r3,r2
 180d828:	00806074 	movhi	r2,385
 180d82c:	108add04 	addi	r2,r2,11124
 180d830:	10800017 	ldw	r2,0(r2)
 180d834:	1885883a 	add	r2,r3,r2
 180d838:	10800003 	ldbu	r2,0(r2)
 180d83c:	10803fcc 	andi	r2,r2,255
 180d840:	1080010c 	andi	r2,r2,4
 180d844:	1004c03a 	cmpne	r2,r2,zero
 180d848:	10000f1e 	bne	r2,zero,180d888 <altera_avalon_lcd_16207_write+0x110>
 180d84c:	e0bff807 	ldb	r2,-32(fp)
 180d850:	10800ee0 	cmpeqi	r2,r2,59
 180d854:	10000c1e 	bne	r2,zero,180d888 <altera_avalon_lcd_16207_write+0x110>
          (esccount > 0 && !isdigit(c) && c != ';'))
      {
        sp->escape[esccount] = 0;
 180d858:	e0fff717 	ldw	r3,-36(fp)
 180d85c:	e0bffc17 	ldw	r2,-16(fp)
 180d860:	1885883a 	add	r2,r3,r2
 180d864:	10800a04 	addi	r2,r2,40
 180d868:	10000005 	stb	zero,0(r2)

        lcd_handle_escape(sp, c);
 180d86c:	e17ff807 	ldb	r5,-32(fp)
 180d870:	e13ffc17 	ldw	r4,-16(fp)
 180d874:	180d4a80 	call	180d4a8 <lcd_handle_escape>

        sp->esccount = -1;
 180d878:	e0fffc17 	ldw	r3,-16(fp)
 180d87c:	00bfffc4 	movi	r2,-1
 180d880:	18800905 	stb	r2,36(r3)

      /* Single character escape sequences can end with any character
       * Multi character escape sequences start with '[' and contain
       * digits and semicolons before terminating
       */
      if ((esccount == 0 && c != '[') ||
 180d884:	00006c06 	br	180da38 <altera_avalon_lcd_16207_write+0x2c0>

        lcd_handle_escape(sp, c);

        sp->esccount = -1;
      }
      else if (sp->esccount < sizeof(sp->escape)-1)
 180d888:	e0bffc17 	ldw	r2,-16(fp)
 180d88c:	10800903 	ldbu	r2,36(r2)
 180d890:	10803fcc 	andi	r2,r2,255
 180d894:	108001e8 	cmpgeui	r2,r2,7
 180d898:	1000671e 	bne	r2,zero,180da38 <altera_avalon_lcd_16207_write+0x2c0>
      {
        sp->escape[esccount] = c;
 180d89c:	e0fff717 	ldw	r3,-36(fp)
 180d8a0:	e0bffc17 	ldw	r2,-16(fp)
 180d8a4:	1885883a 	add	r2,r3,r2
 180d8a8:	10c00a04 	addi	r3,r2,40
 180d8ac:	e0bff803 	ldbu	r2,-32(fp)
 180d8b0:	18800005 	stb	r2,0(r3)
        sp->esccount++;
 180d8b4:	e0bffc17 	ldw	r2,-16(fp)
 180d8b8:	10800903 	ldbu	r2,36(r2)
 180d8bc:	10800044 	addi	r2,r2,1
 180d8c0:	1007883a 	mov	r3,r2
 180d8c4:	e0bffc17 	ldw	r2,-16(fp)
 180d8c8:	10c00905 	stb	r3,36(r2)
 180d8cc:	00005a06 	br	180da38 <altera_avalon_lcd_16207_write+0x2c0>
      }
    }
    else if (c == 27) /* ESC */
 180d8d0:	e0bff807 	ldb	r2,-32(fp)
 180d8d4:	108006d8 	cmpnei	r2,r2,27
 180d8d8:	1000031e 	bne	r2,zero,180d8e8 <altera_avalon_lcd_16207_write+0x170>
    {
      sp->esccount = 0;
 180d8dc:	e0bffc17 	ldw	r2,-16(fp)
 180d8e0:	10000905 	stb	zero,36(r2)
 180d8e4:	00005406 	br	180da38 <altera_avalon_lcd_16207_write+0x2c0>
    }
    else if (c == '\r')
 180d8e8:	e0bff807 	ldb	r2,-32(fp)
 180d8ec:	10800358 	cmpnei	r2,r2,13
 180d8f0:	1000031e 	bne	r2,zero,180d900 <altera_avalon_lcd_16207_write+0x188>
    {
      sp->x = 0;
 180d8f4:	e0bffc17 	ldw	r2,-16(fp)
 180d8f8:	10000845 	stb	zero,33(r2)
 180d8fc:	00004e06 	br	180da38 <altera_avalon_lcd_16207_write+0x2c0>
    }
    else if (c == '\n')
 180d900:	e0bff807 	ldb	r2,-32(fp)
 180d904:	10800298 	cmpnei	r2,r2,10
 180d908:	1000101e 	bne	r2,zero,180d94c <altera_avalon_lcd_16207_write+0x1d4>
    {
      sp->x = 0;
 180d90c:	e0bffc17 	ldw	r2,-16(fp)
 180d910:	10000845 	stb	zero,33(r2)
      sp->y++;
 180d914:	e0bffc17 	ldw	r2,-16(fp)
 180d918:	10800883 	ldbu	r2,34(r2)
 180d91c:	10800044 	addi	r2,r2,1
 180d920:	1007883a 	mov	r3,r2
 180d924:	e0bffc17 	ldw	r2,-16(fp)
 180d928:	10c00885 	stb	r3,34(r2)

      /* Let the cursor sit at X=0, Y=HEIGHT without scrolling so the user
       * can print two lines of data without losing one.
       */
      if (sp->y > ALT_LCD_HEIGHT)
 180d92c:	e0bffc17 	ldw	r2,-16(fp)
 180d930:	10800883 	ldbu	r2,34(r2)
 180d934:	10803fcc 	andi	r2,r2,255
 180d938:	108000f0 	cmpltui	r2,r2,3
 180d93c:	10003e1e 	bne	r2,zero,180da38 <altera_avalon_lcd_16207_write+0x2c0>
        lcd_scroll_up(sp);
 180d940:	e13ffc17 	ldw	r4,-16(fp)
 180d944:	180d3e00 	call	180d3e0 <lcd_scroll_up>
 180d948:	00003b06 	br	180da38 <altera_avalon_lcd_16207_write+0x2c0>
    }
    else if (c == '\b')
 180d94c:	e0bff807 	ldb	r2,-32(fp)
 180d950:	10800218 	cmpnei	r2,r2,8
 180d954:	10000c1e 	bne	r2,zero,180d988 <altera_avalon_lcd_16207_write+0x210>
    {
      if (sp->x > 0)
 180d958:	e0bffc17 	ldw	r2,-16(fp)
 180d95c:	10800843 	ldbu	r2,33(r2)
 180d960:	10803fcc 	andi	r2,r2,255
 180d964:	1005003a 	cmpeq	r2,r2,zero
 180d968:	1000331e 	bne	r2,zero,180da38 <altera_avalon_lcd_16207_write+0x2c0>
        sp->x--;
 180d96c:	e0bffc17 	ldw	r2,-16(fp)
 180d970:	10800843 	ldbu	r2,33(r2)
 180d974:	10bfffc4 	addi	r2,r2,-1
 180d978:	1007883a 	mov	r3,r2
 180d97c:	e0bffc17 	ldw	r2,-16(fp)
 180d980:	10c00845 	stb	r3,33(r2)
 180d984:	00002c06 	br	180da38 <altera_avalon_lcd_16207_write+0x2c0>
    }
    else if (isprint(c))
 180d988:	e0bff807 	ldb	r2,-32(fp)
 180d98c:	1007883a 	mov	r3,r2
 180d990:	00806074 	movhi	r2,385
 180d994:	108add04 	addi	r2,r2,11124
 180d998:	10800017 	ldw	r2,0(r2)
 180d99c:	1885883a 	add	r2,r3,r2
 180d9a0:	10800003 	ldbu	r2,0(r2)
 180d9a4:	10803fcc 	andi	r2,r2,255
 180d9a8:	1080201c 	xori	r2,r2,128
 180d9ac:	10bfe004 	addi	r2,r2,-128
 180d9b0:	108025cc 	andi	r2,r2,151
 180d9b4:	1005003a 	cmpeq	r2,r2,zero
 180d9b8:	10001f1e 	bne	r2,zero,180da38 <altera_avalon_lcd_16207_write+0x2c0>
    {
      /* If we didn't scroll on the last linefeed then we might need to do
       * it now. */
      if (sp->y >= ALT_LCD_HEIGHT)
 180d9bc:	e0bffc17 	ldw	r2,-16(fp)
 180d9c0:	10800883 	ldbu	r2,34(r2)
 180d9c4:	10803fcc 	andi	r2,r2,255
 180d9c8:	108000b0 	cmpltui	r2,r2,2
 180d9cc:	1000021e 	bne	r2,zero,180d9d8 <altera_avalon_lcd_16207_write+0x260>
        lcd_scroll_up(sp);
 180d9d0:	e13ffc17 	ldw	r4,-16(fp)
 180d9d4:	180d3e00 	call	180d3e0 <lcd_scroll_up>

      if (sp->x < ALT_LCD_VIRTUAL_WIDTH)
 180d9d8:	e0bffc17 	ldw	r2,-16(fp)
 180d9dc:	10800843 	ldbu	r2,33(r2)
 180d9e0:	10803fcc 	andi	r2,r2,255
 180d9e4:	10801428 	cmpgeui	r2,r2,80
 180d9e8:	10000d1e 	bne	r2,zero,180da20 <altera_avalon_lcd_16207_write+0x2a8>
        sp->line[sp->y].data[sp->x] = c;
 180d9ec:	e0bffc17 	ldw	r2,-16(fp)
 180d9f0:	10800883 	ldbu	r2,34(r2)
 180d9f4:	11003fcc 	andi	r4,r2,255
 180d9f8:	e0bffc17 	ldw	r2,-16(fp)
 180d9fc:	10800843 	ldbu	r2,33(r2)
 180da00:	11403fcc 	andi	r5,r2,255
 180da04:	e0fffc17 	ldw	r3,-16(fp)
 180da08:	208018e4 	muli	r2,r4,99
 180da0c:	10c5883a 	add	r2,r2,r3
 180da10:	1145883a 	add	r2,r2,r5
 180da14:	10c01004 	addi	r3,r2,64
 180da18:	e0bff803 	ldbu	r2,-32(fp)
 180da1c:	18800005 	stb	r2,0(r3)

      sp->x++;
 180da20:	e0bffc17 	ldw	r2,-16(fp)
 180da24:	10800843 	ldbu	r2,33(r2)
 180da28:	10800044 	addi	r2,r2,1
 180da2c:	1007883a 	mov	r3,r2
 180da30:	e0bffc17 	ldw	r2,-16(fp)
 180da34:	10c00845 	stb	r3,33(r2)

  /* Tell the routine which is called off the timer interrupt that the
   * foreground routines are active so it must not repaint the display. */
  sp->active = 1;

  for ( ; ptr < end ; ptr++)
 180da38:	e0bffd17 	ldw	r2,-12(fp)
 180da3c:	10800044 	addi	r2,r2,1
 180da40:	e0bffd15 	stw	r2,-12(fp)
 180da44:	e0fffd17 	ldw	r3,-12(fp)
 180da48:	e0bffb17 	ldw	r2,-20(fp)
 180da4c:	18bf5b36 	bltu	r3,r2,180d7bc <altera_avalon_lcd_16207_write+0x44>
      sp->x++;
    }
  }

  /* Recalculate the scrolling parameters */
  widthmax = ALT_LCD_WIDTH;
 180da50:	00800404 	movi	r2,16
 180da54:	e0bff915 	stw	r2,-28(fp)
  for (y = 0 ; y < ALT_LCD_HEIGHT ; y++)
 180da58:	e03ffa15 	stw	zero,-24(fp)
 180da5c:	00003606 	br	180db38 <altera_avalon_lcd_16207_write+0x3c0>
  {
    int width;
    for (width = ALT_LCD_VIRTUAL_WIDTH ; width > 0 ; width--)
 180da60:	00801404 	movi	r2,80
 180da64:	e0bff615 	stw	r2,-40(fp)
 180da68:	00001106 	br	180dab0 <altera_avalon_lcd_16207_write+0x338>
      if (sp->line[y].data[width-1] != ' ')
 180da6c:	e13ffa17 	ldw	r4,-24(fp)
 180da70:	e0bff617 	ldw	r2,-40(fp)
 180da74:	117fffc4 	addi	r5,r2,-1
 180da78:	e0fffc17 	ldw	r3,-16(fp)
 180da7c:	208018e4 	muli	r2,r4,99
 180da80:	10c5883a 	add	r2,r2,r3
 180da84:	1145883a 	add	r2,r2,r5
 180da88:	10801004 	addi	r2,r2,64
 180da8c:	10800003 	ldbu	r2,0(r2)
 180da90:	10803fcc 	andi	r2,r2,255
 180da94:	1080201c 	xori	r2,r2,128
 180da98:	10bfe004 	addi	r2,r2,-128
 180da9c:	10800818 	cmpnei	r2,r2,32
 180daa0:	1000061e 	bne	r2,zero,180dabc <altera_avalon_lcd_16207_write+0x344>
  /* Recalculate the scrolling parameters */
  widthmax = ALT_LCD_WIDTH;
  for (y = 0 ; y < ALT_LCD_HEIGHT ; y++)
  {
    int width;
    for (width = ALT_LCD_VIRTUAL_WIDTH ; width > 0 ; width--)
 180daa4:	e0bff617 	ldw	r2,-40(fp)
 180daa8:	10bfffc4 	addi	r2,r2,-1
 180daac:	e0bff615 	stw	r2,-40(fp)
 180dab0:	e0bff617 	ldw	r2,-40(fp)
 180dab4:	10800048 	cmpgei	r2,r2,1
 180dab8:	103fec1e 	bne	r2,zero,180da6c <altera_avalon_lcd_16207_write+0x2f4>

    /* The minimum width is the size of the LCD panel.  If the real width
     * is long enough to require scrolling then add an extra space so the
     * end of the message doesn't run into the beginning of it.
     */
    if (width <= ALT_LCD_WIDTH)
 180dabc:	e0bff617 	ldw	r2,-40(fp)
 180dac0:	10800448 	cmpgei	r2,r2,17
 180dac4:	1000031e 	bne	r2,zero,180dad4 <altera_avalon_lcd_16207_write+0x35c>
      width = ALT_LCD_WIDTH;
 180dac8:	00800404 	movi	r2,16
 180dacc:	e0bff615 	stw	r2,-40(fp)
 180dad0:	00000306 	br	180dae0 <altera_avalon_lcd_16207_write+0x368>
    else
      width++;
 180dad4:	e0bff617 	ldw	r2,-40(fp)
 180dad8:	10800044 	addi	r2,r2,1
 180dadc:	e0bff615 	stw	r2,-40(fp)

    sp->line[y].width = width;
 180dae0:	e13ffa17 	ldw	r4,-24(fp)
 180dae4:	e0bff617 	ldw	r2,-40(fp)
 180dae8:	100b883a 	mov	r5,r2
 180daec:	e0fffc17 	ldw	r3,-16(fp)
 180daf0:	208018e4 	muli	r2,r4,99
 180daf4:	10c5883a 	add	r2,r2,r3
 180daf8:	10802404 	addi	r2,r2,144
 180dafc:	11400045 	stb	r5,1(r2)
    if (widthmax < width)
 180db00:	e0fff917 	ldw	r3,-28(fp)
 180db04:	e0bff617 	ldw	r2,-40(fp)
 180db08:	1880020e 	bge	r3,r2,180db14 <altera_avalon_lcd_16207_write+0x39c>
      widthmax = width;
 180db0c:	e0bff617 	ldw	r2,-40(fp)
 180db10:	e0bff915 	stw	r2,-28(fp)
    sp->line[y].speed = 0; /* By default lines don't scroll */
 180db14:	e0bffa17 	ldw	r2,-24(fp)
 180db18:	e0fffc17 	ldw	r3,-16(fp)
 180db1c:	108018e4 	muli	r2,r2,99
 180db20:	10c5883a 	add	r2,r2,r3
 180db24:	10802404 	addi	r2,r2,144
 180db28:	10000085 	stb	zero,2(r2)
    }
  }

  /* Recalculate the scrolling parameters */
  widthmax = ALT_LCD_WIDTH;
  for (y = 0 ; y < ALT_LCD_HEIGHT ; y++)
 180db2c:	e0bffa17 	ldw	r2,-24(fp)
 180db30:	10800044 	addi	r2,r2,1
 180db34:	e0bffa15 	stw	r2,-24(fp)
 180db38:	e0bffa17 	ldw	r2,-24(fp)
 180db3c:	10800090 	cmplti	r2,r2,2
 180db40:	103fc71e 	bne	r2,zero,180da60 <altera_avalon_lcd_16207_write+0x2e8>
    if (widthmax < width)
      widthmax = width;
    sp->line[y].speed = 0; /* By default lines don't scroll */
  }

  if (widthmax <= ALT_LCD_WIDTH)
 180db44:	e0bff917 	ldw	r2,-28(fp)
 180db48:	10800448 	cmpgei	r2,r2,17
 180db4c:	1000031e 	bne	r2,zero,180db5c <altera_avalon_lcd_16207_write+0x3e4>
    sp->scrollmax = 0;
 180db50:	e0bffc17 	ldw	r2,-16(fp)
 180db54:	10000985 	stb	zero,38(r2)
 180db58:	00002d06 	br	180dc10 <altera_avalon_lcd_16207_write+0x498>
  else
  {
    widthmax *= 2;
 180db5c:	e0bff917 	ldw	r2,-28(fp)
 180db60:	1085883a 	add	r2,r2,r2
 180db64:	e0bff915 	stw	r2,-28(fp)
    sp->scrollmax = widthmax;
 180db68:	e0bff917 	ldw	r2,-28(fp)
 180db6c:	1007883a 	mov	r3,r2
 180db70:	e0bffc17 	ldw	r2,-16(fp)
 180db74:	10c00985 	stb	r3,38(r2)

    /* Now calculate how fast each of the other lines should go */
    for (y = 0 ; y < ALT_LCD_HEIGHT ; y++)
 180db78:	e03ffa15 	stw	zero,-24(fp)
 180db7c:	00002106 	br	180dc04 <altera_avalon_lcd_16207_write+0x48c>
      if (sp->line[y].width > ALT_LCD_WIDTH)
 180db80:	e0bffa17 	ldw	r2,-24(fp)
 180db84:	e0fffc17 	ldw	r3,-16(fp)
 180db88:	108018e4 	muli	r2,r2,99
 180db8c:	10c5883a 	add	r2,r2,r3
 180db90:	10802404 	addi	r2,r2,144
 180db94:	10800043 	ldbu	r2,1(r2)
 180db98:	10803fcc 	andi	r2,r2,255
 180db9c:	1080201c 	xori	r2,r2,128
 180dba0:	10bfe004 	addi	r2,r2,-128
 180dba4:	10800450 	cmplti	r2,r2,17
 180dba8:	1000131e 	bne	r2,zero,180dbf8 <altera_avalon_lcd_16207_write+0x480>
         */
#if 1
        /* This option makes all the lines scroll round at different speeds
         * which are chosen so that all the scrolls finish at the same time.
         */
        sp->line[y].speed = 256 * sp->line[y].width / widthmax;
 180dbac:	e17ffa17 	ldw	r5,-24(fp)
 180dbb0:	e0bffa17 	ldw	r2,-24(fp)
 180dbb4:	e0fffc17 	ldw	r3,-16(fp)
 180dbb8:	108018e4 	muli	r2,r2,99
 180dbbc:	10c5883a 	add	r2,r2,r3
 180dbc0:	10802404 	addi	r2,r2,144
 180dbc4:	10800043 	ldbu	r2,1(r2)
 180dbc8:	10803fcc 	andi	r2,r2,255
 180dbcc:	1080201c 	xori	r2,r2,128
 180dbd0:	10bfe004 	addi	r2,r2,-128
 180dbd4:	1006923a 	slli	r3,r2,8
 180dbd8:	e0bff917 	ldw	r2,-28(fp)
 180dbdc:	1885283a 	div	r2,r3,r2
 180dbe0:	1009883a 	mov	r4,r2
 180dbe4:	e0fffc17 	ldw	r3,-16(fp)
 180dbe8:	288018e4 	muli	r2,r5,99
 180dbec:	10c5883a 	add	r2,r2,r3
 180dbf0:	10802404 	addi	r2,r2,144
 180dbf4:	11000085 	stb	r4,2(r2)
  {
    widthmax *= 2;
    sp->scrollmax = widthmax;

    /* Now calculate how fast each of the other lines should go */
    for (y = 0 ; y < ALT_LCD_HEIGHT ; y++)
 180dbf8:	e0bffa17 	ldw	r2,-24(fp)
 180dbfc:	10800044 	addi	r2,r2,1
 180dc00:	e0bffa15 	stw	r2,-24(fp)
 180dc04:	e0bffa17 	ldw	r2,-24(fp)
 180dc08:	10800090 	cmplti	r2,r2,2
 180dc0c:	103fdc1e 	bne	r2,zero,180db80 <altera_avalon_lcd_16207_write+0x408>
   * (because active was set when the timer interrupt occurred).  If there
   * has been a missed repaint then paint again.  And again.  etc.
   */
  for ( ; ; )
  {
    int old_scrollpos = sp->scrollpos;
 180dc10:	e0bffc17 	ldw	r2,-16(fp)
 180dc14:	10800943 	ldbu	r2,37(r2)
 180dc18:	10803fcc 	andi	r2,r2,255
 180dc1c:	1080201c 	xori	r2,r2,128
 180dc20:	10bfe004 	addi	r2,r2,-128
 180dc24:	e0bff515 	stw	r2,-44(fp)

    lcd_repaint_screen(sp);
 180dc28:	e13ffc17 	ldw	r4,-16(fp)
 180dc2c:	180d1f40 	call	180d1f4 <lcd_repaint_screen>

    /* Let the timer routines repaint the display again */
    sp->active = 0;
 180dc30:	e0bffc17 	ldw	r2,-16(fp)
 180dc34:	100009c5 	stb	zero,39(r2)

    /* Have the timer routines tried to scroll while we were painting?
     * If not then we can exit */
    if (sp->scrollpos == old_scrollpos)
 180dc38:	e0bffc17 	ldw	r2,-16(fp)
 180dc3c:	10800943 	ldbu	r2,37(r2)
 180dc40:	10c03fcc 	andi	r3,r2,255
 180dc44:	18c0201c 	xori	r3,r3,128
 180dc48:	18ffe004 	addi	r3,r3,-128
 180dc4c:	e0bff517 	ldw	r2,-44(fp)
 180dc50:	18800426 	beq	r3,r2,180dc64 <altera_avalon_lcd_16207_write+0x4ec>
      break;

    /* We need to repaint again since the display scrolled while we were
     * painting last time */
    sp->active = 1;
 180dc54:	e0fffc17 	ldw	r3,-16(fp)
 180dc58:	00800044 	movi	r2,1
 180dc5c:	188009c5 	stb	r2,39(r3)
  }
 180dc60:	003feb06 	br	180dc10 <altera_avalon_lcd_16207_write+0x498>
   * semaphore so that other threads can access the buffer.
   */

  ALT_SEM_POST (sp->write_lock);

  return len;
 180dc64:	e0bffe17 	ldw	r2,-8(fp)
}
 180dc68:	e037883a 	mov	sp,fp
 180dc6c:	dfc00117 	ldw	ra,4(sp)
 180dc70:	df000017 	ldw	fp,0(sp)
 180dc74:	dec00204 	addi	sp,sp,8
 180dc78:	f800283a 	ret

0180dc7c <alt_lcd_16207_timeout>:
/*
 * Timeout routine is called every second
 */

static alt_u32 alt_lcd_16207_timeout(void* context) 
{
 180dc7c:	defffc04 	addi	sp,sp,-16
 180dc80:	dfc00315 	stw	ra,12(sp)
 180dc84:	df000215 	stw	fp,8(sp)
 180dc88:	df000204 	addi	fp,sp,8
 180dc8c:	e13fff15 	stw	r4,-4(fp)
  altera_avalon_lcd_16207_state* sp = (altera_avalon_lcd_16207_state*)context;
 180dc90:	e0bfff17 	ldw	r2,-4(fp)
 180dc94:	e0bffe15 	stw	r2,-8(fp)

  /* Update the scrolling position */
  if (sp->scrollpos + 1 >= sp->scrollmax)
 180dc98:	e0bffe17 	ldw	r2,-8(fp)
 180dc9c:	10800943 	ldbu	r2,37(r2)
 180dca0:	10803fcc 	andi	r2,r2,255
 180dca4:	1080201c 	xori	r2,r2,128
 180dca8:	10bfe004 	addi	r2,r2,-128
 180dcac:	10c00044 	addi	r3,r2,1
 180dcb0:	e0bffe17 	ldw	r2,-8(fp)
 180dcb4:	10800983 	ldbu	r2,38(r2)
 180dcb8:	10803fcc 	andi	r2,r2,255
 180dcbc:	1080201c 	xori	r2,r2,128
 180dcc0:	10bfe004 	addi	r2,r2,-128
 180dcc4:	18800316 	blt	r3,r2,180dcd4 <alt_lcd_16207_timeout+0x58>
    sp->scrollpos = 0;
 180dcc8:	e0bffe17 	ldw	r2,-8(fp)
 180dccc:	10000945 	stb	zero,37(r2)
 180dcd0:	00000606 	br	180dcec <alt_lcd_16207_timeout+0x70>
  else
    sp->scrollpos = sp->scrollpos + 1;
 180dcd4:	e0bffe17 	ldw	r2,-8(fp)
 180dcd8:	10800943 	ldbu	r2,37(r2)
 180dcdc:	10800044 	addi	r2,r2,1
 180dce0:	1007883a 	mov	r3,r2
 180dce4:	e0bffe17 	ldw	r2,-8(fp)
 180dce8:	10c00945 	stb	r3,37(r2)

  /* Repaint the panel unless the foreground will do it again soon */
  if (sp->scrollmax > 0 && !sp->active)
 180dcec:	e0bffe17 	ldw	r2,-8(fp)
 180dcf0:	10800983 	ldbu	r2,38(r2)
 180dcf4:	10803fcc 	andi	r2,r2,255
 180dcf8:	1080201c 	xori	r2,r2,128
 180dcfc:	10bfe004 	addi	r2,r2,-128
 180dd00:	10800050 	cmplti	r2,r2,1
 180dd04:	1000091e 	bne	r2,zero,180dd2c <alt_lcd_16207_timeout+0xb0>
 180dd08:	e0bffe17 	ldw	r2,-8(fp)
 180dd0c:	108009c3 	ldbu	r2,39(r2)
 180dd10:	10803fcc 	andi	r2,r2,255
 180dd14:	1080201c 	xori	r2,r2,128
 180dd18:	10bfe004 	addi	r2,r2,-128
 180dd1c:	1004c03a 	cmpne	r2,r2,zero
 180dd20:	1000021e 	bne	r2,zero,180dd2c <alt_lcd_16207_timeout+0xb0>
    lcd_repaint_screen(sp);
 180dd24:	e13ffe17 	ldw	r4,-8(fp)
 180dd28:	180d1f40 	call	180d1f4 <lcd_repaint_screen>

  return sp->period;
 180dd2c:	e0bffe17 	ldw	r2,-8(fp)
 180dd30:	10800717 	ldw	r2,28(r2)
}
 180dd34:	e037883a 	mov	sp,fp
 180dd38:	dfc00117 	ldw	ra,4(sp)
 180dd3c:	df000017 	ldw	fp,0(sp)
 180dd40:	dec00204 	addi	sp,sp,8
 180dd44:	f800283a 	ret

0180dd48 <altera_avalon_lcd_16207_init>:

/*
 * Called at boot time to initialise the LCD driver
 */
void altera_avalon_lcd_16207_init(altera_avalon_lcd_16207_state* sp)
{
 180dd48:	defffc04 	addi	sp,sp,-16
 180dd4c:	dfc00315 	stw	ra,12(sp)
 180dd50:	df000215 	stw	fp,8(sp)
 180dd54:	df000204 	addi	fp,sp,8
 180dd58:	e13fff15 	stw	r4,-4(fp)
  unsigned int base = sp->base;
 180dd5c:	e0bfff17 	ldw	r2,-4(fp)
 180dd60:	10800017 	ldw	r2,0(r2)
 180dd64:	e0bffe15 	stw	r2,-8(fp)

  /* Mark the device as functional */
  sp->broken = 0;
 180dd68:	e0bfff17 	ldw	r2,-4(fp)
 180dd6c:	10000805 	stb	zero,32(r2)
   * the BUSY bit in the status register doesn't work until the display
   * has been reset three times.
   */

  /* Wait for 15 ms then reset */
  usleep(15000);
 180dd70:	010ea604 	movi	r4,15000
 180dd74:	180a5200 	call	180a520 <usleep>
  IOWR_ALTERA_AVALON_LCD_16207_COMMAND(base, LCD_CMD_FUNCTION_SET | LCD_CMD_8BIT);
 180dd78:	e0bffe17 	ldw	r2,-8(fp)
 180dd7c:	1007883a 	mov	r3,r2
 180dd80:	00800c04 	movi	r2,48
 180dd84:	18800035 	stwio	r2,0(r3)

  /* Wait for another 4.1ms and reset again */
  usleep(4100);  
 180dd88:	01040104 	movi	r4,4100
 180dd8c:	180a5200 	call	180a520 <usleep>
  IOWR_ALTERA_AVALON_LCD_16207_COMMAND(base, LCD_CMD_FUNCTION_SET | LCD_CMD_8BIT);
 180dd90:	e0bffe17 	ldw	r2,-8(fp)
 180dd94:	1007883a 	mov	r3,r2
 180dd98:	00800c04 	movi	r2,48
 180dd9c:	18800035 	stwio	r2,0(r3)

  /* Wait a further 1 ms and reset a third time */
  usleep(1000);
 180dda0:	0100fa04 	movi	r4,1000
 180dda4:	180a5200 	call	180a520 <usleep>
  IOWR_ALTERA_AVALON_LCD_16207_COMMAND(base, LCD_CMD_FUNCTION_SET | LCD_CMD_8BIT);
 180dda8:	e0bffe17 	ldw	r2,-8(fp)
 180ddac:	1007883a 	mov	r3,r2
 180ddb0:	00800c04 	movi	r2,48
 180ddb4:	18800035 	stwio	r2,0(r3)

  /* Setup interface parameters: 8 bit bus, 2 rows, 5x7 font */
  lcd_write_command(sp, LCD_CMD_FUNCTION_SET | LCD_CMD_8BIT | LCD_CMD_TWO_LINE);
 180ddb8:	e13fff17 	ldw	r4,-4(fp)
 180ddbc:	01400e04 	movi	r5,56
 180ddc0:	180cfa40 	call	180cfa4 <lcd_write_command>
  
  /* Turn display off */
  lcd_write_command(sp, LCD_CMD_ONOFF);
 180ddc4:	e13fff17 	ldw	r4,-4(fp)
 180ddc8:	01400204 	movi	r5,8
 180ddcc:	180cfa40 	call	180cfa4 <lcd_write_command>

  /* Clear display */
  lcd_clear_screen(sp);
 180ddd0:	e13fff17 	ldw	r4,-4(fp)
 180ddd4:	180d1300 	call	180d130 <lcd_clear_screen>
  
  /* Set mode: increment after writing, don't shift display */
  lcd_write_command(sp, LCD_CMD_MODES | LCD_CMD_MODE_INC);
 180ddd8:	e13fff17 	ldw	r4,-4(fp)
 180dddc:	01400184 	movi	r5,6
 180dde0:	180cfa40 	call	180cfa4 <lcd_write_command>

  /* Turn display on */
  lcd_write_command(sp, LCD_CMD_ONOFF | LCD_CMD_ENABLE_DISP);
 180dde4:	e13fff17 	ldw	r4,-4(fp)
 180dde8:	01400304 	movi	r5,12
 180ddec:	180cfa40 	call	180cfa4 <lcd_write_command>

  sp->esccount = -1;
 180ddf0:	e0ffff17 	ldw	r3,-4(fp)
 180ddf4:	00bfffc4 	movi	r2,-1
 180ddf8:	18800905 	stb	r2,36(r3)
  memset(sp->escape, 0, sizeof(sp->escape));
 180ddfc:	e0bfff17 	ldw	r2,-4(fp)
 180de00:	11000a04 	addi	r4,r2,40
 180de04:	000b883a 	mov	r5,zero
 180de08:	01800204 	movi	r6,8
 180de0c:	1805a800 	call	1805a80 <memset>

  sp->scrollpos = 0;
 180de10:	e0bfff17 	ldw	r2,-4(fp)
 180de14:	10000945 	stb	zero,37(r2)
  sp->scrollmax = 0;
 180de18:	e0bfff17 	ldw	r2,-4(fp)
 180de1c:	10000985 	stb	zero,38(r2)
  sp->active = 0;
 180de20:	e0bfff17 	ldw	r2,-4(fp)
 180de24:	100009c5 	stb	zero,39(r2)
 180de28:	00806074 	movhi	r2,385
 180de2c:	108ae904 	addi	r2,r2,11172
 180de30:	10800017 	ldw	r2,0(r2)
 180de34:	1007883a 	mov	r3,r2

  sp->period = alt_ticks_per_second() / 10; /* Call every 100ms */
 180de38:	00800284 	movi	r2,10
 180de3c:	1885203a 	divu	r2,r3,r2
 180de40:	1007883a 	mov	r3,r2
 180de44:	e0bfff17 	ldw	r2,-4(fp)
 180de48:	10c00715 	stw	r3,28(r2)

  alt_alarm_start(&sp->alarm, sp->period, &alt_lcd_16207_timeout, sp);
 180de4c:	e0bfff17 	ldw	r2,-4(fp)
 180de50:	11000104 	addi	r4,r2,4
 180de54:	e0bfff17 	ldw	r2,-4(fp)
 180de58:	10800717 	ldw	r2,28(r2)
 180de5c:	100b883a 	mov	r5,r2
 180de60:	01806074 	movhi	r6,385
 180de64:	31b71f04 	addi	r6,r6,-9092
 180de68:	e1ffff17 	ldw	r7,-4(fp)
 180de6c:	180e98c0 	call	180e98c <alt_alarm_start>
}
 180de70:	e037883a 	mov	sp,fp
 180de74:	dfc00117 	ldw	ra,4(sp)
 180de78:	df000017 	ldw	fp,0(sp)
 180de7c:	dec00204 	addi	sp,sp,8
 180de80:	f800283a 	ret

0180de84 <altera_avalon_lcd_16207_write_fd>:
extern int altera_avalon_lcd_16207_write(altera_avalon_lcd_16207_state* sp,
  const char* ptr, int count, int flags);

int 
altera_avalon_lcd_16207_write_fd(alt_fd* fd, const char* buffer, int space)
{
 180de84:	defffa04 	addi	sp,sp,-24
 180de88:	dfc00515 	stw	ra,20(sp)
 180de8c:	df000415 	stw	fp,16(sp)
 180de90:	df000404 	addi	fp,sp,16
 180de94:	e13ffd15 	stw	r4,-12(fp)
 180de98:	e17ffe15 	stw	r5,-8(fp)
 180de9c:	e1bfff15 	stw	r6,-4(fp)
    altera_avalon_lcd_16207_dev* dev = (altera_avalon_lcd_16207_dev*) fd->dev; 
 180dea0:	e0bffd17 	ldw	r2,-12(fp)
 180dea4:	10800017 	ldw	r2,0(r2)
 180dea8:	e0bffc15 	stw	r2,-16(fp)

    return altera_avalon_lcd_16207_write(&dev->state, buffer, space,
 180deac:	e0bffc17 	ldw	r2,-16(fp)
 180deb0:	11000a04 	addi	r4,r2,40
 180deb4:	e0bffd17 	ldw	r2,-12(fp)
 180deb8:	11c00217 	ldw	r7,8(r2)
 180debc:	e17ffe17 	ldw	r5,-8(fp)
 180dec0:	e1bfff17 	ldw	r6,-4(fp)
 180dec4:	180d7780 	call	180d778 <altera_avalon_lcd_16207_write>
      fd->fd_flags);
}
 180dec8:	e037883a 	mov	sp,fp
 180decc:	dfc00117 	ldw	ra,4(sp)
 180ded0:	df000017 	ldw	fp,0(sp)
 180ded4:	dec00204 	addi	sp,sp,8
 180ded8:	f800283a 	ret

0180dedc <alt_avalon_timer_sc_irq>:
#ifdef ALT_ENHANCED_INTERRUPT_API_PRESENT
static void alt_avalon_timer_sc_irq (void* base)
#else
static void alt_avalon_timer_sc_irq (void* base, alt_u32 id)
#endif
{
 180dedc:	defffa04 	addi	sp,sp,-24
 180dee0:	dfc00515 	stw	ra,20(sp)
 180dee4:	df000415 	stw	fp,16(sp)
 180dee8:	df000404 	addi	fp,sp,16
 180deec:	e13fff15 	stw	r4,-4(fp)
  alt_irq_context cpu_sr;
  
  /* clear the interrupt */
  IOWR_ALTERA_AVALON_TIMER_STATUS (base, 0);
 180def0:	e0bfff17 	ldw	r2,-4(fp)
 180def4:	10000035 	stwio	zero,0(r2)
  /* 
   * Dummy read to ensure IRQ is negated before the ISR returns.
   * The control register is read because reading the status
   * register has side-effects per the register map documentation.
   */
  IORD_ALTERA_AVALON_TIMER_CONTROL (base);
 180def8:	e0bfff17 	ldw	r2,-4(fp)
 180defc:	10800104 	addi	r2,r2,4
 180df00:	10800037 	ldwio	r2,0(r2)
static ALT_INLINE alt_irq_context ALT_ALWAYS_INLINE 
       alt_irq_disable_all (void)
{
  alt_irq_context context;

  NIOS2_READ_STATUS (context);
 180df04:	0005303a 	rdctl	r2,status
 180df08:	e0bffd15 	stw	r2,-12(fp)

  NIOS2_WRITE_STATUS (context & ~NIOS2_STATUS_PIE_MSK);
 180df0c:	e0fffd17 	ldw	r3,-12(fp)
 180df10:	00bfff84 	movi	r2,-2
 180df14:	1884703a 	and	r2,r3,r2
 180df18:	1001703a 	wrctl	status,r2
  
  return context;
 180df1c:	e0bffd17 	ldw	r2,-12(fp)

  /* 
   * Notify the system of a clock tick. disable interrupts 
   * during this time to safely support ISR preemption
   */
  cpu_sr = alt_irq_disable_all();
 180df20:	e0bffe15 	stw	r2,-8(fp)
  alt_tick ();
 180df24:	180f6940 	call	180f694 <alt_tick>
 180df28:	e0bffe17 	ldw	r2,-8(fp)
 180df2c:	e0bffc15 	stw	r2,-16(fp)
  status &= ~NIOS2_STATUS_PIE_MSK;
  status |= (context & NIOS2_STATUS_PIE_MSK);
  
  NIOS2_WRITE_STATUS (status);
#else
  NIOS2_WRITE_STATUS (context);
 180df30:	e0bffc17 	ldw	r2,-16(fp)
 180df34:	1001703a 	wrctl	status,r2
  alt_irq_enable_all(cpu_sr);
}
 180df38:	e037883a 	mov	sp,fp
 180df3c:	dfc00117 	ldw	ra,4(sp)
 180df40:	df000017 	ldw	fp,0(sp)
 180df44:	dec00204 	addi	sp,sp,8
 180df48:	f800283a 	ret

0180df4c <alt_avalon_timer_sc_init>:
 * auto-generated alt_sys_init() function.
 */

void alt_avalon_timer_sc_init (void* base, alt_u32 irq_controller_id, 
                                alt_u32 irq, alt_u32 freq)
{
 180df4c:	defff804 	addi	sp,sp,-32
 180df50:	dfc00715 	stw	ra,28(sp)
 180df54:	df000615 	stw	fp,24(sp)
 180df58:	df000604 	addi	fp,sp,24
 180df5c:	e13ffc15 	stw	r4,-16(fp)
 180df60:	e17ffd15 	stw	r5,-12(fp)
 180df64:	e1bffe15 	stw	r6,-8(fp)
 180df68:	e1ffff15 	stw	r7,-4(fp)
 180df6c:	e0bfff17 	ldw	r2,-4(fp)
 180df70:	e0bffb15 	stw	r2,-20(fp)
 * in order to initialise the value of the clock frequency.
 */

static ALT_INLINE int ALT_ALWAYS_INLINE alt_sysclk_init (alt_u32 nticks)
{
  if (! _alt_tick_rate)
 180df74:	00806074 	movhi	r2,385
 180df78:	108ae904 	addi	r2,r2,11172
 180df7c:	10800017 	ldw	r2,0(r2)
 180df80:	1004c03a 	cmpne	r2,r2,zero
 180df84:	1000041e 	bne	r2,zero,180df98 <alt_avalon_timer_sc_init+0x4c>
  {
    _alt_tick_rate = nticks;
 180df88:	00c06074 	movhi	r3,385
 180df8c:	18cae904 	addi	r3,r3,11172
 180df90:	e0bffb17 	ldw	r2,-20(fp)
 180df94:	18800015 	stw	r2,0(r3)
  
  alt_sysclk_init (freq);
  
  /* set to free running mode */
  
  IOWR_ALTERA_AVALON_TIMER_CONTROL (base, 
 180df98:	e0bffc17 	ldw	r2,-16(fp)
 180df9c:	10800104 	addi	r2,r2,4
 180dfa0:	1007883a 	mov	r3,r2
 180dfa4:	008001c4 	movi	r2,7
 180dfa8:	18800035 	stwio	r2,0(r3)
            ALTERA_AVALON_TIMER_CONTROL_CONT_MSK |
            ALTERA_AVALON_TIMER_CONTROL_START_MSK);

  /* register the interrupt handler, and enable the interrupt */
#ifdef ALT_ENHANCED_INTERRUPT_API_PRESENT
  alt_ic_isr_register(irq_controller_id, irq, alt_avalon_timer_sc_irq, 
 180dfac:	d8000015 	stw	zero,0(sp)
 180dfb0:	e13ffd17 	ldw	r4,-12(fp)
 180dfb4:	e17ffe17 	ldw	r5,-8(fp)
 180dfb8:	01806074 	movhi	r6,385
 180dfbc:	31b7b704 	addi	r6,r6,-8484
 180dfc0:	e1fffc17 	ldw	r7,-16(fp)
 180dfc4:	180ef300 	call	180ef30 <alt_ic_isr_register>
                      base, NULL);
#else
  alt_irq_register (irq, base, alt_avalon_timer_sc_irq);
#endif  
}
 180dfc8:	e037883a 	mov	sp,fp
 180dfcc:	dfc00117 	ldw	ra,4(sp)
 180dfd0:	df000017 	ldw	fp,0(sp)
 180dfd4:	dec00204 	addi	sp,sp,8
 180dfd8:	f800283a 	ret

0180dfdc <altera_avalon_uart_read_fd>:
 *
 */

int 
altera_avalon_uart_read_fd(alt_fd* fd, char* buffer, int space)
{
 180dfdc:	defffa04 	addi	sp,sp,-24
 180dfe0:	dfc00515 	stw	ra,20(sp)
 180dfe4:	df000415 	stw	fp,16(sp)
 180dfe8:	df000404 	addi	fp,sp,16
 180dfec:	e13ffd15 	stw	r4,-12(fp)
 180dff0:	e17ffe15 	stw	r5,-8(fp)
 180dff4:	e1bfff15 	stw	r6,-4(fp)
    altera_avalon_uart_dev* dev = (altera_avalon_uart_dev*) fd->dev; 
 180dff8:	e0bffd17 	ldw	r2,-12(fp)
 180dffc:	10800017 	ldw	r2,0(r2)
 180e000:	e0bffc15 	stw	r2,-16(fp)

    return altera_avalon_uart_read(&dev->state, buffer, space,
 180e004:	e0bffc17 	ldw	r2,-16(fp)
 180e008:	11000a04 	addi	r4,r2,40
 180e00c:	e0bffd17 	ldw	r2,-12(fp)
 180e010:	11c00217 	ldw	r7,8(r2)
 180e014:	e17ffe17 	ldw	r5,-8(fp)
 180e018:	e1bfff17 	ldw	r6,-4(fp)
 180e01c:	180e4d40 	call	180e4d4 <altera_avalon_uart_read>
      fd->fd_flags);
}
 180e020:	e037883a 	mov	sp,fp
 180e024:	dfc00117 	ldw	ra,4(sp)
 180e028:	df000017 	ldw	fp,0(sp)
 180e02c:	dec00204 	addi	sp,sp,8
 180e030:	f800283a 	ret

0180e034 <altera_avalon_uart_write_fd>:

int 
altera_avalon_uart_write_fd(alt_fd* fd, const char* buffer, int space)
{
 180e034:	defffa04 	addi	sp,sp,-24
 180e038:	dfc00515 	stw	ra,20(sp)
 180e03c:	df000415 	stw	fp,16(sp)
 180e040:	df000404 	addi	fp,sp,16
 180e044:	e13ffd15 	stw	r4,-12(fp)
 180e048:	e17ffe15 	stw	r5,-8(fp)
 180e04c:	e1bfff15 	stw	r6,-4(fp)
    altera_avalon_uart_dev* dev = (altera_avalon_uart_dev*) fd->dev; 
 180e050:	e0bffd17 	ldw	r2,-12(fp)
 180e054:	10800017 	ldw	r2,0(r2)
 180e058:	e0bffc15 	stw	r2,-16(fp)

    return altera_avalon_uart_write(&dev->state, buffer, space,
 180e05c:	e0bffc17 	ldw	r2,-16(fp)
 180e060:	11000a04 	addi	r4,r2,40
 180e064:	e0bffd17 	ldw	r2,-12(fp)
 180e068:	11c00217 	ldw	r7,8(r2)
 180e06c:	e17ffe17 	ldw	r5,-8(fp)
 180e070:	e1bfff17 	ldw	r6,-4(fp)
 180e074:	180e7640 	call	180e764 <altera_avalon_uart_write>
      fd->fd_flags);
}
 180e078:	e037883a 	mov	sp,fp
 180e07c:	dfc00117 	ldw	ra,4(sp)
 180e080:	df000017 	ldw	fp,0(sp)
 180e084:	dec00204 	addi	sp,sp,8
 180e088:	f800283a 	ret

0180e08c <altera_avalon_uart_close_fd>:

#endif /* ALTERA_AVALON_UART_USE_IOCTL */

int 
altera_avalon_uart_close_fd(alt_fd* fd)
{
 180e08c:	defffc04 	addi	sp,sp,-16
 180e090:	dfc00315 	stw	ra,12(sp)
 180e094:	df000215 	stw	fp,8(sp)
 180e098:	df000204 	addi	fp,sp,8
 180e09c:	e13fff15 	stw	r4,-4(fp)
    altera_avalon_uart_dev* dev = (altera_avalon_uart_dev*) fd->dev; 
 180e0a0:	e0bfff17 	ldw	r2,-4(fp)
 180e0a4:	10800017 	ldw	r2,0(r2)
 180e0a8:	e0bffe15 	stw	r2,-8(fp)

    return altera_avalon_uart_close(&dev->state, fd->fd_flags);
 180e0ac:	e0bffe17 	ldw	r2,-8(fp)
 180e0b0:	11000a04 	addi	r4,r2,40
 180e0b4:	e0bfff17 	ldw	r2,-4(fp)
 180e0b8:	11400217 	ldw	r5,8(r2)
 180e0bc:	180e4740 	call	180e474 <altera_avalon_uart_close>
}
 180e0c0:	e037883a 	mov	sp,fp
 180e0c4:	dfc00117 	ldw	ra,4(sp)
 180e0c8:	df000017 	ldw	fp,0(sp)
 180e0cc:	dec00204 	addi	sp,sp,8
 180e0d0:	f800283a 	ret

0180e0d4 <altera_avalon_uart_init>:
  alt_u32 status);

void 
altera_avalon_uart_init(altera_avalon_uart_state* sp, 
  alt_u32 irq_controller_id,  alt_u32 irq)
{
 180e0d4:	defff704 	addi	sp,sp,-36
 180e0d8:	dfc00815 	stw	ra,32(sp)
 180e0dc:	df000715 	stw	fp,28(sp)
 180e0e0:	df000704 	addi	fp,sp,28
 180e0e4:	e13ffc15 	stw	r4,-16(fp)
 180e0e8:	e17ffd15 	stw	r5,-12(fp)
 180e0ec:	e1bffe15 	stw	r6,-8(fp)
  void* base = sp->base;
 180e0f0:	e0bffc17 	ldw	r2,-16(fp)
 180e0f4:	10800017 	ldw	r2,0(r2)
 180e0f8:	e0bffb15 	stw	r2,-20(fp)
 * HAL.
 */

static ALT_INLINE int ALT_ALWAYS_INLINE alt_no_error (void)
{
  return 0;
 180e0fc:	0005883a 	mov	r2,zero
  /* 
   * Initialise the read and write flags and the semaphores used to 
   * protect access to the circular buffers when running in a multi-threaded
   * environment.
   */
  error = ALT_FLAG_CREATE (&sp->events, 0)    || 
 180e100:	1004c03a 	cmpne	r2,r2,zero
 180e104:	1000061e 	bne	r2,zero,180e120 <altera_avalon_uart_init+0x4c>
 180e108:	0005883a 	mov	r2,zero
 180e10c:	1004c03a 	cmpne	r2,r2,zero
 180e110:	1000031e 	bne	r2,zero,180e120 <altera_avalon_uart_init+0x4c>
 180e114:	0005883a 	mov	r2,zero
 180e118:	1005003a 	cmpeq	r2,r2,zero
 180e11c:	1000031e 	bne	r2,zero,180e12c <altera_avalon_uart_init+0x58>
 180e120:	00800044 	movi	r2,1
 180e124:	e0bfff15 	stw	r2,-4(fp)
 180e128:	00000106 	br	180e130 <altera_avalon_uart_init+0x5c>
 180e12c:	e03fff15 	stw	zero,-4(fp)
 180e130:	e0bfff17 	ldw	r2,-4(fp)
 180e134:	e0bffa15 	stw	r2,-24(fp)
          ALT_SEM_CREATE (&sp->read_lock, 1)  ||
          ALT_SEM_CREATE (&sp->write_lock, 1);

  if (!error)
 180e138:	e0bffa17 	ldw	r2,-24(fp)
 180e13c:	1004c03a 	cmpne	r2,r2,zero
 180e140:	1000111e 	bne	r2,zero,180e188 <altera_avalon_uart_init+0xb4>
  {
    /* enable interrupts at the device */
    sp->ctrl = ALTERA_AVALON_UART_CONTROL_RTS_MSK  |
 180e144:	e0fffc17 	ldw	r3,-16(fp)
 180e148:	00832004 	movi	r2,3200
 180e14c:	18800115 	stw	r2,4(r3)
                ALTERA_AVALON_UART_CONTROL_RRDY_MSK |
                ALTERA_AVALON_UART_CONTROL_DCTS_MSK;

    IOWR_ALTERA_AVALON_UART_CONTROL(base, sp->ctrl); 
 180e150:	e0bffb17 	ldw	r2,-20(fp)
 180e154:	11000304 	addi	r4,r2,12
 180e158:	e0bffc17 	ldw	r2,-16(fp)
 180e15c:	10800117 	ldw	r2,4(r2)
 180e160:	1007883a 	mov	r3,r2
 180e164:	2005883a 	mov	r2,r4
 180e168:	10c00035 	stwio	r3,0(r2)
  
    /* register the interrupt handler */
#ifdef ALT_ENHANCED_INTERRUPT_API_PRESENT
    alt_ic_isr_register(irq_controller_id, irq, altera_avalon_uart_irq, sp, 
 180e16c:	d8000015 	stw	zero,0(sp)
 180e170:	e13ffd17 	ldw	r4,-12(fp)
 180e174:	e17ffe17 	ldw	r5,-8(fp)
 180e178:	01806074 	movhi	r6,385
 180e17c:	31b86704 	addi	r6,r6,-7780
 180e180:	e1fffc17 	ldw	r7,-16(fp)
 180e184:	180ef300 	call	180ef30 <alt_ic_isr_register>
      0x0);
#else
    alt_irq_register (irq, sp, altera_avalon_uart_irq);
#endif  
  }
}
 180e188:	e037883a 	mov	sp,fp
 180e18c:	dfc00117 	ldw	ra,4(sp)
 180e190:	df000017 	ldw	fp,0(sp)
 180e194:	dec00204 	addi	sp,sp,8
 180e198:	f800283a 	ret

0180e19c <altera_avalon_uart_irq>:
#ifdef ALT_ENHANCED_INTERRUPT_API_PRESENT
static void altera_avalon_uart_irq(void* context)
#else
static void altera_avalon_uart_irq(void* context, alt_u32 id)
#endif
{
 180e19c:	defffa04 	addi	sp,sp,-24
 180e1a0:	dfc00515 	stw	ra,20(sp)
 180e1a4:	df000415 	stw	fp,16(sp)
 180e1a8:	df000404 	addi	fp,sp,16
 180e1ac:	e13fff15 	stw	r4,-4(fp)
  alt_u32 status;

  altera_avalon_uart_state* sp = (altera_avalon_uart_state*) context;
 180e1b0:	e0bfff17 	ldw	r2,-4(fp)
 180e1b4:	e0bffd15 	stw	r2,-12(fp)
  void* base               = sp->base;
 180e1b8:	e0bffd17 	ldw	r2,-12(fp)
 180e1bc:	10800017 	ldw	r2,0(r2)
 180e1c0:	e0bffc15 	stw	r2,-16(fp)
  /*
   * Read the status register in order to determine the cause of the
   * interrupt.
   */

  status = IORD_ALTERA_AVALON_UART_STATUS(base);
 180e1c4:	e0bffc17 	ldw	r2,-16(fp)
 180e1c8:	10800204 	addi	r2,r2,8
 180e1cc:	10800037 	ldwio	r2,0(r2)
 180e1d0:	e0bffe15 	stw	r2,-8(fp)

  /* Clear any error flags set at the device */
  IOWR_ALTERA_AVALON_UART_STATUS(base, 0);
 180e1d4:	e0bffc17 	ldw	r2,-16(fp)
 180e1d8:	10800204 	addi	r2,r2,8
 180e1dc:	10000035 	stwio	zero,0(r2)

  /* Dummy read to ensure IRQ is negated before ISR returns */
  IORD_ALTERA_AVALON_UART_STATUS(base);
 180e1e0:	e0bffc17 	ldw	r2,-16(fp)
 180e1e4:	10800204 	addi	r2,r2,8
 180e1e8:	10800037 	ldwio	r2,0(r2)
  
  /* process a read irq */
  if (status & ALTERA_AVALON_UART_STATUS_RRDY_MSK)
 180e1ec:	e0bffe17 	ldw	r2,-8(fp)
 180e1f0:	1080200c 	andi	r2,r2,128
 180e1f4:	1005003a 	cmpeq	r2,r2,zero
 180e1f8:	1000031e 	bne	r2,zero,180e208 <altera_avalon_uart_irq+0x6c>
  {
    altera_avalon_uart_rxirq(sp, status);
 180e1fc:	e13ffd17 	ldw	r4,-12(fp)
 180e200:	e17ffe17 	ldw	r5,-8(fp)
 180e204:	180e2380 	call	180e238 <altera_avalon_uart_rxirq>
  }

  /* process a write irq */
  if (status & (ALTERA_AVALON_UART_STATUS_TRDY_MSK | 
 180e208:	e0bffe17 	ldw	r2,-8(fp)
 180e20c:	1081100c 	andi	r2,r2,1088
 180e210:	1005003a 	cmpeq	r2,r2,zero
 180e214:	1000031e 	bne	r2,zero,180e224 <altera_avalon_uart_irq+0x88>
                  ALTERA_AVALON_UART_STATUS_DCTS_MSK))
  {
    altera_avalon_uart_txirq(sp, status);
 180e218:	e13ffd17 	ldw	r4,-12(fp)
 180e21c:	e17ffe17 	ldw	r5,-8(fp)
 180e220:	180e3180 	call	180e318 <altera_avalon_uart_txirq>
  }
  

}
 180e224:	e037883a 	mov	sp,fp
 180e228:	dfc00117 	ldw	ra,4(sp)
 180e22c:	df000017 	ldw	fp,0(sp)
 180e230:	dec00204 	addi	sp,sp,8
 180e234:	f800283a 	ret

0180e238 <altera_avalon_uart_rxirq>:
 * the receive circular buffer, and sets the apropriate flags to indicate 
 * that there is data ready to be processed.
 */
static void 
altera_avalon_uart_rxirq(altera_avalon_uart_state* sp, alt_u32 status)
{
 180e238:	defffc04 	addi	sp,sp,-16
 180e23c:	df000315 	stw	fp,12(sp)
 180e240:	df000304 	addi	fp,sp,12
 180e244:	e13ffe15 	stw	r4,-8(fp)
 180e248:	e17fff15 	stw	r5,-4(fp)
  alt_u32 next;
  
  /* If there was an error, discard the data */

  if (status & (ALTERA_AVALON_UART_STATUS_PE_MSK | 
 180e24c:	e0bfff17 	ldw	r2,-4(fp)
 180e250:	108000cc 	andi	r2,r2,3
 180e254:	1004c03a 	cmpne	r2,r2,zero
 180e258:	10002b1e 	bne	r2,zero,180e308 <altera_avalon_uart_rxirq+0xd0>
   * In a multi-threaded environment, set the read event flag to indicate
   * that there is data ready. This is only done if the circular buffer was
   * previously empty.
   */

  if (sp->rx_end == sp->rx_start)
 180e25c:	e0bffe17 	ldw	r2,-8(fp)
 180e260:	10800317 	ldw	r2,12(r2)
    ALT_FLAG_POST (sp->events, ALT_UART_READ_RDY, OS_FLAG_SET);
  }

  /* Determine which slot to use next in the circular buffer */

  next = (sp->rx_end + 1) & ALT_AVALON_UART_BUF_MSK;
 180e264:	e0bffe17 	ldw	r2,-8(fp)
 180e268:	10800317 	ldw	r2,12(r2)
 180e26c:	10800044 	addi	r2,r2,1
 180e270:	10800fcc 	andi	r2,r2,63
 180e274:	e0bffd15 	stw	r2,-12(fp)

  /* Transfer data from the device to the circular buffer */

  sp->rx_buf[sp->rx_end] = IORD_ALTERA_AVALON_UART_RXDATA(sp->base);
 180e278:	e0bffe17 	ldw	r2,-8(fp)
 180e27c:	11000317 	ldw	r4,12(r2)
 180e280:	e0bffe17 	ldw	r2,-8(fp)
 180e284:	10800017 	ldw	r2,0(r2)
 180e288:	10800037 	ldwio	r2,0(r2)
 180e28c:	1007883a 	mov	r3,r2
 180e290:	e0bffe17 	ldw	r2,-8(fp)
 180e294:	2085883a 	add	r2,r4,r2
 180e298:	10800704 	addi	r2,r2,28
 180e29c:	10c00005 	stb	r3,0(r2)

  sp->rx_end = next;
 180e2a0:	e0fffe17 	ldw	r3,-8(fp)
 180e2a4:	e0bffd17 	ldw	r2,-12(fp)
 180e2a8:	18800315 	stw	r2,12(r3)

  next = (sp->rx_end + 1) & ALT_AVALON_UART_BUF_MSK;
 180e2ac:	e0bffe17 	ldw	r2,-8(fp)
 180e2b0:	10800317 	ldw	r2,12(r2)
 180e2b4:	10800044 	addi	r2,r2,1
 180e2b8:	10800fcc 	andi	r2,r2,63
 180e2bc:	e0bffd15 	stw	r2,-12(fp)
  /*
   * If the cicular buffer was full, disable interrupts. Interrupts will be
   * re-enabled when data is removed from the buffer.
   */

  if (next == sp->rx_start)
 180e2c0:	e0bffe17 	ldw	r2,-8(fp)
 180e2c4:	10c00217 	ldw	r3,8(r2)
 180e2c8:	e0bffd17 	ldw	r2,-12(fp)
 180e2cc:	18800e1e 	bne	r3,r2,180e308 <altera_avalon_uart_rxirq+0xd0>
  {
    sp->ctrl &= ~ALTERA_AVALON_UART_CONTROL_RRDY_MSK;
 180e2d0:	e0bffe17 	ldw	r2,-8(fp)
 180e2d4:	10c00117 	ldw	r3,4(r2)
 180e2d8:	00bfdfc4 	movi	r2,-129
 180e2dc:	1886703a 	and	r3,r3,r2
 180e2e0:	e0bffe17 	ldw	r2,-8(fp)
 180e2e4:	10c00115 	stw	r3,4(r2)
    IOWR_ALTERA_AVALON_UART_CONTROL(sp->base, sp->ctrl); 
 180e2e8:	e0bffe17 	ldw	r2,-8(fp)
 180e2ec:	10800017 	ldw	r2,0(r2)
 180e2f0:	11000304 	addi	r4,r2,12
 180e2f4:	e0bffe17 	ldw	r2,-8(fp)
 180e2f8:	10800117 	ldw	r2,4(r2)
 180e2fc:	1007883a 	mov	r3,r2
 180e300:	2005883a 	mov	r2,r4
 180e304:	10c00035 	stwio	r3,0(r2)
  }   
}
 180e308:	e037883a 	mov	sp,fp
 180e30c:	df000017 	ldw	fp,0(sp)
 180e310:	dec00104 	addi	sp,sp,4
 180e314:	f800283a 	ret

0180e318 <altera_avalon_uart_txirq>:
 * buffer to the device, and sets the apropriate flags to indicate that 
 * there is data ready to be processed.
 */
static void 
altera_avalon_uart_txirq(altera_avalon_uart_state* sp, alt_u32 status)
{
 180e318:	defffd04 	addi	sp,sp,-12
 180e31c:	df000215 	stw	fp,8(sp)
 180e320:	df000204 	addi	fp,sp,8
 180e324:	e13ffe15 	stw	r4,-8(fp)
 180e328:	e17fff15 	stw	r5,-4(fp)
  /* Transfer data if there is some ready to be transfered */

  if (sp->tx_start != sp->tx_end)
 180e32c:	e0bffe17 	ldw	r2,-8(fp)
 180e330:	10c00417 	ldw	r3,16(r2)
 180e334:	e0bffe17 	ldw	r2,-8(fp)
 180e338:	10800517 	ldw	r2,20(r2)
 180e33c:	18803626 	beq	r3,r2,180e418 <altera_avalon_uart_txirq+0x100>
    /* 
     * If the device is using flow control (i.e. RTS/CTS), then the
     * transmitter is required to throttle if CTS is high.
     */

    if (!(sp->flags & ALT_AVALON_UART_FC) ||
 180e340:	e0bffe17 	ldw	r2,-8(fp)
 180e344:	10800617 	ldw	r2,24(r2)
 180e348:	1080008c 	andi	r2,r2,2
 180e34c:	1005003a 	cmpeq	r2,r2,zero
 180e350:	1000041e 	bne	r2,zero,180e364 <altera_avalon_uart_txirq+0x4c>
 180e354:	e0bfff17 	ldw	r2,-4(fp)
 180e358:	1082000c 	andi	r2,r2,2048
 180e35c:	1005003a 	cmpeq	r2,r2,zero
 180e360:	10001e1e 	bne	r2,zero,180e3dc <altera_avalon_uart_txirq+0xc4>
       * In a multi-threaded environment, set the write event flag to indicate
       * that there is space in the circular buffer. This is only done if the
       * buffer was previously empty.
       */

      if (sp->tx_start == ((sp->tx_end + 1) & ALT_AVALON_UART_BUF_MSK))
 180e364:	e0bffe17 	ldw	r2,-8(fp)
 180e368:	10800417 	ldw	r2,16(r2)
                       OS_FLAG_SET);
      }

      /* Write the data to the device */

      IOWR_ALTERA_AVALON_UART_TXDATA(sp->base, sp->tx_buf[sp->tx_start]);
 180e36c:	e0bffe17 	ldw	r2,-8(fp)
 180e370:	10800017 	ldw	r2,0(r2)
 180e374:	11000104 	addi	r4,r2,4
 180e378:	e0bffe17 	ldw	r2,-8(fp)
 180e37c:	10c00417 	ldw	r3,16(r2)
 180e380:	e0bffe17 	ldw	r2,-8(fp)
 180e384:	1885883a 	add	r2,r3,r2
 180e388:	10801704 	addi	r2,r2,92
 180e38c:	10800003 	ldbu	r2,0(r2)
 180e390:	10c03fcc 	andi	r3,r2,255
 180e394:	2005883a 	mov	r2,r4
 180e398:	10c00035 	stwio	r3,0(r2)

      sp->tx_start = (++sp->tx_start) & ALT_AVALON_UART_BUF_MSK;
 180e39c:	e0bffe17 	ldw	r2,-8(fp)
 180e3a0:	10800417 	ldw	r2,16(r2)
 180e3a4:	10c00044 	addi	r3,r2,1
 180e3a8:	e0bffe17 	ldw	r2,-8(fp)
 180e3ac:	10c00415 	stw	r3,16(r2)
 180e3b0:	e0bffe17 	ldw	r2,-8(fp)
 180e3b4:	10800417 	ldw	r2,16(r2)
 180e3b8:	10c00fcc 	andi	r3,r2,63
 180e3bc:	e0bffe17 	ldw	r2,-8(fp)
 180e3c0:	10c00415 	stw	r3,16(r2)
      /*
       * In case the tranmit interrupt had previously been disabled by 
       * detecting a low value on CTS, it is reenabled here.
       */ 

      sp->ctrl |= ALTERA_AVALON_UART_CONTROL_TRDY_MSK;
 180e3c4:	e0bffe17 	ldw	r2,-8(fp)
 180e3c8:	10800117 	ldw	r2,4(r2)
 180e3cc:	10c01014 	ori	r3,r2,64
 180e3d0:	e0bffe17 	ldw	r2,-8(fp)
 180e3d4:	10c00115 	stw	r3,4(r2)
    /* 
     * If the device is using flow control (i.e. RTS/CTS), then the
     * transmitter is required to throttle if CTS is high.
     */

    if (!(sp->flags & ALT_AVALON_UART_FC) ||
 180e3d8:	00000f06 	br	180e418 <altera_avalon_uart_txirq+0x100>
       * the last write to the status register. To avoid this resulting in
       * deadlock, it's necessary to re-check the status register here
       * before throttling.
       */
 
      status = IORD_ALTERA_AVALON_UART_STATUS(sp->base); 
 180e3dc:	e0bffe17 	ldw	r2,-8(fp)
 180e3e0:	10800017 	ldw	r2,0(r2)
 180e3e4:	10800204 	addi	r2,r2,8
 180e3e8:	10800037 	ldwio	r2,0(r2)
 180e3ec:	e0bfff15 	stw	r2,-4(fp)

      if (!(status & ALTERA_AVALON_UART_STATUS_CTS_MSK))
 180e3f0:	e0bfff17 	ldw	r2,-4(fp)
 180e3f4:	1082000c 	andi	r2,r2,2048
 180e3f8:	1004c03a 	cmpne	r2,r2,zero
 180e3fc:	1000061e 	bne	r2,zero,180e418 <altera_avalon_uart_txirq+0x100>
      {
        sp->ctrl &= ~ALTERA_AVALON_UART_CONTROL_TRDY_MSK;
 180e400:	e0bffe17 	ldw	r2,-8(fp)
 180e404:	10c00117 	ldw	r3,4(r2)
 180e408:	00bfefc4 	movi	r2,-65
 180e40c:	1886703a 	and	r3,r3,r2
 180e410:	e0bffe17 	ldw	r2,-8(fp)
 180e414:	10c00115 	stw	r3,4(r2)
  /*
   * If the circular buffer is empty, disable the interrupt. This will be
   * re-enabled when new data is placed in the buffer.
   */

  if (sp->tx_start == sp->tx_end)
 180e418:	e0bffe17 	ldw	r2,-8(fp)
 180e41c:	10c00417 	ldw	r3,16(r2)
 180e420:	e0bffe17 	ldw	r2,-8(fp)
 180e424:	10800517 	ldw	r2,20(r2)
 180e428:	1880061e 	bne	r3,r2,180e444 <altera_avalon_uart_txirq+0x12c>
  {
    sp->ctrl &= ~(ALTERA_AVALON_UART_CONTROL_TRDY_MSK |
 180e42c:	e0bffe17 	ldw	r2,-8(fp)
 180e430:	10c00117 	ldw	r3,4(r2)
 180e434:	00beefc4 	movi	r2,-1089
 180e438:	1886703a 	and	r3,r3,r2
 180e43c:	e0bffe17 	ldw	r2,-8(fp)
 180e440:	10c00115 	stw	r3,4(r2)
                    ALTERA_AVALON_UART_CONTROL_DCTS_MSK);
  }

  IOWR_ALTERA_AVALON_UART_CONTROL(sp->base, sp->ctrl);
 180e444:	e0bffe17 	ldw	r2,-8(fp)
 180e448:	10800017 	ldw	r2,0(r2)
 180e44c:	11000304 	addi	r4,r2,12
 180e450:	e0bffe17 	ldw	r2,-8(fp)
 180e454:	10800117 	ldw	r2,4(r2)
 180e458:	1007883a 	mov	r3,r2
 180e45c:	2005883a 	mov	r2,r4
 180e460:	10c00035 	stwio	r3,0(r2)
}
 180e464:	e037883a 	mov	sp,fp
 180e468:	df000017 	ldw	fp,0(sp)
 180e46c:	dec00104 	addi	sp,sp,4
 180e470:	f800283a 	ret

0180e474 <altera_avalon_uart_close>:
 * The close routine is not implemented for the small driver; instead it will
 * map to null. This is because the small driver simply waits while characters
 * are transmitted; there is no interrupt-serviced buffer to empty 
 */
int altera_avalon_uart_close(altera_avalon_uart_state* sp, int flags)
{
 180e474:	defffc04 	addi	sp,sp,-16
 180e478:	df000315 	stw	fp,12(sp)
 180e47c:	df000304 	addi	fp,sp,12
 180e480:	e13ffd15 	stw	r4,-12(fp)
 180e484:	e17ffe15 	stw	r5,-8(fp)
  /* 
   * Wait for all transmit data to be emptied by the UART ISR.
   */
  while (sp->tx_start != sp->tx_end) {
 180e488:	00000706 	br	180e4a8 <altera_avalon_uart_close+0x34>
    if (flags & O_NONBLOCK) {
 180e48c:	e0bffe17 	ldw	r2,-8(fp)
 180e490:	1090000c 	andi	r2,r2,16384
 180e494:	1005003a 	cmpeq	r2,r2,zero
 180e498:	1000031e 	bne	r2,zero,180e4a8 <altera_avalon_uart_close+0x34>
      return -EWOULDBLOCK; 
 180e49c:	00bffd44 	movi	r2,-11
 180e4a0:	e0bfff15 	stw	r2,-4(fp)
 180e4a4:	00000606 	br	180e4c0 <altera_avalon_uart_close+0x4c>
int altera_avalon_uart_close(altera_avalon_uart_state* sp, int flags)
{
  /* 
   * Wait for all transmit data to be emptied by the UART ISR.
   */
  while (sp->tx_start != sp->tx_end) {
 180e4a8:	e0bffd17 	ldw	r2,-12(fp)
 180e4ac:	10c00417 	ldw	r3,16(r2)
 180e4b0:	e0bffd17 	ldw	r2,-12(fp)
 180e4b4:	10800517 	ldw	r2,20(r2)
 180e4b8:	18bff41e 	bne	r3,r2,180e48c <altera_avalon_uart_close+0x18>
    if (flags & O_NONBLOCK) {
      return -EWOULDBLOCK; 
    }
  }

  return 0;
 180e4bc:	e03fff15 	stw	zero,-4(fp)
 180e4c0:	e0bfff17 	ldw	r2,-4(fp)
}
 180e4c4:	e037883a 	mov	sp,fp
 180e4c8:	df000017 	ldw	fp,0(sp)
 180e4cc:	dec00104 	addi	sp,sp,4
 180e4d0:	f800283a 	ret

0180e4d4 <altera_avalon_uart_read>:
 */

int 
altera_avalon_uart_read(altera_avalon_uart_state* sp, char* ptr, int len,
  int flags)
{
 180e4d4:	defff004 	addi	sp,sp,-64
 180e4d8:	dfc00f15 	stw	ra,60(sp)
 180e4dc:	df000e15 	stw	fp,56(sp)
 180e4e0:	df000e04 	addi	fp,sp,56
 180e4e4:	e13ffb15 	stw	r4,-20(fp)
 180e4e8:	e17ffc15 	stw	r5,-16(fp)
 180e4ec:	e1bffd15 	stw	r6,-12(fp)
 180e4f0:	e1fffe15 	stw	r7,-8(fp)
  alt_irq_context context;
  int             block;
  alt_u32         next;
  alt_u8          read_would_block = 0;
 180e4f4:	e03ff705 	stb	zero,-36(fp)
  int             count = 0;
 180e4f8:	e03ff615 	stw	zero,-40(fp)
  /* 
   * Construct a flag to indicate whether the device is being accessed in
   * blocking or non-blocking mode.
   */

  block = !(flags & O_NONBLOCK);
 180e4fc:	e0bffe17 	ldw	r2,-8(fp)
 180e500:	1090000c 	andi	r2,r2,16384
 180e504:	1005003a 	cmpeq	r2,r2,zero
 180e508:	e0bff915 	stw	r2,-28(fp)
  /*
   * Calculate which slot in the circular buffer is the next one to read
   * data from.
   */

  next = (sp->rx_start + 1) & ALT_AVALON_UART_BUF_MSK;
 180e50c:	e0bffb17 	ldw	r2,-20(fp)
 180e510:	10800217 	ldw	r2,8(r2)
 180e514:	10800044 	addi	r2,r2,1
 180e518:	10800fcc 	andi	r2,r2,63
 180e51c:	e0bff815 	stw	r2,-32(fp)
    /*
     * Read the required amount of data, until the circular buffer runs
     * empty
     */

    while ((count < len) && (sp->rx_start != sp->rx_end))
 180e520:	00001906 	br	180e588 <altera_avalon_uart_read+0xb4>
    {
      count++;
 180e524:	e0bff617 	ldw	r2,-40(fp)
 180e528:	10800044 	addi	r2,r2,1
 180e52c:	e0bff615 	stw	r2,-40(fp)
      *ptr++ = sp->rx_buf[sp->rx_start];
 180e530:	e0bffb17 	ldw	r2,-20(fp)
 180e534:	10c00217 	ldw	r3,8(r2)
 180e538:	e0bffb17 	ldw	r2,-20(fp)
 180e53c:	1885883a 	add	r2,r3,r2
 180e540:	10800704 	addi	r2,r2,28
 180e544:	10800003 	ldbu	r2,0(r2)
 180e548:	1007883a 	mov	r3,r2
 180e54c:	e0bffc17 	ldw	r2,-16(fp)
 180e550:	10c00005 	stb	r3,0(r2)
 180e554:	e0bffc17 	ldw	r2,-16(fp)
 180e558:	10800044 	addi	r2,r2,1
 180e55c:	e0bffc15 	stw	r2,-16(fp)
      
      sp->rx_start = (++sp->rx_start) & ALT_AVALON_UART_BUF_MSK;
 180e560:	e0bffb17 	ldw	r2,-20(fp)
 180e564:	10800217 	ldw	r2,8(r2)
 180e568:	10c00044 	addi	r3,r2,1
 180e56c:	e0bffb17 	ldw	r2,-20(fp)
 180e570:	10c00215 	stw	r3,8(r2)
 180e574:	e0bffb17 	ldw	r2,-20(fp)
 180e578:	10800217 	ldw	r2,8(r2)
 180e57c:	10c00fcc 	andi	r3,r2,63
 180e580:	e0bffb17 	ldw	r2,-20(fp)
 180e584:	10c00215 	stw	r3,8(r2)
    /*
     * Read the required amount of data, until the circular buffer runs
     * empty
     */

    while ((count < len) && (sp->rx_start != sp->rx_end))
 180e588:	e0fff617 	ldw	r3,-40(fp)
 180e58c:	e0bffd17 	ldw	r2,-12(fp)
 180e590:	1880050e 	bge	r3,r2,180e5a8 <altera_avalon_uart_read+0xd4>
 180e594:	e0bffb17 	ldw	r2,-20(fp)
 180e598:	10c00217 	ldw	r3,8(r2)
 180e59c:	e0bffb17 	ldw	r2,-20(fp)
 180e5a0:	10800317 	ldw	r2,12(r2)
 180e5a4:	18bfdf1e 	bne	r3,r2,180e524 <altera_avalon_uart_read+0x50>
    /*
     * If no data has been transferred, the circular buffer is empty, and
     * this is not a non-blocking access, block waiting for data to arrive.
     */

    if (!count && (sp->rx_start == sp->rx_end))
 180e5a8:	e0bff617 	ldw	r2,-40(fp)
 180e5ac:	1004c03a 	cmpne	r2,r2,zero
 180e5b0:	1000271e 	bne	r2,zero,180e650 <altera_avalon_uart_read+0x17c>
 180e5b4:	e0bffb17 	ldw	r2,-20(fp)
 180e5b8:	10c00217 	ldw	r3,8(r2)
 180e5bc:	e0bffb17 	ldw	r2,-20(fp)
 180e5c0:	10800317 	ldw	r2,12(r2)
 180e5c4:	1880221e 	bne	r3,r2,180e650 <altera_avalon_uart_read+0x17c>
    {
      if (!block)
 180e5c8:	e0bff917 	ldw	r2,-28(fp)
 180e5cc:	1004c03a 	cmpne	r2,r2,zero
 180e5d0:	1000061e 	bne	r2,zero,180e5ec <altera_avalon_uart_read+0x118>
      {
        /* Set errno to indicate the reason we're not returning any data */

        ALT_ERRNO = EWOULDBLOCK;
 180e5d4:	180e7040 	call	180e704 <alt_get_errno>
 180e5d8:	00c002c4 	movi	r3,11
 180e5dc:	10c00015 	stw	r3,0(r2)
        read_would_block = 1;
 180e5e0:	00800044 	movi	r2,1
 180e5e4:	e0bff705 	stb	r2,-36(fp)
        break;
 180e5e8:	00001f06 	br	180e668 <altera_avalon_uart_read+0x194>
static ALT_INLINE alt_irq_context ALT_ALWAYS_INLINE 
       alt_irq_disable_all (void)
{
  alt_irq_context context;

  NIOS2_READ_STATUS (context);
 180e5ec:	0005303a 	rdctl	r2,status
 180e5f0:	e0bff515 	stw	r2,-44(fp)

  NIOS2_WRITE_STATUS (context & ~NIOS2_STATUS_PIE_MSK);
 180e5f4:	e0fff517 	ldw	r3,-44(fp)
 180e5f8:	00bfff84 	movi	r2,-2
 180e5fc:	1884703a 	and	r2,r3,r2
 180e600:	1001703a 	wrctl	status,r2
  
  return context;
 180e604:	e0bff517 	ldw	r2,-44(fp)
      {
       /* Block waiting for some data to arrive */

       /* First, ensure read interrupts are enabled to avoid deadlock */

       context = alt_irq_disable_all ();
 180e608:	e0bffa15 	stw	r2,-24(fp)
       sp->ctrl |= ALTERA_AVALON_UART_CONTROL_RRDY_MSK;
 180e60c:	e0bffb17 	ldw	r2,-20(fp)
 180e610:	10800117 	ldw	r2,4(r2)
 180e614:	10c02014 	ori	r3,r2,128
 180e618:	e0bffb17 	ldw	r2,-20(fp)
 180e61c:	10c00115 	stw	r3,4(r2)
       IOWR_ALTERA_AVALON_UART_CONTROL(sp->base, sp->ctrl);
 180e620:	e0bffb17 	ldw	r2,-20(fp)
 180e624:	10800017 	ldw	r2,0(r2)
 180e628:	11000304 	addi	r4,r2,12
 180e62c:	e0bffb17 	ldw	r2,-20(fp)
 180e630:	10800117 	ldw	r2,4(r2)
 180e634:	1007883a 	mov	r3,r2
 180e638:	2005883a 	mov	r2,r4
 180e63c:	10c00035 	stwio	r3,0(r2)
 180e640:	e0bffa17 	ldw	r2,-24(fp)
 180e644:	e0bff415 	stw	r2,-48(fp)
  status &= ~NIOS2_STATUS_PIE_MSK;
  status |= (context & NIOS2_STATUS_PIE_MSK);
  
  NIOS2_WRITE_STATUS (status);
#else
  NIOS2_WRITE_STATUS (context);
 180e648:	e0bff417 	ldw	r2,-48(fp)
 180e64c:	1001703a 	wrctl	status,r2
                      OS_FLAG_WAIT_SET_ANY + OS_FLAG_CONSUME,
                      0);
      }
    }
  }
  while (!count && len);
 180e650:	e0bff617 	ldw	r2,-40(fp)
 180e654:	1004c03a 	cmpne	r2,r2,zero
 180e658:	1000031e 	bne	r2,zero,180e668 <altera_avalon_uart_read+0x194>
 180e65c:	e0bffd17 	ldw	r2,-12(fp)
 180e660:	1004c03a 	cmpne	r2,r2,zero
 180e664:	103fc81e 	bne	r2,zero,180e588 <altera_avalon_uart_read+0xb4>
static ALT_INLINE alt_irq_context ALT_ALWAYS_INLINE 
       alt_irq_disable_all (void)
{
  alt_irq_context context;

  NIOS2_READ_STATUS (context);
 180e668:	0005303a 	rdctl	r2,status
 180e66c:	e0bff315 	stw	r2,-52(fp)

  NIOS2_WRITE_STATUS (context & ~NIOS2_STATUS_PIE_MSK);
 180e670:	e0fff317 	ldw	r3,-52(fp)
 180e674:	00bfff84 	movi	r2,-2
 180e678:	1884703a 	and	r2,r3,r2
 180e67c:	1001703a 	wrctl	status,r2
  
  return context;
 180e680:	e0bff317 	ldw	r2,-52(fp)
  /*
   * Ensure that interrupts are enabled, so that the circular buffer can
   * re-fill.
   */

  context = alt_irq_disable_all ();
 180e684:	e0bffa15 	stw	r2,-24(fp)
  sp->ctrl |= ALTERA_AVALON_UART_CONTROL_RRDY_MSK;
 180e688:	e0bffb17 	ldw	r2,-20(fp)
 180e68c:	10800117 	ldw	r2,4(r2)
 180e690:	10c02014 	ori	r3,r2,128
 180e694:	e0bffb17 	ldw	r2,-20(fp)
 180e698:	10c00115 	stw	r3,4(r2)
  IOWR_ALTERA_AVALON_UART_CONTROL(sp->base, sp->ctrl);
 180e69c:	e0bffb17 	ldw	r2,-20(fp)
 180e6a0:	10800017 	ldw	r2,0(r2)
 180e6a4:	11000304 	addi	r4,r2,12
 180e6a8:	e0bffb17 	ldw	r2,-20(fp)
 180e6ac:	10800117 	ldw	r2,4(r2)
 180e6b0:	1007883a 	mov	r3,r2
 180e6b4:	2005883a 	mov	r2,r4
 180e6b8:	10c00035 	stwio	r3,0(r2)
 180e6bc:	e0bffa17 	ldw	r2,-24(fp)
 180e6c0:	e0bff215 	stw	r2,-56(fp)
  status &= ~NIOS2_STATUS_PIE_MSK;
  status |= (context & NIOS2_STATUS_PIE_MSK);
  
  NIOS2_WRITE_STATUS (status);
#else
  NIOS2_WRITE_STATUS (context);
 180e6c4:	e0bff217 	ldw	r2,-56(fp)
 180e6c8:	1001703a 	wrctl	status,r2
  alt_irq_enable_all (context);

  /* Return the number of bytes read */
  if(read_would_block) {
 180e6cc:	e0bff703 	ldbu	r2,-36(fp)
 180e6d0:	1005003a 	cmpeq	r2,r2,zero
 180e6d4:	1000031e 	bne	r2,zero,180e6e4 <altera_avalon_uart_read+0x210>
    return ~EWOULDBLOCK;
 180e6d8:	00bffd04 	movi	r2,-12
 180e6dc:	e0bfff15 	stw	r2,-4(fp)
 180e6e0:	00000206 	br	180e6ec <altera_avalon_uart_read+0x218>
  }
  else {
    return count;
 180e6e4:	e0bff617 	ldw	r2,-40(fp)
 180e6e8:	e0bfff15 	stw	r2,-4(fp)
 180e6ec:	e0bfff17 	ldw	r2,-4(fp)
  }
}
 180e6f0:	e037883a 	mov	sp,fp
 180e6f4:	dfc00117 	ldw	ra,4(sp)
 180e6f8:	df000017 	ldw	fp,0(sp)
 180e6fc:	dec00204 	addi	sp,sp,8
 180e700:	f800283a 	ret

0180e704 <alt_get_errno>:
#undef errno

extern int errno;

static ALT_INLINE int* alt_get_errno(void)
{
 180e704:	defffd04 	addi	sp,sp,-12
 180e708:	dfc00215 	stw	ra,8(sp)
 180e70c:	df000115 	stw	fp,4(sp)
 180e710:	df000104 	addi	fp,sp,4
  return ((alt_errno) ? alt_errno() : &errno);
 180e714:	00806074 	movhi	r2,385
 180e718:	108ad504 	addi	r2,r2,11092
 180e71c:	10800017 	ldw	r2,0(r2)
 180e720:	1005003a 	cmpeq	r2,r2,zero
 180e724:	1000061e 	bne	r2,zero,180e740 <alt_get_errno+0x3c>
 180e728:	00806074 	movhi	r2,385
 180e72c:	108ad504 	addi	r2,r2,11092
 180e730:	10800017 	ldw	r2,0(r2)
 180e734:	103ee83a 	callr	r2
 180e738:	e0bfff15 	stw	r2,-4(fp)
 180e73c:	00000306 	br	180e74c <alt_get_errno+0x48>
 180e740:	00806074 	movhi	r2,385
 180e744:	108ae404 	addi	r2,r2,11152
 180e748:	e0bfff15 	stw	r2,-4(fp)
 180e74c:	e0bfff17 	ldw	r2,-4(fp)
}
 180e750:	e037883a 	mov	sp,fp
 180e754:	dfc00117 	ldw	ra,4(sp)
 180e758:	df000017 	ldw	fp,0(sp)
 180e75c:	dec00204 	addi	sp,sp,8
 180e760:	f800283a 	ret

0180e764 <altera_avalon_uart_write>:
 */

int
altera_avalon_uart_write(altera_avalon_uart_state* sp, const char* ptr, int len,
  int flags)
{
 180e764:	defff204 	addi	sp,sp,-56
 180e768:	dfc00d15 	stw	ra,52(sp)
 180e76c:	df000c15 	stw	fp,48(sp)
 180e770:	df000c04 	addi	fp,sp,48
 180e774:	e13ffc15 	stw	r4,-16(fp)
 180e778:	e17ffd15 	stw	r5,-12(fp)
 180e77c:	e1bffe15 	stw	r6,-8(fp)
 180e780:	e1ffff15 	stw	r7,-4(fp)
  alt_irq_context context;
  int             no_block;
  alt_u32         next;
  int             count = len;
 180e784:	e0bffe17 	ldw	r2,-8(fp)
 180e788:	e0bff815 	stw	r2,-32(fp)
  /* 
   * Construct a flag to indicate whether the device is being accessed in
   * blocking or non-blocking mode.
   */

  no_block = (flags & O_NONBLOCK);
 180e78c:	e0bfff17 	ldw	r2,-4(fp)
 180e790:	1090000c 	andi	r2,r2,16384
 180e794:	e0bffa15 	stw	r2,-24(fp)
   * Loop transferring data from the input buffer to the transmit circular
   * buffer. The loop is terminated once all the data has been transferred,
   * or, (if in non-blocking mode) the buffer becomes full.
   */

  while (count)
 180e798:	00004006 	br	180e89c <altera_avalon_uart_write+0x138>
  {
    /* Determine the next slot in the buffer to access */

    next = (sp->tx_end + 1) & ALT_AVALON_UART_BUF_MSK;
 180e79c:	e0bffc17 	ldw	r2,-16(fp)
 180e7a0:	10800517 	ldw	r2,20(r2)
 180e7a4:	10800044 	addi	r2,r2,1
 180e7a8:	10800fcc 	andi	r2,r2,63
 180e7ac:	e0bff915 	stw	r2,-28(fp)

    /* block waiting for space if necessary */

    if (next == sp->tx_start)
 180e7b0:	e0bffc17 	ldw	r2,-16(fp)
 180e7b4:	10c00417 	ldw	r3,16(r2)
 180e7b8:	e0bff917 	ldw	r2,-28(fp)
 180e7bc:	1880251e 	bne	r3,r2,180e854 <altera_avalon_uart_write+0xf0>
    {
      if (no_block)
 180e7c0:	e0bffa17 	ldw	r2,-24(fp)
 180e7c4:	1005003a 	cmpeq	r2,r2,zero
 180e7c8:	1000051e 	bne	r2,zero,180e7e0 <altera_avalon_uart_write+0x7c>
      {
        /* Set errno to indicate why this function returned early */
 
        ALT_ERRNO = EWOULDBLOCK;
 180e7cc:	180e92c0 	call	180e92c <alt_get_errno>
 180e7d0:	1007883a 	mov	r3,r2
 180e7d4:	008002c4 	movi	r2,11
 180e7d8:	18800015 	stw	r2,0(r3)
        break;
 180e7dc:	00003206 	br	180e8a8 <altera_avalon_uart_write+0x144>
static ALT_INLINE alt_irq_context ALT_ALWAYS_INLINE 
       alt_irq_disable_all (void)
{
  alt_irq_context context;

  NIOS2_READ_STATUS (context);
 180e7e0:	0005303a 	rdctl	r2,status
 180e7e4:	e0bff715 	stw	r2,-36(fp)

  NIOS2_WRITE_STATUS (context & ~NIOS2_STATUS_PIE_MSK);
 180e7e8:	e0fff717 	ldw	r3,-36(fp)
 180e7ec:	00bfff84 	movi	r2,-2
 180e7f0:	1884703a 	and	r2,r3,r2
 180e7f4:	1001703a 	wrctl	status,r2
  
  return context;
 180e7f8:	e0bff717 	ldw	r2,-36(fp)
      {
        /* Block waiting for space in the circular buffer */

        /* First, ensure transmit interrupts are enabled to avoid deadlock */

        context = alt_irq_disable_all ();
 180e7fc:	e0bffb15 	stw	r2,-20(fp)
        sp->ctrl |= (ALTERA_AVALON_UART_CONTROL_TRDY_MSK |
 180e800:	e0bffc17 	ldw	r2,-16(fp)
 180e804:	10800117 	ldw	r2,4(r2)
 180e808:	10c11014 	ori	r3,r2,1088
 180e80c:	e0bffc17 	ldw	r2,-16(fp)
 180e810:	10c00115 	stw	r3,4(r2)
                        ALTERA_AVALON_UART_CONTROL_DCTS_MSK);
        IOWR_ALTERA_AVALON_UART_CONTROL(sp->base, sp->ctrl);
 180e814:	e0bffc17 	ldw	r2,-16(fp)
 180e818:	10800017 	ldw	r2,0(r2)
 180e81c:	11000304 	addi	r4,r2,12
 180e820:	e0bffc17 	ldw	r2,-16(fp)
 180e824:	10800117 	ldw	r2,4(r2)
 180e828:	1007883a 	mov	r3,r2
 180e82c:	2005883a 	mov	r2,r4
 180e830:	10c00035 	stwio	r3,0(r2)
 180e834:	e0bffb17 	ldw	r2,-20(fp)
 180e838:	e0bff615 	stw	r2,-40(fp)
  status &= ~NIOS2_STATUS_PIE_MSK;
  status |= (context & NIOS2_STATUS_PIE_MSK);
  
  NIOS2_WRITE_STATUS (status);
#else
  NIOS2_WRITE_STATUS (context);
 180e83c:	e0bff617 	ldw	r2,-40(fp)
 180e840:	1001703a 	wrctl	status,r2
          ALT_FLAG_PEND (sp->events, 
                         ALT_UART_WRITE_RDY,
                         OS_FLAG_WAIT_SET_ANY + OS_FLAG_CONSUME,
                         0);
        }
        while ((next == sp->tx_start));
 180e844:	e0bffc17 	ldw	r2,-16(fp)
 180e848:	10c00417 	ldw	r3,16(r2)
 180e84c:	e0bff917 	ldw	r2,-28(fp)
 180e850:	18bffc26 	beq	r3,r2,180e844 <altera_avalon_uart_write+0xe0>
      }
    }

    count--;
 180e854:	e0bff817 	ldw	r2,-32(fp)
 180e858:	10bfffc4 	addi	r2,r2,-1
 180e85c:	e0bff815 	stw	r2,-32(fp)

    /* Add the next character to the transmit buffer */

    sp->tx_buf[sp->tx_end] = *ptr++;
 180e860:	e0bffc17 	ldw	r2,-16(fp)
 180e864:	10c00517 	ldw	r3,20(r2)
 180e868:	e0bffd17 	ldw	r2,-12(fp)
 180e86c:	10800003 	ldbu	r2,0(r2)
 180e870:	1009883a 	mov	r4,r2
 180e874:	e0bffc17 	ldw	r2,-16(fp)
 180e878:	1885883a 	add	r2,r3,r2
 180e87c:	10801704 	addi	r2,r2,92
 180e880:	11000005 	stb	r4,0(r2)
 180e884:	e0bffd17 	ldw	r2,-12(fp)
 180e888:	10800044 	addi	r2,r2,1
 180e88c:	e0bffd15 	stw	r2,-12(fp)
    sp->tx_end = next;
 180e890:	e0fffc17 	ldw	r3,-16(fp)
 180e894:	e0bff917 	ldw	r2,-28(fp)
 180e898:	18800515 	stw	r2,20(r3)
   * Loop transferring data from the input buffer to the transmit circular
   * buffer. The loop is terminated once all the data has been transferred,
   * or, (if in non-blocking mode) the buffer becomes full.
   */

  while (count)
 180e89c:	e0bff817 	ldw	r2,-32(fp)
 180e8a0:	1004c03a 	cmpne	r2,r2,zero
 180e8a4:	103fbd1e 	bne	r2,zero,180e79c <altera_avalon_uart_write+0x38>
static ALT_INLINE alt_irq_context ALT_ALWAYS_INLINE 
       alt_irq_disable_all (void)
{
  alt_irq_context context;

  NIOS2_READ_STATUS (context);
 180e8a8:	0005303a 	rdctl	r2,status
 180e8ac:	e0bff515 	stw	r2,-44(fp)

  NIOS2_WRITE_STATUS (context & ~NIOS2_STATUS_PIE_MSK);
 180e8b0:	e0fff517 	ldw	r3,-44(fp)
 180e8b4:	00bfff84 	movi	r2,-2
 180e8b8:	1884703a 	and	r2,r3,r2
 180e8bc:	1001703a 	wrctl	status,r2
  
  return context;
 180e8c0:	e0bff517 	ldw	r2,-44(fp)
  /* 
   * Ensure that interrupts are enabled, so that the circular buffer can 
   * drain.
   */

  context = alt_irq_disable_all ();
 180e8c4:	e0bffb15 	stw	r2,-20(fp)
  sp->ctrl |= ALTERA_AVALON_UART_CONTROL_TRDY_MSK |
 180e8c8:	e0bffc17 	ldw	r2,-16(fp)
 180e8cc:	10800117 	ldw	r2,4(r2)
 180e8d0:	10c11014 	ori	r3,r2,1088
 180e8d4:	e0bffc17 	ldw	r2,-16(fp)
 180e8d8:	10c00115 	stw	r3,4(r2)
                 ALTERA_AVALON_UART_CONTROL_DCTS_MSK;
  IOWR_ALTERA_AVALON_UART_CONTROL(sp->base, sp->ctrl);
 180e8dc:	e0bffc17 	ldw	r2,-16(fp)
 180e8e0:	10800017 	ldw	r2,0(r2)
 180e8e4:	11000304 	addi	r4,r2,12
 180e8e8:	e0bffc17 	ldw	r2,-16(fp)
 180e8ec:	10800117 	ldw	r2,4(r2)
 180e8f0:	1007883a 	mov	r3,r2
 180e8f4:	2005883a 	mov	r2,r4
 180e8f8:	10c00035 	stwio	r3,0(r2)
 180e8fc:	e0bffb17 	ldw	r2,-20(fp)
 180e900:	e0bff415 	stw	r2,-48(fp)
  status &= ~NIOS2_STATUS_PIE_MSK;
  status |= (context & NIOS2_STATUS_PIE_MSK);
  
  NIOS2_WRITE_STATUS (status);
#else
  NIOS2_WRITE_STATUS (context);
 180e904:	e0bff417 	ldw	r2,-48(fp)
 180e908:	1001703a 	wrctl	status,r2
  alt_irq_enable_all (context);

  /* return the number of bytes written */

  return (len - count);
 180e90c:	e0fffe17 	ldw	r3,-8(fp)
 180e910:	e0bff817 	ldw	r2,-32(fp)
 180e914:	1885c83a 	sub	r2,r3,r2
}
 180e918:	e037883a 	mov	sp,fp
 180e91c:	dfc00117 	ldw	ra,4(sp)
 180e920:	df000017 	ldw	fp,0(sp)
 180e924:	dec00204 	addi	sp,sp,8
 180e928:	f800283a 	ret

0180e92c <alt_get_errno>:
#undef errno

extern int errno;

static ALT_INLINE int* alt_get_errno(void)
{
 180e92c:	defffd04 	addi	sp,sp,-12
 180e930:	dfc00215 	stw	ra,8(sp)
 180e934:	df000115 	stw	fp,4(sp)
 180e938:	df000104 	addi	fp,sp,4
  return ((alt_errno) ? alt_errno() : &errno);
 180e93c:	00806074 	movhi	r2,385
 180e940:	108ad504 	addi	r2,r2,11092
 180e944:	10800017 	ldw	r2,0(r2)
 180e948:	1005003a 	cmpeq	r2,r2,zero
 180e94c:	1000061e 	bne	r2,zero,180e968 <alt_get_errno+0x3c>
 180e950:	00806074 	movhi	r2,385
 180e954:	108ad504 	addi	r2,r2,11092
 180e958:	10800017 	ldw	r2,0(r2)
 180e95c:	103ee83a 	callr	r2
 180e960:	e0bfff15 	stw	r2,-4(fp)
 180e964:	00000306 	br	180e974 <alt_get_errno+0x48>
 180e968:	00806074 	movhi	r2,385
 180e96c:	108ae404 	addi	r2,r2,11152
 180e970:	e0bfff15 	stw	r2,-4(fp)
 180e974:	e0bfff17 	ldw	r2,-4(fp)
}
 180e978:	e037883a 	mov	sp,fp
 180e97c:	dfc00117 	ldw	ra,4(sp)
 180e980:	df000017 	ldw	fp,0(sp)
 180e984:	dec00204 	addi	sp,sp,8
 180e988:	f800283a 	ret

0180e98c <alt_alarm_start>:
 */ 

int alt_alarm_start (alt_alarm* alarm, alt_u32 nticks,
                     alt_u32 (*callback) (void* context),
                     void* context)
{
 180e98c:	defff404 	addi	sp,sp,-48
 180e990:	df000b15 	stw	fp,44(sp)
 180e994:	df000b04 	addi	fp,sp,44
 180e998:	e13ffb15 	stw	r4,-20(fp)
 180e99c:	e17ffc15 	stw	r5,-16(fp)
 180e9a0:	e1bffd15 	stw	r6,-12(fp)
 180e9a4:	e1fffe15 	stw	r7,-8(fp)
  alt_irq_context irq_context;
  alt_u32 current_nticks = 0;
 180e9a8:	e03ff915 	stw	zero,-28(fp)
 * Obtain the system clock rate in ticks/s. 
 */

static ALT_INLINE alt_u32 ALT_ALWAYS_INLINE alt_ticks_per_second (void)
{
  return _alt_tick_rate;
 180e9ac:	00806074 	movhi	r2,385
 180e9b0:	108ae904 	addi	r2,r2,11172
 180e9b4:	10800017 	ldw	r2,0(r2)
  
  if (alt_ticks_per_second ())
 180e9b8:	1005003a 	cmpeq	r2,r2,zero
 180e9bc:	1000411e 	bne	r2,zero,180eac4 <alt_alarm_start+0x138>
  {
    if (alarm)
 180e9c0:	e0bffb17 	ldw	r2,-20(fp)
 180e9c4:	1005003a 	cmpeq	r2,r2,zero
 180e9c8:	10003b1e 	bne	r2,zero,180eab8 <alt_alarm_start+0x12c>
    {
      alarm->callback = callback;
 180e9cc:	e0fffb17 	ldw	r3,-20(fp)
 180e9d0:	e0bffd17 	ldw	r2,-12(fp)
 180e9d4:	18800315 	stw	r2,12(r3)
      alarm->context  = context;
 180e9d8:	e0fffb17 	ldw	r3,-20(fp)
 180e9dc:	e0bffe17 	ldw	r2,-8(fp)
 180e9e0:	18800515 	stw	r2,20(r3)
static ALT_INLINE alt_irq_context ALT_ALWAYS_INLINE 
       alt_irq_disable_all (void)
{
  alt_irq_context context;

  NIOS2_READ_STATUS (context);
 180e9e4:	0005303a 	rdctl	r2,status
 180e9e8:	e0bff815 	stw	r2,-32(fp)

  NIOS2_WRITE_STATUS (context & ~NIOS2_STATUS_PIE_MSK);
 180e9ec:	e0fff817 	ldw	r3,-32(fp)
 180e9f0:	00bfff84 	movi	r2,-2
 180e9f4:	1884703a 	and	r2,r3,r2
 180e9f8:	1001703a 	wrctl	status,r2
  
  return context;
 180e9fc:	e0bff817 	ldw	r2,-32(fp)
 
      irq_context = alt_irq_disable_all ();
 180ea00:	e0bffa15 	stw	r2,-24(fp)
 * alt_nticks() returns the elapsed number of system clock ticks since reset.
 */

static ALT_INLINE alt_u32 ALT_ALWAYS_INLINE alt_nticks (void)
{
  return _alt_nticks;
 180ea04:	00806074 	movhi	r2,385
 180ea08:	108aea04 	addi	r2,r2,11176
 180ea0c:	10800017 	ldw	r2,0(r2)
      
      current_nticks = alt_nticks();
 180ea10:	e0bff915 	stw	r2,-28(fp)
      
      alarm->time = nticks + current_nticks + 1; 
 180ea14:	e0fffc17 	ldw	r3,-16(fp)
 180ea18:	e0bff917 	ldw	r2,-28(fp)
 180ea1c:	1885883a 	add	r2,r3,r2
 180ea20:	10c00044 	addi	r3,r2,1
 180ea24:	e0bffb17 	ldw	r2,-20(fp)
 180ea28:	10c00215 	stw	r3,8(r2)
      /* 
       * If the desired alarm time causes a roll-over, set the rollover
       * flag. This will prevent the subsequent tick event from causing
       * an alarm too early.
       */
      if(alarm->time < current_nticks)
 180ea2c:	e0bffb17 	ldw	r2,-20(fp)
 180ea30:	10c00217 	ldw	r3,8(r2)
 180ea34:	e0bff917 	ldw	r2,-28(fp)
 180ea38:	1880042e 	bgeu	r3,r2,180ea4c <alt_alarm_start+0xc0>
      {
        alarm->rollover = 1;
 180ea3c:	e0fffb17 	ldw	r3,-20(fp)
 180ea40:	00800044 	movi	r2,1
 180ea44:	18800405 	stb	r2,16(r3)
 180ea48:	00000206 	br	180ea54 <alt_alarm_start+0xc8>
      }
      else
      {
        alarm->rollover = 0;
 180ea4c:	e0bffb17 	ldw	r2,-20(fp)
 180ea50:	10000405 	stb	zero,16(r2)
      }
    
      alt_llist_insert (&alt_alarm_list, &alarm->llist);
 180ea54:	e0fffb17 	ldw	r3,-20(fp)
 180ea58:	00806074 	movhi	r2,385
 180ea5c:	108adb04 	addi	r2,r2,11116
 180ea60:	e0bff615 	stw	r2,-40(fp)
 180ea64:	e0fff715 	stw	r3,-36(fp)
 */

static ALT_INLINE void ALT_ALWAYS_INLINE alt_llist_insert(alt_llist* list, 
                alt_llist* entry)
{
  entry->previous = list;
 180ea68:	e0fff717 	ldw	r3,-36(fp)
 180ea6c:	e0bff617 	ldw	r2,-40(fp)
 180ea70:	18800115 	stw	r2,4(r3)
  entry->next     = list->next;
 180ea74:	e0bff617 	ldw	r2,-40(fp)
 180ea78:	10c00017 	ldw	r3,0(r2)
 180ea7c:	e0bff717 	ldw	r2,-36(fp)
 180ea80:	10c00015 	stw	r3,0(r2)

  list->next->previous = entry;
 180ea84:	e0bff617 	ldw	r2,-40(fp)
 180ea88:	10c00017 	ldw	r3,0(r2)
 180ea8c:	e0bff717 	ldw	r2,-36(fp)
 180ea90:	18800115 	stw	r2,4(r3)
  list->next           = entry;
 180ea94:	e0fff617 	ldw	r3,-40(fp)
 180ea98:	e0bff717 	ldw	r2,-36(fp)
 180ea9c:	18800015 	stw	r2,0(r3)
 180eaa0:	e0bffa17 	ldw	r2,-24(fp)
 180eaa4:	e0bff515 	stw	r2,-44(fp)
  status &= ~NIOS2_STATUS_PIE_MSK;
  status |= (context & NIOS2_STATUS_PIE_MSK);
  
  NIOS2_WRITE_STATUS (status);
#else
  NIOS2_WRITE_STATUS (context);
 180eaa8:	e0bff517 	ldw	r2,-44(fp)
 180eaac:	1001703a 	wrctl	status,r2
      alt_irq_enable_all (irq_context);

      return 0;
 180eab0:	e03fff15 	stw	zero,-4(fp)
 180eab4:	00000506 	br	180eacc <alt_alarm_start+0x140>
    }
    else
    {
      return -EINVAL;
 180eab8:	00bffa84 	movi	r2,-22
 180eabc:	e0bfff15 	stw	r2,-4(fp)
 180eac0:	00000206 	br	180eacc <alt_alarm_start+0x140>
    }
  }
  else
  {
    return -ENOTSUP;
 180eac4:	00bfde84 	movi	r2,-134
 180eac8:	e0bfff15 	stw	r2,-4(fp)
 180eacc:	e0bfff17 	ldw	r2,-4(fp)
  }
}
 180ead0:	e037883a 	mov	sp,fp
 180ead4:	df000017 	ldw	fp,0(sp)
 180ead8:	dec00104 	addi	sp,sp,4
 180eadc:	f800283a 	ret

0180eae0 <alt_busy_sleep>:
#include "alt_types.h"

#include "priv/alt_busy_sleep.h"

unsigned int alt_busy_sleep (unsigned int us)
{
 180eae0:	defffb04 	addi	sp,sp,-20
 180eae4:	df000415 	stw	fp,16(sp)
 180eae8:	df000404 	addi	fp,sp,16
 180eaec:	e13fff15 	stw	r4,-4(fp)
  {
    cycles_per_loop = 9;
  }
  else  
  {
    cycles_per_loop = 3;
 180eaf0:	008000c4 	movi	r2,3
 180eaf4:	e0bffc15 	stw	r2,-16(fp)
  }
  

  big_loops = us / (INT_MAX/
 180eaf8:	e0fffc17 	ldw	r3,-16(fp)
 180eafc:	008003f4 	movhi	r2,15
 180eb00:	10909004 	addi	r2,r2,16960
 180eb04:	1887383a 	mul	r3,r3,r2
 180eb08:	0080bef4 	movhi	r2,763
 180eb0c:	10bc2004 	addi	r2,r2,-3968
 180eb10:	10c7203a 	divu	r3,r2,r3
 180eb14:	00a00034 	movhi	r2,32768
 180eb18:	10bfffc4 	addi	r2,r2,-1
 180eb1c:	10c7203a 	divu	r3,r2,r3
 180eb20:	e0bfff17 	ldw	r2,-4(fp)
 180eb24:	10c5203a 	divu	r2,r2,r3
 180eb28:	e0bffd15 	stw	r2,-12(fp)
  (ALT_CPU_FREQ/(cycles_per_loop * 1000000)));

  if (big_loops)
 180eb2c:	e0bffd17 	ldw	r2,-12(fp)
 180eb30:	1005003a 	cmpeq	r2,r2,zero
 180eb34:	1000251e 	bne	r2,zero,180ebcc <alt_busy_sleep+0xec>
  {
    for(i=0;i<big_loops;i++)
 180eb38:	e03ffe15 	stw	zero,-8(fp)
 180eb3c:	00001406 	br	180eb90 <alt_busy_sleep+0xb0>
      /*
      * Do NOT Try to single step the asm statement below 
      * (single step will never return)
      * Step out of this function or set a breakpoint after the asm statements
      */
      __asm__ volatile (
 180eb40:	00a00034 	movhi	r2,32768
 180eb44:	10bfffc4 	addi	r2,r2,-1
 180eb48:	10bfffc4 	addi	r2,r2,-1
 180eb4c:	103ffe1e 	bne	r2,zero,180eb48 <alt_busy_sleep+0x68>
        "\n1:"
        "\n\t.pushsection .debug_alt_sim_info"
        "\n\t.int 4, 0, 0b, 1b"
        "\n\t.popsection"
        :: "r" (INT_MAX));
      us -= (INT_MAX/(ALT_CPU_FREQ/
 180eb50:	e0fffc17 	ldw	r3,-16(fp)
 180eb54:	008003f4 	movhi	r2,15
 180eb58:	10909004 	addi	r2,r2,16960
 180eb5c:	1887383a 	mul	r3,r3,r2
 180eb60:	0080bef4 	movhi	r2,763
 180eb64:	10bc2004 	addi	r2,r2,-3968
 180eb68:	10c7203a 	divu	r3,r2,r3
 180eb6c:	00a00034 	movhi	r2,32768
 180eb70:	10bfffc4 	addi	r2,r2,-1
 180eb74:	10c7203a 	divu	r3,r2,r3
 180eb78:	e0bfff17 	ldw	r2,-4(fp)
 180eb7c:	10c5c83a 	sub	r2,r2,r3
 180eb80:	e0bfff15 	stw	r2,-4(fp)
  big_loops = us / (INT_MAX/
  (ALT_CPU_FREQ/(cycles_per_loop * 1000000)));

  if (big_loops)
  {
    for(i=0;i<big_loops;i++)
 180eb84:	e0bffe17 	ldw	r2,-8(fp)
 180eb88:	10800044 	addi	r2,r2,1
 180eb8c:	e0bffe15 	stw	r2,-8(fp)
 180eb90:	e0fffe17 	ldw	r3,-8(fp)
 180eb94:	e0bffd17 	ldw	r2,-12(fp)
 180eb98:	18bfe916 	blt	r3,r2,180eb40 <alt_busy_sleep+0x60>
    /*
    * Do NOT Try to single step the asm statement below 
    * (single step will never return)
    * Step out of this function or set a breakpoint after the asm statements
    */
    __asm__ volatile (
 180eb9c:	e0fffc17 	ldw	r3,-16(fp)
 180eba0:	008003f4 	movhi	r2,15
 180eba4:	10909004 	addi	r2,r2,16960
 180eba8:	1887383a 	mul	r3,r3,r2
 180ebac:	0080bef4 	movhi	r2,763
 180ebb0:	10bc2004 	addi	r2,r2,-3968
 180ebb4:	10c7203a 	divu	r3,r2,r3
 180ebb8:	e0bfff17 	ldw	r2,-4(fp)
 180ebbc:	1885383a 	mul	r2,r3,r2
 180ebc0:	10bfffc4 	addi	r2,r2,-1
 180ebc4:	103ffe1e 	bne	r2,zero,180ebc0 <alt_busy_sleep+0xe0>
 180ebc8:	00000b06 	br	180ebf8 <alt_busy_sleep+0x118>
    /*
    * Do NOT Try to single step the asm statement below 
    * (single step will never return)
    * Step out of this function or set a breakpoint after the asm statements
    */
    __asm__ volatile (
 180ebcc:	e0fffc17 	ldw	r3,-16(fp)
 180ebd0:	008003f4 	movhi	r2,15
 180ebd4:	10909004 	addi	r2,r2,16960
 180ebd8:	1887383a 	mul	r3,r3,r2
 180ebdc:	0080bef4 	movhi	r2,763
 180ebe0:	10bc2004 	addi	r2,r2,-3968
 180ebe4:	10c7203a 	divu	r3,r2,r3
 180ebe8:	e0bfff17 	ldw	r2,-4(fp)
 180ebec:	1885383a 	mul	r2,r3,r2
 180ebf0:	10bfffc4 	addi	r2,r2,-1
 180ebf4:	00bffe16 	blt	zero,r2,180ebf0 <alt_busy_sleep+0x110>
      "\n\t.int 4, 0, 0b, 1b"
      "\n\t.popsection"
      :: "r" (us*(ALT_CPU_FREQ/(cycles_per_loop * 1000000))));
  }
#endif /* #ifndef ALT_SIM_OPTIMIZE */
  return 0;
 180ebf8:	0005883a 	mov	r2,zero
}
 180ebfc:	e037883a 	mov	sp,fp
 180ec00:	df000017 	ldw	fp,0(sp)
 180ec04:	dec00104 	addi	sp,sp,4
 180ec08:	f800283a 	ret

0180ec0c <alt_dcache_flush>:
 *
 * Any dirty lines in the data cache are written back to memory.
 */

void alt_dcache_flush (void* start, alt_u32 len)
{
 180ec0c:	defffb04 	addi	sp,sp,-20
 180ec10:	df000415 	stw	fp,16(sp)
 180ec14:	df000404 	addi	fp,sp,16
 180ec18:	e13ffe15 	stw	r4,-8(fp)
 180ec1c:	e17fff15 	stw	r5,-4(fp)
  {
    len = NIOS2_DCACHE_SIZE;
  }
  #endif

  end = ((char*) start) + len; 
 180ec20:	e0fffe17 	ldw	r3,-8(fp)
 180ec24:	e0bfff17 	ldw	r2,-4(fp)
 180ec28:	1885883a 	add	r2,r3,r2
 180ec2c:	e0bffc15 	stw	r2,-16(fp)

  for (i = start; i < end; i+= NIOS2_DCACHE_LINE_SIZE)
 180ec30:	e0bffe17 	ldw	r2,-8(fp)
 180ec34:	e0bffd15 	stw	r2,-12(fp)
 180ec38:	00000506 	br	180ec50 <alt_dcache_flush+0x44>
  { 
    ALT_FLUSH_DATA(i); 
 180ec3c:	e0bffd17 	ldw	r2,-12(fp)
 180ec40:	1000001b 	flushda	0(r2)
  }
  #endif

  end = ((char*) start) + len; 

  for (i = start; i < end; i+= NIOS2_DCACHE_LINE_SIZE)
 180ec44:	e0bffd17 	ldw	r2,-12(fp)
 180ec48:	10800804 	addi	r2,r2,32
 180ec4c:	e0bffd15 	stw	r2,-12(fp)
 180ec50:	e0fffd17 	ldw	r3,-12(fp)
 180ec54:	e0bffc17 	ldw	r2,-16(fp)
 180ec58:	18bff836 	bltu	r3,r2,180ec3c <alt_dcache_flush+0x30>
   * For an unaligned flush request, we've got one more line left.
   * Note that this is dependent on NIOS2_DCACHE_LINE_SIZE to be a 
   * multiple of 2 (which it always is).
   */

  if (((alt_u32) start) & (NIOS2_DCACHE_LINE_SIZE - 1))
 180ec5c:	e0bffe17 	ldw	r2,-8(fp)
 180ec60:	108007cc 	andi	r2,r2,31
 180ec64:	1005003a 	cmpeq	r2,r2,zero
 180ec68:	1000021e 	bne	r2,zero,180ec74 <alt_dcache_flush+0x68>
  {
    ALT_FLUSH_DATA(i);
 180ec6c:	e0bffd17 	ldw	r2,-12(fp)
 180ec70:	1000001b 	flushda	0(r2)
  }

#endif /* NIOS2_DCACHE_SIZE > 0 */
}
 180ec74:	e037883a 	mov	sp,fp
 180ec78:	df000017 	ldw	fp,0(sp)
 180ec7c:	dec00104 	addi	sp,sp,4
 180ec80:	f800283a 	ret

0180ec84 <alt_dev_llist_insert>:
/*
 *
 */

int alt_dev_llist_insert (alt_dev_llist* dev, alt_llist* list)
{
 180ec84:	defff904 	addi	sp,sp,-28
 180ec88:	dfc00615 	stw	ra,24(sp)
 180ec8c:	df000515 	stw	fp,20(sp)
 180ec90:	df000504 	addi	fp,sp,20
 180ec94:	e13ffd15 	stw	r4,-12(fp)
 180ec98:	e17ffe15 	stw	r5,-8(fp)
  /*
   * check that the device exists, and that it has a valid name.
   */

  if (!dev || !dev->name)
 180ec9c:	e0bffd17 	ldw	r2,-12(fp)
 180eca0:	1005003a 	cmpeq	r2,r2,zero
 180eca4:	1000041e 	bne	r2,zero,180ecb8 <alt_dev_llist_insert+0x34>
 180eca8:	e0bffd17 	ldw	r2,-12(fp)
 180ecac:	10800217 	ldw	r2,8(r2)
 180ecb0:	1004c03a 	cmpne	r2,r2,zero
 180ecb4:	1000071e 	bne	r2,zero,180ecd4 <alt_dev_llist_insert+0x50>
  {
    ALT_ERRNO = EINVAL;
 180ecb8:	180ed380 	call	180ed38 <alt_get_errno>
 180ecbc:	1007883a 	mov	r3,r2
 180ecc0:	00800584 	movi	r2,22
 180ecc4:	18800015 	stw	r2,0(r3)
    return -EINVAL;
 180ecc8:	00bffa84 	movi	r2,-22
 180eccc:	e0bfff15 	stw	r2,-4(fp)
 180ecd0:	00001306 	br	180ed20 <alt_dev_llist_insert+0x9c>
  
  /*
   * register the device.
   */
  
  alt_llist_insert(list, &dev->llist);
 180ecd4:	e0fffd17 	ldw	r3,-12(fp)
 180ecd8:	e0bffe17 	ldw	r2,-8(fp)
 180ecdc:	e0bffb15 	stw	r2,-20(fp)
 180ece0:	e0fffc15 	stw	r3,-16(fp)
 */

static ALT_INLINE void ALT_ALWAYS_INLINE alt_llist_insert(alt_llist* list, 
                alt_llist* entry)
{
  entry->previous = list;
 180ece4:	e0fffc17 	ldw	r3,-16(fp)
 180ece8:	e0bffb17 	ldw	r2,-20(fp)
 180ecec:	18800115 	stw	r2,4(r3)
  entry->next     = list->next;
 180ecf0:	e0bffb17 	ldw	r2,-20(fp)
 180ecf4:	10c00017 	ldw	r3,0(r2)
 180ecf8:	e0bffc17 	ldw	r2,-16(fp)
 180ecfc:	10c00015 	stw	r3,0(r2)

  list->next->previous = entry;
 180ed00:	e0bffb17 	ldw	r2,-20(fp)
 180ed04:	10c00017 	ldw	r3,0(r2)
 180ed08:	e0bffc17 	ldw	r2,-16(fp)
 180ed0c:	18800115 	stw	r2,4(r3)
  list->next           = entry;
 180ed10:	e0fffb17 	ldw	r3,-20(fp)
 180ed14:	e0bffc17 	ldw	r2,-16(fp)
 180ed18:	18800015 	stw	r2,0(r3)

  return 0;  
 180ed1c:	e03fff15 	stw	zero,-4(fp)
 180ed20:	e0bfff17 	ldw	r2,-4(fp)
}
 180ed24:	e037883a 	mov	sp,fp
 180ed28:	dfc00117 	ldw	ra,4(sp)
 180ed2c:	df000017 	ldw	fp,0(sp)
 180ed30:	dec00204 	addi	sp,sp,8
 180ed34:	f800283a 	ret

0180ed38 <alt_get_errno>:
#undef errno

extern int errno;

static ALT_INLINE int* alt_get_errno(void)
{
 180ed38:	defffd04 	addi	sp,sp,-12
 180ed3c:	dfc00215 	stw	ra,8(sp)
 180ed40:	df000115 	stw	fp,4(sp)
 180ed44:	df000104 	addi	fp,sp,4
  return ((alt_errno) ? alt_errno() : &errno);
 180ed48:	00806074 	movhi	r2,385
 180ed4c:	108ad504 	addi	r2,r2,11092
 180ed50:	10800017 	ldw	r2,0(r2)
 180ed54:	1005003a 	cmpeq	r2,r2,zero
 180ed58:	1000061e 	bne	r2,zero,180ed74 <alt_get_errno+0x3c>
 180ed5c:	00806074 	movhi	r2,385
 180ed60:	108ad504 	addi	r2,r2,11092
 180ed64:	10800017 	ldw	r2,0(r2)
 180ed68:	103ee83a 	callr	r2
 180ed6c:	e0bfff15 	stw	r2,-4(fp)
 180ed70:	00000306 	br	180ed80 <alt_get_errno+0x48>
 180ed74:	00806074 	movhi	r2,385
 180ed78:	108ae404 	addi	r2,r2,11152
 180ed7c:	e0bfff15 	stw	r2,-4(fp)
 180ed80:	e0bfff17 	ldw	r2,-4(fp)
}
 180ed84:	e037883a 	mov	sp,fp
 180ed88:	dfc00117 	ldw	ra,4(sp)
 180ed8c:	df000017 	ldw	fp,0(sp)
 180ed90:	dec00204 	addi	sp,sp,8
 180ed94:	f800283a 	ret

0180ed98 <_do_ctors>:
/*
 * Run the C++ static constructors.
 */

void _do_ctors(void)
{
 180ed98:	defffd04 	addi	sp,sp,-12
 180ed9c:	dfc00215 	stw	ra,8(sp)
 180eda0:	df000115 	stw	fp,4(sp)
 180eda4:	df000104 	addi	fp,sp,4
  constructor* ctor;

  for (ctor = &__CTOR_END__[-1]; ctor >= __CTOR_LIST__; ctor--)
 180eda8:	00bfff04 	movi	r2,-4
 180edac:	00c06074 	movhi	r3,385
 180edb0:	18c21004 	addi	r3,r3,2112
 180edb4:	1885883a 	add	r2,r3,r2
 180edb8:	e0bfff15 	stw	r2,-4(fp)
 180edbc:	00000606 	br	180edd8 <_do_ctors+0x40>
        (*ctor) (); 
 180edc0:	e0bfff17 	ldw	r2,-4(fp)
 180edc4:	10800017 	ldw	r2,0(r2)
 180edc8:	103ee83a 	callr	r2

void _do_ctors(void)
{
  constructor* ctor;

  for (ctor = &__CTOR_END__[-1]; ctor >= __CTOR_LIST__; ctor--)
 180edcc:	e0bfff17 	ldw	r2,-4(fp)
 180edd0:	10bfff04 	addi	r2,r2,-4
 180edd4:	e0bfff15 	stw	r2,-4(fp)
 180edd8:	e0ffff17 	ldw	r3,-4(fp)
 180eddc:	00806074 	movhi	r2,385
 180ede0:	10820f04 	addi	r2,r2,2108
 180ede4:	18bff62e 	bgeu	r3,r2,180edc0 <_do_ctors+0x28>
        (*ctor) (); 
}
 180ede8:	e037883a 	mov	sp,fp
 180edec:	dfc00117 	ldw	ra,4(sp)
 180edf0:	df000017 	ldw	fp,0(sp)
 180edf4:	dec00204 	addi	sp,sp,8
 180edf8:	f800283a 	ret

0180edfc <_do_dtors>:
/*
 * Run the C++ static destructors.
 */

void _do_dtors(void)
{
 180edfc:	defffd04 	addi	sp,sp,-12
 180ee00:	dfc00215 	stw	ra,8(sp)
 180ee04:	df000115 	stw	fp,4(sp)
 180ee08:	df000104 	addi	fp,sp,4
  destructor* dtor;

  for (dtor = &__DTOR_END__[-1]; dtor >= __DTOR_LIST__; dtor--)
 180ee0c:	00bfff04 	movi	r2,-4
 180ee10:	00c06074 	movhi	r3,385
 180ee14:	18c21004 	addi	r3,r3,2112
 180ee18:	1885883a 	add	r2,r3,r2
 180ee1c:	e0bfff15 	stw	r2,-4(fp)
 180ee20:	00000606 	br	180ee3c <_do_dtors+0x40>
        (*dtor) (); 
 180ee24:	e0bfff17 	ldw	r2,-4(fp)
 180ee28:	10800017 	ldw	r2,0(r2)
 180ee2c:	103ee83a 	callr	r2

void _do_dtors(void)
{
  destructor* dtor;

  for (dtor = &__DTOR_END__[-1]; dtor >= __DTOR_LIST__; dtor--)
 180ee30:	e0bfff17 	ldw	r2,-4(fp)
 180ee34:	10bfff04 	addi	r2,r2,-4
 180ee38:	e0bfff15 	stw	r2,-4(fp)
 180ee3c:	e0ffff17 	ldw	r3,-4(fp)
 180ee40:	00806074 	movhi	r2,385
 180ee44:	10821004 	addi	r2,r2,2112
 180ee48:	18bff62e 	bgeu	r3,r2,180ee24 <_do_dtors+0x28>
        (*dtor) (); 
}
 180ee4c:	e037883a 	mov	sp,fp
 180ee50:	dfc00117 	ldw	ra,4(sp)
 180ee54:	df000017 	ldw	fp,0(sp)
 180ee58:	dec00204 	addi	sp,sp,8
 180ee5c:	f800283a 	ret

0180ee60 <alt_flash_open_dev>:
#include "priv/alt_file.h"

ALT_LLIST_HEAD(alt_flash_dev_list);

alt_flash_fd* alt_flash_open_dev(const char* name)
{
 180ee60:	defffb04 	addi	sp,sp,-20
 180ee64:	dfc00415 	stw	ra,16(sp)
 180ee68:	df000315 	stw	fp,12(sp)
 180ee6c:	df000304 	addi	fp,sp,12
 180ee70:	e13ffe15 	stw	r4,-8(fp)
  alt_flash_dev* dev = (alt_flash_dev*)alt_find_dev(name, &alt_flash_dev_list);
 180ee74:	e13ffe17 	ldw	r4,-8(fp)
 180ee78:	d1600e04 	addi	r5,gp,-32712
 180ee7c:	18100800 	call	1810080 <alt_find_dev>
 180ee80:	e0bffd15 	stw	r2,-12(fp)

  if ((dev) && dev->open)
 180ee84:	e0bffd17 	ldw	r2,-12(fp)
 180ee88:	1005003a 	cmpeq	r2,r2,zero
 180ee8c:	10000b1e 	bne	r2,zero,180eebc <alt_flash_open_dev+0x5c>
 180ee90:	e0bffd17 	ldw	r2,-12(fp)
 180ee94:	10800317 	ldw	r2,12(r2)
 180ee98:	1005003a 	cmpeq	r2,r2,zero
 180ee9c:	1000071e 	bne	r2,zero,180eebc <alt_flash_open_dev+0x5c>
  {
    return dev->open(dev, name);
 180eea0:	e0bffd17 	ldw	r2,-12(fp)
 180eea4:	10800317 	ldw	r2,12(r2)
 180eea8:	e13ffd17 	ldw	r4,-12(fp)
 180eeac:	e17ffe17 	ldw	r5,-8(fp)
 180eeb0:	103ee83a 	callr	r2
 180eeb4:	e0bfff15 	stw	r2,-4(fp)
 180eeb8:	00000206 	br	180eec4 <alt_flash_open_dev+0x64>
  }

  return dev;
 180eebc:	e0bffd17 	ldw	r2,-12(fp)
 180eec0:	e0bfff15 	stw	r2,-4(fp)
 180eec4:	e0bfff17 	ldw	r2,-4(fp)
}
 180eec8:	e037883a 	mov	sp,fp
 180eecc:	dfc00117 	ldw	ra,4(sp)
 180eed0:	df000017 	ldw	fp,0(sp)
 180eed4:	dec00204 	addi	sp,sp,8
 180eed8:	f800283a 	ret

0180eedc <alt_flash_close_dev>:

void alt_flash_close_dev(alt_flash_fd* fd)
{
 180eedc:	defffd04 	addi	sp,sp,-12
 180eee0:	dfc00215 	stw	ra,8(sp)
 180eee4:	df000115 	stw	fp,4(sp)
 180eee8:	df000104 	addi	fp,sp,4
 180eeec:	e13fff15 	stw	r4,-4(fp)
  if (fd && fd->close)
 180eef0:	e0bfff17 	ldw	r2,-4(fp)
 180eef4:	1005003a 	cmpeq	r2,r2,zero
 180eef8:	1000081e 	bne	r2,zero,180ef1c <alt_flash_close_dev+0x40>
 180eefc:	e0bfff17 	ldw	r2,-4(fp)
 180ef00:	10800417 	ldw	r2,16(r2)
 180ef04:	1005003a 	cmpeq	r2,r2,zero
 180ef08:	1000041e 	bne	r2,zero,180ef1c <alt_flash_close_dev+0x40>
  {
    fd->close(fd);
 180ef0c:	e0bfff17 	ldw	r2,-4(fp)
 180ef10:	10800417 	ldw	r2,16(r2)
 180ef14:	e13fff17 	ldw	r4,-4(fp)
 180ef18:	103ee83a 	callr	r2
  }
  return;
}
 180ef1c:	e037883a 	mov	sp,fp
 180ef20:	dfc00117 	ldw	ra,4(sp)
 180ef24:	df000017 	ldw	fp,0(sp)
 180ef28:	dec00204 	addi	sp,sp,8
 180ef2c:	f800283a 	ret

0180ef30 <alt_ic_isr_register>:
  * @param irq              IRQ number
  * @return                 0 if successful, else error (-1)
  */
int alt_ic_isr_register(alt_u32 ic_id, alt_u32 irq, alt_isr_func isr, 
  void *isr_context, void *flags)
{
 180ef30:	defff904 	addi	sp,sp,-28
 180ef34:	dfc00615 	stw	ra,24(sp)
 180ef38:	df000515 	stw	fp,20(sp)
 180ef3c:	df000504 	addi	fp,sp,20
 180ef40:	e13ffc15 	stw	r4,-16(fp)
 180ef44:	e17ffd15 	stw	r5,-12(fp)
 180ef48:	e1bffe15 	stw	r6,-8(fp)
 180ef4c:	e1ffff15 	stw	r7,-4(fp)
    return alt_iic_isr_register(ic_id, irq, isr, isr_context, flags);
 180ef50:	e0800217 	ldw	r2,8(fp)
 180ef54:	d8800015 	stw	r2,0(sp)
 180ef58:	e13ffc17 	ldw	r4,-16(fp)
 180ef5c:	e17ffd17 	ldw	r5,-12(fp)
 180ef60:	e1bffe17 	ldw	r6,-8(fp)
 180ef64:	e1ffff17 	ldw	r7,-4(fp)
 180ef68:	180f1040 	call	180f104 <alt_iic_isr_register>
}  
 180ef6c:	e037883a 	mov	sp,fp
 180ef70:	dfc00117 	ldw	ra,4(sp)
 180ef74:	df000017 	ldw	fp,0(sp)
 180ef78:	dec00204 	addi	sp,sp,8
 180ef7c:	f800283a 	ret

0180ef80 <alt_ic_irq_enable>:
  * @param ic_id            Ignored.
  * @param irq              IRQ number
  * @return                 0 if successful, else error (-1)
  */
int alt_ic_irq_enable (alt_u32 ic_id, alt_u32 irq)
{
 180ef80:	defff904 	addi	sp,sp,-28
 180ef84:	df000615 	stw	fp,24(sp)
 180ef88:	df000604 	addi	fp,sp,24
 180ef8c:	e13ffe15 	stw	r4,-8(fp)
 180ef90:	e17fff15 	stw	r5,-4(fp)
 180ef94:	e0bfff17 	ldw	r2,-4(fp)
 180ef98:	e0bffc15 	stw	r2,-16(fp)
static ALT_INLINE alt_irq_context ALT_ALWAYS_INLINE 
       alt_irq_disable_all (void)
{
  alt_irq_context context;

  NIOS2_READ_STATUS (context);
 180ef9c:	0005303a 	rdctl	r2,status
 180efa0:	e0bffb15 	stw	r2,-20(fp)

  NIOS2_WRITE_STATUS (context & ~NIOS2_STATUS_PIE_MSK);
 180efa4:	e0fffb17 	ldw	r3,-20(fp)
 180efa8:	00bfff84 	movi	r2,-2
 180efac:	1884703a 	and	r2,r3,r2
 180efb0:	1001703a 	wrctl	status,r2
  
  return context;
 180efb4:	e0bffb17 	ldw	r2,-20(fp)
static ALT_INLINE int ALT_ALWAYS_INLINE alt_irq_enable (alt_u32 id)
{
  alt_irq_context  status;
  extern volatile alt_u32 alt_irq_active;

  status = alt_irq_disable_all ();
 180efb8:	e0bffd15 	stw	r2,-12(fp)

  alt_irq_active |= (1 << id);
 180efbc:	e0fffc17 	ldw	r3,-16(fp)
 180efc0:	00800044 	movi	r2,1
 180efc4:	10c4983a 	sll	r2,r2,r3
 180efc8:	1007883a 	mov	r3,r2
 180efcc:	00806074 	movhi	r2,385
 180efd0:	108ae804 	addi	r2,r2,11168
 180efd4:	10800017 	ldw	r2,0(r2)
 180efd8:	1886b03a 	or	r3,r3,r2
 180efdc:	00806074 	movhi	r2,385
 180efe0:	108ae804 	addi	r2,r2,11168
 180efe4:	10c00015 	stw	r3,0(r2)
  NIOS2_WRITE_IENABLE (alt_irq_active);
 180efe8:	00806074 	movhi	r2,385
 180efec:	108ae804 	addi	r2,r2,11168
 180eff0:	10800017 	ldw	r2,0(r2)
 180eff4:	100170fa 	wrctl	ienable,r2
 180eff8:	e0bffd17 	ldw	r2,-12(fp)
 180effc:	e0bffa15 	stw	r2,-24(fp)
  status &= ~NIOS2_STATUS_PIE_MSK;
  status |= (context & NIOS2_STATUS_PIE_MSK);
  
  NIOS2_WRITE_STATUS (status);
#else
  NIOS2_WRITE_STATUS (context);
 180f000:	e0bffa17 	ldw	r2,-24(fp)
 180f004:	1001703a 	wrctl	status,r2

  alt_irq_enable_all(status);

  return 0;
 180f008:	0005883a 	mov	r2,zero
    return alt_irq_enable(irq);
}
 180f00c:	e037883a 	mov	sp,fp
 180f010:	df000017 	ldw	fp,0(sp)
 180f014:	dec00104 	addi	sp,sp,4
 180f018:	f800283a 	ret

0180f01c <alt_ic_irq_disable>:
  * @param ic_id            Ignored.
  * @param irq              IRQ number
  * @return                 0 if successful, else error (-1)
  */
int alt_ic_irq_disable(alt_u32 ic_id, alt_u32 irq)
{
 180f01c:	defff904 	addi	sp,sp,-28
 180f020:	df000615 	stw	fp,24(sp)
 180f024:	df000604 	addi	fp,sp,24
 180f028:	e13ffe15 	stw	r4,-8(fp)
 180f02c:	e17fff15 	stw	r5,-4(fp)
 180f030:	e0bfff17 	ldw	r2,-4(fp)
 180f034:	e0bffc15 	stw	r2,-16(fp)
static ALT_INLINE alt_irq_context ALT_ALWAYS_INLINE 
       alt_irq_disable_all (void)
{
  alt_irq_context context;

  NIOS2_READ_STATUS (context);
 180f038:	0005303a 	rdctl	r2,status
 180f03c:	e0bffb15 	stw	r2,-20(fp)

  NIOS2_WRITE_STATUS (context & ~NIOS2_STATUS_PIE_MSK);
 180f040:	e0fffb17 	ldw	r3,-20(fp)
 180f044:	00bfff84 	movi	r2,-2
 180f048:	1884703a 	and	r2,r3,r2
 180f04c:	1001703a 	wrctl	status,r2
  
  return context;
 180f050:	e0bffb17 	ldw	r2,-20(fp)
static ALT_INLINE int ALT_ALWAYS_INLINE alt_irq_disable (alt_u32 id)
{
  alt_irq_context  status;
  extern volatile alt_u32 alt_irq_active;

  status = alt_irq_disable_all ();
 180f054:	e0bffd15 	stw	r2,-12(fp)

  alt_irq_active &= ~(1 << id);
 180f058:	e0fffc17 	ldw	r3,-16(fp)
 180f05c:	00800044 	movi	r2,1
 180f060:	10c4983a 	sll	r2,r2,r3
 180f064:	0084303a 	nor	r2,zero,r2
 180f068:	1007883a 	mov	r3,r2
 180f06c:	00806074 	movhi	r2,385
 180f070:	108ae804 	addi	r2,r2,11168
 180f074:	10800017 	ldw	r2,0(r2)
 180f078:	1886703a 	and	r3,r3,r2
 180f07c:	00806074 	movhi	r2,385
 180f080:	108ae804 	addi	r2,r2,11168
 180f084:	10c00015 	stw	r3,0(r2)
  NIOS2_WRITE_IENABLE (alt_irq_active);
 180f088:	00806074 	movhi	r2,385
 180f08c:	108ae804 	addi	r2,r2,11168
 180f090:	10800017 	ldw	r2,0(r2)
 180f094:	100170fa 	wrctl	ienable,r2
 180f098:	e0bffd17 	ldw	r2,-12(fp)
 180f09c:	e0bffa15 	stw	r2,-24(fp)
  status &= ~NIOS2_STATUS_PIE_MSK;
  status |= (context & NIOS2_STATUS_PIE_MSK);
  
  NIOS2_WRITE_STATUS (status);
#else
  NIOS2_WRITE_STATUS (context);
 180f0a0:	e0bffa17 	ldw	r2,-24(fp)
 180f0a4:	1001703a 	wrctl	status,r2

  alt_irq_enable_all(status);

  return 0;
 180f0a8:	0005883a 	mov	r2,zero
    return alt_irq_disable(irq);
}
 180f0ac:	e037883a 	mov	sp,fp
 180f0b0:	df000017 	ldw	fp,0(sp)
 180f0b4:	dec00104 	addi	sp,sp,4
 180f0b8:	f800283a 	ret

0180f0bc <alt_ic_irq_enabled>:
  * @param irq              IRQ number
  * @return                 Zero if corresponding interrupt is disabled and
  *                         non-zero otherwise.
  */
alt_u32 alt_ic_irq_enabled(alt_u32 ic_id, alt_u32 irq)
{
 180f0bc:	defffc04 	addi	sp,sp,-16
 180f0c0:	df000315 	stw	fp,12(sp)
 180f0c4:	df000304 	addi	fp,sp,12
 180f0c8:	e13ffe15 	stw	r4,-8(fp)
 180f0cc:	e17fff15 	stw	r5,-4(fp)
    alt_u32 irq_enabled;

    NIOS2_READ_IENABLE(irq_enabled);
 180f0d0:	000530fa 	rdctl	r2,ienable
 180f0d4:	e0bffd15 	stw	r2,-12(fp)

    return (irq_enabled & (1 << irq)) ? 1: 0;
 180f0d8:	e0ffff17 	ldw	r3,-4(fp)
 180f0dc:	00800044 	movi	r2,1
 180f0e0:	10c4983a 	sll	r2,r2,r3
 180f0e4:	1007883a 	mov	r3,r2
 180f0e8:	e0bffd17 	ldw	r2,-12(fp)
 180f0ec:	1884703a 	and	r2,r3,r2
 180f0f0:	1004c03a 	cmpne	r2,r2,zero
}
 180f0f4:	e037883a 	mov	sp,fp
 180f0f8:	df000017 	ldw	fp,0(sp)
 180f0fc:	dec00104 	addi	sp,sp,4
 180f100:	f800283a 	ret

0180f104 <alt_iic_isr_register>:
  * @param flags            
  * @return                 0 if successful, else error (-1)
  */
int alt_iic_isr_register(alt_u32 ic_id, alt_u32 irq, alt_isr_func isr, 
  void *isr_context, void *flags)
{
 180f104:	defff404 	addi	sp,sp,-48
 180f108:	dfc00b15 	stw	ra,44(sp)
 180f10c:	df000a15 	stw	fp,40(sp)
 180f110:	df000a04 	addi	fp,sp,40
 180f114:	e13ffb15 	stw	r4,-20(fp)
 180f118:	e17ffc15 	stw	r5,-16(fp)
 180f11c:	e1bffd15 	stw	r6,-12(fp)
 180f120:	e1fffe15 	stw	r7,-8(fp)
  int rc = -EINVAL;  
 180f124:	00bffa84 	movi	r2,-22
 180f128:	e0bffa15 	stw	r2,-24(fp)
  int id = irq;             /* IRQ interpreted as the interrupt ID. */
 180f12c:	e0bffc17 	ldw	r2,-16(fp)
 180f130:	e0bff915 	stw	r2,-28(fp)
  alt_irq_context status;

  if (id < ALT_NIRQ)
 180f134:	e0bff917 	ldw	r2,-28(fp)
 180f138:	10800808 	cmpgei	r2,r2,32
 180f13c:	1000291e 	bne	r2,zero,180f1e4 <alt_iic_isr_register+0xe0>
static ALT_INLINE alt_irq_context ALT_ALWAYS_INLINE 
       alt_irq_disable_all (void)
{
  alt_irq_context context;

  NIOS2_READ_STATUS (context);
 180f140:	0005303a 	rdctl	r2,status
 180f144:	e0bff715 	stw	r2,-36(fp)

  NIOS2_WRITE_STATUS (context & ~NIOS2_STATUS_PIE_MSK);
 180f148:	e0fff717 	ldw	r3,-36(fp)
 180f14c:	00bfff84 	movi	r2,-2
 180f150:	1884703a 	and	r2,r3,r2
 180f154:	1001703a 	wrctl	status,r2
  
  return context;
 180f158:	e0bff717 	ldw	r2,-36(fp)
     * interrupts are disabled while the handler tables are updated to ensure
     * that an interrupt doesn't occur while the tables are in an inconsistant
     * state.
     */

    status = alt_irq_disable_all();
 180f15c:	e0bff815 	stw	r2,-32(fp)

    alt_irq[id].handler = isr;
 180f160:	e0bff917 	ldw	r2,-28(fp)
 180f164:	00c06074 	movhi	r3,385
 180f168:	18caf604 	addi	r3,r3,11224
 180f16c:	100490fa 	slli	r2,r2,3
 180f170:	10c7883a 	add	r3,r2,r3
 180f174:	e0bffd17 	ldw	r2,-12(fp)
 180f178:	18800015 	stw	r2,0(r3)
    alt_irq[id].context = isr_context;
 180f17c:	e0bff917 	ldw	r2,-28(fp)
 180f180:	00c06074 	movhi	r3,385
 180f184:	18caf604 	addi	r3,r3,11224
 180f188:	100490fa 	slli	r2,r2,3
 180f18c:	10c5883a 	add	r2,r2,r3
 180f190:	10c00104 	addi	r3,r2,4
 180f194:	e0bffe17 	ldw	r2,-8(fp)
 180f198:	18800015 	stw	r2,0(r3)

    rc = (isr) ? alt_ic_irq_enable(ic_id, id) : alt_ic_irq_disable(ic_id, id);
 180f19c:	e0bffd17 	ldw	r2,-12(fp)
 180f1a0:	1005003a 	cmpeq	r2,r2,zero
 180f1a4:	1000051e 	bne	r2,zero,180f1bc <alt_iic_isr_register+0xb8>
 180f1a8:	e17ff917 	ldw	r5,-28(fp)
 180f1ac:	e13ffb17 	ldw	r4,-20(fp)
 180f1b0:	180ef800 	call	180ef80 <alt_ic_irq_enable>
 180f1b4:	e0bfff15 	stw	r2,-4(fp)
 180f1b8:	00000406 	br	180f1cc <alt_iic_isr_register+0xc8>
 180f1bc:	e17ff917 	ldw	r5,-28(fp)
 180f1c0:	e13ffb17 	ldw	r4,-20(fp)
 180f1c4:	180f01c0 	call	180f01c <alt_ic_irq_disable>
 180f1c8:	e0bfff15 	stw	r2,-4(fp)
 180f1cc:	e0bfff17 	ldw	r2,-4(fp)
 180f1d0:	e0bffa15 	stw	r2,-24(fp)
 180f1d4:	e0bff817 	ldw	r2,-32(fp)
 180f1d8:	e0bff615 	stw	r2,-40(fp)
  status &= ~NIOS2_STATUS_PIE_MSK;
  status |= (context & NIOS2_STATUS_PIE_MSK);
  
  NIOS2_WRITE_STATUS (status);
#else
  NIOS2_WRITE_STATUS (context);
 180f1dc:	e0bff617 	ldw	r2,-40(fp)
 180f1e0:	1001703a 	wrctl	status,r2

    alt_irq_enable_all(status);
  }

  return rc; 
 180f1e4:	e0bffa17 	ldw	r2,-24(fp)
}
 180f1e8:	e037883a 	mov	sp,fp
 180f1ec:	dfc00117 	ldw	ra,4(sp)
 180f1f0:	df000017 	ldw	fp,0(sp)
 180f1f4:	dec00204 	addi	sp,sp,8
 180f1f8:	f800283a 	ret

0180f1fc <alt_open_fd>:
 * If the device can not be succesfully opened, then the input file descriptor
 * remains unchanged.
 */

static void alt_open_fd(alt_fd* fd, const char* name, int flags, int mode)
{
 180f1fc:	defff904 	addi	sp,sp,-28
 180f200:	dfc00615 	stw	ra,24(sp)
 180f204:	df000515 	stw	fp,20(sp)
 180f208:	df000504 	addi	fp,sp,20
 180f20c:	e13ffc15 	stw	r4,-16(fp)
 180f210:	e17ffd15 	stw	r5,-12(fp)
 180f214:	e1bffe15 	stw	r6,-8(fp)
 180f218:	e1ffff15 	stw	r7,-4(fp)
  int old;

  old = open (name, flags, mode);
 180f21c:	e13ffd17 	ldw	r4,-12(fp)
 180f220:	e17ffe17 	ldw	r5,-8(fp)
 180f224:	e1bfff17 	ldw	r6,-4(fp)
 180f228:	180f4140 	call	180f414 <open>
 180f22c:	e0bffb15 	stw	r2,-20(fp)

  if (old >= 0)
 180f230:	e0bffb17 	ldw	r2,-20(fp)
 180f234:	1004803a 	cmplt	r2,r2,zero
 180f238:	10001c1e 	bne	r2,zero,180f2ac <alt_open_fd+0xb0>
  {
    fd->dev      = alt_fd_list[old].dev;
 180f23c:	e0bffb17 	ldw	r2,-20(fp)
 180f240:	00c06074 	movhi	r3,385
 180f244:	18c5a304 	addi	r3,r3,5772
 180f248:	10800324 	muli	r2,r2,12
 180f24c:	10c5883a 	add	r2,r2,r3
 180f250:	10c00017 	ldw	r3,0(r2)
 180f254:	e0bffc17 	ldw	r2,-16(fp)
 180f258:	10c00015 	stw	r3,0(r2)
    fd->priv     = alt_fd_list[old].priv;
 180f25c:	e0bffb17 	ldw	r2,-20(fp)
 180f260:	00c06074 	movhi	r3,385
 180f264:	18c5a304 	addi	r3,r3,5772
 180f268:	10800324 	muli	r2,r2,12
 180f26c:	10c5883a 	add	r2,r2,r3
 180f270:	10800104 	addi	r2,r2,4
 180f274:	10c00017 	ldw	r3,0(r2)
 180f278:	e0bffc17 	ldw	r2,-16(fp)
 180f27c:	10c00115 	stw	r3,4(r2)
    fd->fd_flags = alt_fd_list[old].fd_flags;
 180f280:	e0bffb17 	ldw	r2,-20(fp)
 180f284:	00c06074 	movhi	r3,385
 180f288:	18c5a304 	addi	r3,r3,5772
 180f28c:	10800324 	muli	r2,r2,12
 180f290:	10c5883a 	add	r2,r2,r3
 180f294:	10800204 	addi	r2,r2,8
 180f298:	10c00017 	ldw	r3,0(r2)
 180f29c:	e0bffc17 	ldw	r2,-16(fp)
 180f2a0:	10c00215 	stw	r3,8(r2)

    alt_release_fd (old);
 180f2a4:	e13ffb17 	ldw	r4,-20(fp)
 180f2a8:	180a4040 	call	180a404 <alt_release_fd>
  }
} 
 180f2ac:	e037883a 	mov	sp,fp
 180f2b0:	dfc00117 	ldw	ra,4(sp)
 180f2b4:	df000017 	ldw	fp,0(sp)
 180f2b8:	dec00204 	addi	sp,sp,8
 180f2bc:	f800283a 	ret

0180f2c0 <alt_io_redirect>:
 */
 
void alt_io_redirect(const char* stdout_dev, 
                     const char* stdin_dev, 
                     const char* stderr_dev)
{
 180f2c0:	defffb04 	addi	sp,sp,-20
 180f2c4:	dfc00415 	stw	ra,16(sp)
 180f2c8:	df000315 	stw	fp,12(sp)
 180f2cc:	df000304 	addi	fp,sp,12
 180f2d0:	e13ffd15 	stw	r4,-12(fp)
 180f2d4:	e17ffe15 	stw	r5,-8(fp)
 180f2d8:	e1bfff15 	stw	r6,-4(fp)
  /* Redirect the channels */

  alt_open_fd (&alt_fd_list[STDOUT_FILENO], stdout_dev, O_WRONLY, 0777);
 180f2dc:	01006074 	movhi	r4,385
 180f2e0:	2105a604 	addi	r4,r4,5784
 180f2e4:	e17ffd17 	ldw	r5,-12(fp)
 180f2e8:	01800044 	movi	r6,1
 180f2ec:	01c07fc4 	movi	r7,511
 180f2f0:	180f1fc0 	call	180f1fc <alt_open_fd>
  alt_open_fd (&alt_fd_list[STDIN_FILENO], stdin_dev, O_RDONLY, 0777);
 180f2f4:	01006074 	movhi	r4,385
 180f2f8:	2105a304 	addi	r4,r4,5772
 180f2fc:	e17ffe17 	ldw	r5,-8(fp)
 180f300:	000d883a 	mov	r6,zero
 180f304:	01c07fc4 	movi	r7,511
 180f308:	180f1fc0 	call	180f1fc <alt_open_fd>
  alt_open_fd (&alt_fd_list[STDERR_FILENO], stderr_dev, O_WRONLY, 0777);
 180f30c:	01006074 	movhi	r4,385
 180f310:	2105a904 	addi	r4,r4,5796
 180f314:	e17fff17 	ldw	r5,-4(fp)
 180f318:	01800044 	movi	r6,1
 180f31c:	01c07fc4 	movi	r7,511
 180f320:	180f1fc0 	call	180f1fc <alt_open_fd>
}  
 180f324:	e037883a 	mov	sp,fp
 180f328:	dfc00117 	ldw	ra,4(sp)
 180f32c:	df000017 	ldw	fp,0(sp)
 180f330:	dec00204 	addi	sp,sp,8
 180f334:	f800283a 	ret

0180f338 <alt_file_locked>:
 * performed for devices. Filesystems are required to handle the ioctl() call
 * themselves, and report the error from the filesystems open() function. 
 */ 

static int alt_file_locked (alt_fd* fd)
{
 180f338:	defffc04 	addi	sp,sp,-16
 180f33c:	df000315 	stw	fp,12(sp)
 180f340:	df000304 	addi	fp,sp,12
 180f344:	e13ffe15 	stw	r4,-8(fp)

  /*
   * Mark the file descriptor as belonging to a device.
   */

  fd->fd_flags |= ALT_FD_DEV;
 180f348:	e0bffe17 	ldw	r2,-8(fp)
 180f34c:	10800217 	ldw	r2,8(r2)
 180f350:	10d00034 	orhi	r3,r2,16384
 180f354:	e0bffe17 	ldw	r2,-8(fp)
 180f358:	10c00215 	stw	r3,8(r2)
  /*
   * Loop through all current file descriptors searching for one that's locked
   * for exclusive access. If a match is found, generate an error.
   */

  for (i = 0; i <= alt_max_fd; i++)
 180f35c:	e03ffd15 	stw	zero,-12(fp)
 180f360:	00002006 	br	180f3e4 <alt_file_locked+0xac>
  {
    if ((alt_fd_list[i].dev == fd->dev) &&
 180f364:	e0bffd17 	ldw	r2,-12(fp)
 180f368:	00c06074 	movhi	r3,385
 180f36c:	18c5a304 	addi	r3,r3,5772
 180f370:	10800324 	muli	r2,r2,12
 180f374:	10c5883a 	add	r2,r2,r3
 180f378:	10c00017 	ldw	r3,0(r2)
 180f37c:	e0bffe17 	ldw	r2,-8(fp)
 180f380:	10800017 	ldw	r2,0(r2)
 180f384:	1880141e 	bne	r3,r2,180f3d8 <alt_file_locked+0xa0>
 180f388:	e0bffd17 	ldw	r2,-12(fp)
 180f38c:	00c06074 	movhi	r3,385
 180f390:	18c5a304 	addi	r3,r3,5772
 180f394:	10800324 	muli	r2,r2,12
 180f398:	10c5883a 	add	r2,r2,r3
 180f39c:	10800204 	addi	r2,r2,8
 180f3a0:	10800017 	ldw	r2,0(r2)
 180f3a4:	1004403a 	cmpge	r2,r2,zero
 180f3a8:	10000b1e 	bne	r2,zero,180f3d8 <alt_file_locked+0xa0>
 180f3ac:	e0bffd17 	ldw	r2,-12(fp)
 180f3b0:	10800324 	muli	r2,r2,12
 180f3b4:	1007883a 	mov	r3,r2
 180f3b8:	00806074 	movhi	r2,385
 180f3bc:	1085a304 	addi	r2,r2,5772
 180f3c0:	1887883a 	add	r3,r3,r2
 180f3c4:	e0bffe17 	ldw	r2,-8(fp)
 180f3c8:	18800326 	beq	r3,r2,180f3d8 <alt_file_locked+0xa0>
        (alt_fd_list[i].fd_flags & ALT_FD_EXCL) &&
        (&alt_fd_list[i] != fd))
    {
      return -EACCES;
 180f3cc:	00bffcc4 	movi	r2,-13
 180f3d0:	e0bfff15 	stw	r2,-4(fp)
 180f3d4:	00000a06 	br	180f400 <alt_file_locked+0xc8>
  /*
   * Loop through all current file descriptors searching for one that's locked
   * for exclusive access. If a match is found, generate an error.
   */

  for (i = 0; i <= alt_max_fd; i++)
 180f3d8:	e0bffd17 	ldw	r2,-12(fp)
 180f3dc:	10800044 	addi	r2,r2,1
 180f3e0:	e0bffd15 	stw	r2,-12(fp)
 180f3e4:	00806074 	movhi	r2,385
 180f3e8:	108ad404 	addi	r2,r2,11088
 180f3ec:	10800017 	ldw	r2,0(r2)
 180f3f0:	1007883a 	mov	r3,r2
 180f3f4:	e0bffd17 	ldw	r2,-12(fp)
 180f3f8:	18bfda2e 	bgeu	r3,r2,180f364 <alt_file_locked+0x2c>
    }
  }
  
  /* The device is not locked */
 
  return 0;
 180f3fc:	e03fff15 	stw	zero,-4(fp)
 180f400:	e0bfff17 	ldw	r2,-4(fp)
}
 180f404:	e037883a 	mov	sp,fp
 180f408:	df000017 	ldw	fp,0(sp)
 180f40c:	dec00104 	addi	sp,sp,4
 180f410:	f800283a 	ret

0180f414 <open>:
 *
 * ALT_OPEN is mapped onto the open() system call in alt_syscall.h
 */
 
int ALT_OPEN (const char* file, int flags, int mode)
{ 
 180f414:	defff404 	addi	sp,sp,-48
 180f418:	dfc00b15 	stw	ra,44(sp)
 180f41c:	df000a15 	stw	fp,40(sp)
 180f420:	df000a04 	addi	fp,sp,40
 180f424:	e13ffb15 	stw	r4,-20(fp)
 180f428:	e17ffc15 	stw	r5,-16(fp)
 180f42c:	e1bffd15 	stw	r6,-12(fp)
  alt_dev* dev;
  alt_fd*  fd;
  int index  = -1;
 180f430:	00bfffc4 	movi	r2,-1
 180f434:	e0bff815 	stw	r2,-32(fp)
  int status = -ENODEV;
 180f438:	00bffb44 	movi	r2,-19
 180f43c:	e0bff715 	stw	r2,-36(fp)
  int isafs = 0;
 180f440:	e03ff615 	stw	zero,-40(fp)
  /* 
   * Check the device list, to see if a device with a matching name is 
   * registered.
   */
  
  if (!(dev = alt_find_dev (file, &alt_dev_list)))
 180f444:	e13ffb17 	ldw	r4,-20(fp)
 180f448:	01406074 	movhi	r5,385
 180f44c:	294ad204 	addi	r5,r5,11080
 180f450:	18100800 	call	1810080 <alt_find_dev>
 180f454:	e0bffa15 	stw	r2,-24(fp)
 180f458:	e0bffa17 	ldw	r2,-24(fp)
 180f45c:	1004c03a 	cmpne	r2,r2,zero
 180f460:	1000051e 	bne	r2,zero,180f478 <open+0x64>
  {
    /* No matching device, so try the filesystem list */

    dev   = alt_find_file (file);
 180f464:	e13ffb17 	ldw	r4,-20(fp)
 180f468:	18101140 	call	1810114 <alt_find_file>
 180f46c:	e0bffa15 	stw	r2,-24(fp)
    isafs = 1;
 180f470:	00800044 	movi	r2,1
 180f474:	e0bff615 	stw	r2,-40(fp)

  /* 
   * If a matching device or filesystem is found, allocate a file descriptor. 
   */

  if (dev)
 180f478:	e0bffa17 	ldw	r2,-24(fp)
 180f47c:	1005003a 	cmpeq	r2,r2,zero
 180f480:	1000301e 	bne	r2,zero,180f544 <open+0x130>
  {
    if ((index = alt_get_fd (dev)) < 0)
 180f484:	e13ffa17 	ldw	r4,-24(fp)
 180f488:	18102340 	call	1810234 <alt_get_fd>
 180f48c:	e0bff815 	stw	r2,-32(fp)
 180f490:	e0bff817 	ldw	r2,-32(fp)
 180f494:	1004403a 	cmpge	r2,r2,zero
 180f498:	1000031e 	bne	r2,zero,180f4a8 <open+0x94>
    {
      status = index;
 180f49c:	e0bff817 	ldw	r2,-32(fp)
 180f4a0:	e0bff715 	stw	r2,-36(fp)
 180f4a4:	00002906 	br	180f54c <open+0x138>
    }
    else
    {
      fd = &alt_fd_list[index];
 180f4a8:	e0bff817 	ldw	r2,-32(fp)
 180f4ac:	10800324 	muli	r2,r2,12
 180f4b0:	1007883a 	mov	r3,r2
 180f4b4:	00806074 	movhi	r2,385
 180f4b8:	1085a304 	addi	r2,r2,5772
 180f4bc:	1885883a 	add	r2,r3,r2
 180f4c0:	e0bff915 	stw	r2,-28(fp)
      fd->fd_flags = (flags & ~ALT_FD_FLAGS_MASK);
 180f4c4:	e0fffc17 	ldw	r3,-16(fp)
 180f4c8:	00900034 	movhi	r2,16384
 180f4cc:	10bfffc4 	addi	r2,r2,-1
 180f4d0:	1886703a 	and	r3,r3,r2
 180f4d4:	e0bff917 	ldw	r2,-28(fp)
 180f4d8:	10c00215 	stw	r3,8(r2)
      
      /* If this is a device, ensure it isn't already locked */

      if (isafs || ((status = alt_file_locked (fd)) >= 0))
 180f4dc:	e0bff617 	ldw	r2,-40(fp)
 180f4e0:	1004c03a 	cmpne	r2,r2,zero
 180f4e4:	1000061e 	bne	r2,zero,180f500 <open+0xec>
 180f4e8:	e13ff917 	ldw	r4,-28(fp)
 180f4ec:	180f3380 	call	180f338 <alt_file_locked>
 180f4f0:	e0bff715 	stw	r2,-36(fp)
 180f4f4:	e0bff717 	ldw	r2,-36(fp)
 180f4f8:	1004803a 	cmplt	r2,r2,zero
 180f4fc:	1000131e 	bne	r2,zero,180f54c <open+0x138>
        /* 
         * If the device or filesystem provides an open() callback function,
         * call it now to perform any device/filesystem specific operations.
         */
    
        status = (dev->open) ? dev->open(fd, file, flags, mode): 0;
 180f500:	e0bffa17 	ldw	r2,-24(fp)
 180f504:	10800317 	ldw	r2,12(r2)
 180f508:	1005003a 	cmpeq	r2,r2,zero
 180f50c:	1000091e 	bne	r2,zero,180f534 <open+0x120>
 180f510:	e0bffa17 	ldw	r2,-24(fp)
 180f514:	10800317 	ldw	r2,12(r2)
 180f518:	e13ff917 	ldw	r4,-28(fp)
 180f51c:	e17ffb17 	ldw	r5,-20(fp)
 180f520:	e1bffc17 	ldw	r6,-16(fp)
 180f524:	e1fffd17 	ldw	r7,-12(fp)
 180f528:	103ee83a 	callr	r2
 180f52c:	e0bfff15 	stw	r2,-4(fp)
 180f530:	00000106 	br	180f538 <open+0x124>
 180f534:	e03fff15 	stw	zero,-4(fp)
 180f538:	e0bfff17 	ldw	r2,-4(fp)
 180f53c:	e0bff715 	stw	r2,-36(fp)
 180f540:	00000206 	br	180f54c <open+0x138>
      }
    }
  }
  else
  {
    status = -ENODEV;
 180f544:	00bffb44 	movi	r2,-19
 180f548:	e0bff715 	stw	r2,-36(fp)
  }

  /* Allocation failed, so clean up and return an error */ 

  if (status < 0)
 180f54c:	e0bff717 	ldw	r2,-36(fp)
 180f550:	1004403a 	cmpge	r2,r2,zero
 180f554:	1000091e 	bne	r2,zero,180f57c <open+0x168>
  {
    alt_release_fd (index);  
 180f558:	e13ff817 	ldw	r4,-32(fp)
 180f55c:	180a4040 	call	180a404 <alt_release_fd>
    ALT_ERRNO = -status;
 180f560:	180f59c0 	call	180f59c <alt_get_errno>
 180f564:	e0fff717 	ldw	r3,-36(fp)
 180f568:	00c7c83a 	sub	r3,zero,r3
 180f56c:	10c00015 	stw	r3,0(r2)
    return -1;
 180f570:	00bfffc4 	movi	r2,-1
 180f574:	e0bffe15 	stw	r2,-8(fp)
 180f578:	00000206 	br	180f584 <open+0x170>
  }
  
  /* return the reference upon success */

  return index;
 180f57c:	e0bff817 	ldw	r2,-32(fp)
 180f580:	e0bffe15 	stw	r2,-8(fp)
 180f584:	e0bffe17 	ldw	r2,-8(fp)
}
 180f588:	e037883a 	mov	sp,fp
 180f58c:	dfc00117 	ldw	ra,4(sp)
 180f590:	df000017 	ldw	fp,0(sp)
 180f594:	dec00204 	addi	sp,sp,8
 180f598:	f800283a 	ret

0180f59c <alt_get_errno>:
#undef errno

extern int errno;

static ALT_INLINE int* alt_get_errno(void)
{
 180f59c:	defffd04 	addi	sp,sp,-12
 180f5a0:	dfc00215 	stw	ra,8(sp)
 180f5a4:	df000115 	stw	fp,4(sp)
 180f5a8:	df000104 	addi	fp,sp,4
  return ((alt_errno) ? alt_errno() : &errno);
 180f5ac:	00806074 	movhi	r2,385
 180f5b0:	108ad504 	addi	r2,r2,11092
 180f5b4:	10800017 	ldw	r2,0(r2)
 180f5b8:	1005003a 	cmpeq	r2,r2,zero
 180f5bc:	1000061e 	bne	r2,zero,180f5d8 <alt_get_errno+0x3c>
 180f5c0:	00806074 	movhi	r2,385
 180f5c4:	108ad504 	addi	r2,r2,11092
 180f5c8:	10800017 	ldw	r2,0(r2)
 180f5cc:	103ee83a 	callr	r2
 180f5d0:	e0bfff15 	stw	r2,-4(fp)
 180f5d4:	00000306 	br	180f5e4 <alt_get_errno+0x48>
 180f5d8:	00806074 	movhi	r2,385
 180f5dc:	108ae404 	addi	r2,r2,11152
 180f5e0:	e0bfff15 	stw	r2,-4(fp)
 180f5e4:	e0bfff17 	ldw	r2,-4(fp)
}
 180f5e8:	e037883a 	mov	sp,fp
 180f5ec:	dfc00117 	ldw	ra,4(sp)
 180f5f0:	df000017 	ldw	fp,0(sp)
 180f5f4:	dec00204 	addi	sp,sp,8
 180f5f8:	f800283a 	ret

0180f5fc <alt_alarm_stop>:
 * alarms. Alternatively an alarm can unregister itself by returning zero when 
 * the alarm executes.
 */

void alt_alarm_stop (alt_alarm* alarm)
{
 180f5fc:	defffa04 	addi	sp,sp,-24
 180f600:	df000515 	stw	fp,20(sp)
 180f604:	df000504 	addi	fp,sp,20
 180f608:	e13fff15 	stw	r4,-4(fp)
static ALT_INLINE alt_irq_context ALT_ALWAYS_INLINE 
       alt_irq_disable_all (void)
{
  alt_irq_context context;

  NIOS2_READ_STATUS (context);
 180f60c:	0005303a 	rdctl	r2,status
 180f610:	e0bffd15 	stw	r2,-12(fp)

  NIOS2_WRITE_STATUS (context & ~NIOS2_STATUS_PIE_MSK);
 180f614:	e0fffd17 	ldw	r3,-12(fp)
 180f618:	00bfff84 	movi	r2,-2
 180f61c:	1884703a 	and	r2,r3,r2
 180f620:	1001703a 	wrctl	status,r2
  
  return context;
 180f624:	e0bffd17 	ldw	r2,-12(fp)
  alt_irq_context irq_context;

  irq_context = alt_irq_disable_all();
 180f628:	e0bffe15 	stw	r2,-8(fp)
  alt_llist_remove (&alarm->llist);
 180f62c:	e0bfff17 	ldw	r2,-4(fp)
 180f630:	e0bffc15 	stw	r2,-16(fp)
 * input argument is the element to remove.
 */
     
static ALT_INLINE void ALT_ALWAYS_INLINE alt_llist_remove(alt_llist* entry)
{
  entry->next->previous = entry->previous;
 180f634:	e0bffc17 	ldw	r2,-16(fp)
 180f638:	10c00017 	ldw	r3,0(r2)
 180f63c:	e0bffc17 	ldw	r2,-16(fp)
 180f640:	10800117 	ldw	r2,4(r2)
 180f644:	18800115 	stw	r2,4(r3)
  entry->previous->next = entry->next;
 180f648:	e0bffc17 	ldw	r2,-16(fp)
 180f64c:	10c00117 	ldw	r3,4(r2)
 180f650:	e0bffc17 	ldw	r2,-16(fp)
 180f654:	10800017 	ldw	r2,0(r2)
 180f658:	18800015 	stw	r2,0(r3)
  /* 
   * Set the entry to point to itself, so that any further calls to
   * alt_llist_remove() are harmless.
   */

  entry->previous = entry;
 180f65c:	e0fffc17 	ldw	r3,-16(fp)
 180f660:	e0bffc17 	ldw	r2,-16(fp)
 180f664:	18800115 	stw	r2,4(r3)
  entry->next     = entry;
 180f668:	e0fffc17 	ldw	r3,-16(fp)
 180f66c:	e0bffc17 	ldw	r2,-16(fp)
 180f670:	18800015 	stw	r2,0(r3)
 180f674:	e0bffe17 	ldw	r2,-8(fp)
 180f678:	e0bffb15 	stw	r2,-20(fp)
  status &= ~NIOS2_STATUS_PIE_MSK;
  status |= (context & NIOS2_STATUS_PIE_MSK);
  
  NIOS2_WRITE_STATUS (status);
#else
  NIOS2_WRITE_STATUS (context);
 180f67c:	e0bffb17 	ldw	r2,-20(fp)
 180f680:	1001703a 	wrctl	status,r2
  alt_irq_enable_all (irq_context);
}
 180f684:	e037883a 	mov	sp,fp
 180f688:	df000017 	ldw	fp,0(sp)
 180f68c:	dec00104 	addi	sp,sp,4
 180f690:	f800283a 	ret

0180f694 <alt_tick>:
 * 
 * alt_tick() is expected to run at interrupt level.
 */

void alt_tick (void)
{
 180f694:	defffb04 	addi	sp,sp,-20
 180f698:	dfc00415 	stw	ra,16(sp)
 180f69c:	df000315 	stw	fp,12(sp)
 180f6a0:	df000304 	addi	fp,sp,12
  alt_alarm* next;
  alt_alarm* alarm = (alt_alarm*) alt_alarm_list.next;
 180f6a4:	d0a01117 	ldw	r2,-32700(gp)
 180f6a8:	e0bffe15 	stw	r2,-8(fp)

  alt_u32    next_callback;

  /* update the tick counter */

  _alt_nticks++;
 180f6ac:	d0a02017 	ldw	r2,-32640(gp)
 180f6b0:	10800044 	addi	r2,r2,1
 180f6b4:	d0a02015 	stw	r2,-32640(gp)

  /* process the registered callbacks */

  while (alarm != (alt_alarm*) &alt_alarm_list)
 180f6b8:	00003106 	br	180f780 <alt_tick+0xec>
  {
    next = (alt_alarm*) alarm->llist.next;
 180f6bc:	e0bffe17 	ldw	r2,-8(fp)
 180f6c0:	10800017 	ldw	r2,0(r2)
 180f6c4:	e0bfff15 	stw	r2,-4(fp)
    /* 
     * Upon the tick-counter rolling over it is safe to clear the 
     * roll-over flag; once the flag is cleared this (or subsequnt)
     * tick events are enabled to generate an alarm event. 
     */
    if ((alarm->rollover) && (_alt_nticks == 0))
 180f6c8:	e0bffe17 	ldw	r2,-8(fp)
 180f6cc:	10800403 	ldbu	r2,16(r2)
 180f6d0:	10803fcc 	andi	r2,r2,255
 180f6d4:	1005003a 	cmpeq	r2,r2,zero
 180f6d8:	1000051e 	bne	r2,zero,180f6f0 <alt_tick+0x5c>
 180f6dc:	d0a02017 	ldw	r2,-32640(gp)
 180f6e0:	1004c03a 	cmpne	r2,r2,zero
 180f6e4:	1000021e 	bne	r2,zero,180f6f0 <alt_tick+0x5c>
    {
      alarm->rollover = 0;
 180f6e8:	e0bffe17 	ldw	r2,-8(fp)
 180f6ec:	10000405 	stb	zero,16(r2)
    }
    
    /* if the alarm period has expired, make the callback */    
    if ((alarm->time <= _alt_nticks) && (alarm->rollover == 0))
 180f6f0:	e0bffe17 	ldw	r2,-8(fp)
 180f6f4:	10c00217 	ldw	r3,8(r2)
 180f6f8:	d0a02017 	ldw	r2,-32640(gp)
 180f6fc:	10c01e36 	bltu	r2,r3,180f778 <alt_tick+0xe4>
 180f700:	e0bffe17 	ldw	r2,-8(fp)
 180f704:	10800403 	ldbu	r2,16(r2)
 180f708:	10803fcc 	andi	r2,r2,255
 180f70c:	1004c03a 	cmpne	r2,r2,zero
 180f710:	1000191e 	bne	r2,zero,180f778 <alt_tick+0xe4>
    {
      next_callback = alarm->callback (alarm->context);
 180f714:	e0bffe17 	ldw	r2,-8(fp)
 180f718:	10c00317 	ldw	r3,12(r2)
 180f71c:	e0bffe17 	ldw	r2,-8(fp)
 180f720:	11000517 	ldw	r4,20(r2)
 180f724:	183ee83a 	callr	r3
 180f728:	e0bffd15 	stw	r2,-12(fp)

      /* deactivate the alarm if the return value is zero */

      if (next_callback == 0)
 180f72c:	e0bffd17 	ldw	r2,-12(fp)
 180f730:	1004c03a 	cmpne	r2,r2,zero
 180f734:	1000031e 	bne	r2,zero,180f744 <alt_tick+0xb0>
      {
        alt_alarm_stop (alarm);
 180f738:	e13ffe17 	ldw	r4,-8(fp)
 180f73c:	180f5fc0 	call	180f5fc <alt_alarm_stop>
 180f740:	00000d06 	br	180f778 <alt_tick+0xe4>
      }
      else
      {
        alarm->time += next_callback;
 180f744:	e0bffe17 	ldw	r2,-8(fp)
 180f748:	10c00217 	ldw	r3,8(r2)
 180f74c:	e0bffd17 	ldw	r2,-12(fp)
 180f750:	1887883a 	add	r3,r3,r2
 180f754:	e0bffe17 	ldw	r2,-8(fp)
 180f758:	10c00215 	stw	r3,8(r2)
        /* 
         * If the desired alarm time causes a roll-over, set the rollover
         * flag. This will prevent the subsequent tick event from causing
         * an alarm too early.
         */
        if(alarm->time < _alt_nticks)
 180f75c:	e0bffe17 	ldw	r2,-8(fp)
 180f760:	10c00217 	ldw	r3,8(r2)
 180f764:	d0a02017 	ldw	r2,-32640(gp)
 180f768:	1880032e 	bgeu	r3,r2,180f778 <alt_tick+0xe4>
        {
          alarm->rollover = 1;
 180f76c:	e0fffe17 	ldw	r3,-8(fp)
 180f770:	00800044 	movi	r2,1
 180f774:	18800405 	stb	r2,16(r3)
        }
      }
    }
    alarm = next;
 180f778:	e0bfff17 	ldw	r2,-4(fp)
 180f77c:	e0bffe15 	stw	r2,-8(fp)

  _alt_nticks++;

  /* process the registered callbacks */

  while (alarm != (alt_alarm*) &alt_alarm_list)
 180f780:	d0e01104 	addi	r3,gp,-32700
 180f784:	e0bffe17 	ldw	r2,-8(fp)
 180f788:	10ffcc1e 	bne	r2,r3,180f6bc <alt_tick+0x28>
  /* 
   * Update the operating system specific timer facilities.
   */

  ALT_OS_TIME_TICK();
}
 180f78c:	e037883a 	mov	sp,fp
 180f790:	dfc00117 	ldw	ra,4(sp)
 180f794:	df000017 	ldw	fp,0(sp)
 180f798:	dec00204 	addi	sp,sp,8
 180f79c:	f800283a 	ret

0180f7a0 <altera_nios2_irq_init>:
/*
 * To initialize the internal interrupt controller, just clear the IENABLE
 * register so that all possible IRQs are disabled.
 */
void altera_nios2_irq_init(void) 
{
 180f7a0:	deffff04 	addi	sp,sp,-4
 180f7a4:	df000015 	stw	fp,0(sp)
 180f7a8:	d839883a 	mov	fp,sp
    NIOS2_WRITE_IENABLE(0);
 180f7ac:	000170fa 	wrctl	ienable,zero
}
 180f7b0:	e037883a 	mov	sp,fp
 180f7b4:	df000017 	ldw	fp,0(sp)
 180f7b8:	dec00104 	addi	sp,sp,4
 180f7bc:	f800283a 	ret

0180f7c0 <alt_program_amd>:
 * then writes Addr, Data Addr, Data etc.
 */
int alt_program_amd(alt_flash_dev* flash_info, int block_offset, 
                int offset, const void* src_addr, 
                int length)
{
 180f7c0:	defff704 	addi	sp,sp,-36
 180f7c4:	dfc00815 	stw	ra,32(sp)
 180f7c8:	df000715 	stw	fp,28(sp)
 180f7cc:	df000704 	addi	fp,sp,28
 180f7d0:	e13ffc15 	stw	r4,-16(fp)
 180f7d4:	e17ffd15 	stw	r5,-12(fp)
 180f7d8:	e1bffe15 	stw	r6,-8(fp)
 180f7dc:	e1ffff15 	stw	r7,-4(fp)
  int ret_code = 0;
 180f7e0:	e03ffb15 	stw	zero,-20(fp)
  alt_flash_cfi_dev* flash = (alt_flash_cfi_dev*)flash_info;
 180f7e4:	e0bffc17 	ldw	r2,-16(fp)
 180f7e8:	e0bffa15 	stw	r2,-24(fp)
  
  
  ret_code = alt_flash_program_block( flash, offset, src_addr, length, 
 180f7ec:	e1bfff17 	ldw	r6,-4(fp)
 180f7f0:	00806074 	movhi	r2,385
 180f7f4:	10bed904 	addi	r2,r2,-1180
 180f7f8:	d8800015 	stw	r2,0(sp)
 180f7fc:	e13ffa17 	ldw	r4,-24(fp)
 180f800:	e17ffe17 	ldw	r5,-8(fp)
 180f804:	e1c00217 	ldw	r7,8(fp)
 180f808:	180adc80 	call	180adc8 <alt_flash_program_block>
 180f80c:	e0bffb15 	stw	r2,-20(fp)
                                    alt_write_word_amd);
  return ret_code;
 180f810:	e0bffb17 	ldw	r2,-20(fp)
}
 180f814:	e037883a 	mov	sp,fp
 180f818:	dfc00117 	ldw	ra,4(sp)
 180f81c:	df000017 	ldw	fp,0(sp)
 180f820:	dec00204 	addi	sp,sp,8
 180f824:	f800283a 	ret

0180f828 <alt_erase_block_amd>:
 * alt_erase_block_amd
 * 
 * Erase the selected erase block
 */
int alt_erase_block_amd(alt_flash_dev* flash_info, int block_offset)
{
 180f828:	defff804 	addi	sp,sp,-32
 180f82c:	dfc00715 	stw	ra,28(sp)
 180f830:	df000615 	stw	fp,24(sp)
 180f834:	df000604 	addi	fp,sp,24
 180f838:	e13ffe15 	stw	r4,-8(fp)
 180f83c:	e17fff15 	stw	r5,-4(fp)
  int   ret_code = 0;
 180f840:	e03ffc15 	stw	zero,-16(fp)
  int   timeout;
  alt_flash_cfi_dev* flash = (alt_flash_cfi_dev*)flash_info;
 180f844:	e0bffe17 	ldw	r2,-8(fp)
 180f848:	e0bffa15 	stw	r2,-24(fp)
  volatile alt_u8  value;

  (*flash->write_command)(flash->dev.base_addr, 0x555, (alt_u8)0xAA);
 180f84c:	e0bffa17 	ldw	r2,-24(fp)
 180f850:	10c03317 	ldw	r3,204(r2)
 180f854:	e0bffa17 	ldw	r2,-24(fp)
 180f858:	11000a17 	ldw	r4,40(r2)
 180f85c:	01415544 	movi	r5,1365
 180f860:	01802a84 	movi	r6,170
 180f864:	183ee83a 	callr	r3
  (*flash->write_command)(flash->dev.base_addr, 0x2AA, (alt_u8)0x55);
 180f868:	e0bffa17 	ldw	r2,-24(fp)
 180f86c:	10c03317 	ldw	r3,204(r2)
 180f870:	e0bffa17 	ldw	r2,-24(fp)
 180f874:	11000a17 	ldw	r4,40(r2)
 180f878:	0140aa84 	movi	r5,682
 180f87c:	01801544 	movi	r6,85
 180f880:	183ee83a 	callr	r3
  (*flash->write_command)(flash->dev.base_addr, 0x555, (alt_u8)0x80);
 180f884:	e0bffa17 	ldw	r2,-24(fp)
 180f888:	10c03317 	ldw	r3,204(r2)
 180f88c:	e0bffa17 	ldw	r2,-24(fp)
 180f890:	11000a17 	ldw	r4,40(r2)
 180f894:	01415544 	movi	r5,1365
 180f898:	01802004 	movi	r6,128
 180f89c:	183ee83a 	callr	r3
  (*flash->write_command)(flash->dev.base_addr, 0x555, (alt_u8)0xAA);
 180f8a0:	e0bffa17 	ldw	r2,-24(fp)
 180f8a4:	10c03317 	ldw	r3,204(r2)
 180f8a8:	e0bffa17 	ldw	r2,-24(fp)
 180f8ac:	11000a17 	ldw	r4,40(r2)
 180f8b0:	01415544 	movi	r5,1365
 180f8b4:	01802a84 	movi	r6,170
 180f8b8:	183ee83a 	callr	r3
  (*flash->write_command)(flash->dev.base_addr, 0x2AA, (alt_u8)0x55);
 180f8bc:	e0bffa17 	ldw	r2,-24(fp)
 180f8c0:	10c03317 	ldw	r3,204(r2)
 180f8c4:	e0bffa17 	ldw	r2,-24(fp)
 180f8c8:	11000a17 	ldw	r4,40(r2)
 180f8cc:	0140aa84 	movi	r5,682
 180f8d0:	01801544 	movi	r6,85
 180f8d4:	183ee83a 	callr	r3

  (*flash->write_native)((alt_u8*)flash->dev.base_addr+block_offset, 0x30);
 180f8d8:	e0bffa17 	ldw	r2,-24(fp)
 180f8dc:	11803517 	ldw	r6,212(r2)
 180f8e0:	e0bffa17 	ldw	r2,-24(fp)
 180f8e4:	10800a17 	ldw	r2,40(r2)
 180f8e8:	1007883a 	mov	r3,r2
 180f8ec:	e0bfff17 	ldw	r2,-4(fp)
 180f8f0:	1889883a 	add	r4,r3,r2
 180f8f4:	01400c04 	movi	r5,48
 180f8f8:	303ee83a 	callr	r6

  /*
   * Delay to meet AM29LV065D timing requirements
   */
  usleep(10000);
 180f8fc:	0109c404 	movi	r4,10000
 180f900:	180a5200 	call	180a520 <usleep>
  
  /*
   * Bit 3 indicates that the erase command has been accepted
   * this last 50S
   */
  timeout = 50;   
 180f904:	00800c84 	movi	r2,50
 180f908:	e0bffb15 	stw	r2,-20(fp)
  do 
  {
    value = IORD_8DIRECT((alt_u8*)flash->dev.base_addr + block_offset, 0);
 180f90c:	e0bffa17 	ldw	r2,-24(fp)
 180f910:	10800a17 	ldw	r2,40(r2)
 180f914:	1007883a 	mov	r3,r2
 180f918:	e0bfff17 	ldw	r2,-4(fp)
 180f91c:	1885883a 	add	r2,r3,r2
 180f920:	10800023 	ldbuio	r2,0(r2)
 180f924:	e0bffd05 	stb	r2,-12(fp)
    usleep(1000);
 180f928:	0100fa04 	movi	r4,1000
 180f92c:	180a5200 	call	180a520 <usleep>
    timeout--;
 180f930:	e0bffb17 	ldw	r2,-20(fp)
 180f934:	10bfffc4 	addi	r2,r2,-1
 180f938:	e0bffb15 	stw	r2,-20(fp)
  }while(!(value & 0x8) && (timeout > 0));
 180f93c:	e0bffd03 	ldbu	r2,-12(fp)
 180f940:	10803fcc 	andi	r2,r2,255
 180f944:	1080020c 	andi	r2,r2,8
 180f948:	1004c03a 	cmpne	r2,r2,zero
 180f94c:	1000031e 	bne	r2,zero,180f95c <alt_erase_block_amd+0x134>
 180f950:	e0bffb17 	ldw	r2,-20(fp)
 180f954:	10800048 	cmpgei	r2,r2,1
 180f958:	103fec1e 	bne	r2,zero,180f90c <alt_erase_block_amd+0xe4>


  timeout = flash->erase_timeout;
 180f95c:	e0bffa17 	ldw	r2,-24(fp)
 180f960:	10803117 	ldw	r2,196(r2)
 180f964:	e0bffb15 	stw	r2,-20(fp)
  
  /*
   *  Bit 7 goes low until the block is erased if bit 5 goes to 
   *  1 it's an error
   */
  while (timeout > 0)
 180f968:	00001706 	br	180f9c8 <alt_erase_block_amd+0x1a0>
  {
    value = IORD_8DIRECT((alt_u8*)flash->dev.base_addr + block_offset, 0);
 180f96c:	e0bffa17 	ldw	r2,-24(fp)
 180f970:	10800a17 	ldw	r2,40(r2)
 180f974:	1007883a 	mov	r3,r2
 180f978:	e0bfff17 	ldw	r2,-4(fp)
 180f97c:	1885883a 	add	r2,r3,r2
 180f980:	10800023 	ldbuio	r2,0(r2)
 180f984:	e0bffd05 	stb	r2,-12(fp)
    if ((value & 0x80) || (value &0x20))
 180f988:	e0bffd03 	ldbu	r2,-12(fp)
 180f98c:	10803fcc 	andi	r2,r2,255
 180f990:	1080201c 	xori	r2,r2,128
 180f994:	10bfe004 	addi	r2,r2,-128
 180f998:	1004803a 	cmplt	r2,r2,zero
 180f99c:	10000d1e 	bne	r2,zero,180f9d4 <alt_erase_block_amd+0x1ac>
 180f9a0:	e0bffd03 	ldbu	r2,-12(fp)
 180f9a4:	10803fcc 	andi	r2,r2,255
 180f9a8:	1080080c 	andi	r2,r2,32
 180f9ac:	1004c03a 	cmpne	r2,r2,zero
 180f9b0:	1000081e 	bne	r2,zero,180f9d4 <alt_erase_block_amd+0x1ac>
    {
      break;
    }
    usleep(1000);
 180f9b4:	0100fa04 	movi	r4,1000
 180f9b8:	180a5200 	call	180a520 <usleep>
    timeout -= 1000;
 180f9bc:	e0bffb17 	ldw	r2,-20(fp)
 180f9c0:	10bf0604 	addi	r2,r2,-1000
 180f9c4:	e0bffb15 	stw	r2,-20(fp)
  
  /*
   *  Bit 7 goes low until the block is erased if bit 5 goes to 
   *  1 it's an error
   */
  while (timeout > 0)
 180f9c8:	e0bffb17 	ldw	r2,-20(fp)
 180f9cc:	10800048 	cmpgei	r2,r2,1
 180f9d0:	103fe61e 	bne	r2,zero,180f96c <alt_erase_block_amd+0x144>
    }
    usleep(1000);
    timeout -= 1000;
  }
  
  if (timeout <= 0)
 180f9d4:	e0bffb17 	ldw	r2,-20(fp)
 180f9d8:	10800048 	cmpgei	r2,r2,1
 180f9dc:	1000031e 	bne	r2,zero,180f9ec <alt_erase_block_amd+0x1c4>
  {
    ret_code = -ETIMEDOUT;
 180f9e0:	00bfe304 	movi	r2,-116
 180f9e4:	e0bffc15 	stw	r2,-16(fp)
 180f9e8:	00000f06 	br	180fa28 <alt_erase_block_amd+0x200>
  }
  else
  {
    value = IORD_8DIRECT((alt_u8*)flash->dev.base_addr + block_offset, 0);
 180f9ec:	e0bffa17 	ldw	r2,-24(fp)
 180f9f0:	10800a17 	ldw	r2,40(r2)
 180f9f4:	1007883a 	mov	r3,r2
 180f9f8:	e0bfff17 	ldw	r2,-4(fp)
 180f9fc:	1885883a 	add	r2,r3,r2
 180fa00:	10800023 	ldbuio	r2,0(r2)
 180fa04:	e0bffd05 	stb	r2,-12(fp)
    if (!(value & 0x80))
 180fa08:	e0bffd03 	ldbu	r2,-12(fp)
 180fa0c:	10803fcc 	andi	r2,r2,255
 180fa10:	1080201c 	xori	r2,r2,128
 180fa14:	10bfe004 	addi	r2,r2,-128
 180fa18:	1004803a 	cmplt	r2,r2,zero
 180fa1c:	1000021e 	bne	r2,zero,180fa28 <alt_erase_block_amd+0x200>
    {
      ret_code = -EIO;
 180fa20:	00bffec4 	movi	r2,-5
 180fa24:	e0bffc15 	stw	r2,-16(fp)
    }
  }    
  
  return ret_code;
 180fa28:	e0bffc17 	ldw	r2,-16(fp)
}
 180fa2c:	e037883a 	mov	sp,fp
 180fa30:	dfc00117 	ldw	ra,4(sp)
 180fa34:	df000017 	ldw	fp,0(sp)
 180fa38:	dec00204 	addi	sp,sp,8
 180fa3c:	f800283a 	ret

0180fa40 <alt_wait_for_command_to_complete_amd>:
 */
 
int alt_wait_for_command_to_complete_amd(alt_flash_cfi_dev* flash,
                                         int offset, 
                                          alt_u8 data)
{
 180fa40:	defff804 	addi	sp,sp,-32
 180fa44:	dfc00715 	stw	ra,28(sp)
 180fa48:	df000615 	stw	fp,24(sp)
 180fa4c:	df000604 	addi	fp,sp,24
 180fa50:	e13ffd15 	stw	r4,-12(fp)
 180fa54:	e17ffe15 	stw	r5,-8(fp)
 180fa58:	e1bfff05 	stb	r6,-4(fp)
  volatile alt_u8  value;
  int timeout = flash->write_timeout * 100;
 180fa5c:	e0bffd17 	ldw	r2,-12(fp)
 180fa60:	10803017 	ldw	r2,192(r2)
 180fa64:	10801924 	muli	r2,r2,100
 180fa68:	e0bffb15 	stw	r2,-20(fp)
  int ret_code = 0;
 180fa6c:	e03ffa15 	stw	zero,-24(fp)
  
  value = IORD_8DIRECT(flash->dev.base_addr, offset);
 180fa70:	e0bffd17 	ldw	r2,-12(fp)
 180fa74:	10800a17 	ldw	r2,40(r2)
 180fa78:	1007883a 	mov	r3,r2
 180fa7c:	e0bffe17 	ldw	r2,-8(fp)
 180fa80:	1885883a 	add	r2,r3,r2
 180fa84:	10800023 	ldbuio	r2,0(r2)
 180fa88:	e0bffc05 	stb	r2,-16(fp)
  while (timeout > 0)
 180fa8c:	00001706 	br	180faec <alt_wait_for_command_to_complete_amd+0xac>
  {
    if (((value & 0x80 ) == (data &0x80)) ||
 180fa90:	e0bffc03 	ldbu	r2,-16(fp)
 180fa94:	10803fcc 	andi	r2,r2,255
 180fa98:	10c0200c 	andi	r3,r2,128
 180fa9c:	e0bfff03 	ldbu	r2,-4(fp)
 180faa0:	1080200c 	andi	r2,r2,128
 180faa4:	18801426 	beq	r3,r2,180faf8 <alt_wait_for_command_to_complete_amd+0xb8>
 180faa8:	e0bffc03 	ldbu	r2,-16(fp)
 180faac:	10803fcc 	andi	r2,r2,255
 180fab0:	1080080c 	andi	r2,r2,32
 180fab4:	1004c03a 	cmpne	r2,r2,zero
 180fab8:	10000f1e 	bne	r2,zero,180faf8 <alt_wait_for_command_to_complete_amd+0xb8>
        (value & 0x20))
    {
      break;
    }
    usleep (1);
 180fabc:	01000044 	movi	r4,1
 180fac0:	180a5200 	call	180a520 <usleep>
    timeout--;
 180fac4:	e0bffb17 	ldw	r2,-20(fp)
 180fac8:	10bfffc4 	addi	r2,r2,-1
 180facc:	e0bffb15 	stw	r2,-20(fp)
    value = IORD_8DIRECT(flash->dev.base_addr, offset);
 180fad0:	e0bffd17 	ldw	r2,-12(fp)
 180fad4:	10800a17 	ldw	r2,40(r2)
 180fad8:	1007883a 	mov	r3,r2
 180fadc:	e0bffe17 	ldw	r2,-8(fp)
 180fae0:	1885883a 	add	r2,r3,r2
 180fae4:	10800023 	ldbuio	r2,0(r2)
 180fae8:	e0bffc05 	stb	r2,-16(fp)
  volatile alt_u8  value;
  int timeout = flash->write_timeout * 100;
  int ret_code = 0;
  
  value = IORD_8DIRECT(flash->dev.base_addr, offset);
  while (timeout > 0)
 180faec:	e0bffb17 	ldw	r2,-20(fp)
 180faf0:	10800048 	cmpgei	r2,r2,1
 180faf4:	103fe61e 	bne	r2,zero,180fa90 <alt_wait_for_command_to_complete_amd+0x50>
    usleep (1);
    timeout--;
    value = IORD_8DIRECT(flash->dev.base_addr, offset);
  }
  
  if (timeout == 0)
 180faf8:	e0bffb17 	ldw	r2,-20(fp)
 180fafc:	1004c03a 	cmpne	r2,r2,zero
 180fb00:	1000031e 	bne	r2,zero,180fb10 <alt_wait_for_command_to_complete_amd+0xd0>
  {
    ret_code = -ETIMEDOUT;
 180fb04:	00bfe304 	movi	r2,-116
 180fb08:	e0bffa15 	stw	r2,-24(fp)
 180fb0c:	00000f06 	br	180fb4c <alt_wait_for_command_to_complete_amd+0x10c>
  }
  else
  {
    value = IORD_8DIRECT(flash->dev.base_addr, offset);
 180fb10:	e0bffd17 	ldw	r2,-12(fp)
 180fb14:	10800a17 	ldw	r2,40(r2)
 180fb18:	1007883a 	mov	r3,r2
 180fb1c:	e0bffe17 	ldw	r2,-8(fp)
 180fb20:	1885883a 	add	r2,r3,r2
 180fb24:	10800023 	ldbuio	r2,0(r2)
 180fb28:	e0bffc05 	stb	r2,-16(fp)
    if ((value & 0x80) != (data&0x80))
 180fb2c:	e0bffc03 	ldbu	r2,-16(fp)
 180fb30:	10803fcc 	andi	r2,r2,255
 180fb34:	10c0200c 	andi	r3,r2,128
 180fb38:	e0bfff03 	ldbu	r2,-4(fp)
 180fb3c:	1080200c 	andi	r2,r2,128
 180fb40:	18800226 	beq	r3,r2,180fb4c <alt_wait_for_command_to_complete_amd+0x10c>
    {
      ret_code = -EIO;
 180fb44:	00bffec4 	movi	r2,-5
 180fb48:	e0bffa15 	stw	r2,-24(fp)
    }
  }    
  return ret_code;
 180fb4c:	e0bffa17 	ldw	r2,-24(fp)
}
 180fb50:	e037883a 	mov	sp,fp
 180fb54:	dfc00117 	ldw	ra,4(sp)
 180fb58:	df000017 	ldw	fp,0(sp)
 180fb5c:	dec00204 	addi	sp,sp,8
 180fb60:	f800283a 	ret

0180fb64 <alt_write_word_amd>:

static int alt_write_word_amd(  alt_flash_cfi_dev* flash, 
                                const int offset, 
                                const alt_u8* src_addr)
{
 180fb64:	defff904 	addi	sp,sp,-28
 180fb68:	dfc00615 	stw	ra,24(sp)
 180fb6c:	df000515 	stw	fp,20(sp)
 180fb70:	df000504 	addi	fp,sp,20
 180fb74:	e13ffd15 	stw	r4,-12(fp)
 180fb78:	e17ffe15 	stw	r5,-8(fp)
 180fb7c:	e1bfff15 	stw	r6,-4(fp)
  int ret_code = 0;
 180fb80:	e03ffc15 	stw	zero,-16(fp)
  alt_u8 value;
  (*flash->write_command)(flash->dev.base_addr, 0x555, (alt_u8)0xAA);
 180fb84:	e0bffd17 	ldw	r2,-12(fp)
 180fb88:	10c03317 	ldw	r3,204(r2)
 180fb8c:	e0bffd17 	ldw	r2,-12(fp)
 180fb90:	11000a17 	ldw	r4,40(r2)
 180fb94:	01415544 	movi	r5,1365
 180fb98:	01802a84 	movi	r6,170
 180fb9c:	183ee83a 	callr	r3
  (*flash->write_command)(flash->dev.base_addr, 0x2AA, (alt_u8)0x55);
 180fba0:	e0bffd17 	ldw	r2,-12(fp)
 180fba4:	10c03317 	ldw	r3,204(r2)
 180fba8:	e0bffd17 	ldw	r2,-12(fp)
 180fbac:	11000a17 	ldw	r4,40(r2)
 180fbb0:	0140aa84 	movi	r5,682
 180fbb4:	01801544 	movi	r6,85
 180fbb8:	183ee83a 	callr	r3
  (*flash->write_command)(flash->dev.base_addr, 0x555, (alt_u8)0xA0);
 180fbbc:	e0bffd17 	ldw	r2,-12(fp)
 180fbc0:	10c03317 	ldw	r3,204(r2)
 180fbc4:	e0bffd17 	ldw	r2,-12(fp)
 180fbc8:	11000a17 	ldw	r4,40(r2)
 180fbcc:	01415544 	movi	r5,1365
 180fbd0:	01802804 	movi	r6,160
 180fbd4:	183ee83a 	callr	r3
  
  value = *src_addr;
 180fbd8:	e0bfff17 	ldw	r2,-4(fp)
 180fbdc:	10800003 	ldbu	r2,0(r2)
 180fbe0:	e0bffb05 	stb	r2,-20(fp)

  alt_write_value_to_flash(flash, offset, src_addr);
 180fbe4:	e13ffd17 	ldw	r4,-12(fp)
 180fbe8:	e17ffe17 	ldw	r5,-8(fp)
 180fbec:	e1bfff17 	ldw	r6,-4(fp)
 180fbf0:	180ac640 	call	180ac64 <alt_write_value_to_flash>
  
  ret_code = alt_wait_for_command_to_complete_amd(flash, 
 180fbf4:	e1bffb03 	ldbu	r6,-20(fp)
 180fbf8:	e13ffd17 	ldw	r4,-12(fp)
 180fbfc:	e17ffe17 	ldw	r5,-8(fp)
 180fc00:	180fa400 	call	180fa40 <alt_wait_for_command_to_complete_amd>
 180fc04:	e0bffc15 	stw	r2,-16(fp)
                                                  offset,
                                                  value);
  return ret_code;
 180fc08:	e0bffc17 	ldw	r2,-16(fp)
  
}
 180fc0c:	e037883a 	mov	sp,fp
 180fc10:	dfc00117 	ldw	ra,4(sp)
 180fc14:	df000017 	ldw	fp,0(sp)
 180fc18:	dec00204 	addi	sp,sp,8
 180fc1c:	f800283a 	ret

0180fc20 <alt_program_intel>:
 * Program a block (or part of one)
 */
int alt_program_intel(alt_flash_dev* flash_info, int block_offset, 
                int offset, const void* src_addr, 
                int length)
{
 180fc20:	defff704 	addi	sp,sp,-36
 180fc24:	dfc00815 	stw	ra,32(sp)
 180fc28:	df000715 	stw	fp,28(sp)
 180fc2c:	df000704 	addi	fp,sp,28
 180fc30:	e13ffc15 	stw	r4,-16(fp)
 180fc34:	e17ffd15 	stw	r5,-12(fp)
 180fc38:	e1bffe15 	stw	r6,-8(fp)
 180fc3c:	e1ffff15 	stw	r7,-4(fp)
  int ret_code = 0;
 180fc40:	e03ffb15 	stw	zero,-20(fp)
  alt_flash_cfi_dev* flash = (alt_flash_cfi_dev*)flash_info;
 180fc44:	e0bffc17 	ldw	r2,-16(fp)
 180fc48:	e0bffa15 	stw	r2,-24(fp)
  
   /*
  * If this block is locked then unlock it
  */
  ret_code = alt_unlock_block_intel(flash, block_offset);
 180fc4c:	e13ffa17 	ldw	r4,-24(fp)
 180fc50:	e17ffd17 	ldw	r5,-12(fp)
 180fc54:	180fe180 	call	180fe18 <alt_unlock_block_intel>
 180fc58:	e0bffb15 	stw	r2,-20(fp)

  if (!ret_code)
 180fc5c:	e0bffb17 	ldw	r2,-20(fp)
 180fc60:	1004c03a 	cmpne	r2,r2,zero
 180fc64:	1000091e 	bne	r2,zero,180fc8c <alt_program_intel+0x6c>
  {

    ret_code = alt_flash_program_block( flash, offset, src_addr, length, 
 180fc68:	e1bfff17 	ldw	r6,-4(fp)
 180fc6c:	00806074 	movhi	r2,385
 180fc70:	10bfe904 	addi	r2,r2,-92
 180fc74:	d8800015 	stw	r2,0(sp)
 180fc78:	e13ffa17 	ldw	r4,-24(fp)
 180fc7c:	e17ffe17 	ldw	r5,-8(fp)
 180fc80:	e1c00217 	ldw	r7,8(fp)
 180fc84:	180adc80 	call	180adc8 <alt_flash_program_block>
 180fc88:	e0bffb15 	stw	r2,-20(fp)
                                        alt_write_word_intel);
  }
  
  return ret_code;
 180fc8c:	e0bffb17 	ldw	r2,-20(fp)
}
 180fc90:	e037883a 	mov	sp,fp
 180fc94:	dfc00117 	ldw	ra,4(sp)
 180fc98:	df000017 	ldw	fp,0(sp)
 180fc9c:	dec00204 	addi	sp,sp,8
 180fca0:	f800283a 	ret

0180fca4 <alt_erase_block_intel>:
 * alt_erase_block_intel
 * 
 * Erase the selected erase block
 */
int alt_erase_block_intel(alt_flash_dev* flash_info, int block_offset)
{
 180fca4:	defff804 	addi	sp,sp,-32
 180fca8:	dfc00715 	stw	ra,28(sp)
 180fcac:	df000615 	stw	fp,24(sp)
 180fcb0:	df000604 	addi	fp,sp,24
 180fcb4:	e13ffe15 	stw	r4,-8(fp)
 180fcb8:	e17fff15 	stw	r5,-4(fp)
  int   ret_code = 0;
 180fcbc:	e03ffc15 	stw	zero,-16(fp)
  alt_flash_cfi_dev* flash = (alt_flash_cfi_dev*)flash_info;
 180fcc0:	e0bffe17 	ldw	r2,-8(fp)
 180fcc4:	e0bffb15 	stw	r2,-20(fp)
  volatile alt_u8  status;
  int   timeout = flash->erase_timeout;
 180fcc8:	e0bffb17 	ldw	r2,-20(fp)
 180fccc:	10803117 	ldw	r2,196(r2)
 180fcd0:	e0bffa15 	stw	r2,-24(fp)

  /*
  * If this block is locked then unlock it
  */
  ret_code = alt_unlock_block_intel(flash, block_offset);
 180fcd4:	e13ffb17 	ldw	r4,-20(fp)
 180fcd8:	e17fff17 	ldw	r5,-4(fp)
 180fcdc:	180fe180 	call	180fe18 <alt_unlock_block_intel>
 180fce0:	e0bffc15 	stw	r2,-16(fp)

  if (!ret_code)
 180fce4:	e0bffc17 	ldw	r2,-16(fp)
 180fce8:	1004c03a 	cmpne	r2,r2,zero
 180fcec:	1000441e 	bne	r2,zero,180fe00 <alt_erase_block_intel+0x15c>
  {

    flash->write_native((alt_u8*)flash->dev.base_addr + block_offset, 0x20);
 180fcf0:	e0bffb17 	ldw	r2,-20(fp)
 180fcf4:	11803517 	ldw	r6,212(r2)
 180fcf8:	e0bffb17 	ldw	r2,-20(fp)
 180fcfc:	10800a17 	ldw	r2,40(r2)
 180fd00:	1007883a 	mov	r3,r2
 180fd04:	e0bfff17 	ldw	r2,-4(fp)
 180fd08:	1889883a 	add	r4,r3,r2
 180fd0c:	01400804 	movi	r5,32
 180fd10:	303ee83a 	callr	r6
    flash->write_native((alt_u8*)flash->dev.base_addr + block_offset, 0xD0);
 180fd14:	e0bffb17 	ldw	r2,-20(fp)
 180fd18:	11803517 	ldw	r6,212(r2)
 180fd1c:	e0bffb17 	ldw	r2,-20(fp)
 180fd20:	10800a17 	ldw	r2,40(r2)
 180fd24:	1007883a 	mov	r3,r2
 180fd28:	e0bfff17 	ldw	r2,-4(fp)
 180fd2c:	1889883a 	add	r4,r3,r2
 180fd30:	01403404 	movi	r5,208
 180fd34:	303ee83a 	callr	r6

    do
    {
      status = IORD_8DIRECT(flash->dev.base_addr, block_offset);
 180fd38:	e0bffb17 	ldw	r2,-20(fp)
 180fd3c:	10800a17 	ldw	r2,40(r2)
 180fd40:	1007883a 	mov	r3,r2
 180fd44:	e0bfff17 	ldw	r2,-4(fp)
 180fd48:	1885883a 	add	r2,r3,r2
 180fd4c:	10800023 	ldbuio	r2,0(r2)
 180fd50:	e0bffd05 	stb	r2,-12(fp)
      if (status & 0x80)
 180fd54:	e0bffd03 	ldbu	r2,-12(fp)
 180fd58:	10803fcc 	andi	r2,r2,255
 180fd5c:	1080201c 	xori	r2,r2,128
 180fd60:	10bfe004 	addi	r2,r2,-128
 180fd64:	1004803a 	cmplt	r2,r2,zero
 180fd68:	1000081e 	bne	r2,zero,180fd8c <alt_erase_block_intel+0xe8>
      {
        break;
      }
      usleep(1000);
 180fd6c:	0100fa04 	movi	r4,1000
 180fd70:	180a5200 	call	180a520 <usleep>
      timeout -= 1000;
 180fd74:	e0bffa17 	ldw	r2,-24(fp)
 180fd78:	10bf0604 	addi	r2,r2,-1000
 180fd7c:	e0bffa15 	stw	r2,-24(fp)
    }while(timeout > 0);
 180fd80:	e0bffa17 	ldw	r2,-24(fp)
 180fd84:	10800048 	cmpgei	r2,r2,1
 180fd88:	103feb1e 	bne	r2,zero,180fd38 <alt_erase_block_intel+0x94>
    
    if (timeout <= 0)
 180fd8c:	e0bffa17 	ldw	r2,-24(fp)
 180fd90:	10800048 	cmpgei	r2,r2,1
 180fd94:	1000031e 	bne	r2,zero,180fda4 <alt_erase_block_intel+0x100>
    {
      ret_code = -ETIMEDOUT;
 180fd98:	00bfe304 	movi	r2,-116
 180fd9c:	e0bffc15 	stw	r2,-16(fp)
 180fda0:	00000e06 	br	180fddc <alt_erase_block_intel+0x138>
    }
    else if (status & 0x7f)
 180fda4:	e0bffd03 	ldbu	r2,-12(fp)
 180fda8:	10803fcc 	andi	r2,r2,255
 180fdac:	10801fcc 	andi	r2,r2,127
 180fdb0:	1005003a 	cmpeq	r2,r2,zero
 180fdb4:	1000091e 	bne	r2,zero,180fddc <alt_erase_block_intel+0x138>
    {
      /* If we have an error of some kind bomb out */
      ret_code = -EIO;
 180fdb8:	00bffec4 	movi	r2,-5
 180fdbc:	e0bffc15 	stw	r2,-16(fp)
      status = IORD_8DIRECT(flash->dev.base_addr, block_offset);
 180fdc0:	e0bffb17 	ldw	r2,-20(fp)
 180fdc4:	10800a17 	ldw	r2,40(r2)
 180fdc8:	1007883a 	mov	r3,r2
 180fdcc:	e0bfff17 	ldw	r2,-4(fp)
 180fdd0:	1885883a 	add	r2,r3,r2
 180fdd4:	10800023 	ldbuio	r2,0(r2)
 180fdd8:	e0bffd05 	stb	r2,-12(fp)
    }

    /* Put the device back into read array mode */
    flash->write_native((alt_u8*)flash->dev.base_addr + block_offset, 0xFF);
 180fddc:	e0bffb17 	ldw	r2,-20(fp)
 180fde0:	11803517 	ldw	r6,212(r2)
 180fde4:	e0bffb17 	ldw	r2,-20(fp)
 180fde8:	10800a17 	ldw	r2,40(r2)
 180fdec:	1007883a 	mov	r3,r2
 180fdf0:	e0bfff17 	ldw	r2,-4(fp)
 180fdf4:	1889883a 	add	r4,r3,r2
 180fdf8:	01403fc4 	movi	r5,255
 180fdfc:	303ee83a 	callr	r6
  }
  
  return ret_code;
 180fe00:	e0bffc17 	ldw	r2,-16(fp)
}
 180fe04:	e037883a 	mov	sp,fp
 180fe08:	dfc00117 	ldw	ra,4(sp)
 180fe0c:	df000017 	ldw	fp,0(sp)
 180fe10:	dec00204 	addi	sp,sp,8
 180fe14:	f800283a 	ret

0180fe18 <alt_unlock_block_intel>:
/*
* Private Intel specific functions
*/

static int alt_unlock_block_intel(alt_flash_cfi_dev* flash, int block_offset)
{
 180fe18:	defff904 	addi	sp,sp,-28
 180fe1c:	dfc00615 	stw	ra,24(sp)
 180fe20:	df000515 	stw	fp,20(sp)
 180fe24:	df000504 	addi	fp,sp,20
 180fe28:	e13ffe15 	stw	r4,-8(fp)
 180fe2c:	e17fff15 	stw	r5,-4(fp)
  alt_u8  locked;
  alt_u8  status;
  int ret_code = 0;
 180fe30:	e03ffc15 	stw	zero,-16(fp)
  int timeout = flash->write_timeout * 100;
 180fe34:	e0bffe17 	ldw	r2,-8(fp)
 180fe38:	10803017 	ldw	r2,192(r2)
 180fe3c:	10801924 	muli	r2,r2,100
 180fe40:	e0bffb15 	stw	r2,-20(fp)


  /*
  * Is this block locked?
  */
  flash->write_native((alt_u8*)flash->dev.base_addr + block_offset, 0x90);
 180fe44:	e0bffe17 	ldw	r2,-8(fp)
 180fe48:	11803517 	ldw	r6,212(r2)
 180fe4c:	e0bffe17 	ldw	r2,-8(fp)
 180fe50:	10800a17 	ldw	r2,40(r2)
 180fe54:	1007883a 	mov	r3,r2
 180fe58:	e0bfff17 	ldw	r2,-4(fp)
 180fe5c:	1889883a 	add	r4,r3,r2
 180fe60:	01402404 	movi	r5,144
 180fe64:	303ee83a 	callr	r6
  locked = IORD_8DIRECT(flash->dev.base_addr, block_offset + 4);
 180fe68:	e0bffe17 	ldw	r2,-8(fp)
 180fe6c:	10800a17 	ldw	r2,40(r2)
 180fe70:	1007883a 	mov	r3,r2
 180fe74:	e0bfff17 	ldw	r2,-4(fp)
 180fe78:	1885883a 	add	r2,r3,r2
 180fe7c:	10800104 	addi	r2,r2,4
 180fe80:	10800023 	ldbuio	r2,0(r2)
 180fe84:	e0bffd45 	stb	r2,-11(fp)
  if (locked & 0x1)
 180fe88:	e0bffd43 	ldbu	r2,-11(fp)
 180fe8c:	1080004c 	andi	r2,r2,1
 180fe90:	10803fcc 	andi	r2,r2,255
 180fe94:	1005003a 	cmpeq	r2,r2,zero
 180fe98:	1000331e 	bne	r2,zero,180ff68 <alt_unlock_block_intel+0x150>
  {
    flash->write_native((alt_u8*)flash->dev.base_addr + block_offset, 0x60);
 180fe9c:	e0bffe17 	ldw	r2,-8(fp)
 180fea0:	11803517 	ldw	r6,212(r2)
 180fea4:	e0bffe17 	ldw	r2,-8(fp)
 180fea8:	10800a17 	ldw	r2,40(r2)
 180feac:	1007883a 	mov	r3,r2
 180feb0:	e0bfff17 	ldw	r2,-4(fp)
 180feb4:	1889883a 	add	r4,r3,r2
 180feb8:	01401804 	movi	r5,96
 180febc:	303ee83a 	callr	r6
    flash->write_native((alt_u8*)flash->dev.base_addr + block_offset, 0xD0);
 180fec0:	e0bffe17 	ldw	r2,-8(fp)
 180fec4:	11803517 	ldw	r6,212(r2)
 180fec8:	e0bffe17 	ldw	r2,-8(fp)
 180fecc:	10800a17 	ldw	r2,40(r2)
 180fed0:	1007883a 	mov	r3,r2
 180fed4:	e0bfff17 	ldw	r2,-4(fp)
 180fed8:	1889883a 	add	r4,r3,r2
 180fedc:	01403404 	movi	r5,208
 180fee0:	303ee83a 	callr	r6

    do
    {
      status = IORD_8DIRECT(flash->dev.base_addr, block_offset);
 180fee4:	e0bffe17 	ldw	r2,-8(fp)
 180fee8:	10800a17 	ldw	r2,40(r2)
 180feec:	1007883a 	mov	r3,r2
 180fef0:	e0bfff17 	ldw	r2,-4(fp)
 180fef4:	1885883a 	add	r2,r3,r2
 180fef8:	10800023 	ldbuio	r2,0(r2)
 180fefc:	e0bffd05 	stb	r2,-12(fp)
      if (status & 0x80)
 180ff00:	e0bffd03 	ldbu	r2,-12(fp)
 180ff04:	10803fcc 	andi	r2,r2,255
 180ff08:	1080201c 	xori	r2,r2,128
 180ff0c:	10bfe004 	addi	r2,r2,-128
 180ff10:	1004803a 	cmplt	r2,r2,zero
 180ff14:	1000081e 	bne	r2,zero,180ff38 <alt_unlock_block_intel+0x120>
      {
        break;
      }
      timeout--;
 180ff18:	e0bffb17 	ldw	r2,-20(fp)
 180ff1c:	10bfffc4 	addi	r2,r2,-1
 180ff20:	e0bffb15 	stw	r2,-20(fp)
      usleep(1);
 180ff24:	01000044 	movi	r4,1
 180ff28:	180a5200 	call	180a520 <usleep>
    }while(timeout > 0);
 180ff2c:	e0bffb17 	ldw	r2,-20(fp)
 180ff30:	10800048 	cmpgei	r2,r2,1
 180ff34:	103feb1e 	bne	r2,zero,180fee4 <alt_unlock_block_intel+0xcc>

    if (timeout == 0)
 180ff38:	e0bffb17 	ldw	r2,-20(fp)
 180ff3c:	1004c03a 	cmpne	r2,r2,zero
 180ff40:	1000031e 	bne	r2,zero,180ff50 <alt_unlock_block_intel+0x138>
    {
      ret_code = -ETIMEDOUT;
 180ff44:	00bfe304 	movi	r2,-116
 180ff48:	e0bffc15 	stw	r2,-16(fp)
 180ff4c:	00000606 	br	180ff68 <alt_unlock_block_intel+0x150>
    }
    else if (status & 0x7f)
 180ff50:	e0bffd03 	ldbu	r2,-12(fp)
 180ff54:	10801fcc 	andi	r2,r2,127
 180ff58:	1005003a 	cmpeq	r2,r2,zero
 180ff5c:	1000021e 	bne	r2,zero,180ff68 <alt_unlock_block_intel+0x150>
    {
      /* If we have an error of some kind bomb out */
      ret_code = -EIO;
 180ff60:	00bffec4 	movi	r2,-5
 180ff64:	e0bffc15 	stw	r2,-16(fp)
  }

  /*
  * Back to Read Array mode
  */
  flash->write_native((alt_u8*)flash->dev.base_addr + block_offset, 0xFF);
 180ff68:	e0bffe17 	ldw	r2,-8(fp)
 180ff6c:	11803517 	ldw	r6,212(r2)
 180ff70:	e0bffe17 	ldw	r2,-8(fp)
 180ff74:	10800a17 	ldw	r2,40(r2)
 180ff78:	1007883a 	mov	r3,r2
 180ff7c:	e0bfff17 	ldw	r2,-4(fp)
 180ff80:	1889883a 	add	r4,r3,r2
 180ff84:	01403fc4 	movi	r5,255
 180ff88:	303ee83a 	callr	r6

  return ret_code;
 180ff8c:	e0bffc17 	ldw	r2,-16(fp)
}
 180ff90:	e037883a 	mov	sp,fp
 180ff94:	dfc00117 	ldw	ra,4(sp)
 180ff98:	df000017 	ldw	fp,0(sp)
 180ff9c:	dec00204 	addi	sp,sp,8
 180ffa0:	f800283a 	ret

0180ffa4 <alt_write_word_intel>:
 * offset bytes into the flash
 */
 
int alt_write_word_intel( alt_flash_cfi_dev* flash, 
                                  const int offset, const alt_u8* src_addr)
{ 
 180ffa4:	defff904 	addi	sp,sp,-28
 180ffa8:	dfc00615 	stw	ra,24(sp)
 180ffac:	df000515 	stw	fp,20(sp)
 180ffb0:	df000504 	addi	fp,sp,20
 180ffb4:	e13ffd15 	stw	r4,-12(fp)
 180ffb8:	e17ffe15 	stw	r5,-8(fp)
 180ffbc:	e1bfff15 	stw	r6,-4(fp)
  int ret_code = 0;
 180ffc0:	e03ffc15 	stw	zero,-16(fp)
  alt_u8 status;
  (*flash->write_native)((alt_u8*)flash->dev.base_addr+offset, 0x40);
 180ffc4:	e0bffd17 	ldw	r2,-12(fp)
 180ffc8:	11803517 	ldw	r6,212(r2)
 180ffcc:	e0bffd17 	ldw	r2,-12(fp)
 180ffd0:	10800a17 	ldw	r2,40(r2)
 180ffd4:	1007883a 	mov	r3,r2
 180ffd8:	e0bffe17 	ldw	r2,-8(fp)
 180ffdc:	1889883a 	add	r4,r3,r2
 180ffe0:	01401004 	movi	r5,64
 180ffe4:	303ee83a 	callr	r6
  alt_write_value_to_flash(flash, offset, src_addr);
 180ffe8:	e13ffd17 	ldw	r4,-12(fp)
 180ffec:	e17ffe17 	ldw	r5,-8(fp)
 180fff0:	e1bfff17 	ldw	r6,-4(fp)
 180fff4:	180ac640 	call	180ac64 <alt_write_value_to_flash>

  do
  {
    status = IORD_8DIRECT(flash->dev.base_addr, offset);
 180fff8:	e0bffd17 	ldw	r2,-12(fp)
 180fffc:	10800a17 	ldw	r2,40(r2)
 1810000:	1007883a 	mov	r3,r2
 1810004:	e0bffe17 	ldw	r2,-8(fp)
 1810008:	1885883a 	add	r2,r3,r2
 181000c:	10800023 	ldbuio	r2,0(r2)
 1810010:	e0bffb05 	stb	r2,-20(fp)
  }while(!(status & 0x80));
 1810014:	e0bffb03 	ldbu	r2,-20(fp)
 1810018:	10803fcc 	andi	r2,r2,255
 181001c:	1080201c 	xori	r2,r2,128
 1810020:	10bfe004 	addi	r2,r2,-128
 1810024:	1004403a 	cmpge	r2,r2,zero
 1810028:	103ff31e 	bne	r2,zero,180fff8 <alt_write_word_intel+0x54>

  /* If we have an error of some kind bomb out */
  if (status & 0x7f)
 181002c:	e0bffb03 	ldbu	r2,-20(fp)
 1810030:	10801fcc 	andi	r2,r2,127
 1810034:	1005003a 	cmpeq	r2,r2,zero
 1810038:	1000021e 	bne	r2,zero,1810044 <alt_write_word_intel+0xa0>
  {
    ret_code = -EIO;
 181003c:	00bffec4 	movi	r2,-5
 1810040:	e0bffc15 	stw	r2,-16(fp)
  }

  /* Put the device back into read array mode */
  flash->write_native((alt_u8*)flash->dev.base_addr + offset, 0xFF);
 1810044:	e0bffd17 	ldw	r2,-12(fp)
 1810048:	11803517 	ldw	r6,212(r2)
 181004c:	e0bffd17 	ldw	r2,-12(fp)
 1810050:	10800a17 	ldw	r2,40(r2)
 1810054:	1007883a 	mov	r3,r2
 1810058:	e0bffe17 	ldw	r2,-8(fp)
 181005c:	1889883a 	add	r4,r3,r2
 1810060:	01403fc4 	movi	r5,255
 1810064:	303ee83a 	callr	r6
  
  return ret_code;
 1810068:	e0bffc17 	ldw	r2,-16(fp)
}
 181006c:	e037883a 	mov	sp,fp
 1810070:	dfc00117 	ldw	ra,4(sp)
 1810074:	df000017 	ldw	fp,0(sp)
 1810078:	dec00204 	addi	sp,sp,8
 181007c:	f800283a 	ret

01810080 <alt_find_dev>:
 * "name" must be an exact match for the devices registered name for a match to
 * be found.
 */
 
alt_dev* alt_find_dev(const char* name, alt_llist* llist)
{
 1810080:	defff904 	addi	sp,sp,-28
 1810084:	dfc00615 	stw	ra,24(sp)
 1810088:	df000515 	stw	fp,20(sp)
 181008c:	df000504 	addi	fp,sp,20
 1810090:	e13ffd15 	stw	r4,-12(fp)
 1810094:	e17ffe15 	stw	r5,-8(fp)
  alt_dev* next = (alt_dev*) llist->next;
 1810098:	e0bffe17 	ldw	r2,-8(fp)
 181009c:	10800017 	ldw	r2,0(r2)
 18100a0:	e0bffc15 	stw	r2,-16(fp)
  alt_32 len;

  len  = strlen(name) + 1;
 18100a4:	e13ffd17 	ldw	r4,-12(fp)
 18100a8:	18006940 	call	1800694 <strlen>
 18100ac:	10800044 	addi	r2,r2,1
 18100b0:	e0bffb15 	stw	r2,-20(fp)
  /*
   * Check each list entry in turn, until a match is found, or we reach the
   * end of the list (i.e. next winds up pointing back to the list head).
   */ 

  while (next != (alt_dev*) llist)
 18100b4:	00000d06 	br	18100ec <alt_find_dev+0x6c>
    /* 
     * memcmp() is used here rather than strcmp() in order to reduce the size
     * of the executable.
     */

    if (!memcmp (next->name, name, len))
 18100b8:	e0bffc17 	ldw	r2,-16(fp)
 18100bc:	11000217 	ldw	r4,8(r2)
 18100c0:	e1bffb17 	ldw	r6,-20(fp)
 18100c4:	e17ffd17 	ldw	r5,-12(fp)
 18100c8:	18104140 	call	1810414 <memcmp>
 18100cc:	1004c03a 	cmpne	r2,r2,zero
 18100d0:	1000031e 	bne	r2,zero,18100e0 <alt_find_dev+0x60>
    {
      /* match found */

      return next;
 18100d4:	e0bffc17 	ldw	r2,-16(fp)
 18100d8:	e0bfff15 	stw	r2,-4(fp)
 18100dc:	00000706 	br	18100fc <alt_find_dev+0x7c>
    }
    next = (alt_dev*) next->llist.next;
 18100e0:	e0bffc17 	ldw	r2,-16(fp)
 18100e4:	10800017 	ldw	r2,0(r2)
 18100e8:	e0bffc15 	stw	r2,-16(fp)
  /*
   * Check each list entry in turn, until a match is found, or we reach the
   * end of the list (i.e. next winds up pointing back to the list head).
   */ 

  while (next != (alt_dev*) llist)
 18100ec:	e0fffe17 	ldw	r3,-8(fp)
 18100f0:	e0bffc17 	ldw	r2,-16(fp)
 18100f4:	10fff01e 	bne	r2,r3,18100b8 <alt_find_dev+0x38>
    next = (alt_dev*) next->llist.next;
  }
  
  /* No match found */
  
  return NULL;
 18100f8:	e03fff15 	stw	zero,-4(fp)
 18100fc:	e0bfff17 	ldw	r2,-4(fp)
}
 1810100:	e037883a 	mov	sp,fp
 1810104:	dfc00117 	ldw	ra,4(sp)
 1810108:	df000017 	ldw	fp,0(sp)
 181010c:	dec00204 	addi	sp,sp,8
 1810110:	f800283a 	ret

01810114 <alt_find_file>:
 * either '/' or '\0' is the prefix of the filename. For example the filename:
 * "/myfilesystem/junk.txt" would match: "/myfilesystem", but not: "/myfile". 
 */
 
alt_dev* alt_find_file (const char* name)
{
 1810114:	defffa04 	addi	sp,sp,-24
 1810118:	dfc00515 	stw	ra,20(sp)
 181011c:	df000415 	stw	fp,16(sp)
 1810120:	df000404 	addi	fp,sp,16
 1810124:	e13ffe15 	stw	r4,-8(fp)
  alt_dev* next = (alt_dev*) alt_fs_list.next;   
 1810128:	00806074 	movhi	r2,385
 181012c:	108ad004 	addi	r2,r2,11072
 1810130:	10800017 	ldw	r2,0(r2)
 1810134:	e0bffd15 	stw	r2,-12(fp)
  /*
   * Check each list entry in turn, until a match is found, or we reach the
   * end of the list (i.e. next winds up pointing back to the list head).
   */ 
 
  while (next != (alt_dev*) &alt_fs_list)
 1810138:	00003306 	br	1810208 <alt_find_file+0xf4>
  {
    len = strlen(next->name);
 181013c:	e0bffd17 	ldw	r2,-12(fp)
 1810140:	11000217 	ldw	r4,8(r2)
 1810144:	18006940 	call	1800694 <strlen>
 1810148:	e0bffc15 	stw	r2,-16(fp)
    
    if (next->name[len-1] == '/')
 181014c:	e0bffd17 	ldw	r2,-12(fp)
 1810150:	10c00217 	ldw	r3,8(r2)
 1810154:	e0bffc17 	ldw	r2,-16(fp)
 1810158:	1885883a 	add	r2,r3,r2
 181015c:	10bfffc4 	addi	r2,r2,-1
 1810160:	10800003 	ldbu	r2,0(r2)
 1810164:	10803fcc 	andi	r2,r2,255
 1810168:	1080201c 	xori	r2,r2,128
 181016c:	10bfe004 	addi	r2,r2,-128
 1810170:	10800bd8 	cmpnei	r2,r2,47
 1810174:	1000031e 	bne	r2,zero,1810184 <alt_find_file+0x70>
    {
      len -= 1;
 1810178:	e0bffc17 	ldw	r2,-16(fp)
 181017c:	10bfffc4 	addi	r2,r2,-1
 1810180:	e0bffc15 	stw	r2,-16(fp)
    }

    if (((name[len] == '/') || (name[len] == '\0')) && 
 1810184:	e0bffc17 	ldw	r2,-16(fp)
 1810188:	1007883a 	mov	r3,r2
 181018c:	e0bffe17 	ldw	r2,-8(fp)
 1810190:	1885883a 	add	r2,r3,r2
 1810194:	10800003 	ldbu	r2,0(r2)
 1810198:	10803fcc 	andi	r2,r2,255
 181019c:	1080201c 	xori	r2,r2,128
 18101a0:	10bfe004 	addi	r2,r2,-128
 18101a4:	10800be0 	cmpeqi	r2,r2,47
 18101a8:	10000a1e 	bne	r2,zero,18101d4 <alt_find_file+0xc0>
 18101ac:	e0bffc17 	ldw	r2,-16(fp)
 18101b0:	1007883a 	mov	r3,r2
 18101b4:	e0bffe17 	ldw	r2,-8(fp)
 18101b8:	1885883a 	add	r2,r3,r2
 18101bc:	10800003 	ldbu	r2,0(r2)
 18101c0:	10803fcc 	andi	r2,r2,255
 18101c4:	1080201c 	xori	r2,r2,128
 18101c8:	10bfe004 	addi	r2,r2,-128
 18101cc:	1004c03a 	cmpne	r2,r2,zero
 18101d0:	10000a1e 	bne	r2,zero,18101fc <alt_find_file+0xe8>
 18101d4:	e0bffd17 	ldw	r2,-12(fp)
 18101d8:	11000217 	ldw	r4,8(r2)
 18101dc:	e1bffc17 	ldw	r6,-16(fp)
 18101e0:	e17ffe17 	ldw	r5,-8(fp)
 18101e4:	18104140 	call	1810414 <memcmp>
 18101e8:	1004c03a 	cmpne	r2,r2,zero
 18101ec:	1000031e 	bne	r2,zero,18101fc <alt_find_file+0xe8>
        !memcmp (next->name, name, len))
    {
      /* match found */

      return next;
 18101f0:	e0bffd17 	ldw	r2,-12(fp)
 18101f4:	e0bfff15 	stw	r2,-4(fp)
 18101f8:	00000806 	br	181021c <alt_find_file+0x108>
    }
    next = (alt_dev*) next->llist.next;
 18101fc:	e0bffd17 	ldw	r2,-12(fp)
 1810200:	10800017 	ldw	r2,0(r2)
 1810204:	e0bffd15 	stw	r2,-12(fp)
  /*
   * Check each list entry in turn, until a match is found, or we reach the
   * end of the list (i.e. next winds up pointing back to the list head).
   */ 
 
  while (next != (alt_dev*) &alt_fs_list)
 1810208:	00c06074 	movhi	r3,385
 181020c:	18cad004 	addi	r3,r3,11072
 1810210:	e0bffd17 	ldw	r2,-12(fp)
 1810214:	10ffc91e 	bne	r2,r3,181013c <alt_find_file+0x28>
    next = (alt_dev*) next->llist.next;
  }
  
  /* No match found */
  
  return NULL;     
 1810218:	e03fff15 	stw	zero,-4(fp)
 181021c:	e0bfff17 	ldw	r2,-4(fp)
}
 1810220:	e037883a 	mov	sp,fp
 1810224:	dfc00117 	ldw	ra,4(sp)
 1810228:	df000017 	ldw	fp,0(sp)
 181022c:	dec00204 	addi	sp,sp,8
 1810230:	f800283a 	ret

01810234 <alt_get_fd>:
 * the offset of the file descriptor within the file descriptor array). A
 * negative value indicates failure.
 */

int alt_get_fd (alt_dev* dev)
{
 1810234:	defffc04 	addi	sp,sp,-16
 1810238:	df000315 	stw	fp,12(sp)
 181023c:	df000304 	addi	fp,sp,12
 1810240:	e13fff15 	stw	r4,-4(fp)
  alt_32 i;
  int rc = -EMFILE;
 1810244:	00bffa04 	movi	r2,-24
 1810248:	e0bffd15 	stw	r2,-12(fp)
   * indicates the highest file descriptor ever allocated. This is used to
   * improve efficency when searching the file descriptor list, and 
   * therefore reduce contention on the alt_fd_list_lock semaphore. 
   */

  for (i = 0; i < ALT_MAX_FD; i++)
 181024c:	e03ffe15 	stw	zero,-8(fp)
 1810250:	00001e06 	br	18102cc <alt_get_fd+0x98>
  {
    if (!alt_fd_list[i].dev)
 1810254:	e0bffe17 	ldw	r2,-8(fp)
 1810258:	00c06074 	movhi	r3,385
 181025c:	18c5a304 	addi	r3,r3,5772
 1810260:	10800324 	muli	r2,r2,12
 1810264:	10c5883a 	add	r2,r2,r3
 1810268:	10800017 	ldw	r2,0(r2)
 181026c:	1004c03a 	cmpne	r2,r2,zero
 1810270:	1000131e 	bne	r2,zero,18102c0 <alt_get_fd+0x8c>
    {
      alt_fd_list[i].dev = dev;
 1810274:	e0bffe17 	ldw	r2,-8(fp)
 1810278:	00c06074 	movhi	r3,385
 181027c:	18c5a304 	addi	r3,r3,5772
 1810280:	10800324 	muli	r2,r2,12
 1810284:	10c7883a 	add	r3,r2,r3
 1810288:	e0bfff17 	ldw	r2,-4(fp)
 181028c:	18800015 	stw	r2,0(r3)
      if (i > alt_max_fd)
 1810290:	00806074 	movhi	r2,385
 1810294:	108ad404 	addi	r2,r2,11088
 1810298:	10c00017 	ldw	r3,0(r2)
 181029c:	e0bffe17 	ldw	r2,-8(fp)
 18102a0:	1880040e 	bge	r3,r2,18102b4 <alt_get_fd+0x80>
      {
        alt_max_fd = i;
 18102a4:	00c06074 	movhi	r3,385
 18102a8:	18cad404 	addi	r3,r3,11088
 18102ac:	e0bffe17 	ldw	r2,-8(fp)
 18102b0:	18800015 	stw	r2,0(r3)
      }
      rc = i;
 18102b4:	e0bffe17 	ldw	r2,-8(fp)
 18102b8:	e0bffd15 	stw	r2,-12(fp)
      goto alt_get_fd_exit;
 18102bc:	00000606 	br	18102d8 <alt_get_fd+0xa4>
   * indicates the highest file descriptor ever allocated. This is used to
   * improve efficency when searching the file descriptor list, and 
   * therefore reduce contention on the alt_fd_list_lock semaphore. 
   */

  for (i = 0; i < ALT_MAX_FD; i++)
 18102c0:	e0bffe17 	ldw	r2,-8(fp)
 18102c4:	10800044 	addi	r2,r2,1
 18102c8:	e0bffe15 	stw	r2,-8(fp)
 18102cc:	e0bffe17 	ldw	r2,-8(fp)
 18102d0:	10800810 	cmplti	r2,r2,32
 18102d4:	103fdf1e 	bne	r2,zero,1810254 <alt_get_fd+0x20>
   * file descriptor pool.
   */

  ALT_SEM_POST(alt_fd_list_lock);

  return rc;
 18102d8:	e0bffd17 	ldw	r2,-12(fp)
}
 18102dc:	e037883a 	mov	sp,fp
 18102e0:	df000017 	ldw	fp,0(sp)
 18102e4:	dec00104 	addi	sp,sp,4
 18102e8:	f800283a 	ret

018102ec <alt_exception_cause_generated_bad_addr>:
 *
 * Return: 1: BADADDR (bad_addr argument to handler) is valid
 *         0: BADADDR is not valid
 */
int alt_exception_cause_generated_bad_addr(alt_exception_cause cause)
{
 18102ec:	defffc04 	addi	sp,sp,-16
 18102f0:	df000315 	stw	fp,12(sp)
 18102f4:	df000304 	addi	fp,sp,12
 18102f8:	e13ffd15 	stw	r4,-12(fp)
  switch (cause) {
 18102fc:	e0bffd17 	ldw	r2,-12(fp)
 1810300:	10bffe84 	addi	r2,r2,-6
 1810304:	e0bfff15 	stw	r2,-4(fp)
 1810308:	e0ffff17 	ldw	r3,-4(fp)
 181030c:	18800328 	cmpgeui	r2,r3,12
 1810310:	1000271e 	bne	r2,zero,18103b0 <alt_exception_cause_generated_bad_addr+0xc4>
 1810314:	e13fff17 	ldw	r4,-4(fp)
 1810318:	e13fff17 	ldw	r4,-4(fp)
 181031c:	2105883a 	add	r2,r4,r4
 1810320:	1087883a 	add	r3,r2,r2
 1810324:	00806074 	movhi	r2,385
 1810328:	1080ce04 	addi	r2,r2,824
 181032c:	1885883a 	add	r2,r3,r2
 1810330:	10800017 	ldw	r2,0(r2)
 1810334:	1000683a 	jmp	r2
 1810338:	01810374 	movhi	r6,1037
 181033c:	01810380 	call	181038 <__alt_mem_sdram-0x167efc8>
 1810340:	018103b0 	cmpltui	r6,zero,1038
 1810344:	018103b0 	cmpltui	r6,zero,1038
 1810348:	018103b0 	cmpltui	r6,zero,1038
 181034c:	01810368 	cmpgeui	r6,zero,1037
 1810350:	018103b0 	cmpltui	r6,zero,1038
 1810354:	018103b0 	cmpltui	r6,zero,1038
 1810358:	0181038c 	andi	r6,zero,1038
 181035c:	01810398 	cmpnei	r6,zero,1038
 1810360:	018103b0 	cmpltui	r6,zero,1038
 1810364:	018103a4 	muli	r6,zero,1038
  case NIOS2_EXCEPTION_SUPERVISOR_ONLY_DATA_ADDR:
    return 1;
 1810368:	00800044 	movi	r2,1
 181036c:	e0bffe15 	stw	r2,-8(fp)
 1810370:	00001006 	br	18103b4 <alt_exception_cause_generated_bad_addr+0xc8>
  case NIOS2_EXCEPTION_MISALIGNED_DATA_ADDR:
    return 1;
 1810374:	00c00044 	movi	r3,1
 1810378:	e0fffe15 	stw	r3,-8(fp)
 181037c:	00000d06 	br	18103b4 <alt_exception_cause_generated_bad_addr+0xc8>
  case NIOS2_EXCEPTION_MISALIGNED_TARGET_PC:
    return 1;
 1810380:	01000044 	movi	r4,1
 1810384:	e13ffe15 	stw	r4,-8(fp)
 1810388:	00000a06 	br	18103b4 <alt_exception_cause_generated_bad_addr+0xc8>
  case NIOS2_EXCEPTION_TLB_READ_PERM_VIOLATION:
    return 1;
 181038c:	00800044 	movi	r2,1
 1810390:	e0bffe15 	stw	r2,-8(fp)
 1810394:	00000706 	br	18103b4 <alt_exception_cause_generated_bad_addr+0xc8>
  case NIOS2_EXCEPTION_TLB_WRITE_PERM_VIOLATION:
    return 1;
 1810398:	00c00044 	movi	r3,1
 181039c:	e0fffe15 	stw	r3,-8(fp)
 18103a0:	00000406 	br	18103b4 <alt_exception_cause_generated_bad_addr+0xc8>
  case NIOS2_EXCEPTION_MPU_DATA_REGION_VIOLATION:
    return 1;
 18103a4:	01000044 	movi	r4,1
 18103a8:	e13ffe15 	stw	r4,-8(fp)
 18103ac:	00000106 	br	18103b4 <alt_exception_cause_generated_bad_addr+0xc8>
  default:
    return 0;
 18103b0:	e03ffe15 	stw	zero,-8(fp)
 18103b4:	e0bffe17 	ldw	r2,-8(fp)
  }
}
 18103b8:	e037883a 	mov	sp,fp
 18103bc:	df000017 	ldw	fp,0(sp)
 18103c0:	dec00104 	addi	sp,sp,4
 18103c4:	f800283a 	ret

018103c8 <atexit>:
 18103c8:	200b883a 	mov	r5,r4
 18103cc:	000d883a 	mov	r6,zero
 18103d0:	0009883a 	mov	r4,zero
 18103d4:	000f883a 	mov	r7,zero
 18103d8:	18104881 	jmpi	1810488 <__register_exitproc>

018103dc <exit>:
 18103dc:	defffe04 	addi	sp,sp,-8
 18103e0:	000b883a 	mov	r5,zero
 18103e4:	dc000015 	stw	r16,0(sp)
 18103e8:	dfc00115 	stw	ra,4(sp)
 18103ec:	2021883a 	mov	r16,r4
 18103f0:	18105c00 	call	18105c0 <__call_exitprocs>
 18103f4:	00806074 	movhi	r2,385
 18103f8:	108acb04 	addi	r2,r2,11052
 18103fc:	11000017 	ldw	r4,0(r2)
 1810400:	20800f17 	ldw	r2,60(r4)
 1810404:	10000126 	beq	r2,zero,181040c <exit+0x30>
 1810408:	103ee83a 	callr	r2
 181040c:	8009883a 	mov	r4,r16
 1810410:	18107b00 	call	18107b0 <_exit>

01810414 <memcmp>:
 1810414:	00c000c4 	movi	r3,3
 1810418:	1980032e 	bgeu	r3,r6,1810428 <memcmp+0x14>
 181041c:	2144b03a 	or	r2,r4,r5
 1810420:	10c4703a 	and	r2,r2,r3
 1810424:	10000f26 	beq	r2,zero,1810464 <memcmp+0x50>
 1810428:	31ffffc4 	addi	r7,r6,-1
 181042c:	3000061e 	bne	r6,zero,1810448 <memcmp+0x34>
 1810430:	00000a06 	br	181045c <memcmp+0x48>
 1810434:	39ffffc4 	addi	r7,r7,-1
 1810438:	00bfffc4 	movi	r2,-1
 181043c:	21000044 	addi	r4,r4,1
 1810440:	29400044 	addi	r5,r5,1
 1810444:	38800526 	beq	r7,r2,181045c <memcmp+0x48>
 1810448:	20c00003 	ldbu	r3,0(r4)
 181044c:	28800003 	ldbu	r2,0(r5)
 1810450:	18bff826 	beq	r3,r2,1810434 <memcmp+0x20>
 1810454:	1885c83a 	sub	r2,r3,r2
 1810458:	f800283a 	ret
 181045c:	0005883a 	mov	r2,zero
 1810460:	f800283a 	ret
 1810464:	180f883a 	mov	r7,r3
 1810468:	20c00017 	ldw	r3,0(r4)
 181046c:	28800017 	ldw	r2,0(r5)
 1810470:	18bfed1e 	bne	r3,r2,1810428 <memcmp+0x14>
 1810474:	31bfff04 	addi	r6,r6,-4
 1810478:	21000104 	addi	r4,r4,4
 181047c:	29400104 	addi	r5,r5,4
 1810480:	39bff936 	bltu	r7,r6,1810468 <memcmp+0x54>
 1810484:	003fe806 	br	1810428 <memcmp+0x14>

01810488 <__register_exitproc>:
 1810488:	defffa04 	addi	sp,sp,-24
 181048c:	00806074 	movhi	r2,385
 1810490:	108acb04 	addi	r2,r2,11052
 1810494:	dc000015 	stw	r16,0(sp)
 1810498:	14000017 	ldw	r16,0(r2)
 181049c:	dd000415 	stw	r20,16(sp)
 18104a0:	2829883a 	mov	r20,r5
 18104a4:	81405217 	ldw	r5,328(r16)
 18104a8:	dcc00315 	stw	r19,12(sp)
 18104ac:	dc800215 	stw	r18,8(sp)
 18104b0:	dc400115 	stw	r17,4(sp)
 18104b4:	dfc00515 	stw	ra,20(sp)
 18104b8:	2023883a 	mov	r17,r4
 18104bc:	3027883a 	mov	r19,r6
 18104c0:	3825883a 	mov	r18,r7
 18104c4:	28002526 	beq	r5,zero,181055c <__register_exitproc+0xd4>
 18104c8:	29000117 	ldw	r4,4(r5)
 18104cc:	008007c4 	movi	r2,31
 18104d0:	11002716 	blt	r2,r4,1810570 <__register_exitproc+0xe8>
 18104d4:	8800101e 	bne	r17,zero,1810518 <__register_exitproc+0x90>
 18104d8:	2105883a 	add	r2,r4,r4
 18104dc:	1085883a 	add	r2,r2,r2
 18104e0:	20c00044 	addi	r3,r4,1
 18104e4:	1145883a 	add	r2,r2,r5
 18104e8:	0009883a 	mov	r4,zero
 18104ec:	15000215 	stw	r20,8(r2)
 18104f0:	28c00115 	stw	r3,4(r5)
 18104f4:	2005883a 	mov	r2,r4
 18104f8:	dfc00517 	ldw	ra,20(sp)
 18104fc:	dd000417 	ldw	r20,16(sp)
 1810500:	dcc00317 	ldw	r19,12(sp)
 1810504:	dc800217 	ldw	r18,8(sp)
 1810508:	dc400117 	ldw	r17,4(sp)
 181050c:	dc000017 	ldw	r16,0(sp)
 1810510:	dec00604 	addi	sp,sp,24
 1810514:	f800283a 	ret
 1810518:	29802204 	addi	r6,r5,136
 181051c:	00800044 	movi	r2,1
 1810520:	110e983a 	sll	r7,r2,r4
 1810524:	30c04017 	ldw	r3,256(r6)
 1810528:	2105883a 	add	r2,r4,r4
 181052c:	1085883a 	add	r2,r2,r2
 1810530:	1185883a 	add	r2,r2,r6
 1810534:	19c6b03a 	or	r3,r3,r7
 1810538:	14802015 	stw	r18,128(r2)
 181053c:	14c00015 	stw	r19,0(r2)
 1810540:	00800084 	movi	r2,2
 1810544:	30c04015 	stw	r3,256(r6)
 1810548:	88bfe31e 	bne	r17,r2,18104d8 <__register_exitproc+0x50>
 181054c:	30804117 	ldw	r2,260(r6)
 1810550:	11c4b03a 	or	r2,r2,r7
 1810554:	30804115 	stw	r2,260(r6)
 1810558:	003fdf06 	br	18104d8 <__register_exitproc+0x50>
 181055c:	00806074 	movhi	r2,385
 1810560:	108b3604 	addi	r2,r2,11480
 1810564:	100b883a 	mov	r5,r2
 1810568:	80805215 	stw	r2,328(r16)
 181056c:	003fd606 	br	18104c8 <__register_exitproc+0x40>
 1810570:	00800034 	movhi	r2,0
 1810574:	10800004 	addi	r2,r2,0
 1810578:	1000021e 	bne	r2,zero,1810584 <__register_exitproc+0xfc>
 181057c:	013fffc4 	movi	r4,-1
 1810580:	003fdc06 	br	18104f4 <__register_exitproc+0x6c>
 1810584:	01006404 	movi	r4,400
 1810588:	103ee83a 	callr	r2
 181058c:	1007883a 	mov	r3,r2
 1810590:	103ffa26 	beq	r2,zero,181057c <__register_exitproc+0xf4>
 1810594:	80805217 	ldw	r2,328(r16)
 1810598:	180b883a 	mov	r5,r3
 181059c:	18000115 	stw	zero,4(r3)
 18105a0:	18800015 	stw	r2,0(r3)
 18105a4:	80c05215 	stw	r3,328(r16)
 18105a8:	18006215 	stw	zero,392(r3)
 18105ac:	18006315 	stw	zero,396(r3)
 18105b0:	0009883a 	mov	r4,zero
 18105b4:	883fc826 	beq	r17,zero,18104d8 <__register_exitproc+0x50>
 18105b8:	003fd706 	br	1810518 <__register_exitproc+0x90>

018105bc <register_fini>:
 18105bc:	f800283a 	ret

018105c0 <__call_exitprocs>:
 18105c0:	00806074 	movhi	r2,385
 18105c4:	108acb04 	addi	r2,r2,11052
 18105c8:	10800017 	ldw	r2,0(r2)
 18105cc:	defff304 	addi	sp,sp,-52
 18105d0:	df000b15 	stw	fp,44(sp)
 18105d4:	d8800115 	stw	r2,4(sp)
 18105d8:	00800034 	movhi	r2,0
 18105dc:	10800004 	addi	r2,r2,0
 18105e0:	1005003a 	cmpeq	r2,r2,zero
 18105e4:	d8800215 	stw	r2,8(sp)
 18105e8:	d8800117 	ldw	r2,4(sp)
 18105ec:	dd400815 	stw	r21,32(sp)
 18105f0:	dd000715 	stw	r20,28(sp)
 18105f4:	10805204 	addi	r2,r2,328
 18105f8:	dfc00c15 	stw	ra,48(sp)
 18105fc:	ddc00a15 	stw	r23,40(sp)
 1810600:	dd800915 	stw	r22,36(sp)
 1810604:	dcc00615 	stw	r19,24(sp)
 1810608:	dc800515 	stw	r18,20(sp)
 181060c:	dc400415 	stw	r17,16(sp)
 1810610:	dc000315 	stw	r16,12(sp)
 1810614:	282b883a 	mov	r21,r5
 1810618:	2039883a 	mov	fp,r4
 181061c:	d8800015 	stw	r2,0(sp)
 1810620:	2829003a 	cmpeq	r20,r5,zero
 1810624:	d8800117 	ldw	r2,4(sp)
 1810628:	14405217 	ldw	r17,328(r2)
 181062c:	88001026 	beq	r17,zero,1810670 <__call_exitprocs+0xb0>
 1810630:	ddc00017 	ldw	r23,0(sp)
 1810634:	88800117 	ldw	r2,4(r17)
 1810638:	8c802204 	addi	r18,r17,136
 181063c:	143fffc4 	addi	r16,r2,-1
 1810640:	80000916 	blt	r16,zero,1810668 <__call_exitprocs+0xa8>
 1810644:	05bfffc4 	movi	r22,-1
 1810648:	a000151e 	bne	r20,zero,18106a0 <__call_exitprocs+0xe0>
 181064c:	8409883a 	add	r4,r16,r16
 1810650:	2105883a 	add	r2,r4,r4
 1810654:	1485883a 	add	r2,r2,r18
 1810658:	10c02017 	ldw	r3,128(r2)
 181065c:	a8c01126 	beq	r21,r3,18106a4 <__call_exitprocs+0xe4>
 1810660:	843fffc4 	addi	r16,r16,-1
 1810664:	85bff81e 	bne	r16,r22,1810648 <__call_exitprocs+0x88>
 1810668:	d8800217 	ldw	r2,8(sp)
 181066c:	10003126 	beq	r2,zero,1810734 <__call_exitprocs+0x174>
 1810670:	dfc00c17 	ldw	ra,48(sp)
 1810674:	df000b17 	ldw	fp,44(sp)
 1810678:	ddc00a17 	ldw	r23,40(sp)
 181067c:	dd800917 	ldw	r22,36(sp)
 1810680:	dd400817 	ldw	r21,32(sp)
 1810684:	dd000717 	ldw	r20,28(sp)
 1810688:	dcc00617 	ldw	r19,24(sp)
 181068c:	dc800517 	ldw	r18,20(sp)
 1810690:	dc400417 	ldw	r17,16(sp)
 1810694:	dc000317 	ldw	r16,12(sp)
 1810698:	dec00d04 	addi	sp,sp,52
 181069c:	f800283a 	ret
 18106a0:	8409883a 	add	r4,r16,r16
 18106a4:	88c00117 	ldw	r3,4(r17)
 18106a8:	2105883a 	add	r2,r4,r4
 18106ac:	1445883a 	add	r2,r2,r17
 18106b0:	18ffffc4 	addi	r3,r3,-1
 18106b4:	11800217 	ldw	r6,8(r2)
 18106b8:	1c001526 	beq	r3,r16,1810710 <__call_exitprocs+0x150>
 18106bc:	10000215 	stw	zero,8(r2)
 18106c0:	303fe726 	beq	r6,zero,1810660 <__call_exitprocs+0xa0>
 18106c4:	00c00044 	movi	r3,1
 18106c8:	1c06983a 	sll	r3,r3,r16
 18106cc:	90804017 	ldw	r2,256(r18)
 18106d0:	8cc00117 	ldw	r19,4(r17)
 18106d4:	1884703a 	and	r2,r3,r2
 18106d8:	10001426 	beq	r2,zero,181072c <__call_exitprocs+0x16c>
 18106dc:	90804117 	ldw	r2,260(r18)
 18106e0:	1884703a 	and	r2,r3,r2
 18106e4:	10000c1e 	bne	r2,zero,1810718 <__call_exitprocs+0x158>
 18106e8:	2105883a 	add	r2,r4,r4
 18106ec:	1485883a 	add	r2,r2,r18
 18106f0:	11400017 	ldw	r5,0(r2)
 18106f4:	e009883a 	mov	r4,fp
 18106f8:	303ee83a 	callr	r6
 18106fc:	88800117 	ldw	r2,4(r17)
 1810700:	98bfc81e 	bne	r19,r2,1810624 <__call_exitprocs+0x64>
 1810704:	b8800017 	ldw	r2,0(r23)
 1810708:	147fd526 	beq	r2,r17,1810660 <__call_exitprocs+0xa0>
 181070c:	003fc506 	br	1810624 <__call_exitprocs+0x64>
 1810710:	8c000115 	stw	r16,4(r17)
 1810714:	003fea06 	br	18106c0 <__call_exitprocs+0x100>
 1810718:	2105883a 	add	r2,r4,r4
 181071c:	1485883a 	add	r2,r2,r18
 1810720:	11000017 	ldw	r4,0(r2)
 1810724:	303ee83a 	callr	r6
 1810728:	003ff406 	br	18106fc <__call_exitprocs+0x13c>
 181072c:	303ee83a 	callr	r6
 1810730:	003ff206 	br	18106fc <__call_exitprocs+0x13c>
 1810734:	88800117 	ldw	r2,4(r17)
 1810738:	1000081e 	bne	r2,zero,181075c <__call_exitprocs+0x19c>
 181073c:	89000017 	ldw	r4,0(r17)
 1810740:	20000726 	beq	r4,zero,1810760 <__call_exitprocs+0x1a0>
 1810744:	b9000015 	stw	r4,0(r23)
 1810748:	8809883a 	mov	r4,r17
 181074c:	00000000 	call	0 <__alt_mem_sdram-0x1800000>
 1810750:	bc400017 	ldw	r17,0(r23)
 1810754:	883fb71e 	bne	r17,zero,1810634 <__call_exitprocs+0x74>
 1810758:	003fc506 	br	1810670 <__call_exitprocs+0xb0>
 181075c:	89000017 	ldw	r4,0(r17)
 1810760:	882f883a 	mov	r23,r17
 1810764:	2023883a 	mov	r17,r4
 1810768:	883fb21e 	bne	r17,zero,1810634 <__call_exitprocs+0x74>
 181076c:	003fc006 	br	1810670 <__call_exitprocs+0xb0>

01810770 <alt_sim_halt>:

/*
 * Routine called on exit.
 */
static ALT_ALWAYS_INLINE void alt_sim_halt(int exit_code)
{
 1810770:	defffd04 	addi	sp,sp,-12
 1810774:	df000215 	stw	fp,8(sp)
 1810778:	df000204 	addi	fp,sp,8
 181077c:	e13fff15 	stw	r4,-4(fp)
  int r2 = exit_code;
 1810780:	e0bfff17 	ldw	r2,-4(fp)
 1810784:	e0bffe15 	stw	r2,-8(fp)
  __asm__ volatile ("\n0:\n\taddi %0,%0, -1\n\tbgt %0,zero,0b" : : "r" (ALT_CPU_FREQ/100) ); /* Delay for >30ms */

  __asm__ volatile ("break 2" : : "D02"(r2), "D03"(r3) ALT_GMON_DATA );

#else /* !DEBUG_STUB */
  if (r2) {
 1810788:	e0bffe17 	ldw	r2,-8(fp)
 181078c:	1005003a 	cmpeq	r2,r2,zero
 1810790:	1000021e 	bne	r2,zero,181079c <alt_sim_halt+0x2c>
    ALT_SIM_FAIL();
 1810794:	002af070 	cmpltui	zero,zero,43969
 1810798:	00000106 	br	18107a0 <alt_sim_halt+0x30>
  } else {
    ALT_SIM_PASS();
 181079c:	002af0b0 	cmpltui	zero,zero,43970
  }
#endif /* DEBUG_STUB */
}
 18107a0:	e037883a 	mov	sp,fp
 18107a4:	df000017 	ldw	fp,0(sp)
 18107a8:	dec00104 	addi	sp,sp,4
 18107ac:	f800283a 	ret

018107b0 <_exit>:
 *
 * ALT_EXIT is mapped onto the _exit() system call in alt_syscall.h
 */

void ALT_EXIT (int exit_code)
{
 18107b0:	defffd04 	addi	sp,sp,-12
 18107b4:	dfc00215 	stw	ra,8(sp)
 18107b8:	df000115 	stw	fp,4(sp)
 18107bc:	df000104 	addi	fp,sp,4
 18107c0:	e13fff15 	stw	r4,-4(fp)
  ALT_OS_STOP();

  /* Provide notification to the simulator that we've stopped */

  ALT_LOG_PRINT_BOOT("[alt_exit.c] Calling ALT_SIM_HALT().\r\n");
  ALT_SIM_HALT(exit_code);
 18107c4:	e13fff17 	ldw	r4,-4(fp)
 18107c8:	18107700 	call	1810770 <alt_sim_halt>

  /* spin forever, since there's no where to go back to */

  ALT_LOG_PRINT_BOOT("[alt_exit.c] Spinning forever.\r\n");
  while (1);
 18107cc:	003fff06 	br	18107cc <_exit+0x1c>
 18107d0:	00000010 	cmplti	zero,zero,0
 18107d4:	00000000 	call	0 <__alt_mem_sdram-0x1800000>
 18107d8:	00527a01 	jmpi	527a0 <__alt_mem_sdram-0x17ad860>
 18107dc:	011f7c01 	jmpi	11f7c0 <__alt_mem_sdram-0x16e0840>
 18107e0:	001b0c0b 	ldhu	zero,27696(zero)
 18107e4:	00000028 	cmpgeui	zero,zero,0
 18107e8:	00000018 	cmpnei	zero,zero,0
 18107ec:	0180787c 	xorhi	r6,zero,481
 18107f0:	000005dc 	xori	zero,zero,23
 18107f4:	400e4400 	call	400e440 <alt_instruction_exception_entry+0x180627c>
 18107f8:	92099170 	cmpltui	r8,r18,9797
 18107fc:	95079308 	cmpgei	r20,r18,7756
 1810800:	97049605 	stb	fp,4696(r18)
 1810804:	90019f03 	ldbu	zero,1660(r18)
 1810808:	9c06940a 	0x9c06940a
 181080c:	00000002 	0x2
 1810810:	00000028 	cmpgeui	zero,zero,0
 1810814:	00000044 	movi	zero,1
 1810818:	01807e58 	cmpnei	r6,zero,505
 181081c:	000005b0 	cmpltui	zero,zero,22
 1810820:	3c0e4400 	call	3c0e440 <alt_instruction_exception_entry+0x140627c>
 1810824:	92099168 	cmpgeui	r8,r18,9797
 1810828:	95079308 	cmpgei	r20,r18,7756
 181082c:	9c039705 	stb	r16,3676(r19)
 1810830:	90019f02 	0x90019f02
 1810834:	9606940a 	0x9606940a
 1810838:	00000004 	movi	zero,0
 181083c:	018105bc 	xorhi	r6,zero,1046
