
HelloWorldnew.elf:     file format elf32-littlenios2
HelloWorldnew.elf
architecture: nios2, flags 0x00000112:
EXEC_P, HAS_SYMS, D_PAGED
start address 0x01800000

Program Header:
    LOAD off    0x00001000 vaddr 0x01800000 paddr 0x01800000 align 2**12
         filesz 0x0001312c memsz 0x0001341c flags rwx
    LOAD off    0x00015000 vaddr 0x02400000 paddr 0x02400000 align 2**12
         filesz 0x00000000 memsz 0x00000000 flags r-x
    LOAD off    0x00015020 vaddr 0x02808020 paddr 0x02808020 align 2**12
         filesz 0x0000020c memsz 0x0000020c flags r-x

Sections:
Idx Name          Size      VMA       LMA       File off  Algn
  0 .entry        00000000  02400000  02400000  00015000  2**5
                  CONTENTS, ALLOC, LOAD, READONLY, CODE
  1 .exceptions   0000020c  02808020  02808020  00015020  2**2
                  CONTENTS, ALLOC, LOAD, READONLY, CODE
  2 .text         00010de8  01800000  01800000  00001000  2**2
                  CONTENTS, ALLOC, LOAD, READONLY, CODE
  3 .rodata       0000061c  01810de8  01810de8  00011de8  2**2
                  CONTENTS, ALLOC, LOAD, READONLY, DATA
  4 .rwdata       00001d28  01811404  01811404  00012404  2**2
                  CONTENTS, ALLOC, LOAD, DATA, SMALL_DATA
  5 .bss          000002f0  0181312c  0181312c  0001412c  2**2
                  ALLOC, SMALL_DATA
  6 .comment      00000026  00000000  00000000  0001522c  2**0
                  CONTENTS, READONLY
  7 .debug_aranges 00000eb8  00000000  00000000  00015258  2**3
                  CONTENTS, READONLY, DEBUGGING
  8 .debug_pubnames 00001a89  00000000  00000000  00016110  2**0
                  CONTENTS, READONLY, DEBUGGING
  9 .debug_info   0002a8e8  00000000  00000000  00017b99  2**0
                  CONTENTS, READONLY, DEBUGGING
 10 .debug_abbrev 000091ab  00000000  00000000  00042481  2**0
                  CONTENTS, READONLY, DEBUGGING
 11 .debug_line   00017412  00000000  00000000  0004b62c  2**0
                  CONTENTS, READONLY, DEBUGGING
 12 .debug_frame  00002068  00000000  00000000  00062a40  2**2
                  CONTENTS, READONLY, DEBUGGING
 13 .debug_str    00002550  00000000  00000000  00064aa8  2**0
                  CONTENTS, READONLY, DEBUGGING
 14 .debug_loc    0000caf2  00000000  00000000  00066ff8  2**0
                  CONTENTS, READONLY, DEBUGGING
 15 .debug_alt_sim_info 00000050  00000000  00000000  00073aec  2**2
                  CONTENTS, READONLY, DEBUGGING
 16 .debug_ranges 000009e8  00000000  00000000  00073b40  2**3
                  CONTENTS, READONLY, DEBUGGING
 17 .thread_model 00000003  00000000  00000000  00078093  2**0
                  CONTENTS, READONLY
 18 .cpu          00000003  00000000  00000000  00078096  2**0
                  CONTENTS, READONLY
 19 .simulation_enabled 00000001  00000000  00000000  00078099  2**0
                  CONTENTS, READONLY
 20 .sysid_hash   00000004  00000000  00000000  0007809a  2**0
                  CONTENTS, READONLY
 21 .sysid_base   00000004  00000000  00000000  0007809e  2**0
                  CONTENTS, READONLY
 22 .sysid_time   00000004  00000000  00000000  000780a2  2**0
                  CONTENTS, READONLY
 23 .stderr_dev   00000009  00000000  00000000  000780a6  2**0
                  CONTENTS, READONLY
 24 .stdin_dev    00000009  00000000  00000000  000780af  2**0
                  CONTENTS, READONLY
 25 .stdout_dev   00000009  00000000  00000000  000780b8  2**0
                  CONTENTS, READONLY
 26 .sopc_system_name 00000008  00000000  00000000  000780c1  2**0
                  CONTENTS, READONLY
 27 .quartus_project_dir 00000052  00000000  00000000  000780c9  2**0
                  CONTENTS, READONLY
 28 .jdi          00004101  00000000  00000000  0007811b  2**0
                  CONTENTS, READONLY
 29 .sopcinfo     000c4d50  00000000  00000000  0007c21c  2**0
                  CONTENTS, READONLY
SYMBOL TABLE:
02400000 l    d  .entry	00000000 .entry
02808020 l    d  .exceptions	00000000 .exceptions
01800000 l    d  .text	00000000 .text
01810de8 l    d  .rodata	00000000 .rodata
01811404 l    d  .rwdata	00000000 .rwdata
0181312c l    d  .bss	00000000 .bss
00000000 l    d  .comment	00000000 .comment
00000000 l    d  .debug_aranges	00000000 .debug_aranges
00000000 l    d  .debug_pubnames	00000000 .debug_pubnames
00000000 l    d  .debug_info	00000000 .debug_info
00000000 l    d  .debug_abbrev	00000000 .debug_abbrev
00000000 l    d  .debug_line	00000000 .debug_line
00000000 l    d  .debug_frame	00000000 .debug_frame
00000000 l    d  .debug_str	00000000 .debug_str
00000000 l    d  .debug_loc	00000000 .debug_loc
00000000 l    d  .debug_alt_sim_info	00000000 .debug_alt_sim_info
00000000 l    d  .debug_ranges	00000000 .debug_ranges
01800044 l       .text	00000000 alt_after_alt_main
00000000 l    df *ABS*	00000000 alt_irq_handler.c
00000000 l    df *ABS*	00000000 alt_instruction_exception_entry.c
00000000 l    df *ABS*	00000000 hello_world.c
00000000 l    df *ABS*	00000000 pwm.c
00000000 l    df *ABS*	00000000 utilities.c
00000000 l    df *ABS*	00000000 fp-bit.c
00000000 l    df *ABS*	00000000 fp-bit.c
00000000 l    df *ABS*	00000000 fp-bit.c
00000000 l    df *ABS*	00000000 fp-bit.c
00000000 l    df *ABS*	00000000 libgcc2.c
00000000 l    df *ABS*	00000000 fp-bit.c
00000000 l    df *ABS*	00000000 fp-bit.c
00000000 l    df *ABS*	00000000 libgcc2.c
00000000 l    df *ABS*	00000000 printf.c
00000000 l    df *ABS*	00000000 puts.c
00000000 l    df *ABS*	00000000 strlen.c
00000000 l    df *ABS*	00000000 vfprintf.c
01800d30 l     F .text	00000058 __sprint_r
01810f8e l     O .rodata	00000010 blanks.3452
01810f7e l     O .rodata	00000010 zeroes.3453
00000000 l    df *ABS*	00000000 wsetup.c
00000000 l    df *ABS*	00000000 dtoa.c
01802d94 l     F .text	00000218 quorem
00000000 l    df *ABS*	00000000 fflush.c
00000000 l    df *ABS*	00000000 findfp.c
01804790 l     F .text	00000058 std
0180489c l     F .text	00000008 __fp_lock
018048a4 l     F .text	00000008 __fp_unlock
00000000 l    df *ABS*	00000000 mallocr.c
00000000 l    df *ABS*	00000000 fvwrite.c
00000000 l    df *ABS*	00000000 fwalk.c
00000000 l    df *ABS*	00000000 impure.c
01811404 l     O .rwdata	00000400 impure_data
00000000 l    df *ABS*	00000000 locale.c
018130e8 l     O .rwdata	00000004 charset
01810fc4 l     O .rodata	00000030 lconv
00000000 l    df *ABS*	00000000 makebuf.c
00000000 l    df *ABS*	00000000 mallocr.c
00000000 l    df *ABS*	00000000 memchr.c
00000000 l    df *ABS*	00000000 memcpy.c
00000000 l    df *ABS*	00000000 memmove.c
00000000 l    df *ABS*	00000000 memset.c
00000000 l    df *ABS*	00000000 mprec.c
0181110c l     O .rodata	0000000c p05.2458
00000000 l    df *ABS*	00000000 mallocr.c
00000000 l    df *ABS*	00000000 s_isinfd.c
00000000 l    df *ABS*	00000000 s_isnand.c
00000000 l    df *ABS*	00000000 sbrkr.c
00000000 l    df *ABS*	00000000 stdio.c
00000000 l    df *ABS*	00000000 strcmp.c
00000000 l    df *ABS*	00000000 writer.c
00000000 l    df *ABS*	00000000 mallocr.c
00000000 l    df *ABS*	00000000 closer.c
00000000 l    df *ABS*	00000000 fclose.c
00000000 l    df *ABS*	00000000 fstatr.c
00000000 l    df *ABS*	00000000 int_errno.c
00000000 l    df *ABS*	00000000 isattyr.c
00000000 l    df *ABS*	00000000 lseekr.c
00000000 l    df *ABS*	00000000 readr.c
00000000 l    df *ABS*	00000000 libgcc2.c
00000000 l    df *ABS*	00000000 libgcc2.c
00000000 l    df *ABS*	00000000 dp-bit.c
01808a30 l     F .text	00000410 _fpadd_parts
00000000 l    df *ABS*	00000000 dp-bit.c
00000000 l    df *ABS*	00000000 dp-bit.c
00000000 l    df *ABS*	00000000 dp-bit.c
00000000 l    df *ABS*	00000000 dp-bit.c
00000000 l    df *ABS*	00000000 dp-bit.c
00000000 l    df *ABS*	00000000 dp-bit.c
00000000 l    df *ABS*	00000000 dp-bit.c
00000000 l    df *ABS*	00000000 dp-bit.c
00000000 l    df *ABS*	00000000 dp-bit.c
00000000 l    df *ABS*	00000000 dp-bit.c
00000000 l    df *ABS*	00000000 dp-bit.c
00000000 l    df *ABS*	00000000 lib2-divmod.c
01809b5c l     F .text	0000007c udivmodsi4
00000000 l    df *ABS*	00000000 libgcc2.c
00000000 l    df *ABS*	00000000 dp-bit.c
00000000 l    df *ABS*	00000000 dp-bit.c
00000000 l    df *ABS*	00000000 dp-bit.c
00000000 l    df *ABS*	00000000 alt_close.c
0180a350 l     F .text	00000060 alt_get_errno
00000000 l    df *ABS*	00000000 alt_dev.c
0180a3b0 l     F .text	0000002c alt_dev_null_write
00000000 l    df *ABS*	00000000 alt_errno.c
00000000 l    df *ABS*	00000000 alt_fstat.c
0180a4b0 l     F .text	00000060 alt_get_errno
00000000 l    df *ABS*	00000000 alt_isatty.c
0180a5d0 l     F .text	00000060 alt_get_errno
00000000 l    df *ABS*	00000000 alt_lseek.c
0180a720 l     F .text	00000060 alt_get_errno
00000000 l    df *ABS*	00000000 alt_main.c
00000000 l    df *ABS*	00000000 alt_malloc_lock.c
00000000 l    df *ABS*	00000000 alt_read.c
0180a94c l     F .text	00000060 alt_get_errno
00000000 l    df *ABS*	00000000 alt_release_fd.c
00000000 l    df *ABS*	00000000 alt_sbrk.c
0181310c l     O .rwdata	00000004 heap_end
00000000 l    df *ABS*	00000000 alt_usleep.c
00000000 l    df *ABS*	00000000 alt_write.c
0180ac18 l     F .text	00000060 alt_get_errno
00000000 l    df *ABS*	00000000 alt_sys_init.c
01811dc0 l     O .rwdata	000000d8 cfi_flash
01811e98 l     O .rwdata	00001060 jtag_uart
01812ef8 l     O .rwdata	00000120 lcd
01813018 l     O .rwdata	000000c4 uart
0180ad48 l     F .text	00000038 alt_dev_reg
00000000 l    df *ABS*	00000000 altera_avalon_cfi_flash.c
0180ae1c l     F .text	00000038 alt_flash_device_register
00000000 l    df *ABS*	00000000 altera_avalon_cfi_flash_table.c
0180bc1c l     F .text	0000007c alt_read_16bit_query_entry
00000000 l    df *ABS*	00000000 altera_avalon_jtag_uart_fd.c
00000000 l    df *ABS*	00000000 altera_avalon_jtag_uart_init.c
0180cca8 l     F .text	00000228 altera_avalon_jtag_uart_irq
0180ced0 l     F .text	000000b0 altera_avalon_jtag_uart_timeout
00000000 l    df *ABS*	00000000 altera_avalon_jtag_uart_ioctl.c
00000000 l    df *ABS*	00000000 altera_avalon_jtag_uart_read.c
00000000 l    df *ABS*	00000000 altera_avalon_jtag_uart_write.c
00000000 l    df *ABS*	00000000 altera_avalon_lcd_16207.c
01813110 l     O .rwdata	00000004 colstart
0180d54c l     F .text	000000b8 lcd_write_command
0180d604 l     F .text	000000d4 lcd_write_data
0180d6d8 l     F .text	000000c4 lcd_clear_screen
0180d79c l     F .text	000001ec lcd_repaint_screen
0180d988 l     F .text	000000c8 lcd_scroll_up
0180da50 l     F .text	000002d0 lcd_handle_escape
0180e224 l     F .text	000000cc alt_lcd_16207_timeout
00000000 l    df *ABS*	00000000 altera_avalon_lcd_16207_fd.c
00000000 l    df *ABS*	00000000 altera_avalon_timer_sc.c
0180e484 l     F .text	00000070 alt_avalon_timer_sc_irq
00000000 l    df *ABS*	00000000 altera_avalon_uart_fd.c
00000000 l    df *ABS*	00000000 altera_avalon_uart_init.c
0180e744 l     F .text	0000009c altera_avalon_uart_irq
0180e7e0 l     F .text	000000e0 altera_avalon_uart_rxirq
0180e8c0 l     F .text	0000015c altera_avalon_uart_txirq
00000000 l    df *ABS*	00000000 altera_avalon_uart_read.c
0180ecac l     F .text	00000060 alt_get_errno
00000000 l    df *ABS*	00000000 altera_avalon_uart_write.c
0180eed4 l     F .text	00000060 alt_get_errno
00000000 l    df *ABS*	00000000 alt_alarm_start.c
00000000 l    df *ABS*	00000000 alt_busy_sleep.c
00000000 l    df *ABS*	00000000 alt_dcache_flush.c
00000000 l    df *ABS*	00000000 alt_dev_llist_insert.c
0180f2e0 l     F .text	00000060 alt_get_errno
00000000 l    df *ABS*	00000000 alt_do_ctors.c
00000000 l    df *ABS*	00000000 alt_do_dtors.c
00000000 l    df *ABS*	00000000 alt_flash_dev.c
00000000 l    df *ABS*	00000000 alt_iic.c
00000000 l    df *ABS*	00000000 alt_iic_isr_register.c
00000000 l    df *ABS*	00000000 alt_io_redirect.c
0180f7a4 l     F .text	000000c4 alt_open_fd
00000000 l    df *ABS*	00000000 alt_irq_vars.c
00000000 l    df *ABS*	00000000 alt_open.c
0180f8e0 l     F .text	000000dc alt_file_locked
0180fb44 l     F .text	00000060 alt_get_errno
00000000 l    df *ABS*	00000000 alt_tick.c
00000000 l    df *ABS*	00000000 altera_nios2_irq.c
00000000 l    df *ABS*	00000000 altera_avalon_cfi_flash_amd.c
0181010c l     F .text	000000bc alt_write_word_amd
0180ffe8 l     F .text	00000124 alt_wait_for_command_to_complete_amd
00000000 l    df *ABS*	00000000 altera_avalon_cfi_flash_intel.c
018103c0 l     F .text	0000018c alt_unlock_block_intel
0181054c l     F .text	000000dc alt_write_word_intel
00000000 l    df *ABS*	00000000 alt_find_dev.c
00000000 l    df *ABS*	00000000 alt_find_file.c
00000000 l    df *ABS*	00000000 alt_get_fd.c
00000000 l    df *ABS*	00000000 atexit.c
00000000 l    df *ABS*	00000000 ctype_.c
01811281 l     O .rodata	00000180 _ctype_b
00000000 l    df *ABS*	00000000 exit.c
00000000 l    df *ABS*	00000000 memcmp.c
00000000 l    df *ABS*	00000000 __atexit.c
00000000 l    df *ABS*	00000000 __call_atexit.c
01810b64 l     F .text	00000004 register_fini
00000000 l    df *ABS*	00000000 alt_exit.c
01810d18 l     F .text	00000040 alt_sim_halt
01813160 g     O .bss	00000004 alt_instruction_exception_handler
0180654c g     F .text	00000094 _mprec_log10
01806638 g     F .text	00000088 __any_on
01807d44 g     F .text	00000070 _isatty_r
018110e4 g     O .rodata	00000028 __mprec_tinytens
0180a780 g     F .text	0000006c alt_main
01800c08 g     F .text	000000a0 _puts_r
0180b6dc g     F .text	00000048 alt_read_query_entry_32bit
0181318c g     O .bss	00000100 alt_irq
01807db4 g     F .text	00000078 _lseek_r
0180ae54 g     F .text	000002c0 alt_flash_cfi_write
01809550 g     F .text	00000088 __eqdf2
01800524 g     F .text	00000060 map
0181341c g       *ABS*	00000000 __alt_heap_start
01800b90 g     F .text	00000044 printf
01807810 g     F .text	00000068 __sseek
018047f8 g     F .text	000000a4 __sinit
018054d0 g     F .text	00000084 _setlocale_r
018048f8 g     F .text	00000068 __sfmoreglue
0180a80c g     F .text	00000020 __malloc_unlock
01800648 g     F .text	00000174 __divsf3
01805fc8 g     F .text	000000e0 memmove
018048e8 g     F .text	00000010 _cleanup
018066c0 g     F .text	000000bc _Balloc
01800854 g     F .text	00000094 __fixsfsi
01809660 g     F .text	00000088 __gtdf2
00000000  w      *UND*	00000000 __errno
0180b868 g     F .text	00000048 alt_write_flash_command_32bit_device_16bit_mode
02400000 g     F .entry	00000000 __reset
01807cd0 g     F .text	00000074 _fstat_r
0180b370 g     F .text	000002e8 alt_flash_program_block
01813144 g     O .bss	00000004 errno
0181314c g     O .bss	00000004 alt_argv
0181b0dc g       *ABS*	00000000 _gp
0180aac8 g     F .text	00000030 usleep
01811c40 g     O .rwdata	00000180 alt_fd_list
01810628 g     F .text	00000094 alt_find_dev
01805f28 g     F .text	000000a0 memcpy
018048dc g     F .text	0000000c _cleanup_r
018097f8 g     F .text	000000f8 __floatsidf
0180f868 g     F .text	00000078 alt_io_redirect
01809770 g     F .text	00000088 __ltdf2
01810de8 g       *ABS*	00000000 __DTOR_END__
01800ca8 g     F .text	00000014 puts
01810894 g     F .text	000000dc alt_exception_cause_generated_bad_addr
0180fd48 g     F .text	00000020 altera_nios2_irq_init
0180649c g     F .text	000000b0 __ratio
0180d0e8 g     F .text	00000224 altera_avalon_jtag_uart_read
00000000  w      *UND*	00000000 malloc
01800bd4 g     F .text	00000034 _printf_r
01809c98 g     F .text	00000008 __udivsi3
0180a510 g     F .text	000000c0 isatty
01810ff4 g     O .rodata	000000c8 __mprec_tens
018054ac g     F .text	00000008 __locale_charset
01813138 g     O .bss	00000004 __malloc_top_pad
018130e4 g     O .rwdata	00000004 __mb_cur_max
018054b4 g     F .text	0000000c _localeconv_r
01806db8 g     F .text	0000003c __i2b
01804e90 g     F .text	0000049c __sfvwrite_r
01807798 g     F .text	00000070 _sbrk_r
018101c8 g     F .text	00000084 alt_program_intel
01807e2c g     F .text	00000078 _read_r
0180f1b4 g     F .text	00000078 alt_dcache_flush
01811804 g     O .rwdata	0000000c __lc_ctype
01813104 g     O .rwdata	00000004 alt_max_fd
0180b658 g     F .text	00000040 alt_read_query_entry_8bit
0180a054 g     F .text	00000138 __unpack_d
01807bac g     F .text	00000110 _fclose_r
0181024c g     F .text	00000174 alt_erase_block_intel
0180475c g     F .text	00000034 fflush
0181313c g     O .bss	00000004 __malloc_max_sbrked_mem
01808ec0 g     F .text	00000074 __adddf3
0180637c g     F .text	00000120 __b2d
01808480 g     F .text	000005b0 __umoddi3
0180a630 g     F .text	000000f0 lseek
018130e0 g     O .rwdata	00000004 _global_impure_ptr
01807134 g     F .text	000005f4 _realloc_r
0181341c g       *ABS*	00000000 __bss_end
0180f6ac g     F .text	000000f8 alt_iic_isr_register
0180fc3c g     F .text	0000010c alt_tick
01807ea4 g     F .text	000005dc __udivdi3
018110bc g     O .rodata	00000028 __mprec_bigtens
01807014 g     F .text	00000120 __s2b
018099c8 g     F .text	00000194 __floatunsidf
0180629c g     F .text	00000060 __mcmp
0180e67c g     F .text	000000c8 altera_avalon_uart_init
01813128 g     O .rwdata	00000004 __ctype_ptr
018048c4 g     F .text	00000018 __fp_lock_all
0180f664 g     F .text	00000048 alt_ic_irq_enabled
0180fba4 g     F .text	00000098 alt_alarm_stop
01813154 g     O .bss	00000004 alt_irq_active
02808000 g       *ABS*	00000000 __alt_mem_onchip_mem
028080fc g     F .exceptions	000000c8 alt_irq_handler
01811c18 g     O .rwdata	00000028 alt_dev_null
01800ac8 g     F .text	000000c8 __unpack_f
0180bb70 g     F .text	000000ac alt_set_flash_algorithm_func
01806168 g     F .text	00000070 __hi0bits
018098f0 g     F .text	000000d8 __fixdfsi
018003d4 g     F .text	00000150 Set_Servo_Position
0180b724 g     F .text	0000003c alt_write_flash_command_8bit_device_8bit_mode
018130fc g     O .rwdata	00000008 alt_dev_list
0180aaf8 g     F .text	00000120 write
0180a3dc g     F .text	000000d4 fstat
0180c9c4 g     F .text	000000dc alt_check_primary_table
01806ef4 g     F .text	00000120 __pow5mult
0181312c g     O .bss	00000004 __nlocale_changed
01809ca0 g     F .text	00000008 __umodsi3
0180b1a4 g     F .text	00000068 alt_flash_cfi_read
0180b8f8 g     F .text	00000034 alt_write_native_8bit
0181341c g       *ABS*	00000000 end
01800968 g     F .text	00000160 __pack_f
0180b760 g     F .text	0000007c alt_write_flash_command_16bit_device_8bit_mode
0180dd20 g     F .text	00000504 altera_avalon_lcd_16207_write
0180ed0c g     F .text	000001c8 altera_avalon_uart_write
0180bc98 g     F .text	00000580 alt_read_cfi_table
0180cbe8 g     F .text	000000c0 altera_avalon_jtag_uart_init
028081c4 g     F .exceptions	00000068 alt_instruction_exception_entry
01810de4 g       *ABS*	00000000 __CTOR_LIST__
02000000 g       *ABS*	00000000 __alt_stack_pointer
0180e4f4 g     F .text	00000090 alt_avalon_timer_sc_init
0180e5dc g     F .text	00000058 altera_avalon_uart_write_fd
018008e8 g     F .text	00000080 __clzsi2
0180e634 g     F .text	00000048 altera_avalon_uart_close_fd
0180d30c g     F .text	00000240 altera_avalon_jtag_uart_write
0180ad80 g     F .text	0000009c alt_flash_cfi_init
018000f4 g     F .text	000001e8 Initilise_PWM
018047e8 g     F .text	00000004 __sfp_lock_acquire
01805e44 g     F .text	000000e4 memchr
01800d88 g     F .text	00001eac ___vfprintf_internal_r
01804b7c g     F .text	00000314 _free_r
01810b68 g     F .text	000001b0 __call_exitprocs
01813130 g     O .bss	00000004 __mlocale_changed
018130f0 g     O .rwdata	00000004 __malloc_sbrk_base
01800000 g     F .text	00000048 _start
01813158 g     O .bss	00000004 _alt_tick_rate
01806a84 g     F .text	0000014c __lshift
0181315c g     O .bss	00000004 _alt_nticks
0180a82c g     F .text	00000120 read
0180acac g     F .text	0000009c alt_sys_init
018007bc g     F .text	00000098 __floatsisf
01810a30 g     F .text	00000134 __register_exitproc
0180b698 g     F .text	00000044 alt_read_query_entry_16bit
01806bd0 g     F .text	000001e8 __multiply
0180cf80 g     F .text	00000074 altera_avalon_jtag_uart_close
01813164 g     O .bss	00000028 __malloc_current_mallinfo
0180b990 g     F .text	000001e0 alt_set_flash_width_func
0180677c g     F .text	0000017c __d2b
0180caa0 g     F .text	00000058 altera_avalon_jtag_uart_read_fd
018107dc g     F .text	000000b8 alt_get_fd
0180f088 g     F .text	0000012c alt_busy_sleep
0180a18c g     F .text	000000c8 __fpcmp_parts_d
01807b3c g     F .text	00000070 _close_r
0180fdd0 g     F .text	00000218 alt_erase_block_amd
018109bc g     F .text	00000074 memcmp
0180cb50 g     F .text	00000048 altera_avalon_jtag_uart_close_fd
0181341c g       *ABS*	00000000 __alt_stack_base
0180cb98 g     F .text	00000050 altera_avalon_jtag_uart_ioctl_fd
01800584 g     F .text	000000c4 smoothstep
01802c58 g     F .text	0000013c __swsetup_r
0180c218 g     F .text	000007ac alt_read_cfi_width
018092f8 g     F .text	00000258 __divdf3
01804960 g     F .text	000000f0 __sfp
018065e0 g     F .text	00000058 __copybits
01811810 g     O .rwdata	00000408 __malloc_av_
018047f4 g     F .text	00000004 __sinit_lock_release
01808f34 g     F .text	000003c4 __muldf3
018078f4 g     F .text	00000060 __sread
01810e0c g     O .rodata	00000010 __thenan_sf
018106bc g     F .text	00000120 alt_find_file
018002dc g     F .text	000000f8 Set_PWM_Duty_Cycle
0180f22c g     F .text	000000b4 alt_dev_llist_insert
0180a7ec g     F .text	00000020 __malloc_lock
0180aa0c g     F .text	000000bc sbrk
01804560 g     F .text	000001fc _fflush_r
01807a88 g     F .text	000000b4 _calloc_r
01813114 g     O .rwdata	00000008 alt_flash_dev_list
0180b824 g     F .text	00000044 alt_write_flash_command_16bit_device_16bit_mode
0181312c g       *ABS*	00000000 __bss_start
018060a8 g     F .text	00000098 memset
01800048 g     F .text	000000ac main
01813150 g     O .bss	00000004 alt_envp
01813140 g     O .bss	00000004 __malloc_max_total_mem
0180caf8 g     F .text	00000058 altera_avalon_jtag_uart_write_fd
0180e2f0 g     F .text	0000013c altera_avalon_lcd_16207_init
01807808 g     F .text	00000008 __sclose
02000000 g       *ABS*	00000000 __alt_heap_limit
01807cbc g     F .text	00000014 fclose
0181328c g     O .bss	00000190 _atexit0
01802fac g     F .text	000015b4 _dtoa_r
01805704 g     F .text	00000740 _malloc_r
01813108 g     O .rwdata	00000004 alt_errno
0180b8b0 g     F .text	00000048 alt_write_flash_command_32bit_device_32bit_mode
018053f4 g     F .text	000000b8 _fwalk
0180b20c g     F .text	00000164 alt_write_value_to_flash
0180b92c g     F .text	00000034 alt_write_native_16bit
01809bd8 g     F .text	00000060 __divsi3
02400000 g       *ABS*	00000000 __alt_mem_cfi_flash
01811118 g     O .rodata	00000014 __thenan_df
01804a50 g     F .text	0000012c _malloc_trim_r
01810de8 g       *ABS*	00000000 __CTOR_END__
01807954 g     F .text	000000bc strcmp
01810de8 g       *ABS*	00000000 __DTOR_LIST__
018095d8 g     F .text	00000088 __nedf2
0180ac78 g     F .text	00000034 alt_irq_init
0180a9ac g     F .text	00000060 alt_release_fd
01810e1c g     O .rodata	00000100 __clz_tab
01813134 g     O .bss	00000004 _PathLocale
01810970 g     F .text	00000014 atexit
01807a10 g     F .text	00000078 _write_r
01805554 g     F .text	0000001c setlocale
018130dc g     O .rwdata	00000004 _impure_ptr
01813148 g     O .bss	00000004 alt_argc
0180f3a4 g     F .text	00000064 _do_dtors
02808020 g       .exceptions	00000000 alt_irq_entry
018062fc g     F .text	00000080 __ulp
01807728 g     F .text	00000040 __isinfd
018048ac g     F .text	00000018 __fp_unlock_all
0180e42c g     F .text	00000058 altera_avalon_lcd_16207_write_fd
018130f4 g     O .rwdata	00000008 alt_fs_list
0180b7dc g     F .text	00000048 alt_write_flash_command_32bit_device_8bit_mode
018054c0 g     F .text	00000010 localeconv
0180f4d8 g     F .text	00000050 alt_ic_isr_register
0181312c g       *ABS*	00000000 _edata
0180e584 g     F .text	00000058 altera_avalon_uart_read_fd
0181341c g       *ABS*	00000000 _end
0180f408 g     F .text	0000007c alt_flash_open_dev
0180cff4 g     F .text	000000f4 altera_avalon_jtag_uart_ioctl
0180f5c4 g     F .text	000000a0 alt_ic_irq_disable
01807878 g     F .text	0000007c __swrite
018130ec g     O .rwdata	00000004 __malloc_trim_threshold
01810984 g     F .text	00000038 exit
0180532c g     F .text	000000c8 _fwalk_reent
018068f8 g     F .text	0000018c __mdiff
0180f484 g     F .text	00000054 alt_flash_close_dev
01809c38 g     F .text	00000060 __modsi3
02000000 g       *ABS*	00000000 __alt_data_end
02808020 g     F .exceptions	00000000 alt_exception
018047ec g     F .text	00000004 __sfp_lock_release
01800000 g       *ABS*	00000000 __alt_mem_sdram
01811180 g     O .rodata	00000101 _ctype_
0180ea1c g     F .text	00000060 altera_avalon_uart_close
01810d58 g     F .text	00000020 _exit
01807768 g     F .text	00000030 __isnand
0180ef34 g     F .text	00000154 alt_alarm_start
01809ca8 g     F .text	00000098 __muldi3
01805570 g     F .text	00000194 __smakebuf_r
0180b960 g     F .text	00000030 alt_write_native_32bit
01800cbc g     F .text	00000074 strlen
0180f9bc g     F .text	00000188 open
018096e8 g     F .text	00000088 __gedf2
0180b114 g     F .text	00000090 alt_flash_cfi_get_info
0181311c g     O .rwdata	00000004 alt_priority_mask
0180f528 g     F .text	0000009c alt_ic_irq_enable
01802c34 g     F .text	00000024 __vfprintf_internal
0180ea7c g     F .text	00000230 altera_avalon_uart_read
01808e40 g     F .text	00000080 __subdf3
018061d8 g     F .text	000000c4 __lo0bits
01813120 g     O .rwdata	00000008 alt_alarm_list
0180f340 g     F .text	00000064 _do_ctors
0180a254 g     F .text	000000fc close
0180fd68 g     F .text	00000068 alt_program_amd
01809d40 g     F .text	00000314 __pack_d
00000000  w      *UND*	00000000 free
018047f0 g     F .text	00000004 __sinit_lock_acquire
01806df4 g     F .text	00000100 __multadd
01806140 g     F .text	00000028 _Bfree



Disassembly of section .exceptions:

02808020 <alt_exception>:
         * Process an exception.  For all exceptions we must preserve all
         * caller saved registers on the stack (See the Nios2 ABI
         * documentation for details).
         */

        addi  sp, sp, -76
 2808020:	deffed04 	addi	sp,sp,-76

#endif

#endif

        stw   ra,  0(sp)
 2808024:	dfc00015 	stw	ra,0(sp)
        /*
         * Leave a gap in the stack frame at 4(sp) for the muldiv handler to
         * store zero into.
         */

        stw   r1,   8(sp)
 2808028:	d8400215 	stw	at,8(sp)
        stw   r2,  12(sp)
 280802c:	d8800315 	stw	r2,12(sp)
        stw   r3,  16(sp)
 2808030:	d8c00415 	stw	r3,16(sp)
        stw   r4,  20(sp)
 2808034:	d9000515 	stw	r4,20(sp)
        stw   r5,  24(sp)
 2808038:	d9400615 	stw	r5,24(sp)
        stw   r6,  28(sp)
 280803c:	d9800715 	stw	r6,28(sp)
        stw   r7,  32(sp)
 2808040:	d9c00815 	stw	r7,32(sp)

        rdctl r5, estatus
 2808044:	000b307a 	rdctl	r5,estatus

        stw   r8,  36(sp)
 2808048:	da000915 	stw	r8,36(sp)
        stw   r9,  40(sp)
 280804c:	da400a15 	stw	r9,40(sp)
        stw   r10, 44(sp)
 2808050:	da800b15 	stw	r10,44(sp)
        stw   r11, 48(sp)
 2808054:	dac00c15 	stw	r11,48(sp)
        stw   r12, 52(sp)
 2808058:	db000d15 	stw	r12,52(sp)
        stw   r13, 56(sp)
 280805c:	db400e15 	stw	r13,56(sp)
        stw   r14, 60(sp)
 2808060:	db800f15 	stw	r14,60(sp)
        stw   r15, 64(sp)
 2808064:	dbc01015 	stw	r15,64(sp)
        /*
         * ea-4 contains the address of the instruction being executed
         * when the exception occured. For interrupt exceptions, we will
         * will be re-issue the isntruction. Store it in 72(sp)
         */
        stw   r5,  68(sp)  /* estatus */
 2808068:	d9401115 	stw	r5,68(sp)
        addi  r15, ea, -4  /* instruction that caused exception */
 280806c:	ebffff04 	addi	r15,ea,-4
        stw   r15,  72(sp)
 2808070:	dbc01215 	stw	r15,72(sp)
#else
        /*
         * Test to see if the exception was a software exception or caused 
         * by an external interrupt, and vector accordingly.
         */
        rdctl r4, ipending
 2808074:	0009313a 	rdctl	r4,ipending
        andi  r2, r5, 1
 2808078:	2880004c 	andi	r2,r5,1
        beq   r2, zero, .Lnot_irq
 280807c:	10000326 	beq	r2,zero,280808c <alt_exception+0x6c>
        beq   r4, zero, .Lnot_irq
 2808080:	20000226 	beq	r4,zero,280808c <alt_exception+0x6c>
        /*
         * Now that all necessary registers have been preserved, call 
         * alt_irq_handler() to process the interrupts.
         */

        call alt_irq_handler
 2808084:	28080fc0 	call	28080fc <alt_irq_handler>

        .section .exceptions.irqreturn, "xa"

        br    .Lexception_exit
 2808088:	00000706 	br	28080a8 <alt_exception+0x88>
         * upon completion, so we write ea (address of instruction *after*
         * the one where the exception occured) into 72(sp). The actual
         * instruction that caused the exception is written in r2, which these
         * handlers will utilize.
         */
        stw   ea,  72(sp)  /* Don't re-issue */
 280808c:	df401215 	stw	ea,72(sp)
        ldw   r2, -4(ea)   /* Instruction that caused exception */
 2808090:	e8bfff17 	ldw	r2,-4(ea)
         * debugger is present) or go into an infinite loop since the
         * handling behavior is undefined; in that case we will not return here.
         */

        /* Load exception-causing address as first argument (r4) */
        addi   r4, ea, -4
 2808094:	e93fff04 	addi	r4,ea,-4

        /* Call the instruction-exception entry */
        call   alt_instruction_exception_entry
 2808098:	28081c40 	call	28081c4 <alt_instruction_exception_entry>
         * instruction
         *
         * Return code was 0: Skip. The instruction after the exception is
         * already stored in 72(sp).
         */
        bne   r2, r0, .Lexception_exit
 280809c:	1000021e 	bne	r2,zero,28080a8 <alt_exception+0x88>

        /*
         * Otherwise, modify 72(sp) to re-issue the instruction that caused the
         * exception.
         */
        addi  r15, ea, -4  /* instruction that caused exception */
 28080a0:	ebffff04 	addi	r15,ea,-4
        stw   r15,  72(sp)
 28080a4:	dbc01215 	stw	r15,72(sp)
        /* 
         * Restore the saved registers, so that all general purpose registers 
         * have been restored to their state at the time the interrupt occured.
         */

        ldw   r5,  68(sp)
 28080a8:	d9401117 	ldw	r5,68(sp)
        ldw   ea,  72(sp)  /* This becomes the PC once eret is executed */
 28080ac:	df401217 	ldw	ea,72(sp)
        ldw   ra,   0(sp)
 28080b0:	dfc00017 	ldw	ra,0(sp)

        wrctl estatus, r5
 28080b4:	2801707a 	wrctl	estatus,r5

        ldw   r1,   8(sp)
 28080b8:	d8400217 	ldw	at,8(sp)
        ldw   r2,  12(sp)
 28080bc:	d8800317 	ldw	r2,12(sp)
        ldw   r3,  16(sp)
 28080c0:	d8c00417 	ldw	r3,16(sp)
        ldw   r4,  20(sp)
 28080c4:	d9000517 	ldw	r4,20(sp)
        ldw   r5,  24(sp)
 28080c8:	d9400617 	ldw	r5,24(sp)
        ldw   r6,  28(sp)
 28080cc:	d9800717 	ldw	r6,28(sp)
        ldw   r7,  32(sp)
 28080d0:	d9c00817 	ldw	r7,32(sp)
#ifdef ALT_STACK_CHECK
        ldw   et, %gprel(alt_exception_old_stack_limit)(gp)
#endif
#endif

        ldw   r8,  36(sp)
 28080d4:	da000917 	ldw	r8,36(sp)
        ldw   r9,  40(sp)
 28080d8:	da400a17 	ldw	r9,40(sp)
        ldw   r10, 44(sp)
 28080dc:	da800b17 	ldw	r10,44(sp)
        ldw   r11, 48(sp)
 28080e0:	dac00c17 	ldw	r11,48(sp)
        ldw   r12, 52(sp)
 28080e4:	db000d17 	ldw	r12,52(sp)
        ldw   r13, 56(sp)
 28080e8:	db400e17 	ldw	r13,56(sp)
        ldw   r14, 60(sp)
 28080ec:	db800f17 	ldw	r14,60(sp)
        ldw   r15, 64(sp)
 28080f0:	dbc01017 	ldw	r15,64(sp)
#endif

        ldw   sp,  76(sp)

#else
        addi  sp, sp, 76
 28080f4:	dec01304 	addi	sp,sp,76

        /*
         * Return to the interrupted instruction.
         */

        eret
 28080f8:	ef80083a 	eret

028080fc <alt_irq_handler>:
 * instruction is present if the macro ALT_CI_INTERRUPT_VECTOR defined.
 */

void alt_irq_handler (void) __attribute__ ((section (".exceptions")));
void alt_irq_handler (void)
{
 28080fc:	defff904 	addi	sp,sp,-28
 2808100:	dfc00615 	stw	ra,24(sp)
 2808104:	df000515 	stw	fp,20(sp)
 2808108:	df000504 	addi	fp,sp,20
#ifndef NIOS2_EIC_PRESENT
static ALT_INLINE alt_u32 ALT_ALWAYS_INLINE alt_irq_pending (void)
{
  alt_u32 active;

  NIOS2_READ_IPENDING (active);
 280810c:	0005313a 	rdctl	r2,ipending
 2808110:	e0bffc15 	stw	r2,-16(fp)

  return active;
 2808114:	e0bffc17 	ldw	r2,-16(fp)
   * Consider the case where the high priority interupt is asserted during
   * the interrupt entry sequence for a lower priority interrupt to see why
   * this is the case.
   */

  active = alt_irq_pending ();
 2808118:	e0bfff15 	stw	r2,-4(fp)

  do
  {
    i = 0;
 280811c:	e03ffd15 	stw	zero,-12(fp)
    mask = 1;
 2808120:	00800044 	movi	r2,1
 2808124:	e0bffe15 	stw	r2,-8(fp)
     * called to clear the interrupt condition.
     */

    do
    {
      if (active & mask)
 2808128:	e0ffff17 	ldw	r3,-4(fp)
 280812c:	e0bffe17 	ldw	r2,-8(fp)
 2808130:	1884703a 	and	r2,r3,r2
 2808134:	1005003a 	cmpeq	r2,r2,zero
 2808138:	1000161e 	bne	r2,zero,2808194 <alt_irq_handler+0x98>
      { 
#ifdef ALT_ENHANCED_INTERRUPT_API_PRESENT
        alt_irq[i].handler(alt_irq[i].context); 
 280813c:	e0bffd17 	ldw	r2,-12(fp)
 2808140:	00c06074 	movhi	r3,385
 2808144:	18cc6304 	addi	r3,r3,12684
 2808148:	100490fa 	slli	r2,r2,3
 280814c:	10c5883a 	add	r2,r2,r3
 2808150:	11400017 	ldw	r5,0(r2)
 2808154:	e0bffd17 	ldw	r2,-12(fp)
 2808158:	00c06074 	movhi	r3,385
 280815c:	18cc6304 	addi	r3,r3,12684
 2808160:	100490fa 	slli	r2,r2,3
 2808164:	10c5883a 	add	r2,r2,r3
 2808168:	10800104 	addi	r2,r2,4
 280816c:	11000017 	ldw	r4,0(r2)
 2808170:	283ee83a 	callr	r5
#ifndef NIOS2_EIC_PRESENT
static ALT_INLINE alt_u32 ALT_ALWAYS_INLINE alt_irq_pending (void)
{
  alt_u32 active;

  NIOS2_READ_IPENDING (active);
 2808174:	0005313a 	rdctl	r2,ipending
 2808178:	e0bffb15 	stw	r2,-20(fp)

  return active;
 280817c:	e0bffb17 	ldw	r2,-20(fp)
      mask <<= 1;
      i++;

    } while (1);

    active = alt_irq_pending ();
 2808180:	e0bfff15 	stw	r2,-4(fp)
    
  } while (active);
 2808184:	e0bfff17 	ldw	r2,-4(fp)
 2808188:	1004c03a 	cmpne	r2,r2,zero
 280818c:	103fe31e 	bne	r2,zero,280811c <alt_irq_handler+0x20>
 2808190:	00000706 	br	28081b0 <alt_irq_handler+0xb4>
#else
        alt_irq[i].handler(alt_irq[i].context, i); 
#endif
        break;
      }
      mask <<= 1;
 2808194:	e0bffe17 	ldw	r2,-8(fp)
 2808198:	1085883a 	add	r2,r2,r2
 280819c:	e0bffe15 	stw	r2,-8(fp)
      i++;
 28081a0:	e0bffd17 	ldw	r2,-12(fp)
 28081a4:	10800044 	addi	r2,r2,1
 28081a8:	e0bffd15 	stw	r2,-12(fp)

    } while (1);
 28081ac:	003fde06 	br	2808128 <alt_irq_handler+0x2c>
  /*
   * Notify the operating system that interrupt processing is complete.
   */ 

  ALT_OS_INT_EXIT();
}
 28081b0:	e037883a 	mov	sp,fp
 28081b4:	dfc00117 	ldw	ra,4(sp)
 28081b8:	df000017 	ldw	fp,0(sp)
 28081bc:	dec00204 	addi	sp,sp,8
 28081c0:	f800283a 	ret

028081c4 <alt_instruction_exception_entry>:
 * using alt_instruction_exception_register(). This routine will call
 * that handler if it has been registered. Absent a handler, it will
 * break break or hang as discussed below.
 */
int alt_instruction_exception_entry (alt_u32 exception_pc)
{
 28081c4:	defffa04 	addi	sp,sp,-24
 28081c8:	dfc00515 	stw	ra,20(sp)
 28081cc:	df000415 	stw	fp,16(sp)
 28081d0:	df000404 	addi	fp,sp,16
 28081d4:	e13ffe15 	stw	r4,-8(fp)
  cause = ( (cause & NIOS2_EXCEPTION_REG_CAUSE_MASK) >>
              NIOS2_EXCEPTION_REG_CAUSE_OFST );

  NIOS2_READ_BADADDR(badaddr);
#else
  cause = NIOS2_EXCEPTION_CAUSE_NOT_PRESENT;
 28081d8:	00bfffc4 	movi	r2,-1
 28081dc:	e0bffd15 	stw	r2,-12(fp)
  badaddr = 0;
 28081e0:	e03ffc15 	stw	zero,-16(fp)
#endif /* NIOS2_HAS_EXTRA_EXCEPTION_INFO */

  if(alt_instruction_exception_handler) {
 28081e4:	d0a02117 	ldw	r2,-32636(gp)
 28081e8:	1005003a 	cmpeq	r2,r2,zero
 28081ec:	1000071e 	bne	r2,zero,280820c <alt_instruction_exception_entry+0x48>
     * Call handler. Its return value indicates whether the exception-causing
     * instruction should be re-issued. The code that called us,
     * alt_eceptions_entry.S, will look at this value and adjust the ea
     * register as necessary
     */
    return alt_instruction_exception_handler(cause, exception_pc, badaddr);
 28081f0:	d0a02117 	ldw	r2,-32636(gp)
 28081f4:	e13ffd17 	ldw	r4,-12(fp)
 28081f8:	e17ffe17 	ldw	r5,-8(fp)
 28081fc:	e1bffc17 	ldw	r6,-16(fp)
 2808200:	103ee83a 	callr	r2
 2808204:	e0bfff15 	stw	r2,-4(fp)
 2808208:	00000206 	br	2808214 <alt_instruction_exception_entry+0x50>
   *    (a peripheral which negates its interrupt output before its
   *    interrupt handler has been executed will cause spurious interrupts)
   */
  else {
#ifdef NIOS2_HAS_DEBUG_STUB
    NIOS2_BREAK();
 280820c:	003da03a 	break	0
      ;
#endif /* NIOS2_HAS_DEBUG_STUB */
  }

  /* // We should not get here. Remove compiler warning. */
  return NIOS2_EXCEPTION_RETURN_REISSUE_INST;
 2808210:	e03fff15 	stw	zero,-4(fp)
 2808214:	e0bfff17 	ldw	r2,-4(fp)
}
 2808218:	e037883a 	mov	sp,fp
 280821c:	dfc00117 	ldw	ra,4(sp)
 2808220:	df000017 	ldw	fp,0(sp)
 2808224:	dec00204 	addi	sp,sp,8
 2808228:	f800283a 	ret

Disassembly of section .text:

01800000 <_start>:

    /* Assume the data cache size is always a power of two. */
#if NIOS2_DCACHE_SIZE > 0x8000
    movhi r2, %hi(NIOS2_DCACHE_SIZE)
#else
    movui r2, NIOS2_DCACHE_SIZE
 1800000:	00840014 	movui	r2,4096
#endif

0:
    initd 0(r2)
 1800004:	10000033 	initd	0(r2)
    addi r2, r2, -NIOS2_DCACHE_LINE_SIZE
 1800008:	10bff804 	addi	r2,r2,-32
    bgt r2, zero, 0b
 180000c:	00bffd16 	blt	zero,r2,1800004 <_start+0x4>
#if (NIOS2_NUM_OF_SHADOW_REG_SETS == 0)    
    /*
     * Now that the caches are initialized, set up the stack pointer.
     * The value provided by the linker is assumed to be correctly aligned.
     */
    movhi sp, %hi(__alt_stack_pointer)
 1800010:	06c08034 	movhi	sp,512
    ori sp, sp, %lo(__alt_stack_pointer)
 1800014:	dec00014 	ori	sp,sp,0

    /* Set up the global pointer. */
    movhi gp, %hi(_gp)
 1800018:	06806074 	movhi	gp,385
    ori gp, gp, %lo(_gp)
 180001c:	d6ac3714 	ori	gp,gp,45276
 */
#ifndef ALT_SIM_OPTIMIZE
    /* Log that the BSS is about to be cleared. */
    ALT_LOG_PUTS(alt_log_msg_bss)

    movhi r2, %hi(__bss_start)
 1800020:	00806074 	movhi	r2,385
    ori r2, r2, %lo(__bss_start)
 1800024:	108c4b14 	ori	r2,r2,12588

    movhi r3, %hi(__bss_end)
 1800028:	00c06074 	movhi	r3,385
    ori r3, r3, %lo(__bss_end)
 180002c:	18cd0714 	ori	r3,r3,13340

    beq r2, r3, 1f
 1800030:	10c00326 	beq	r2,r3,1800040 <_start+0x40>

0:
    stw zero, (r2)
 1800034:	10000015 	stw	zero,0(r2)
    addi r2, r2, 4
 1800038:	10800104 	addi	r2,r2,4
    bltu r2, r3, 0b
 180003c:	10fffd36 	bltu	r2,r3,1800034 <_start+0x34>

    /* Log that alt_main is about to be called. */
    ALT_LOG_PUTS(alt_log_msg_alt_main)

    /* Call the C entry point. It should never return. */
    call alt_main
 1800040:	180a7800 	call	180a780 <alt_main>

01800044 <alt_after_alt_main>:

    /* Wait in infinite loop in case alt_main does return. */
alt_after_alt_main:
    br alt_after_alt_main
 1800044:	003fff06 	br	1800044 <alt_after_alt_main>

01800048 <main>:
#include <stdlib.h>
#include <unistd.h> // usleep()
#include "pwm.h"
#include "utilities.h"

int main() {
 1800048:	defffb04 	addi	sp,sp,-20
 180004c:	dfc00415 	stw	ra,16(sp)
 1800050:	df000315 	stw	fp,12(sp)
 1800054:	df000304 	addi	fp,sp,12
	printf("lololol lolol\n");
 1800058:	01006074 	movhi	r4,385
 180005c:	21037a04 	addi	r4,r4,3560
 1800060:	1800ca80 	call	1800ca8 <puts>
	//Initilise_PWM('G');
	Initilise_PWM('W');
 1800064:	010015c4 	movi	r4,87
 1800068:	18000f40 	call	18000f4 <Initilise_PWM>
	//Initilise_PWM('E');
	//Initilise_PWM('S');
	//Initilise_PWM('B');
	printf("initialise\n");
 180006c:	01006074 	movhi	r4,385
 1800070:	21037e04 	addi	r4,r4,3576
 1800074:	1800ca80 	call	1800ca8 <puts>
	int interpolations = 100;
 1800078:	00801904 	movi	r2,100
 180007c:	e0bfff15 	stw	r2,-4(fp)
	int X = 0;
 1800080:	e03ffe15 	stw	zero,-8(fp)
	int i;

	while (1) {
		for (i = 0; i < interpolations; i++) {
 1800084:	e03ffd15 	stw	zero,-12(fp)
 1800088:	00001306 	br	18000d8 <main+0x90>
			X = smoothstep(-45, 45, interpolations, i);
 180008c:	013ff4c4 	movi	r4,-45
 1800090:	01400b44 	movi	r5,45
 1800094:	e1bfff17 	ldw	r6,-4(fp)
 1800098:	e1fffd17 	ldw	r7,-12(fp)
 180009c:	18005840 	call	1800584 <smoothstep>
 18000a0:	e0bffe15 	stw	r2,-8(fp)
			printf("%d,%d \n", i, X);
 18000a4:	01006074 	movhi	r4,385
 18000a8:	21038104 	addi	r4,r4,3588
 18000ac:	e17ffd17 	ldw	r5,-12(fp)
 18000b0:	e1bffe17 	ldw	r6,-8(fp)
 18000b4:	1800b900 	call	1800b90 <printf>
			Set_Servo_Position('W', X);
 18000b8:	010015c4 	movi	r4,87
 18000bc:	e17ffe17 	ldw	r5,-8(fp)
 18000c0:	18003d40 	call	18003d4 <Set_Servo_Position>
			usleep(10000);
 18000c4:	0109c404 	movi	r4,10000
 18000c8:	180aac80 	call	180aac8 <usleep>
	int interpolations = 100;
	int X = 0;
	int i;

	while (1) {
		for (i = 0; i < interpolations; i++) {
 18000cc:	e0bffd17 	ldw	r2,-12(fp)
 18000d0:	10800044 	addi	r2,r2,1
 18000d4:	e0bffd15 	stw	r2,-12(fp)
 18000d8:	e0fffd17 	ldw	r3,-12(fp)
 18000dc:	e0bfff17 	ldw	r2,-4(fp)
 18000e0:	18bfea16 	blt	r3,r2,180008c <main+0x44>
			X = smoothstep(-45, 45, interpolations, i);
			printf("%d,%d \n", i, X);
			Set_Servo_Position('W', X);
			usleep(10000);
		}
		usleep(200000);
 18000e4:	010000f4 	movhi	r4,3
 18000e8:	21035004 	addi	r4,r4,3392
 18000ec:	180aac80 	call	180aac8 <usleep>
//			Set_Servo_Position('W', X);
//			usleep(10000);
//		}
////		usleep(200000);

	}
 18000f0:	003fe406 	br	1800084 <main+0x3c>

018000f4 <Initilise_PWM>:
 *  Description : This module runs the start up sequence for whichever PWM module is specified
 *                by the input variable
 *
 **************************************************************************************************/
int Initilise_PWM(char Module_To_Initilise)
{
 18000f4:	defffd04 	addi	sp,sp,-12
 18000f8:	df000215 	stw	fp,8(sp)
 18000fc:	df000204 	addi	fp,sp,8
 1800100:	e13ffe05 	stb	r4,-8(fp)
    switch (Module_To_Initilise)
 1800104:	e0bffe07 	ldb	r2,-8(fp)
 1800108:	10bfef84 	addi	r2,r2,-66
 180010c:	e0bfff15 	stw	r2,-4(fp)
 1800110:	e0ffff17 	ldw	r3,-4(fp)
 1800114:	188005a8 	cmpgeui	r2,r3,22
 1800118:	10006b1e 	bne	r2,zero,18002c8 <Initilise_PWM+0x1d4>
 180011c:	e13fff17 	ldw	r4,-4(fp)
 1800120:	e13fff17 	ldw	r4,-4(fp)
 1800124:	2105883a 	add	r2,r4,r4
 1800128:	1087883a 	add	r3,r2,r2
 180012c:	00806034 	movhi	r2,384
 1800130:	10805004 	addi	r2,r2,320
 1800134:	1885883a 	add	r2,r3,r2
 1800138:	10800017 	ldw	r2,0(r2)
 180013c:	1000683a 	jmp	r2
 1800140:	01800198 	cmpnei	r6,zero,6
 1800144:	018002c8 	cmpgei	r6,zero,11
 1800148:	018002c8 	cmpgei	r6,zero,11
 180014c:	01800230 	cmpltui	r6,zero,8
 1800150:	018002c8 	cmpgei	r6,zero,11
 1800154:	01800298 	cmpnei	r6,zero,10
 1800158:	018002c8 	cmpgei	r6,zero,11
 180015c:	018002c8 	cmpgei	r6,zero,11
 1800160:	018002c8 	cmpgei	r6,zero,11
 1800164:	018002c8 	cmpgei	r6,zero,11
 1800168:	018002c8 	cmpgei	r6,zero,11
 180016c:	018002c8 	cmpgei	r6,zero,11
 1800170:	018002c8 	cmpgei	r6,zero,11
 1800174:	018002c8 	cmpgei	r6,zero,11
 1800178:	018002c8 	cmpgei	r6,zero,11
 180017c:	018002c8 	cmpgei	r6,zero,11
 1800180:	018002c8 	cmpgei	r6,zero,11
 1800184:	018001cc 	andi	r6,zero,7
 1800188:	018002c8 	cmpgei	r6,zero,11
 180018c:	018002c8 	cmpgei	r6,zero,11
 1800190:	018002c8 	cmpgei	r6,zero,11
 1800194:	01800264 	muli	r6,zero,9
    {
        case 'B' :
            IOWR_ALTERA_AVALON_PWM_CLK_DIV(MY_PWM_5_BASE, 50);
 1800198:	00c07904 	movi	r3,484
 180019c:	00800c84 	movi	r2,50
 18001a0:	18800035 	stwio	r2,0(r3)
            IOWR_ALTERA_AVALON_PWM_DUTY(MY_PWM_5_BASE, 50);
 18001a4:	00c07804 	movi	r3,480
 18001a8:	00800c84 	movi	r2,50
 18001ac:	18800035 	stwio	r2,0(r3)
            IOWR_ALTERA_AVALON_PWM_PERIOD(MY_PWM_5_BASE, 2000);
 18001b0:	00c07a04 	movi	r3,488
 18001b4:	0081f404 	movi	r2,2000
 18001b8:	18800035 	stwio	r2,0(r3)
            IOWR_ALTERA_AVALON_PWM_CONTROL(MY_PWM_5_BASE, 1);
 18001bc:	00c07b04 	movi	r3,492
 18001c0:	00800044 	movi	r2,1
 18001c4:	18800035 	stwio	r2,0(r3)
            break;
 18001c8:	00003f06 	br	18002c8 <Initilise_PWM+0x1d4>

        case 'S' :
            IOWR_ALTERA_AVALON_PWM_CLK_DIV(MY_PWM_3_BASE, 50);
 18001cc:	00c07104 	movi	r3,452
 18001d0:	00800c84 	movi	r2,50
 18001d4:	18800035 	stwio	r2,0(r3)
            IOWR_ALTERA_AVALON_PWM_DUTY(MY_PWM_3_BASE, 50);
 18001d8:	00c07004 	movi	r3,448
 18001dc:	00800c84 	movi	r2,50
 18001e0:	18800035 	stwio	r2,0(r3)
            IOWR_ALTERA_AVALON_PWM_PERIOD(MY_PWM_3_BASE, 2000);
 18001e4:	00c07204 	movi	r3,456
 18001e8:	0081f404 	movi	r2,2000
 18001ec:	18800035 	stwio	r2,0(r3)
            IOWR_ALTERA_AVALON_PWM_CONTROL(MY_PWM_3_BASE, 1);
 18001f0:	00c07304 	movi	r3,460
 18001f4:	00800044 	movi	r2,1
 18001f8:	18800035 	stwio	r2,0(r3)

            IOWR_ALTERA_AVALON_PWM_CLK_DIV(MY_PWM_4_BASE, 50);
 18001fc:	00c07504 	movi	r3,468
 1800200:	00800c84 	movi	r2,50
 1800204:	18800035 	stwio	r2,0(r3)
            IOWR_ALTERA_AVALON_PWM_DUTY(MY_PWM_4_BASE, 50);
 1800208:	00c07404 	movi	r3,464
 180020c:	00800c84 	movi	r2,50
 1800210:	18800035 	stwio	r2,0(r3)
            IOWR_ALTERA_AVALON_PWM_PERIOD(MY_PWM_4_BASE, 2000);
 1800214:	00c07604 	movi	r3,472
 1800218:	0081f404 	movi	r2,2000
 180021c:	18800035 	stwio	r2,0(r3)
            IOWR_ALTERA_AVALON_PWM_CONTROL(MY_PWM_4_BASE, 1);
 1800220:	00c07704 	movi	r3,476
 1800224:	00800044 	movi	r2,1
 1800228:	18800035 	stwio	r2,0(r3)
            break;
 180022c:	00002606 	br	18002c8 <Initilise_PWM+0x1d4>

        case 'E' :
            IOWR_ALTERA_AVALON_PWM_CLK_DIV(MY_PWM_2_BASE, 50);
 1800230:	00c06d04 	movi	r3,436
 1800234:	00800c84 	movi	r2,50
 1800238:	18800035 	stwio	r2,0(r3)
            IOWR_ALTERA_AVALON_PWM_DUTY(MY_PWM_2_BASE, 50);
 180023c:	00c06c04 	movi	r3,432
 1800240:	00800c84 	movi	r2,50
 1800244:	18800035 	stwio	r2,0(r3)
            IOWR_ALTERA_AVALON_PWM_PERIOD(MY_PWM_2_BASE, 2000);
 1800248:	00c06e04 	movi	r3,440
 180024c:	0081f404 	movi	r2,2000
 1800250:	18800035 	stwio	r2,0(r3)
            IOWR_ALTERA_AVALON_PWM_CONTROL(MY_PWM_2_BASE, 1);
 1800254:	00c06f04 	movi	r3,444
 1800258:	00800044 	movi	r2,1
 180025c:	18800035 	stwio	r2,0(r3)
            break;
 1800260:	00001906 	br	18002c8 <Initilise_PWM+0x1d4>

        case 'W' :
            IOWR_ALTERA_AVALON_PWM_CLK_DIV(MY_PWM_1_BASE, 50);
 1800264:	00c06904 	movi	r3,420
 1800268:	00800c84 	movi	r2,50
 180026c:	18800035 	stwio	r2,0(r3)
            IOWR_ALTERA_AVALON_PWM_DUTY(MY_PWM_1_BASE, 50);
 1800270:	00c06804 	movi	r3,416
 1800274:	00800c84 	movi	r2,50
 1800278:	18800035 	stwio	r2,0(r3)
            IOWR_ALTERA_AVALON_PWM_PERIOD(MY_PWM_1_BASE, 2000);
 180027c:	00c06a04 	movi	r3,424
 1800280:	0081f404 	movi	r2,2000
 1800284:	18800035 	stwio	r2,0(r3)
            IOWR_ALTERA_AVALON_PWM_CONTROL(MY_PWM_1_BASE, 1);
 1800288:	00c06b04 	movi	r3,428
 180028c:	00800044 	movi	r2,1
 1800290:	18800035 	stwio	r2,0(r3)
            break;
 1800294:	00000c06 	br	18002c8 <Initilise_PWM+0x1d4>

        case 'G' :
            IOWR_ALTERA_AVALON_PWM_CLK_DIV(MY_PWM_0_BASE,50);//100
 1800298:	00c06504 	movi	r3,404
 180029c:	00800c84 	movi	r2,50
 18002a0:	18800035 	stwio	r2,0(r3)
            IOWR_ALTERA_AVALON_PWM_DUTY(MY_PWM_0_BASE, 50);
 18002a4:	00c06404 	movi	r3,400
 18002a8:	00800c84 	movi	r2,50
 18002ac:	18800035 	stwio	r2,0(r3)
            IOWR_ALTERA_AVALON_PWM_PERIOD(MY_PWM_0_BASE, 2000);//1000
 18002b0:	00c06604 	movi	r3,408
 18002b4:	0081f404 	movi	r2,2000
 18002b8:	18800035 	stwio	r2,0(r3)
            IOWR_ALTERA_AVALON_PWM_CONTROL(MY_PWM_0_BASE, 1);
 18002bc:	00c06704 	movi	r3,412
 18002c0:	00800044 	movi	r2,1
 18002c4:	18800035 	stwio	r2,0(r3)

            default :
            	break;
                return 0;
    }
    return 1;
 18002c8:	00800044 	movi	r2,1
}
 18002cc:	e037883a 	mov	sp,fp
 18002d0:	df000017 	ldw	fp,0(sp)
 18002d4:	dec00104 	addi	sp,sp,4
 18002d8:	f800283a 	ret

018002dc <Set_PWM_Duty_Cycle>:
 *
 *  Description : This module updates the duty cycle for the selected PWM module
 *
 **************************************************************************************************/
int Set_PWM_Duty_Cycle ( int Channel, int Duty_Cycle)
{
 18002dc:	defffb04 	addi	sp,sp,-20
 18002e0:	df000415 	stw	fp,16(sp)
 18002e4:	df000404 	addi	fp,sp,16
 18002e8:	e13ffd15 	stw	r4,-12(fp)
 18002ec:	e17ffe15 	stw	r5,-8(fp)
    //get address of PWM Channel

    int Address = 0;
 18002f0:	e03ffc15 	stw	zero,-16(fp)

    switch (Channel)
 18002f4:	e0bffd17 	ldw	r2,-12(fp)
 18002f8:	108001e8 	cmpgeui	r2,r2,7
 18002fc:	1000211e 	bne	r2,zero,1800384 <Set_PWM_Duty_Cycle+0xa8>
 1800300:	e0bffd17 	ldw	r2,-12(fp)
 1800304:	1085883a 	add	r2,r2,r2
 1800308:	1087883a 	add	r3,r2,r2
 180030c:	00806034 	movhi	r2,384
 1800310:	1080c804 	addi	r2,r2,800
 1800314:	1885883a 	add	r2,r3,r2
 1800318:	10800017 	ldw	r2,0(r2)
 180031c:	1000683a 	jmp	r2
 1800320:	01800384 	movi	r6,14
 1800324:	0180033c 	xorhi	r6,zero,12
 1800328:	01800348 	cmpgei	r6,zero,13
 180032c:	01800354 	movui	r6,13
 1800330:	01800360 	cmpeqi	r6,zero,13
 1800334:	0180036c 	andhi	r6,zero,13
 1800338:	01800378 	rdprs	r6,zero,13
    {
        case 1 :
            Address = MY_PWM_0_BASE;
 180033c:	00806404 	movi	r2,400
 1800340:	e0bffc15 	stw	r2,-16(fp)
            break;
 1800344:	00001106 	br	180038c <Set_PWM_Duty_Cycle+0xb0>
        case 2 :
            Address = MY_PWM_1_BASE;
 1800348:	00806804 	movi	r2,416
 180034c:	e0bffc15 	stw	r2,-16(fp)
            break;
 1800350:	00000e06 	br	180038c <Set_PWM_Duty_Cycle+0xb0>
        case 3 :
            Address = MY_PWM_2_BASE;
 1800354:	00806c04 	movi	r2,432
 1800358:	e0bffc15 	stw	r2,-16(fp)
            break;
 180035c:	00000b06 	br	180038c <Set_PWM_Duty_Cycle+0xb0>
        case 4 :
            Address = MY_PWM_3_BASE;
 1800360:	00807004 	movi	r2,448
 1800364:	e0bffc15 	stw	r2,-16(fp)
            break;
 1800368:	00000806 	br	180038c <Set_PWM_Duty_Cycle+0xb0>
        case 5 :
            Address = MY_PWM_4_BASE;
 180036c:	00807404 	movi	r2,464
 1800370:	e0bffc15 	stw	r2,-16(fp)
            break;
 1800374:	00000506 	br	180038c <Set_PWM_Duty_Cycle+0xb0>
        case 6 :
            Address = MY_PWM_5_BASE;
 1800378:	00807804 	movi	r2,480
 180037c:	e0bffc15 	stw	r2,-16(fp)
            break;
 1800380:	00000206 	br	180038c <Set_PWM_Duty_Cycle+0xb0>
        default :
            //unrecognised channal selected
            return 0;
 1800384:	e03fff15 	stw	zero,-4(fp)
 1800388:	00000d06 	br	18003c0 <Set_PWM_Duty_Cycle+0xe4>

    }

    //check the desired PWM module is active
    if(IORD_ALTERA_AVALON_PWM_CONTROL(Address) == 0)
 180038c:	e0bffc17 	ldw	r2,-16(fp)
 1800390:	10800304 	addi	r2,r2,12
 1800394:	10800037 	ldwio	r2,0(r2)
 1800398:	1004c03a 	cmpne	r2,r2,zero
 180039c:	1000021e 	bne	r2,zero,18003a8 <Set_PWM_Duty_Cycle+0xcc>
    {
        return 0;
 18003a0:	e03fff15 	stw	zero,-4(fp)
 18003a4:	00000606 	br	18003c0 <Set_PWM_Duty_Cycle+0xe4>

    //check duty cycle is within bounds (0-100)
    //if(Duty_Cycle > 125) Duty_Cycle = 125;
    //if(Duty_Cycle < 25) Duty_Cycle = 0;
    //set the channel to the desired Duty Cycle
    IOWR_ALTERA_AVALON_PWM_DUTY(Address, Duty_Cycle);
 18003a8:	e0bffc17 	ldw	r2,-16(fp)
 18003ac:	1007883a 	mov	r3,r2
 18003b0:	e0bffe17 	ldw	r2,-8(fp)
 18003b4:	18800035 	stwio	r2,0(r3)

    return 1;
 18003b8:	00800044 	movi	r2,1
 18003bc:	e0bfff15 	stw	r2,-4(fp)
 18003c0:	e0bfff17 	ldw	r2,-4(fp)
}
 18003c4:	e037883a 	mov	sp,fp
 18003c8:	df000017 	ldw	fp,0(sp)
 18003cc:	dec00104 	addi	sp,sp,4
 18003d0:	f800283a 	ret

018003d4 <Set_Servo_Position>:
 *
 *  Description : This module updates the duty cycle for the selected PWM module
 *
 **************************************************************************************************/
int Set_Servo_Position (char Servo, int Position)
{
 18003d4:	defff804 	addi	sp,sp,-32
 18003d8:	dfc00715 	stw	ra,28(sp)
 18003dc:	df000615 	stw	fp,24(sp)
 18003e0:	df000604 	addi	fp,sp,24
 18003e4:	e17ffd15 	stw	r5,-12(fp)
 18003e8:	e13ffc05 	stb	r4,-16(fp)
	int pulseWidth = map(Position,-90,90,50,250);
 18003ec:	00803e84 	movi	r2,250
 18003f0:	d8800015 	stw	r2,0(sp)
 18003f4:	e13ffd17 	ldw	r4,-12(fp)
 18003f8:	017fe984 	movi	r5,-90
 18003fc:	01801684 	movi	r6,90
 1800400:	01c00c84 	movi	r7,50
 1800404:	18005240 	call	1800524 <map>
 1800408:	e0bffb15 	stw	r2,-20(fp)
    switch (Servo)
 180040c:	e0bffc07 	ldb	r2,-16(fp)
 1800410:	10bfef84 	addi	r2,r2,-66
 1800414:	e0bfff15 	stw	r2,-4(fp)
 1800418:	e0ffff17 	ldw	r3,-4(fp)
 180041c:	188005a8 	cmpgeui	r2,r3,22
 1800420:	1000361e 	bne	r2,zero,18004fc <Set_Servo_Position+0x128>
 1800424:	e13fff17 	ldw	r4,-4(fp)
 1800428:	e13fff17 	ldw	r4,-4(fp)
 180042c:	2105883a 	add	r2,r4,r4
 1800430:	1087883a 	add	r3,r2,r2
 1800434:	00806034 	movhi	r2,384
 1800438:	10811204 	addi	r2,r2,1096
 180043c:	1885883a 	add	r2,r3,r2
 1800440:	10800017 	ldw	r2,0(r2)
 1800444:	1000683a 	jmp	r2
 1800448:	018004ec 	andhi	r6,zero,19
 180044c:	018004fc 	xorhi	r6,zero,19
 1800450:	018004fc 	xorhi	r6,zero,19
 1800454:	018004c0 	call	18004c <_start-0x167ffb4>
 1800458:	018004fc 	xorhi	r6,zero,19
 180045c:	018004a0 	cmpeqi	r6,zero,18
 1800460:	018004fc 	xorhi	r6,zero,19
 1800464:	018004fc 	xorhi	r6,zero,19
 1800468:	018004fc 	xorhi	r6,zero,19
 180046c:	018004fc 	xorhi	r6,zero,19
 1800470:	018004fc 	xorhi	r6,zero,19
 1800474:	018004fc 	xorhi	r6,zero,19
 1800478:	018004fc 	xorhi	r6,zero,19
 180047c:	018004fc 	xorhi	r6,zero,19
 1800480:	018004fc 	xorhi	r6,zero,19
 1800484:	018004fc 	xorhi	r6,zero,19
 1800488:	018004fc 	xorhi	r6,zero,19
 180048c:	018004d0 	cmplti	r6,zero,19
 1800490:	018004fc 	xorhi	r6,zero,19
 1800494:	018004fc 	xorhi	r6,zero,19
 1800498:	018004fc 	xorhi	r6,zero,19
 180049c:	018004b0 	cmpltui	r6,zero,18
    {
        case 'G' :
        	Set_PWM_Duty_Cycle(1, pulseWidth);
 18004a0:	01000044 	movi	r4,1
 18004a4:	e17ffb17 	ldw	r5,-20(fp)
 18004a8:	18002dc0 	call	18002dc <Set_PWM_Duty_Cycle>
            break;
 18004ac:	00001506 	br	1800504 <Set_Servo_Position+0x130>
        case 'W' :
        	Set_PWM_Duty_Cycle(2, pulseWidth);
 18004b0:	01000084 	movi	r4,2
 18004b4:	e17ffb17 	ldw	r5,-20(fp)
 18004b8:	18002dc0 	call	18002dc <Set_PWM_Duty_Cycle>
            break;
 18004bc:	00001106 	br	1800504 <Set_Servo_Position+0x130>
        case 'E' :
        	Set_PWM_Duty_Cycle(3, pulseWidth);
 18004c0:	010000c4 	movi	r4,3
 18004c4:	e17ffb17 	ldw	r5,-20(fp)
 18004c8:	18002dc0 	call	18002dc <Set_PWM_Duty_Cycle>
            break;
 18004cc:	00000d06 	br	1800504 <Set_Servo_Position+0x130>
        case 'S' :
        	Set_PWM_Duty_Cycle(4, pulseWidth);
 18004d0:	01000104 	movi	r4,4
 18004d4:	e17ffb17 	ldw	r5,-20(fp)
 18004d8:	18002dc0 	call	18002dc <Set_PWM_Duty_Cycle>
        	Set_PWM_Duty_Cycle(5, pulseWidth);
 18004dc:	01000144 	movi	r4,5
 18004e0:	e17ffb17 	ldw	r5,-20(fp)
 18004e4:	18002dc0 	call	18002dc <Set_PWM_Duty_Cycle>
            break;
 18004e8:	00000606 	br	1800504 <Set_Servo_Position+0x130>
        case 'B' :
        	Set_PWM_Duty_Cycle(6, pulseWidth);
 18004ec:	01000184 	movi	r4,6
 18004f0:	e17ffb17 	ldw	r5,-20(fp)
 18004f4:	18002dc0 	call	18002dc <Set_PWM_Duty_Cycle>
            break;
 18004f8:	00000206 	br	1800504 <Set_Servo_Position+0x130>
        default :
            //unrecognised channal selected
            return 0;
 18004fc:	e03ffe15 	stw	zero,-8(fp)
 1800500:	00000206 	br	180050c <Set_Servo_Position+0x138>
    }
    return pulseWidth;
 1800504:	e0bffb17 	ldw	r2,-20(fp)
 1800508:	e0bffe15 	stw	r2,-8(fp)
 180050c:	e0bffe17 	ldw	r2,-8(fp)
}
 1800510:	e037883a 	mov	sp,fp
 1800514:	dfc00117 	ldw	ra,4(sp)
 1800518:	df000017 	ldw	fp,0(sp)
 180051c:	dec00204 	addi	sp,sp,8
 1800520:	f800283a 	ret

01800524 <map>:
 *                by the input variable
 *
 **************************************************************************************************/

long map(long x, long in_min, long in_max, long out_min, long out_max)
{
 1800524:	defffb04 	addi	sp,sp,-20
 1800528:	df000415 	stw	fp,16(sp)
 180052c:	df000404 	addi	fp,sp,16
 1800530:	e13ffc15 	stw	r4,-16(fp)
 1800534:	e17ffd15 	stw	r5,-12(fp)
 1800538:	e1bffe15 	stw	r6,-8(fp)
 180053c:	e1ffff15 	stw	r7,-4(fp)
  return (x - in_min) * (out_max - out_min) / (in_max - in_min) + out_min;
 1800540:	e0fffc17 	ldw	r3,-16(fp)
 1800544:	e0bffd17 	ldw	r2,-12(fp)
 1800548:	1889c83a 	sub	r4,r3,r2
 180054c:	e0c00117 	ldw	r3,4(fp)
 1800550:	e0bfff17 	ldw	r2,-4(fp)
 1800554:	1885c83a 	sub	r2,r3,r2
 1800558:	2089383a 	mul	r4,r4,r2
 180055c:	e0fffe17 	ldw	r3,-8(fp)
 1800560:	e0bffd17 	ldw	r2,-12(fp)
 1800564:	1885c83a 	sub	r2,r3,r2
 1800568:	2087283a 	div	r3,r4,r2
 180056c:	e0bfff17 	ldw	r2,-4(fp)
 1800570:	1885883a 	add	r2,r3,r2
}
 1800574:	e037883a 	mov	sp,fp
 1800578:	df000017 	ldw	fp,0(sp)
 180057c:	dec00104 	addi	sp,sp,4
 1800580:	f800283a 	ret

01800584 <smoothstep>:
 *                by the input variable
 *
 **************************************************************************************************/

long smoothstep(long startVal, long endVal, long totalItterations, long currentItteration)
{
 1800584:	defff804 	addi	sp,sp,-32
 1800588:	dfc00715 	stw	ra,28(sp)
 180058c:	df000615 	stw	fp,24(sp)
 1800590:	dc000515 	stw	r16,20(sp)
 1800594:	df000504 	addi	fp,sp,20
 1800598:	e13ffc15 	stw	r4,-16(fp)
 180059c:	e17ffd15 	stw	r5,-12(fp)
 18005a0:	e1bffe15 	stw	r6,-8(fp)
 18005a4:	e1ffff15 	stw	r7,-4(fp)
	float v; //temp value for progras through move between 0 and 1

	v = (float)currentItteration / totalItterations;
 18005a8:	e13fff17 	ldw	r4,-4(fp)
 18005ac:	18007bc0 	call	18007bc <__floatsisf>
 18005b0:	1021883a 	mov	r16,r2
 18005b4:	e13ffe17 	ldw	r4,-8(fp)
 18005b8:	18007bc0 	call	18007bc <__floatsisf>
 18005bc:	8009883a 	mov	r4,r16
 18005c0:	100b883a 	mov	r5,r2
 18005c4:	18006480 	call	1800648 <__divsf3>
 18005c8:	e0bffb15 	stw	r2,-20(fp)
	v = ((v) * (v) * (3 - 2 * (v)));
 18005cc:	e0fffb17 	ldw	r3,-20(fp)
 18005d0:	e0bffb17 	ldw	r2,-20(fp)
 18005d4:	1889ff32 	custom	252,r4,r3,r2
 18005d8:	e0fffb17 	ldw	r3,-20(fp)
 18005dc:	00b00034 	movhi	r2,49152
 18005e0:	1887ff32 	custom	252,r3,r3,r2
 18005e4:	00901034 	movhi	r2,16448
 18005e8:	1885ff72 	custom	253,r2,r3,r2
 18005ec:	2085ff32 	custom	252,r2,r4,r2
 18005f0:	e0bffb15 	stw	r2,-20(fp)
	return  (endVal * v) + (startVal * (1 - v));
 18005f4:	e13ffd17 	ldw	r4,-12(fp)
 18005f8:	18007bc0 	call	18007bc <__floatsisf>
 18005fc:	1007883a 	mov	r3,r2
 1800600:	e0bffb17 	ldw	r2,-20(fp)
 1800604:	18a1ff32 	custom	252,r16,r3,r2
 1800608:	e13ffc17 	ldw	r4,-16(fp)
 180060c:	18007bc0 	call	18007bc <__floatsisf>
 1800610:	1009883a 	mov	r4,r2
 1800614:	00cfe034 	movhi	r3,16256
 1800618:	e0bffb17 	ldw	r2,-20(fp)
 180061c:	1885ffb2 	custom	254,r2,r3,r2
 1800620:	2085ff32 	custom	252,r2,r4,r2
 1800624:	8085ff72 	custom	253,r2,r16,r2
 1800628:	1009883a 	mov	r4,r2
 180062c:	18008540 	call	1800854 <__fixsfsi>
}
 1800630:	e037883a 	mov	sp,fp
 1800634:	dfc00217 	ldw	ra,8(sp)
 1800638:	df000117 	ldw	fp,4(sp)
 180063c:	dc000017 	ldw	r16,0(sp)
 1800640:	dec00304 	addi	sp,sp,12
 1800644:	f800283a 	ret

01800648 <__divsf3>:
 1800648:	defff304 	addi	sp,sp,-52
 180064c:	dc400b15 	stw	r17,44(sp)
 1800650:	dc400204 	addi	r17,sp,8
 1800654:	dc000a15 	stw	r16,40(sp)
 1800658:	d9000015 	stw	r4,0(sp)
 180065c:	d9400115 	stw	r5,4(sp)
 1800660:	d809883a 	mov	r4,sp
 1800664:	880b883a 	mov	r5,r17
 1800668:	dc000604 	addi	r16,sp,24
 180066c:	dfc00c15 	stw	ra,48(sp)
 1800670:	1800ac80 	call	1800ac8 <__unpack_f>
 1800674:	d9000104 	addi	r4,sp,4
 1800678:	800b883a 	mov	r5,r16
 180067c:	1800ac80 	call	1800ac8 <__unpack_f>
 1800680:	d9000217 	ldw	r4,8(sp)
 1800684:	00800044 	movi	r2,1
 1800688:	01800104 	movi	r6,4
 180068c:	11000a2e 	bgeu	r2,r4,18006b8 <__divsf3+0x70>
 1800690:	d9400617 	ldw	r5,24(sp)
 1800694:	1140432e 	bgeu	r2,r5,18007a4 <__divsf3+0x15c>
 1800698:	d8800317 	ldw	r2,12(sp)
 180069c:	d8c00717 	ldw	r3,28(sp)
 18006a0:	10c4f03a 	xor	r2,r2,r3
 18006a4:	d8800315 	stw	r2,12(sp)
 18006a8:	21800226 	beq	r4,r6,18006b4 <__divsf3+0x6c>
 18006ac:	00800084 	movi	r2,2
 18006b0:	2080101e 	bne	r4,r2,18006f4 <__divsf3+0xac>
 18006b4:	29000726 	beq	r5,r4,18006d4 <__divsf3+0x8c>
 18006b8:	8809883a 	mov	r4,r17
 18006bc:	18009680 	call	1800968 <__pack_f>
 18006c0:	dfc00c17 	ldw	ra,48(sp)
 18006c4:	dc400b17 	ldw	r17,44(sp)
 18006c8:	dc000a17 	ldw	r16,40(sp)
 18006cc:	dec00d04 	addi	sp,sp,52
 18006d0:	f800283a 	ret
 18006d4:	01006074 	movhi	r4,385
 18006d8:	21038304 	addi	r4,r4,3596
 18006dc:	18009680 	call	1800968 <__pack_f>
 18006e0:	dfc00c17 	ldw	ra,48(sp)
 18006e4:	dc400b17 	ldw	r17,44(sp)
 18006e8:	dc000a17 	ldw	r16,40(sp)
 18006ec:	dec00d04 	addi	sp,sp,52
 18006f0:	f800283a 	ret
 18006f4:	29802d26 	beq	r5,r6,18007ac <__divsf3+0x164>
 18006f8:	28801a26 	beq	r5,r2,1800764 <__divsf3+0x11c>
 18006fc:	d8c00417 	ldw	r3,16(sp)
 1800700:	d8800817 	ldw	r2,32(sp)
 1800704:	d9000517 	ldw	r4,20(sp)
 1800708:	d9800917 	ldw	r6,36(sp)
 180070c:	1885c83a 	sub	r2,r3,r2
 1800710:	d8800415 	stw	r2,16(sp)
 1800714:	2180032e 	bgeu	r4,r6,1800724 <__divsf3+0xdc>
 1800718:	10bfffc4 	addi	r2,r2,-1
 180071c:	d8800415 	stw	r2,16(sp)
 1800720:	2109883a 	add	r4,r4,r4
 1800724:	01500034 	movhi	r5,16384
 1800728:	0007883a 	mov	r3,zero
 180072c:	0005883a 	mov	r2,zero
 1800730:	01c007c4 	movi	r7,31
 1800734:	10800044 	addi	r2,r2,1
 1800738:	21800236 	bltu	r4,r6,1800744 <__divsf3+0xfc>
 180073c:	1946b03a 	or	r3,r3,r5
 1800740:	2189c83a 	sub	r4,r4,r6
 1800744:	280ad07a 	srli	r5,r5,1
 1800748:	2109883a 	add	r4,r4,r4
 180074c:	11fff91e 	bne	r2,r7,1800734 <__divsf3+0xec>
 1800750:	19401fcc 	andi	r5,r3,127
 1800754:	00801004 	movi	r2,64
 1800758:	28800a26 	beq	r5,r2,1800784 <__divsf3+0x13c>
 180075c:	d8c00515 	stw	r3,20(sp)
 1800760:	003fd506 	br	18006b8 <__divsf3+0x70>
 1800764:	8809883a 	mov	r4,r17
 1800768:	d9800215 	stw	r6,8(sp)
 180076c:	18009680 	call	1800968 <__pack_f>
 1800770:	dfc00c17 	ldw	ra,48(sp)
 1800774:	dc400b17 	ldw	r17,44(sp)
 1800778:	dc000a17 	ldw	r16,40(sp)
 180077c:	dec00d04 	addi	sp,sp,52
 1800780:	f800283a 	ret
 1800784:	1880200c 	andi	r2,r3,128
 1800788:	103ff41e 	bne	r2,zero,180075c <__divsf3+0x114>
 180078c:	203ff326 	beq	r4,zero,180075c <__divsf3+0x114>
 1800790:	1947883a 	add	r3,r3,r5
 1800794:	00bfe004 	movi	r2,-128
 1800798:	1886703a 	and	r3,r3,r2
 180079c:	d8c00515 	stw	r3,20(sp)
 18007a0:	003fc506 	br	18006b8 <__divsf3+0x70>
 18007a4:	8009883a 	mov	r4,r16
 18007a8:	003fc406 	br	18006bc <__divsf3+0x74>
 18007ac:	8809883a 	mov	r4,r17
 18007b0:	d8000515 	stw	zero,20(sp)
 18007b4:	d8000415 	stw	zero,16(sp)
 18007b8:	003fc006 	br	18006bc <__divsf3+0x74>

018007bc <__floatsisf>:
 18007bc:	2006d7fa 	srli	r3,r4,31
 18007c0:	defffa04 	addi	sp,sp,-24
 18007c4:	008000c4 	movi	r2,3
 18007c8:	dfc00515 	stw	ra,20(sp)
 18007cc:	dc000415 	stw	r16,16(sp)
 18007d0:	d8800015 	stw	r2,0(sp)
 18007d4:	d8c00115 	stw	r3,4(sp)
 18007d8:	2000081e 	bne	r4,zero,18007fc <__floatsisf+0x40>
 18007dc:	00800084 	movi	r2,2
 18007e0:	d8800015 	stw	r2,0(sp)
 18007e4:	d809883a 	mov	r4,sp
 18007e8:	18009680 	call	1800968 <__pack_f>
 18007ec:	dfc00517 	ldw	ra,20(sp)
 18007f0:	dc000417 	ldw	r16,16(sp)
 18007f4:	dec00604 	addi	sp,sp,24
 18007f8:	f800283a 	ret
 18007fc:	00800784 	movi	r2,30
 1800800:	1807003a 	cmpeq	r3,r3,zero
 1800804:	d8800215 	stw	r2,8(sp)
 1800808:	18000e1e 	bne	r3,zero,1800844 <__floatsisf+0x88>
 180080c:	00a00034 	movhi	r2,32768
 1800810:	20800e26 	beq	r4,r2,180084c <__floatsisf+0x90>
 1800814:	0121c83a 	sub	r16,zero,r4
 1800818:	8009883a 	mov	r4,r16
 180081c:	dc000315 	stw	r16,12(sp)
 1800820:	18008e80 	call	18008e8 <__clzsi2>
 1800824:	117fffc4 	addi	r5,r2,-1
 1800828:	017fee0e 	bge	zero,r5,18007e4 <__floatsisf+0x28>
 180082c:	d8800217 	ldw	r2,8(sp)
 1800830:	8146983a 	sll	r3,r16,r5
 1800834:	1145c83a 	sub	r2,r2,r5
 1800838:	d8c00315 	stw	r3,12(sp)
 180083c:	d8800215 	stw	r2,8(sp)
 1800840:	003fe806 	br	18007e4 <__floatsisf+0x28>
 1800844:	2021883a 	mov	r16,r4
 1800848:	003ff306 	br	1800818 <__floatsisf+0x5c>
 180084c:	00b3c034 	movhi	r2,52992
 1800850:	003fe606 	br	18007ec <__floatsisf+0x30>

01800854 <__fixsfsi>:
 1800854:	defffa04 	addi	sp,sp,-24
 1800858:	d9000015 	stw	r4,0(sp)
 180085c:	d9400104 	addi	r5,sp,4
 1800860:	d809883a 	mov	r4,sp
 1800864:	dfc00515 	stw	ra,20(sp)
 1800868:	1800ac80 	call	1800ac8 <__unpack_f>
 180086c:	d8c00117 	ldw	r3,4(sp)
 1800870:	00800084 	movi	r2,2
 1800874:	1880041e 	bne	r3,r2,1800888 <__fixsfsi+0x34>
 1800878:	0005883a 	mov	r2,zero
 180087c:	dfc00517 	ldw	ra,20(sp)
 1800880:	dec00604 	addi	sp,sp,24
 1800884:	f800283a 	ret
 1800888:	00800044 	movi	r2,1
 180088c:	10fffa2e 	bgeu	r2,r3,1800878 <__fixsfsi+0x24>
 1800890:	00800104 	movi	r2,4
 1800894:	18800426 	beq	r3,r2,18008a8 <__fixsfsi+0x54>
 1800898:	d8800317 	ldw	r2,12(sp)
 180089c:	103ff616 	blt	r2,zero,1800878 <__fixsfsi+0x24>
 18008a0:	00c00784 	movi	r3,30
 18008a4:	1880070e 	bge	r3,r2,18008c4 <__fixsfsi+0x70>
 18008a8:	d8800217 	ldw	r2,8(sp)
 18008ac:	10000c1e 	bne	r2,zero,18008e0 <__fixsfsi+0x8c>
 18008b0:	00a00034 	movhi	r2,32768
 18008b4:	10bfffc4 	addi	r2,r2,-1
 18008b8:	dfc00517 	ldw	ra,20(sp)
 18008bc:	dec00604 	addi	sp,sp,24
 18008c0:	f800283a 	ret
 18008c4:	1885c83a 	sub	r2,r3,r2
 18008c8:	d9000217 	ldw	r4,8(sp)
 18008cc:	d8c00417 	ldw	r3,16(sp)
 18008d0:	1884d83a 	srl	r2,r3,r2
 18008d4:	203fe926 	beq	r4,zero,180087c <__fixsfsi+0x28>
 18008d8:	0085c83a 	sub	r2,zero,r2
 18008dc:	003fe706 	br	180087c <__fixsfsi+0x28>
 18008e0:	00a00034 	movhi	r2,32768
 18008e4:	003fe506 	br	180087c <__fixsfsi+0x28>

018008e8 <__clzsi2>:
 18008e8:	00bfffd4 	movui	r2,65535
 18008ec:	11000e36 	bltu	r2,r4,1800928 <__clzsi2+0x40>
 18008f0:	00803fc4 	movi	r2,255
 18008f4:	01400204 	movi	r5,8
 18008f8:	0007883a 	mov	r3,zero
 18008fc:	11001036 	bltu	r2,r4,1800940 <__clzsi2+0x58>
 1800900:	000b883a 	mov	r5,zero
 1800904:	20c6d83a 	srl	r3,r4,r3
 1800908:	00806074 	movhi	r2,385
 180090c:	10838704 	addi	r2,r2,3612
 1800910:	1887883a 	add	r3,r3,r2
 1800914:	18800003 	ldbu	r2,0(r3)
 1800918:	00c00804 	movi	r3,32
 180091c:	2885883a 	add	r2,r5,r2
 1800920:	1885c83a 	sub	r2,r3,r2
 1800924:	f800283a 	ret
 1800928:	01400404 	movi	r5,16
 180092c:	00804034 	movhi	r2,256
 1800930:	10bfffc4 	addi	r2,r2,-1
 1800934:	2807883a 	mov	r3,r5
 1800938:	113ff22e 	bgeu	r2,r4,1800904 <__clzsi2+0x1c>
 180093c:	01400604 	movi	r5,24
 1800940:	2807883a 	mov	r3,r5
 1800944:	20c6d83a 	srl	r3,r4,r3
 1800948:	00806074 	movhi	r2,385
 180094c:	10838704 	addi	r2,r2,3612
 1800950:	1887883a 	add	r3,r3,r2
 1800954:	18800003 	ldbu	r2,0(r3)
 1800958:	00c00804 	movi	r3,32
 180095c:	2885883a 	add	r2,r5,r2
 1800960:	1885c83a 	sub	r2,r3,r2
 1800964:	f800283a 	ret

01800968 <__pack_f>:
 1800968:	20c00017 	ldw	r3,0(r4)
 180096c:	01c00044 	movi	r7,1
 1800970:	21800317 	ldw	r6,12(r4)
 1800974:	21400117 	ldw	r5,4(r4)
 1800978:	38c02d2e 	bgeu	r7,r3,1800a30 <__pack_f+0xc8>
 180097c:	00800104 	movi	r2,4
 1800980:	18802826 	beq	r3,r2,1800a24 <__pack_f+0xbc>
 1800984:	00800084 	movi	r2,2
 1800988:	18800126 	beq	r3,r2,1800990 <__pack_f+0x28>
 180098c:	3000101e 	bne	r6,zero,18009d0 <__pack_f+0x68>
 1800990:	000d883a 	mov	r6,zero
 1800994:	0007883a 	mov	r3,zero
 1800998:	19003fcc 	andi	r4,r3,255
 180099c:	200895fa 	slli	r4,r4,23
 18009a0:	00c02034 	movhi	r3,128
 18009a4:	18ffffc4 	addi	r3,r3,-1
 18009a8:	30c6703a 	and	r3,r6,r3
 18009ac:	10a0002c 	andhi	r2,r2,32768
 18009b0:	10c4b03a 	or	r2,r2,r3
 18009b4:	280a97fa 	slli	r5,r5,31
 18009b8:	1104b03a 	or	r2,r2,r4
 18009bc:	00e00034 	movhi	r3,32768
 18009c0:	18ffffc4 	addi	r3,r3,-1
 18009c4:	10c4703a 	and	r2,r2,r3
 18009c8:	1144b03a 	or	r2,r2,r5
 18009cc:	f800283a 	ret
 18009d0:	21000217 	ldw	r4,8(r4)
 18009d4:	00bfe084 	movi	r2,-126
 18009d8:	20801b16 	blt	r4,r2,1800a48 <__pack_f+0xe0>
 18009dc:	00801fc4 	movi	r2,127
 18009e0:	11001016 	blt	r2,r4,1800a24 <__pack_f+0xbc>
 18009e4:	308e703a 	and	r7,r6,r2
 18009e8:	2087883a 	add	r3,r4,r2
 18009ec:	00801004 	movi	r2,64
 18009f0:	38800526 	beq	r7,r2,1800a08 <__pack_f+0xa0>
 18009f4:	31800fc4 	addi	r6,r6,63
 18009f8:	30000716 	blt	r6,zero,1800a18 <__pack_f+0xb0>
 18009fc:	300490ba 	slli	r2,r6,2
 1800a00:	100cd27a 	srli	r6,r2,9
 1800a04:	003fe406 	br	1800998 <__pack_f+0x30>
 1800a08:	3080200c 	andi	r2,r6,128
 1800a0c:	103ffa26 	beq	r2,zero,18009f8 <__pack_f+0x90>
 1800a10:	31cd883a 	add	r6,r6,r7
 1800a14:	003ff806 	br	18009f8 <__pack_f+0x90>
 1800a18:	300cd07a 	srli	r6,r6,1
 1800a1c:	18c00044 	addi	r3,r3,1
 1800a20:	003ff606 	br	18009fc <__pack_f+0x94>
 1800a24:	000d883a 	mov	r6,zero
 1800a28:	00ffffc4 	movi	r3,-1
 1800a2c:	003fda06 	br	1800998 <__pack_f+0x30>
 1800a30:	31800434 	orhi	r6,r6,16
 1800a34:	00802034 	movhi	r2,128
 1800a38:	10bfffc4 	addi	r2,r2,-1
 1800a3c:	308c703a 	and	r6,r6,r2
 1800a40:	00ffffc4 	movi	r3,-1
 1800a44:	003fd406 	br	1800998 <__pack_f+0x30>
 1800a48:	1109c83a 	sub	r4,r2,r4
 1800a4c:	00800644 	movi	r2,25
 1800a50:	11001216 	blt	r2,r4,1800a9c <__pack_f+0x134>
 1800a54:	3904983a 	sll	r2,r7,r4
 1800a58:	3106d83a 	srl	r3,r6,r4
 1800a5c:	10bfffc4 	addi	r2,r2,-1
 1800a60:	3084703a 	and	r2,r6,r2
 1800a64:	1004c03a 	cmpne	r2,r2,zero
 1800a68:	1886b03a 	or	r3,r3,r2
 1800a6c:	19001fcc 	andi	r4,r3,127
 1800a70:	00801004 	movi	r2,64
 1800a74:	20800c26 	beq	r4,r2,1800aa8 <__pack_f+0x140>
 1800a78:	18c00fc4 	addi	r3,r3,63
 1800a7c:	00900034 	movhi	r2,16384
 1800a80:	10bfffc4 	addi	r2,r2,-1
 1800a84:	180cd1fa 	srli	r6,r3,7
 1800a88:	10c7803a 	cmpltu	r3,r2,r3
 1800a8c:	00802034 	movhi	r2,128
 1800a90:	10bfffc4 	addi	r2,r2,-1
 1800a94:	308c703a 	and	r6,r6,r2
 1800a98:	003fbf06 	br	1800998 <__pack_f+0x30>
 1800a9c:	0007883a 	mov	r3,zero
 1800aa0:	000d883a 	mov	r6,zero
 1800aa4:	003ff906 	br	1800a8c <__pack_f+0x124>
 1800aa8:	1880200c 	andi	r2,r3,128
 1800aac:	10000126 	beq	r2,zero,1800ab4 <__pack_f+0x14c>
 1800ab0:	1907883a 	add	r3,r3,r4
 1800ab4:	180cd1fa 	srli	r6,r3,7
 1800ab8:	00900034 	movhi	r2,16384
 1800abc:	10bfffc4 	addi	r2,r2,-1
 1800ac0:	10c7803a 	cmpltu	r3,r2,r3
 1800ac4:	003ff106 	br	1800a8c <__pack_f+0x124>

01800ac8 <__unpack_f>:
 1800ac8:	21800017 	ldw	r6,0(r4)
 1800acc:	00c02034 	movhi	r3,128
 1800ad0:	18ffffc4 	addi	r3,r3,-1
 1800ad4:	3004d5fa 	srli	r2,r6,23
 1800ad8:	3008d7fa 	srli	r4,r6,31
 1800adc:	30ce703a 	and	r7,r6,r3
 1800ae0:	10c03fcc 	andi	r3,r2,255
 1800ae4:	29000115 	stw	r4,4(r5)
 1800ae8:	1800131e 	bne	r3,zero,1800b38 <__unpack_f+0x70>
 1800aec:	38000f26 	beq	r7,zero,1800b2c <__unpack_f+0x64>
 1800af0:	380691fa 	slli	r3,r7,7
 1800af4:	01bfe084 	movi	r6,-126
 1800af8:	008000c4 	movi	r2,3
 1800afc:	01100034 	movhi	r4,16384
 1800b00:	213fffc4 	addi	r4,r4,-1
 1800b04:	28800015 	stw	r2,0(r5)
 1800b08:	29800215 	stw	r6,8(r5)
 1800b0c:	20c00536 	bltu	r4,r3,1800b24 <__unpack_f+0x5c>
 1800b10:	3005883a 	mov	r2,r6
 1800b14:	18c7883a 	add	r3,r3,r3
 1800b18:	10bfffc4 	addi	r2,r2,-1
 1800b1c:	20fffd2e 	bgeu	r4,r3,1800b14 <__unpack_f+0x4c>
 1800b20:	28800215 	stw	r2,8(r5)
 1800b24:	28c00315 	stw	r3,12(r5)
 1800b28:	f800283a 	ret
 1800b2c:	00800084 	movi	r2,2
 1800b30:	28800015 	stw	r2,0(r5)
 1800b34:	f800283a 	ret
 1800b38:	00803fc4 	movi	r2,255
 1800b3c:	18800826 	beq	r3,r2,1800b60 <__unpack_f+0x98>
 1800b40:	380491fa 	slli	r2,r7,7
 1800b44:	18ffe044 	addi	r3,r3,-127
 1800b48:	28c00215 	stw	r3,8(r5)
 1800b4c:	10900034 	orhi	r2,r2,16384
 1800b50:	28800315 	stw	r2,12(r5)
 1800b54:	008000c4 	movi	r2,3
 1800b58:	28800015 	stw	r2,0(r5)
 1800b5c:	f800283a 	ret
 1800b60:	3800031e 	bne	r7,zero,1800b70 <__unpack_f+0xa8>
 1800b64:	00800104 	movi	r2,4
 1800b68:	28800015 	stw	r2,0(r5)
 1800b6c:	f800283a 	ret
 1800b70:	3080042c 	andhi	r2,r6,16
 1800b74:	10000426 	beq	r2,zero,1800b88 <__unpack_f+0xc0>
 1800b78:	00800044 	movi	r2,1
 1800b7c:	28800015 	stw	r2,0(r5)
 1800b80:	29c00315 	stw	r7,12(r5)
 1800b84:	f800283a 	ret
 1800b88:	28000015 	stw	zero,0(r5)
 1800b8c:	003ffc06 	br	1800b80 <__unpack_f+0xb8>

01800b90 <printf>:
 1800b90:	defffb04 	addi	sp,sp,-20
 1800b94:	dfc00115 	stw	ra,4(sp)
 1800b98:	d9400215 	stw	r5,8(sp)
 1800b9c:	d9800315 	stw	r6,12(sp)
 1800ba0:	d9c00415 	stw	r7,16(sp)
 1800ba4:	00806074 	movhi	r2,385
 1800ba8:	108c3704 	addi	r2,r2,12508
 1800bac:	10c00017 	ldw	r3,0(r2)
 1800bb0:	200b883a 	mov	r5,r4
 1800bb4:	d8800204 	addi	r2,sp,8
 1800bb8:	19000217 	ldw	r4,8(r3)
 1800bbc:	100d883a 	mov	r6,r2
 1800bc0:	d8800015 	stw	r2,0(sp)
 1800bc4:	1802c340 	call	1802c34 <__vfprintf_internal>
 1800bc8:	dfc00117 	ldw	ra,4(sp)
 1800bcc:	dec00504 	addi	sp,sp,20
 1800bd0:	f800283a 	ret

01800bd4 <_printf_r>:
 1800bd4:	defffc04 	addi	sp,sp,-16
 1800bd8:	dfc00115 	stw	ra,4(sp)
 1800bdc:	d9800215 	stw	r6,8(sp)
 1800be0:	d9c00315 	stw	r7,12(sp)
 1800be4:	280d883a 	mov	r6,r5
 1800be8:	21400217 	ldw	r5,8(r4)
 1800bec:	d8c00204 	addi	r3,sp,8
 1800bf0:	180f883a 	mov	r7,r3
 1800bf4:	d8c00015 	stw	r3,0(sp)
 1800bf8:	1800d880 	call	1800d88 <___vfprintf_internal_r>
 1800bfc:	dfc00117 	ldw	ra,4(sp)
 1800c00:	dec00404 	addi	sp,sp,16
 1800c04:	f800283a 	ret

01800c08 <_puts_r>:
 1800c08:	defff604 	addi	sp,sp,-40
 1800c0c:	dc400715 	stw	r17,28(sp)
 1800c10:	2023883a 	mov	r17,r4
 1800c14:	2809883a 	mov	r4,r5
 1800c18:	dfc00915 	stw	ra,36(sp)
 1800c1c:	dcc00815 	stw	r19,32(sp)
 1800c20:	2827883a 	mov	r19,r5
 1800c24:	1800cbc0 	call	1800cbc <strlen>
 1800c28:	89400217 	ldw	r5,8(r17)
 1800c2c:	00c06074 	movhi	r3,385
 1800c30:	18c3c704 	addi	r3,r3,3868
 1800c34:	01c00044 	movi	r7,1
 1800c38:	12000044 	addi	r8,r2,1
 1800c3c:	d8c00515 	stw	r3,20(sp)
 1800c40:	d9c00615 	stw	r7,24(sp)
 1800c44:	d8c00304 	addi	r3,sp,12
 1800c48:	01c00084 	movi	r7,2
 1800c4c:	8809883a 	mov	r4,r17
 1800c50:	d80d883a 	mov	r6,sp
 1800c54:	d8c00015 	stw	r3,0(sp)
 1800c58:	dcc00315 	stw	r19,12(sp)
 1800c5c:	da000215 	stw	r8,8(sp)
 1800c60:	d9c00115 	stw	r7,4(sp)
 1800c64:	d8800415 	stw	r2,16(sp)
 1800c68:	1804e900 	call	1804e90 <__sfvwrite_r>
 1800c6c:	00ffffc4 	movi	r3,-1
 1800c70:	10000626 	beq	r2,zero,1800c8c <_puts_r+0x84>
 1800c74:	1805883a 	mov	r2,r3
 1800c78:	dfc00917 	ldw	ra,36(sp)
 1800c7c:	dcc00817 	ldw	r19,32(sp)
 1800c80:	dc400717 	ldw	r17,28(sp)
 1800c84:	dec00a04 	addi	sp,sp,40
 1800c88:	f800283a 	ret
 1800c8c:	00c00284 	movi	r3,10
 1800c90:	1805883a 	mov	r2,r3
 1800c94:	dfc00917 	ldw	ra,36(sp)
 1800c98:	dcc00817 	ldw	r19,32(sp)
 1800c9c:	dc400717 	ldw	r17,28(sp)
 1800ca0:	dec00a04 	addi	sp,sp,40
 1800ca4:	f800283a 	ret

01800ca8 <puts>:
 1800ca8:	00806074 	movhi	r2,385
 1800cac:	108c3704 	addi	r2,r2,12508
 1800cb0:	200b883a 	mov	r5,r4
 1800cb4:	11000017 	ldw	r4,0(r2)
 1800cb8:	1800c081 	jmpi	1800c08 <_puts_r>

01800cbc <strlen>:
 1800cbc:	208000cc 	andi	r2,r4,3
 1800cc0:	2011883a 	mov	r8,r4
 1800cc4:	1000161e 	bne	r2,zero,1800d20 <strlen+0x64>
 1800cc8:	20c00017 	ldw	r3,0(r4)
 1800ccc:	017fbff4 	movhi	r5,65279
 1800cd0:	297fbfc4 	addi	r5,r5,-257
 1800cd4:	01e02074 	movhi	r7,32897
 1800cd8:	39e02004 	addi	r7,r7,-32640
 1800cdc:	1945883a 	add	r2,r3,r5
 1800ce0:	11c4703a 	and	r2,r2,r7
 1800ce4:	00c6303a 	nor	r3,zero,r3
 1800ce8:	1886703a 	and	r3,r3,r2
 1800cec:	18000c1e 	bne	r3,zero,1800d20 <strlen+0x64>
 1800cf0:	280d883a 	mov	r6,r5
 1800cf4:	380b883a 	mov	r5,r7
 1800cf8:	21000104 	addi	r4,r4,4
 1800cfc:	20800017 	ldw	r2,0(r4)
 1800d00:	1187883a 	add	r3,r2,r6
 1800d04:	1946703a 	and	r3,r3,r5
 1800d08:	0084303a 	nor	r2,zero,r2
 1800d0c:	10c4703a 	and	r2,r2,r3
 1800d10:	103ff926 	beq	r2,zero,1800cf8 <strlen+0x3c>
 1800d14:	20800007 	ldb	r2,0(r4)
 1800d18:	10000326 	beq	r2,zero,1800d28 <strlen+0x6c>
 1800d1c:	21000044 	addi	r4,r4,1
 1800d20:	20800007 	ldb	r2,0(r4)
 1800d24:	103ffd1e 	bne	r2,zero,1800d1c <strlen+0x60>
 1800d28:	2205c83a 	sub	r2,r4,r8
 1800d2c:	f800283a 	ret

01800d30 <__sprint_r>:
 1800d30:	30800217 	ldw	r2,8(r6)
 1800d34:	defffe04 	addi	sp,sp,-8
 1800d38:	dc000015 	stw	r16,0(sp)
 1800d3c:	dfc00115 	stw	ra,4(sp)
 1800d40:	3021883a 	mov	r16,r6
 1800d44:	0007883a 	mov	r3,zero
 1800d48:	1000061e 	bne	r2,zero,1800d64 <__sprint_r+0x34>
 1800d4c:	1805883a 	mov	r2,r3
 1800d50:	30000115 	stw	zero,4(r6)
 1800d54:	dfc00117 	ldw	ra,4(sp)
 1800d58:	dc000017 	ldw	r16,0(sp)
 1800d5c:	dec00204 	addi	sp,sp,8
 1800d60:	f800283a 	ret
 1800d64:	1804e900 	call	1804e90 <__sfvwrite_r>
 1800d68:	1007883a 	mov	r3,r2
 1800d6c:	1805883a 	mov	r2,r3
 1800d70:	80000115 	stw	zero,4(r16)
 1800d74:	80000215 	stw	zero,8(r16)
 1800d78:	dfc00117 	ldw	ra,4(sp)
 1800d7c:	dc000017 	ldw	r16,0(sp)
 1800d80:	dec00204 	addi	sp,sp,8
 1800d84:	f800283a 	ret

01800d88 <___vfprintf_internal_r>:
 1800d88:	defea404 	addi	sp,sp,-1392
 1800d8c:	dd815815 	stw	r22,1376(sp)
 1800d90:	dc015215 	stw	r16,1352(sp)
 1800d94:	d9c15115 	stw	r7,1348(sp)
 1800d98:	dfc15b15 	stw	ra,1388(sp)
 1800d9c:	df015a15 	stw	fp,1384(sp)
 1800da0:	ddc15915 	stw	r23,1380(sp)
 1800da4:	dd415715 	stw	r21,1372(sp)
 1800da8:	dd015615 	stw	r20,1368(sp)
 1800dac:	dcc15515 	stw	r19,1364(sp)
 1800db0:	dc815415 	stw	r18,1360(sp)
 1800db4:	dc415315 	stw	r17,1356(sp)
 1800db8:	282d883a 	mov	r22,r5
 1800dbc:	3021883a 	mov	r16,r6
 1800dc0:	d9014f15 	stw	r4,1340(sp)
 1800dc4:	18054b40 	call	18054b4 <_localeconv_r>
 1800dc8:	10800017 	ldw	r2,0(r2)
 1800dcc:	d9c15117 	ldw	r7,1348(sp)
 1800dd0:	d8814915 	stw	r2,1316(sp)
 1800dd4:	d8814f17 	ldw	r2,1340(sp)
 1800dd8:	10000226 	beq	r2,zero,1800de4 <___vfprintf_internal_r+0x5c>
 1800ddc:	10800e17 	ldw	r2,56(r2)
 1800de0:	10020d26 	beq	r2,zero,1801618 <___vfprintf_internal_r+0x890>
 1800de4:	b080030b 	ldhu	r2,12(r22)
 1800de8:	1080020c 	andi	r2,r2,8
 1800dec:	10020e26 	beq	r2,zero,1801628 <___vfprintf_internal_r+0x8a0>
 1800df0:	b0800417 	ldw	r2,16(r22)
 1800df4:	10020c26 	beq	r2,zero,1801628 <___vfprintf_internal_r+0x8a0>
 1800df8:	b200030b 	ldhu	r8,12(r22)
 1800dfc:	00800284 	movi	r2,10
 1800e00:	40c0068c 	andi	r3,r8,26
 1800e04:	18802f1e 	bne	r3,r2,1800ec4 <___vfprintf_internal_r+0x13c>
 1800e08:	b080038f 	ldh	r2,14(r22)
 1800e0c:	10002d16 	blt	r2,zero,1800ec4 <___vfprintf_internal_r+0x13c>
 1800e10:	b240038b 	ldhu	r9,14(r22)
 1800e14:	b2800717 	ldw	r10,28(r22)
 1800e18:	b2c00917 	ldw	r11,36(r22)
 1800e1c:	d9014f17 	ldw	r4,1340(sp)
 1800e20:	dc402904 	addi	r17,sp,164
 1800e24:	d8804004 	addi	r2,sp,256
 1800e28:	00c10004 	movi	r3,1024
 1800e2c:	423fff4c 	andi	r8,r8,65533
 1800e30:	800d883a 	mov	r6,r16
 1800e34:	880b883a 	mov	r5,r17
 1800e38:	da002c0d 	sth	r8,176(sp)
 1800e3c:	da402c8d 	sth	r9,178(sp)
 1800e40:	da803015 	stw	r10,192(sp)
 1800e44:	dac03215 	stw	r11,200(sp)
 1800e48:	d8802d15 	stw	r2,180(sp)
 1800e4c:	d8c02e15 	stw	r3,184(sp)
 1800e50:	d8802915 	stw	r2,164(sp)
 1800e54:	d8c02b15 	stw	r3,172(sp)
 1800e58:	d8002f15 	stw	zero,188(sp)
 1800e5c:	1800d880 	call	1800d88 <___vfprintf_internal_r>
 1800e60:	d8814b15 	stw	r2,1324(sp)
 1800e64:	10000416 	blt	r2,zero,1800e78 <___vfprintf_internal_r+0xf0>
 1800e68:	d9014f17 	ldw	r4,1340(sp)
 1800e6c:	880b883a 	mov	r5,r17
 1800e70:	18045600 	call	1804560 <_fflush_r>
 1800e74:	1002321e 	bne	r2,zero,1801740 <___vfprintf_internal_r+0x9b8>
 1800e78:	d8802c0b 	ldhu	r2,176(sp)
 1800e7c:	1080100c 	andi	r2,r2,64
 1800e80:	10000326 	beq	r2,zero,1800e90 <___vfprintf_internal_r+0x108>
 1800e84:	b080030b 	ldhu	r2,12(r22)
 1800e88:	10801014 	ori	r2,r2,64
 1800e8c:	b080030d 	sth	r2,12(r22)
 1800e90:	d8814b17 	ldw	r2,1324(sp)
 1800e94:	dfc15b17 	ldw	ra,1388(sp)
 1800e98:	df015a17 	ldw	fp,1384(sp)
 1800e9c:	ddc15917 	ldw	r23,1380(sp)
 1800ea0:	dd815817 	ldw	r22,1376(sp)
 1800ea4:	dd415717 	ldw	r21,1372(sp)
 1800ea8:	dd015617 	ldw	r20,1368(sp)
 1800eac:	dcc15517 	ldw	r19,1364(sp)
 1800eb0:	dc815417 	ldw	r18,1360(sp)
 1800eb4:	dc415317 	ldw	r17,1356(sp)
 1800eb8:	dc015217 	ldw	r16,1352(sp)
 1800ebc:	dec15c04 	addi	sp,sp,1392
 1800ec0:	f800283a 	ret
 1800ec4:	0005883a 	mov	r2,zero
 1800ec8:	0007883a 	mov	r3,zero
 1800ecc:	dd401904 	addi	r21,sp,100
 1800ed0:	d8814215 	stw	r2,1288(sp)
 1800ed4:	802f883a 	mov	r23,r16
 1800ed8:	d8c14315 	stw	r3,1292(sp)
 1800edc:	d8014b15 	stw	zero,1324(sp)
 1800ee0:	d8014815 	stw	zero,1312(sp)
 1800ee4:	d8014415 	stw	zero,1296(sp)
 1800ee8:	d8014715 	stw	zero,1308(sp)
 1800eec:	dd400c15 	stw	r21,48(sp)
 1800ef0:	d8000e15 	stw	zero,56(sp)
 1800ef4:	d8000d15 	stw	zero,52(sp)
 1800ef8:	b8800007 	ldb	r2,0(r23)
 1800efc:	10001926 	beq	r2,zero,1800f64 <___vfprintf_internal_r+0x1dc>
 1800f00:	00c00944 	movi	r3,37
 1800f04:	10c01726 	beq	r2,r3,1800f64 <___vfprintf_internal_r+0x1dc>
 1800f08:	b821883a 	mov	r16,r23
 1800f0c:	00000106 	br	1800f14 <___vfprintf_internal_r+0x18c>
 1800f10:	10c00326 	beq	r2,r3,1800f20 <___vfprintf_internal_r+0x198>
 1800f14:	84000044 	addi	r16,r16,1
 1800f18:	80800007 	ldb	r2,0(r16)
 1800f1c:	103ffc1e 	bne	r2,zero,1800f10 <___vfprintf_internal_r+0x188>
 1800f20:	85e7c83a 	sub	r19,r16,r23
 1800f24:	98000e26 	beq	r19,zero,1800f60 <___vfprintf_internal_r+0x1d8>
 1800f28:	dc800e17 	ldw	r18,56(sp)
 1800f2c:	dc400d17 	ldw	r17,52(sp)
 1800f30:	008001c4 	movi	r2,7
 1800f34:	94e5883a 	add	r18,r18,r19
 1800f38:	8c400044 	addi	r17,r17,1
 1800f3c:	adc00015 	stw	r23,0(r21)
 1800f40:	dc800e15 	stw	r18,56(sp)
 1800f44:	acc00115 	stw	r19,4(r21)
 1800f48:	dc400d15 	stw	r17,52(sp)
 1800f4c:	14428b16 	blt	r2,r17,180197c <___vfprintf_internal_r+0xbf4>
 1800f50:	ad400204 	addi	r21,r21,8
 1800f54:	d9014b17 	ldw	r4,1324(sp)
 1800f58:	24c9883a 	add	r4,r4,r19
 1800f5c:	d9014b15 	stw	r4,1324(sp)
 1800f60:	802f883a 	mov	r23,r16
 1800f64:	b8800007 	ldb	r2,0(r23)
 1800f68:	10013c26 	beq	r2,zero,180145c <___vfprintf_internal_r+0x6d4>
 1800f6c:	bdc00044 	addi	r23,r23,1
 1800f70:	d8000405 	stb	zero,16(sp)
 1800f74:	b8c00007 	ldb	r3,0(r23)
 1800f78:	04ffffc4 	movi	r19,-1
 1800f7c:	d8014c15 	stw	zero,1328(sp)
 1800f80:	d8014a15 	stw	zero,1320(sp)
 1800f84:	d8c14d15 	stw	r3,1332(sp)
 1800f88:	bdc00044 	addi	r23,r23,1
 1800f8c:	d9414d17 	ldw	r5,1332(sp)
 1800f90:	00801604 	movi	r2,88
 1800f94:	28fff804 	addi	r3,r5,-32
 1800f98:	10c06036 	bltu	r2,r3,180111c <___vfprintf_internal_r+0x394>
 1800f9c:	18c5883a 	add	r2,r3,r3
 1800fa0:	1085883a 	add	r2,r2,r2
 1800fa4:	00c06034 	movhi	r3,384
 1800fa8:	18c3ee04 	addi	r3,r3,4024
 1800fac:	10c5883a 	add	r2,r2,r3
 1800fb0:	11000017 	ldw	r4,0(r2)
 1800fb4:	2000683a 	jmp	r4
 1800fb8:	01801f2c 	andhi	r6,zero,124
 1800fbc:	0180111c 	xori	r6,zero,68
 1800fc0:	0180111c 	xori	r6,zero,68
 1800fc4:	01801f18 	cmpnei	r6,zero,124
 1800fc8:	0180111c 	xori	r6,zero,68
 1800fcc:	0180111c 	xori	r6,zero,68
 1800fd0:	0180111c 	xori	r6,zero,68
 1800fd4:	0180111c 	xori	r6,zero,68
 1800fd8:	0180111c 	xori	r6,zero,68
 1800fdc:	0180111c 	xori	r6,zero,68
 1800fe0:	01801cf8 	rdprs	r6,zero,115
 1800fe4:	01801f08 	cmpgei	r6,zero,124
 1800fe8:	0180111c 	xori	r6,zero,68
 1800fec:	01801d10 	cmplti	r6,zero,116
 1800ff0:	01801fa4 	muli	r6,zero,126
 1800ff4:	0180111c 	xori	r6,zero,68
 1800ff8:	01801f90 	cmplti	r6,zero,126
 1800ffc:	01801f58 	cmpnei	r6,zero,125
 1801000:	01801f58 	cmpnei	r6,zero,125
 1801004:	01801f58 	cmpnei	r6,zero,125
 1801008:	01801f58 	cmpnei	r6,zero,125
 180100c:	01801f58 	cmpnei	r6,zero,125
 1801010:	01801f58 	cmpnei	r6,zero,125
 1801014:	01801f58 	cmpnei	r6,zero,125
 1801018:	01801f58 	cmpnei	r6,zero,125
 180101c:	01801f58 	cmpnei	r6,zero,125
 1801020:	0180111c 	xori	r6,zero,68
 1801024:	0180111c 	xori	r6,zero,68
 1801028:	0180111c 	xori	r6,zero,68
 180102c:	0180111c 	xori	r6,zero,68
 1801030:	0180111c 	xori	r6,zero,68
 1801034:	0180111c 	xori	r6,zero,68
 1801038:	0180111c 	xori	r6,zero,68
 180103c:	0180111c 	xori	r6,zero,68
 1801040:	0180111c 	xori	r6,zero,68
 1801044:	0180111c 	xori	r6,zero,68
 1801048:	01801774 	movhi	r6,93
 180104c:	01801de0 	cmpeqi	r6,zero,119
 1801050:	0180111c 	xori	r6,zero,68
 1801054:	01801de0 	cmpeqi	r6,zero,119
 1801058:	0180111c 	xori	r6,zero,68
 180105c:	0180111c 	xori	r6,zero,68
 1801060:	0180111c 	xori	r6,zero,68
 1801064:	0180111c 	xori	r6,zero,68
 1801068:	01801f44 	movi	r6,125
 180106c:	0180111c 	xori	r6,zero,68
 1801070:	0180111c 	xori	r6,zero,68
 1801074:	01801828 	cmpgeui	r6,zero,96
 1801078:	0180111c 	xori	r6,zero,68
 180107c:	0180111c 	xori	r6,zero,68
 1801080:	0180111c 	xori	r6,zero,68
 1801084:	0180111c 	xori	r6,zero,68
 1801088:	0180111c 	xori	r6,zero,68
 180108c:	01801874 	movhi	r6,97
 1801090:	0180111c 	xori	r6,zero,68
 1801094:	0180111c 	xori	r6,zero,68
 1801098:	01801e94 	movui	r6,122
 180109c:	0180111c 	xori	r6,zero,68
 18010a0:	0180111c 	xori	r6,zero,68
 18010a4:	0180111c 	xori	r6,zero,68
 18010a8:	0180111c 	xori	r6,zero,68
 18010ac:	0180111c 	xori	r6,zero,68
 18010b0:	0180111c 	xori	r6,zero,68
 18010b4:	0180111c 	xori	r6,zero,68
 18010b8:	0180111c 	xori	r6,zero,68
 18010bc:	0180111c 	xori	r6,zero,68
 18010c0:	0180111c 	xori	r6,zero,68
 18010c4:	01801e68 	cmpgeui	r6,zero,121
 18010c8:	01801780 	call	180178 <_start-0x167fe88>
 18010cc:	01801de0 	cmpeqi	r6,zero,119
 18010d0:	01801de0 	cmpeqi	r6,zero,119
 18010d4:	01801de0 	cmpeqi	r6,zero,119
 18010d8:	01801dcc 	andi	r6,zero,119
 18010dc:	01801780 	call	180178 <_start-0x167fe88>
 18010e0:	0180111c 	xori	r6,zero,68
 18010e4:	0180111c 	xori	r6,zero,68
 18010e8:	01801d54 	movui	r6,117
 18010ec:	0180111c 	xori	r6,zero,68
 18010f0:	01801d24 	muli	r6,zero,116
 18010f4:	01801834 	movhi	r6,96
 18010f8:	01801d84 	movi	r6,118
 18010fc:	01801d70 	cmpltui	r6,zero,117
 1801100:	0180111c 	xori	r6,zero,68
 1801104:	01802000 	call	180200 <_start-0x167fe00>
 1801108:	0180111c 	xori	r6,zero,68
 180110c:	01801880 	call	180188 <_start-0x167fe78>
 1801110:	0180111c 	xori	r6,zero,68
 1801114:	0180111c 	xori	r6,zero,68
 1801118:	01801ef8 	rdprs	r6,zero,123
 180111c:	d9014d17 	ldw	r4,1332(sp)
 1801120:	2000ce26 	beq	r4,zero,180145c <___vfprintf_internal_r+0x6d4>
 1801124:	01400044 	movi	r5,1
 1801128:	d9800f04 	addi	r6,sp,60
 180112c:	d9c14015 	stw	r7,1280(sp)
 1801130:	d9414515 	stw	r5,1300(sp)
 1801134:	d9814115 	stw	r6,1284(sp)
 1801138:	280f883a 	mov	r7,r5
 180113c:	d9000f05 	stb	r4,60(sp)
 1801140:	d8000405 	stb	zero,16(sp)
 1801144:	d8014615 	stw	zero,1304(sp)
 1801148:	d8c14c17 	ldw	r3,1328(sp)
 180114c:	1880008c 	andi	r2,r3,2
 1801150:	1005003a 	cmpeq	r2,r2,zero
 1801154:	d8815015 	stw	r2,1344(sp)
 1801158:	1000031e 	bne	r2,zero,1801168 <___vfprintf_internal_r+0x3e0>
 180115c:	d9014517 	ldw	r4,1300(sp)
 1801160:	21000084 	addi	r4,r4,2
 1801164:	d9014515 	stw	r4,1300(sp)
 1801168:	d9414c17 	ldw	r5,1328(sp)
 180116c:	2940210c 	andi	r5,r5,132
 1801170:	d9414e15 	stw	r5,1336(sp)
 1801174:	28002d1e 	bne	r5,zero,180122c <___vfprintf_internal_r+0x4a4>
 1801178:	d9814a17 	ldw	r6,1320(sp)
 180117c:	d8814517 	ldw	r2,1300(sp)
 1801180:	30a1c83a 	sub	r16,r6,r2
 1801184:	0400290e 	bge	zero,r16,180122c <___vfprintf_internal_r+0x4a4>
 1801188:	00800404 	movi	r2,16
 180118c:	1404580e 	bge	r2,r16,18022f0 <___vfprintf_internal_r+0x1568>
 1801190:	dc800e17 	ldw	r18,56(sp)
 1801194:	dc400d17 	ldw	r17,52(sp)
 1801198:	1027883a 	mov	r19,r2
 180119c:	07006074 	movhi	fp,385
 18011a0:	e703e384 	addi	fp,fp,3982
 18011a4:	050001c4 	movi	r20,7
 18011a8:	00000306 	br	18011b8 <___vfprintf_internal_r+0x430>
 18011ac:	843ffc04 	addi	r16,r16,-16
 18011b0:	ad400204 	addi	r21,r21,8
 18011b4:	9c00130e 	bge	r19,r16,1801204 <___vfprintf_internal_r+0x47c>
 18011b8:	94800404 	addi	r18,r18,16
 18011bc:	8c400044 	addi	r17,r17,1
 18011c0:	af000015 	stw	fp,0(r21)
 18011c4:	acc00115 	stw	r19,4(r21)
 18011c8:	dc800e15 	stw	r18,56(sp)
 18011cc:	dc400d15 	stw	r17,52(sp)
 18011d0:	a47ff60e 	bge	r20,r17,18011ac <___vfprintf_internal_r+0x424>
 18011d4:	d9014f17 	ldw	r4,1340(sp)
 18011d8:	b00b883a 	mov	r5,r22
 18011dc:	d9800c04 	addi	r6,sp,48
 18011e0:	d9c15115 	stw	r7,1348(sp)
 18011e4:	1800d300 	call	1800d30 <__sprint_r>
 18011e8:	d9c15117 	ldw	r7,1348(sp)
 18011ec:	10009e1e 	bne	r2,zero,1801468 <___vfprintf_internal_r+0x6e0>
 18011f0:	843ffc04 	addi	r16,r16,-16
 18011f4:	dc800e17 	ldw	r18,56(sp)
 18011f8:	dc400d17 	ldw	r17,52(sp)
 18011fc:	dd401904 	addi	r21,sp,100
 1801200:	9c3fed16 	blt	r19,r16,18011b8 <___vfprintf_internal_r+0x430>
 1801204:	9425883a 	add	r18,r18,r16
 1801208:	8c400044 	addi	r17,r17,1
 180120c:	008001c4 	movi	r2,7
 1801210:	af000015 	stw	fp,0(r21)
 1801214:	ac000115 	stw	r16,4(r21)
 1801218:	dc800e15 	stw	r18,56(sp)
 180121c:	dc400d15 	stw	r17,52(sp)
 1801220:	1441f516 	blt	r2,r17,18019f8 <___vfprintf_internal_r+0xc70>
 1801224:	ad400204 	addi	r21,r21,8
 1801228:	00000206 	br	1801234 <___vfprintf_internal_r+0x4ac>
 180122c:	dc800e17 	ldw	r18,56(sp)
 1801230:	dc400d17 	ldw	r17,52(sp)
 1801234:	d8800407 	ldb	r2,16(sp)
 1801238:	10000b26 	beq	r2,zero,1801268 <___vfprintf_internal_r+0x4e0>
 180123c:	00800044 	movi	r2,1
 1801240:	94800044 	addi	r18,r18,1
 1801244:	8c400044 	addi	r17,r17,1
 1801248:	a8800115 	stw	r2,4(r21)
 180124c:	d8c00404 	addi	r3,sp,16
 1801250:	008001c4 	movi	r2,7
 1801254:	a8c00015 	stw	r3,0(r21)
 1801258:	dc800e15 	stw	r18,56(sp)
 180125c:	dc400d15 	stw	r17,52(sp)
 1801260:	1441da16 	blt	r2,r17,18019cc <___vfprintf_internal_r+0xc44>
 1801264:	ad400204 	addi	r21,r21,8
 1801268:	d9015017 	ldw	r4,1344(sp)
 180126c:	20000b1e 	bne	r4,zero,180129c <___vfprintf_internal_r+0x514>
 1801270:	d8800444 	addi	r2,sp,17
 1801274:	94800084 	addi	r18,r18,2
 1801278:	8c400044 	addi	r17,r17,1
 180127c:	a8800015 	stw	r2,0(r21)
 1801280:	00c00084 	movi	r3,2
 1801284:	008001c4 	movi	r2,7
 1801288:	a8c00115 	stw	r3,4(r21)
 180128c:	dc800e15 	stw	r18,56(sp)
 1801290:	dc400d15 	stw	r17,52(sp)
 1801294:	1441c216 	blt	r2,r17,18019a0 <___vfprintf_internal_r+0xc18>
 1801298:	ad400204 	addi	r21,r21,8
 180129c:	d9414e17 	ldw	r5,1336(sp)
 18012a0:	00802004 	movi	r2,128
 18012a4:	2880b126 	beq	r5,r2,180156c <___vfprintf_internal_r+0x7e4>
 18012a8:	d8c14617 	ldw	r3,1304(sp)
 18012ac:	19e1c83a 	sub	r16,r3,r7
 18012b0:	0400260e 	bge	zero,r16,180134c <___vfprintf_internal_r+0x5c4>
 18012b4:	00800404 	movi	r2,16
 18012b8:	1403c90e 	bge	r2,r16,18021e0 <___vfprintf_internal_r+0x1458>
 18012bc:	1027883a 	mov	r19,r2
 18012c0:	07006074 	movhi	fp,385
 18012c4:	e703df84 	addi	fp,fp,3966
 18012c8:	050001c4 	movi	r20,7
 18012cc:	00000306 	br	18012dc <___vfprintf_internal_r+0x554>
 18012d0:	843ffc04 	addi	r16,r16,-16
 18012d4:	ad400204 	addi	r21,r21,8
 18012d8:	9c00130e 	bge	r19,r16,1801328 <___vfprintf_internal_r+0x5a0>
 18012dc:	94800404 	addi	r18,r18,16
 18012e0:	8c400044 	addi	r17,r17,1
 18012e4:	af000015 	stw	fp,0(r21)
 18012e8:	acc00115 	stw	r19,4(r21)
 18012ec:	dc800e15 	stw	r18,56(sp)
 18012f0:	dc400d15 	stw	r17,52(sp)
 18012f4:	a47ff60e 	bge	r20,r17,18012d0 <___vfprintf_internal_r+0x548>
 18012f8:	d9014f17 	ldw	r4,1340(sp)
 18012fc:	b00b883a 	mov	r5,r22
 1801300:	d9800c04 	addi	r6,sp,48
 1801304:	d9c15115 	stw	r7,1348(sp)
 1801308:	1800d300 	call	1800d30 <__sprint_r>
 180130c:	d9c15117 	ldw	r7,1348(sp)
 1801310:	1000551e 	bne	r2,zero,1801468 <___vfprintf_internal_r+0x6e0>
 1801314:	843ffc04 	addi	r16,r16,-16
 1801318:	dc800e17 	ldw	r18,56(sp)
 180131c:	dc400d17 	ldw	r17,52(sp)
 1801320:	dd401904 	addi	r21,sp,100
 1801324:	9c3fed16 	blt	r19,r16,18012dc <___vfprintf_internal_r+0x554>
 1801328:	9425883a 	add	r18,r18,r16
 180132c:	8c400044 	addi	r17,r17,1
 1801330:	008001c4 	movi	r2,7
 1801334:	af000015 	stw	fp,0(r21)
 1801338:	ac000115 	stw	r16,4(r21)
 180133c:	dc800e15 	stw	r18,56(sp)
 1801340:	dc400d15 	stw	r17,52(sp)
 1801344:	14418216 	blt	r2,r17,1801950 <___vfprintf_internal_r+0xbc8>
 1801348:	ad400204 	addi	r21,r21,8
 180134c:	d9014c17 	ldw	r4,1328(sp)
 1801350:	2080400c 	andi	r2,r4,256
 1801354:	10004a1e 	bne	r2,zero,1801480 <___vfprintf_internal_r+0x6f8>
 1801358:	d9414117 	ldw	r5,1284(sp)
 180135c:	91e5883a 	add	r18,r18,r7
 1801360:	8c400044 	addi	r17,r17,1
 1801364:	008001c4 	movi	r2,7
 1801368:	a9400015 	stw	r5,0(r21)
 180136c:	a9c00115 	stw	r7,4(r21)
 1801370:	dc800e15 	stw	r18,56(sp)
 1801374:	dc400d15 	stw	r17,52(sp)
 1801378:	14416716 	blt	r2,r17,1801918 <___vfprintf_internal_r+0xb90>
 180137c:	a8c00204 	addi	r3,r21,8
 1801380:	d9814c17 	ldw	r6,1328(sp)
 1801384:	3080010c 	andi	r2,r6,4
 1801388:	10002826 	beq	r2,zero,180142c <___vfprintf_internal_r+0x6a4>
 180138c:	d8814a17 	ldw	r2,1320(sp)
 1801390:	d9014517 	ldw	r4,1300(sp)
 1801394:	1121c83a 	sub	r16,r2,r4
 1801398:	0400240e 	bge	zero,r16,180142c <___vfprintf_internal_r+0x6a4>
 180139c:	00800404 	movi	r2,16
 18013a0:	14044f0e 	bge	r2,r16,18024e0 <___vfprintf_internal_r+0x1758>
 18013a4:	dc400d17 	ldw	r17,52(sp)
 18013a8:	1027883a 	mov	r19,r2
 18013ac:	07006074 	movhi	fp,385
 18013b0:	e703e384 	addi	fp,fp,3982
 18013b4:	050001c4 	movi	r20,7
 18013b8:	00000306 	br	18013c8 <___vfprintf_internal_r+0x640>
 18013bc:	843ffc04 	addi	r16,r16,-16
 18013c0:	18c00204 	addi	r3,r3,8
 18013c4:	9c00110e 	bge	r19,r16,180140c <___vfprintf_internal_r+0x684>
 18013c8:	94800404 	addi	r18,r18,16
 18013cc:	8c400044 	addi	r17,r17,1
 18013d0:	1f000015 	stw	fp,0(r3)
 18013d4:	1cc00115 	stw	r19,4(r3)
 18013d8:	dc800e15 	stw	r18,56(sp)
 18013dc:	dc400d15 	stw	r17,52(sp)
 18013e0:	a47ff60e 	bge	r20,r17,18013bc <___vfprintf_internal_r+0x634>
 18013e4:	d9014f17 	ldw	r4,1340(sp)
 18013e8:	b00b883a 	mov	r5,r22
 18013ec:	d9800c04 	addi	r6,sp,48
 18013f0:	1800d300 	call	1800d30 <__sprint_r>
 18013f4:	10001c1e 	bne	r2,zero,1801468 <___vfprintf_internal_r+0x6e0>
 18013f8:	843ffc04 	addi	r16,r16,-16
 18013fc:	dc800e17 	ldw	r18,56(sp)
 1801400:	dc400d17 	ldw	r17,52(sp)
 1801404:	d8c01904 	addi	r3,sp,100
 1801408:	9c3fef16 	blt	r19,r16,18013c8 <___vfprintf_internal_r+0x640>
 180140c:	9425883a 	add	r18,r18,r16
 1801410:	8c400044 	addi	r17,r17,1
 1801414:	008001c4 	movi	r2,7
 1801418:	1f000015 	stw	fp,0(r3)
 180141c:	1c000115 	stw	r16,4(r3)
 1801420:	dc800e15 	stw	r18,56(sp)
 1801424:	dc400d15 	stw	r17,52(sp)
 1801428:	1440cb16 	blt	r2,r17,1801758 <___vfprintf_internal_r+0x9d0>
 180142c:	d8814a17 	ldw	r2,1320(sp)
 1801430:	d9414517 	ldw	r5,1300(sp)
 1801434:	1140010e 	bge	r2,r5,180143c <___vfprintf_internal_r+0x6b4>
 1801438:	2805883a 	mov	r2,r5
 180143c:	d9814b17 	ldw	r6,1324(sp)
 1801440:	308d883a 	add	r6,r6,r2
 1801444:	d9814b15 	stw	r6,1324(sp)
 1801448:	90013b1e 	bne	r18,zero,1801938 <___vfprintf_internal_r+0xbb0>
 180144c:	d9c14017 	ldw	r7,1280(sp)
 1801450:	dd401904 	addi	r21,sp,100
 1801454:	d8000d15 	stw	zero,52(sp)
 1801458:	003ea706 	br	1800ef8 <___vfprintf_internal_r+0x170>
 180145c:	d8800e17 	ldw	r2,56(sp)
 1801460:	10053f1e 	bne	r2,zero,1802960 <___vfprintf_internal_r+0x1bd8>
 1801464:	d8000d15 	stw	zero,52(sp)
 1801468:	b080030b 	ldhu	r2,12(r22)
 180146c:	1080100c 	andi	r2,r2,64
 1801470:	103e8726 	beq	r2,zero,1800e90 <___vfprintf_internal_r+0x108>
 1801474:	00bfffc4 	movi	r2,-1
 1801478:	d8814b15 	stw	r2,1324(sp)
 180147c:	003e8406 	br	1800e90 <___vfprintf_internal_r+0x108>
 1801480:	d9814d17 	ldw	r6,1332(sp)
 1801484:	00801944 	movi	r2,101
 1801488:	11806e16 	blt	r2,r6,1801644 <___vfprintf_internal_r+0x8bc>
 180148c:	d9414717 	ldw	r5,1308(sp)
 1801490:	00c00044 	movi	r3,1
 1801494:	1943430e 	bge	r3,r5,18021a4 <___vfprintf_internal_r+0x141c>
 1801498:	d8814117 	ldw	r2,1284(sp)
 180149c:	94800044 	addi	r18,r18,1
 18014a0:	8c400044 	addi	r17,r17,1
 18014a4:	a8800015 	stw	r2,0(r21)
 18014a8:	008001c4 	movi	r2,7
 18014ac:	a8c00115 	stw	r3,4(r21)
 18014b0:	dc800e15 	stw	r18,56(sp)
 18014b4:	dc400d15 	stw	r17,52(sp)
 18014b8:	1441ca16 	blt	r2,r17,1801be4 <___vfprintf_internal_r+0xe5c>
 18014bc:	a8c00204 	addi	r3,r21,8
 18014c0:	d9014917 	ldw	r4,1316(sp)
 18014c4:	00800044 	movi	r2,1
 18014c8:	94800044 	addi	r18,r18,1
 18014cc:	8c400044 	addi	r17,r17,1
 18014d0:	18800115 	stw	r2,4(r3)
 18014d4:	008001c4 	movi	r2,7
 18014d8:	19000015 	stw	r4,0(r3)
 18014dc:	dc800e15 	stw	r18,56(sp)
 18014e0:	dc400d15 	stw	r17,52(sp)
 18014e4:	1441b616 	blt	r2,r17,1801bc0 <___vfprintf_internal_r+0xe38>
 18014e8:	1cc00204 	addi	r19,r3,8
 18014ec:	d9014217 	ldw	r4,1288(sp)
 18014f0:	d9414317 	ldw	r5,1292(sp)
 18014f4:	000d883a 	mov	r6,zero
 18014f8:	000f883a 	mov	r7,zero
 18014fc:	18095d80 	call	18095d8 <__nedf2>
 1801500:	10017426 	beq	r2,zero,1801ad4 <___vfprintf_internal_r+0xd4c>
 1801504:	d9414717 	ldw	r5,1308(sp)
 1801508:	d9814117 	ldw	r6,1284(sp)
 180150c:	8c400044 	addi	r17,r17,1
 1801510:	2c85883a 	add	r2,r5,r18
 1801514:	14bfffc4 	addi	r18,r2,-1
 1801518:	28bfffc4 	addi	r2,r5,-1
 180151c:	30c00044 	addi	r3,r6,1
 1801520:	98800115 	stw	r2,4(r19)
 1801524:	008001c4 	movi	r2,7
 1801528:	98c00015 	stw	r3,0(r19)
 180152c:	dc800e15 	stw	r18,56(sp)
 1801530:	dc400d15 	stw	r17,52(sp)
 1801534:	14418e16 	blt	r2,r17,1801b70 <___vfprintf_internal_r+0xde8>
 1801538:	9cc00204 	addi	r19,r19,8
 180153c:	d9414817 	ldw	r5,1312(sp)
 1801540:	d8800804 	addi	r2,sp,32
 1801544:	8c400044 	addi	r17,r17,1
 1801548:	9165883a 	add	r18,r18,r5
 180154c:	98800015 	stw	r2,0(r19)
 1801550:	008001c4 	movi	r2,7
 1801554:	99400115 	stw	r5,4(r19)
 1801558:	dc800e15 	stw	r18,56(sp)
 180155c:	dc400d15 	stw	r17,52(sp)
 1801560:	1440ed16 	blt	r2,r17,1801918 <___vfprintf_internal_r+0xb90>
 1801564:	98c00204 	addi	r3,r19,8
 1801568:	003f8506 	br	1801380 <___vfprintf_internal_r+0x5f8>
 180156c:	d9814a17 	ldw	r6,1320(sp)
 1801570:	d8814517 	ldw	r2,1300(sp)
 1801574:	30a1c83a 	sub	r16,r6,r2
 1801578:	043f4b0e 	bge	zero,r16,18012a8 <___vfprintf_internal_r+0x520>
 180157c:	00800404 	movi	r2,16
 1801580:	1404340e 	bge	r2,r16,1802654 <___vfprintf_internal_r+0x18cc>
 1801584:	1027883a 	mov	r19,r2
 1801588:	07006074 	movhi	fp,385
 180158c:	e703df84 	addi	fp,fp,3966
 1801590:	050001c4 	movi	r20,7
 1801594:	00000306 	br	18015a4 <___vfprintf_internal_r+0x81c>
 1801598:	843ffc04 	addi	r16,r16,-16
 180159c:	ad400204 	addi	r21,r21,8
 18015a0:	9c00130e 	bge	r19,r16,18015f0 <___vfprintf_internal_r+0x868>
 18015a4:	94800404 	addi	r18,r18,16
 18015a8:	8c400044 	addi	r17,r17,1
 18015ac:	af000015 	stw	fp,0(r21)
 18015b0:	acc00115 	stw	r19,4(r21)
 18015b4:	dc800e15 	stw	r18,56(sp)
 18015b8:	dc400d15 	stw	r17,52(sp)
 18015bc:	a47ff60e 	bge	r20,r17,1801598 <___vfprintf_internal_r+0x810>
 18015c0:	d9014f17 	ldw	r4,1340(sp)
 18015c4:	b00b883a 	mov	r5,r22
 18015c8:	d9800c04 	addi	r6,sp,48
 18015cc:	d9c15115 	stw	r7,1348(sp)
 18015d0:	1800d300 	call	1800d30 <__sprint_r>
 18015d4:	d9c15117 	ldw	r7,1348(sp)
 18015d8:	103fa31e 	bne	r2,zero,1801468 <___vfprintf_internal_r+0x6e0>
 18015dc:	843ffc04 	addi	r16,r16,-16
 18015e0:	dc800e17 	ldw	r18,56(sp)
 18015e4:	dc400d17 	ldw	r17,52(sp)
 18015e8:	dd401904 	addi	r21,sp,100
 18015ec:	9c3fed16 	blt	r19,r16,18015a4 <___vfprintf_internal_r+0x81c>
 18015f0:	9425883a 	add	r18,r18,r16
 18015f4:	8c400044 	addi	r17,r17,1
 18015f8:	008001c4 	movi	r2,7
 18015fc:	af000015 	stw	fp,0(r21)
 1801600:	ac000115 	stw	r16,4(r21)
 1801604:	dc800e15 	stw	r18,56(sp)
 1801608:	dc400d15 	stw	r17,52(sp)
 180160c:	14416116 	blt	r2,r17,1801b94 <___vfprintf_internal_r+0xe0c>
 1801610:	ad400204 	addi	r21,r21,8
 1801614:	003f2406 	br	18012a8 <___vfprintf_internal_r+0x520>
 1801618:	d9014f17 	ldw	r4,1340(sp)
 180161c:	18047f80 	call	18047f8 <__sinit>
 1801620:	d9c15117 	ldw	r7,1348(sp)
 1801624:	003def06 	br	1800de4 <___vfprintf_internal_r+0x5c>
 1801628:	d9014f17 	ldw	r4,1340(sp)
 180162c:	b00b883a 	mov	r5,r22
 1801630:	d9c15115 	stw	r7,1348(sp)
 1801634:	1802c580 	call	1802c58 <__swsetup_r>
 1801638:	d9c15117 	ldw	r7,1348(sp)
 180163c:	103dee26 	beq	r2,zero,1800df8 <___vfprintf_internal_r+0x70>
 1801640:	003f8c06 	br	1801474 <___vfprintf_internal_r+0x6ec>
 1801644:	d9014217 	ldw	r4,1288(sp)
 1801648:	d9414317 	ldw	r5,1292(sp)
 180164c:	000d883a 	mov	r6,zero
 1801650:	000f883a 	mov	r7,zero
 1801654:	18095500 	call	1809550 <__eqdf2>
 1801658:	1000f21e 	bne	r2,zero,1801a24 <___vfprintf_internal_r+0xc9c>
 180165c:	00806074 	movhi	r2,385
 1801660:	1083df04 	addi	r2,r2,3964
 1801664:	94800044 	addi	r18,r18,1
 1801668:	8c400044 	addi	r17,r17,1
 180166c:	a8800015 	stw	r2,0(r21)
 1801670:	00c00044 	movi	r3,1
 1801674:	008001c4 	movi	r2,7
 1801678:	a8c00115 	stw	r3,4(r21)
 180167c:	dc800e15 	stw	r18,56(sp)
 1801680:	dc400d15 	stw	r17,52(sp)
 1801684:	1442fa16 	blt	r2,r17,1802270 <___vfprintf_internal_r+0x14e8>
 1801688:	a8c00204 	addi	r3,r21,8
 180168c:	d8800517 	ldw	r2,20(sp)
 1801690:	d9014717 	ldw	r4,1308(sp)
 1801694:	11015c0e 	bge	r2,r4,1801c08 <___vfprintf_internal_r+0xe80>
 1801698:	dc400d17 	ldw	r17,52(sp)
 180169c:	d9814917 	ldw	r6,1316(sp)
 18016a0:	00800044 	movi	r2,1
 18016a4:	94800044 	addi	r18,r18,1
 18016a8:	8c400044 	addi	r17,r17,1
 18016ac:	18800115 	stw	r2,4(r3)
 18016b0:	008001c4 	movi	r2,7
 18016b4:	19800015 	stw	r6,0(r3)
 18016b8:	dc800e15 	stw	r18,56(sp)
 18016bc:	dc400d15 	stw	r17,52(sp)
 18016c0:	14431016 	blt	r2,r17,1802304 <___vfprintf_internal_r+0x157c>
 18016c4:	18c00204 	addi	r3,r3,8
 18016c8:	d8814717 	ldw	r2,1308(sp)
 18016cc:	143fffc4 	addi	r16,r2,-1
 18016d0:	043f2b0e 	bge	zero,r16,1801380 <___vfprintf_internal_r+0x5f8>
 18016d4:	00800404 	movi	r2,16
 18016d8:	1402a20e 	bge	r2,r16,1802164 <___vfprintf_internal_r+0x13dc>
 18016dc:	dc400d17 	ldw	r17,52(sp)
 18016e0:	1027883a 	mov	r19,r2
 18016e4:	07006074 	movhi	fp,385
 18016e8:	e703df84 	addi	fp,fp,3966
 18016ec:	050001c4 	movi	r20,7
 18016f0:	00000306 	br	1801700 <___vfprintf_internal_r+0x978>
 18016f4:	18c00204 	addi	r3,r3,8
 18016f8:	843ffc04 	addi	r16,r16,-16
 18016fc:	9c029c0e 	bge	r19,r16,1802170 <___vfprintf_internal_r+0x13e8>
 1801700:	94800404 	addi	r18,r18,16
 1801704:	8c400044 	addi	r17,r17,1
 1801708:	1f000015 	stw	fp,0(r3)
 180170c:	1cc00115 	stw	r19,4(r3)
 1801710:	dc800e15 	stw	r18,56(sp)
 1801714:	dc400d15 	stw	r17,52(sp)
 1801718:	a47ff60e 	bge	r20,r17,18016f4 <___vfprintf_internal_r+0x96c>
 180171c:	d9014f17 	ldw	r4,1340(sp)
 1801720:	b00b883a 	mov	r5,r22
 1801724:	d9800c04 	addi	r6,sp,48
 1801728:	1800d300 	call	1800d30 <__sprint_r>
 180172c:	103f4e1e 	bne	r2,zero,1801468 <___vfprintf_internal_r+0x6e0>
 1801730:	dc800e17 	ldw	r18,56(sp)
 1801734:	dc400d17 	ldw	r17,52(sp)
 1801738:	d8c01904 	addi	r3,sp,100
 180173c:	003fee06 	br	18016f8 <___vfprintf_internal_r+0x970>
 1801740:	d8802c0b 	ldhu	r2,176(sp)
 1801744:	00ffffc4 	movi	r3,-1
 1801748:	d8c14b15 	stw	r3,1324(sp)
 180174c:	1080100c 	andi	r2,r2,64
 1801750:	103dcc1e 	bne	r2,zero,1800e84 <___vfprintf_internal_r+0xfc>
 1801754:	003dce06 	br	1800e90 <___vfprintf_internal_r+0x108>
 1801758:	d9014f17 	ldw	r4,1340(sp)
 180175c:	b00b883a 	mov	r5,r22
 1801760:	d9800c04 	addi	r6,sp,48
 1801764:	1800d300 	call	1800d30 <__sprint_r>
 1801768:	103f3f1e 	bne	r2,zero,1801468 <___vfprintf_internal_r+0x6e0>
 180176c:	dc800e17 	ldw	r18,56(sp)
 1801770:	003f2e06 	br	180142c <___vfprintf_internal_r+0x6a4>
 1801774:	d9414c17 	ldw	r5,1328(sp)
 1801778:	29400414 	ori	r5,r5,16
 180177c:	d9414c15 	stw	r5,1328(sp)
 1801780:	d9814c17 	ldw	r6,1328(sp)
 1801784:	3080080c 	andi	r2,r6,32
 1801788:	10014f1e 	bne	r2,zero,1801cc8 <___vfprintf_internal_r+0xf40>
 180178c:	d8c14c17 	ldw	r3,1328(sp)
 1801790:	1880040c 	andi	r2,r3,16
 1801794:	1002ea1e 	bne	r2,zero,1802340 <___vfprintf_internal_r+0x15b8>
 1801798:	d9014c17 	ldw	r4,1328(sp)
 180179c:	2080100c 	andi	r2,r4,64
 18017a0:	1002e726 	beq	r2,zero,1802340 <___vfprintf_internal_r+0x15b8>
 18017a4:	3880000f 	ldh	r2,0(r7)
 18017a8:	39c00104 	addi	r7,r7,4
 18017ac:	d9c14015 	stw	r7,1280(sp)
 18017b0:	1023d7fa 	srai	r17,r2,31
 18017b4:	1021883a 	mov	r16,r2
 18017b8:	88037216 	blt	r17,zero,1802584 <___vfprintf_internal_r+0x17fc>
 18017bc:	01000044 	movi	r4,1
 18017c0:	98000416 	blt	r19,zero,18017d4 <___vfprintf_internal_r+0xa4c>
 18017c4:	d8c14c17 	ldw	r3,1328(sp)
 18017c8:	00bfdfc4 	movi	r2,-129
 18017cc:	1886703a 	and	r3,r3,r2
 18017d0:	d8c14c15 	stw	r3,1328(sp)
 18017d4:	8444b03a 	or	r2,r16,r17
 18017d8:	1002261e 	bne	r2,zero,1802074 <___vfprintf_internal_r+0x12ec>
 18017dc:	9802251e 	bne	r19,zero,1802074 <___vfprintf_internal_r+0x12ec>
 18017e0:	20803fcc 	andi	r2,r4,255
 18017e4:	10029b26 	beq	r2,zero,1802254 <___vfprintf_internal_r+0x14cc>
 18017e8:	d8c01904 	addi	r3,sp,100
 18017ec:	dd000f04 	addi	r20,sp,60
 18017f0:	d8c14115 	stw	r3,1284(sp)
 18017f4:	d8c14117 	ldw	r3,1284(sp)
 18017f8:	dcc14515 	stw	r19,1300(sp)
 18017fc:	a0c5c83a 	sub	r2,r20,r3
 1801800:	11c00a04 	addi	r7,r2,40
 1801804:	99c0010e 	bge	r19,r7,180180c <___vfprintf_internal_r+0xa84>
 1801808:	d9c14515 	stw	r7,1300(sp)
 180180c:	dcc14615 	stw	r19,1304(sp)
 1801810:	d8800407 	ldb	r2,16(sp)
 1801814:	103e4c26 	beq	r2,zero,1801148 <___vfprintf_internal_r+0x3c0>
 1801818:	d8814517 	ldw	r2,1300(sp)
 180181c:	10800044 	addi	r2,r2,1
 1801820:	d8814515 	stw	r2,1300(sp)
 1801824:	003e4806 	br	1801148 <___vfprintf_internal_r+0x3c0>
 1801828:	d9814c17 	ldw	r6,1328(sp)
 180182c:	31800414 	ori	r6,r6,16
 1801830:	d9814c15 	stw	r6,1328(sp)
 1801834:	d8c14c17 	ldw	r3,1328(sp)
 1801838:	1880080c 	andi	r2,r3,32
 180183c:	1001271e 	bne	r2,zero,1801cdc <___vfprintf_internal_r+0xf54>
 1801840:	d9414c17 	ldw	r5,1328(sp)
 1801844:	2880040c 	andi	r2,r5,16
 1801848:	1002b61e 	bne	r2,zero,1802324 <___vfprintf_internal_r+0x159c>
 180184c:	d9814c17 	ldw	r6,1328(sp)
 1801850:	3080100c 	andi	r2,r6,64
 1801854:	1002b326 	beq	r2,zero,1802324 <___vfprintf_internal_r+0x159c>
 1801858:	3c00000b 	ldhu	r16,0(r7)
 180185c:	0009883a 	mov	r4,zero
 1801860:	39c00104 	addi	r7,r7,4
 1801864:	0023883a 	mov	r17,zero
 1801868:	d9c14015 	stw	r7,1280(sp)
 180186c:	d8000405 	stb	zero,16(sp)
 1801870:	003fd306 	br	18017c0 <___vfprintf_internal_r+0xa38>
 1801874:	d9014c17 	ldw	r4,1328(sp)
 1801878:	21000414 	ori	r4,r4,16
 180187c:	d9014c15 	stw	r4,1328(sp)
 1801880:	d9414c17 	ldw	r5,1328(sp)
 1801884:	2880080c 	andi	r2,r5,32
 1801888:	1001081e 	bne	r2,zero,1801cac <___vfprintf_internal_r+0xf24>
 180188c:	d8c14c17 	ldw	r3,1328(sp)
 1801890:	1880040c 	andi	r2,r3,16
 1801894:	1002b01e 	bne	r2,zero,1802358 <___vfprintf_internal_r+0x15d0>
 1801898:	d9014c17 	ldw	r4,1328(sp)
 180189c:	2080100c 	andi	r2,r4,64
 18018a0:	1002ad26 	beq	r2,zero,1802358 <___vfprintf_internal_r+0x15d0>
 18018a4:	3c00000b 	ldhu	r16,0(r7)
 18018a8:	01000044 	movi	r4,1
 18018ac:	39c00104 	addi	r7,r7,4
 18018b0:	0023883a 	mov	r17,zero
 18018b4:	d9c14015 	stw	r7,1280(sp)
 18018b8:	d8000405 	stb	zero,16(sp)
 18018bc:	003fc006 	br	18017c0 <___vfprintf_internal_r+0xa38>
 18018c0:	d9014f17 	ldw	r4,1340(sp)
 18018c4:	b00b883a 	mov	r5,r22
 18018c8:	d9800c04 	addi	r6,sp,48
 18018cc:	1800d300 	call	1800d30 <__sprint_r>
 18018d0:	103ee51e 	bne	r2,zero,1801468 <___vfprintf_internal_r+0x6e0>
 18018d4:	dc800e17 	ldw	r18,56(sp)
 18018d8:	d8c01904 	addi	r3,sp,100
 18018dc:	d9814c17 	ldw	r6,1328(sp)
 18018e0:	3080004c 	andi	r2,r6,1
 18018e4:	1005003a 	cmpeq	r2,r2,zero
 18018e8:	103ea51e 	bne	r2,zero,1801380 <___vfprintf_internal_r+0x5f8>
 18018ec:	00800044 	movi	r2,1
 18018f0:	dc400d17 	ldw	r17,52(sp)
 18018f4:	18800115 	stw	r2,4(r3)
 18018f8:	d8814917 	ldw	r2,1316(sp)
 18018fc:	94800044 	addi	r18,r18,1
 1801900:	8c400044 	addi	r17,r17,1
 1801904:	18800015 	stw	r2,0(r3)
 1801908:	008001c4 	movi	r2,7
 180190c:	dc800e15 	stw	r18,56(sp)
 1801910:	dc400d15 	stw	r17,52(sp)
 1801914:	14421e0e 	bge	r2,r17,1802190 <___vfprintf_internal_r+0x1408>
 1801918:	d9014f17 	ldw	r4,1340(sp)
 180191c:	b00b883a 	mov	r5,r22
 1801920:	d9800c04 	addi	r6,sp,48
 1801924:	1800d300 	call	1800d30 <__sprint_r>
 1801928:	103ecf1e 	bne	r2,zero,1801468 <___vfprintf_internal_r+0x6e0>
 180192c:	dc800e17 	ldw	r18,56(sp)
 1801930:	d8c01904 	addi	r3,sp,100
 1801934:	003e9206 	br	1801380 <___vfprintf_internal_r+0x5f8>
 1801938:	d9014f17 	ldw	r4,1340(sp)
 180193c:	b00b883a 	mov	r5,r22
 1801940:	d9800c04 	addi	r6,sp,48
 1801944:	1800d300 	call	1800d30 <__sprint_r>
 1801948:	103ec026 	beq	r2,zero,180144c <___vfprintf_internal_r+0x6c4>
 180194c:	003ec606 	br	1801468 <___vfprintf_internal_r+0x6e0>
 1801950:	d9014f17 	ldw	r4,1340(sp)
 1801954:	b00b883a 	mov	r5,r22
 1801958:	d9800c04 	addi	r6,sp,48
 180195c:	d9c15115 	stw	r7,1348(sp)
 1801960:	1800d300 	call	1800d30 <__sprint_r>
 1801964:	d9c15117 	ldw	r7,1348(sp)
 1801968:	103ebf1e 	bne	r2,zero,1801468 <___vfprintf_internal_r+0x6e0>
 180196c:	dc800e17 	ldw	r18,56(sp)
 1801970:	dc400d17 	ldw	r17,52(sp)
 1801974:	dd401904 	addi	r21,sp,100
 1801978:	003e7406 	br	180134c <___vfprintf_internal_r+0x5c4>
 180197c:	d9014f17 	ldw	r4,1340(sp)
 1801980:	b00b883a 	mov	r5,r22
 1801984:	d9800c04 	addi	r6,sp,48
 1801988:	d9c15115 	stw	r7,1348(sp)
 180198c:	1800d300 	call	1800d30 <__sprint_r>
 1801990:	d9c15117 	ldw	r7,1348(sp)
 1801994:	103eb41e 	bne	r2,zero,1801468 <___vfprintf_internal_r+0x6e0>
 1801998:	dd401904 	addi	r21,sp,100
 180199c:	003d6d06 	br	1800f54 <___vfprintf_internal_r+0x1cc>
 18019a0:	d9014f17 	ldw	r4,1340(sp)
 18019a4:	b00b883a 	mov	r5,r22
 18019a8:	d9800c04 	addi	r6,sp,48
 18019ac:	d9c15115 	stw	r7,1348(sp)
 18019b0:	1800d300 	call	1800d30 <__sprint_r>
 18019b4:	d9c15117 	ldw	r7,1348(sp)
 18019b8:	103eab1e 	bne	r2,zero,1801468 <___vfprintf_internal_r+0x6e0>
 18019bc:	dc800e17 	ldw	r18,56(sp)
 18019c0:	dc400d17 	ldw	r17,52(sp)
 18019c4:	dd401904 	addi	r21,sp,100
 18019c8:	003e3406 	br	180129c <___vfprintf_internal_r+0x514>
 18019cc:	d9014f17 	ldw	r4,1340(sp)
 18019d0:	b00b883a 	mov	r5,r22
 18019d4:	d9800c04 	addi	r6,sp,48
 18019d8:	d9c15115 	stw	r7,1348(sp)
 18019dc:	1800d300 	call	1800d30 <__sprint_r>
 18019e0:	d9c15117 	ldw	r7,1348(sp)
 18019e4:	103ea01e 	bne	r2,zero,1801468 <___vfprintf_internal_r+0x6e0>
 18019e8:	dc800e17 	ldw	r18,56(sp)
 18019ec:	dc400d17 	ldw	r17,52(sp)
 18019f0:	dd401904 	addi	r21,sp,100
 18019f4:	003e1c06 	br	1801268 <___vfprintf_internal_r+0x4e0>
 18019f8:	d9014f17 	ldw	r4,1340(sp)
 18019fc:	b00b883a 	mov	r5,r22
 1801a00:	d9800c04 	addi	r6,sp,48
 1801a04:	d9c15115 	stw	r7,1348(sp)
 1801a08:	1800d300 	call	1800d30 <__sprint_r>
 1801a0c:	d9c15117 	ldw	r7,1348(sp)
 1801a10:	103e951e 	bne	r2,zero,1801468 <___vfprintf_internal_r+0x6e0>
 1801a14:	dc800e17 	ldw	r18,56(sp)
 1801a18:	dc400d17 	ldw	r17,52(sp)
 1801a1c:	dd401904 	addi	r21,sp,100
 1801a20:	003e0406 	br	1801234 <___vfprintf_internal_r+0x4ac>
 1801a24:	d9000517 	ldw	r4,20(sp)
 1801a28:	0102520e 	bge	zero,r4,1802374 <___vfprintf_internal_r+0x15ec>
 1801a2c:	d9814717 	ldw	r6,1308(sp)
 1801a30:	21807a16 	blt	r4,r6,1801c1c <___vfprintf_internal_r+0xe94>
 1801a34:	d8814117 	ldw	r2,1284(sp)
 1801a38:	91a5883a 	add	r18,r18,r6
 1801a3c:	8c400044 	addi	r17,r17,1
 1801a40:	a8800015 	stw	r2,0(r21)
 1801a44:	008001c4 	movi	r2,7
 1801a48:	a9800115 	stw	r6,4(r21)
 1801a4c:	dc800e15 	stw	r18,56(sp)
 1801a50:	dc400d15 	stw	r17,52(sp)
 1801a54:	1442f616 	blt	r2,r17,1802630 <___vfprintf_internal_r+0x18a8>
 1801a58:	a8c00204 	addi	r3,r21,8
 1801a5c:	d9414717 	ldw	r5,1308(sp)
 1801a60:	2161c83a 	sub	r16,r4,r5
 1801a64:	043f9d0e 	bge	zero,r16,18018dc <___vfprintf_internal_r+0xb54>
 1801a68:	00800404 	movi	r2,16
 1801a6c:	1402130e 	bge	r2,r16,18022bc <___vfprintf_internal_r+0x1534>
 1801a70:	dc400d17 	ldw	r17,52(sp)
 1801a74:	1027883a 	mov	r19,r2
 1801a78:	07006074 	movhi	fp,385
 1801a7c:	e703df84 	addi	fp,fp,3966
 1801a80:	050001c4 	movi	r20,7
 1801a84:	00000306 	br	1801a94 <___vfprintf_internal_r+0xd0c>
 1801a88:	18c00204 	addi	r3,r3,8
 1801a8c:	843ffc04 	addi	r16,r16,-16
 1801a90:	9c020d0e 	bge	r19,r16,18022c8 <___vfprintf_internal_r+0x1540>
 1801a94:	94800404 	addi	r18,r18,16
 1801a98:	8c400044 	addi	r17,r17,1
 1801a9c:	1f000015 	stw	fp,0(r3)
 1801aa0:	1cc00115 	stw	r19,4(r3)
 1801aa4:	dc800e15 	stw	r18,56(sp)
 1801aa8:	dc400d15 	stw	r17,52(sp)
 1801aac:	a47ff60e 	bge	r20,r17,1801a88 <___vfprintf_internal_r+0xd00>
 1801ab0:	d9014f17 	ldw	r4,1340(sp)
 1801ab4:	b00b883a 	mov	r5,r22
 1801ab8:	d9800c04 	addi	r6,sp,48
 1801abc:	1800d300 	call	1800d30 <__sprint_r>
 1801ac0:	103e691e 	bne	r2,zero,1801468 <___vfprintf_internal_r+0x6e0>
 1801ac4:	dc800e17 	ldw	r18,56(sp)
 1801ac8:	dc400d17 	ldw	r17,52(sp)
 1801acc:	d8c01904 	addi	r3,sp,100
 1801ad0:	003fee06 	br	1801a8c <___vfprintf_internal_r+0xd04>
 1801ad4:	d8814717 	ldw	r2,1308(sp)
 1801ad8:	143fffc4 	addi	r16,r2,-1
 1801adc:	043e970e 	bge	zero,r16,180153c <___vfprintf_internal_r+0x7b4>
 1801ae0:	00800404 	movi	r2,16
 1801ae4:	1400180e 	bge	r2,r16,1801b48 <___vfprintf_internal_r+0xdc0>
 1801ae8:	1029883a 	mov	r20,r2
 1801aec:	07006074 	movhi	fp,385
 1801af0:	e703df84 	addi	fp,fp,3966
 1801af4:	054001c4 	movi	r21,7
 1801af8:	00000306 	br	1801b08 <___vfprintf_internal_r+0xd80>
 1801afc:	9cc00204 	addi	r19,r19,8
 1801b00:	843ffc04 	addi	r16,r16,-16
 1801b04:	a400120e 	bge	r20,r16,1801b50 <___vfprintf_internal_r+0xdc8>
 1801b08:	94800404 	addi	r18,r18,16
 1801b0c:	8c400044 	addi	r17,r17,1
 1801b10:	9f000015 	stw	fp,0(r19)
 1801b14:	9d000115 	stw	r20,4(r19)
 1801b18:	dc800e15 	stw	r18,56(sp)
 1801b1c:	dc400d15 	stw	r17,52(sp)
 1801b20:	ac7ff60e 	bge	r21,r17,1801afc <___vfprintf_internal_r+0xd74>
 1801b24:	d9014f17 	ldw	r4,1340(sp)
 1801b28:	b00b883a 	mov	r5,r22
 1801b2c:	d9800c04 	addi	r6,sp,48
 1801b30:	1800d300 	call	1800d30 <__sprint_r>
 1801b34:	103e4c1e 	bne	r2,zero,1801468 <___vfprintf_internal_r+0x6e0>
 1801b38:	dc800e17 	ldw	r18,56(sp)
 1801b3c:	dc400d17 	ldw	r17,52(sp)
 1801b40:	dcc01904 	addi	r19,sp,100
 1801b44:	003fee06 	br	1801b00 <___vfprintf_internal_r+0xd78>
 1801b48:	07006074 	movhi	fp,385
 1801b4c:	e703df84 	addi	fp,fp,3966
 1801b50:	9425883a 	add	r18,r18,r16
 1801b54:	8c400044 	addi	r17,r17,1
 1801b58:	008001c4 	movi	r2,7
 1801b5c:	9f000015 	stw	fp,0(r19)
 1801b60:	9c000115 	stw	r16,4(r19)
 1801b64:	dc800e15 	stw	r18,56(sp)
 1801b68:	dc400d15 	stw	r17,52(sp)
 1801b6c:	147e720e 	bge	r2,r17,1801538 <___vfprintf_internal_r+0x7b0>
 1801b70:	d9014f17 	ldw	r4,1340(sp)
 1801b74:	b00b883a 	mov	r5,r22
 1801b78:	d9800c04 	addi	r6,sp,48
 1801b7c:	1800d300 	call	1800d30 <__sprint_r>
 1801b80:	103e391e 	bne	r2,zero,1801468 <___vfprintf_internal_r+0x6e0>
 1801b84:	dc800e17 	ldw	r18,56(sp)
 1801b88:	dc400d17 	ldw	r17,52(sp)
 1801b8c:	dcc01904 	addi	r19,sp,100
 1801b90:	003e6a06 	br	180153c <___vfprintf_internal_r+0x7b4>
 1801b94:	d9014f17 	ldw	r4,1340(sp)
 1801b98:	b00b883a 	mov	r5,r22
 1801b9c:	d9800c04 	addi	r6,sp,48
 1801ba0:	d9c15115 	stw	r7,1348(sp)
 1801ba4:	1800d300 	call	1800d30 <__sprint_r>
 1801ba8:	d9c15117 	ldw	r7,1348(sp)
 1801bac:	103e2e1e 	bne	r2,zero,1801468 <___vfprintf_internal_r+0x6e0>
 1801bb0:	dc800e17 	ldw	r18,56(sp)
 1801bb4:	dc400d17 	ldw	r17,52(sp)
 1801bb8:	dd401904 	addi	r21,sp,100
 1801bbc:	003dba06 	br	18012a8 <___vfprintf_internal_r+0x520>
 1801bc0:	d9014f17 	ldw	r4,1340(sp)
 1801bc4:	b00b883a 	mov	r5,r22
 1801bc8:	d9800c04 	addi	r6,sp,48
 1801bcc:	1800d300 	call	1800d30 <__sprint_r>
 1801bd0:	103e251e 	bne	r2,zero,1801468 <___vfprintf_internal_r+0x6e0>
 1801bd4:	dc800e17 	ldw	r18,56(sp)
 1801bd8:	dc400d17 	ldw	r17,52(sp)
 1801bdc:	dcc01904 	addi	r19,sp,100
 1801be0:	003e4206 	br	18014ec <___vfprintf_internal_r+0x764>
 1801be4:	d9014f17 	ldw	r4,1340(sp)
 1801be8:	b00b883a 	mov	r5,r22
 1801bec:	d9800c04 	addi	r6,sp,48
 1801bf0:	1800d300 	call	1800d30 <__sprint_r>
 1801bf4:	103e1c1e 	bne	r2,zero,1801468 <___vfprintf_internal_r+0x6e0>
 1801bf8:	dc800e17 	ldw	r18,56(sp)
 1801bfc:	dc400d17 	ldw	r17,52(sp)
 1801c00:	d8c01904 	addi	r3,sp,100
 1801c04:	003e2e06 	br	18014c0 <___vfprintf_internal_r+0x738>
 1801c08:	d9414c17 	ldw	r5,1328(sp)
 1801c0c:	2880004c 	andi	r2,r5,1
 1801c10:	1005003a 	cmpeq	r2,r2,zero
 1801c14:	103dda1e 	bne	r2,zero,1801380 <___vfprintf_internal_r+0x5f8>
 1801c18:	003e9f06 	br	1801698 <___vfprintf_internal_r+0x910>
 1801c1c:	d8c14117 	ldw	r3,1284(sp)
 1801c20:	9125883a 	add	r18,r18,r4
 1801c24:	8c400044 	addi	r17,r17,1
 1801c28:	008001c4 	movi	r2,7
 1801c2c:	a8c00015 	stw	r3,0(r21)
 1801c30:	a9000115 	stw	r4,4(r21)
 1801c34:	dc800e15 	stw	r18,56(sp)
 1801c38:	dc400d15 	stw	r17,52(sp)
 1801c3c:	14426616 	blt	r2,r17,18025d8 <___vfprintf_internal_r+0x1850>
 1801c40:	a8c00204 	addi	r3,r21,8
 1801c44:	d9414917 	ldw	r5,1316(sp)
 1801c48:	00800044 	movi	r2,1
 1801c4c:	94800044 	addi	r18,r18,1
 1801c50:	8c400044 	addi	r17,r17,1
 1801c54:	18800115 	stw	r2,4(r3)
 1801c58:	008001c4 	movi	r2,7
 1801c5c:	19400015 	stw	r5,0(r3)
 1801c60:	dc800e15 	stw	r18,56(sp)
 1801c64:	dc400d15 	stw	r17,52(sp)
 1801c68:	2021883a 	mov	r16,r4
 1801c6c:	14425016 	blt	r2,r17,18025b0 <___vfprintf_internal_r+0x1828>
 1801c70:	19400204 	addi	r5,r3,8
 1801c74:	d9814717 	ldw	r6,1308(sp)
 1801c78:	8c400044 	addi	r17,r17,1
 1801c7c:	dc400d15 	stw	r17,52(sp)
 1801c80:	3107c83a 	sub	r3,r6,r4
 1801c84:	d9014117 	ldw	r4,1284(sp)
 1801c88:	90e5883a 	add	r18,r18,r3
 1801c8c:	28c00115 	stw	r3,4(r5)
 1801c90:	8105883a 	add	r2,r16,r4
 1801c94:	28800015 	stw	r2,0(r5)
 1801c98:	008001c4 	movi	r2,7
 1801c9c:	dc800e15 	stw	r18,56(sp)
 1801ca0:	147f1d16 	blt	r2,r17,1801918 <___vfprintf_internal_r+0xb90>
 1801ca4:	28c00204 	addi	r3,r5,8
 1801ca8:	003db506 	br	1801380 <___vfprintf_internal_r+0x5f8>
 1801cac:	3c000017 	ldw	r16,0(r7)
 1801cb0:	3c400117 	ldw	r17,4(r7)
 1801cb4:	39800204 	addi	r6,r7,8
 1801cb8:	01000044 	movi	r4,1
 1801cbc:	d9814015 	stw	r6,1280(sp)
 1801cc0:	d8000405 	stb	zero,16(sp)
 1801cc4:	003ebe06 	br	18017c0 <___vfprintf_internal_r+0xa38>
 1801cc8:	3c000017 	ldw	r16,0(r7)
 1801ccc:	3c400117 	ldw	r17,4(r7)
 1801cd0:	38800204 	addi	r2,r7,8
 1801cd4:	d8814015 	stw	r2,1280(sp)
 1801cd8:	003eb706 	br	18017b8 <___vfprintf_internal_r+0xa30>
 1801cdc:	3c000017 	ldw	r16,0(r7)
 1801ce0:	3c400117 	ldw	r17,4(r7)
 1801ce4:	39000204 	addi	r4,r7,8
 1801ce8:	d9014015 	stw	r4,1280(sp)
 1801cec:	0009883a 	mov	r4,zero
 1801cf0:	d8000405 	stb	zero,16(sp)
 1801cf4:	003eb206 	br	18017c0 <___vfprintf_internal_r+0xa38>
 1801cf8:	38c00017 	ldw	r3,0(r7)
 1801cfc:	39c00104 	addi	r7,r7,4
 1801d00:	d8c14a15 	stw	r3,1320(sp)
 1801d04:	1800d10e 	bge	r3,zero,180204c <___vfprintf_internal_r+0x12c4>
 1801d08:	00c7c83a 	sub	r3,zero,r3
 1801d0c:	d8c14a15 	stw	r3,1320(sp)
 1801d10:	d9014c17 	ldw	r4,1328(sp)
 1801d14:	b8c00007 	ldb	r3,0(r23)
 1801d18:	21000114 	ori	r4,r4,4
 1801d1c:	d9014c15 	stw	r4,1328(sp)
 1801d20:	003c9806 	br	1800f84 <___vfprintf_internal_r+0x1fc>
 1801d24:	d9814c17 	ldw	r6,1328(sp)
 1801d28:	3080080c 	andi	r2,r6,32
 1801d2c:	1001f026 	beq	r2,zero,18024f0 <___vfprintf_internal_r+0x1768>
 1801d30:	d9014b17 	ldw	r4,1324(sp)
 1801d34:	38800017 	ldw	r2,0(r7)
 1801d38:	39c00104 	addi	r7,r7,4
 1801d3c:	d9c14015 	stw	r7,1280(sp)
 1801d40:	2007d7fa 	srai	r3,r4,31
 1801d44:	d9c14017 	ldw	r7,1280(sp)
 1801d48:	11000015 	stw	r4,0(r2)
 1801d4c:	10c00115 	stw	r3,4(r2)
 1801d50:	003c6906 	br	1800ef8 <___vfprintf_internal_r+0x170>
 1801d54:	b8c00007 	ldb	r3,0(r23)
 1801d58:	00801b04 	movi	r2,108
 1801d5c:	18824f26 	beq	r3,r2,180269c <___vfprintf_internal_r+0x1914>
 1801d60:	d9414c17 	ldw	r5,1328(sp)
 1801d64:	29400414 	ori	r5,r5,16
 1801d68:	d9414c15 	stw	r5,1328(sp)
 1801d6c:	003c8506 	br	1800f84 <___vfprintf_internal_r+0x1fc>
 1801d70:	d9814c17 	ldw	r6,1328(sp)
 1801d74:	b8c00007 	ldb	r3,0(r23)
 1801d78:	31800814 	ori	r6,r6,32
 1801d7c:	d9814c15 	stw	r6,1328(sp)
 1801d80:	003c8006 	br	1800f84 <___vfprintf_internal_r+0x1fc>
 1801d84:	d8814c17 	ldw	r2,1328(sp)
 1801d88:	3c000017 	ldw	r16,0(r7)
 1801d8c:	00c01e04 	movi	r3,120
 1801d90:	10800094 	ori	r2,r2,2
 1801d94:	d8814c15 	stw	r2,1328(sp)
 1801d98:	39c00104 	addi	r7,r7,4
 1801d9c:	01406074 	movhi	r5,385
 1801da0:	2943c804 	addi	r5,r5,3872
 1801da4:	00800c04 	movi	r2,48
 1801da8:	0023883a 	mov	r17,zero
 1801dac:	01000084 	movi	r4,2
 1801db0:	d9c14015 	stw	r7,1280(sp)
 1801db4:	d8c14d15 	stw	r3,1332(sp)
 1801db8:	d9414415 	stw	r5,1296(sp)
 1801dbc:	d8800445 	stb	r2,17(sp)
 1801dc0:	d8c00485 	stb	r3,18(sp)
 1801dc4:	d8000405 	stb	zero,16(sp)
 1801dc8:	003e7d06 	br	18017c0 <___vfprintf_internal_r+0xa38>
 1801dcc:	d8814c17 	ldw	r2,1328(sp)
 1801dd0:	b8c00007 	ldb	r3,0(r23)
 1801dd4:	10801014 	ori	r2,r2,64
 1801dd8:	d8814c15 	stw	r2,1328(sp)
 1801ddc:	003c6906 	br	1800f84 <___vfprintf_internal_r+0x1fc>
 1801de0:	d9414c17 	ldw	r5,1328(sp)
 1801de4:	2880020c 	andi	r2,r5,8
 1801de8:	1001df26 	beq	r2,zero,1802568 <___vfprintf_internal_r+0x17e0>
 1801dec:	39800017 	ldw	r6,0(r7)
 1801df0:	38800204 	addi	r2,r7,8
 1801df4:	d8814015 	stw	r2,1280(sp)
 1801df8:	d9814215 	stw	r6,1288(sp)
 1801dfc:	39c00117 	ldw	r7,4(r7)
 1801e00:	d9c14315 	stw	r7,1292(sp)
 1801e04:	d9014217 	ldw	r4,1288(sp)
 1801e08:	d9414317 	ldw	r5,1292(sp)
 1801e0c:	18077280 	call	1807728 <__isinfd>
 1801e10:	10021726 	beq	r2,zero,1802670 <___vfprintf_internal_r+0x18e8>
 1801e14:	d9014217 	ldw	r4,1288(sp)
 1801e18:	d9414317 	ldw	r5,1292(sp)
 1801e1c:	000d883a 	mov	r6,zero
 1801e20:	000f883a 	mov	r7,zero
 1801e24:	18097700 	call	1809770 <__ltdf2>
 1801e28:	1002ca16 	blt	r2,zero,1802954 <___vfprintf_internal_r+0x1bcc>
 1801e2c:	d9414d17 	ldw	r5,1332(sp)
 1801e30:	008011c4 	movi	r2,71
 1801e34:	11420a16 	blt	r2,r5,1802660 <___vfprintf_internal_r+0x18d8>
 1801e38:	01806074 	movhi	r6,385
 1801e3c:	3183cd04 	addi	r6,r6,3892
 1801e40:	d9814115 	stw	r6,1284(sp)
 1801e44:	d9014c17 	ldw	r4,1328(sp)
 1801e48:	00c000c4 	movi	r3,3
 1801e4c:	00bfdfc4 	movi	r2,-129
 1801e50:	2088703a 	and	r4,r4,r2
 1801e54:	180f883a 	mov	r7,r3
 1801e58:	d8c14515 	stw	r3,1300(sp)
 1801e5c:	d9014c15 	stw	r4,1328(sp)
 1801e60:	d8014615 	stw	zero,1304(sp)
 1801e64:	003e6a06 	br	1801810 <___vfprintf_internal_r+0xa88>
 1801e68:	38800017 	ldw	r2,0(r7)
 1801e6c:	00c00044 	movi	r3,1
 1801e70:	39c00104 	addi	r7,r7,4
 1801e74:	d9c14015 	stw	r7,1280(sp)
 1801e78:	d9000f04 	addi	r4,sp,60
 1801e7c:	180f883a 	mov	r7,r3
 1801e80:	d8c14515 	stw	r3,1300(sp)
 1801e84:	d9014115 	stw	r4,1284(sp)
 1801e88:	d8800f05 	stb	r2,60(sp)
 1801e8c:	d8000405 	stb	zero,16(sp)
 1801e90:	003cac06 	br	1801144 <___vfprintf_internal_r+0x3bc>
 1801e94:	01406074 	movhi	r5,385
 1801e98:	2943d304 	addi	r5,r5,3916
 1801e9c:	d9414415 	stw	r5,1296(sp)
 1801ea0:	d9814c17 	ldw	r6,1328(sp)
 1801ea4:	3080080c 	andi	r2,r6,32
 1801ea8:	1000f926 	beq	r2,zero,1802290 <___vfprintf_internal_r+0x1508>
 1801eac:	3c000017 	ldw	r16,0(r7)
 1801eb0:	3c400117 	ldw	r17,4(r7)
 1801eb4:	38800204 	addi	r2,r7,8
 1801eb8:	d8814015 	stw	r2,1280(sp)
 1801ebc:	d9414c17 	ldw	r5,1328(sp)
 1801ec0:	2880004c 	andi	r2,r5,1
 1801ec4:	1005003a 	cmpeq	r2,r2,zero
 1801ec8:	1000b31e 	bne	r2,zero,1802198 <___vfprintf_internal_r+0x1410>
 1801ecc:	8444b03a 	or	r2,r16,r17
 1801ed0:	1000b126 	beq	r2,zero,1802198 <___vfprintf_internal_r+0x1410>
 1801ed4:	d9814d17 	ldw	r6,1332(sp)
 1801ed8:	29400094 	ori	r5,r5,2
 1801edc:	00800c04 	movi	r2,48
 1801ee0:	01000084 	movi	r4,2
 1801ee4:	d9414c15 	stw	r5,1328(sp)
 1801ee8:	d8800445 	stb	r2,17(sp)
 1801eec:	d9800485 	stb	r6,18(sp)
 1801ef0:	d8000405 	stb	zero,16(sp)
 1801ef4:	003e3206 	br	18017c0 <___vfprintf_internal_r+0xa38>
 1801ef8:	01806074 	movhi	r6,385
 1801efc:	3183c804 	addi	r6,r6,3872
 1801f00:	d9814415 	stw	r6,1296(sp)
 1801f04:	003fe606 	br	1801ea0 <___vfprintf_internal_r+0x1118>
 1801f08:	00800ac4 	movi	r2,43
 1801f0c:	d8800405 	stb	r2,16(sp)
 1801f10:	b8c00007 	ldb	r3,0(r23)
 1801f14:	003c1b06 	br	1800f84 <___vfprintf_internal_r+0x1fc>
 1801f18:	d8814c17 	ldw	r2,1328(sp)
 1801f1c:	b8c00007 	ldb	r3,0(r23)
 1801f20:	10800054 	ori	r2,r2,1
 1801f24:	d8814c15 	stw	r2,1328(sp)
 1801f28:	003c1606 	br	1800f84 <___vfprintf_internal_r+0x1fc>
 1801f2c:	d8800407 	ldb	r2,16(sp)
 1801f30:	1000461e 	bne	r2,zero,180204c <___vfprintf_internal_r+0x12c4>
 1801f34:	00800804 	movi	r2,32
 1801f38:	d8800405 	stb	r2,16(sp)
 1801f3c:	b8c00007 	ldb	r3,0(r23)
 1801f40:	003c1006 	br	1800f84 <___vfprintf_internal_r+0x1fc>
 1801f44:	d9814c17 	ldw	r6,1328(sp)
 1801f48:	b8c00007 	ldb	r3,0(r23)
 1801f4c:	31800214 	ori	r6,r6,8
 1801f50:	d9814c15 	stw	r6,1328(sp)
 1801f54:	003c0b06 	br	1800f84 <___vfprintf_internal_r+0x1fc>
 1801f58:	0007883a 	mov	r3,zero
 1801f5c:	01000244 	movi	r4,9
 1801f60:	188002a4 	muli	r2,r3,10
 1801f64:	b8c00007 	ldb	r3,0(r23)
 1801f68:	d9814d17 	ldw	r6,1332(sp)
 1801f6c:	bdc00044 	addi	r23,r23,1
 1801f70:	d8c14d15 	stw	r3,1332(sp)
 1801f74:	d9414d17 	ldw	r5,1332(sp)
 1801f78:	3085883a 	add	r2,r6,r2
 1801f7c:	10fff404 	addi	r3,r2,-48
 1801f80:	28bff404 	addi	r2,r5,-48
 1801f84:	20bff62e 	bgeu	r4,r2,1801f60 <___vfprintf_internal_r+0x11d8>
 1801f88:	d8c14a15 	stw	r3,1320(sp)
 1801f8c:	003bff06 	br	1800f8c <___vfprintf_internal_r+0x204>
 1801f90:	d9414c17 	ldw	r5,1328(sp)
 1801f94:	b8c00007 	ldb	r3,0(r23)
 1801f98:	29402014 	ori	r5,r5,128
 1801f9c:	d9414c15 	stw	r5,1328(sp)
 1801fa0:	003bf806 	br	1800f84 <___vfprintf_internal_r+0x1fc>
 1801fa4:	b8c00007 	ldb	r3,0(r23)
 1801fa8:	00800a84 	movi	r2,42
 1801fac:	bdc00044 	addi	r23,r23,1
 1801fb0:	18831526 	beq	r3,r2,1802c08 <___vfprintf_internal_r+0x1e80>
 1801fb4:	d8c14d15 	stw	r3,1332(sp)
 1801fb8:	18bff404 	addi	r2,r3,-48
 1801fbc:	00c00244 	movi	r3,9
 1801fc0:	18827836 	bltu	r3,r2,18029a4 <___vfprintf_internal_r+0x1c1c>
 1801fc4:	000d883a 	mov	r6,zero
 1801fc8:	308002a4 	muli	r2,r6,10
 1801fcc:	b9800007 	ldb	r6,0(r23)
 1801fd0:	d9414d17 	ldw	r5,1332(sp)
 1801fd4:	bdc00044 	addi	r23,r23,1
 1801fd8:	d9814d15 	stw	r6,1332(sp)
 1801fdc:	d9014d17 	ldw	r4,1332(sp)
 1801fe0:	1145883a 	add	r2,r2,r5
 1801fe4:	11bff404 	addi	r6,r2,-48
 1801fe8:	20bff404 	addi	r2,r4,-48
 1801fec:	18bff62e 	bgeu	r3,r2,1801fc8 <___vfprintf_internal_r+0x1240>
 1801ff0:	3027883a 	mov	r19,r6
 1801ff4:	303be50e 	bge	r6,zero,1800f8c <___vfprintf_internal_r+0x204>
 1801ff8:	04ffffc4 	movi	r19,-1
 1801ffc:	003be306 	br	1800f8c <___vfprintf_internal_r+0x204>
 1802000:	d8000405 	stb	zero,16(sp)
 1802004:	39800017 	ldw	r6,0(r7)
 1802008:	39c00104 	addi	r7,r7,4
 180200c:	d9c14015 	stw	r7,1280(sp)
 1802010:	d9814115 	stw	r6,1284(sp)
 1802014:	3001c926 	beq	r6,zero,180273c <___vfprintf_internal_r+0x19b4>
 1802018:	98000e16 	blt	r19,zero,1802054 <___vfprintf_internal_r+0x12cc>
 180201c:	d9014117 	ldw	r4,1284(sp)
 1802020:	000b883a 	mov	r5,zero
 1802024:	980d883a 	mov	r6,r19
 1802028:	1805e440 	call	1805e44 <memchr>
 180202c:	10025926 	beq	r2,zero,1802994 <___vfprintf_internal_r+0x1c0c>
 1802030:	d8c14117 	ldw	r3,1284(sp)
 1802034:	10cfc83a 	sub	r7,r2,r3
 1802038:	99c19e16 	blt	r19,r7,18026b4 <___vfprintf_internal_r+0x192c>
 180203c:	d9c14515 	stw	r7,1300(sp)
 1802040:	38000916 	blt	r7,zero,1802068 <___vfprintf_internal_r+0x12e0>
 1802044:	d8014615 	stw	zero,1304(sp)
 1802048:	003df106 	br	1801810 <___vfprintf_internal_r+0xa88>
 180204c:	b8c00007 	ldb	r3,0(r23)
 1802050:	003bcc06 	br	1800f84 <___vfprintf_internal_r+0x1fc>
 1802054:	d9014117 	ldw	r4,1284(sp)
 1802058:	1800cbc0 	call	1800cbc <strlen>
 180205c:	d8814515 	stw	r2,1300(sp)
 1802060:	100f883a 	mov	r7,r2
 1802064:	103ff70e 	bge	r2,zero,1802044 <___vfprintf_internal_r+0x12bc>
 1802068:	d8014515 	stw	zero,1300(sp)
 180206c:	d8014615 	stw	zero,1304(sp)
 1802070:	003de706 	br	1801810 <___vfprintf_internal_r+0xa88>
 1802074:	20c03fcc 	andi	r3,r4,255
 1802078:	00800044 	movi	r2,1
 180207c:	18802d26 	beq	r3,r2,1802134 <___vfprintf_internal_r+0x13ac>
 1802080:	18800e36 	bltu	r3,r2,18020bc <___vfprintf_internal_r+0x1334>
 1802084:	00800084 	movi	r2,2
 1802088:	1880fa26 	beq	r3,r2,1802474 <___vfprintf_internal_r+0x16ec>
 180208c:	01006074 	movhi	r4,385
 1802090:	2103d804 	addi	r4,r4,3936
 1802094:	1800cbc0 	call	1800cbc <strlen>
 1802098:	100f883a 	mov	r7,r2
 180209c:	dcc14515 	stw	r19,1300(sp)
 18020a0:	9880010e 	bge	r19,r2,18020a8 <___vfprintf_internal_r+0x1320>
 18020a4:	d8814515 	stw	r2,1300(sp)
 18020a8:	00806074 	movhi	r2,385
 18020ac:	1083d804 	addi	r2,r2,3936
 18020b0:	dcc14615 	stw	r19,1304(sp)
 18020b4:	d8814115 	stw	r2,1284(sp)
 18020b8:	003dd506 	br	1801810 <___vfprintf_internal_r+0xa88>
 18020bc:	d9401904 	addi	r5,sp,100
 18020c0:	dd000f04 	addi	r20,sp,60
 18020c4:	d9414115 	stw	r5,1284(sp)
 18020c8:	880a977a 	slli	r5,r17,29
 18020cc:	d9814117 	ldw	r6,1284(sp)
 18020d0:	8004d0fa 	srli	r2,r16,3
 18020d4:	8806d0fa 	srli	r3,r17,3
 18020d8:	810001cc 	andi	r4,r16,7
 18020dc:	2884b03a 	or	r2,r5,r2
 18020e0:	31bfffc4 	addi	r6,r6,-1
 18020e4:	21000c04 	addi	r4,r4,48
 18020e8:	d9814115 	stw	r6,1284(sp)
 18020ec:	10cab03a 	or	r5,r2,r3
 18020f0:	31000005 	stb	r4,0(r6)
 18020f4:	1021883a 	mov	r16,r2
 18020f8:	1823883a 	mov	r17,r3
 18020fc:	283ff21e 	bne	r5,zero,18020c8 <___vfprintf_internal_r+0x1340>
 1802100:	d8c14c17 	ldw	r3,1328(sp)
 1802104:	1880004c 	andi	r2,r3,1
 1802108:	1005003a 	cmpeq	r2,r2,zero
 180210c:	103db91e 	bne	r2,zero,18017f4 <___vfprintf_internal_r+0xa6c>
 1802110:	20803fcc 	andi	r2,r4,255
 1802114:	1080201c 	xori	r2,r2,128
 1802118:	10bfe004 	addi	r2,r2,-128
 180211c:	00c00c04 	movi	r3,48
 1802120:	10fdb426 	beq	r2,r3,18017f4 <___vfprintf_internal_r+0xa6c>
 1802124:	31bfffc4 	addi	r6,r6,-1
 1802128:	d9814115 	stw	r6,1284(sp)
 180212c:	30c00005 	stb	r3,0(r6)
 1802130:	003db006 	br	18017f4 <___vfprintf_internal_r+0xa6c>
 1802134:	88800068 	cmpgeui	r2,r17,1
 1802138:	10002c1e 	bne	r2,zero,18021ec <___vfprintf_internal_r+0x1464>
 180213c:	8800021e 	bne	r17,zero,1802148 <___vfprintf_internal_r+0x13c0>
 1802140:	00800244 	movi	r2,9
 1802144:	14002936 	bltu	r2,r16,18021ec <___vfprintf_internal_r+0x1464>
 1802148:	d90018c4 	addi	r4,sp,99
 180214c:	dd000f04 	addi	r20,sp,60
 1802150:	d9014115 	stw	r4,1284(sp)
 1802154:	d9014117 	ldw	r4,1284(sp)
 1802158:	80800c04 	addi	r2,r16,48
 180215c:	20800005 	stb	r2,0(r4)
 1802160:	003da406 	br	18017f4 <___vfprintf_internal_r+0xa6c>
 1802164:	dc400d17 	ldw	r17,52(sp)
 1802168:	07006074 	movhi	fp,385
 180216c:	e703df84 	addi	fp,fp,3966
 1802170:	9425883a 	add	r18,r18,r16
 1802174:	8c400044 	addi	r17,r17,1
 1802178:	008001c4 	movi	r2,7
 180217c:	1f000015 	stw	fp,0(r3)
 1802180:	1c000115 	stw	r16,4(r3)
 1802184:	dc800e15 	stw	r18,56(sp)
 1802188:	dc400d15 	stw	r17,52(sp)
 180218c:	147de216 	blt	r2,r17,1801918 <___vfprintf_internal_r+0xb90>
 1802190:	18c00204 	addi	r3,r3,8
 1802194:	003c7a06 	br	1801380 <___vfprintf_internal_r+0x5f8>
 1802198:	01000084 	movi	r4,2
 180219c:	d8000405 	stb	zero,16(sp)
 18021a0:	003d8706 	br	18017c0 <___vfprintf_internal_r+0xa38>
 18021a4:	d9814c17 	ldw	r6,1328(sp)
 18021a8:	30c4703a 	and	r2,r6,r3
 18021ac:	1005003a 	cmpeq	r2,r2,zero
 18021b0:	103cb926 	beq	r2,zero,1801498 <___vfprintf_internal_r+0x710>
 18021b4:	d9014117 	ldw	r4,1284(sp)
 18021b8:	94800044 	addi	r18,r18,1
 18021bc:	8c400044 	addi	r17,r17,1
 18021c0:	008001c4 	movi	r2,7
 18021c4:	a9000015 	stw	r4,0(r21)
 18021c8:	a8c00115 	stw	r3,4(r21)
 18021cc:	dc800e15 	stw	r18,56(sp)
 18021d0:	dc400d15 	stw	r17,52(sp)
 18021d4:	147e6616 	blt	r2,r17,1801b70 <___vfprintf_internal_r+0xde8>
 18021d8:	acc00204 	addi	r19,r21,8
 18021dc:	003cd706 	br	180153c <___vfprintf_internal_r+0x7b4>
 18021e0:	07006074 	movhi	fp,385
 18021e4:	e703df84 	addi	fp,fp,3966
 18021e8:	003c4f06 	br	1801328 <___vfprintf_internal_r+0x5a0>
 18021ec:	dd000f04 	addi	r20,sp,60
 18021f0:	dc801904 	addi	r18,sp,100
 18021f4:	8009883a 	mov	r4,r16
 18021f8:	880b883a 	mov	r5,r17
 18021fc:	01800284 	movi	r6,10
 1802200:	000f883a 	mov	r7,zero
 1802204:	18084800 	call	1808480 <__umoddi3>
 1802208:	12000c04 	addi	r8,r2,48
 180220c:	94bfffc4 	addi	r18,r18,-1
 1802210:	8009883a 	mov	r4,r16
 1802214:	880b883a 	mov	r5,r17
 1802218:	01800284 	movi	r6,10
 180221c:	000f883a 	mov	r7,zero
 1802220:	92000005 	stb	r8,0(r18)
 1802224:	1807ea40 	call	1807ea4 <__udivdi3>
 1802228:	1009883a 	mov	r4,r2
 180222c:	1021883a 	mov	r16,r2
 1802230:	18800068 	cmpgeui	r2,r3,1
 1802234:	1823883a 	mov	r17,r3
 1802238:	103fee1e 	bne	r2,zero,18021f4 <___vfprintf_internal_r+0x146c>
 180223c:	1800021e 	bne	r3,zero,1802248 <___vfprintf_internal_r+0x14c0>
 1802240:	00800244 	movi	r2,9
 1802244:	113feb36 	bltu	r2,r4,18021f4 <___vfprintf_internal_r+0x146c>
 1802248:	94bfffc4 	addi	r18,r18,-1
 180224c:	dc814115 	stw	r18,1284(sp)
 1802250:	003fc006 	br	1802154 <___vfprintf_internal_r+0x13cc>
 1802254:	d9014c17 	ldw	r4,1328(sp)
 1802258:	2080004c 	andi	r2,r4,1
 180225c:	10009a1e 	bne	r2,zero,18024c8 <___vfprintf_internal_r+0x1740>
 1802260:	d9401904 	addi	r5,sp,100
 1802264:	dd000f04 	addi	r20,sp,60
 1802268:	d9414115 	stw	r5,1284(sp)
 180226c:	003d6106 	br	18017f4 <___vfprintf_internal_r+0xa6c>
 1802270:	d9014f17 	ldw	r4,1340(sp)
 1802274:	b00b883a 	mov	r5,r22
 1802278:	d9800c04 	addi	r6,sp,48
 180227c:	1800d300 	call	1800d30 <__sprint_r>
 1802280:	103c791e 	bne	r2,zero,1801468 <___vfprintf_internal_r+0x6e0>
 1802284:	dc800e17 	ldw	r18,56(sp)
 1802288:	d8c01904 	addi	r3,sp,100
 180228c:	003cff06 	br	180168c <___vfprintf_internal_r+0x904>
 1802290:	d8c14c17 	ldw	r3,1328(sp)
 1802294:	1880040c 	andi	r2,r3,16
 1802298:	1000711e 	bne	r2,zero,1802460 <___vfprintf_internal_r+0x16d8>
 180229c:	d9014c17 	ldw	r4,1328(sp)
 18022a0:	2080100c 	andi	r2,r4,64
 18022a4:	10006e26 	beq	r2,zero,1802460 <___vfprintf_internal_r+0x16d8>
 18022a8:	3c00000b 	ldhu	r16,0(r7)
 18022ac:	0023883a 	mov	r17,zero
 18022b0:	39c00104 	addi	r7,r7,4
 18022b4:	d9c14015 	stw	r7,1280(sp)
 18022b8:	003f0006 	br	1801ebc <___vfprintf_internal_r+0x1134>
 18022bc:	dc400d17 	ldw	r17,52(sp)
 18022c0:	07006074 	movhi	fp,385
 18022c4:	e703df84 	addi	fp,fp,3966
 18022c8:	9425883a 	add	r18,r18,r16
 18022cc:	8c400044 	addi	r17,r17,1
 18022d0:	008001c4 	movi	r2,7
 18022d4:	1f000015 	stw	fp,0(r3)
 18022d8:	1c000115 	stw	r16,4(r3)
 18022dc:	dc800e15 	stw	r18,56(sp)
 18022e0:	dc400d15 	stw	r17,52(sp)
 18022e4:	147d7616 	blt	r2,r17,18018c0 <___vfprintf_internal_r+0xb38>
 18022e8:	18c00204 	addi	r3,r3,8
 18022ec:	003d7b06 	br	18018dc <___vfprintf_internal_r+0xb54>
 18022f0:	dc800e17 	ldw	r18,56(sp)
 18022f4:	dc400d17 	ldw	r17,52(sp)
 18022f8:	07006074 	movhi	fp,385
 18022fc:	e703e384 	addi	fp,fp,3982
 1802300:	003bc006 	br	1801204 <___vfprintf_internal_r+0x47c>
 1802304:	d9014f17 	ldw	r4,1340(sp)
 1802308:	b00b883a 	mov	r5,r22
 180230c:	d9800c04 	addi	r6,sp,48
 1802310:	1800d300 	call	1800d30 <__sprint_r>
 1802314:	103c541e 	bne	r2,zero,1801468 <___vfprintf_internal_r+0x6e0>
 1802318:	dc800e17 	ldw	r18,56(sp)
 180231c:	d8c01904 	addi	r3,sp,100
 1802320:	003ce906 	br	18016c8 <___vfprintf_internal_r+0x940>
 1802324:	3c000017 	ldw	r16,0(r7)
 1802328:	0009883a 	mov	r4,zero
 180232c:	39c00104 	addi	r7,r7,4
 1802330:	0023883a 	mov	r17,zero
 1802334:	d9c14015 	stw	r7,1280(sp)
 1802338:	d8000405 	stb	zero,16(sp)
 180233c:	003d2006 	br	18017c0 <___vfprintf_internal_r+0xa38>
 1802340:	38800017 	ldw	r2,0(r7)
 1802344:	39c00104 	addi	r7,r7,4
 1802348:	d9c14015 	stw	r7,1280(sp)
 180234c:	1023d7fa 	srai	r17,r2,31
 1802350:	1021883a 	mov	r16,r2
 1802354:	003d1806 	br	18017b8 <___vfprintf_internal_r+0xa30>
 1802358:	3c000017 	ldw	r16,0(r7)
 180235c:	01000044 	movi	r4,1
 1802360:	39c00104 	addi	r7,r7,4
 1802364:	0023883a 	mov	r17,zero
 1802368:	d9c14015 	stw	r7,1280(sp)
 180236c:	d8000405 	stb	zero,16(sp)
 1802370:	003d1306 	br	18017c0 <___vfprintf_internal_r+0xa38>
 1802374:	00806074 	movhi	r2,385
 1802378:	1083df04 	addi	r2,r2,3964
 180237c:	94800044 	addi	r18,r18,1
 1802380:	8c400044 	addi	r17,r17,1
 1802384:	a8800015 	stw	r2,0(r21)
 1802388:	00c00044 	movi	r3,1
 180238c:	008001c4 	movi	r2,7
 1802390:	a8c00115 	stw	r3,4(r21)
 1802394:	dc800e15 	stw	r18,56(sp)
 1802398:	dc400d15 	stw	r17,52(sp)
 180239c:	1440ca16 	blt	r2,r17,18026c8 <___vfprintf_internal_r+0x1940>
 18023a0:	a8c00204 	addi	r3,r21,8
 18023a4:	2000061e 	bne	r4,zero,18023c0 <___vfprintf_internal_r+0x1638>
 18023a8:	d9414717 	ldw	r5,1308(sp)
 18023ac:	2800041e 	bne	r5,zero,18023c0 <___vfprintf_internal_r+0x1638>
 18023b0:	d9814c17 	ldw	r6,1328(sp)
 18023b4:	3080004c 	andi	r2,r6,1
 18023b8:	1005003a 	cmpeq	r2,r2,zero
 18023bc:	103bf01e 	bne	r2,zero,1801380 <___vfprintf_internal_r+0x5f8>
 18023c0:	00800044 	movi	r2,1
 18023c4:	dc400d17 	ldw	r17,52(sp)
 18023c8:	18800115 	stw	r2,4(r3)
 18023cc:	d8814917 	ldw	r2,1316(sp)
 18023d0:	94800044 	addi	r18,r18,1
 18023d4:	8c400044 	addi	r17,r17,1
 18023d8:	18800015 	stw	r2,0(r3)
 18023dc:	008001c4 	movi	r2,7
 18023e0:	dc800e15 	stw	r18,56(sp)
 18023e4:	dc400d15 	stw	r17,52(sp)
 18023e8:	1440ca16 	blt	r2,r17,1802714 <___vfprintf_internal_r+0x198c>
 18023ec:	18c00204 	addi	r3,r3,8
 18023f0:	0121c83a 	sub	r16,zero,r4
 18023f4:	0400500e 	bge	zero,r16,1802538 <___vfprintf_internal_r+0x17b0>
 18023f8:	00800404 	movi	r2,16
 18023fc:	1400800e 	bge	r2,r16,1802600 <___vfprintf_internal_r+0x1878>
 1802400:	1027883a 	mov	r19,r2
 1802404:	07006074 	movhi	fp,385
 1802408:	e703df84 	addi	fp,fp,3966
 180240c:	050001c4 	movi	r20,7
 1802410:	00000306 	br	1802420 <___vfprintf_internal_r+0x1698>
 1802414:	18c00204 	addi	r3,r3,8
 1802418:	843ffc04 	addi	r16,r16,-16
 180241c:	9c007a0e 	bge	r19,r16,1802608 <___vfprintf_internal_r+0x1880>
 1802420:	94800404 	addi	r18,r18,16
 1802424:	8c400044 	addi	r17,r17,1
 1802428:	1f000015 	stw	fp,0(r3)
 180242c:	1cc00115 	stw	r19,4(r3)
 1802430:	dc800e15 	stw	r18,56(sp)
 1802434:	dc400d15 	stw	r17,52(sp)
 1802438:	a47ff60e 	bge	r20,r17,1802414 <___vfprintf_internal_r+0x168c>
 180243c:	d9014f17 	ldw	r4,1340(sp)
 1802440:	b00b883a 	mov	r5,r22
 1802444:	d9800c04 	addi	r6,sp,48
 1802448:	1800d300 	call	1800d30 <__sprint_r>
 180244c:	103c061e 	bne	r2,zero,1801468 <___vfprintf_internal_r+0x6e0>
 1802450:	dc800e17 	ldw	r18,56(sp)
 1802454:	dc400d17 	ldw	r17,52(sp)
 1802458:	d8c01904 	addi	r3,sp,100
 180245c:	003fee06 	br	1802418 <___vfprintf_internal_r+0x1690>
 1802460:	3c000017 	ldw	r16,0(r7)
 1802464:	0023883a 	mov	r17,zero
 1802468:	39c00104 	addi	r7,r7,4
 180246c:	d9c14015 	stw	r7,1280(sp)
 1802470:	003e9206 	br	1801ebc <___vfprintf_internal_r+0x1134>
 1802474:	d9401904 	addi	r5,sp,100
 1802478:	dd000f04 	addi	r20,sp,60
 180247c:	d9414115 	stw	r5,1284(sp)
 1802480:	d9814417 	ldw	r6,1296(sp)
 1802484:	880a973a 	slli	r5,r17,28
 1802488:	8004d13a 	srli	r2,r16,4
 180248c:	810003cc 	andi	r4,r16,15
 1802490:	3109883a 	add	r4,r6,r4
 1802494:	2884b03a 	or	r2,r5,r2
 1802498:	21400003 	ldbu	r5,0(r4)
 180249c:	d9014117 	ldw	r4,1284(sp)
 18024a0:	8806d13a 	srli	r3,r17,4
 18024a4:	1021883a 	mov	r16,r2
 18024a8:	213fffc4 	addi	r4,r4,-1
 18024ac:	d9014115 	stw	r4,1284(sp)
 18024b0:	d9814117 	ldw	r6,1284(sp)
 18024b4:	10c8b03a 	or	r4,r2,r3
 18024b8:	1823883a 	mov	r17,r3
 18024bc:	31400005 	stb	r5,0(r6)
 18024c0:	203fef1e 	bne	r4,zero,1802480 <___vfprintf_internal_r+0x16f8>
 18024c4:	003ccb06 	br	18017f4 <___vfprintf_internal_r+0xa6c>
 18024c8:	00800c04 	movi	r2,48
 18024cc:	d98018c4 	addi	r6,sp,99
 18024d0:	dd000f04 	addi	r20,sp,60
 18024d4:	d88018c5 	stb	r2,99(sp)
 18024d8:	d9814115 	stw	r6,1284(sp)
 18024dc:	003cc506 	br	18017f4 <___vfprintf_internal_r+0xa6c>
 18024e0:	dc400d17 	ldw	r17,52(sp)
 18024e4:	07006074 	movhi	fp,385
 18024e8:	e703e384 	addi	fp,fp,3982
 18024ec:	003bc706 	br	180140c <___vfprintf_internal_r+0x684>
 18024f0:	d9414c17 	ldw	r5,1328(sp)
 18024f4:	2880040c 	andi	r2,r5,16
 18024f8:	10007c26 	beq	r2,zero,18026ec <___vfprintf_internal_r+0x1964>
 18024fc:	38800017 	ldw	r2,0(r7)
 1802500:	39c00104 	addi	r7,r7,4
 1802504:	d9c14015 	stw	r7,1280(sp)
 1802508:	d9814b17 	ldw	r6,1324(sp)
 180250c:	d9c14017 	ldw	r7,1280(sp)
 1802510:	11800015 	stw	r6,0(r2)
 1802514:	003a7806 	br	1800ef8 <___vfprintf_internal_r+0x170>
 1802518:	d9014f17 	ldw	r4,1340(sp)
 180251c:	b00b883a 	mov	r5,r22
 1802520:	d9800c04 	addi	r6,sp,48
 1802524:	1800d300 	call	1800d30 <__sprint_r>
 1802528:	103bcf1e 	bne	r2,zero,1801468 <___vfprintf_internal_r+0x6e0>
 180252c:	dc800e17 	ldw	r18,56(sp)
 1802530:	dc400d17 	ldw	r17,52(sp)
 1802534:	d8c01904 	addi	r3,sp,100
 1802538:	d9014717 	ldw	r4,1308(sp)
 180253c:	d9414117 	ldw	r5,1284(sp)
 1802540:	8c400044 	addi	r17,r17,1
 1802544:	9125883a 	add	r18,r18,r4
 1802548:	008001c4 	movi	r2,7
 180254c:	19400015 	stw	r5,0(r3)
 1802550:	19000115 	stw	r4,4(r3)
 1802554:	dc800e15 	stw	r18,56(sp)
 1802558:	dc400d15 	stw	r17,52(sp)
 180255c:	147cee16 	blt	r2,r17,1801918 <___vfprintf_internal_r+0xb90>
 1802560:	18c00204 	addi	r3,r3,8
 1802564:	003b8606 	br	1801380 <___vfprintf_internal_r+0x5f8>
 1802568:	38c00017 	ldw	r3,0(r7)
 180256c:	39000204 	addi	r4,r7,8
 1802570:	d9014015 	stw	r4,1280(sp)
 1802574:	d8c14215 	stw	r3,1288(sp)
 1802578:	39c00117 	ldw	r7,4(r7)
 180257c:	d9c14315 	stw	r7,1292(sp)
 1802580:	003e2006 	br	1801e04 <___vfprintf_internal_r+0x107c>
 1802584:	0005883a 	mov	r2,zero
 1802588:	1409c83a 	sub	r4,r2,r16
 180258c:	1105803a 	cmpltu	r2,r2,r4
 1802590:	044bc83a 	sub	r5,zero,r17
 1802594:	2885c83a 	sub	r2,r5,r2
 1802598:	2021883a 	mov	r16,r4
 180259c:	1023883a 	mov	r17,r2
 18025a0:	01000044 	movi	r4,1
 18025a4:	00800b44 	movi	r2,45
 18025a8:	d8800405 	stb	r2,16(sp)
 18025ac:	003c8406 	br	18017c0 <___vfprintf_internal_r+0xa38>
 18025b0:	d9014f17 	ldw	r4,1340(sp)
 18025b4:	b00b883a 	mov	r5,r22
 18025b8:	d9800c04 	addi	r6,sp,48
 18025bc:	1800d300 	call	1800d30 <__sprint_r>
 18025c0:	103ba91e 	bne	r2,zero,1801468 <___vfprintf_internal_r+0x6e0>
 18025c4:	dc800e17 	ldw	r18,56(sp)
 18025c8:	dc400d17 	ldw	r17,52(sp)
 18025cc:	d9000517 	ldw	r4,20(sp)
 18025d0:	d9401904 	addi	r5,sp,100
 18025d4:	003da706 	br	1801c74 <___vfprintf_internal_r+0xeec>
 18025d8:	d9014f17 	ldw	r4,1340(sp)
 18025dc:	b00b883a 	mov	r5,r22
 18025e0:	d9800c04 	addi	r6,sp,48
 18025e4:	1800d300 	call	1800d30 <__sprint_r>
 18025e8:	103b9f1e 	bne	r2,zero,1801468 <___vfprintf_internal_r+0x6e0>
 18025ec:	dc800e17 	ldw	r18,56(sp)
 18025f0:	dc400d17 	ldw	r17,52(sp)
 18025f4:	d9000517 	ldw	r4,20(sp)
 18025f8:	d8c01904 	addi	r3,sp,100
 18025fc:	003d9106 	br	1801c44 <___vfprintf_internal_r+0xebc>
 1802600:	07006074 	movhi	fp,385
 1802604:	e703df84 	addi	fp,fp,3966
 1802608:	9425883a 	add	r18,r18,r16
 180260c:	8c400044 	addi	r17,r17,1
 1802610:	008001c4 	movi	r2,7
 1802614:	1f000015 	stw	fp,0(r3)
 1802618:	1c000115 	stw	r16,4(r3)
 180261c:	dc800e15 	stw	r18,56(sp)
 1802620:	dc400d15 	stw	r17,52(sp)
 1802624:	147fbc16 	blt	r2,r17,1802518 <___vfprintf_internal_r+0x1790>
 1802628:	18c00204 	addi	r3,r3,8
 180262c:	003fc206 	br	1802538 <___vfprintf_internal_r+0x17b0>
 1802630:	d9014f17 	ldw	r4,1340(sp)
 1802634:	b00b883a 	mov	r5,r22
 1802638:	d9800c04 	addi	r6,sp,48
 180263c:	1800d300 	call	1800d30 <__sprint_r>
 1802640:	103b891e 	bne	r2,zero,1801468 <___vfprintf_internal_r+0x6e0>
 1802644:	dc800e17 	ldw	r18,56(sp)
 1802648:	d9000517 	ldw	r4,20(sp)
 180264c:	d8c01904 	addi	r3,sp,100
 1802650:	003d0206 	br	1801a5c <___vfprintf_internal_r+0xcd4>
 1802654:	07006074 	movhi	fp,385
 1802658:	e703df84 	addi	fp,fp,3966
 180265c:	003be406 	br	18015f0 <___vfprintf_internal_r+0x868>
 1802660:	00806074 	movhi	r2,385
 1802664:	1083ce04 	addi	r2,r2,3896
 1802668:	d8814115 	stw	r2,1284(sp)
 180266c:	003df506 	br	1801e44 <___vfprintf_internal_r+0x10bc>
 1802670:	d9014217 	ldw	r4,1288(sp)
 1802674:	d9414317 	ldw	r5,1292(sp)
 1802678:	18077680 	call	1807768 <__isnand>
 180267c:	10003926 	beq	r2,zero,1802764 <___vfprintf_internal_r+0x19dc>
 1802680:	d9414d17 	ldw	r5,1332(sp)
 1802684:	008011c4 	movi	r2,71
 1802688:	1140ce16 	blt	r2,r5,18029c4 <___vfprintf_internal_r+0x1c3c>
 180268c:	01806074 	movhi	r6,385
 1802690:	3183cf04 	addi	r6,r6,3900
 1802694:	d9814115 	stw	r6,1284(sp)
 1802698:	003dea06 	br	1801e44 <___vfprintf_internal_r+0x10bc>
 180269c:	d9014c17 	ldw	r4,1328(sp)
 18026a0:	bdc00044 	addi	r23,r23,1
 18026a4:	b8c00007 	ldb	r3,0(r23)
 18026a8:	21000814 	ori	r4,r4,32
 18026ac:	d9014c15 	stw	r4,1328(sp)
 18026b0:	003a3406 	br	1800f84 <___vfprintf_internal_r+0x1fc>
 18026b4:	dcc14515 	stw	r19,1300(sp)
 18026b8:	98011016 	blt	r19,zero,1802afc <___vfprintf_internal_r+0x1d74>
 18026bc:	980f883a 	mov	r7,r19
 18026c0:	d8014615 	stw	zero,1304(sp)
 18026c4:	003c5206 	br	1801810 <___vfprintf_internal_r+0xa88>
 18026c8:	d9014f17 	ldw	r4,1340(sp)
 18026cc:	b00b883a 	mov	r5,r22
 18026d0:	d9800c04 	addi	r6,sp,48
 18026d4:	1800d300 	call	1800d30 <__sprint_r>
 18026d8:	103b631e 	bne	r2,zero,1801468 <___vfprintf_internal_r+0x6e0>
 18026dc:	dc800e17 	ldw	r18,56(sp)
 18026e0:	d9000517 	ldw	r4,20(sp)
 18026e4:	d8c01904 	addi	r3,sp,100
 18026e8:	003f2e06 	br	18023a4 <___vfprintf_internal_r+0x161c>
 18026ec:	d8c14c17 	ldw	r3,1328(sp)
 18026f0:	1880100c 	andi	r2,r3,64
 18026f4:	1000a026 	beq	r2,zero,1802978 <___vfprintf_internal_r+0x1bf0>
 18026f8:	38800017 	ldw	r2,0(r7)
 18026fc:	39c00104 	addi	r7,r7,4
 1802700:	d9c14015 	stw	r7,1280(sp)
 1802704:	d9014b17 	ldw	r4,1324(sp)
 1802708:	d9c14017 	ldw	r7,1280(sp)
 180270c:	1100000d 	sth	r4,0(r2)
 1802710:	0039f906 	br	1800ef8 <___vfprintf_internal_r+0x170>
 1802714:	d9014f17 	ldw	r4,1340(sp)
 1802718:	b00b883a 	mov	r5,r22
 180271c:	d9800c04 	addi	r6,sp,48
 1802720:	1800d300 	call	1800d30 <__sprint_r>
 1802724:	103b501e 	bne	r2,zero,1801468 <___vfprintf_internal_r+0x6e0>
 1802728:	dc800e17 	ldw	r18,56(sp)
 180272c:	dc400d17 	ldw	r17,52(sp)
 1802730:	d9000517 	ldw	r4,20(sp)
 1802734:	d8c01904 	addi	r3,sp,100
 1802738:	003f2d06 	br	18023f0 <___vfprintf_internal_r+0x1668>
 180273c:	00800184 	movi	r2,6
 1802740:	14c09a36 	bltu	r2,r19,18029ac <___vfprintf_internal_r+0x1c24>
 1802744:	dcc14515 	stw	r19,1300(sp)
 1802748:	9800010e 	bge	r19,zero,1802750 <___vfprintf_internal_r+0x19c8>
 180274c:	d8014515 	stw	zero,1300(sp)
 1802750:	00806074 	movhi	r2,385
 1802754:	1083d104 	addi	r2,r2,3908
 1802758:	980f883a 	mov	r7,r19
 180275c:	d8814115 	stw	r2,1284(sp)
 1802760:	003a7806 	br	1801144 <___vfprintf_internal_r+0x3bc>
 1802764:	00bfffc4 	movi	r2,-1
 1802768:	9880e226 	beq	r19,r2,1802af4 <___vfprintf_internal_r+0x1d6c>
 180276c:	d9414d17 	ldw	r5,1332(sp)
 1802770:	008019c4 	movi	r2,103
 1802774:	2880dc26 	beq	r5,r2,1802ae8 <___vfprintf_internal_r+0x1d60>
 1802778:	008011c4 	movi	r2,71
 180277c:	2880da26 	beq	r5,r2,1802ae8 <___vfprintf_internal_r+0x1d60>
 1802780:	d9414c17 	ldw	r5,1328(sp)
 1802784:	d9014317 	ldw	r4,1292(sp)
 1802788:	d9814217 	ldw	r6,1288(sp)
 180278c:	29404014 	ori	r5,r5,256
 1802790:	d9414c15 	stw	r5,1328(sp)
 1802794:	2000cc16 	blt	r4,zero,1802ac8 <___vfprintf_internal_r+0x1d40>
 1802798:	3021883a 	mov	r16,r6
 180279c:	2023883a 	mov	r17,r4
 18027a0:	0039883a 	mov	fp,zero
 18027a4:	d9414d17 	ldw	r5,1332(sp)
 18027a8:	00801984 	movi	r2,102
 18027ac:	2880b726 	beq	r5,r2,1802a8c <___vfprintf_internal_r+0x1d04>
 18027b0:	00801184 	movi	r2,70
 18027b4:	2880b526 	beq	r5,r2,1802a8c <___vfprintf_internal_r+0x1d04>
 18027b8:	00801944 	movi	r2,101
 18027bc:	2880c826 	beq	r5,r2,1802ae0 <___vfprintf_internal_r+0x1d58>
 18027c0:	00801144 	movi	r2,69
 18027c4:	2880c626 	beq	r5,r2,1802ae0 <___vfprintf_internal_r+0x1d58>
 18027c8:	9829883a 	mov	r20,r19
 18027cc:	d9014f17 	ldw	r4,1340(sp)
 18027d0:	d8800504 	addi	r2,sp,20
 18027d4:	880d883a 	mov	r6,r17
 18027d8:	d8800115 	stw	r2,4(sp)
 18027dc:	d8c00604 	addi	r3,sp,24
 18027e0:	d8800704 	addi	r2,sp,28
 18027e4:	800b883a 	mov	r5,r16
 18027e8:	01c00084 	movi	r7,2
 18027ec:	d8c00215 	stw	r3,8(sp)
 18027f0:	d8800315 	stw	r2,12(sp)
 18027f4:	dd000015 	stw	r20,0(sp)
 18027f8:	1802fac0 	call	1802fac <_dtoa_r>
 18027fc:	d9814d17 	ldw	r6,1332(sp)
 1802800:	d8814115 	stw	r2,1284(sp)
 1802804:	008019c4 	movi	r2,103
 1802808:	30809526 	beq	r6,r2,1802a60 <___vfprintf_internal_r+0x1cd8>
 180280c:	d8c14d17 	ldw	r3,1332(sp)
 1802810:	008011c4 	movi	r2,71
 1802814:	18809226 	beq	r3,r2,1802a60 <___vfprintf_internal_r+0x1cd8>
 1802818:	d9414117 	ldw	r5,1284(sp)
 180281c:	d9814d17 	ldw	r6,1332(sp)
 1802820:	00801984 	movi	r2,102
 1802824:	2d25883a 	add	r18,r5,r20
 1802828:	30808626 	beq	r6,r2,1802a44 <___vfprintf_internal_r+0x1cbc>
 180282c:	00801184 	movi	r2,70
 1802830:	30808426 	beq	r6,r2,1802a44 <___vfprintf_internal_r+0x1cbc>
 1802834:	000d883a 	mov	r6,zero
 1802838:	000f883a 	mov	r7,zero
 180283c:	880b883a 	mov	r5,r17
 1802840:	8009883a 	mov	r4,r16
 1802844:	18095500 	call	1809550 <__eqdf2>
 1802848:	1000751e 	bne	r2,zero,1802a20 <___vfprintf_internal_r+0x1c98>
 180284c:	9005883a 	mov	r2,r18
 1802850:	dc800715 	stw	r18,28(sp)
 1802854:	d9014117 	ldw	r4,1284(sp)
 1802858:	d9414d17 	ldw	r5,1332(sp)
 180285c:	00c019c4 	movi	r3,103
 1802860:	1125c83a 	sub	r18,r2,r4
 1802864:	28c06826 	beq	r5,r3,1802a08 <___vfprintf_internal_r+0x1c80>
 1802868:	008011c4 	movi	r2,71
 180286c:	28806626 	beq	r5,r2,1802a08 <___vfprintf_internal_r+0x1c80>
 1802870:	d9000517 	ldw	r4,20(sp)
 1802874:	d8c14d17 	ldw	r3,1332(sp)
 1802878:	00801944 	movi	r2,101
 180287c:	10c05516 	blt	r2,r3,18029d4 <___vfprintf_internal_r+0x1c4c>
 1802880:	213fffc4 	addi	r4,r4,-1
 1802884:	d9000515 	stw	r4,20(sp)
 1802888:	d8c00805 	stb	r3,32(sp)
 180288c:	2021883a 	mov	r16,r4
 1802890:	2000c116 	blt	r4,zero,1802b98 <___vfprintf_internal_r+0x1e10>
 1802894:	00800ac4 	movi	r2,43
 1802898:	d8800845 	stb	r2,33(sp)
 180289c:	00800244 	movi	r2,9
 18028a0:	1400af0e 	bge	r2,r16,1802b60 <___vfprintf_internal_r+0x1dd8>
 18028a4:	1027883a 	mov	r19,r2
 18028a8:	dc400b84 	addi	r17,sp,46
 18028ac:	8009883a 	mov	r4,r16
 18028b0:	01400284 	movi	r5,10
 18028b4:	1809c380 	call	1809c38 <__modsi3>
 18028b8:	10800c04 	addi	r2,r2,48
 18028bc:	8c7fffc4 	addi	r17,r17,-1
 18028c0:	8009883a 	mov	r4,r16
 18028c4:	01400284 	movi	r5,10
 18028c8:	88800005 	stb	r2,0(r17)
 18028cc:	1809bd80 	call	1809bd8 <__divsi3>
 18028d0:	1021883a 	mov	r16,r2
 18028d4:	98bff516 	blt	r19,r2,18028ac <___vfprintf_internal_r+0x1b24>
 18028d8:	10c00c04 	addi	r3,r2,48
 18028dc:	d88009c4 	addi	r2,sp,39
 18028e0:	108001c4 	addi	r2,r2,7
 18028e4:	897fffc4 	addi	r5,r17,-1
 18028e8:	88ffffc5 	stb	r3,-1(r17)
 18028ec:	2880a72e 	bgeu	r5,r2,1802b8c <___vfprintf_internal_r+0x1e04>
 18028f0:	1009883a 	mov	r4,r2
 18028f4:	d9800804 	addi	r6,sp,32
 18028f8:	d8c00884 	addi	r3,sp,34
 18028fc:	28800003 	ldbu	r2,0(r5)
 1802900:	29400044 	addi	r5,r5,1
 1802904:	18800005 	stb	r2,0(r3)
 1802908:	18c00044 	addi	r3,r3,1
 180290c:	293ffb36 	bltu	r5,r4,18028fc <___vfprintf_internal_r+0x1b74>
 1802910:	1987c83a 	sub	r3,r3,r6
 1802914:	00800044 	movi	r2,1
 1802918:	d8c14815 	stw	r3,1312(sp)
 180291c:	90cf883a 	add	r7,r18,r3
 1802920:	1480960e 	bge	r2,r18,1802b7c <___vfprintf_internal_r+0x1df4>
 1802924:	39c00044 	addi	r7,r7,1
 1802928:	d9c14515 	stw	r7,1300(sp)
 180292c:	38003416 	blt	r7,zero,1802a00 <___vfprintf_internal_r+0x1c78>
 1802930:	e0803fcc 	andi	r2,fp,255
 1802934:	1080201c 	xori	r2,r2,128
 1802938:	10bfe004 	addi	r2,r2,-128
 180293c:	10004e26 	beq	r2,zero,1802a78 <___vfprintf_internal_r+0x1cf0>
 1802940:	00800b44 	movi	r2,45
 1802944:	dc814715 	stw	r18,1308(sp)
 1802948:	d8014615 	stw	zero,1304(sp)
 180294c:	d8800405 	stb	r2,16(sp)
 1802950:	003bb106 	br	1801818 <___vfprintf_internal_r+0xa90>
 1802954:	00800b44 	movi	r2,45
 1802958:	d8800405 	stb	r2,16(sp)
 180295c:	003d3306 	br	1801e2c <___vfprintf_internal_r+0x10a4>
 1802960:	d9014f17 	ldw	r4,1340(sp)
 1802964:	b00b883a 	mov	r5,r22
 1802968:	d9800c04 	addi	r6,sp,48
 180296c:	1800d300 	call	1800d30 <__sprint_r>
 1802970:	103abd1e 	bne	r2,zero,1801468 <___vfprintf_internal_r+0x6e0>
 1802974:	003abb06 	br	1801464 <___vfprintf_internal_r+0x6dc>
 1802978:	38800017 	ldw	r2,0(r7)
 180297c:	39c00104 	addi	r7,r7,4
 1802980:	d9c14015 	stw	r7,1280(sp)
 1802984:	d9414b17 	ldw	r5,1324(sp)
 1802988:	d9c14017 	ldw	r7,1280(sp)
 180298c:	11400015 	stw	r5,0(r2)
 1802990:	00395906 	br	1800ef8 <___vfprintf_internal_r+0x170>
 1802994:	980f883a 	mov	r7,r19
 1802998:	dcc14515 	stw	r19,1300(sp)
 180299c:	d8014615 	stw	zero,1304(sp)
 18029a0:	003b9b06 	br	1801810 <___vfprintf_internal_r+0xa88>
 18029a4:	0027883a 	mov	r19,zero
 18029a8:	00397806 	br	1800f8c <___vfprintf_internal_r+0x204>
 18029ac:	00c06074 	movhi	r3,385
 18029b0:	18c3d104 	addi	r3,r3,3908
 18029b4:	100f883a 	mov	r7,r2
 18029b8:	d8814515 	stw	r2,1300(sp)
 18029bc:	d8c14115 	stw	r3,1284(sp)
 18029c0:	0039e006 	br	1801144 <___vfprintf_internal_r+0x3bc>
 18029c4:	00806074 	movhi	r2,385
 18029c8:	1083d004 	addi	r2,r2,3904
 18029cc:	d8814115 	stw	r2,1284(sp)
 18029d0:	003d1c06 	br	1801e44 <___vfprintf_internal_r+0x10bc>
 18029d4:	d9414d17 	ldw	r5,1332(sp)
 18029d8:	00801984 	movi	r2,102
 18029dc:	28804926 	beq	r5,r2,1802b04 <___vfprintf_internal_r+0x1d7c>
 18029e0:	200f883a 	mov	r7,r4
 18029e4:	24805716 	blt	r4,r18,1802b44 <___vfprintf_internal_r+0x1dbc>
 18029e8:	d9414c17 	ldw	r5,1328(sp)
 18029ec:	2880004c 	andi	r2,r5,1
 18029f0:	10000126 	beq	r2,zero,18029f8 <___vfprintf_internal_r+0x1c70>
 18029f4:	21c00044 	addi	r7,r4,1
 18029f8:	d9c14515 	stw	r7,1300(sp)
 18029fc:	383fcc0e 	bge	r7,zero,1802930 <___vfprintf_internal_r+0x1ba8>
 1802a00:	d8014515 	stw	zero,1300(sp)
 1802a04:	003fca06 	br	1802930 <___vfprintf_internal_r+0x1ba8>
 1802a08:	d9000517 	ldw	r4,20(sp)
 1802a0c:	00bfff04 	movi	r2,-4
 1802a10:	1100480e 	bge	r2,r4,1802b34 <___vfprintf_internal_r+0x1dac>
 1802a14:	99004716 	blt	r19,r4,1802b34 <___vfprintf_internal_r+0x1dac>
 1802a18:	d8c14d15 	stw	r3,1332(sp)
 1802a1c:	003ff006 	br	18029e0 <___vfprintf_internal_r+0x1c58>
 1802a20:	d8800717 	ldw	r2,28(sp)
 1802a24:	14bf8b2e 	bgeu	r2,r18,1802854 <___vfprintf_internal_r+0x1acc>
 1802a28:	9007883a 	mov	r3,r18
 1802a2c:	01000c04 	movi	r4,48
 1802a30:	11000005 	stb	r4,0(r2)
 1802a34:	10800044 	addi	r2,r2,1
 1802a38:	d8800715 	stw	r2,28(sp)
 1802a3c:	18bffc1e 	bne	r3,r2,1802a30 <___vfprintf_internal_r+0x1ca8>
 1802a40:	003f8406 	br	1802854 <___vfprintf_internal_r+0x1acc>
 1802a44:	d8814117 	ldw	r2,1284(sp)
 1802a48:	10c00007 	ldb	r3,0(r2)
 1802a4c:	00800c04 	movi	r2,48
 1802a50:	18805b26 	beq	r3,r2,1802bc0 <___vfprintf_internal_r+0x1e38>
 1802a54:	d9000517 	ldw	r4,20(sp)
 1802a58:	9125883a 	add	r18,r18,r4
 1802a5c:	003f7506 	br	1802834 <___vfprintf_internal_r+0x1aac>
 1802a60:	d9014c17 	ldw	r4,1328(sp)
 1802a64:	2080004c 	andi	r2,r4,1
 1802a68:	1005003a 	cmpeq	r2,r2,zero
 1802a6c:	103f6a26 	beq	r2,zero,1802818 <___vfprintf_internal_r+0x1a90>
 1802a70:	d8800717 	ldw	r2,28(sp)
 1802a74:	003f7706 	br	1802854 <___vfprintf_internal_r+0x1acc>
 1802a78:	d9c14515 	stw	r7,1300(sp)
 1802a7c:	38004d16 	blt	r7,zero,1802bb4 <___vfprintf_internal_r+0x1e2c>
 1802a80:	dc814715 	stw	r18,1308(sp)
 1802a84:	d8014615 	stw	zero,1304(sp)
 1802a88:	003b6106 	br	1801810 <___vfprintf_internal_r+0xa88>
 1802a8c:	d9014f17 	ldw	r4,1340(sp)
 1802a90:	d8800504 	addi	r2,sp,20
 1802a94:	d8800115 	stw	r2,4(sp)
 1802a98:	d8c00604 	addi	r3,sp,24
 1802a9c:	d8800704 	addi	r2,sp,28
 1802aa0:	800b883a 	mov	r5,r16
 1802aa4:	880d883a 	mov	r6,r17
 1802aa8:	01c000c4 	movi	r7,3
 1802aac:	d8c00215 	stw	r3,8(sp)
 1802ab0:	d8800315 	stw	r2,12(sp)
 1802ab4:	dcc00015 	stw	r19,0(sp)
 1802ab8:	9829883a 	mov	r20,r19
 1802abc:	1802fac0 	call	1802fac <_dtoa_r>
 1802ac0:	d8814115 	stw	r2,1284(sp)
 1802ac4:	003f5106 	br	180280c <___vfprintf_internal_r+0x1a84>
 1802ac8:	d8c14217 	ldw	r3,1288(sp)
 1802acc:	d9014317 	ldw	r4,1292(sp)
 1802ad0:	07000b44 	movi	fp,45
 1802ad4:	1821883a 	mov	r16,r3
 1802ad8:	2460003c 	xorhi	r17,r4,32768
 1802adc:	003f3106 	br	18027a4 <___vfprintf_internal_r+0x1a1c>
 1802ae0:	9d000044 	addi	r20,r19,1
 1802ae4:	003f3906 	br	18027cc <___vfprintf_internal_r+0x1a44>
 1802ae8:	983f251e 	bne	r19,zero,1802780 <___vfprintf_internal_r+0x19f8>
 1802aec:	04c00044 	movi	r19,1
 1802af0:	003f2306 	br	1802780 <___vfprintf_internal_r+0x19f8>
 1802af4:	04c00184 	movi	r19,6
 1802af8:	003f2106 	br	1802780 <___vfprintf_internal_r+0x19f8>
 1802afc:	d8014515 	stw	zero,1300(sp)
 1802b00:	003eee06 	br	18026bc <___vfprintf_internal_r+0x1934>
 1802b04:	200f883a 	mov	r7,r4
 1802b08:	0100370e 	bge	zero,r4,1802be8 <___vfprintf_internal_r+0x1e60>
 1802b0c:	9800031e 	bne	r19,zero,1802b1c <___vfprintf_internal_r+0x1d94>
 1802b10:	d9814c17 	ldw	r6,1328(sp)
 1802b14:	3080004c 	andi	r2,r6,1
 1802b18:	103fb726 	beq	r2,zero,18029f8 <___vfprintf_internal_r+0x1c70>
 1802b1c:	20800044 	addi	r2,r4,1
 1802b20:	98a7883a 	add	r19,r19,r2
 1802b24:	dcc14515 	stw	r19,1300(sp)
 1802b28:	980f883a 	mov	r7,r19
 1802b2c:	983f800e 	bge	r19,zero,1802930 <___vfprintf_internal_r+0x1ba8>
 1802b30:	003fb306 	br	1802a00 <___vfprintf_internal_r+0x1c78>
 1802b34:	d9814d17 	ldw	r6,1332(sp)
 1802b38:	31bfff84 	addi	r6,r6,-2
 1802b3c:	d9814d15 	stw	r6,1332(sp)
 1802b40:	003f4c06 	br	1802874 <___vfprintf_internal_r+0x1aec>
 1802b44:	0100180e 	bge	zero,r4,1802ba8 <___vfprintf_internal_r+0x1e20>
 1802b48:	00800044 	movi	r2,1
 1802b4c:	1485883a 	add	r2,r2,r18
 1802b50:	d8814515 	stw	r2,1300(sp)
 1802b54:	100f883a 	mov	r7,r2
 1802b58:	103f750e 	bge	r2,zero,1802930 <___vfprintf_internal_r+0x1ba8>
 1802b5c:	003fa806 	br	1802a00 <___vfprintf_internal_r+0x1c78>
 1802b60:	80c00c04 	addi	r3,r16,48
 1802b64:	00800c04 	movi	r2,48
 1802b68:	d8c008c5 	stb	r3,35(sp)
 1802b6c:	d9800804 	addi	r6,sp,32
 1802b70:	d8c00904 	addi	r3,sp,36
 1802b74:	d8800885 	stb	r2,34(sp)
 1802b78:	003f6506 	br	1802910 <___vfprintf_internal_r+0x1b88>
 1802b7c:	d9014c17 	ldw	r4,1328(sp)
 1802b80:	2084703a 	and	r2,r4,r2
 1802b84:	103f9c26 	beq	r2,zero,18029f8 <___vfprintf_internal_r+0x1c70>
 1802b88:	003f6606 	br	1802924 <___vfprintf_internal_r+0x1b9c>
 1802b8c:	d9800804 	addi	r6,sp,32
 1802b90:	d8c00884 	addi	r3,sp,34
 1802b94:	003f5e06 	br	1802910 <___vfprintf_internal_r+0x1b88>
 1802b98:	00800b44 	movi	r2,45
 1802b9c:	0121c83a 	sub	r16,zero,r4
 1802ba0:	d8800845 	stb	r2,33(sp)
 1802ba4:	003f3d06 	br	180289c <___vfprintf_internal_r+0x1b14>
 1802ba8:	00800084 	movi	r2,2
 1802bac:	1105c83a 	sub	r2,r2,r4
 1802bb0:	003fe606 	br	1802b4c <___vfprintf_internal_r+0x1dc4>
 1802bb4:	d8014515 	stw	zero,1300(sp)
 1802bb8:	dc814715 	stw	r18,1308(sp)
 1802bbc:	003fb106 	br	1802a84 <___vfprintf_internal_r+0x1cfc>
 1802bc0:	000d883a 	mov	r6,zero
 1802bc4:	000f883a 	mov	r7,zero
 1802bc8:	8009883a 	mov	r4,r16
 1802bcc:	880b883a 	mov	r5,r17
 1802bd0:	18095d80 	call	18095d8 <__nedf2>
 1802bd4:	103f9f26 	beq	r2,zero,1802a54 <___vfprintf_internal_r+0x1ccc>
 1802bd8:	00800044 	movi	r2,1
 1802bdc:	1509c83a 	sub	r4,r2,r20
 1802be0:	d9000515 	stw	r4,20(sp)
 1802be4:	003f9b06 	br	1802a54 <___vfprintf_internal_r+0x1ccc>
 1802be8:	98000d1e 	bne	r19,zero,1802c20 <___vfprintf_internal_r+0x1e98>
 1802bec:	d8c14c17 	ldw	r3,1328(sp)
 1802bf0:	1880004c 	andi	r2,r3,1
 1802bf4:	10000a1e 	bne	r2,zero,1802c20 <___vfprintf_internal_r+0x1e98>
 1802bf8:	01000044 	movi	r4,1
 1802bfc:	200f883a 	mov	r7,r4
 1802c00:	d9014515 	stw	r4,1300(sp)
 1802c04:	003f4a06 	br	1802930 <___vfprintf_internal_r+0x1ba8>
 1802c08:	3cc00017 	ldw	r19,0(r7)
 1802c0c:	39c00104 	addi	r7,r7,4
 1802c10:	983d0e0e 	bge	r19,zero,180204c <___vfprintf_internal_r+0x12c4>
 1802c14:	b8c00007 	ldb	r3,0(r23)
 1802c18:	04ffffc4 	movi	r19,-1
 1802c1c:	0038d906 	br	1800f84 <___vfprintf_internal_r+0x1fc>
 1802c20:	9cc00084 	addi	r19,r19,2
 1802c24:	dcc14515 	stw	r19,1300(sp)
 1802c28:	980f883a 	mov	r7,r19
 1802c2c:	983f400e 	bge	r19,zero,1802930 <___vfprintf_internal_r+0x1ba8>
 1802c30:	003f7306 	br	1802a00 <___vfprintf_internal_r+0x1c78>

01802c34 <__vfprintf_internal>:
 1802c34:	00806074 	movhi	r2,385
 1802c38:	108c3704 	addi	r2,r2,12508
 1802c3c:	2013883a 	mov	r9,r4
 1802c40:	11000017 	ldw	r4,0(r2)
 1802c44:	2805883a 	mov	r2,r5
 1802c48:	300f883a 	mov	r7,r6
 1802c4c:	480b883a 	mov	r5,r9
 1802c50:	100d883a 	mov	r6,r2
 1802c54:	1800d881 	jmpi	1800d88 <___vfprintf_internal_r>

01802c58 <__swsetup_r>:
 1802c58:	00806074 	movhi	r2,385
 1802c5c:	108c3704 	addi	r2,r2,12508
 1802c60:	10c00017 	ldw	r3,0(r2)
 1802c64:	defffd04 	addi	sp,sp,-12
 1802c68:	dc400115 	stw	r17,4(sp)
 1802c6c:	dc000015 	stw	r16,0(sp)
 1802c70:	dfc00215 	stw	ra,8(sp)
 1802c74:	2023883a 	mov	r17,r4
 1802c78:	2821883a 	mov	r16,r5
 1802c7c:	18000226 	beq	r3,zero,1802c88 <__swsetup_r+0x30>
 1802c80:	18800e17 	ldw	r2,56(r3)
 1802c84:	10001f26 	beq	r2,zero,1802d04 <__swsetup_r+0xac>
 1802c88:	8100030b 	ldhu	r4,12(r16)
 1802c8c:	2080020c 	andi	r2,r4,8
 1802c90:	10002826 	beq	r2,zero,1802d34 <__swsetup_r+0xdc>
 1802c94:	81400417 	ldw	r5,16(r16)
 1802c98:	28001d26 	beq	r5,zero,1802d10 <__swsetup_r+0xb8>
 1802c9c:	2080004c 	andi	r2,r4,1
 1802ca0:	1005003a 	cmpeq	r2,r2,zero
 1802ca4:	10000b26 	beq	r2,zero,1802cd4 <__swsetup_r+0x7c>
 1802ca8:	2080008c 	andi	r2,r4,2
 1802cac:	10001226 	beq	r2,zero,1802cf8 <__swsetup_r+0xa0>
 1802cb0:	0005883a 	mov	r2,zero
 1802cb4:	80800215 	stw	r2,8(r16)
 1802cb8:	28000b26 	beq	r5,zero,1802ce8 <__swsetup_r+0x90>
 1802cbc:	0005883a 	mov	r2,zero
 1802cc0:	dfc00217 	ldw	ra,8(sp)
 1802cc4:	dc400117 	ldw	r17,4(sp)
 1802cc8:	dc000017 	ldw	r16,0(sp)
 1802ccc:	dec00304 	addi	sp,sp,12
 1802cd0:	f800283a 	ret
 1802cd4:	80800517 	ldw	r2,20(r16)
 1802cd8:	80000215 	stw	zero,8(r16)
 1802cdc:	0085c83a 	sub	r2,zero,r2
 1802ce0:	80800615 	stw	r2,24(r16)
 1802ce4:	283ff51e 	bne	r5,zero,1802cbc <__swsetup_r+0x64>
 1802ce8:	2080200c 	andi	r2,r4,128
 1802cec:	103ff326 	beq	r2,zero,1802cbc <__swsetup_r+0x64>
 1802cf0:	00bfffc4 	movi	r2,-1
 1802cf4:	003ff206 	br	1802cc0 <__swsetup_r+0x68>
 1802cf8:	80800517 	ldw	r2,20(r16)
 1802cfc:	80800215 	stw	r2,8(r16)
 1802d00:	003fed06 	br	1802cb8 <__swsetup_r+0x60>
 1802d04:	1809883a 	mov	r4,r3
 1802d08:	18047f80 	call	18047f8 <__sinit>
 1802d0c:	003fde06 	br	1802c88 <__swsetup_r+0x30>
 1802d10:	20c0a00c 	andi	r3,r4,640
 1802d14:	00808004 	movi	r2,512
 1802d18:	18bfe026 	beq	r3,r2,1802c9c <__swsetup_r+0x44>
 1802d1c:	8809883a 	mov	r4,r17
 1802d20:	800b883a 	mov	r5,r16
 1802d24:	18055700 	call	1805570 <__smakebuf_r>
 1802d28:	8100030b 	ldhu	r4,12(r16)
 1802d2c:	81400417 	ldw	r5,16(r16)
 1802d30:	003fda06 	br	1802c9c <__swsetup_r+0x44>
 1802d34:	2080040c 	andi	r2,r4,16
 1802d38:	103fed26 	beq	r2,zero,1802cf0 <__swsetup_r+0x98>
 1802d3c:	2080010c 	andi	r2,r4,4
 1802d40:	10001226 	beq	r2,zero,1802d8c <__swsetup_r+0x134>
 1802d44:	81400c17 	ldw	r5,48(r16)
 1802d48:	28000526 	beq	r5,zero,1802d60 <__swsetup_r+0x108>
 1802d4c:	80801004 	addi	r2,r16,64
 1802d50:	28800226 	beq	r5,r2,1802d5c <__swsetup_r+0x104>
 1802d54:	8809883a 	mov	r4,r17
 1802d58:	1804b7c0 	call	1804b7c <_free_r>
 1802d5c:	80000c15 	stw	zero,48(r16)
 1802d60:	8080030b 	ldhu	r2,12(r16)
 1802d64:	81400417 	ldw	r5,16(r16)
 1802d68:	80000115 	stw	zero,4(r16)
 1802d6c:	10bff6cc 	andi	r2,r2,65499
 1802d70:	8080030d 	sth	r2,12(r16)
 1802d74:	81400015 	stw	r5,0(r16)
 1802d78:	8080030b 	ldhu	r2,12(r16)
 1802d7c:	10800214 	ori	r2,r2,8
 1802d80:	113fffcc 	andi	r4,r2,65535
 1802d84:	8080030d 	sth	r2,12(r16)
 1802d88:	003fc306 	br	1802c98 <__swsetup_r+0x40>
 1802d8c:	81400417 	ldw	r5,16(r16)
 1802d90:	003ff906 	br	1802d78 <__swsetup_r+0x120>

01802d94 <quorem>:
 1802d94:	28c00417 	ldw	r3,16(r5)
 1802d98:	20800417 	ldw	r2,16(r4)
 1802d9c:	defff604 	addi	sp,sp,-40
 1802da0:	ddc00715 	stw	r23,28(sp)
 1802da4:	dd400515 	stw	r21,20(sp)
 1802da8:	dfc00915 	stw	ra,36(sp)
 1802dac:	df000815 	stw	fp,32(sp)
 1802db0:	dd800615 	stw	r22,24(sp)
 1802db4:	dd000415 	stw	r20,16(sp)
 1802db8:	dcc00315 	stw	r19,12(sp)
 1802dbc:	dc800215 	stw	r18,8(sp)
 1802dc0:	dc400115 	stw	r17,4(sp)
 1802dc4:	dc000015 	stw	r16,0(sp)
 1802dc8:	202f883a 	mov	r23,r4
 1802dcc:	282b883a 	mov	r21,r5
 1802dd0:	10c07416 	blt	r2,r3,1802fa4 <quorem+0x210>
 1802dd4:	1c7fffc4 	addi	r17,r3,-1
 1802dd8:	8c45883a 	add	r2,r17,r17
 1802ddc:	1085883a 	add	r2,r2,r2
 1802de0:	2c000504 	addi	r16,r5,20
 1802de4:	24c00504 	addi	r19,r4,20
 1802de8:	14ed883a 	add	r22,r2,r19
 1802dec:	80a5883a 	add	r18,r16,r2
 1802df0:	b7000017 	ldw	fp,0(r22)
 1802df4:	91400017 	ldw	r5,0(r18)
 1802df8:	e009883a 	mov	r4,fp
 1802dfc:	29400044 	addi	r5,r5,1
 1802e00:	1809c980 	call	1809c98 <__udivsi3>
 1802e04:	1029883a 	mov	r20,r2
 1802e08:	10003c1e 	bne	r2,zero,1802efc <quorem+0x168>
 1802e0c:	a80b883a 	mov	r5,r21
 1802e10:	b809883a 	mov	r4,r23
 1802e14:	180629c0 	call	180629c <__mcmp>
 1802e18:	10002b16 	blt	r2,zero,1802ec8 <quorem+0x134>
 1802e1c:	a5000044 	addi	r20,r20,1
 1802e20:	980f883a 	mov	r7,r19
 1802e24:	0011883a 	mov	r8,zero
 1802e28:	0009883a 	mov	r4,zero
 1802e2c:	81400017 	ldw	r5,0(r16)
 1802e30:	38c00017 	ldw	r3,0(r7)
 1802e34:	84000104 	addi	r16,r16,4
 1802e38:	28bfffcc 	andi	r2,r5,65535
 1802e3c:	2085883a 	add	r2,r4,r2
 1802e40:	11bfffcc 	andi	r6,r2,65535
 1802e44:	193fffcc 	andi	r4,r3,65535
 1802e48:	1004d43a 	srli	r2,r2,16
 1802e4c:	280ad43a 	srli	r5,r5,16
 1802e50:	2189c83a 	sub	r4,r4,r6
 1802e54:	2209883a 	add	r4,r4,r8
 1802e58:	1806d43a 	srli	r3,r3,16
 1802e5c:	288b883a 	add	r5,r5,r2
 1802e60:	200dd43a 	srai	r6,r4,16
 1802e64:	28bfffcc 	andi	r2,r5,65535
 1802e68:	1887c83a 	sub	r3,r3,r2
 1802e6c:	1987883a 	add	r3,r3,r6
 1802e70:	3900000d 	sth	r4,0(r7)
 1802e74:	38c0008d 	sth	r3,2(r7)
 1802e78:	2808d43a 	srli	r4,r5,16
 1802e7c:	39c00104 	addi	r7,r7,4
 1802e80:	1811d43a 	srai	r8,r3,16
 1802e84:	943fe92e 	bgeu	r18,r16,1802e2c <quorem+0x98>
 1802e88:	8c45883a 	add	r2,r17,r17
 1802e8c:	1085883a 	add	r2,r2,r2
 1802e90:	9885883a 	add	r2,r19,r2
 1802e94:	10c00017 	ldw	r3,0(r2)
 1802e98:	18000b1e 	bne	r3,zero,1802ec8 <quorem+0x134>
 1802e9c:	113fff04 	addi	r4,r2,-4
 1802ea0:	9900082e 	bgeu	r19,r4,1802ec4 <quorem+0x130>
 1802ea4:	10bfff17 	ldw	r2,-4(r2)
 1802ea8:	10000326 	beq	r2,zero,1802eb8 <quorem+0x124>
 1802eac:	00000506 	br	1802ec4 <quorem+0x130>
 1802eb0:	20800017 	ldw	r2,0(r4)
 1802eb4:	1000031e 	bne	r2,zero,1802ec4 <quorem+0x130>
 1802eb8:	213fff04 	addi	r4,r4,-4
 1802ebc:	8c7fffc4 	addi	r17,r17,-1
 1802ec0:	993ffb36 	bltu	r19,r4,1802eb0 <quorem+0x11c>
 1802ec4:	bc400415 	stw	r17,16(r23)
 1802ec8:	a005883a 	mov	r2,r20
 1802ecc:	dfc00917 	ldw	ra,36(sp)
 1802ed0:	df000817 	ldw	fp,32(sp)
 1802ed4:	ddc00717 	ldw	r23,28(sp)
 1802ed8:	dd800617 	ldw	r22,24(sp)
 1802edc:	dd400517 	ldw	r21,20(sp)
 1802ee0:	dd000417 	ldw	r20,16(sp)
 1802ee4:	dcc00317 	ldw	r19,12(sp)
 1802ee8:	dc800217 	ldw	r18,8(sp)
 1802eec:	dc400117 	ldw	r17,4(sp)
 1802ef0:	dc000017 	ldw	r16,0(sp)
 1802ef4:	dec00a04 	addi	sp,sp,40
 1802ef8:	f800283a 	ret
 1802efc:	980f883a 	mov	r7,r19
 1802f00:	8011883a 	mov	r8,r16
 1802f04:	0013883a 	mov	r9,zero
 1802f08:	000d883a 	mov	r6,zero
 1802f0c:	40c00017 	ldw	r3,0(r8)
 1802f10:	39000017 	ldw	r4,0(r7)
 1802f14:	42000104 	addi	r8,r8,4
 1802f18:	18bfffcc 	andi	r2,r3,65535
 1802f1c:	a085383a 	mul	r2,r20,r2
 1802f20:	1806d43a 	srli	r3,r3,16
 1802f24:	217fffcc 	andi	r5,r4,65535
 1802f28:	3085883a 	add	r2,r6,r2
 1802f2c:	11bfffcc 	andi	r6,r2,65535
 1802f30:	a0c7383a 	mul	r3,r20,r3
 1802f34:	1004d43a 	srli	r2,r2,16
 1802f38:	298bc83a 	sub	r5,r5,r6
 1802f3c:	2a4b883a 	add	r5,r5,r9
 1802f40:	2008d43a 	srli	r4,r4,16
 1802f44:	1887883a 	add	r3,r3,r2
 1802f48:	280dd43a 	srai	r6,r5,16
 1802f4c:	18bfffcc 	andi	r2,r3,65535
 1802f50:	2089c83a 	sub	r4,r4,r2
 1802f54:	2189883a 	add	r4,r4,r6
 1802f58:	3900008d 	sth	r4,2(r7)
 1802f5c:	3940000d 	sth	r5,0(r7)
 1802f60:	180cd43a 	srli	r6,r3,16
 1802f64:	39c00104 	addi	r7,r7,4
 1802f68:	2013d43a 	srai	r9,r4,16
 1802f6c:	923fe72e 	bgeu	r18,r8,1802f0c <quorem+0x178>
 1802f70:	e03fa61e 	bne	fp,zero,1802e0c <quorem+0x78>
 1802f74:	b0ffff04 	addi	r3,r22,-4
 1802f78:	98c0082e 	bgeu	r19,r3,1802f9c <quorem+0x208>
 1802f7c:	b0bfff17 	ldw	r2,-4(r22)
 1802f80:	10000326 	beq	r2,zero,1802f90 <quorem+0x1fc>
 1802f84:	00000506 	br	1802f9c <quorem+0x208>
 1802f88:	18800017 	ldw	r2,0(r3)
 1802f8c:	1000031e 	bne	r2,zero,1802f9c <quorem+0x208>
 1802f90:	18ffff04 	addi	r3,r3,-4
 1802f94:	8c7fffc4 	addi	r17,r17,-1
 1802f98:	98fffb36 	bltu	r19,r3,1802f88 <quorem+0x1f4>
 1802f9c:	bc400415 	stw	r17,16(r23)
 1802fa0:	003f9a06 	br	1802e0c <quorem+0x78>
 1802fa4:	0005883a 	mov	r2,zero
 1802fa8:	003fc806 	br	1802ecc <quorem+0x138>

01802fac <_dtoa_r>:
 1802fac:	22001017 	ldw	r8,64(r4)
 1802fb0:	deffda04 	addi	sp,sp,-152
 1802fb4:	dd402115 	stw	r21,132(sp)
 1802fb8:	dd002015 	stw	r20,128(sp)
 1802fbc:	dc801e15 	stw	r18,120(sp)
 1802fc0:	dc401d15 	stw	r17,116(sp)
 1802fc4:	dfc02515 	stw	ra,148(sp)
 1802fc8:	df002415 	stw	fp,144(sp)
 1802fcc:	ddc02315 	stw	r23,140(sp)
 1802fd0:	dd802215 	stw	r22,136(sp)
 1802fd4:	dcc01f15 	stw	r19,124(sp)
 1802fd8:	dc001c15 	stw	r16,112(sp)
 1802fdc:	d9001615 	stw	r4,88(sp)
 1802fe0:	3023883a 	mov	r17,r6
 1802fe4:	2829883a 	mov	r20,r5
 1802fe8:	d9c01715 	stw	r7,92(sp)
 1802fec:	dc802817 	ldw	r18,160(sp)
 1802ff0:	302b883a 	mov	r21,r6
 1802ff4:	40000a26 	beq	r8,zero,1803020 <_dtoa_r+0x74>
 1802ff8:	20801117 	ldw	r2,68(r4)
 1802ffc:	400b883a 	mov	r5,r8
 1803000:	40800115 	stw	r2,4(r8)
 1803004:	20c01117 	ldw	r3,68(r4)
 1803008:	00800044 	movi	r2,1
 180300c:	10c4983a 	sll	r2,r2,r3
 1803010:	40800215 	stw	r2,8(r8)
 1803014:	18061400 	call	1806140 <_Bfree>
 1803018:	d8c01617 	ldw	r3,88(sp)
 180301c:	18001015 	stw	zero,64(r3)
 1803020:	8800a316 	blt	r17,zero,18032b0 <_dtoa_r+0x304>
 1803024:	90000015 	stw	zero,0(r18)
 1803028:	a8dffc2c 	andhi	r3,r21,32752
 180302c:	009ffc34 	movhi	r2,32752
 1803030:	18809126 	beq	r3,r2,1803278 <_dtoa_r+0x2cc>
 1803034:	000d883a 	mov	r6,zero
 1803038:	000f883a 	mov	r7,zero
 180303c:	a009883a 	mov	r4,r20
 1803040:	a80b883a 	mov	r5,r21
 1803044:	dd001215 	stw	r20,72(sp)
 1803048:	dd401315 	stw	r21,76(sp)
 180304c:	18095d80 	call	18095d8 <__nedf2>
 1803050:	1000171e 	bne	r2,zero,18030b0 <_dtoa_r+0x104>
 1803054:	d9802717 	ldw	r6,156(sp)
 1803058:	00800044 	movi	r2,1
 180305c:	30800015 	stw	r2,0(r6)
 1803060:	d8802917 	ldw	r2,164(sp)
 1803064:	10029b26 	beq	r2,zero,1803ad4 <_dtoa_r+0xb28>
 1803068:	d9002917 	ldw	r4,164(sp)
 180306c:	00806074 	movhi	r2,385
 1803070:	1083df44 	addi	r2,r2,3965
 1803074:	10ffffc4 	addi	r3,r2,-1
 1803078:	20800015 	stw	r2,0(r4)
 180307c:	1805883a 	mov	r2,r3
 1803080:	dfc02517 	ldw	ra,148(sp)
 1803084:	df002417 	ldw	fp,144(sp)
 1803088:	ddc02317 	ldw	r23,140(sp)
 180308c:	dd802217 	ldw	r22,136(sp)
 1803090:	dd402117 	ldw	r21,132(sp)
 1803094:	dd002017 	ldw	r20,128(sp)
 1803098:	dcc01f17 	ldw	r19,124(sp)
 180309c:	dc801e17 	ldw	r18,120(sp)
 18030a0:	dc401d17 	ldw	r17,116(sp)
 18030a4:	dc001c17 	ldw	r16,112(sp)
 18030a8:	dec02604 	addi	sp,sp,152
 18030ac:	f800283a 	ret
 18030b0:	d9001617 	ldw	r4,88(sp)
 18030b4:	d9401217 	ldw	r5,72(sp)
 18030b8:	d8800104 	addi	r2,sp,4
 18030bc:	a80d883a 	mov	r6,r21
 18030c0:	d9c00204 	addi	r7,sp,8
 18030c4:	d8800015 	stw	r2,0(sp)
 18030c8:	180677c0 	call	180677c <__d2b>
 18030cc:	d8800715 	stw	r2,28(sp)
 18030d0:	a804d53a 	srli	r2,r21,20
 18030d4:	1101ffcc 	andi	r4,r2,2047
 18030d8:	20008626 	beq	r4,zero,18032f4 <_dtoa_r+0x348>
 18030dc:	d8c01217 	ldw	r3,72(sp)
 18030e0:	00800434 	movhi	r2,16
 18030e4:	10bfffc4 	addi	r2,r2,-1
 18030e8:	ddc00117 	ldw	r23,4(sp)
 18030ec:	a884703a 	and	r2,r21,r2
 18030f0:	1811883a 	mov	r8,r3
 18030f4:	124ffc34 	orhi	r9,r2,16368
 18030f8:	25bf0044 	addi	r22,r4,-1023
 18030fc:	d8000815 	stw	zero,32(sp)
 1803100:	0005883a 	mov	r2,zero
 1803104:	00cffe34 	movhi	r3,16376
 1803108:	480b883a 	mov	r5,r9
 180310c:	4009883a 	mov	r4,r8
 1803110:	180f883a 	mov	r7,r3
 1803114:	100d883a 	mov	r6,r2
 1803118:	1808e400 	call	1808e40 <__subdf3>
 180311c:	0218dbf4 	movhi	r8,25455
 1803120:	4210d844 	addi	r8,r8,17249
 1803124:	024ff4f4 	movhi	r9,16339
 1803128:	4a61e9c4 	addi	r9,r9,-30809
 180312c:	480f883a 	mov	r7,r9
 1803130:	400d883a 	mov	r6,r8
 1803134:	180b883a 	mov	r5,r3
 1803138:	1009883a 	mov	r4,r2
 180313c:	1808f340 	call	1808f34 <__muldf3>
 1803140:	0222d874 	movhi	r8,35681
 1803144:	42322cc4 	addi	r8,r8,-14157
 1803148:	024ff1f4 	movhi	r9,16327
 180314c:	4a628a04 	addi	r9,r9,-30168
 1803150:	480f883a 	mov	r7,r9
 1803154:	400d883a 	mov	r6,r8
 1803158:	180b883a 	mov	r5,r3
 180315c:	1009883a 	mov	r4,r2
 1803160:	1808ec00 	call	1808ec0 <__adddf3>
 1803164:	b009883a 	mov	r4,r22
 1803168:	1021883a 	mov	r16,r2
 180316c:	1823883a 	mov	r17,r3
 1803170:	18097f80 	call	18097f8 <__floatsidf>
 1803174:	021427f4 	movhi	r8,20639
 1803178:	421e7ec4 	addi	r8,r8,31227
 180317c:	024ff4f4 	movhi	r9,16339
 1803180:	4a5104c4 	addi	r9,r9,17427
 1803184:	480f883a 	mov	r7,r9
 1803188:	400d883a 	mov	r6,r8
 180318c:	180b883a 	mov	r5,r3
 1803190:	1009883a 	mov	r4,r2
 1803194:	1808f340 	call	1808f34 <__muldf3>
 1803198:	180f883a 	mov	r7,r3
 180319c:	880b883a 	mov	r5,r17
 18031a0:	100d883a 	mov	r6,r2
 18031a4:	8009883a 	mov	r4,r16
 18031a8:	1808ec00 	call	1808ec0 <__adddf3>
 18031ac:	1009883a 	mov	r4,r2
 18031b0:	180b883a 	mov	r5,r3
 18031b4:	1021883a 	mov	r16,r2
 18031b8:	1823883a 	mov	r17,r3
 18031bc:	18098f00 	call	18098f0 <__fixdfsi>
 18031c0:	000d883a 	mov	r6,zero
 18031c4:	000f883a 	mov	r7,zero
 18031c8:	8009883a 	mov	r4,r16
 18031cc:	880b883a 	mov	r5,r17
 18031d0:	d8800d15 	stw	r2,52(sp)
 18031d4:	18097700 	call	1809770 <__ltdf2>
 18031d8:	10031716 	blt	r2,zero,1803e38 <_dtoa_r+0xe8c>
 18031dc:	d8c00d17 	ldw	r3,52(sp)
 18031e0:	00800584 	movi	r2,22
 18031e4:	10c1482e 	bgeu	r2,r3,1803708 <_dtoa_r+0x75c>
 18031e8:	01000044 	movi	r4,1
 18031ec:	d9000c15 	stw	r4,48(sp)
 18031f0:	bd85c83a 	sub	r2,r23,r22
 18031f4:	11bfffc4 	addi	r6,r2,-1
 18031f8:	30030b16 	blt	r6,zero,1803e28 <_dtoa_r+0xe7c>
 18031fc:	d9800a15 	stw	r6,40(sp)
 1803200:	d8001115 	stw	zero,68(sp)
 1803204:	d8c00d17 	ldw	r3,52(sp)
 1803208:	1802ff16 	blt	r3,zero,1803e08 <_dtoa_r+0xe5c>
 180320c:	d9000a17 	ldw	r4,40(sp)
 1803210:	d8c00915 	stw	r3,36(sp)
 1803214:	d8001015 	stw	zero,64(sp)
 1803218:	20c9883a 	add	r4,r4,r3
 180321c:	d9000a15 	stw	r4,40(sp)
 1803220:	d9001717 	ldw	r4,92(sp)
 1803224:	00800244 	movi	r2,9
 1803228:	11004636 	bltu	r2,r4,1803344 <_dtoa_r+0x398>
 180322c:	00800144 	movi	r2,5
 1803230:	11020416 	blt	r2,r4,1803a44 <_dtoa_r+0xa98>
 1803234:	04400044 	movi	r17,1
 1803238:	d8c01717 	ldw	r3,92(sp)
 180323c:	00800144 	movi	r2,5
 1803240:	10c1ed36 	bltu	r2,r3,18039f8 <_dtoa_r+0xa4c>
 1803244:	18c5883a 	add	r2,r3,r3
 1803248:	1085883a 	add	r2,r2,r2
 180324c:	00c06034 	movhi	r3,384
 1803250:	18cc9804 	addi	r3,r3,12896
 1803254:	10c5883a 	add	r2,r2,r3
 1803258:	11000017 	ldw	r4,0(r2)
 180325c:	2000683a 	jmp	r4
 1803260:	0180334c 	andi	r6,zero,205
 1803264:	0180334c 	andi	r6,zero,205
 1803268:	01803d4c 	andi	r6,zero,245
 180326c:	01803d24 	muli	r6,zero,244
 1803270:	01803d68 	cmpgeui	r6,zero,245
 1803274:	01803d74 	movhi	r6,245
 1803278:	d9002717 	ldw	r4,156(sp)
 180327c:	0089c3c4 	movi	r2,9999
 1803280:	20800015 	stw	r2,0(r4)
 1803284:	a0001026 	beq	r20,zero,18032c8 <_dtoa_r+0x31c>
 1803288:	00c06074 	movhi	r3,385
 180328c:	18c3eb04 	addi	r3,r3,4012
 1803290:	d9802917 	ldw	r6,164(sp)
 1803294:	303f7926 	beq	r6,zero,180307c <_dtoa_r+0xd0>
 1803298:	188000c7 	ldb	r2,3(r3)
 180329c:	190000c4 	addi	r4,r3,3
 18032a0:	1000101e 	bne	r2,zero,18032e4 <_dtoa_r+0x338>
 18032a4:	d8802917 	ldw	r2,164(sp)
 18032a8:	11000015 	stw	r4,0(r2)
 18032ac:	003f7306 	br	180307c <_dtoa_r+0xd0>
 18032b0:	00a00034 	movhi	r2,32768
 18032b4:	10bfffc4 	addi	r2,r2,-1
 18032b8:	00c00044 	movi	r3,1
 18032bc:	88aa703a 	and	r21,r17,r2
 18032c0:	90c00015 	stw	r3,0(r18)
 18032c4:	003f5806 	br	1803028 <_dtoa_r+0x7c>
 18032c8:	00800434 	movhi	r2,16
 18032cc:	10bfffc4 	addi	r2,r2,-1
 18032d0:	a884703a 	and	r2,r21,r2
 18032d4:	103fec1e 	bne	r2,zero,1803288 <_dtoa_r+0x2dc>
 18032d8:	00c06074 	movhi	r3,385
 18032dc:	18c3e804 	addi	r3,r3,4000
 18032e0:	003feb06 	br	1803290 <_dtoa_r+0x2e4>
 18032e4:	d8802917 	ldw	r2,164(sp)
 18032e8:	19000204 	addi	r4,r3,8
 18032ec:	11000015 	stw	r4,0(r2)
 18032f0:	003f6206 	br	180307c <_dtoa_r+0xd0>
 18032f4:	ddc00117 	ldw	r23,4(sp)
 18032f8:	d8800217 	ldw	r2,8(sp)
 18032fc:	01000804 	movi	r4,32
 1803300:	b8c10c84 	addi	r3,r23,1074
 1803304:	18a3883a 	add	r17,r3,r2
 1803308:	2441b80e 	bge	r4,r17,18039ec <_dtoa_r+0xa40>
 180330c:	00c01004 	movi	r3,64
 1803310:	1c47c83a 	sub	r3,r3,r17
 1803314:	88bff804 	addi	r2,r17,-32
 1803318:	a8c6983a 	sll	r3,r21,r3
 180331c:	a084d83a 	srl	r2,r20,r2
 1803320:	1888b03a 	or	r4,r3,r2
 1803324:	18099c80 	call	18099c8 <__floatunsidf>
 1803328:	1011883a 	mov	r8,r2
 180332c:	00bf8434 	movhi	r2,65040
 1803330:	01000044 	movi	r4,1
 1803334:	10d3883a 	add	r9,r2,r3
 1803338:	8dbef344 	addi	r22,r17,-1075
 180333c:	d9000815 	stw	r4,32(sp)
 1803340:	003f6f06 	br	1803100 <_dtoa_r+0x154>
 1803344:	d8001715 	stw	zero,92(sp)
 1803348:	04400044 	movi	r17,1
 180334c:	00bfffc4 	movi	r2,-1
 1803350:	00c00044 	movi	r3,1
 1803354:	d8800e15 	stw	r2,56(sp)
 1803358:	d8002615 	stw	zero,152(sp)
 180335c:	d8800f15 	stw	r2,60(sp)
 1803360:	d8c00b15 	stw	r3,44(sp)
 1803364:	1021883a 	mov	r16,r2
 1803368:	d8801617 	ldw	r2,88(sp)
 180336c:	10001115 	stw	zero,68(r2)
 1803370:	d8801617 	ldw	r2,88(sp)
 1803374:	11401117 	ldw	r5,68(r2)
 1803378:	1009883a 	mov	r4,r2
 180337c:	18066c00 	call	18066c0 <_Balloc>
 1803380:	d8c01617 	ldw	r3,88(sp)
 1803384:	d8800515 	stw	r2,20(sp)
 1803388:	18801015 	stw	r2,64(r3)
 180338c:	00800384 	movi	r2,14
 1803390:	14006836 	bltu	r2,r16,1803534 <_dtoa_r+0x588>
 1803394:	8805003a 	cmpeq	r2,r17,zero
 1803398:	1000661e 	bne	r2,zero,1803534 <_dtoa_r+0x588>
 180339c:	d9000d17 	ldw	r4,52(sp)
 18033a0:	0102300e 	bge	zero,r4,1803c64 <_dtoa_r+0xcb8>
 18033a4:	208003cc 	andi	r2,r4,15
 18033a8:	100490fa 	slli	r2,r2,3
 18033ac:	2025d13a 	srai	r18,r4,4
 18033b0:	00c06074 	movhi	r3,385
 18033b4:	18c3fd04 	addi	r3,r3,4084
 18033b8:	10c5883a 	add	r2,r2,r3
 18033bc:	90c0040c 	andi	r3,r18,16
 18033c0:	14000017 	ldw	r16,0(r2)
 18033c4:	14400117 	ldw	r17,4(r2)
 18033c8:	18036a1e 	bne	r3,zero,1804174 <_dtoa_r+0x11c8>
 18033cc:	05800084 	movi	r22,2
 18033d0:	90001026 	beq	r18,zero,1803414 <_dtoa_r+0x468>
 18033d4:	04c06074 	movhi	r19,385
 18033d8:	9cc42f04 	addi	r19,r19,4284
 18033dc:	9080004c 	andi	r2,r18,1
 18033e0:	1005003a 	cmpeq	r2,r2,zero
 18033e4:	1000081e 	bne	r2,zero,1803408 <_dtoa_r+0x45c>
 18033e8:	99800017 	ldw	r6,0(r19)
 18033ec:	99c00117 	ldw	r7,4(r19)
 18033f0:	880b883a 	mov	r5,r17
 18033f4:	8009883a 	mov	r4,r16
 18033f8:	1808f340 	call	1808f34 <__muldf3>
 18033fc:	1021883a 	mov	r16,r2
 1803400:	b5800044 	addi	r22,r22,1
 1803404:	1823883a 	mov	r17,r3
 1803408:	9025d07a 	srai	r18,r18,1
 180340c:	9cc00204 	addi	r19,r19,8
 1803410:	903ff21e 	bne	r18,zero,18033dc <_dtoa_r+0x430>
 1803414:	a80b883a 	mov	r5,r21
 1803418:	a009883a 	mov	r4,r20
 180341c:	880f883a 	mov	r7,r17
 1803420:	800d883a 	mov	r6,r16
 1803424:	18092f80 	call	18092f8 <__divdf3>
 1803428:	1029883a 	mov	r20,r2
 180342c:	182b883a 	mov	r21,r3
 1803430:	d8c00c17 	ldw	r3,48(sp)
 1803434:	1805003a 	cmpeq	r2,r3,zero
 1803438:	1000081e 	bne	r2,zero,180345c <_dtoa_r+0x4b0>
 180343c:	0005883a 	mov	r2,zero
 1803440:	00cffc34 	movhi	r3,16368
 1803444:	180f883a 	mov	r7,r3
 1803448:	a009883a 	mov	r4,r20
 180344c:	a80b883a 	mov	r5,r21
 1803450:	100d883a 	mov	r6,r2
 1803454:	18097700 	call	1809770 <__ltdf2>
 1803458:	1003fe16 	blt	r2,zero,1804454 <_dtoa_r+0x14a8>
 180345c:	b009883a 	mov	r4,r22
 1803460:	18097f80 	call	18097f8 <__floatsidf>
 1803464:	180b883a 	mov	r5,r3
 1803468:	1009883a 	mov	r4,r2
 180346c:	a00d883a 	mov	r6,r20
 1803470:	a80f883a 	mov	r7,r21
 1803474:	1808f340 	call	1808f34 <__muldf3>
 1803478:	0011883a 	mov	r8,zero
 180347c:	02500734 	movhi	r9,16412
 1803480:	1009883a 	mov	r4,r2
 1803484:	180b883a 	mov	r5,r3
 1803488:	480f883a 	mov	r7,r9
 180348c:	400d883a 	mov	r6,r8
 1803490:	1808ec00 	call	1808ec0 <__adddf3>
 1803494:	d9000f17 	ldw	r4,60(sp)
 1803498:	102d883a 	mov	r22,r2
 180349c:	00bf3034 	movhi	r2,64704
 18034a0:	18b9883a 	add	fp,r3,r2
 18034a4:	e02f883a 	mov	r23,fp
 18034a8:	20028f1e 	bne	r4,zero,1803ee8 <_dtoa_r+0xf3c>
 18034ac:	0005883a 	mov	r2,zero
 18034b0:	00d00534 	movhi	r3,16404
 18034b4:	a009883a 	mov	r4,r20
 18034b8:	a80b883a 	mov	r5,r21
 18034bc:	180f883a 	mov	r7,r3
 18034c0:	100d883a 	mov	r6,r2
 18034c4:	1808e400 	call	1808e40 <__subdf3>
 18034c8:	1009883a 	mov	r4,r2
 18034cc:	e00f883a 	mov	r7,fp
 18034d0:	180b883a 	mov	r5,r3
 18034d4:	b00d883a 	mov	r6,r22
 18034d8:	1025883a 	mov	r18,r2
 18034dc:	1827883a 	mov	r19,r3
 18034e0:	18096600 	call	1809660 <__gtdf2>
 18034e4:	00834f16 	blt	zero,r2,1804224 <_dtoa_r+0x1278>
 18034e8:	e0e0003c 	xorhi	r3,fp,32768
 18034ec:	9009883a 	mov	r4,r18
 18034f0:	980b883a 	mov	r5,r19
 18034f4:	180f883a 	mov	r7,r3
 18034f8:	b00d883a 	mov	r6,r22
 18034fc:	18097700 	call	1809770 <__ltdf2>
 1803500:	1000080e 	bge	r2,zero,1803524 <_dtoa_r+0x578>
 1803504:	0027883a 	mov	r19,zero
 1803508:	0025883a 	mov	r18,zero
 180350c:	d8802617 	ldw	r2,152(sp)
 1803510:	df000517 	ldw	fp,20(sp)
 1803514:	d8000615 	stw	zero,24(sp)
 1803518:	0084303a 	nor	r2,zero,r2
 180351c:	d8800d15 	stw	r2,52(sp)
 1803520:	00019b06 	br	1803b90 <_dtoa_r+0xbe4>
 1803524:	d9801217 	ldw	r6,72(sp)
 1803528:	d8801317 	ldw	r2,76(sp)
 180352c:	3029883a 	mov	r20,r6
 1803530:	102b883a 	mov	r21,r2
 1803534:	d8c00217 	ldw	r3,8(sp)
 1803538:	18008516 	blt	r3,zero,1803750 <_dtoa_r+0x7a4>
 180353c:	d9000d17 	ldw	r4,52(sp)
 1803540:	00800384 	movi	r2,14
 1803544:	11008216 	blt	r2,r4,1803750 <_dtoa_r+0x7a4>
 1803548:	200490fa 	slli	r2,r4,3
 180354c:	d9802617 	ldw	r6,152(sp)
 1803550:	00c06074 	movhi	r3,385
 1803554:	18c3fd04 	addi	r3,r3,4084
 1803558:	10c5883a 	add	r2,r2,r3
 180355c:	14800017 	ldw	r18,0(r2)
 1803560:	14c00117 	ldw	r19,4(r2)
 1803564:	30031e16 	blt	r6,zero,18041e0 <_dtoa_r+0x1234>
 1803568:	d9000517 	ldw	r4,20(sp)
 180356c:	d8c00f17 	ldw	r3,60(sp)
 1803570:	a823883a 	mov	r17,r21
 1803574:	a021883a 	mov	r16,r20
 1803578:	192b883a 	add	r21,r3,r4
 180357c:	2039883a 	mov	fp,r4
 1803580:	00000f06 	br	18035c0 <_dtoa_r+0x614>
 1803584:	0005883a 	mov	r2,zero
 1803588:	00d00934 	movhi	r3,16420
 180358c:	5009883a 	mov	r4,r10
 1803590:	580b883a 	mov	r5,r11
 1803594:	180f883a 	mov	r7,r3
 1803598:	100d883a 	mov	r6,r2
 180359c:	1808f340 	call	1808f34 <__muldf3>
 18035a0:	180b883a 	mov	r5,r3
 18035a4:	000d883a 	mov	r6,zero
 18035a8:	000f883a 	mov	r7,zero
 18035ac:	1009883a 	mov	r4,r2
 18035b0:	1021883a 	mov	r16,r2
 18035b4:	1823883a 	mov	r17,r3
 18035b8:	18095d80 	call	18095d8 <__nedf2>
 18035bc:	10004526 	beq	r2,zero,18036d4 <_dtoa_r+0x728>
 18035c0:	900d883a 	mov	r6,r18
 18035c4:	980f883a 	mov	r7,r19
 18035c8:	8009883a 	mov	r4,r16
 18035cc:	880b883a 	mov	r5,r17
 18035d0:	18092f80 	call	18092f8 <__divdf3>
 18035d4:	180b883a 	mov	r5,r3
 18035d8:	1009883a 	mov	r4,r2
 18035dc:	18098f00 	call	18098f0 <__fixdfsi>
 18035e0:	1009883a 	mov	r4,r2
 18035e4:	1029883a 	mov	r20,r2
 18035e8:	18097f80 	call	18097f8 <__floatsidf>
 18035ec:	180f883a 	mov	r7,r3
 18035f0:	9009883a 	mov	r4,r18
 18035f4:	980b883a 	mov	r5,r19
 18035f8:	100d883a 	mov	r6,r2
 18035fc:	1808f340 	call	1808f34 <__muldf3>
 1803600:	180f883a 	mov	r7,r3
 1803604:	880b883a 	mov	r5,r17
 1803608:	8009883a 	mov	r4,r16
 180360c:	100d883a 	mov	r6,r2
 1803610:	1808e400 	call	1808e40 <__subdf3>
 1803614:	1015883a 	mov	r10,r2
 1803618:	a0800c04 	addi	r2,r20,48
 180361c:	e0800005 	stb	r2,0(fp)
 1803620:	e7000044 	addi	fp,fp,1
 1803624:	1817883a 	mov	r11,r3
 1803628:	e57fd61e 	bne	fp,r21,1803584 <_dtoa_r+0x5d8>
 180362c:	500d883a 	mov	r6,r10
 1803630:	180f883a 	mov	r7,r3
 1803634:	5009883a 	mov	r4,r10
 1803638:	180b883a 	mov	r5,r3
 180363c:	1808ec00 	call	1808ec0 <__adddf3>
 1803640:	100d883a 	mov	r6,r2
 1803644:	9009883a 	mov	r4,r18
 1803648:	980b883a 	mov	r5,r19
 180364c:	180f883a 	mov	r7,r3
 1803650:	1021883a 	mov	r16,r2
 1803654:	1823883a 	mov	r17,r3
 1803658:	18097700 	call	1809770 <__ltdf2>
 180365c:	10000816 	blt	r2,zero,1803680 <_dtoa_r+0x6d4>
 1803660:	980b883a 	mov	r5,r19
 1803664:	800d883a 	mov	r6,r16
 1803668:	880f883a 	mov	r7,r17
 180366c:	9009883a 	mov	r4,r18
 1803670:	18095500 	call	1809550 <__eqdf2>
 1803674:	1000171e 	bne	r2,zero,18036d4 <_dtoa_r+0x728>
 1803678:	a080004c 	andi	r2,r20,1
 180367c:	10001526 	beq	r2,zero,18036d4 <_dtoa_r+0x728>
 1803680:	d8800d17 	ldw	r2,52(sp)
 1803684:	d8800415 	stw	r2,16(sp)
 1803688:	e009883a 	mov	r4,fp
 180368c:	213fffc4 	addi	r4,r4,-1
 1803690:	20c00007 	ldb	r3,0(r4)
 1803694:	00800e44 	movi	r2,57
 1803698:	1880081e 	bne	r3,r2,18036bc <_dtoa_r+0x710>
 180369c:	d8800517 	ldw	r2,20(sp)
 18036a0:	113ffa1e 	bne	r2,r4,180368c <_dtoa_r+0x6e0>
 18036a4:	d8c00417 	ldw	r3,16(sp)
 18036a8:	d9800517 	ldw	r6,20(sp)
 18036ac:	00800c04 	movi	r2,48
 18036b0:	18c00044 	addi	r3,r3,1
 18036b4:	d8c00415 	stw	r3,16(sp)
 18036b8:	30800005 	stb	r2,0(r6)
 18036bc:	20800003 	ldbu	r2,0(r4)
 18036c0:	d8c00417 	ldw	r3,16(sp)
 18036c4:	27000044 	addi	fp,r4,1
 18036c8:	10800044 	addi	r2,r2,1
 18036cc:	d8c00d15 	stw	r3,52(sp)
 18036d0:	20800005 	stb	r2,0(r4)
 18036d4:	d9001617 	ldw	r4,88(sp)
 18036d8:	d9400717 	ldw	r5,28(sp)
 18036dc:	18061400 	call	1806140 <_Bfree>
 18036e0:	e0000005 	stb	zero,0(fp)
 18036e4:	d9800d17 	ldw	r6,52(sp)
 18036e8:	d8c02717 	ldw	r3,156(sp)
 18036ec:	d9002917 	ldw	r4,164(sp)
 18036f0:	30800044 	addi	r2,r6,1
 18036f4:	18800015 	stw	r2,0(r3)
 18036f8:	20029c26 	beq	r4,zero,180416c <_dtoa_r+0x11c0>
 18036fc:	d8c00517 	ldw	r3,20(sp)
 1803700:	27000015 	stw	fp,0(r4)
 1803704:	003e5d06 	br	180307c <_dtoa_r+0xd0>
 1803708:	d9800d17 	ldw	r6,52(sp)
 180370c:	00c06074 	movhi	r3,385
 1803710:	18c3fd04 	addi	r3,r3,4084
 1803714:	d9001217 	ldw	r4,72(sp)
 1803718:	300490fa 	slli	r2,r6,3
 180371c:	d9401317 	ldw	r5,76(sp)
 1803720:	10c5883a 	add	r2,r2,r3
 1803724:	12000017 	ldw	r8,0(r2)
 1803728:	12400117 	ldw	r9,4(r2)
 180372c:	400d883a 	mov	r6,r8
 1803730:	480f883a 	mov	r7,r9
 1803734:	18097700 	call	1809770 <__ltdf2>
 1803738:	1000030e 	bge	r2,zero,1803748 <_dtoa_r+0x79c>
 180373c:	d8800d17 	ldw	r2,52(sp)
 1803740:	10bfffc4 	addi	r2,r2,-1
 1803744:	d8800d15 	stw	r2,52(sp)
 1803748:	d8000c15 	stw	zero,48(sp)
 180374c:	003ea806 	br	18031f0 <_dtoa_r+0x244>
 1803750:	d9000b17 	ldw	r4,44(sp)
 1803754:	202cc03a 	cmpne	r22,r4,zero
 1803758:	b000c71e 	bne	r22,zero,1803a78 <_dtoa_r+0xacc>
 180375c:	dc001117 	ldw	r16,68(sp)
 1803760:	dc801017 	ldw	r18,64(sp)
 1803764:	0027883a 	mov	r19,zero
 1803768:	04000b0e 	bge	zero,r16,1803798 <_dtoa_r+0x7ec>
 180376c:	d8c00a17 	ldw	r3,40(sp)
 1803770:	00c0090e 	bge	zero,r3,1803798 <_dtoa_r+0x7ec>
 1803774:	8005883a 	mov	r2,r16
 1803778:	1c011316 	blt	r3,r16,1803bc8 <_dtoa_r+0xc1c>
 180377c:	d9000a17 	ldw	r4,40(sp)
 1803780:	d9801117 	ldw	r6,68(sp)
 1803784:	80a1c83a 	sub	r16,r16,r2
 1803788:	2089c83a 	sub	r4,r4,r2
 180378c:	308dc83a 	sub	r6,r6,r2
 1803790:	d9000a15 	stw	r4,40(sp)
 1803794:	d9801115 	stw	r6,68(sp)
 1803798:	d8801017 	ldw	r2,64(sp)
 180379c:	0080150e 	bge	zero,r2,18037f4 <_dtoa_r+0x848>
 18037a0:	d8c00b17 	ldw	r3,44(sp)
 18037a4:	1805003a 	cmpeq	r2,r3,zero
 18037a8:	1001c91e 	bne	r2,zero,1803ed0 <_dtoa_r+0xf24>
 18037ac:	04800e0e 	bge	zero,r18,18037e8 <_dtoa_r+0x83c>
 18037b0:	d9001617 	ldw	r4,88(sp)
 18037b4:	980b883a 	mov	r5,r19
 18037b8:	900d883a 	mov	r6,r18
 18037bc:	1806ef40 	call	1806ef4 <__pow5mult>
 18037c0:	d9001617 	ldw	r4,88(sp)
 18037c4:	d9800717 	ldw	r6,28(sp)
 18037c8:	100b883a 	mov	r5,r2
 18037cc:	1027883a 	mov	r19,r2
 18037d0:	1806bd00 	call	1806bd0 <__multiply>
 18037d4:	d9001617 	ldw	r4,88(sp)
 18037d8:	d9400717 	ldw	r5,28(sp)
 18037dc:	1023883a 	mov	r17,r2
 18037e0:	18061400 	call	1806140 <_Bfree>
 18037e4:	dc400715 	stw	r17,28(sp)
 18037e8:	d9001017 	ldw	r4,64(sp)
 18037ec:	248dc83a 	sub	r6,r4,r18
 18037f0:	30010e1e 	bne	r6,zero,1803c2c <_dtoa_r+0xc80>
 18037f4:	d9001617 	ldw	r4,88(sp)
 18037f8:	04400044 	movi	r17,1
 18037fc:	880b883a 	mov	r5,r17
 1803800:	1806db80 	call	1806db8 <__i2b>
 1803804:	d9800917 	ldw	r6,36(sp)
 1803808:	1025883a 	mov	r18,r2
 180380c:	0180040e 	bge	zero,r6,1803820 <_dtoa_r+0x874>
 1803810:	d9001617 	ldw	r4,88(sp)
 1803814:	100b883a 	mov	r5,r2
 1803818:	1806ef40 	call	1806ef4 <__pow5mult>
 180381c:	1025883a 	mov	r18,r2
 1803820:	d8801717 	ldw	r2,92(sp)
 1803824:	8880f30e 	bge	r17,r2,1803bf4 <_dtoa_r+0xc48>
 1803828:	0023883a 	mov	r17,zero
 180382c:	d9800917 	ldw	r6,36(sp)
 1803830:	30019e1e 	bne	r6,zero,1803eac <_dtoa_r+0xf00>
 1803834:	00c00044 	movi	r3,1
 1803838:	d9000a17 	ldw	r4,40(sp)
 180383c:	20c5883a 	add	r2,r4,r3
 1803840:	10c007cc 	andi	r3,r2,31
 1803844:	1800841e 	bne	r3,zero,1803a58 <_dtoa_r+0xaac>
 1803848:	00800704 	movi	r2,28
 180384c:	d9000a17 	ldw	r4,40(sp)
 1803850:	d9801117 	ldw	r6,68(sp)
 1803854:	80a1883a 	add	r16,r16,r2
 1803858:	2089883a 	add	r4,r4,r2
 180385c:	308d883a 	add	r6,r6,r2
 1803860:	d9000a15 	stw	r4,40(sp)
 1803864:	d9801115 	stw	r6,68(sp)
 1803868:	d8801117 	ldw	r2,68(sp)
 180386c:	0080050e 	bge	zero,r2,1803884 <_dtoa_r+0x8d8>
 1803870:	d9400717 	ldw	r5,28(sp)
 1803874:	d9001617 	ldw	r4,88(sp)
 1803878:	100d883a 	mov	r6,r2
 180387c:	1806a840 	call	1806a84 <__lshift>
 1803880:	d8800715 	stw	r2,28(sp)
 1803884:	d8c00a17 	ldw	r3,40(sp)
 1803888:	00c0050e 	bge	zero,r3,18038a0 <_dtoa_r+0x8f4>
 180388c:	d9001617 	ldw	r4,88(sp)
 1803890:	900b883a 	mov	r5,r18
 1803894:	180d883a 	mov	r6,r3
 1803898:	1806a840 	call	1806a84 <__lshift>
 180389c:	1025883a 	mov	r18,r2
 18038a0:	d9000c17 	ldw	r4,48(sp)
 18038a4:	2005003a 	cmpeq	r2,r4,zero
 18038a8:	10016f26 	beq	r2,zero,1803e68 <_dtoa_r+0xebc>
 18038ac:	d9000f17 	ldw	r4,60(sp)
 18038b0:	0102170e 	bge	zero,r4,1804110 <_dtoa_r+0x1164>
 18038b4:	d9800b17 	ldw	r6,44(sp)
 18038b8:	3005003a 	cmpeq	r2,r6,zero
 18038bc:	1000881e 	bne	r2,zero,1803ae0 <_dtoa_r+0xb34>
 18038c0:	0400050e 	bge	zero,r16,18038d8 <_dtoa_r+0x92c>
 18038c4:	d9001617 	ldw	r4,88(sp)
 18038c8:	980b883a 	mov	r5,r19
 18038cc:	800d883a 	mov	r6,r16
 18038d0:	1806a840 	call	1806a84 <__lshift>
 18038d4:	1027883a 	mov	r19,r2
 18038d8:	8804c03a 	cmpne	r2,r17,zero
 18038dc:	1002541e 	bne	r2,zero,1804230 <_dtoa_r+0x1284>
 18038e0:	980b883a 	mov	r5,r19
 18038e4:	dd800517 	ldw	r22,20(sp)
 18038e8:	dcc00615 	stw	r19,24(sp)
 18038ec:	a700004c 	andi	fp,r20,1
 18038f0:	2827883a 	mov	r19,r5
 18038f4:	d9000717 	ldw	r4,28(sp)
 18038f8:	900b883a 	mov	r5,r18
 18038fc:	1802d940 	call	1802d94 <quorem>
 1803900:	d9000717 	ldw	r4,28(sp)
 1803904:	d9400617 	ldw	r5,24(sp)
 1803908:	1023883a 	mov	r17,r2
 180390c:	8dc00c04 	addi	r23,r17,48
 1803910:	180629c0 	call	180629c <__mcmp>
 1803914:	d9001617 	ldw	r4,88(sp)
 1803918:	900b883a 	mov	r5,r18
 180391c:	980d883a 	mov	r6,r19
 1803920:	1029883a 	mov	r20,r2
 1803924:	18068f80 	call	18068f8 <__mdiff>
 1803928:	102b883a 	mov	r21,r2
 180392c:	10800317 	ldw	r2,12(r2)
 1803930:	1001281e 	bne	r2,zero,1803dd4 <_dtoa_r+0xe28>
 1803934:	d9000717 	ldw	r4,28(sp)
 1803938:	a80b883a 	mov	r5,r21
 180393c:	180629c0 	call	180629c <__mcmp>
 1803940:	d9001617 	ldw	r4,88(sp)
 1803944:	1021883a 	mov	r16,r2
 1803948:	a80b883a 	mov	r5,r21
 180394c:	18061400 	call	1806140 <_Bfree>
 1803950:	8000041e 	bne	r16,zero,1803964 <_dtoa_r+0x9b8>
 1803954:	d8801717 	ldw	r2,92(sp)
 1803958:	1000021e 	bne	r2,zero,1803964 <_dtoa_r+0x9b8>
 180395c:	e004c03a 	cmpne	r2,fp,zero
 1803960:	10011726 	beq	r2,zero,1803dc0 <_dtoa_r+0xe14>
 1803964:	a0010616 	blt	r20,zero,1803d80 <_dtoa_r+0xdd4>
 1803968:	a000041e 	bne	r20,zero,180397c <_dtoa_r+0x9d0>
 180396c:	d8c01717 	ldw	r3,92(sp)
 1803970:	1800021e 	bne	r3,zero,180397c <_dtoa_r+0x9d0>
 1803974:	e004c03a 	cmpne	r2,fp,zero
 1803978:	10010126 	beq	r2,zero,1803d80 <_dtoa_r+0xdd4>
 180397c:	04023d16 	blt	zero,r16,1804274 <_dtoa_r+0x12c8>
 1803980:	b5c00005 	stb	r23,0(r22)
 1803984:	d9800517 	ldw	r6,20(sp)
 1803988:	d9000f17 	ldw	r4,60(sp)
 180398c:	b5800044 	addi	r22,r22,1
 1803990:	3105883a 	add	r2,r6,r4
 1803994:	b0806526 	beq	r22,r2,1803b2c <_dtoa_r+0xb80>
 1803998:	d9400717 	ldw	r5,28(sp)
 180399c:	d9001617 	ldw	r4,88(sp)
 18039a0:	01800284 	movi	r6,10
 18039a4:	000f883a 	mov	r7,zero
 18039a8:	1806df40 	call	1806df4 <__multadd>
 18039ac:	d8800715 	stw	r2,28(sp)
 18039b0:	d8800617 	ldw	r2,24(sp)
 18039b4:	14c10c26 	beq	r2,r19,1803de8 <_dtoa_r+0xe3c>
 18039b8:	d9400617 	ldw	r5,24(sp)
 18039bc:	d9001617 	ldw	r4,88(sp)
 18039c0:	01800284 	movi	r6,10
 18039c4:	000f883a 	mov	r7,zero
 18039c8:	1806df40 	call	1806df4 <__multadd>
 18039cc:	d9001617 	ldw	r4,88(sp)
 18039d0:	980b883a 	mov	r5,r19
 18039d4:	01800284 	movi	r6,10
 18039d8:	000f883a 	mov	r7,zero
 18039dc:	d8800615 	stw	r2,24(sp)
 18039e0:	1806df40 	call	1806df4 <__multadd>
 18039e4:	1027883a 	mov	r19,r2
 18039e8:	003fc206 	br	18038f4 <_dtoa_r+0x948>
 18039ec:	2445c83a 	sub	r2,r4,r17
 18039f0:	a088983a 	sll	r4,r20,r2
 18039f4:	003e4b06 	br	1803324 <_dtoa_r+0x378>
 18039f8:	01bfffc4 	movi	r6,-1
 18039fc:	00800044 	movi	r2,1
 1803a00:	d9800e15 	stw	r6,56(sp)
 1803a04:	d9800f15 	stw	r6,60(sp)
 1803a08:	d8800b15 	stw	r2,44(sp)
 1803a0c:	d8c01617 	ldw	r3,88(sp)
 1803a10:	008005c4 	movi	r2,23
 1803a14:	18001115 	stw	zero,68(r3)
 1803a18:	1580082e 	bgeu	r2,r22,1803a3c <_dtoa_r+0xa90>
 1803a1c:	00c00104 	movi	r3,4
 1803a20:	0009883a 	mov	r4,zero
 1803a24:	18c7883a 	add	r3,r3,r3
 1803a28:	18800504 	addi	r2,r3,20
 1803a2c:	21000044 	addi	r4,r4,1
 1803a30:	b0bffc2e 	bgeu	r22,r2,1803a24 <_dtoa_r+0xa78>
 1803a34:	d9801617 	ldw	r6,88(sp)
 1803a38:	31001115 	stw	r4,68(r6)
 1803a3c:	dc000f17 	ldw	r16,60(sp)
 1803a40:	003e4b06 	br	1803370 <_dtoa_r+0x3c4>
 1803a44:	d9801717 	ldw	r6,92(sp)
 1803a48:	0023883a 	mov	r17,zero
 1803a4c:	31bfff04 	addi	r6,r6,-4
 1803a50:	d9801715 	stw	r6,92(sp)
 1803a54:	003df806 	br	1803238 <_dtoa_r+0x28c>
 1803a58:	00800804 	movi	r2,32
 1803a5c:	10c9c83a 	sub	r4,r2,r3
 1803a60:	00c00104 	movi	r3,4
 1803a64:	19005a16 	blt	r3,r4,1803bd0 <_dtoa_r+0xc24>
 1803a68:	008000c4 	movi	r2,3
 1803a6c:	113f7e16 	blt	r2,r4,1803868 <_dtoa_r+0x8bc>
 1803a70:	20800704 	addi	r2,r4,28
 1803a74:	003f7506 	br	180384c <_dtoa_r+0x8a0>
 1803a78:	d9801717 	ldw	r6,92(sp)
 1803a7c:	00800044 	movi	r2,1
 1803a80:	1180a10e 	bge	r2,r6,1803d08 <_dtoa_r+0xd5c>
 1803a84:	d9800f17 	ldw	r6,60(sp)
 1803a88:	d8c01017 	ldw	r3,64(sp)
 1803a8c:	30bfffc4 	addi	r2,r6,-1
 1803a90:	1881c616 	blt	r3,r2,18041ac <_dtoa_r+0x1200>
 1803a94:	18a5c83a 	sub	r18,r3,r2
 1803a98:	d8800f17 	ldw	r2,60(sp)
 1803a9c:	10026216 	blt	r2,zero,1804428 <_dtoa_r+0x147c>
 1803aa0:	dc001117 	ldw	r16,68(sp)
 1803aa4:	1007883a 	mov	r3,r2
 1803aa8:	d9800a17 	ldw	r6,40(sp)
 1803aac:	d8801117 	ldw	r2,68(sp)
 1803ab0:	d9001617 	ldw	r4,88(sp)
 1803ab4:	30cd883a 	add	r6,r6,r3
 1803ab8:	10c5883a 	add	r2,r2,r3
 1803abc:	01400044 	movi	r5,1
 1803ac0:	d9800a15 	stw	r6,40(sp)
 1803ac4:	d8801115 	stw	r2,68(sp)
 1803ac8:	1806db80 	call	1806db8 <__i2b>
 1803acc:	1027883a 	mov	r19,r2
 1803ad0:	003f2506 	br	1803768 <_dtoa_r+0x7bc>
 1803ad4:	00c06074 	movhi	r3,385
 1803ad8:	18c3df04 	addi	r3,r3,3964
 1803adc:	003d6706 	br	180307c <_dtoa_r+0xd0>
 1803ae0:	dd800517 	ldw	r22,20(sp)
 1803ae4:	04000044 	movi	r16,1
 1803ae8:	00000706 	br	1803b08 <_dtoa_r+0xb5c>
 1803aec:	d9400717 	ldw	r5,28(sp)
 1803af0:	d9001617 	ldw	r4,88(sp)
 1803af4:	01800284 	movi	r6,10
 1803af8:	000f883a 	mov	r7,zero
 1803afc:	1806df40 	call	1806df4 <__multadd>
 1803b00:	d8800715 	stw	r2,28(sp)
 1803b04:	84000044 	addi	r16,r16,1
 1803b08:	d9000717 	ldw	r4,28(sp)
 1803b0c:	900b883a 	mov	r5,r18
 1803b10:	1802d940 	call	1802d94 <quorem>
 1803b14:	15c00c04 	addi	r23,r2,48
 1803b18:	b5c00005 	stb	r23,0(r22)
 1803b1c:	d8c00f17 	ldw	r3,60(sp)
 1803b20:	b5800044 	addi	r22,r22,1
 1803b24:	80fff116 	blt	r16,r3,1803aec <_dtoa_r+0xb40>
 1803b28:	d8000615 	stw	zero,24(sp)
 1803b2c:	d9400717 	ldw	r5,28(sp)
 1803b30:	d9001617 	ldw	r4,88(sp)
 1803b34:	01800044 	movi	r6,1
 1803b38:	1806a840 	call	1806a84 <__lshift>
 1803b3c:	1009883a 	mov	r4,r2
 1803b40:	900b883a 	mov	r5,r18
 1803b44:	d8800715 	stw	r2,28(sp)
 1803b48:	180629c0 	call	180629c <__mcmp>
 1803b4c:	00803c0e 	bge	zero,r2,1803c40 <_dtoa_r+0xc94>
 1803b50:	b009883a 	mov	r4,r22
 1803b54:	213fffc4 	addi	r4,r4,-1
 1803b58:	21400003 	ldbu	r5,0(r4)
 1803b5c:	00800e44 	movi	r2,57
 1803b60:	28c03fcc 	andi	r3,r5,255
 1803b64:	18c0201c 	xori	r3,r3,128
 1803b68:	18ffe004 	addi	r3,r3,-128
 1803b6c:	1881981e 	bne	r3,r2,18041d0 <_dtoa_r+0x1224>
 1803b70:	d9800517 	ldw	r6,20(sp)
 1803b74:	21bff71e 	bne	r4,r6,1803b54 <_dtoa_r+0xba8>
 1803b78:	d8800d17 	ldw	r2,52(sp)
 1803b7c:	37000044 	addi	fp,r6,1
 1803b80:	10800044 	addi	r2,r2,1
 1803b84:	d8800d15 	stw	r2,52(sp)
 1803b88:	00800c44 	movi	r2,49
 1803b8c:	30800005 	stb	r2,0(r6)
 1803b90:	d9001617 	ldw	r4,88(sp)
 1803b94:	900b883a 	mov	r5,r18
 1803b98:	18061400 	call	1806140 <_Bfree>
 1803b9c:	983ecd26 	beq	r19,zero,18036d4 <_dtoa_r+0x728>
 1803ba0:	d8c00617 	ldw	r3,24(sp)
 1803ba4:	18000426 	beq	r3,zero,1803bb8 <_dtoa_r+0xc0c>
 1803ba8:	1cc00326 	beq	r3,r19,1803bb8 <_dtoa_r+0xc0c>
 1803bac:	d9001617 	ldw	r4,88(sp)
 1803bb0:	180b883a 	mov	r5,r3
 1803bb4:	18061400 	call	1806140 <_Bfree>
 1803bb8:	d9001617 	ldw	r4,88(sp)
 1803bbc:	980b883a 	mov	r5,r19
 1803bc0:	18061400 	call	1806140 <_Bfree>
 1803bc4:	003ec306 	br	18036d4 <_dtoa_r+0x728>
 1803bc8:	1805883a 	mov	r2,r3
 1803bcc:	003eeb06 	br	180377c <_dtoa_r+0x7d0>
 1803bd0:	d9800a17 	ldw	r6,40(sp)
 1803bd4:	d8c01117 	ldw	r3,68(sp)
 1803bd8:	20bfff04 	addi	r2,r4,-4
 1803bdc:	308d883a 	add	r6,r6,r2
 1803be0:	1887883a 	add	r3,r3,r2
 1803be4:	80a1883a 	add	r16,r16,r2
 1803be8:	d9800a15 	stw	r6,40(sp)
 1803bec:	d8c01115 	stw	r3,68(sp)
 1803bf0:	003f1d06 	br	1803868 <_dtoa_r+0x8bc>
 1803bf4:	a03f0c1e 	bne	r20,zero,1803828 <_dtoa_r+0x87c>
 1803bf8:	00800434 	movhi	r2,16
 1803bfc:	10bfffc4 	addi	r2,r2,-1
 1803c00:	a884703a 	and	r2,r21,r2
 1803c04:	103f081e 	bne	r2,zero,1803828 <_dtoa_r+0x87c>
 1803c08:	a89ffc2c 	andhi	r2,r21,32752
 1803c0c:	103f0626 	beq	r2,zero,1803828 <_dtoa_r+0x87c>
 1803c10:	d8c01117 	ldw	r3,68(sp)
 1803c14:	d9000a17 	ldw	r4,40(sp)
 1803c18:	18c00044 	addi	r3,r3,1
 1803c1c:	21000044 	addi	r4,r4,1
 1803c20:	d8c01115 	stw	r3,68(sp)
 1803c24:	d9000a15 	stw	r4,40(sp)
 1803c28:	003f0006 	br	180382c <_dtoa_r+0x880>
 1803c2c:	d9400717 	ldw	r5,28(sp)
 1803c30:	d9001617 	ldw	r4,88(sp)
 1803c34:	1806ef40 	call	1806ef4 <__pow5mult>
 1803c38:	d8800715 	stw	r2,28(sp)
 1803c3c:	003eed06 	br	18037f4 <_dtoa_r+0x848>
 1803c40:	1000021e 	bne	r2,zero,1803c4c <_dtoa_r+0xca0>
 1803c44:	b880004c 	andi	r2,r23,1
 1803c48:	103fc11e 	bne	r2,zero,1803b50 <_dtoa_r+0xba4>
 1803c4c:	b5bfffc4 	addi	r22,r22,-1
 1803c50:	b0c00007 	ldb	r3,0(r22)
 1803c54:	00800c04 	movi	r2,48
 1803c58:	18bffc26 	beq	r3,r2,1803c4c <_dtoa_r+0xca0>
 1803c5c:	b7000044 	addi	fp,r22,1
 1803c60:	003fcb06 	br	1803b90 <_dtoa_r+0xbe4>
 1803c64:	d9800d17 	ldw	r6,52(sp)
 1803c68:	018fc83a 	sub	r7,zero,r6
 1803c6c:	3801f726 	beq	r7,zero,180444c <_dtoa_r+0x14a0>
 1803c70:	398003cc 	andi	r6,r7,15
 1803c74:	300c90fa 	slli	r6,r6,3
 1803c78:	01406074 	movhi	r5,385
 1803c7c:	2943fd04 	addi	r5,r5,4084
 1803c80:	d9001217 	ldw	r4,72(sp)
 1803c84:	314d883a 	add	r6,r6,r5
 1803c88:	30c00117 	ldw	r3,4(r6)
 1803c8c:	30800017 	ldw	r2,0(r6)
 1803c90:	d9401317 	ldw	r5,76(sp)
 1803c94:	3821d13a 	srai	r16,r7,4
 1803c98:	100d883a 	mov	r6,r2
 1803c9c:	180f883a 	mov	r7,r3
 1803ca0:	1808f340 	call	1808f34 <__muldf3>
 1803ca4:	1011883a 	mov	r8,r2
 1803ca8:	1813883a 	mov	r9,r3
 1803cac:	1029883a 	mov	r20,r2
 1803cb0:	182b883a 	mov	r21,r3
 1803cb4:	8001e526 	beq	r16,zero,180444c <_dtoa_r+0x14a0>
 1803cb8:	05800084 	movi	r22,2
 1803cbc:	04406074 	movhi	r17,385
 1803cc0:	8c442f04 	addi	r17,r17,4284
 1803cc4:	8080004c 	andi	r2,r16,1
 1803cc8:	1005003a 	cmpeq	r2,r2,zero
 1803ccc:	1000081e 	bne	r2,zero,1803cf0 <_dtoa_r+0xd44>
 1803cd0:	89800017 	ldw	r6,0(r17)
 1803cd4:	89c00117 	ldw	r7,4(r17)
 1803cd8:	480b883a 	mov	r5,r9
 1803cdc:	4009883a 	mov	r4,r8
 1803ce0:	1808f340 	call	1808f34 <__muldf3>
 1803ce4:	1011883a 	mov	r8,r2
 1803ce8:	b5800044 	addi	r22,r22,1
 1803cec:	1813883a 	mov	r9,r3
 1803cf0:	8021d07a 	srai	r16,r16,1
 1803cf4:	8c400204 	addi	r17,r17,8
 1803cf8:	803ff21e 	bne	r16,zero,1803cc4 <_dtoa_r+0xd18>
 1803cfc:	4029883a 	mov	r20,r8
 1803d00:	482b883a 	mov	r21,r9
 1803d04:	003dca06 	br	1803430 <_dtoa_r+0x484>
 1803d08:	d9000817 	ldw	r4,32(sp)
 1803d0c:	2005003a 	cmpeq	r2,r4,zero
 1803d10:	1001f61e 	bne	r2,zero,18044ec <_dtoa_r+0x1540>
 1803d14:	dc001117 	ldw	r16,68(sp)
 1803d18:	dc801017 	ldw	r18,64(sp)
 1803d1c:	18c10cc4 	addi	r3,r3,1075
 1803d20:	003f6106 	br	1803aa8 <_dtoa_r+0xafc>
 1803d24:	d8000b15 	stw	zero,44(sp)
 1803d28:	d9802617 	ldw	r6,152(sp)
 1803d2c:	d8c00d17 	ldw	r3,52(sp)
 1803d30:	30800044 	addi	r2,r6,1
 1803d34:	18ad883a 	add	r22,r3,r2
 1803d38:	b13fffc4 	addi	r4,r22,-1
 1803d3c:	d9000e15 	stw	r4,56(sp)
 1803d40:	0581f60e 	bge	zero,r22,180451c <_dtoa_r+0x1570>
 1803d44:	dd800f15 	stw	r22,60(sp)
 1803d48:	003f3006 	br	1803a0c <_dtoa_r+0xa60>
 1803d4c:	d8000b15 	stw	zero,44(sp)
 1803d50:	d9002617 	ldw	r4,152(sp)
 1803d54:	0101eb0e 	bge	zero,r4,1804504 <_dtoa_r+0x1558>
 1803d58:	202d883a 	mov	r22,r4
 1803d5c:	d9000e15 	stw	r4,56(sp)
 1803d60:	d9000f15 	stw	r4,60(sp)
 1803d64:	003f2906 	br	1803a0c <_dtoa_r+0xa60>
 1803d68:	01800044 	movi	r6,1
 1803d6c:	d9800b15 	stw	r6,44(sp)
 1803d70:	003ff706 	br	1803d50 <_dtoa_r+0xda4>
 1803d74:	01000044 	movi	r4,1
 1803d78:	d9000b15 	stw	r4,44(sp)
 1803d7c:	003fea06 	br	1803d28 <_dtoa_r+0xd7c>
 1803d80:	04000c0e 	bge	zero,r16,1803db4 <_dtoa_r+0xe08>
 1803d84:	d9400717 	ldw	r5,28(sp)
 1803d88:	d9001617 	ldw	r4,88(sp)
 1803d8c:	01800044 	movi	r6,1
 1803d90:	1806a840 	call	1806a84 <__lshift>
 1803d94:	1009883a 	mov	r4,r2
 1803d98:	900b883a 	mov	r5,r18
 1803d9c:	d8800715 	stw	r2,28(sp)
 1803da0:	180629c0 	call	180629c <__mcmp>
 1803da4:	0081e00e 	bge	zero,r2,1804528 <_dtoa_r+0x157c>
 1803da8:	bdc00044 	addi	r23,r23,1
 1803dac:	00800e84 	movi	r2,58
 1803db0:	b881a226 	beq	r23,r2,180443c <_dtoa_r+0x1490>
 1803db4:	b7000044 	addi	fp,r22,1
 1803db8:	b5c00005 	stb	r23,0(r22)
 1803dbc:	003f7406 	br	1803b90 <_dtoa_r+0xbe4>
 1803dc0:	00800e44 	movi	r2,57
 1803dc4:	b8819d26 	beq	r23,r2,180443c <_dtoa_r+0x1490>
 1803dc8:	053ffa0e 	bge	zero,r20,1803db4 <_dtoa_r+0xe08>
 1803dcc:	8dc00c44 	addi	r23,r17,49
 1803dd0:	003ff806 	br	1803db4 <_dtoa_r+0xe08>
 1803dd4:	d9001617 	ldw	r4,88(sp)
 1803dd8:	a80b883a 	mov	r5,r21
 1803ddc:	04000044 	movi	r16,1
 1803de0:	18061400 	call	1806140 <_Bfree>
 1803de4:	003edf06 	br	1803964 <_dtoa_r+0x9b8>
 1803de8:	d9001617 	ldw	r4,88(sp)
 1803dec:	980b883a 	mov	r5,r19
 1803df0:	01800284 	movi	r6,10
 1803df4:	000f883a 	mov	r7,zero
 1803df8:	1806df40 	call	1806df4 <__multadd>
 1803dfc:	1027883a 	mov	r19,r2
 1803e00:	d8800615 	stw	r2,24(sp)
 1803e04:	003ebb06 	br	18038f4 <_dtoa_r+0x948>
 1803e08:	d9801117 	ldw	r6,68(sp)
 1803e0c:	d8800d17 	ldw	r2,52(sp)
 1803e10:	d8000915 	stw	zero,36(sp)
 1803e14:	308dc83a 	sub	r6,r6,r2
 1803e18:	0087c83a 	sub	r3,zero,r2
 1803e1c:	d9801115 	stw	r6,68(sp)
 1803e20:	d8c01015 	stw	r3,64(sp)
 1803e24:	003cfe06 	br	1803220 <_dtoa_r+0x274>
 1803e28:	018dc83a 	sub	r6,zero,r6
 1803e2c:	d9801115 	stw	r6,68(sp)
 1803e30:	d8000a15 	stw	zero,40(sp)
 1803e34:	003cf306 	br	1803204 <_dtoa_r+0x258>
 1803e38:	d9000d17 	ldw	r4,52(sp)
 1803e3c:	18097f80 	call	18097f8 <__floatsidf>
 1803e40:	880b883a 	mov	r5,r17
 1803e44:	8009883a 	mov	r4,r16
 1803e48:	180f883a 	mov	r7,r3
 1803e4c:	100d883a 	mov	r6,r2
 1803e50:	18095d80 	call	18095d8 <__nedf2>
 1803e54:	103ce126 	beq	r2,zero,18031dc <_dtoa_r+0x230>
 1803e58:	d9800d17 	ldw	r6,52(sp)
 1803e5c:	31bfffc4 	addi	r6,r6,-1
 1803e60:	d9800d15 	stw	r6,52(sp)
 1803e64:	003cdd06 	br	18031dc <_dtoa_r+0x230>
 1803e68:	d9000717 	ldw	r4,28(sp)
 1803e6c:	900b883a 	mov	r5,r18
 1803e70:	180629c0 	call	180629c <__mcmp>
 1803e74:	103e8d0e 	bge	r2,zero,18038ac <_dtoa_r+0x900>
 1803e78:	d9400717 	ldw	r5,28(sp)
 1803e7c:	d9001617 	ldw	r4,88(sp)
 1803e80:	01800284 	movi	r6,10
 1803e84:	000f883a 	mov	r7,zero
 1803e88:	1806df40 	call	1806df4 <__multadd>
 1803e8c:	d9800d17 	ldw	r6,52(sp)
 1803e90:	d8800715 	stw	r2,28(sp)
 1803e94:	31bfffc4 	addi	r6,r6,-1
 1803e98:	d9800d15 	stw	r6,52(sp)
 1803e9c:	b001a71e 	bne	r22,zero,180453c <_dtoa_r+0x1590>
 1803ea0:	d8800e17 	ldw	r2,56(sp)
 1803ea4:	d8800f15 	stw	r2,60(sp)
 1803ea8:	003e8006 	br	18038ac <_dtoa_r+0x900>
 1803eac:	90800417 	ldw	r2,16(r18)
 1803eb0:	1085883a 	add	r2,r2,r2
 1803eb4:	1085883a 	add	r2,r2,r2
 1803eb8:	1485883a 	add	r2,r2,r18
 1803ebc:	11000417 	ldw	r4,16(r2)
 1803ec0:	18061680 	call	1806168 <__hi0bits>
 1803ec4:	00c00804 	movi	r3,32
 1803ec8:	1887c83a 	sub	r3,r3,r2
 1803ecc:	003e5a06 	br	1803838 <_dtoa_r+0x88c>
 1803ed0:	d9400717 	ldw	r5,28(sp)
 1803ed4:	d9801017 	ldw	r6,64(sp)
 1803ed8:	d9001617 	ldw	r4,88(sp)
 1803edc:	1806ef40 	call	1806ef4 <__pow5mult>
 1803ee0:	d8800715 	stw	r2,28(sp)
 1803ee4:	003e4306 	br	18037f4 <_dtoa_r+0x848>
 1803ee8:	d9800f17 	ldw	r6,60(sp)
 1803eec:	d8800d17 	ldw	r2,52(sp)
 1803ef0:	d9800315 	stw	r6,12(sp)
 1803ef4:	d8800415 	stw	r2,16(sp)
 1803ef8:	d8c00b17 	ldw	r3,44(sp)
 1803efc:	1805003a 	cmpeq	r2,r3,zero
 1803f00:	1000e21e 	bne	r2,zero,180428c <_dtoa_r+0x12e0>
 1803f04:	d9000317 	ldw	r4,12(sp)
 1803f08:	0005883a 	mov	r2,zero
 1803f0c:	00cff834 	movhi	r3,16352
 1803f10:	200c90fa 	slli	r6,r4,3
 1803f14:	01006074 	movhi	r4,385
 1803f18:	2103fd04 	addi	r4,r4,4084
 1803f1c:	180b883a 	mov	r5,r3
 1803f20:	310d883a 	add	r6,r6,r4
 1803f24:	327fff17 	ldw	r9,-4(r6)
 1803f28:	323ffe17 	ldw	r8,-8(r6)
 1803f2c:	1009883a 	mov	r4,r2
 1803f30:	480f883a 	mov	r7,r9
 1803f34:	400d883a 	mov	r6,r8
 1803f38:	18092f80 	call	18092f8 <__divdf3>
 1803f3c:	180b883a 	mov	r5,r3
 1803f40:	b00d883a 	mov	r6,r22
 1803f44:	b80f883a 	mov	r7,r23
 1803f48:	1009883a 	mov	r4,r2
 1803f4c:	1808e400 	call	1808e40 <__subdf3>
 1803f50:	a80b883a 	mov	r5,r21
 1803f54:	a009883a 	mov	r4,r20
 1803f58:	d8c01915 	stw	r3,100(sp)
 1803f5c:	d8801815 	stw	r2,96(sp)
 1803f60:	18098f00 	call	18098f0 <__fixdfsi>
 1803f64:	1009883a 	mov	r4,r2
 1803f68:	1027883a 	mov	r19,r2
 1803f6c:	18097f80 	call	18097f8 <__floatsidf>
 1803f70:	a80b883a 	mov	r5,r21
 1803f74:	a009883a 	mov	r4,r20
 1803f78:	180f883a 	mov	r7,r3
 1803f7c:	100d883a 	mov	r6,r2
 1803f80:	1808e400 	call	1808e40 <__subdf3>
 1803f84:	d9801817 	ldw	r6,96(sp)
 1803f88:	1823883a 	mov	r17,r3
 1803f8c:	d8801415 	stw	r2,80(sp)
 1803f90:	302d883a 	mov	r22,r6
 1803f94:	d9800517 	ldw	r6,20(sp)
 1803f98:	9cc00c04 	addi	r19,r19,48
 1803f9c:	dc401515 	stw	r17,84(sp)
 1803fa0:	d8c01917 	ldw	r3,100(sp)
 1803fa4:	34c00005 	stb	r19,0(r6)
 1803fa8:	d8800517 	ldw	r2,20(sp)
 1803fac:	d9401917 	ldw	r5,100(sp)
 1803fb0:	d9801417 	ldw	r6,80(sp)
 1803fb4:	b009883a 	mov	r4,r22
 1803fb8:	880f883a 	mov	r7,r17
 1803fbc:	182f883a 	mov	r23,r3
 1803fc0:	17000044 	addi	fp,r2,1
 1803fc4:	18096600 	call	1809660 <__gtdf2>
 1803fc8:	00804e16 	blt	zero,r2,1804104 <_dtoa_r+0x1158>
 1803fcc:	d9801417 	ldw	r6,80(sp)
 1803fd0:	0005883a 	mov	r2,zero
 1803fd4:	00cffc34 	movhi	r3,16368
 1803fd8:	180b883a 	mov	r5,r3
 1803fdc:	880f883a 	mov	r7,r17
 1803fe0:	1009883a 	mov	r4,r2
 1803fe4:	1808e400 	call	1808e40 <__subdf3>
 1803fe8:	d9401917 	ldw	r5,100(sp)
 1803fec:	180f883a 	mov	r7,r3
 1803ff0:	b009883a 	mov	r4,r22
 1803ff4:	100d883a 	mov	r6,r2
 1803ff8:	18096600 	call	1809660 <__gtdf2>
 1803ffc:	00bda216 	blt	zero,r2,1803688 <_dtoa_r+0x6dc>
 1804000:	d8c00317 	ldw	r3,12(sp)
 1804004:	00800044 	movi	r2,1
 1804008:	10c01216 	blt	r2,r3,1804054 <_dtoa_r+0x10a8>
 180400c:	003d4506 	br	1803524 <_dtoa_r+0x578>
 1804010:	d9801417 	ldw	r6,80(sp)
 1804014:	0005883a 	mov	r2,zero
 1804018:	00cffc34 	movhi	r3,16368
 180401c:	180b883a 	mov	r5,r3
 1804020:	880f883a 	mov	r7,r17
 1804024:	1009883a 	mov	r4,r2
 1804028:	1808e400 	call	1808e40 <__subdf3>
 180402c:	d9c01b17 	ldw	r7,108(sp)
 1804030:	180b883a 	mov	r5,r3
 1804034:	1009883a 	mov	r4,r2
 1804038:	b00d883a 	mov	r6,r22
 180403c:	18097700 	call	1809770 <__ltdf2>
 1804040:	103d9116 	blt	r2,zero,1803688 <_dtoa_r+0x6dc>
 1804044:	d9800517 	ldw	r6,20(sp)
 1804048:	d9000317 	ldw	r4,12(sp)
 180404c:	3105883a 	add	r2,r6,r4
 1804050:	e0bd3426 	beq	fp,r2,1803524 <_dtoa_r+0x578>
 1804054:	04500934 	movhi	r17,16420
 1804058:	0021883a 	mov	r16,zero
 180405c:	b80b883a 	mov	r5,r23
 1804060:	b009883a 	mov	r4,r22
 1804064:	800d883a 	mov	r6,r16
 1804068:	880f883a 	mov	r7,r17
 180406c:	1808f340 	call	1808f34 <__muldf3>
 1804070:	d9401517 	ldw	r5,84(sp)
 1804074:	d9001417 	ldw	r4,80(sp)
 1804078:	880f883a 	mov	r7,r17
 180407c:	000d883a 	mov	r6,zero
 1804080:	d8801a15 	stw	r2,104(sp)
 1804084:	d8c01b15 	stw	r3,108(sp)
 1804088:	1808f340 	call	1808f34 <__muldf3>
 180408c:	180b883a 	mov	r5,r3
 1804090:	1009883a 	mov	r4,r2
 1804094:	1823883a 	mov	r17,r3
 1804098:	1021883a 	mov	r16,r2
 180409c:	18098f00 	call	18098f0 <__fixdfsi>
 18040a0:	1009883a 	mov	r4,r2
 18040a4:	102b883a 	mov	r21,r2
 18040a8:	18097f80 	call	18097f8 <__floatsidf>
 18040ac:	880b883a 	mov	r5,r17
 18040b0:	8009883a 	mov	r4,r16
 18040b4:	180f883a 	mov	r7,r3
 18040b8:	100d883a 	mov	r6,r2
 18040bc:	1808e400 	call	1808e40 <__subdf3>
 18040c0:	1021883a 	mov	r16,r2
 18040c4:	d9001b17 	ldw	r4,108(sp)
 18040c8:	1823883a 	mov	r17,r3
 18040cc:	dc001415 	stw	r16,80(sp)
 18040d0:	ad400c04 	addi	r21,r21,48
 18040d4:	dc401515 	stw	r17,84(sp)
 18040d8:	d8801a17 	ldw	r2,104(sp)
 18040dc:	e5400005 	stb	r21,0(fp)
 18040e0:	202f883a 	mov	r23,r4
 18040e4:	d9c01b17 	ldw	r7,108(sp)
 18040e8:	d9001417 	ldw	r4,80(sp)
 18040ec:	880b883a 	mov	r5,r17
 18040f0:	100d883a 	mov	r6,r2
 18040f4:	102d883a 	mov	r22,r2
 18040f8:	e7000044 	addi	fp,fp,1
 18040fc:	18097700 	call	1809770 <__ltdf2>
 1804100:	103fc30e 	bge	r2,zero,1804010 <_dtoa_r+0x1064>
 1804104:	d9000417 	ldw	r4,16(sp)
 1804108:	d9000d15 	stw	r4,52(sp)
 180410c:	003d7106 	br	18036d4 <_dtoa_r+0x728>
 1804110:	d9801717 	ldw	r6,92(sp)
 1804114:	00800084 	movi	r2,2
 1804118:	11bde60e 	bge	r2,r6,18038b4 <_dtoa_r+0x908>
 180411c:	203cfb1e 	bne	r4,zero,180350c <_dtoa_r+0x560>
 1804120:	d9001617 	ldw	r4,88(sp)
 1804124:	900b883a 	mov	r5,r18
 1804128:	01800144 	movi	r6,5
 180412c:	000f883a 	mov	r7,zero
 1804130:	1806df40 	call	1806df4 <__multadd>
 1804134:	d9000717 	ldw	r4,28(sp)
 1804138:	100b883a 	mov	r5,r2
 180413c:	1025883a 	mov	r18,r2
 1804140:	180629c0 	call	180629c <__mcmp>
 1804144:	00bcf10e 	bge	zero,r2,180350c <_dtoa_r+0x560>
 1804148:	d8c00d17 	ldw	r3,52(sp)
 180414c:	d9000517 	ldw	r4,20(sp)
 1804150:	d8000615 	stw	zero,24(sp)
 1804154:	18c00044 	addi	r3,r3,1
 1804158:	d8c00d15 	stw	r3,52(sp)
 180415c:	00800c44 	movi	r2,49
 1804160:	27000044 	addi	fp,r4,1
 1804164:	20800005 	stb	r2,0(r4)
 1804168:	003e8906 	br	1803b90 <_dtoa_r+0xbe4>
 180416c:	d8c00517 	ldw	r3,20(sp)
 1804170:	003bc206 	br	180307c <_dtoa_r+0xd0>
 1804174:	01806074 	movhi	r6,385
 1804178:	31842f04 	addi	r6,r6,4284
 180417c:	30c00917 	ldw	r3,36(r6)
 1804180:	30800817 	ldw	r2,32(r6)
 1804184:	d9001217 	ldw	r4,72(sp)
 1804188:	d9401317 	ldw	r5,76(sp)
 180418c:	180f883a 	mov	r7,r3
 1804190:	100d883a 	mov	r6,r2
 1804194:	18092f80 	call	18092f8 <__divdf3>
 1804198:	948003cc 	andi	r18,r18,15
 180419c:	058000c4 	movi	r22,3
 18041a0:	1029883a 	mov	r20,r2
 18041a4:	182b883a 	mov	r21,r3
 18041a8:	003c8906 	br	18033d0 <_dtoa_r+0x424>
 18041ac:	d9001017 	ldw	r4,64(sp)
 18041b0:	d9800917 	ldw	r6,36(sp)
 18041b4:	0025883a 	mov	r18,zero
 18041b8:	1105c83a 	sub	r2,r2,r4
 18041bc:	2089883a 	add	r4,r4,r2
 18041c0:	308d883a 	add	r6,r6,r2
 18041c4:	d9001015 	stw	r4,64(sp)
 18041c8:	d9800915 	stw	r6,36(sp)
 18041cc:	003e3206 	br	1803a98 <_dtoa_r+0xaec>
 18041d0:	28800044 	addi	r2,r5,1
 18041d4:	27000044 	addi	fp,r4,1
 18041d8:	20800005 	stb	r2,0(r4)
 18041dc:	003e6c06 	br	1803b90 <_dtoa_r+0xbe4>
 18041e0:	d8800f17 	ldw	r2,60(sp)
 18041e4:	00bce016 	blt	zero,r2,1803568 <_dtoa_r+0x5bc>
 18041e8:	d9800f17 	ldw	r6,60(sp)
 18041ec:	303cc51e 	bne	r6,zero,1803504 <_dtoa_r+0x558>
 18041f0:	0005883a 	mov	r2,zero
 18041f4:	00d00534 	movhi	r3,16404
 18041f8:	980b883a 	mov	r5,r19
 18041fc:	180f883a 	mov	r7,r3
 1804200:	9009883a 	mov	r4,r18
 1804204:	100d883a 	mov	r6,r2
 1804208:	1808f340 	call	1808f34 <__muldf3>
 180420c:	180b883a 	mov	r5,r3
 1804210:	a80f883a 	mov	r7,r21
 1804214:	1009883a 	mov	r4,r2
 1804218:	a00d883a 	mov	r6,r20
 180421c:	18096e80 	call	18096e8 <__gedf2>
 1804220:	103cb80e 	bge	r2,zero,1803504 <_dtoa_r+0x558>
 1804224:	0027883a 	mov	r19,zero
 1804228:	0025883a 	mov	r18,zero
 180422c:	003fc606 	br	1804148 <_dtoa_r+0x119c>
 1804230:	99400117 	ldw	r5,4(r19)
 1804234:	d9001617 	ldw	r4,88(sp)
 1804238:	18066c00 	call	18066c0 <_Balloc>
 180423c:	99800417 	ldw	r6,16(r19)
 1804240:	11000304 	addi	r4,r2,12
 1804244:	99400304 	addi	r5,r19,12
 1804248:	318d883a 	add	r6,r6,r6
 180424c:	318d883a 	add	r6,r6,r6
 1804250:	31800204 	addi	r6,r6,8
 1804254:	1023883a 	mov	r17,r2
 1804258:	1805f280 	call	1805f28 <memcpy>
 180425c:	d9001617 	ldw	r4,88(sp)
 1804260:	880b883a 	mov	r5,r17
 1804264:	01800044 	movi	r6,1
 1804268:	1806a840 	call	1806a84 <__lshift>
 180426c:	100b883a 	mov	r5,r2
 1804270:	003d9c06 	br	18038e4 <_dtoa_r+0x938>
 1804274:	00800e44 	movi	r2,57
 1804278:	b8807026 	beq	r23,r2,180443c <_dtoa_r+0x1490>
 180427c:	b8800044 	addi	r2,r23,1
 1804280:	b7000044 	addi	fp,r22,1
 1804284:	b0800005 	stb	r2,0(r22)
 1804288:	003e4106 	br	1803b90 <_dtoa_r+0xbe4>
 180428c:	d8800317 	ldw	r2,12(sp)
 1804290:	01806074 	movhi	r6,385
 1804294:	3183fd04 	addi	r6,r6,4084
 1804298:	b009883a 	mov	r4,r22
 180429c:	100e90fa 	slli	r7,r2,3
 18042a0:	b80b883a 	mov	r5,r23
 18042a4:	398f883a 	add	r7,r7,r6
 18042a8:	38bffe17 	ldw	r2,-8(r7)
 18042ac:	d9800517 	ldw	r6,20(sp)
 18042b0:	38ffff17 	ldw	r3,-4(r7)
 18042b4:	37000044 	addi	fp,r6,1
 18042b8:	180f883a 	mov	r7,r3
 18042bc:	100d883a 	mov	r6,r2
 18042c0:	1808f340 	call	1808f34 <__muldf3>
 18042c4:	a80b883a 	mov	r5,r21
 18042c8:	a009883a 	mov	r4,r20
 18042cc:	182f883a 	mov	r23,r3
 18042d0:	102d883a 	mov	r22,r2
 18042d4:	18098f00 	call	18098f0 <__fixdfsi>
 18042d8:	1009883a 	mov	r4,r2
 18042dc:	1027883a 	mov	r19,r2
 18042e0:	18097f80 	call	18097f8 <__floatsidf>
 18042e4:	a80b883a 	mov	r5,r21
 18042e8:	a009883a 	mov	r4,r20
 18042ec:	180f883a 	mov	r7,r3
 18042f0:	100d883a 	mov	r6,r2
 18042f4:	1808e400 	call	1808e40 <__subdf3>
 18042f8:	180b883a 	mov	r5,r3
 18042fc:	d8c00517 	ldw	r3,20(sp)
 1804300:	9cc00c04 	addi	r19,r19,48
 1804304:	1009883a 	mov	r4,r2
 1804308:	1cc00005 	stb	r19,0(r3)
 180430c:	2021883a 	mov	r16,r4
 1804310:	d9000317 	ldw	r4,12(sp)
 1804314:	00800044 	movi	r2,1
 1804318:	2823883a 	mov	r17,r5
 180431c:	20802226 	beq	r4,r2,18043a8 <_dtoa_r+0x13fc>
 1804320:	1029883a 	mov	r20,r2
 1804324:	0005883a 	mov	r2,zero
 1804328:	00d00934 	movhi	r3,16420
 180432c:	180f883a 	mov	r7,r3
 1804330:	100d883a 	mov	r6,r2
 1804334:	880b883a 	mov	r5,r17
 1804338:	8009883a 	mov	r4,r16
 180433c:	1808f340 	call	1808f34 <__muldf3>
 1804340:	180b883a 	mov	r5,r3
 1804344:	1009883a 	mov	r4,r2
 1804348:	1823883a 	mov	r17,r3
 180434c:	1021883a 	mov	r16,r2
 1804350:	18098f00 	call	18098f0 <__fixdfsi>
 1804354:	1009883a 	mov	r4,r2
 1804358:	102b883a 	mov	r21,r2
 180435c:	18097f80 	call	18097f8 <__floatsidf>
 1804360:	880b883a 	mov	r5,r17
 1804364:	8009883a 	mov	r4,r16
 1804368:	180f883a 	mov	r7,r3
 180436c:	100d883a 	mov	r6,r2
 1804370:	1808e400 	call	1808e40 <__subdf3>
 1804374:	180b883a 	mov	r5,r3
 1804378:	d8c00517 	ldw	r3,20(sp)
 180437c:	1009883a 	mov	r4,r2
 1804380:	ad400c04 	addi	r21,r21,48
 1804384:	1d05883a 	add	r2,r3,r20
 1804388:	15400005 	stb	r21,0(r2)
 180438c:	2021883a 	mov	r16,r4
 1804390:	d9000317 	ldw	r4,12(sp)
 1804394:	a5000044 	addi	r20,r20,1
 1804398:	2823883a 	mov	r17,r5
 180439c:	a13fe11e 	bne	r20,r4,1804324 <_dtoa_r+0x1378>
 18043a0:	e505883a 	add	r2,fp,r20
 18043a4:	173fffc4 	addi	fp,r2,-1
 18043a8:	0025883a 	mov	r18,zero
 18043ac:	04cff834 	movhi	r19,16352
 18043b0:	b009883a 	mov	r4,r22
 18043b4:	b80b883a 	mov	r5,r23
 18043b8:	900d883a 	mov	r6,r18
 18043bc:	980f883a 	mov	r7,r19
 18043c0:	1808ec00 	call	1808ec0 <__adddf3>
 18043c4:	180b883a 	mov	r5,r3
 18043c8:	1009883a 	mov	r4,r2
 18043cc:	800d883a 	mov	r6,r16
 18043d0:	880f883a 	mov	r7,r17
 18043d4:	18097700 	call	1809770 <__ltdf2>
 18043d8:	103cab16 	blt	r2,zero,1803688 <_dtoa_r+0x6dc>
 18043dc:	0009883a 	mov	r4,zero
 18043e0:	980b883a 	mov	r5,r19
 18043e4:	b80f883a 	mov	r7,r23
 18043e8:	b00d883a 	mov	r6,r22
 18043ec:	1808e400 	call	1808e40 <__subdf3>
 18043f0:	180b883a 	mov	r5,r3
 18043f4:	880f883a 	mov	r7,r17
 18043f8:	1009883a 	mov	r4,r2
 18043fc:	800d883a 	mov	r6,r16
 1804400:	18096600 	call	1809660 <__gtdf2>
 1804404:	00bc470e 	bge	zero,r2,1803524 <_dtoa_r+0x578>
 1804408:	00c00c04 	movi	r3,48
 180440c:	e73fffc4 	addi	fp,fp,-1
 1804410:	e0800007 	ldb	r2,0(fp)
 1804414:	10fffd26 	beq	r2,r3,180440c <_dtoa_r+0x1460>
 1804418:	d9800417 	ldw	r6,16(sp)
 180441c:	e7000044 	addi	fp,fp,1
 1804420:	d9800d15 	stw	r6,52(sp)
 1804424:	003cab06 	br	18036d4 <_dtoa_r+0x728>
 1804428:	d8c00f17 	ldw	r3,60(sp)
 180442c:	d9001117 	ldw	r4,68(sp)
 1804430:	20e1c83a 	sub	r16,r4,r3
 1804434:	0007883a 	mov	r3,zero
 1804438:	003d9b06 	br	1803aa8 <_dtoa_r+0xafc>
 180443c:	00800e44 	movi	r2,57
 1804440:	b0800005 	stb	r2,0(r22)
 1804444:	b5800044 	addi	r22,r22,1
 1804448:	003dc106 	br	1803b50 <_dtoa_r+0xba4>
 180444c:	05800084 	movi	r22,2
 1804450:	003bf706 	br	1803430 <_dtoa_r+0x484>
 1804454:	d9000f17 	ldw	r4,60(sp)
 1804458:	013c000e 	bge	zero,r4,180345c <_dtoa_r+0x4b0>
 180445c:	d9800e17 	ldw	r6,56(sp)
 1804460:	01bc300e 	bge	zero,r6,1803524 <_dtoa_r+0x578>
 1804464:	0005883a 	mov	r2,zero
 1804468:	00d00934 	movhi	r3,16420
 180446c:	a80b883a 	mov	r5,r21
 1804470:	180f883a 	mov	r7,r3
 1804474:	a009883a 	mov	r4,r20
 1804478:	100d883a 	mov	r6,r2
 180447c:	1808f340 	call	1808f34 <__muldf3>
 1804480:	b1000044 	addi	r4,r22,1
 1804484:	1021883a 	mov	r16,r2
 1804488:	1823883a 	mov	r17,r3
 180448c:	18097f80 	call	18097f8 <__floatsidf>
 1804490:	880b883a 	mov	r5,r17
 1804494:	8009883a 	mov	r4,r16
 1804498:	180f883a 	mov	r7,r3
 180449c:	100d883a 	mov	r6,r2
 18044a0:	1808f340 	call	1808f34 <__muldf3>
 18044a4:	0011883a 	mov	r8,zero
 18044a8:	02500734 	movhi	r9,16412
 18044ac:	180b883a 	mov	r5,r3
 18044b0:	480f883a 	mov	r7,r9
 18044b4:	1009883a 	mov	r4,r2
 18044b8:	400d883a 	mov	r6,r8
 18044bc:	1808ec00 	call	1808ec0 <__adddf3>
 18044c0:	102d883a 	mov	r22,r2
 18044c4:	00bf3034 	movhi	r2,64704
 18044c8:	10ef883a 	add	r23,r2,r3
 18044cc:	d8800d17 	ldw	r2,52(sp)
 18044d0:	d8c00e17 	ldw	r3,56(sp)
 18044d4:	8029883a 	mov	r20,r16
 18044d8:	10bfffc4 	addi	r2,r2,-1
 18044dc:	882b883a 	mov	r21,r17
 18044e0:	d8800415 	stw	r2,16(sp)
 18044e4:	d8c00315 	stw	r3,12(sp)
 18044e8:	003e8306 	br	1803ef8 <_dtoa_r+0xf4c>
 18044ec:	d8800117 	ldw	r2,4(sp)
 18044f0:	dc001117 	ldw	r16,68(sp)
 18044f4:	dc801017 	ldw	r18,64(sp)
 18044f8:	00c00d84 	movi	r3,54
 18044fc:	1887c83a 	sub	r3,r3,r2
 1804500:	003d6906 	br	1803aa8 <_dtoa_r+0xafc>
 1804504:	01800044 	movi	r6,1
 1804508:	3021883a 	mov	r16,r6
 180450c:	d9800f15 	stw	r6,60(sp)
 1804510:	d9802615 	stw	r6,152(sp)
 1804514:	d9800e15 	stw	r6,56(sp)
 1804518:	003b9306 	br	1803368 <_dtoa_r+0x3bc>
 180451c:	b021883a 	mov	r16,r22
 1804520:	dd800f15 	stw	r22,60(sp)
 1804524:	003b9006 	br	1803368 <_dtoa_r+0x3bc>
 1804528:	103e221e 	bne	r2,zero,1803db4 <_dtoa_r+0xe08>
 180452c:	b880004c 	andi	r2,r23,1
 1804530:	1005003a 	cmpeq	r2,r2,zero
 1804534:	103e1f1e 	bne	r2,zero,1803db4 <_dtoa_r+0xe08>
 1804538:	003e1b06 	br	1803da8 <_dtoa_r+0xdfc>
 180453c:	d9001617 	ldw	r4,88(sp)
 1804540:	980b883a 	mov	r5,r19
 1804544:	01800284 	movi	r6,10
 1804548:	000f883a 	mov	r7,zero
 180454c:	1806df40 	call	1806df4 <__multadd>
 1804550:	d8c00e17 	ldw	r3,56(sp)
 1804554:	1027883a 	mov	r19,r2
 1804558:	d8c00f15 	stw	r3,60(sp)
 180455c:	003cd306 	br	18038ac <_dtoa_r+0x900>

01804560 <_fflush_r>:
 1804560:	defffb04 	addi	sp,sp,-20
 1804564:	dcc00315 	stw	r19,12(sp)
 1804568:	dc800215 	stw	r18,8(sp)
 180456c:	dfc00415 	stw	ra,16(sp)
 1804570:	dc400115 	stw	r17,4(sp)
 1804574:	dc000015 	stw	r16,0(sp)
 1804578:	2027883a 	mov	r19,r4
 180457c:	2825883a 	mov	r18,r5
 1804580:	20000226 	beq	r4,zero,180458c <_fflush_r+0x2c>
 1804584:	20800e17 	ldw	r2,56(r4)
 1804588:	10005626 	beq	r2,zero,18046e4 <_fflush_r+0x184>
 180458c:	9100030b 	ldhu	r4,12(r18)
 1804590:	20ffffcc 	andi	r3,r4,65535
 1804594:	18e0001c 	xori	r3,r3,32768
 1804598:	18e00004 	addi	r3,r3,-32768
 180459c:	1880020c 	andi	r2,r3,8
 18045a0:	1000261e 	bne	r2,zero,180463c <_fflush_r+0xdc>
 18045a4:	90c00117 	ldw	r3,4(r18)
 18045a8:	20820014 	ori	r2,r4,2048
 18045ac:	9080030d 	sth	r2,12(r18)
 18045b0:	1009883a 	mov	r4,r2
 18045b4:	00c0400e 	bge	zero,r3,18046b8 <_fflush_r+0x158>
 18045b8:	92000a17 	ldw	r8,40(r18)
 18045bc:	40004026 	beq	r8,zero,18046c0 <_fflush_r+0x160>
 18045c0:	2084000c 	andi	r2,r4,4096
 18045c4:	10005326 	beq	r2,zero,1804714 <_fflush_r+0x1b4>
 18045c8:	94001417 	ldw	r16,80(r18)
 18045cc:	9080030b 	ldhu	r2,12(r18)
 18045d0:	1080010c 	andi	r2,r2,4
 18045d4:	1000481e 	bne	r2,zero,18046f8 <_fflush_r+0x198>
 18045d8:	91400717 	ldw	r5,28(r18)
 18045dc:	9809883a 	mov	r4,r19
 18045e0:	800d883a 	mov	r6,r16
 18045e4:	000f883a 	mov	r7,zero
 18045e8:	403ee83a 	callr	r8
 18045ec:	8080261e 	bne	r16,r2,1804688 <_fflush_r+0x128>
 18045f0:	9080030b 	ldhu	r2,12(r18)
 18045f4:	91000417 	ldw	r4,16(r18)
 18045f8:	90000115 	stw	zero,4(r18)
 18045fc:	10bdffcc 	andi	r2,r2,63487
 1804600:	10ffffcc 	andi	r3,r2,65535
 1804604:	18c4000c 	andi	r3,r3,4096
 1804608:	9080030d 	sth	r2,12(r18)
 180460c:	91000015 	stw	r4,0(r18)
 1804610:	18002b26 	beq	r3,zero,18046c0 <_fflush_r+0x160>
 1804614:	0007883a 	mov	r3,zero
 1804618:	1805883a 	mov	r2,r3
 180461c:	94001415 	stw	r16,80(r18)
 1804620:	dfc00417 	ldw	ra,16(sp)
 1804624:	dcc00317 	ldw	r19,12(sp)
 1804628:	dc800217 	ldw	r18,8(sp)
 180462c:	dc400117 	ldw	r17,4(sp)
 1804630:	dc000017 	ldw	r16,0(sp)
 1804634:	dec00504 	addi	sp,sp,20
 1804638:	f800283a 	ret
 180463c:	94400417 	ldw	r17,16(r18)
 1804640:	88001f26 	beq	r17,zero,18046c0 <_fflush_r+0x160>
 1804644:	90800017 	ldw	r2,0(r18)
 1804648:	18c000cc 	andi	r3,r3,3
 180464c:	94400015 	stw	r17,0(r18)
 1804650:	1461c83a 	sub	r16,r2,r17
 1804654:	18002526 	beq	r3,zero,18046ec <_fflush_r+0x18c>
 1804658:	0005883a 	mov	r2,zero
 180465c:	90800215 	stw	r2,8(r18)
 1804660:	0400170e 	bge	zero,r16,18046c0 <_fflush_r+0x160>
 1804664:	90c00917 	ldw	r3,36(r18)
 1804668:	91400717 	ldw	r5,28(r18)
 180466c:	880d883a 	mov	r6,r17
 1804670:	800f883a 	mov	r7,r16
 1804674:	9809883a 	mov	r4,r19
 1804678:	183ee83a 	callr	r3
 180467c:	88a3883a 	add	r17,r17,r2
 1804680:	80a1c83a 	sub	r16,r16,r2
 1804684:	00bff616 	blt	zero,r2,1804660 <_fflush_r+0x100>
 1804688:	9080030b 	ldhu	r2,12(r18)
 180468c:	00ffffc4 	movi	r3,-1
 1804690:	10801014 	ori	r2,r2,64
 1804694:	9080030d 	sth	r2,12(r18)
 1804698:	1805883a 	mov	r2,r3
 180469c:	dfc00417 	ldw	ra,16(sp)
 18046a0:	dcc00317 	ldw	r19,12(sp)
 18046a4:	dc800217 	ldw	r18,8(sp)
 18046a8:	dc400117 	ldw	r17,4(sp)
 18046ac:	dc000017 	ldw	r16,0(sp)
 18046b0:	dec00504 	addi	sp,sp,20
 18046b4:	f800283a 	ret
 18046b8:	90800f17 	ldw	r2,60(r18)
 18046bc:	00bfbe16 	blt	zero,r2,18045b8 <_fflush_r+0x58>
 18046c0:	0007883a 	mov	r3,zero
 18046c4:	1805883a 	mov	r2,r3
 18046c8:	dfc00417 	ldw	ra,16(sp)
 18046cc:	dcc00317 	ldw	r19,12(sp)
 18046d0:	dc800217 	ldw	r18,8(sp)
 18046d4:	dc400117 	ldw	r17,4(sp)
 18046d8:	dc000017 	ldw	r16,0(sp)
 18046dc:	dec00504 	addi	sp,sp,20
 18046e0:	f800283a 	ret
 18046e4:	18047f80 	call	18047f8 <__sinit>
 18046e8:	003fa806 	br	180458c <_fflush_r+0x2c>
 18046ec:	90800517 	ldw	r2,20(r18)
 18046f0:	90800215 	stw	r2,8(r18)
 18046f4:	003fda06 	br	1804660 <_fflush_r+0x100>
 18046f8:	90800117 	ldw	r2,4(r18)
 18046fc:	90c00c17 	ldw	r3,48(r18)
 1804700:	80a1c83a 	sub	r16,r16,r2
 1804704:	183fb426 	beq	r3,zero,18045d8 <_fflush_r+0x78>
 1804708:	90800f17 	ldw	r2,60(r18)
 180470c:	80a1c83a 	sub	r16,r16,r2
 1804710:	003fb106 	br	18045d8 <_fflush_r+0x78>
 1804714:	91400717 	ldw	r5,28(r18)
 1804718:	9809883a 	mov	r4,r19
 180471c:	000d883a 	mov	r6,zero
 1804720:	01c00044 	movi	r7,1
 1804724:	403ee83a 	callr	r8
 1804728:	1021883a 	mov	r16,r2
 180472c:	00bfffc4 	movi	r2,-1
 1804730:	80800226 	beq	r16,r2,180473c <_fflush_r+0x1dc>
 1804734:	92000a17 	ldw	r8,40(r18)
 1804738:	003fa406 	br	18045cc <_fflush_r+0x6c>
 180473c:	98c00017 	ldw	r3,0(r19)
 1804740:	00800744 	movi	r2,29
 1804744:	18bfde26 	beq	r3,r2,18046c0 <_fflush_r+0x160>
 1804748:	9080030b 	ldhu	r2,12(r18)
 180474c:	8007883a 	mov	r3,r16
 1804750:	10801014 	ori	r2,r2,64
 1804754:	9080030d 	sth	r2,12(r18)
 1804758:	003fcf06 	br	1804698 <_fflush_r+0x138>

0180475c <fflush>:
 180475c:	01406034 	movhi	r5,384
 1804760:	29515804 	addi	r5,r5,17760
 1804764:	2007883a 	mov	r3,r4
 1804768:	20000526 	beq	r4,zero,1804780 <fflush+0x24>
 180476c:	00806074 	movhi	r2,385
 1804770:	108c3704 	addi	r2,r2,12508
 1804774:	11000017 	ldw	r4,0(r2)
 1804778:	180b883a 	mov	r5,r3
 180477c:	18045601 	jmpi	1804560 <_fflush_r>
 1804780:	00806074 	movhi	r2,385
 1804784:	108c3804 	addi	r2,r2,12512
 1804788:	11000017 	ldw	r4,0(r2)
 180478c:	180532c1 	jmpi	180532c <_fwalk_reent>

01804790 <std>:
 1804790:	00806034 	movhi	r2,384
 1804794:	109e0204 	addi	r2,r2,30728
 1804798:	20800b15 	stw	r2,44(r4)
 180479c:	00806034 	movhi	r2,384
 18047a0:	109e3d04 	addi	r2,r2,30964
 18047a4:	20800815 	stw	r2,32(r4)
 18047a8:	00c06034 	movhi	r3,384
 18047ac:	18de1e04 	addi	r3,r3,30840
 18047b0:	00806034 	movhi	r2,384
 18047b4:	109e0404 	addi	r2,r2,30736
 18047b8:	2140030d 	sth	r5,12(r4)
 18047bc:	2180038d 	sth	r6,14(r4)
 18047c0:	20c00915 	stw	r3,36(r4)
 18047c4:	20800a15 	stw	r2,40(r4)
 18047c8:	20000015 	stw	zero,0(r4)
 18047cc:	20000115 	stw	zero,4(r4)
 18047d0:	20000215 	stw	zero,8(r4)
 18047d4:	20000415 	stw	zero,16(r4)
 18047d8:	20000515 	stw	zero,20(r4)
 18047dc:	20000615 	stw	zero,24(r4)
 18047e0:	21000715 	stw	r4,28(r4)
 18047e4:	f800283a 	ret

018047e8 <__sfp_lock_acquire>:
 18047e8:	f800283a 	ret

018047ec <__sfp_lock_release>:
 18047ec:	f800283a 	ret

018047f0 <__sinit_lock_acquire>:
 18047f0:	f800283a 	ret

018047f4 <__sinit_lock_release>:
 18047f4:	f800283a 	ret

018047f8 <__sinit>:
 18047f8:	20800e17 	ldw	r2,56(r4)
 18047fc:	defffd04 	addi	sp,sp,-12
 1804800:	dc400115 	stw	r17,4(sp)
 1804804:	dc000015 	stw	r16,0(sp)
 1804808:	dfc00215 	stw	ra,8(sp)
 180480c:	04400044 	movi	r17,1
 1804810:	01400104 	movi	r5,4
 1804814:	000d883a 	mov	r6,zero
 1804818:	2021883a 	mov	r16,r4
 180481c:	2200bb04 	addi	r8,r4,748
 1804820:	200f883a 	mov	r7,r4
 1804824:	10000526 	beq	r2,zero,180483c <__sinit+0x44>
 1804828:	dfc00217 	ldw	ra,8(sp)
 180482c:	dc400117 	ldw	r17,4(sp)
 1804830:	dc000017 	ldw	r16,0(sp)
 1804834:	dec00304 	addi	sp,sp,12
 1804838:	f800283a 	ret
 180483c:	21000117 	ldw	r4,4(r4)
 1804840:	00806034 	movhi	r2,384
 1804844:	10923704 	addi	r2,r2,18652
 1804848:	00c000c4 	movi	r3,3
 180484c:	80800f15 	stw	r2,60(r16)
 1804850:	80c0b915 	stw	r3,740(r16)
 1804854:	8200ba15 	stw	r8,744(r16)
 1804858:	84400e15 	stw	r17,56(r16)
 180485c:	8000b815 	stw	zero,736(r16)
 1804860:	18047900 	call	1804790 <std>
 1804864:	81000217 	ldw	r4,8(r16)
 1804868:	880d883a 	mov	r6,r17
 180486c:	800f883a 	mov	r7,r16
 1804870:	01400284 	movi	r5,10
 1804874:	18047900 	call	1804790 <std>
 1804878:	81000317 	ldw	r4,12(r16)
 180487c:	800f883a 	mov	r7,r16
 1804880:	01400484 	movi	r5,18
 1804884:	01800084 	movi	r6,2
 1804888:	dfc00217 	ldw	ra,8(sp)
 180488c:	dc400117 	ldw	r17,4(sp)
 1804890:	dc000017 	ldw	r16,0(sp)
 1804894:	dec00304 	addi	sp,sp,12
 1804898:	18047901 	jmpi	1804790 <std>

0180489c <__fp_lock>:
 180489c:	0005883a 	mov	r2,zero
 18048a0:	f800283a 	ret

018048a4 <__fp_unlock>:
 18048a4:	0005883a 	mov	r2,zero
 18048a8:	f800283a 	ret

018048ac <__fp_unlock_all>:
 18048ac:	00806074 	movhi	r2,385
 18048b0:	108c3704 	addi	r2,r2,12508
 18048b4:	11000017 	ldw	r4,0(r2)
 18048b8:	01406034 	movhi	r5,384
 18048bc:	29522904 	addi	r5,r5,18596
 18048c0:	18053f41 	jmpi	18053f4 <_fwalk>

018048c4 <__fp_lock_all>:
 18048c4:	00806074 	movhi	r2,385
 18048c8:	108c3704 	addi	r2,r2,12508
 18048cc:	11000017 	ldw	r4,0(r2)
 18048d0:	01406034 	movhi	r5,384
 18048d4:	29522704 	addi	r5,r5,18588
 18048d8:	18053f41 	jmpi	18053f4 <_fwalk>

018048dc <_cleanup_r>:
 18048dc:	01406034 	movhi	r5,384
 18048e0:	295f2f04 	addi	r5,r5,31932
 18048e4:	18053f41 	jmpi	18053f4 <_fwalk>

018048e8 <_cleanup>:
 18048e8:	00806074 	movhi	r2,385
 18048ec:	108c3804 	addi	r2,r2,12512
 18048f0:	11000017 	ldw	r4,0(r2)
 18048f4:	18048dc1 	jmpi	18048dc <_cleanup_r>

018048f8 <__sfmoreglue>:
 18048f8:	defffc04 	addi	sp,sp,-16
 18048fc:	dc400115 	stw	r17,4(sp)
 1804900:	2c401724 	muli	r17,r5,92
 1804904:	dc800215 	stw	r18,8(sp)
 1804908:	2825883a 	mov	r18,r5
 180490c:	89400304 	addi	r5,r17,12
 1804910:	dc000015 	stw	r16,0(sp)
 1804914:	dfc00315 	stw	ra,12(sp)
 1804918:	18057040 	call	1805704 <_malloc_r>
 180491c:	0021883a 	mov	r16,zero
 1804920:	880d883a 	mov	r6,r17
 1804924:	000b883a 	mov	r5,zero
 1804928:	10000626 	beq	r2,zero,1804944 <__sfmoreglue+0x4c>
 180492c:	11000304 	addi	r4,r2,12
 1804930:	14800115 	stw	r18,4(r2)
 1804934:	10000015 	stw	zero,0(r2)
 1804938:	11000215 	stw	r4,8(r2)
 180493c:	1021883a 	mov	r16,r2
 1804940:	18060a80 	call	18060a8 <memset>
 1804944:	8005883a 	mov	r2,r16
 1804948:	dfc00317 	ldw	ra,12(sp)
 180494c:	dc800217 	ldw	r18,8(sp)
 1804950:	dc400117 	ldw	r17,4(sp)
 1804954:	dc000017 	ldw	r16,0(sp)
 1804958:	dec00404 	addi	sp,sp,16
 180495c:	f800283a 	ret

01804960 <__sfp>:
 1804960:	defffd04 	addi	sp,sp,-12
 1804964:	00806074 	movhi	r2,385
 1804968:	108c3804 	addi	r2,r2,12512
 180496c:	dc000015 	stw	r16,0(sp)
 1804970:	14000017 	ldw	r16,0(r2)
 1804974:	dc400115 	stw	r17,4(sp)
 1804978:	dfc00215 	stw	ra,8(sp)
 180497c:	80800e17 	ldw	r2,56(r16)
 1804980:	2023883a 	mov	r17,r4
 1804984:	10002626 	beq	r2,zero,1804a20 <__sfp+0xc0>
 1804988:	8400b804 	addi	r16,r16,736
 180498c:	80800117 	ldw	r2,4(r16)
 1804990:	81000217 	ldw	r4,8(r16)
 1804994:	10ffffc4 	addi	r3,r2,-1
 1804998:	18000916 	blt	r3,zero,18049c0 <__sfp+0x60>
 180499c:	2080030f 	ldh	r2,12(r4)
 18049a0:	10000b26 	beq	r2,zero,18049d0 <__sfp+0x70>
 18049a4:	017fffc4 	movi	r5,-1
 18049a8:	00000206 	br	18049b4 <__sfp+0x54>
 18049ac:	2080030f 	ldh	r2,12(r4)
 18049b0:	10000726 	beq	r2,zero,18049d0 <__sfp+0x70>
 18049b4:	18ffffc4 	addi	r3,r3,-1
 18049b8:	21001704 	addi	r4,r4,92
 18049bc:	197ffb1e 	bne	r3,r5,18049ac <__sfp+0x4c>
 18049c0:	80800017 	ldw	r2,0(r16)
 18049c4:	10001926 	beq	r2,zero,1804a2c <__sfp+0xcc>
 18049c8:	1021883a 	mov	r16,r2
 18049cc:	003fef06 	br	180498c <__sfp+0x2c>
 18049d0:	00bfffc4 	movi	r2,-1
 18049d4:	00c00044 	movi	r3,1
 18049d8:	2080038d 	sth	r2,14(r4)
 18049dc:	20c0030d 	sth	r3,12(r4)
 18049e0:	20000015 	stw	zero,0(r4)
 18049e4:	20000215 	stw	zero,8(r4)
 18049e8:	20000115 	stw	zero,4(r4)
 18049ec:	20000415 	stw	zero,16(r4)
 18049f0:	20000515 	stw	zero,20(r4)
 18049f4:	20000615 	stw	zero,24(r4)
 18049f8:	20000c15 	stw	zero,48(r4)
 18049fc:	20000d15 	stw	zero,52(r4)
 1804a00:	20001115 	stw	zero,68(r4)
 1804a04:	20001215 	stw	zero,72(r4)
 1804a08:	2005883a 	mov	r2,r4
 1804a0c:	dfc00217 	ldw	ra,8(sp)
 1804a10:	dc400117 	ldw	r17,4(sp)
 1804a14:	dc000017 	ldw	r16,0(sp)
 1804a18:	dec00304 	addi	sp,sp,12
 1804a1c:	f800283a 	ret
 1804a20:	8009883a 	mov	r4,r16
 1804a24:	18047f80 	call	18047f8 <__sinit>
 1804a28:	003fd706 	br	1804988 <__sfp+0x28>
 1804a2c:	8809883a 	mov	r4,r17
 1804a30:	01400104 	movi	r5,4
 1804a34:	18048f80 	call	18048f8 <__sfmoreglue>
 1804a38:	80800015 	stw	r2,0(r16)
 1804a3c:	103fe21e 	bne	r2,zero,18049c8 <__sfp+0x68>
 1804a40:	00800304 	movi	r2,12
 1804a44:	0009883a 	mov	r4,zero
 1804a48:	88800015 	stw	r2,0(r17)
 1804a4c:	003fee06 	br	1804a08 <__sfp+0xa8>

01804a50 <_malloc_trim_r>:
 1804a50:	defffb04 	addi	sp,sp,-20
 1804a54:	dcc00315 	stw	r19,12(sp)
 1804a58:	04c06074 	movhi	r19,385
 1804a5c:	9cc60404 	addi	r19,r19,6160
 1804a60:	dc800215 	stw	r18,8(sp)
 1804a64:	dc400115 	stw	r17,4(sp)
 1804a68:	dc000015 	stw	r16,0(sp)
 1804a6c:	2823883a 	mov	r17,r5
 1804a70:	2025883a 	mov	r18,r4
 1804a74:	dfc00415 	stw	ra,16(sp)
 1804a78:	180a7ec0 	call	180a7ec <__malloc_lock>
 1804a7c:	98800217 	ldw	r2,8(r19)
 1804a80:	9009883a 	mov	r4,r18
 1804a84:	000b883a 	mov	r5,zero
 1804a88:	10c00117 	ldw	r3,4(r2)
 1804a8c:	00bfff04 	movi	r2,-4
 1804a90:	18a0703a 	and	r16,r3,r2
 1804a94:	8463c83a 	sub	r17,r16,r17
 1804a98:	8c43fbc4 	addi	r17,r17,4079
 1804a9c:	8822d33a 	srli	r17,r17,12
 1804aa0:	0083ffc4 	movi	r2,4095
 1804aa4:	8c7fffc4 	addi	r17,r17,-1
 1804aa8:	8822933a 	slli	r17,r17,12
 1804aac:	1440060e 	bge	r2,r17,1804ac8 <_malloc_trim_r+0x78>
 1804ab0:	18077980 	call	1807798 <_sbrk_r>
 1804ab4:	98c00217 	ldw	r3,8(r19)
 1804ab8:	9009883a 	mov	r4,r18
 1804abc:	044bc83a 	sub	r5,zero,r17
 1804ac0:	80c7883a 	add	r3,r16,r3
 1804ac4:	10c00926 	beq	r2,r3,1804aec <_malloc_trim_r+0x9c>
 1804ac8:	180a80c0 	call	180a80c <__malloc_unlock>
 1804acc:	0005883a 	mov	r2,zero
 1804ad0:	dfc00417 	ldw	ra,16(sp)
 1804ad4:	dcc00317 	ldw	r19,12(sp)
 1804ad8:	dc800217 	ldw	r18,8(sp)
 1804adc:	dc400117 	ldw	r17,4(sp)
 1804ae0:	dc000017 	ldw	r16,0(sp)
 1804ae4:	dec00504 	addi	sp,sp,20
 1804ae8:	f800283a 	ret
 1804aec:	9009883a 	mov	r4,r18
 1804af0:	18077980 	call	1807798 <_sbrk_r>
 1804af4:	844dc83a 	sub	r6,r16,r17
 1804af8:	00ffffc4 	movi	r3,-1
 1804afc:	9009883a 	mov	r4,r18
 1804b00:	000b883a 	mov	r5,zero
 1804b04:	01c06074 	movhi	r7,385
 1804b08:	39cc5904 	addi	r7,r7,12644
 1804b0c:	31800054 	ori	r6,r6,1
 1804b10:	10c00926 	beq	r2,r3,1804b38 <_malloc_trim_r+0xe8>
 1804b14:	38800017 	ldw	r2,0(r7)
 1804b18:	98c00217 	ldw	r3,8(r19)
 1804b1c:	9009883a 	mov	r4,r18
 1804b20:	1445c83a 	sub	r2,r2,r17
 1804b24:	38800015 	stw	r2,0(r7)
 1804b28:	19800115 	stw	r6,4(r3)
 1804b2c:	180a80c0 	call	180a80c <__malloc_unlock>
 1804b30:	00800044 	movi	r2,1
 1804b34:	003fe606 	br	1804ad0 <_malloc_trim_r+0x80>
 1804b38:	18077980 	call	1807798 <_sbrk_r>
 1804b3c:	99800217 	ldw	r6,8(r19)
 1804b40:	100f883a 	mov	r7,r2
 1804b44:	9009883a 	mov	r4,r18
 1804b48:	1187c83a 	sub	r3,r2,r6
 1804b4c:	008003c4 	movi	r2,15
 1804b50:	19400054 	ori	r5,r3,1
 1804b54:	10ffdc0e 	bge	r2,r3,1804ac8 <_malloc_trim_r+0x78>
 1804b58:	00806074 	movhi	r2,385
 1804b5c:	108c3c04 	addi	r2,r2,12528
 1804b60:	10c00017 	ldw	r3,0(r2)
 1804b64:	00806074 	movhi	r2,385
 1804b68:	108c5904 	addi	r2,r2,12644
 1804b6c:	31400115 	stw	r5,4(r6)
 1804b70:	38c7c83a 	sub	r3,r7,r3
 1804b74:	10c00015 	stw	r3,0(r2)
 1804b78:	003fd306 	br	1804ac8 <_malloc_trim_r+0x78>

01804b7c <_free_r>:
 1804b7c:	defffd04 	addi	sp,sp,-12
 1804b80:	dc400115 	stw	r17,4(sp)
 1804b84:	dc000015 	stw	r16,0(sp)
 1804b88:	dfc00215 	stw	ra,8(sp)
 1804b8c:	2821883a 	mov	r16,r5
 1804b90:	2023883a 	mov	r17,r4
 1804b94:	28005a26 	beq	r5,zero,1804d00 <_free_r+0x184>
 1804b98:	180a7ec0 	call	180a7ec <__malloc_lock>
 1804b9c:	823ffe04 	addi	r8,r16,-8
 1804ba0:	41400117 	ldw	r5,4(r8)
 1804ba4:	00bfff84 	movi	r2,-2
 1804ba8:	02806074 	movhi	r10,385
 1804bac:	52860404 	addi	r10,r10,6160
 1804bb0:	288e703a 	and	r7,r5,r2
 1804bb4:	41cd883a 	add	r6,r8,r7
 1804bb8:	30c00117 	ldw	r3,4(r6)
 1804bbc:	51000217 	ldw	r4,8(r10)
 1804bc0:	00bfff04 	movi	r2,-4
 1804bc4:	1892703a 	and	r9,r3,r2
 1804bc8:	5017883a 	mov	r11,r10
 1804bcc:	31006726 	beq	r6,r4,1804d6c <_free_r+0x1f0>
 1804bd0:	2880004c 	andi	r2,r5,1
 1804bd4:	1005003a 	cmpeq	r2,r2,zero
 1804bd8:	32400115 	stw	r9,4(r6)
 1804bdc:	10001a1e 	bne	r2,zero,1804c48 <_free_r+0xcc>
 1804be0:	000b883a 	mov	r5,zero
 1804be4:	3247883a 	add	r3,r6,r9
 1804be8:	18800117 	ldw	r2,4(r3)
 1804bec:	1080004c 	andi	r2,r2,1
 1804bf0:	1000231e 	bne	r2,zero,1804c80 <_free_r+0x104>
 1804bf4:	280ac03a 	cmpne	r5,r5,zero
 1804bf8:	3a4f883a 	add	r7,r7,r9
 1804bfc:	2800451e 	bne	r5,zero,1804d14 <_free_r+0x198>
 1804c00:	31000217 	ldw	r4,8(r6)
 1804c04:	00806074 	movhi	r2,385
 1804c08:	10860604 	addi	r2,r2,6168
 1804c0c:	20807b26 	beq	r4,r2,1804dfc <_free_r+0x280>
 1804c10:	30800317 	ldw	r2,12(r6)
 1804c14:	3a07883a 	add	r3,r7,r8
 1804c18:	19c00015 	stw	r7,0(r3)
 1804c1c:	11000215 	stw	r4,8(r2)
 1804c20:	20800315 	stw	r2,12(r4)
 1804c24:	38800054 	ori	r2,r7,1
 1804c28:	40800115 	stw	r2,4(r8)
 1804c2c:	28001a26 	beq	r5,zero,1804c98 <_free_r+0x11c>
 1804c30:	8809883a 	mov	r4,r17
 1804c34:	dfc00217 	ldw	ra,8(sp)
 1804c38:	dc400117 	ldw	r17,4(sp)
 1804c3c:	dc000017 	ldw	r16,0(sp)
 1804c40:	dec00304 	addi	sp,sp,12
 1804c44:	180a80c1 	jmpi	180a80c <__malloc_unlock>
 1804c48:	80bffe17 	ldw	r2,-8(r16)
 1804c4c:	50c00204 	addi	r3,r10,8
 1804c50:	4091c83a 	sub	r8,r8,r2
 1804c54:	41000217 	ldw	r4,8(r8)
 1804c58:	388f883a 	add	r7,r7,r2
 1804c5c:	20c06126 	beq	r4,r3,1804de4 <_free_r+0x268>
 1804c60:	40800317 	ldw	r2,12(r8)
 1804c64:	3247883a 	add	r3,r6,r9
 1804c68:	000b883a 	mov	r5,zero
 1804c6c:	11000215 	stw	r4,8(r2)
 1804c70:	20800315 	stw	r2,12(r4)
 1804c74:	18800117 	ldw	r2,4(r3)
 1804c78:	1080004c 	andi	r2,r2,1
 1804c7c:	103fdd26 	beq	r2,zero,1804bf4 <_free_r+0x78>
 1804c80:	38800054 	ori	r2,r7,1
 1804c84:	3a07883a 	add	r3,r7,r8
 1804c88:	280ac03a 	cmpne	r5,r5,zero
 1804c8c:	40800115 	stw	r2,4(r8)
 1804c90:	19c00015 	stw	r7,0(r3)
 1804c94:	283fe61e 	bne	r5,zero,1804c30 <_free_r+0xb4>
 1804c98:	00807fc4 	movi	r2,511
 1804c9c:	11c01f2e 	bgeu	r2,r7,1804d1c <_free_r+0x1a0>
 1804ca0:	3806d27a 	srli	r3,r7,9
 1804ca4:	1800481e 	bne	r3,zero,1804dc8 <_free_r+0x24c>
 1804ca8:	3804d0fa 	srli	r2,r7,3
 1804cac:	100690fa 	slli	r3,r2,3
 1804cb0:	1acd883a 	add	r6,r3,r11
 1804cb4:	31400217 	ldw	r5,8(r6)
 1804cb8:	31405926 	beq	r6,r5,1804e20 <_free_r+0x2a4>
 1804cbc:	28800117 	ldw	r2,4(r5)
 1804cc0:	00ffff04 	movi	r3,-4
 1804cc4:	10c4703a 	and	r2,r2,r3
 1804cc8:	3880022e 	bgeu	r7,r2,1804cd4 <_free_r+0x158>
 1804ccc:	29400217 	ldw	r5,8(r5)
 1804cd0:	317ffa1e 	bne	r6,r5,1804cbc <_free_r+0x140>
 1804cd4:	29800317 	ldw	r6,12(r5)
 1804cd8:	41800315 	stw	r6,12(r8)
 1804cdc:	41400215 	stw	r5,8(r8)
 1804ce0:	8809883a 	mov	r4,r17
 1804ce4:	2a000315 	stw	r8,12(r5)
 1804ce8:	32000215 	stw	r8,8(r6)
 1804cec:	dfc00217 	ldw	ra,8(sp)
 1804cf0:	dc400117 	ldw	r17,4(sp)
 1804cf4:	dc000017 	ldw	r16,0(sp)
 1804cf8:	dec00304 	addi	sp,sp,12
 1804cfc:	180a80c1 	jmpi	180a80c <__malloc_unlock>
 1804d00:	dfc00217 	ldw	ra,8(sp)
 1804d04:	dc400117 	ldw	r17,4(sp)
 1804d08:	dc000017 	ldw	r16,0(sp)
 1804d0c:	dec00304 	addi	sp,sp,12
 1804d10:	f800283a 	ret
 1804d14:	31000217 	ldw	r4,8(r6)
 1804d18:	003fbd06 	br	1804c10 <_free_r+0x94>
 1804d1c:	3806d0fa 	srli	r3,r7,3
 1804d20:	00800044 	movi	r2,1
 1804d24:	51400117 	ldw	r5,4(r10)
 1804d28:	180890fa 	slli	r4,r3,3
 1804d2c:	1807d0ba 	srai	r3,r3,2
 1804d30:	22c9883a 	add	r4,r4,r11
 1804d34:	21800217 	ldw	r6,8(r4)
 1804d38:	10c4983a 	sll	r2,r2,r3
 1804d3c:	41000315 	stw	r4,12(r8)
 1804d40:	41800215 	stw	r6,8(r8)
 1804d44:	288ab03a 	or	r5,r5,r2
 1804d48:	22000215 	stw	r8,8(r4)
 1804d4c:	8809883a 	mov	r4,r17
 1804d50:	51400115 	stw	r5,4(r10)
 1804d54:	32000315 	stw	r8,12(r6)
 1804d58:	dfc00217 	ldw	ra,8(sp)
 1804d5c:	dc400117 	ldw	r17,4(sp)
 1804d60:	dc000017 	ldw	r16,0(sp)
 1804d64:	dec00304 	addi	sp,sp,12
 1804d68:	180a80c1 	jmpi	180a80c <__malloc_unlock>
 1804d6c:	2880004c 	andi	r2,r5,1
 1804d70:	3a4d883a 	add	r6,r7,r9
 1804d74:	1000071e 	bne	r2,zero,1804d94 <_free_r+0x218>
 1804d78:	80bffe17 	ldw	r2,-8(r16)
 1804d7c:	4091c83a 	sub	r8,r8,r2
 1804d80:	41000317 	ldw	r4,12(r8)
 1804d84:	40c00217 	ldw	r3,8(r8)
 1804d88:	308d883a 	add	r6,r6,r2
 1804d8c:	20c00215 	stw	r3,8(r4)
 1804d90:	19000315 	stw	r4,12(r3)
 1804d94:	00806074 	movhi	r2,385
 1804d98:	108c3b04 	addi	r2,r2,12524
 1804d9c:	11000017 	ldw	r4,0(r2)
 1804da0:	30c00054 	ori	r3,r6,1
 1804da4:	52000215 	stw	r8,8(r10)
 1804da8:	40c00115 	stw	r3,4(r8)
 1804dac:	313fa036 	bltu	r6,r4,1804c30 <_free_r+0xb4>
 1804db0:	00806074 	movhi	r2,385
 1804db4:	108c4e04 	addi	r2,r2,12600
 1804db8:	11400017 	ldw	r5,0(r2)
 1804dbc:	8809883a 	mov	r4,r17
 1804dc0:	1804a500 	call	1804a50 <_malloc_trim_r>
 1804dc4:	003f9a06 	br	1804c30 <_free_r+0xb4>
 1804dc8:	00800104 	movi	r2,4
 1804dcc:	10c0072e 	bgeu	r2,r3,1804dec <_free_r+0x270>
 1804dd0:	00800504 	movi	r2,20
 1804dd4:	10c01936 	bltu	r2,r3,1804e3c <_free_r+0x2c0>
 1804dd8:	188016c4 	addi	r2,r3,91
 1804ddc:	100690fa 	slli	r3,r2,3
 1804de0:	003fb306 	br	1804cb0 <_free_r+0x134>
 1804de4:	01400044 	movi	r5,1
 1804de8:	003f7e06 	br	1804be4 <_free_r+0x68>
 1804dec:	3804d1ba 	srli	r2,r7,6
 1804df0:	10800e04 	addi	r2,r2,56
 1804df4:	100690fa 	slli	r3,r2,3
 1804df8:	003fad06 	br	1804cb0 <_free_r+0x134>
 1804dfc:	22000315 	stw	r8,12(r4)
 1804e00:	22000215 	stw	r8,8(r4)
 1804e04:	3a05883a 	add	r2,r7,r8
 1804e08:	38c00054 	ori	r3,r7,1
 1804e0c:	11c00015 	stw	r7,0(r2)
 1804e10:	41000215 	stw	r4,8(r8)
 1804e14:	40c00115 	stw	r3,4(r8)
 1804e18:	41000315 	stw	r4,12(r8)
 1804e1c:	003f8406 	br	1804c30 <_free_r+0xb4>
 1804e20:	1005d0ba 	srai	r2,r2,2
 1804e24:	00c00044 	movi	r3,1
 1804e28:	51000117 	ldw	r4,4(r10)
 1804e2c:	1886983a 	sll	r3,r3,r2
 1804e30:	20c8b03a 	or	r4,r4,r3
 1804e34:	51000115 	stw	r4,4(r10)
 1804e38:	003fa706 	br	1804cd8 <_free_r+0x15c>
 1804e3c:	00801504 	movi	r2,84
 1804e40:	10c00436 	bltu	r2,r3,1804e54 <_free_r+0x2d8>
 1804e44:	3804d33a 	srli	r2,r7,12
 1804e48:	10801b84 	addi	r2,r2,110
 1804e4c:	100690fa 	slli	r3,r2,3
 1804e50:	003f9706 	br	1804cb0 <_free_r+0x134>
 1804e54:	00805504 	movi	r2,340
 1804e58:	10c00436 	bltu	r2,r3,1804e6c <_free_r+0x2f0>
 1804e5c:	3804d3fa 	srli	r2,r7,15
 1804e60:	10801dc4 	addi	r2,r2,119
 1804e64:	100690fa 	slli	r3,r2,3
 1804e68:	003f9106 	br	1804cb0 <_free_r+0x134>
 1804e6c:	00815504 	movi	r2,1364
 1804e70:	10c0032e 	bgeu	r2,r3,1804e80 <_free_r+0x304>
 1804e74:	00801f84 	movi	r2,126
 1804e78:	00c0fc04 	movi	r3,1008
 1804e7c:	003f8c06 	br	1804cb0 <_free_r+0x134>
 1804e80:	3804d4ba 	srli	r2,r7,18
 1804e84:	10801f04 	addi	r2,r2,124
 1804e88:	100690fa 	slli	r3,r2,3
 1804e8c:	003f8806 	br	1804cb0 <_free_r+0x134>

01804e90 <__sfvwrite_r>:
 1804e90:	30800217 	ldw	r2,8(r6)
 1804e94:	defff504 	addi	sp,sp,-44
 1804e98:	df000915 	stw	fp,36(sp)
 1804e9c:	dd800715 	stw	r22,28(sp)
 1804ea0:	dc800315 	stw	r18,12(sp)
 1804ea4:	dfc00a15 	stw	ra,40(sp)
 1804ea8:	ddc00815 	stw	r23,32(sp)
 1804eac:	dd400615 	stw	r21,24(sp)
 1804eb0:	dd000515 	stw	r20,20(sp)
 1804eb4:	dcc00415 	stw	r19,16(sp)
 1804eb8:	dc400215 	stw	r17,8(sp)
 1804ebc:	dc000115 	stw	r16,4(sp)
 1804ec0:	302d883a 	mov	r22,r6
 1804ec4:	2039883a 	mov	fp,r4
 1804ec8:	2825883a 	mov	r18,r5
 1804ecc:	10001c26 	beq	r2,zero,1804f40 <__sfvwrite_r+0xb0>
 1804ed0:	29c0030b 	ldhu	r7,12(r5)
 1804ed4:	3880020c 	andi	r2,r7,8
 1804ed8:	10002726 	beq	r2,zero,1804f78 <__sfvwrite_r+0xe8>
 1804edc:	28800417 	ldw	r2,16(r5)
 1804ee0:	10002526 	beq	r2,zero,1804f78 <__sfvwrite_r+0xe8>
 1804ee4:	3880008c 	andi	r2,r7,2
 1804ee8:	b5400017 	ldw	r21,0(r22)
 1804eec:	10002826 	beq	r2,zero,1804f90 <__sfvwrite_r+0x100>
 1804ef0:	0021883a 	mov	r16,zero
 1804ef4:	0023883a 	mov	r17,zero
 1804ef8:	880d883a 	mov	r6,r17
 1804efc:	e009883a 	mov	r4,fp
 1804f00:	00810004 	movi	r2,1024
 1804f04:	80006e26 	beq	r16,zero,18050c0 <__sfvwrite_r+0x230>
 1804f08:	800f883a 	mov	r7,r16
 1804f0c:	91400717 	ldw	r5,28(r18)
 1804f10:	1400012e 	bgeu	r2,r16,1804f18 <__sfvwrite_r+0x88>
 1804f14:	100f883a 	mov	r7,r2
 1804f18:	90c00917 	ldw	r3,36(r18)
 1804f1c:	183ee83a 	callr	r3
 1804f20:	1007883a 	mov	r3,r2
 1804f24:	80a1c83a 	sub	r16,r16,r2
 1804f28:	88a3883a 	add	r17,r17,r2
 1804f2c:	00806d0e 	bge	zero,r2,18050e4 <__sfvwrite_r+0x254>
 1804f30:	b0800217 	ldw	r2,8(r22)
 1804f34:	10c5c83a 	sub	r2,r2,r3
 1804f38:	b0800215 	stw	r2,8(r22)
 1804f3c:	103fee1e 	bne	r2,zero,1804ef8 <__sfvwrite_r+0x68>
 1804f40:	0009883a 	mov	r4,zero
 1804f44:	2005883a 	mov	r2,r4
 1804f48:	dfc00a17 	ldw	ra,40(sp)
 1804f4c:	df000917 	ldw	fp,36(sp)
 1804f50:	ddc00817 	ldw	r23,32(sp)
 1804f54:	dd800717 	ldw	r22,28(sp)
 1804f58:	dd400617 	ldw	r21,24(sp)
 1804f5c:	dd000517 	ldw	r20,20(sp)
 1804f60:	dcc00417 	ldw	r19,16(sp)
 1804f64:	dc800317 	ldw	r18,12(sp)
 1804f68:	dc400217 	ldw	r17,8(sp)
 1804f6c:	dc000117 	ldw	r16,4(sp)
 1804f70:	dec00b04 	addi	sp,sp,44
 1804f74:	f800283a 	ret
 1804f78:	1802c580 	call	1802c58 <__swsetup_r>
 1804f7c:	1000e41e 	bne	r2,zero,1805310 <__sfvwrite_r+0x480>
 1804f80:	91c0030b 	ldhu	r7,12(r18)
 1804f84:	b5400017 	ldw	r21,0(r22)
 1804f88:	3880008c 	andi	r2,r7,2
 1804f8c:	103fd81e 	bne	r2,zero,1804ef0 <__sfvwrite_r+0x60>
 1804f90:	3880004c 	andi	r2,r7,1
 1804f94:	1005003a 	cmpeq	r2,r2,zero
 1804f98:	10005726 	beq	r2,zero,18050f8 <__sfvwrite_r+0x268>
 1804f9c:	0029883a 	mov	r20,zero
 1804fa0:	002f883a 	mov	r23,zero
 1804fa4:	a0004226 	beq	r20,zero,18050b0 <__sfvwrite_r+0x220>
 1804fa8:	3880800c 	andi	r2,r7,512
 1804fac:	94000217 	ldw	r16,8(r18)
 1804fb0:	10008b26 	beq	r2,zero,18051e0 <__sfvwrite_r+0x350>
 1804fb4:	800d883a 	mov	r6,r16
 1804fb8:	a400a536 	bltu	r20,r16,1805250 <__sfvwrite_r+0x3c0>
 1804fbc:	3881200c 	andi	r2,r7,1152
 1804fc0:	10002726 	beq	r2,zero,1805060 <__sfvwrite_r+0x1d0>
 1804fc4:	90800517 	ldw	r2,20(r18)
 1804fc8:	92000417 	ldw	r8,16(r18)
 1804fcc:	91400017 	ldw	r5,0(r18)
 1804fd0:	1087883a 	add	r3,r2,r2
 1804fd4:	1887883a 	add	r3,r3,r2
 1804fd8:	1808d7fa 	srli	r4,r3,31
 1804fdc:	2a21c83a 	sub	r16,r5,r8
 1804fe0:	80800044 	addi	r2,r16,1
 1804fe4:	20c9883a 	add	r4,r4,r3
 1804fe8:	2027d07a 	srai	r19,r4,1
 1804fec:	a085883a 	add	r2,r20,r2
 1804ff0:	980d883a 	mov	r6,r19
 1804ff4:	9880022e 	bgeu	r19,r2,1805000 <__sfvwrite_r+0x170>
 1804ff8:	1027883a 	mov	r19,r2
 1804ffc:	100d883a 	mov	r6,r2
 1805000:	3881000c 	andi	r2,r7,1024
 1805004:	1000b826 	beq	r2,zero,18052e8 <__sfvwrite_r+0x458>
 1805008:	300b883a 	mov	r5,r6
 180500c:	e009883a 	mov	r4,fp
 1805010:	18057040 	call	1805704 <_malloc_r>
 1805014:	10003126 	beq	r2,zero,18050dc <__sfvwrite_r+0x24c>
 1805018:	91400417 	ldw	r5,16(r18)
 180501c:	1009883a 	mov	r4,r2
 1805020:	800d883a 	mov	r6,r16
 1805024:	1023883a 	mov	r17,r2
 1805028:	1805f280 	call	1805f28 <memcpy>
 180502c:	90c0030b 	ldhu	r3,12(r18)
 1805030:	00beffc4 	movi	r2,-1025
 1805034:	1886703a 	and	r3,r3,r2
 1805038:	18c02014 	ori	r3,r3,128
 180503c:	90c0030d 	sth	r3,12(r18)
 1805040:	9c07c83a 	sub	r3,r19,r16
 1805044:	8c05883a 	add	r2,r17,r16
 1805048:	a00d883a 	mov	r6,r20
 180504c:	a021883a 	mov	r16,r20
 1805050:	90800015 	stw	r2,0(r18)
 1805054:	90c00215 	stw	r3,8(r18)
 1805058:	94400415 	stw	r17,16(r18)
 180505c:	94c00515 	stw	r19,20(r18)
 1805060:	91000017 	ldw	r4,0(r18)
 1805064:	b80b883a 	mov	r5,r23
 1805068:	a023883a 	mov	r17,r20
 180506c:	1805fc80 	call	1805fc8 <memmove>
 1805070:	90c00217 	ldw	r3,8(r18)
 1805074:	90800017 	ldw	r2,0(r18)
 1805078:	a027883a 	mov	r19,r20
 180507c:	1c07c83a 	sub	r3,r3,r16
 1805080:	1405883a 	add	r2,r2,r16
 1805084:	90c00215 	stw	r3,8(r18)
 1805088:	a021883a 	mov	r16,r20
 180508c:	90800015 	stw	r2,0(r18)
 1805090:	b0800217 	ldw	r2,8(r22)
 1805094:	1405c83a 	sub	r2,r2,r16
 1805098:	b0800215 	stw	r2,8(r22)
 180509c:	103fa826 	beq	r2,zero,1804f40 <__sfvwrite_r+0xb0>
 18050a0:	a469c83a 	sub	r20,r20,r17
 18050a4:	91c0030b 	ldhu	r7,12(r18)
 18050a8:	bcef883a 	add	r23,r23,r19
 18050ac:	a03fbe1e 	bne	r20,zero,1804fa8 <__sfvwrite_r+0x118>
 18050b0:	adc00017 	ldw	r23,0(r21)
 18050b4:	ad000117 	ldw	r20,4(r21)
 18050b8:	ad400204 	addi	r21,r21,8
 18050bc:	003fb906 	br	1804fa4 <__sfvwrite_r+0x114>
 18050c0:	ac400017 	ldw	r17,0(r21)
 18050c4:	ac000117 	ldw	r16,4(r21)
 18050c8:	ad400204 	addi	r21,r21,8
 18050cc:	003f8a06 	br	1804ef8 <__sfvwrite_r+0x68>
 18050d0:	91400417 	ldw	r5,16(r18)
 18050d4:	e009883a 	mov	r4,fp
 18050d8:	1804b7c0 	call	1804b7c <_free_r>
 18050dc:	00800304 	movi	r2,12
 18050e0:	e0800015 	stw	r2,0(fp)
 18050e4:	9080030b 	ldhu	r2,12(r18)
 18050e8:	013fffc4 	movi	r4,-1
 18050ec:	10801014 	ori	r2,r2,64
 18050f0:	9080030d 	sth	r2,12(r18)
 18050f4:	003f9306 	br	1804f44 <__sfvwrite_r+0xb4>
 18050f8:	0027883a 	mov	r19,zero
 18050fc:	002f883a 	mov	r23,zero
 1805100:	d8000015 	stw	zero,0(sp)
 1805104:	0029883a 	mov	r20,zero
 1805108:	98001e26 	beq	r19,zero,1805184 <__sfvwrite_r+0x2f4>
 180510c:	d8c00017 	ldw	r3,0(sp)
 1805110:	1804c03a 	cmpne	r2,r3,zero
 1805114:	10005e26 	beq	r2,zero,1805290 <__sfvwrite_r+0x400>
 1805118:	9821883a 	mov	r16,r19
 180511c:	a4c0012e 	bgeu	r20,r19,1805124 <__sfvwrite_r+0x294>
 1805120:	a021883a 	mov	r16,r20
 1805124:	91000017 	ldw	r4,0(r18)
 1805128:	90800417 	ldw	r2,16(r18)
 180512c:	91800217 	ldw	r6,8(r18)
 1805130:	91c00517 	ldw	r7,20(r18)
 1805134:	1100022e 	bgeu	r2,r4,1805140 <__sfvwrite_r+0x2b0>
 1805138:	31e3883a 	add	r17,r6,r7
 180513c:	8c001616 	blt	r17,r16,1805198 <__sfvwrite_r+0x308>
 1805140:	81c03816 	blt	r16,r7,1805224 <__sfvwrite_r+0x394>
 1805144:	90c00917 	ldw	r3,36(r18)
 1805148:	91400717 	ldw	r5,28(r18)
 180514c:	e009883a 	mov	r4,fp
 1805150:	b80d883a 	mov	r6,r23
 1805154:	183ee83a 	callr	r3
 1805158:	1023883a 	mov	r17,r2
 180515c:	00bfe10e 	bge	zero,r2,18050e4 <__sfvwrite_r+0x254>
 1805160:	a469c83a 	sub	r20,r20,r17
 1805164:	a0001826 	beq	r20,zero,18051c8 <__sfvwrite_r+0x338>
 1805168:	b0800217 	ldw	r2,8(r22)
 180516c:	1445c83a 	sub	r2,r2,r17
 1805170:	b0800215 	stw	r2,8(r22)
 1805174:	103f7226 	beq	r2,zero,1804f40 <__sfvwrite_r+0xb0>
 1805178:	9c67c83a 	sub	r19,r19,r17
 180517c:	bc6f883a 	add	r23,r23,r17
 1805180:	983fe21e 	bne	r19,zero,180510c <__sfvwrite_r+0x27c>
 1805184:	adc00017 	ldw	r23,0(r21)
 1805188:	acc00117 	ldw	r19,4(r21)
 180518c:	ad400204 	addi	r21,r21,8
 1805190:	d8000015 	stw	zero,0(sp)
 1805194:	003fdc06 	br	1805108 <__sfvwrite_r+0x278>
 1805198:	b80b883a 	mov	r5,r23
 180519c:	880d883a 	mov	r6,r17
 18051a0:	1805fc80 	call	1805fc8 <memmove>
 18051a4:	90c00017 	ldw	r3,0(r18)
 18051a8:	e009883a 	mov	r4,fp
 18051ac:	900b883a 	mov	r5,r18
 18051b0:	1c47883a 	add	r3,r3,r17
 18051b4:	90c00015 	stw	r3,0(r18)
 18051b8:	18045600 	call	1804560 <_fflush_r>
 18051bc:	103fc91e 	bne	r2,zero,18050e4 <__sfvwrite_r+0x254>
 18051c0:	a469c83a 	sub	r20,r20,r17
 18051c4:	a03fe81e 	bne	r20,zero,1805168 <__sfvwrite_r+0x2d8>
 18051c8:	e009883a 	mov	r4,fp
 18051cc:	900b883a 	mov	r5,r18
 18051d0:	18045600 	call	1804560 <_fflush_r>
 18051d4:	103fc31e 	bne	r2,zero,18050e4 <__sfvwrite_r+0x254>
 18051d8:	d8000015 	stw	zero,0(sp)
 18051dc:	003fe206 	br	1805168 <__sfvwrite_r+0x2d8>
 18051e0:	91000017 	ldw	r4,0(r18)
 18051e4:	90800417 	ldw	r2,16(r18)
 18051e8:	1100022e 	bgeu	r2,r4,18051f4 <__sfvwrite_r+0x364>
 18051ec:	8023883a 	mov	r17,r16
 18051f0:	85003136 	bltu	r16,r20,18052b8 <__sfvwrite_r+0x428>
 18051f4:	91c00517 	ldw	r7,20(r18)
 18051f8:	a1c01836 	bltu	r20,r7,180525c <__sfvwrite_r+0x3cc>
 18051fc:	90c00917 	ldw	r3,36(r18)
 1805200:	91400717 	ldw	r5,28(r18)
 1805204:	e009883a 	mov	r4,fp
 1805208:	b80d883a 	mov	r6,r23
 180520c:	183ee83a 	callr	r3
 1805210:	1021883a 	mov	r16,r2
 1805214:	00bfb30e 	bge	zero,r2,18050e4 <__sfvwrite_r+0x254>
 1805218:	1023883a 	mov	r17,r2
 180521c:	1027883a 	mov	r19,r2
 1805220:	003f9b06 	br	1805090 <__sfvwrite_r+0x200>
 1805224:	b80b883a 	mov	r5,r23
 1805228:	800d883a 	mov	r6,r16
 180522c:	1805fc80 	call	1805fc8 <memmove>
 1805230:	90c00217 	ldw	r3,8(r18)
 1805234:	90800017 	ldw	r2,0(r18)
 1805238:	8023883a 	mov	r17,r16
 180523c:	1c07c83a 	sub	r3,r3,r16
 1805240:	1405883a 	add	r2,r2,r16
 1805244:	90c00215 	stw	r3,8(r18)
 1805248:	90800015 	stw	r2,0(r18)
 180524c:	003fc406 	br	1805160 <__sfvwrite_r+0x2d0>
 1805250:	a00d883a 	mov	r6,r20
 1805254:	a021883a 	mov	r16,r20
 1805258:	003f8106 	br	1805060 <__sfvwrite_r+0x1d0>
 180525c:	b80b883a 	mov	r5,r23
 1805260:	a00d883a 	mov	r6,r20
 1805264:	1805fc80 	call	1805fc8 <memmove>
 1805268:	90c00217 	ldw	r3,8(r18)
 180526c:	90800017 	ldw	r2,0(r18)
 1805270:	a021883a 	mov	r16,r20
 1805274:	1d07c83a 	sub	r3,r3,r20
 1805278:	1505883a 	add	r2,r2,r20
 180527c:	a023883a 	mov	r17,r20
 1805280:	a027883a 	mov	r19,r20
 1805284:	90c00215 	stw	r3,8(r18)
 1805288:	90800015 	stw	r2,0(r18)
 180528c:	003f8006 	br	1805090 <__sfvwrite_r+0x200>
 1805290:	b809883a 	mov	r4,r23
 1805294:	01400284 	movi	r5,10
 1805298:	980d883a 	mov	r6,r19
 180529c:	1805e440 	call	1805e44 <memchr>
 18052a0:	10001726 	beq	r2,zero,1805300 <__sfvwrite_r+0x470>
 18052a4:	15c5c83a 	sub	r2,r2,r23
 18052a8:	15000044 	addi	r20,r2,1
 18052ac:	00800044 	movi	r2,1
 18052b0:	d8800015 	stw	r2,0(sp)
 18052b4:	003f9806 	br	1805118 <__sfvwrite_r+0x288>
 18052b8:	b80b883a 	mov	r5,r23
 18052bc:	800d883a 	mov	r6,r16
 18052c0:	1805fc80 	call	1805fc8 <memmove>
 18052c4:	90c00017 	ldw	r3,0(r18)
 18052c8:	e009883a 	mov	r4,fp
 18052cc:	900b883a 	mov	r5,r18
 18052d0:	1c07883a 	add	r3,r3,r16
 18052d4:	90c00015 	stw	r3,0(r18)
 18052d8:	8027883a 	mov	r19,r16
 18052dc:	18045600 	call	1804560 <_fflush_r>
 18052e0:	103f6b26 	beq	r2,zero,1805090 <__sfvwrite_r+0x200>
 18052e4:	003f7f06 	br	18050e4 <__sfvwrite_r+0x254>
 18052e8:	400b883a 	mov	r5,r8
 18052ec:	e009883a 	mov	r4,fp
 18052f0:	18071340 	call	1807134 <_realloc_r>
 18052f4:	103f7626 	beq	r2,zero,18050d0 <__sfvwrite_r+0x240>
 18052f8:	1023883a 	mov	r17,r2
 18052fc:	003f5006 	br	1805040 <__sfvwrite_r+0x1b0>
 1805300:	00c00044 	movi	r3,1
 1805304:	9d000044 	addi	r20,r19,1
 1805308:	d8c00015 	stw	r3,0(sp)
 180530c:	003f8206 	br	1805118 <__sfvwrite_r+0x288>
 1805310:	9080030b 	ldhu	r2,12(r18)
 1805314:	00c00244 	movi	r3,9
 1805318:	013fffc4 	movi	r4,-1
 180531c:	10801014 	ori	r2,r2,64
 1805320:	9080030d 	sth	r2,12(r18)
 1805324:	e0c00015 	stw	r3,0(fp)
 1805328:	003f0606 	br	1804f44 <__sfvwrite_r+0xb4>

0180532c <_fwalk_reent>:
 180532c:	defff704 	addi	sp,sp,-36
 1805330:	dcc00315 	stw	r19,12(sp)
 1805334:	24c0b804 	addi	r19,r4,736
 1805338:	dd800615 	stw	r22,24(sp)
 180533c:	dd400515 	stw	r21,20(sp)
 1805340:	dfc00815 	stw	ra,32(sp)
 1805344:	ddc00715 	stw	r23,28(sp)
 1805348:	dd000415 	stw	r20,16(sp)
 180534c:	dc800215 	stw	r18,8(sp)
 1805350:	dc400115 	stw	r17,4(sp)
 1805354:	dc000015 	stw	r16,0(sp)
 1805358:	202b883a 	mov	r21,r4
 180535c:	282d883a 	mov	r22,r5
 1805360:	18047e80 	call	18047e8 <__sfp_lock_acquire>
 1805364:	98002126 	beq	r19,zero,18053ec <_fwalk_reent+0xc0>
 1805368:	002f883a 	mov	r23,zero
 180536c:	9c800117 	ldw	r18,4(r19)
 1805370:	9c000217 	ldw	r16,8(r19)
 1805374:	90bfffc4 	addi	r2,r18,-1
 1805378:	10000d16 	blt	r2,zero,18053b0 <_fwalk_reent+0x84>
 180537c:	0023883a 	mov	r17,zero
 1805380:	053fffc4 	movi	r20,-1
 1805384:	8080030f 	ldh	r2,12(r16)
 1805388:	8c400044 	addi	r17,r17,1
 180538c:	10000626 	beq	r2,zero,18053a8 <_fwalk_reent+0x7c>
 1805390:	8080038f 	ldh	r2,14(r16)
 1805394:	800b883a 	mov	r5,r16
 1805398:	a809883a 	mov	r4,r21
 180539c:	15000226 	beq	r2,r20,18053a8 <_fwalk_reent+0x7c>
 18053a0:	b03ee83a 	callr	r22
 18053a4:	b8aeb03a 	or	r23,r23,r2
 18053a8:	84001704 	addi	r16,r16,92
 18053ac:	947ff51e 	bne	r18,r17,1805384 <_fwalk_reent+0x58>
 18053b0:	9cc00017 	ldw	r19,0(r19)
 18053b4:	983fed1e 	bne	r19,zero,180536c <_fwalk_reent+0x40>
 18053b8:	18047ec0 	call	18047ec <__sfp_lock_release>
 18053bc:	b805883a 	mov	r2,r23
 18053c0:	dfc00817 	ldw	ra,32(sp)
 18053c4:	ddc00717 	ldw	r23,28(sp)
 18053c8:	dd800617 	ldw	r22,24(sp)
 18053cc:	dd400517 	ldw	r21,20(sp)
 18053d0:	dd000417 	ldw	r20,16(sp)
 18053d4:	dcc00317 	ldw	r19,12(sp)
 18053d8:	dc800217 	ldw	r18,8(sp)
 18053dc:	dc400117 	ldw	r17,4(sp)
 18053e0:	dc000017 	ldw	r16,0(sp)
 18053e4:	dec00904 	addi	sp,sp,36
 18053e8:	f800283a 	ret
 18053ec:	002f883a 	mov	r23,zero
 18053f0:	003ff106 	br	18053b8 <_fwalk_reent+0x8c>

018053f4 <_fwalk>:
 18053f4:	defff804 	addi	sp,sp,-32
 18053f8:	dcc00315 	stw	r19,12(sp)
 18053fc:	24c0b804 	addi	r19,r4,736
 1805400:	dd400515 	stw	r21,20(sp)
 1805404:	dfc00715 	stw	ra,28(sp)
 1805408:	dd800615 	stw	r22,24(sp)
 180540c:	dd000415 	stw	r20,16(sp)
 1805410:	dc800215 	stw	r18,8(sp)
 1805414:	dc400115 	stw	r17,4(sp)
 1805418:	dc000015 	stw	r16,0(sp)
 180541c:	282b883a 	mov	r21,r5
 1805420:	18047e80 	call	18047e8 <__sfp_lock_acquire>
 1805424:	98001f26 	beq	r19,zero,18054a4 <_fwalk+0xb0>
 1805428:	002d883a 	mov	r22,zero
 180542c:	9c800117 	ldw	r18,4(r19)
 1805430:	9c000217 	ldw	r16,8(r19)
 1805434:	90bfffc4 	addi	r2,r18,-1
 1805438:	10000c16 	blt	r2,zero,180546c <_fwalk+0x78>
 180543c:	0023883a 	mov	r17,zero
 1805440:	053fffc4 	movi	r20,-1
 1805444:	8080030f 	ldh	r2,12(r16)
 1805448:	8c400044 	addi	r17,r17,1
 180544c:	10000526 	beq	r2,zero,1805464 <_fwalk+0x70>
 1805450:	8080038f 	ldh	r2,14(r16)
 1805454:	8009883a 	mov	r4,r16
 1805458:	15000226 	beq	r2,r20,1805464 <_fwalk+0x70>
 180545c:	a83ee83a 	callr	r21
 1805460:	b0acb03a 	or	r22,r22,r2
 1805464:	84001704 	addi	r16,r16,92
 1805468:	947ff61e 	bne	r18,r17,1805444 <_fwalk+0x50>
 180546c:	9cc00017 	ldw	r19,0(r19)
 1805470:	983fee1e 	bne	r19,zero,180542c <_fwalk+0x38>
 1805474:	18047ec0 	call	18047ec <__sfp_lock_release>
 1805478:	b005883a 	mov	r2,r22
 180547c:	dfc00717 	ldw	ra,28(sp)
 1805480:	dd800617 	ldw	r22,24(sp)
 1805484:	dd400517 	ldw	r21,20(sp)
 1805488:	dd000417 	ldw	r20,16(sp)
 180548c:	dcc00317 	ldw	r19,12(sp)
 1805490:	dc800217 	ldw	r18,8(sp)
 1805494:	dc400117 	ldw	r17,4(sp)
 1805498:	dc000017 	ldw	r16,0(sp)
 180549c:	dec00804 	addi	sp,sp,32
 18054a0:	f800283a 	ret
 18054a4:	002d883a 	mov	r22,zero
 18054a8:	003ff206 	br	1805474 <_fwalk+0x80>

018054ac <__locale_charset>:
 18054ac:	d0a00317 	ldw	r2,-32756(gp)
 18054b0:	f800283a 	ret

018054b4 <_localeconv_r>:
 18054b4:	00806074 	movhi	r2,385
 18054b8:	1083f104 	addi	r2,r2,4036
 18054bc:	f800283a 	ret

018054c0 <localeconv>:
 18054c0:	00806074 	movhi	r2,385
 18054c4:	108c3704 	addi	r2,r2,12508
 18054c8:	11000017 	ldw	r4,0(r2)
 18054cc:	18054b41 	jmpi	18054b4 <_localeconv_r>

018054d0 <_setlocale_r>:
 18054d0:	defffc04 	addi	sp,sp,-16
 18054d4:	00c06074 	movhi	r3,385
 18054d8:	18c3ec04 	addi	r3,r3,4016
 18054dc:	dc800215 	stw	r18,8(sp)
 18054e0:	dc400115 	stw	r17,4(sp)
 18054e4:	dc000015 	stw	r16,0(sp)
 18054e8:	2023883a 	mov	r17,r4
 18054ec:	2825883a 	mov	r18,r5
 18054f0:	dfc00315 	stw	ra,12(sp)
 18054f4:	3021883a 	mov	r16,r6
 18054f8:	3009883a 	mov	r4,r6
 18054fc:	180b883a 	mov	r5,r3
 1805500:	30000926 	beq	r6,zero,1805528 <_setlocale_r+0x58>
 1805504:	18079540 	call	1807954 <strcmp>
 1805508:	8009883a 	mov	r4,r16
 180550c:	01406074 	movhi	r5,385
 1805510:	2943d704 	addi	r5,r5,3932
 1805514:	10000b1e 	bne	r2,zero,1805544 <_setlocale_r+0x74>
 1805518:	8c000d15 	stw	r16,52(r17)
 180551c:	8c800c15 	stw	r18,48(r17)
 1805520:	00c06074 	movhi	r3,385
 1805524:	18c3ec04 	addi	r3,r3,4016
 1805528:	1805883a 	mov	r2,r3
 180552c:	dfc00317 	ldw	ra,12(sp)
 1805530:	dc800217 	ldw	r18,8(sp)
 1805534:	dc400117 	ldw	r17,4(sp)
 1805538:	dc000017 	ldw	r16,0(sp)
 180553c:	dec00404 	addi	sp,sp,16
 1805540:	f800283a 	ret
 1805544:	18079540 	call	1807954 <strcmp>
 1805548:	0007883a 	mov	r3,zero
 180554c:	103ff226 	beq	r2,zero,1805518 <_setlocale_r+0x48>
 1805550:	003ff506 	br	1805528 <_setlocale_r+0x58>

01805554 <setlocale>:
 1805554:	01806074 	movhi	r6,385
 1805558:	318c3704 	addi	r6,r6,12508
 180555c:	2007883a 	mov	r3,r4
 1805560:	31000017 	ldw	r4,0(r6)
 1805564:	280d883a 	mov	r6,r5
 1805568:	180b883a 	mov	r5,r3
 180556c:	18054d01 	jmpi	18054d0 <_setlocale_r>

01805570 <__smakebuf_r>:
 1805570:	2880030b 	ldhu	r2,12(r5)
 1805574:	deffed04 	addi	sp,sp,-76
 1805578:	dc401015 	stw	r17,64(sp)
 180557c:	1080008c 	andi	r2,r2,2
 1805580:	dc000f15 	stw	r16,60(sp)
 1805584:	dfc01215 	stw	ra,72(sp)
 1805588:	dc801115 	stw	r18,68(sp)
 180558c:	2821883a 	mov	r16,r5
 1805590:	2023883a 	mov	r17,r4
 1805594:	10000b26 	beq	r2,zero,18055c4 <__smakebuf_r+0x54>
 1805598:	28c010c4 	addi	r3,r5,67
 180559c:	00800044 	movi	r2,1
 18055a0:	28800515 	stw	r2,20(r5)
 18055a4:	28c00415 	stw	r3,16(r5)
 18055a8:	28c00015 	stw	r3,0(r5)
 18055ac:	dfc01217 	ldw	ra,72(sp)
 18055b0:	dc801117 	ldw	r18,68(sp)
 18055b4:	dc401017 	ldw	r17,64(sp)
 18055b8:	dc000f17 	ldw	r16,60(sp)
 18055bc:	dec01304 	addi	sp,sp,76
 18055c0:	f800283a 	ret
 18055c4:	2940038f 	ldh	r5,14(r5)
 18055c8:	28002116 	blt	r5,zero,1805650 <__smakebuf_r+0xe0>
 18055cc:	d80d883a 	mov	r6,sp
 18055d0:	1807cd00 	call	1807cd0 <_fstat_r>
 18055d4:	10001e16 	blt	r2,zero,1805650 <__smakebuf_r+0xe0>
 18055d8:	d8800117 	ldw	r2,4(sp)
 18055dc:	00e00014 	movui	r3,32768
 18055e0:	113c000c 	andi	r4,r2,61440
 18055e4:	20c03126 	beq	r4,r3,18056ac <__smakebuf_r+0x13c>
 18055e8:	8080030b 	ldhu	r2,12(r16)
 18055ec:	00c80004 	movi	r3,8192
 18055f0:	10820014 	ori	r2,r2,2048
 18055f4:	8080030d 	sth	r2,12(r16)
 18055f8:	20c01e26 	beq	r4,r3,1805674 <__smakebuf_r+0x104>
 18055fc:	04810004 	movi	r18,1024
 1805600:	8809883a 	mov	r4,r17
 1805604:	900b883a 	mov	r5,r18
 1805608:	18057040 	call	1805704 <_malloc_r>
 180560c:	1009883a 	mov	r4,r2
 1805610:	10003126 	beq	r2,zero,18056d8 <__smakebuf_r+0x168>
 1805614:	80c0030b 	ldhu	r3,12(r16)
 1805618:	00806034 	movhi	r2,384
 180561c:	10923704 	addi	r2,r2,18652
 1805620:	88800f15 	stw	r2,60(r17)
 1805624:	18c02014 	ori	r3,r3,128
 1805628:	84800515 	stw	r18,20(r16)
 180562c:	80c0030d 	sth	r3,12(r16)
 1805630:	81000415 	stw	r4,16(r16)
 1805634:	81000015 	stw	r4,0(r16)
 1805638:	dfc01217 	ldw	ra,72(sp)
 180563c:	dc801117 	ldw	r18,68(sp)
 1805640:	dc401017 	ldw	r17,64(sp)
 1805644:	dc000f17 	ldw	r16,60(sp)
 1805648:	dec01304 	addi	sp,sp,76
 180564c:	f800283a 	ret
 1805650:	80c0030b 	ldhu	r3,12(r16)
 1805654:	1880200c 	andi	r2,r3,128
 1805658:	10000426 	beq	r2,zero,180566c <__smakebuf_r+0xfc>
 180565c:	04801004 	movi	r18,64
 1805660:	18820014 	ori	r2,r3,2048
 1805664:	8080030d 	sth	r2,12(r16)
 1805668:	003fe506 	br	1805600 <__smakebuf_r+0x90>
 180566c:	04810004 	movi	r18,1024
 1805670:	003ffb06 	br	1805660 <__smakebuf_r+0xf0>
 1805674:	8140038f 	ldh	r5,14(r16)
 1805678:	8809883a 	mov	r4,r17
 180567c:	1807d440 	call	1807d44 <_isatty_r>
 1805680:	103fde26 	beq	r2,zero,18055fc <__smakebuf_r+0x8c>
 1805684:	8080030b 	ldhu	r2,12(r16)
 1805688:	80c010c4 	addi	r3,r16,67
 180568c:	04810004 	movi	r18,1024
 1805690:	10800054 	ori	r2,r2,1
 1805694:	8080030d 	sth	r2,12(r16)
 1805698:	00800044 	movi	r2,1
 180569c:	80c00415 	stw	r3,16(r16)
 18056a0:	80800515 	stw	r2,20(r16)
 18056a4:	80c00015 	stw	r3,0(r16)
 18056a8:	003fd506 	br	1805600 <__smakebuf_r+0x90>
 18056ac:	80c00a17 	ldw	r3,40(r16)
 18056b0:	00806034 	movhi	r2,384
 18056b4:	109e0404 	addi	r2,r2,30736
 18056b8:	18bfcb1e 	bne	r3,r2,18055e8 <__smakebuf_r+0x78>
 18056bc:	8080030b 	ldhu	r2,12(r16)
 18056c0:	00c10004 	movi	r3,1024
 18056c4:	1825883a 	mov	r18,r3
 18056c8:	10c4b03a 	or	r2,r2,r3
 18056cc:	8080030d 	sth	r2,12(r16)
 18056d0:	80c01315 	stw	r3,76(r16)
 18056d4:	003fca06 	br	1805600 <__smakebuf_r+0x90>
 18056d8:	8100030b 	ldhu	r4,12(r16)
 18056dc:	2080800c 	andi	r2,r4,512
 18056e0:	103fb21e 	bne	r2,zero,18055ac <__smakebuf_r+0x3c>
 18056e4:	80c010c4 	addi	r3,r16,67
 18056e8:	21000094 	ori	r4,r4,2
 18056ec:	00800044 	movi	r2,1
 18056f0:	80800515 	stw	r2,20(r16)
 18056f4:	8100030d 	sth	r4,12(r16)
 18056f8:	80c00415 	stw	r3,16(r16)
 18056fc:	80c00015 	stw	r3,0(r16)
 1805700:	003faa06 	br	18055ac <__smakebuf_r+0x3c>

01805704 <_malloc_r>:
 1805704:	defff604 	addi	sp,sp,-40
 1805708:	28c002c4 	addi	r3,r5,11
 180570c:	00800584 	movi	r2,22
 1805710:	dc800215 	stw	r18,8(sp)
 1805714:	dfc00915 	stw	ra,36(sp)
 1805718:	df000815 	stw	fp,32(sp)
 180571c:	ddc00715 	stw	r23,28(sp)
 1805720:	dd800615 	stw	r22,24(sp)
 1805724:	dd400515 	stw	r21,20(sp)
 1805728:	dd000415 	stw	r20,16(sp)
 180572c:	dcc00315 	stw	r19,12(sp)
 1805730:	dc400115 	stw	r17,4(sp)
 1805734:	dc000015 	stw	r16,0(sp)
 1805738:	2025883a 	mov	r18,r4
 180573c:	10c01236 	bltu	r2,r3,1805788 <_malloc_r+0x84>
 1805740:	04400404 	movi	r17,16
 1805744:	8940142e 	bgeu	r17,r5,1805798 <_malloc_r+0x94>
 1805748:	00800304 	movi	r2,12
 180574c:	0007883a 	mov	r3,zero
 1805750:	90800015 	stw	r2,0(r18)
 1805754:	1805883a 	mov	r2,r3
 1805758:	dfc00917 	ldw	ra,36(sp)
 180575c:	df000817 	ldw	fp,32(sp)
 1805760:	ddc00717 	ldw	r23,28(sp)
 1805764:	dd800617 	ldw	r22,24(sp)
 1805768:	dd400517 	ldw	r21,20(sp)
 180576c:	dd000417 	ldw	r20,16(sp)
 1805770:	dcc00317 	ldw	r19,12(sp)
 1805774:	dc800217 	ldw	r18,8(sp)
 1805778:	dc400117 	ldw	r17,4(sp)
 180577c:	dc000017 	ldw	r16,0(sp)
 1805780:	dec00a04 	addi	sp,sp,40
 1805784:	f800283a 	ret
 1805788:	00bffe04 	movi	r2,-8
 180578c:	18a2703a 	and	r17,r3,r2
 1805790:	883fed16 	blt	r17,zero,1805748 <_malloc_r+0x44>
 1805794:	897fec36 	bltu	r17,r5,1805748 <_malloc_r+0x44>
 1805798:	9009883a 	mov	r4,r18
 180579c:	180a7ec0 	call	180a7ec <__malloc_lock>
 18057a0:	00807dc4 	movi	r2,503
 18057a4:	14402b2e 	bgeu	r2,r17,1805854 <_malloc_r+0x150>
 18057a8:	8806d27a 	srli	r3,r17,9
 18057ac:	18003f1e 	bne	r3,zero,18058ac <_malloc_r+0x1a8>
 18057b0:	880cd0fa 	srli	r6,r17,3
 18057b4:	300490fa 	slli	r2,r6,3
 18057b8:	02c06074 	movhi	r11,385
 18057bc:	5ac60404 	addi	r11,r11,6160
 18057c0:	12cb883a 	add	r5,r2,r11
 18057c4:	2c000317 	ldw	r16,12(r5)
 18057c8:	580f883a 	mov	r7,r11
 18057cc:	2c00041e 	bne	r5,r16,18057e0 <_malloc_r+0xdc>
 18057d0:	00000a06 	br	18057fc <_malloc_r+0xf8>
 18057d4:	1800860e 	bge	r3,zero,18059f0 <_malloc_r+0x2ec>
 18057d8:	84000317 	ldw	r16,12(r16)
 18057dc:	2c000726 	beq	r5,r16,18057fc <_malloc_r+0xf8>
 18057e0:	80800117 	ldw	r2,4(r16)
 18057e4:	00ffff04 	movi	r3,-4
 18057e8:	10c8703a 	and	r4,r2,r3
 18057ec:	2447c83a 	sub	r3,r4,r17
 18057f0:	008003c4 	movi	r2,15
 18057f4:	10fff70e 	bge	r2,r3,18057d4 <_malloc_r+0xd0>
 18057f8:	31bfffc4 	addi	r6,r6,-1
 18057fc:	32400044 	addi	r9,r6,1
 1805800:	02806074 	movhi	r10,385
 1805804:	52860604 	addi	r10,r10,6168
 1805808:	54000217 	ldw	r16,8(r10)
 180580c:	8280a026 	beq	r16,r10,1805a90 <_malloc_r+0x38c>
 1805810:	80800117 	ldw	r2,4(r16)
 1805814:	00ffff04 	movi	r3,-4
 1805818:	10ca703a 	and	r5,r2,r3
 180581c:	2c4dc83a 	sub	r6,r5,r17
 1805820:	008003c4 	movi	r2,15
 1805824:	11808316 	blt	r2,r6,1805a34 <_malloc_r+0x330>
 1805828:	52800315 	stw	r10,12(r10)
 180582c:	52800215 	stw	r10,8(r10)
 1805830:	30002916 	blt	r6,zero,18058d8 <_malloc_r+0x1d4>
 1805834:	8147883a 	add	r3,r16,r5
 1805838:	18800117 	ldw	r2,4(r3)
 180583c:	9009883a 	mov	r4,r18
 1805840:	10800054 	ori	r2,r2,1
 1805844:	18800115 	stw	r2,4(r3)
 1805848:	180a80c0 	call	180a80c <__malloc_unlock>
 180584c:	80c00204 	addi	r3,r16,8
 1805850:	003fc006 	br	1805754 <_malloc_r+0x50>
 1805854:	02c06074 	movhi	r11,385
 1805858:	5ac60404 	addi	r11,r11,6160
 180585c:	8ac5883a 	add	r2,r17,r11
 1805860:	14000317 	ldw	r16,12(r2)
 1805864:	580f883a 	mov	r7,r11
 1805868:	8806d0fa 	srli	r3,r17,3
 180586c:	14006c26 	beq	r2,r16,1805a20 <_malloc_r+0x31c>
 1805870:	80c00117 	ldw	r3,4(r16)
 1805874:	00bfff04 	movi	r2,-4
 1805878:	81800317 	ldw	r6,12(r16)
 180587c:	1886703a 	and	r3,r3,r2
 1805880:	80c7883a 	add	r3,r16,r3
 1805884:	18800117 	ldw	r2,4(r3)
 1805888:	81400217 	ldw	r5,8(r16)
 180588c:	9009883a 	mov	r4,r18
 1805890:	10800054 	ori	r2,r2,1
 1805894:	18800115 	stw	r2,4(r3)
 1805898:	31400215 	stw	r5,8(r6)
 180589c:	29800315 	stw	r6,12(r5)
 18058a0:	180a80c0 	call	180a80c <__malloc_unlock>
 18058a4:	80c00204 	addi	r3,r16,8
 18058a8:	003faa06 	br	1805754 <_malloc_r+0x50>
 18058ac:	00800104 	movi	r2,4
 18058b0:	10c0052e 	bgeu	r2,r3,18058c8 <_malloc_r+0x1c4>
 18058b4:	00800504 	movi	r2,20
 18058b8:	10c07836 	bltu	r2,r3,1805a9c <_malloc_r+0x398>
 18058bc:	198016c4 	addi	r6,r3,91
 18058c0:	300490fa 	slli	r2,r6,3
 18058c4:	003fbc06 	br	18057b8 <_malloc_r+0xb4>
 18058c8:	8804d1ba 	srli	r2,r17,6
 18058cc:	11800e04 	addi	r6,r2,56
 18058d0:	300490fa 	slli	r2,r6,3
 18058d4:	003fb806 	br	18057b8 <_malloc_r+0xb4>
 18058d8:	00807fc4 	movi	r2,511
 18058dc:	1140bb36 	bltu	r2,r5,1805bcc <_malloc_r+0x4c8>
 18058e0:	2806d0fa 	srli	r3,r5,3
 18058e4:	573ffe04 	addi	fp,r10,-8
 18058e8:	00800044 	movi	r2,1
 18058ec:	180890fa 	slli	r4,r3,3
 18058f0:	1807d0ba 	srai	r3,r3,2
 18058f4:	e1c00117 	ldw	r7,4(fp)
 18058f8:	5909883a 	add	r4,r11,r4
 18058fc:	21400217 	ldw	r5,8(r4)
 1805900:	10c4983a 	sll	r2,r2,r3
 1805904:	81000315 	stw	r4,12(r16)
 1805908:	81400215 	stw	r5,8(r16)
 180590c:	388eb03a 	or	r7,r7,r2
 1805910:	2c000315 	stw	r16,12(r5)
 1805914:	24000215 	stw	r16,8(r4)
 1805918:	e1c00115 	stw	r7,4(fp)
 180591c:	4807883a 	mov	r3,r9
 1805920:	4800cd16 	blt	r9,zero,1805c58 <_malloc_r+0x554>
 1805924:	1807d0ba 	srai	r3,r3,2
 1805928:	00800044 	movi	r2,1
 180592c:	10c8983a 	sll	r4,r2,r3
 1805930:	39004436 	bltu	r7,r4,1805a44 <_malloc_r+0x340>
 1805934:	21c4703a 	and	r2,r4,r7
 1805938:	10000a1e 	bne	r2,zero,1805964 <_malloc_r+0x260>
 180593c:	2109883a 	add	r4,r4,r4
 1805940:	00bfff04 	movi	r2,-4
 1805944:	4884703a 	and	r2,r9,r2
 1805948:	3906703a 	and	r3,r7,r4
 180594c:	12400104 	addi	r9,r2,4
 1805950:	1800041e 	bne	r3,zero,1805964 <_malloc_r+0x260>
 1805954:	2109883a 	add	r4,r4,r4
 1805958:	3904703a 	and	r2,r7,r4
 180595c:	4a400104 	addi	r9,r9,4
 1805960:	103ffc26 	beq	r2,zero,1805954 <_malloc_r+0x250>
 1805964:	480490fa 	slli	r2,r9,3
 1805968:	4819883a 	mov	r12,r9
 180596c:	023fff04 	movi	r8,-4
 1805970:	589b883a 	add	r13,r11,r2
 1805974:	6807883a 	mov	r3,r13
 1805978:	014003c4 	movi	r5,15
 180597c:	1c000317 	ldw	r16,12(r3)
 1805980:	1c00041e 	bne	r3,r16,1805994 <_malloc_r+0x290>
 1805984:	0000a706 	br	1805c24 <_malloc_r+0x520>
 1805988:	3000ab0e 	bge	r6,zero,1805c38 <_malloc_r+0x534>
 180598c:	84000317 	ldw	r16,12(r16)
 1805990:	1c00a426 	beq	r3,r16,1805c24 <_malloc_r+0x520>
 1805994:	80800117 	ldw	r2,4(r16)
 1805998:	1204703a 	and	r2,r2,r8
 180599c:	144dc83a 	sub	r6,r2,r17
 18059a0:	29bff90e 	bge	r5,r6,1805988 <_malloc_r+0x284>
 18059a4:	81000317 	ldw	r4,12(r16)
 18059a8:	80c00217 	ldw	r3,8(r16)
 18059ac:	89400054 	ori	r5,r17,1
 18059b0:	8445883a 	add	r2,r16,r17
 18059b4:	20c00215 	stw	r3,8(r4)
 18059b8:	19000315 	stw	r4,12(r3)
 18059bc:	81400115 	stw	r5,4(r16)
 18059c0:	1187883a 	add	r3,r2,r6
 18059c4:	31000054 	ori	r4,r6,1
 18059c8:	50800315 	stw	r2,12(r10)
 18059cc:	50800215 	stw	r2,8(r10)
 18059d0:	19800015 	stw	r6,0(r3)
 18059d4:	11000115 	stw	r4,4(r2)
 18059d8:	12800215 	stw	r10,8(r2)
 18059dc:	12800315 	stw	r10,12(r2)
 18059e0:	9009883a 	mov	r4,r18
 18059e4:	180a80c0 	call	180a80c <__malloc_unlock>
 18059e8:	80c00204 	addi	r3,r16,8
 18059ec:	003f5906 	br	1805754 <_malloc_r+0x50>
 18059f0:	8109883a 	add	r4,r16,r4
 18059f4:	20800117 	ldw	r2,4(r4)
 18059f8:	80c00217 	ldw	r3,8(r16)
 18059fc:	81400317 	ldw	r5,12(r16)
 1805a00:	10800054 	ori	r2,r2,1
 1805a04:	20800115 	stw	r2,4(r4)
 1805a08:	28c00215 	stw	r3,8(r5)
 1805a0c:	19400315 	stw	r5,12(r3)
 1805a10:	9009883a 	mov	r4,r18
 1805a14:	180a80c0 	call	180a80c <__malloc_unlock>
 1805a18:	80c00204 	addi	r3,r16,8
 1805a1c:	003f4d06 	br	1805754 <_malloc_r+0x50>
 1805a20:	80800204 	addi	r2,r16,8
 1805a24:	14000317 	ldw	r16,12(r2)
 1805a28:	143f911e 	bne	r2,r16,1805870 <_malloc_r+0x16c>
 1805a2c:	1a400084 	addi	r9,r3,2
 1805a30:	003f7306 	br	1805800 <_malloc_r+0xfc>
 1805a34:	88c00054 	ori	r3,r17,1
 1805a38:	8445883a 	add	r2,r16,r17
 1805a3c:	80c00115 	stw	r3,4(r16)
 1805a40:	003fdf06 	br	18059c0 <_malloc_r+0x2bc>
 1805a44:	e4000217 	ldw	r16,8(fp)
 1805a48:	00bfff04 	movi	r2,-4
 1805a4c:	80c00117 	ldw	r3,4(r16)
 1805a50:	802d883a 	mov	r22,r16
 1805a54:	18aa703a 	and	r21,r3,r2
 1805a58:	ac401636 	bltu	r21,r17,1805ab4 <_malloc_r+0x3b0>
 1805a5c:	ac49c83a 	sub	r4,r21,r17
 1805a60:	008003c4 	movi	r2,15
 1805a64:	1100130e 	bge	r2,r4,1805ab4 <_malloc_r+0x3b0>
 1805a68:	88800054 	ori	r2,r17,1
 1805a6c:	8447883a 	add	r3,r16,r17
 1805a70:	80800115 	stw	r2,4(r16)
 1805a74:	20800054 	ori	r2,r4,1
 1805a78:	18800115 	stw	r2,4(r3)
 1805a7c:	e0c00215 	stw	r3,8(fp)
 1805a80:	9009883a 	mov	r4,r18
 1805a84:	180a80c0 	call	180a80c <__malloc_unlock>
 1805a88:	80c00204 	addi	r3,r16,8
 1805a8c:	003f3106 	br	1805754 <_malloc_r+0x50>
 1805a90:	39c00117 	ldw	r7,4(r7)
 1805a94:	573ffe04 	addi	fp,r10,-8
 1805a98:	003fa006 	br	180591c <_malloc_r+0x218>
 1805a9c:	00801504 	movi	r2,84
 1805aa0:	10c06736 	bltu	r2,r3,1805c40 <_malloc_r+0x53c>
 1805aa4:	8804d33a 	srli	r2,r17,12
 1805aa8:	11801b84 	addi	r6,r2,110
 1805aac:	300490fa 	slli	r2,r6,3
 1805ab0:	003f4106 	br	18057b8 <_malloc_r+0xb4>
 1805ab4:	d0a01717 	ldw	r2,-32676(gp)
 1805ab8:	d0e00517 	ldw	r3,-32748(gp)
 1805abc:	053fffc4 	movi	r20,-1
 1805ac0:	10800404 	addi	r2,r2,16
 1805ac4:	88a7883a 	add	r19,r17,r2
 1805ac8:	1d000326 	beq	r3,r20,1805ad8 <_malloc_r+0x3d4>
 1805acc:	98c3ffc4 	addi	r3,r19,4095
 1805ad0:	00bc0004 	movi	r2,-4096
 1805ad4:	18a6703a 	and	r19,r3,r2
 1805ad8:	9009883a 	mov	r4,r18
 1805adc:	980b883a 	mov	r5,r19
 1805ae0:	18077980 	call	1807798 <_sbrk_r>
 1805ae4:	1009883a 	mov	r4,r2
 1805ae8:	15000426 	beq	r2,r20,1805afc <_malloc_r+0x3f8>
 1805aec:	854b883a 	add	r5,r16,r21
 1805af0:	1029883a 	mov	r20,r2
 1805af4:	11405a2e 	bgeu	r2,r5,1805c60 <_malloc_r+0x55c>
 1805af8:	87000c26 	beq	r16,fp,1805b2c <_malloc_r+0x428>
 1805afc:	e4000217 	ldw	r16,8(fp)
 1805b00:	80c00117 	ldw	r3,4(r16)
 1805b04:	00bfff04 	movi	r2,-4
 1805b08:	1884703a 	and	r2,r3,r2
 1805b0c:	14400336 	bltu	r2,r17,1805b1c <_malloc_r+0x418>
 1805b10:	1449c83a 	sub	r4,r2,r17
 1805b14:	008003c4 	movi	r2,15
 1805b18:	113fd316 	blt	r2,r4,1805a68 <_malloc_r+0x364>
 1805b1c:	9009883a 	mov	r4,r18
 1805b20:	180a80c0 	call	180a80c <__malloc_unlock>
 1805b24:	0007883a 	mov	r3,zero
 1805b28:	003f0a06 	br	1805754 <_malloc_r+0x50>
 1805b2c:	05c06074 	movhi	r23,385
 1805b30:	bdcc5904 	addi	r23,r23,12644
 1805b34:	b8800017 	ldw	r2,0(r23)
 1805b38:	988d883a 	add	r6,r19,r2
 1805b3c:	b9800015 	stw	r6,0(r23)
 1805b40:	d0e00517 	ldw	r3,-32748(gp)
 1805b44:	00bfffc4 	movi	r2,-1
 1805b48:	18808e26 	beq	r3,r2,1805d84 <_malloc_r+0x680>
 1805b4c:	2145c83a 	sub	r2,r4,r5
 1805b50:	3085883a 	add	r2,r6,r2
 1805b54:	b8800015 	stw	r2,0(r23)
 1805b58:	20c001cc 	andi	r3,r4,7
 1805b5c:	18005f1e 	bne	r3,zero,1805cdc <_malloc_r+0x5d8>
 1805b60:	000b883a 	mov	r5,zero
 1805b64:	a4c5883a 	add	r2,r20,r19
 1805b68:	1083ffcc 	andi	r2,r2,4095
 1805b6c:	00c40004 	movi	r3,4096
 1805b70:	1887c83a 	sub	r3,r3,r2
 1805b74:	28e7883a 	add	r19,r5,r3
 1805b78:	9009883a 	mov	r4,r18
 1805b7c:	980b883a 	mov	r5,r19
 1805b80:	18077980 	call	1807798 <_sbrk_r>
 1805b84:	1007883a 	mov	r3,r2
 1805b88:	00bfffc4 	movi	r2,-1
 1805b8c:	18807a26 	beq	r3,r2,1805d78 <_malloc_r+0x674>
 1805b90:	1d05c83a 	sub	r2,r3,r20
 1805b94:	9885883a 	add	r2,r19,r2
 1805b98:	10c00054 	ori	r3,r2,1
 1805b9c:	b8800017 	ldw	r2,0(r23)
 1805ba0:	a021883a 	mov	r16,r20
 1805ba4:	a0c00115 	stw	r3,4(r20)
 1805ba8:	9885883a 	add	r2,r19,r2
 1805bac:	b8800015 	stw	r2,0(r23)
 1805bb0:	e5000215 	stw	r20,8(fp)
 1805bb4:	b7003626 	beq	r22,fp,1805c90 <_malloc_r+0x58c>
 1805bb8:	018003c4 	movi	r6,15
 1805bbc:	35404b36 	bltu	r6,r21,1805cec <_malloc_r+0x5e8>
 1805bc0:	00800044 	movi	r2,1
 1805bc4:	a0800115 	stw	r2,4(r20)
 1805bc8:	003fcd06 	br	1805b00 <_malloc_r+0x3fc>
 1805bcc:	2808d27a 	srli	r4,r5,9
 1805bd0:	2000371e 	bne	r4,zero,1805cb0 <_malloc_r+0x5ac>
 1805bd4:	2808d0fa 	srli	r4,r5,3
 1805bd8:	200690fa 	slli	r3,r4,3
 1805bdc:	1ad1883a 	add	r8,r3,r11
 1805be0:	41800217 	ldw	r6,8(r8)
 1805be4:	41805b26 	beq	r8,r6,1805d54 <_malloc_r+0x650>
 1805be8:	30800117 	ldw	r2,4(r6)
 1805bec:	00ffff04 	movi	r3,-4
 1805bf0:	10c4703a 	and	r2,r2,r3
 1805bf4:	2880022e 	bgeu	r5,r2,1805c00 <_malloc_r+0x4fc>
 1805bf8:	31800217 	ldw	r6,8(r6)
 1805bfc:	41bffa1e 	bne	r8,r6,1805be8 <_malloc_r+0x4e4>
 1805c00:	32000317 	ldw	r8,12(r6)
 1805c04:	39c00117 	ldw	r7,4(r7)
 1805c08:	82000315 	stw	r8,12(r16)
 1805c0c:	81800215 	stw	r6,8(r16)
 1805c10:	07006074 	movhi	fp,385
 1805c14:	e7060404 	addi	fp,fp,6160
 1805c18:	34000315 	stw	r16,12(r6)
 1805c1c:	44000215 	stw	r16,8(r8)
 1805c20:	003f3e06 	br	180591c <_malloc_r+0x218>
 1805c24:	63000044 	addi	r12,r12,1
 1805c28:	608000cc 	andi	r2,r12,3
 1805c2c:	10005d26 	beq	r2,zero,1805da4 <_malloc_r+0x6a0>
 1805c30:	18c00204 	addi	r3,r3,8
 1805c34:	003f5106 	br	180597c <_malloc_r+0x278>
 1805c38:	8089883a 	add	r4,r16,r2
 1805c3c:	003f6d06 	br	18059f4 <_malloc_r+0x2f0>
 1805c40:	00805504 	movi	r2,340
 1805c44:	10c02036 	bltu	r2,r3,1805cc8 <_malloc_r+0x5c4>
 1805c48:	8804d3fa 	srli	r2,r17,15
 1805c4c:	11801dc4 	addi	r6,r2,119
 1805c50:	300490fa 	slli	r2,r6,3
 1805c54:	003ed806 	br	18057b8 <_malloc_r+0xb4>
 1805c58:	48c000c4 	addi	r3,r9,3
 1805c5c:	003f3106 	br	1805924 <_malloc_r+0x220>
 1805c60:	05c06074 	movhi	r23,385
 1805c64:	bdcc5904 	addi	r23,r23,12644
 1805c68:	b8800017 	ldw	r2,0(r23)
 1805c6c:	988d883a 	add	r6,r19,r2
 1805c70:	b9800015 	stw	r6,0(r23)
 1805c74:	293fb21e 	bne	r5,r4,1805b40 <_malloc_r+0x43c>
 1805c78:	2083ffcc 	andi	r2,r4,4095
 1805c7c:	103fb01e 	bne	r2,zero,1805b40 <_malloc_r+0x43c>
 1805c80:	e4000217 	ldw	r16,8(fp)
 1805c84:	9d45883a 	add	r2,r19,r21
 1805c88:	10800054 	ori	r2,r2,1
 1805c8c:	80800115 	stw	r2,4(r16)
 1805c90:	b8c00017 	ldw	r3,0(r23)
 1805c94:	d0a01817 	ldw	r2,-32672(gp)
 1805c98:	10c0012e 	bgeu	r2,r3,1805ca0 <_malloc_r+0x59c>
 1805c9c:	d0e01815 	stw	r3,-32672(gp)
 1805ca0:	d0a01917 	ldw	r2,-32668(gp)
 1805ca4:	10ff962e 	bgeu	r2,r3,1805b00 <_malloc_r+0x3fc>
 1805ca8:	d0e01915 	stw	r3,-32668(gp)
 1805cac:	003f9406 	br	1805b00 <_malloc_r+0x3fc>
 1805cb0:	00800104 	movi	r2,4
 1805cb4:	11001e36 	bltu	r2,r4,1805d30 <_malloc_r+0x62c>
 1805cb8:	2804d1ba 	srli	r2,r5,6
 1805cbc:	11000e04 	addi	r4,r2,56
 1805cc0:	200690fa 	slli	r3,r4,3
 1805cc4:	003fc506 	br	1805bdc <_malloc_r+0x4d8>
 1805cc8:	00815504 	movi	r2,1364
 1805ccc:	10c01d2e 	bgeu	r2,r3,1805d44 <_malloc_r+0x640>
 1805cd0:	01801f84 	movi	r6,126
 1805cd4:	0080fc04 	movi	r2,1008
 1805cd8:	003eb706 	br	18057b8 <_malloc_r+0xb4>
 1805cdc:	00800204 	movi	r2,8
 1805ce0:	10cbc83a 	sub	r5,r2,r3
 1805ce4:	2169883a 	add	r20,r4,r5
 1805ce8:	003f9e06 	br	1805b64 <_malloc_r+0x460>
 1805cec:	00bffe04 	movi	r2,-8
 1805cf0:	a93ffd04 	addi	r4,r21,-12
 1805cf4:	2088703a 	and	r4,r4,r2
 1805cf8:	b10b883a 	add	r5,r22,r4
 1805cfc:	00c00144 	movi	r3,5
 1805d00:	28c00215 	stw	r3,8(r5)
 1805d04:	28c00115 	stw	r3,4(r5)
 1805d08:	b0800117 	ldw	r2,4(r22)
 1805d0c:	1080004c 	andi	r2,r2,1
 1805d10:	2084b03a 	or	r2,r4,r2
 1805d14:	b0800115 	stw	r2,4(r22)
 1805d18:	313fdd2e 	bgeu	r6,r4,1805c90 <_malloc_r+0x58c>
 1805d1c:	b1400204 	addi	r5,r22,8
 1805d20:	9009883a 	mov	r4,r18
 1805d24:	1804b7c0 	call	1804b7c <_free_r>
 1805d28:	e4000217 	ldw	r16,8(fp)
 1805d2c:	003fd806 	br	1805c90 <_malloc_r+0x58c>
 1805d30:	00800504 	movi	r2,20
 1805d34:	11001536 	bltu	r2,r4,1805d8c <_malloc_r+0x688>
 1805d38:	210016c4 	addi	r4,r4,91
 1805d3c:	200690fa 	slli	r3,r4,3
 1805d40:	003fa606 	br	1805bdc <_malloc_r+0x4d8>
 1805d44:	8804d4ba 	srli	r2,r17,18
 1805d48:	11801f04 	addi	r6,r2,124
 1805d4c:	300490fa 	slli	r2,r6,3
 1805d50:	003e9906 	br	18057b8 <_malloc_r+0xb4>
 1805d54:	2009d0ba 	srai	r4,r4,2
 1805d58:	01406074 	movhi	r5,385
 1805d5c:	29460404 	addi	r5,r5,6160
 1805d60:	00c00044 	movi	r3,1
 1805d64:	28800117 	ldw	r2,4(r5)
 1805d68:	1906983a 	sll	r3,r3,r4
 1805d6c:	10c4b03a 	or	r2,r2,r3
 1805d70:	28800115 	stw	r2,4(r5)
 1805d74:	003fa306 	br	1805c04 <_malloc_r+0x500>
 1805d78:	0027883a 	mov	r19,zero
 1805d7c:	00c00044 	movi	r3,1
 1805d80:	003f8606 	br	1805b9c <_malloc_r+0x498>
 1805d84:	d1200515 	stw	r4,-32748(gp)
 1805d88:	003f7306 	br	1805b58 <_malloc_r+0x454>
 1805d8c:	00801504 	movi	r2,84
 1805d90:	11001936 	bltu	r2,r4,1805df8 <_malloc_r+0x6f4>
 1805d94:	2804d33a 	srli	r2,r5,12
 1805d98:	11001b84 	addi	r4,r2,110
 1805d9c:	200690fa 	slli	r3,r4,3
 1805da0:	003f8e06 	br	1805bdc <_malloc_r+0x4d8>
 1805da4:	480b883a 	mov	r5,r9
 1805da8:	6807883a 	mov	r3,r13
 1805dac:	288000cc 	andi	r2,r5,3
 1805db0:	18fffe04 	addi	r3,r3,-8
 1805db4:	297fffc4 	addi	r5,r5,-1
 1805db8:	10001526 	beq	r2,zero,1805e10 <_malloc_r+0x70c>
 1805dbc:	18800217 	ldw	r2,8(r3)
 1805dc0:	10fffa26 	beq	r2,r3,1805dac <_malloc_r+0x6a8>
 1805dc4:	2109883a 	add	r4,r4,r4
 1805dc8:	393f1e36 	bltu	r7,r4,1805a44 <_malloc_r+0x340>
 1805dcc:	203f1d26 	beq	r4,zero,1805a44 <_malloc_r+0x340>
 1805dd0:	21c4703a 	and	r2,r4,r7
 1805dd4:	10000226 	beq	r2,zero,1805de0 <_malloc_r+0x6dc>
 1805dd8:	6013883a 	mov	r9,r12
 1805ddc:	003ee106 	br	1805964 <_malloc_r+0x260>
 1805de0:	2109883a 	add	r4,r4,r4
 1805de4:	3904703a 	and	r2,r7,r4
 1805de8:	63000104 	addi	r12,r12,4
 1805dec:	103ffc26 	beq	r2,zero,1805de0 <_malloc_r+0x6dc>
 1805df0:	6013883a 	mov	r9,r12
 1805df4:	003edb06 	br	1805964 <_malloc_r+0x260>
 1805df8:	00805504 	movi	r2,340
 1805dfc:	11000836 	bltu	r2,r4,1805e20 <_malloc_r+0x71c>
 1805e00:	2804d3fa 	srli	r2,r5,15
 1805e04:	11001dc4 	addi	r4,r2,119
 1805e08:	200690fa 	slli	r3,r4,3
 1805e0c:	003f7306 	br	1805bdc <_malloc_r+0x4d8>
 1805e10:	0104303a 	nor	r2,zero,r4
 1805e14:	388e703a 	and	r7,r7,r2
 1805e18:	e1c00115 	stw	r7,4(fp)
 1805e1c:	003fe906 	br	1805dc4 <_malloc_r+0x6c0>
 1805e20:	00815504 	movi	r2,1364
 1805e24:	1100032e 	bgeu	r2,r4,1805e34 <_malloc_r+0x730>
 1805e28:	01001f84 	movi	r4,126
 1805e2c:	00c0fc04 	movi	r3,1008
 1805e30:	003f6a06 	br	1805bdc <_malloc_r+0x4d8>
 1805e34:	2804d4ba 	srli	r2,r5,18
 1805e38:	11001f04 	addi	r4,r2,124
 1805e3c:	200690fa 	slli	r3,r4,3
 1805e40:	003f6606 	br	1805bdc <_malloc_r+0x4d8>

01805e44 <memchr>:
 1805e44:	008000c4 	movi	r2,3
 1805e48:	29403fcc 	andi	r5,r5,255
 1805e4c:	2007883a 	mov	r3,r4
 1805e50:	1180022e 	bgeu	r2,r6,1805e5c <memchr+0x18>
 1805e54:	2084703a 	and	r2,r4,r2
 1805e58:	10000b26 	beq	r2,zero,1805e88 <memchr+0x44>
 1805e5c:	313fffc4 	addi	r4,r6,-1
 1805e60:	3000051e 	bne	r6,zero,1805e78 <memchr+0x34>
 1805e64:	00002c06 	br	1805f18 <memchr+0xd4>
 1805e68:	213fffc4 	addi	r4,r4,-1
 1805e6c:	00bfffc4 	movi	r2,-1
 1805e70:	18c00044 	addi	r3,r3,1
 1805e74:	20802826 	beq	r4,r2,1805f18 <memchr+0xd4>
 1805e78:	18800003 	ldbu	r2,0(r3)
 1805e7c:	28bffa1e 	bne	r5,r2,1805e68 <memchr+0x24>
 1805e80:	1805883a 	mov	r2,r3
 1805e84:	f800283a 	ret
 1805e88:	0011883a 	mov	r8,zero
 1805e8c:	0007883a 	mov	r3,zero
 1805e90:	01c00104 	movi	r7,4
 1805e94:	4004923a 	slli	r2,r8,8
 1805e98:	18c00044 	addi	r3,r3,1
 1805e9c:	1151883a 	add	r8,r2,r5
 1805ea0:	19fffc1e 	bne	r3,r7,1805e94 <memchr+0x50>
 1805ea4:	02bfbff4 	movhi	r10,65279
 1805ea8:	52bfbfc4 	addi	r10,r10,-257
 1805eac:	02602074 	movhi	r9,32897
 1805eb0:	4a602004 	addi	r9,r9,-32640
 1805eb4:	02c000c4 	movi	r11,3
 1805eb8:	20800017 	ldw	r2,0(r4)
 1805ebc:	31bfff04 	addi	r6,r6,-4
 1805ec0:	200f883a 	mov	r7,r4
 1805ec4:	1204f03a 	xor	r2,r2,r8
 1805ec8:	1287883a 	add	r3,r2,r10
 1805ecc:	1a46703a 	and	r3,r3,r9
 1805ed0:	0084303a 	nor	r2,zero,r2
 1805ed4:	10c4703a 	and	r2,r2,r3
 1805ed8:	10000b26 	beq	r2,zero,1805f08 <memchr+0xc4>
 1805edc:	20800003 	ldbu	r2,0(r4)
 1805ee0:	28800f26 	beq	r5,r2,1805f20 <memchr+0xdc>
 1805ee4:	20800043 	ldbu	r2,1(r4)
 1805ee8:	21c00044 	addi	r7,r4,1
 1805eec:	28800c26 	beq	r5,r2,1805f20 <memchr+0xdc>
 1805ef0:	20800083 	ldbu	r2,2(r4)
 1805ef4:	21c00084 	addi	r7,r4,2
 1805ef8:	28800926 	beq	r5,r2,1805f20 <memchr+0xdc>
 1805efc:	208000c3 	ldbu	r2,3(r4)
 1805f00:	21c000c4 	addi	r7,r4,3
 1805f04:	28800626 	beq	r5,r2,1805f20 <memchr+0xdc>
 1805f08:	21000104 	addi	r4,r4,4
 1805f0c:	59bfea36 	bltu	r11,r6,1805eb8 <memchr+0x74>
 1805f10:	2007883a 	mov	r3,r4
 1805f14:	003fd106 	br	1805e5c <memchr+0x18>
 1805f18:	0005883a 	mov	r2,zero
 1805f1c:	f800283a 	ret
 1805f20:	3805883a 	mov	r2,r7
 1805f24:	f800283a 	ret

01805f28 <memcpy>:
 1805f28:	01c003c4 	movi	r7,15
 1805f2c:	2007883a 	mov	r3,r4
 1805f30:	3980032e 	bgeu	r7,r6,1805f40 <memcpy+0x18>
 1805f34:	2904b03a 	or	r2,r5,r4
 1805f38:	108000cc 	andi	r2,r2,3
 1805f3c:	10000926 	beq	r2,zero,1805f64 <memcpy+0x3c>
 1805f40:	30000626 	beq	r6,zero,1805f5c <memcpy+0x34>
 1805f44:	30cd883a 	add	r6,r6,r3
 1805f48:	28800003 	ldbu	r2,0(r5)
 1805f4c:	29400044 	addi	r5,r5,1
 1805f50:	18800005 	stb	r2,0(r3)
 1805f54:	18c00044 	addi	r3,r3,1
 1805f58:	30fffb1e 	bne	r6,r3,1805f48 <memcpy+0x20>
 1805f5c:	2005883a 	mov	r2,r4
 1805f60:	f800283a 	ret
 1805f64:	3811883a 	mov	r8,r7
 1805f68:	200f883a 	mov	r7,r4
 1805f6c:	28c00017 	ldw	r3,0(r5)
 1805f70:	31bffc04 	addi	r6,r6,-16
 1805f74:	38c00015 	stw	r3,0(r7)
 1805f78:	28800117 	ldw	r2,4(r5)
 1805f7c:	38800115 	stw	r2,4(r7)
 1805f80:	28c00217 	ldw	r3,8(r5)
 1805f84:	38c00215 	stw	r3,8(r7)
 1805f88:	28800317 	ldw	r2,12(r5)
 1805f8c:	29400404 	addi	r5,r5,16
 1805f90:	38800315 	stw	r2,12(r7)
 1805f94:	39c00404 	addi	r7,r7,16
 1805f98:	41bff436 	bltu	r8,r6,1805f6c <memcpy+0x44>
 1805f9c:	008000c4 	movi	r2,3
 1805fa0:	1180072e 	bgeu	r2,r6,1805fc0 <memcpy+0x98>
 1805fa4:	1007883a 	mov	r3,r2
 1805fa8:	28800017 	ldw	r2,0(r5)
 1805fac:	31bfff04 	addi	r6,r6,-4
 1805fb0:	29400104 	addi	r5,r5,4
 1805fb4:	38800015 	stw	r2,0(r7)
 1805fb8:	39c00104 	addi	r7,r7,4
 1805fbc:	19bffa36 	bltu	r3,r6,1805fa8 <memcpy+0x80>
 1805fc0:	3807883a 	mov	r3,r7
 1805fc4:	003fde06 	br	1805f40 <memcpy+0x18>

01805fc8 <memmove>:
 1805fc8:	2807883a 	mov	r3,r5
 1805fcc:	2011883a 	mov	r8,r4
 1805fd0:	29000c2e 	bgeu	r5,r4,1806004 <memmove+0x3c>
 1805fd4:	298f883a 	add	r7,r5,r6
 1805fd8:	21c00a2e 	bgeu	r4,r7,1806004 <memmove+0x3c>
 1805fdc:	30000726 	beq	r6,zero,1805ffc <memmove+0x34>
 1805fe0:	2187883a 	add	r3,r4,r6
 1805fe4:	198dc83a 	sub	r6,r3,r6
 1805fe8:	39ffffc4 	addi	r7,r7,-1
 1805fec:	38800003 	ldbu	r2,0(r7)
 1805ff0:	18ffffc4 	addi	r3,r3,-1
 1805ff4:	18800005 	stb	r2,0(r3)
 1805ff8:	19bffb1e 	bne	r3,r6,1805fe8 <memmove+0x20>
 1805ffc:	2005883a 	mov	r2,r4
 1806000:	f800283a 	ret
 1806004:	01c003c4 	movi	r7,15
 1806008:	39800a36 	bltu	r7,r6,1806034 <memmove+0x6c>
 180600c:	303ffb26 	beq	r6,zero,1805ffc <memmove+0x34>
 1806010:	400f883a 	mov	r7,r8
 1806014:	320d883a 	add	r6,r6,r8
 1806018:	28800003 	ldbu	r2,0(r5)
 180601c:	29400044 	addi	r5,r5,1
 1806020:	38800005 	stb	r2,0(r7)
 1806024:	39c00044 	addi	r7,r7,1
 1806028:	39bffb1e 	bne	r7,r6,1806018 <memmove+0x50>
 180602c:	2005883a 	mov	r2,r4
 1806030:	f800283a 	ret
 1806034:	1904b03a 	or	r2,r3,r4
 1806038:	108000cc 	andi	r2,r2,3
 180603c:	103ff31e 	bne	r2,zero,180600c <memmove+0x44>
 1806040:	3811883a 	mov	r8,r7
 1806044:	180b883a 	mov	r5,r3
 1806048:	200f883a 	mov	r7,r4
 180604c:	28c00017 	ldw	r3,0(r5)
 1806050:	31bffc04 	addi	r6,r6,-16
 1806054:	38c00015 	stw	r3,0(r7)
 1806058:	28800117 	ldw	r2,4(r5)
 180605c:	38800115 	stw	r2,4(r7)
 1806060:	28c00217 	ldw	r3,8(r5)
 1806064:	38c00215 	stw	r3,8(r7)
 1806068:	28800317 	ldw	r2,12(r5)
 180606c:	29400404 	addi	r5,r5,16
 1806070:	38800315 	stw	r2,12(r7)
 1806074:	39c00404 	addi	r7,r7,16
 1806078:	41bff436 	bltu	r8,r6,180604c <memmove+0x84>
 180607c:	008000c4 	movi	r2,3
 1806080:	1180072e 	bgeu	r2,r6,18060a0 <memmove+0xd8>
 1806084:	1007883a 	mov	r3,r2
 1806088:	28800017 	ldw	r2,0(r5)
 180608c:	31bfff04 	addi	r6,r6,-4
 1806090:	29400104 	addi	r5,r5,4
 1806094:	38800015 	stw	r2,0(r7)
 1806098:	39c00104 	addi	r7,r7,4
 180609c:	19bffa36 	bltu	r3,r6,1806088 <memmove+0xc0>
 18060a0:	3811883a 	mov	r8,r7
 18060a4:	003fd906 	br	180600c <memmove+0x44>

018060a8 <memset>:
 18060a8:	008000c4 	movi	r2,3
 18060ac:	29403fcc 	andi	r5,r5,255
 18060b0:	2007883a 	mov	r3,r4
 18060b4:	1180022e 	bgeu	r2,r6,18060c0 <memset+0x18>
 18060b8:	2084703a 	and	r2,r4,r2
 18060bc:	10000826 	beq	r2,zero,18060e0 <memset+0x38>
 18060c0:	30000526 	beq	r6,zero,18060d8 <memset+0x30>
 18060c4:	2805883a 	mov	r2,r5
 18060c8:	30cd883a 	add	r6,r6,r3
 18060cc:	18800005 	stb	r2,0(r3)
 18060d0:	18c00044 	addi	r3,r3,1
 18060d4:	19bffd1e 	bne	r3,r6,18060cc <memset+0x24>
 18060d8:	2005883a 	mov	r2,r4
 18060dc:	f800283a 	ret
 18060e0:	2804923a 	slli	r2,r5,8
 18060e4:	020003c4 	movi	r8,15
 18060e8:	200f883a 	mov	r7,r4
 18060ec:	2884b03a 	or	r2,r5,r2
 18060f0:	1006943a 	slli	r3,r2,16
 18060f4:	10c6b03a 	or	r3,r2,r3
 18060f8:	41800a2e 	bgeu	r8,r6,1806124 <memset+0x7c>
 18060fc:	4005883a 	mov	r2,r8
 1806100:	31bffc04 	addi	r6,r6,-16
 1806104:	38c00015 	stw	r3,0(r7)
 1806108:	38c00115 	stw	r3,4(r7)
 180610c:	38c00215 	stw	r3,8(r7)
 1806110:	38c00315 	stw	r3,12(r7)
 1806114:	39c00404 	addi	r7,r7,16
 1806118:	11bff936 	bltu	r2,r6,1806100 <memset+0x58>
 180611c:	008000c4 	movi	r2,3
 1806120:	1180052e 	bgeu	r2,r6,1806138 <memset+0x90>
 1806124:	31bfff04 	addi	r6,r6,-4
 1806128:	008000c4 	movi	r2,3
 180612c:	38c00015 	stw	r3,0(r7)
 1806130:	39c00104 	addi	r7,r7,4
 1806134:	11bffb36 	bltu	r2,r6,1806124 <memset+0x7c>
 1806138:	3807883a 	mov	r3,r7
 180613c:	003fe006 	br	18060c0 <memset+0x18>

01806140 <_Bfree>:
 1806140:	28000826 	beq	r5,zero,1806164 <_Bfree+0x24>
 1806144:	28800117 	ldw	r2,4(r5)
 1806148:	21001317 	ldw	r4,76(r4)
 180614c:	1085883a 	add	r2,r2,r2
 1806150:	1085883a 	add	r2,r2,r2
 1806154:	1105883a 	add	r2,r2,r4
 1806158:	10c00017 	ldw	r3,0(r2)
 180615c:	28c00015 	stw	r3,0(r5)
 1806160:	11400015 	stw	r5,0(r2)
 1806164:	f800283a 	ret

01806168 <__hi0bits>:
 1806168:	20bfffec 	andhi	r2,r4,65535
 180616c:	10001426 	beq	r2,zero,18061c0 <__hi0bits+0x58>
 1806170:	0007883a 	mov	r3,zero
 1806174:	20bfc02c 	andhi	r2,r4,65280
 1806178:	1000021e 	bne	r2,zero,1806184 <__hi0bits+0x1c>
 180617c:	2008923a 	slli	r4,r4,8
 1806180:	18c00204 	addi	r3,r3,8
 1806184:	20bc002c 	andhi	r2,r4,61440
 1806188:	1000021e 	bne	r2,zero,1806194 <__hi0bits+0x2c>
 180618c:	2008913a 	slli	r4,r4,4
 1806190:	18c00104 	addi	r3,r3,4
 1806194:	20b0002c 	andhi	r2,r4,49152
 1806198:	1000031e 	bne	r2,zero,18061a8 <__hi0bits+0x40>
 180619c:	2105883a 	add	r2,r4,r4
 18061a0:	18c00084 	addi	r3,r3,2
 18061a4:	1089883a 	add	r4,r2,r2
 18061a8:	20000316 	blt	r4,zero,18061b8 <__hi0bits+0x50>
 18061ac:	2090002c 	andhi	r2,r4,16384
 18061b0:	10000626 	beq	r2,zero,18061cc <__hi0bits+0x64>
 18061b4:	18c00044 	addi	r3,r3,1
 18061b8:	1805883a 	mov	r2,r3
 18061bc:	f800283a 	ret
 18061c0:	2008943a 	slli	r4,r4,16
 18061c4:	00c00404 	movi	r3,16
 18061c8:	003fea06 	br	1806174 <__hi0bits+0xc>
 18061cc:	00c00804 	movi	r3,32
 18061d0:	1805883a 	mov	r2,r3
 18061d4:	f800283a 	ret

018061d8 <__lo0bits>:
 18061d8:	20c00017 	ldw	r3,0(r4)
 18061dc:	188001cc 	andi	r2,r3,7
 18061e0:	10000a26 	beq	r2,zero,180620c <__lo0bits+0x34>
 18061e4:	1880004c 	andi	r2,r3,1
 18061e8:	1005003a 	cmpeq	r2,r2,zero
 18061ec:	10002126 	beq	r2,zero,1806274 <__lo0bits+0x9c>
 18061f0:	1880008c 	andi	r2,r3,2
 18061f4:	1000251e 	bne	r2,zero,180628c <__lo0bits+0xb4>
 18061f8:	1804d0ba 	srli	r2,r3,2
 18061fc:	01400084 	movi	r5,2
 1806200:	20800015 	stw	r2,0(r4)
 1806204:	2805883a 	mov	r2,r5
 1806208:	f800283a 	ret
 180620c:	18bfffcc 	andi	r2,r3,65535
 1806210:	10001526 	beq	r2,zero,1806268 <__lo0bits+0x90>
 1806214:	000b883a 	mov	r5,zero
 1806218:	18803fcc 	andi	r2,r3,255
 180621c:	1000021e 	bne	r2,zero,1806228 <__lo0bits+0x50>
 1806220:	1806d23a 	srli	r3,r3,8
 1806224:	29400204 	addi	r5,r5,8
 1806228:	188003cc 	andi	r2,r3,15
 180622c:	1000021e 	bne	r2,zero,1806238 <__lo0bits+0x60>
 1806230:	1806d13a 	srli	r3,r3,4
 1806234:	29400104 	addi	r5,r5,4
 1806238:	188000cc 	andi	r2,r3,3
 180623c:	1000021e 	bne	r2,zero,1806248 <__lo0bits+0x70>
 1806240:	1806d0ba 	srli	r3,r3,2
 1806244:	29400084 	addi	r5,r5,2
 1806248:	1880004c 	andi	r2,r3,1
 180624c:	1000031e 	bne	r2,zero,180625c <__lo0bits+0x84>
 1806250:	1806d07a 	srli	r3,r3,1
 1806254:	18000a26 	beq	r3,zero,1806280 <__lo0bits+0xa8>
 1806258:	29400044 	addi	r5,r5,1
 180625c:	2805883a 	mov	r2,r5
 1806260:	20c00015 	stw	r3,0(r4)
 1806264:	f800283a 	ret
 1806268:	1806d43a 	srli	r3,r3,16
 180626c:	01400404 	movi	r5,16
 1806270:	003fe906 	br	1806218 <__lo0bits+0x40>
 1806274:	000b883a 	mov	r5,zero
 1806278:	2805883a 	mov	r2,r5
 180627c:	f800283a 	ret
 1806280:	01400804 	movi	r5,32
 1806284:	2805883a 	mov	r2,r5
 1806288:	f800283a 	ret
 180628c:	1804d07a 	srli	r2,r3,1
 1806290:	01400044 	movi	r5,1
 1806294:	20800015 	stw	r2,0(r4)
 1806298:	003fda06 	br	1806204 <__lo0bits+0x2c>

0180629c <__mcmp>:
 180629c:	20800417 	ldw	r2,16(r4)
 18062a0:	28c00417 	ldw	r3,16(r5)
 18062a4:	10cfc83a 	sub	r7,r2,r3
 18062a8:	38000c1e 	bne	r7,zero,18062dc <__mcmp+0x40>
 18062ac:	18c5883a 	add	r2,r3,r3
 18062b0:	1085883a 	add	r2,r2,r2
 18062b4:	10c00504 	addi	r3,r2,20
 18062b8:	21000504 	addi	r4,r4,20
 18062bc:	28cb883a 	add	r5,r5,r3
 18062c0:	2085883a 	add	r2,r4,r2
 18062c4:	10bfff04 	addi	r2,r2,-4
 18062c8:	297fff04 	addi	r5,r5,-4
 18062cc:	11800017 	ldw	r6,0(r2)
 18062d0:	28c00017 	ldw	r3,0(r5)
 18062d4:	30c0031e 	bne	r6,r3,18062e4 <__mcmp+0x48>
 18062d8:	20bffa36 	bltu	r4,r2,18062c4 <__mcmp+0x28>
 18062dc:	3805883a 	mov	r2,r7
 18062e0:	f800283a 	ret
 18062e4:	30c00336 	bltu	r6,r3,18062f4 <__mcmp+0x58>
 18062e8:	01c00044 	movi	r7,1
 18062ec:	3805883a 	mov	r2,r7
 18062f0:	f800283a 	ret
 18062f4:	01ffffc4 	movi	r7,-1
 18062f8:	003ff806 	br	18062dc <__mcmp+0x40>

018062fc <__ulp>:
 18062fc:	295ffc2c 	andhi	r5,r5,32752
 1806300:	013f3034 	movhi	r4,64704
 1806304:	290b883a 	add	r5,r5,r4
 1806308:	0145c83a 	sub	r2,zero,r5
 180630c:	1007d53a 	srai	r3,r2,20
 1806310:	000d883a 	mov	r6,zero
 1806314:	0140040e 	bge	zero,r5,1806328 <__ulp+0x2c>
 1806318:	280f883a 	mov	r7,r5
 180631c:	3807883a 	mov	r3,r7
 1806320:	3005883a 	mov	r2,r6
 1806324:	f800283a 	ret
 1806328:	008004c4 	movi	r2,19
 180632c:	193ffb04 	addi	r4,r3,-20
 1806330:	10c00c0e 	bge	r2,r3,1806364 <__ulp+0x68>
 1806334:	008007c4 	movi	r2,31
 1806338:	1107c83a 	sub	r3,r2,r4
 180633c:	00800784 	movi	r2,30
 1806340:	01400044 	movi	r5,1
 1806344:	11000216 	blt	r2,r4,1806350 <__ulp+0x54>
 1806348:	00800044 	movi	r2,1
 180634c:	10ca983a 	sll	r5,r2,r3
 1806350:	000f883a 	mov	r7,zero
 1806354:	280d883a 	mov	r6,r5
 1806358:	3807883a 	mov	r3,r7
 180635c:	3005883a 	mov	r2,r6
 1806360:	f800283a 	ret
 1806364:	00800234 	movhi	r2,8
 1806368:	10cfd83a 	sra	r7,r2,r3
 180636c:	000d883a 	mov	r6,zero
 1806370:	3005883a 	mov	r2,r6
 1806374:	3807883a 	mov	r3,r7
 1806378:	f800283a 	ret

0180637c <__b2d>:
 180637c:	20800417 	ldw	r2,16(r4)
 1806380:	defff904 	addi	sp,sp,-28
 1806384:	dd000415 	stw	r20,16(sp)
 1806388:	1085883a 	add	r2,r2,r2
 180638c:	25000504 	addi	r20,r4,20
 1806390:	1085883a 	add	r2,r2,r2
 1806394:	dc000015 	stw	r16,0(sp)
 1806398:	a0a1883a 	add	r16,r20,r2
 180639c:	dd400515 	stw	r21,20(sp)
 18063a0:	857fff17 	ldw	r21,-4(r16)
 18063a4:	dc400115 	stw	r17,4(sp)
 18063a8:	dfc00615 	stw	ra,24(sp)
 18063ac:	a809883a 	mov	r4,r21
 18063b0:	2823883a 	mov	r17,r5
 18063b4:	dcc00315 	stw	r19,12(sp)
 18063b8:	dc800215 	stw	r18,8(sp)
 18063bc:	18061680 	call	1806168 <__hi0bits>
 18063c0:	100b883a 	mov	r5,r2
 18063c4:	00800804 	movi	r2,32
 18063c8:	1145c83a 	sub	r2,r2,r5
 18063cc:	88800015 	stw	r2,0(r17)
 18063d0:	00800284 	movi	r2,10
 18063d4:	80ffff04 	addi	r3,r16,-4
 18063d8:	11401416 	blt	r2,r5,180642c <__b2d+0xb0>
 18063dc:	008002c4 	movi	r2,11
 18063e0:	1149c83a 	sub	r4,r2,r5
 18063e4:	a0c02736 	bltu	r20,r3,1806484 <__b2d+0x108>
 18063e8:	000d883a 	mov	r6,zero
 18063ec:	28800544 	addi	r2,r5,21
 18063f0:	a906d83a 	srl	r3,r21,r4
 18063f4:	a884983a 	sll	r2,r21,r2
 18063f8:	1ccffc34 	orhi	r19,r3,16368
 18063fc:	11a4b03a 	or	r18,r2,r6
 1806400:	9005883a 	mov	r2,r18
 1806404:	9807883a 	mov	r3,r19
 1806408:	dfc00617 	ldw	ra,24(sp)
 180640c:	dd400517 	ldw	r21,20(sp)
 1806410:	dd000417 	ldw	r20,16(sp)
 1806414:	dcc00317 	ldw	r19,12(sp)
 1806418:	dc800217 	ldw	r18,8(sp)
 180641c:	dc400117 	ldw	r17,4(sp)
 1806420:	dc000017 	ldw	r16,0(sp)
 1806424:	dec00704 	addi	sp,sp,28
 1806428:	f800283a 	ret
 180642c:	a0c00e36 	bltu	r20,r3,1806468 <__b2d+0xec>
 1806430:	293ffd44 	addi	r4,r5,-11
 1806434:	000d883a 	mov	r6,zero
 1806438:	20000f26 	beq	r4,zero,1806478 <__b2d+0xfc>
 180643c:	00800804 	movi	r2,32
 1806440:	110bc83a 	sub	r5,r2,r4
 1806444:	a0c01236 	bltu	r20,r3,1806490 <__b2d+0x114>
 1806448:	000f883a 	mov	r7,zero
 180644c:	a904983a 	sll	r2,r21,r4
 1806450:	3146d83a 	srl	r3,r6,r5
 1806454:	3108983a 	sll	r4,r6,r4
 1806458:	108ffc34 	orhi	r2,r2,16368
 180645c:	18a6b03a 	or	r19,r3,r2
 1806460:	3924b03a 	or	r18,r7,r4
 1806464:	003fe606 	br	1806400 <__b2d+0x84>
 1806468:	293ffd44 	addi	r4,r5,-11
 180646c:	81bffe17 	ldw	r6,-8(r16)
 1806470:	80fffe04 	addi	r3,r16,-8
 1806474:	203ff11e 	bne	r4,zero,180643c <__b2d+0xc0>
 1806478:	accffc34 	orhi	r19,r21,16368
 180647c:	3025883a 	mov	r18,r6
 1806480:	003fdf06 	br	1806400 <__b2d+0x84>
 1806484:	18bfff17 	ldw	r2,-4(r3)
 1806488:	110cd83a 	srl	r6,r2,r4
 180648c:	003fd706 	br	18063ec <__b2d+0x70>
 1806490:	18bfff17 	ldw	r2,-4(r3)
 1806494:	114ed83a 	srl	r7,r2,r5
 1806498:	003fec06 	br	180644c <__b2d+0xd0>

0180649c <__ratio>:
 180649c:	defff904 	addi	sp,sp,-28
 18064a0:	dc400215 	stw	r17,8(sp)
 18064a4:	2823883a 	mov	r17,r5
 18064a8:	d80b883a 	mov	r5,sp
 18064ac:	dfc00615 	stw	ra,24(sp)
 18064b0:	dd000515 	stw	r20,20(sp)
 18064b4:	dcc00415 	stw	r19,16(sp)
 18064b8:	dc800315 	stw	r18,12(sp)
 18064bc:	2025883a 	mov	r18,r4
 18064c0:	180637c0 	call	180637c <__b2d>
 18064c4:	8809883a 	mov	r4,r17
 18064c8:	d9400104 	addi	r5,sp,4
 18064cc:	1027883a 	mov	r19,r2
 18064d0:	1829883a 	mov	r20,r3
 18064d4:	180637c0 	call	180637c <__b2d>
 18064d8:	89000417 	ldw	r4,16(r17)
 18064dc:	91c00417 	ldw	r7,16(r18)
 18064e0:	d9800117 	ldw	r6,4(sp)
 18064e4:	180b883a 	mov	r5,r3
 18064e8:	390fc83a 	sub	r7,r7,r4
 18064ec:	1009883a 	mov	r4,r2
 18064f0:	d8800017 	ldw	r2,0(sp)
 18064f4:	380e917a 	slli	r7,r7,5
 18064f8:	2011883a 	mov	r8,r4
 18064fc:	1185c83a 	sub	r2,r2,r6
 1806500:	11c5883a 	add	r2,r2,r7
 1806504:	1006953a 	slli	r3,r2,20
 1806508:	2813883a 	mov	r9,r5
 180650c:	00800d0e 	bge	zero,r2,1806544 <__ratio+0xa8>
 1806510:	1d29883a 	add	r20,r3,r20
 1806514:	a00b883a 	mov	r5,r20
 1806518:	480f883a 	mov	r7,r9
 180651c:	9809883a 	mov	r4,r19
 1806520:	400d883a 	mov	r6,r8
 1806524:	18092f80 	call	18092f8 <__divdf3>
 1806528:	dfc00617 	ldw	ra,24(sp)
 180652c:	dd000517 	ldw	r20,20(sp)
 1806530:	dcc00417 	ldw	r19,16(sp)
 1806534:	dc800317 	ldw	r18,12(sp)
 1806538:	dc400217 	ldw	r17,8(sp)
 180653c:	dec00704 	addi	sp,sp,28
 1806540:	f800283a 	ret
 1806544:	28d3c83a 	sub	r9,r5,r3
 1806548:	003ff206 	br	1806514 <__ratio+0x78>

0180654c <_mprec_log10>:
 180654c:	defffe04 	addi	sp,sp,-8
 1806550:	008005c4 	movi	r2,23
 1806554:	dc000015 	stw	r16,0(sp)
 1806558:	dfc00115 	stw	ra,4(sp)
 180655c:	2021883a 	mov	r16,r4
 1806560:	11000c16 	blt	r2,r4,1806594 <_mprec_log10+0x48>
 1806564:	200490fa 	slli	r2,r4,3
 1806568:	00c06074 	movhi	r3,385
 180656c:	18c3fd04 	addi	r3,r3,4084
 1806570:	10c5883a 	add	r2,r2,r3
 1806574:	12400117 	ldw	r9,4(r2)
 1806578:	12000017 	ldw	r8,0(r2)
 180657c:	4807883a 	mov	r3,r9
 1806580:	4005883a 	mov	r2,r8
 1806584:	dfc00117 	ldw	ra,4(sp)
 1806588:	dc000017 	ldw	r16,0(sp)
 180658c:	dec00204 	addi	sp,sp,8
 1806590:	f800283a 	ret
 1806594:	0011883a 	mov	r8,zero
 1806598:	024ffc34 	movhi	r9,16368
 180659c:	0005883a 	mov	r2,zero
 18065a0:	00d00934 	movhi	r3,16420
 18065a4:	480b883a 	mov	r5,r9
 18065a8:	4009883a 	mov	r4,r8
 18065ac:	180f883a 	mov	r7,r3
 18065b0:	100d883a 	mov	r6,r2
 18065b4:	1808f340 	call	1808f34 <__muldf3>
 18065b8:	843fffc4 	addi	r16,r16,-1
 18065bc:	1011883a 	mov	r8,r2
 18065c0:	1813883a 	mov	r9,r3
 18065c4:	803ff51e 	bne	r16,zero,180659c <_mprec_log10+0x50>
 18065c8:	4005883a 	mov	r2,r8
 18065cc:	4807883a 	mov	r3,r9
 18065d0:	dfc00117 	ldw	ra,4(sp)
 18065d4:	dc000017 	ldw	r16,0(sp)
 18065d8:	dec00204 	addi	sp,sp,8
 18065dc:	f800283a 	ret

018065e0 <__copybits>:
 18065e0:	297fffc4 	addi	r5,r5,-1
 18065e4:	30800417 	ldw	r2,16(r6)
 18065e8:	280bd17a 	srai	r5,r5,5
 18065ec:	31800504 	addi	r6,r6,20
 18065f0:	1085883a 	add	r2,r2,r2
 18065f4:	294b883a 	add	r5,r5,r5
 18065f8:	294b883a 	add	r5,r5,r5
 18065fc:	1085883a 	add	r2,r2,r2
 1806600:	290b883a 	add	r5,r5,r4
 1806604:	3087883a 	add	r3,r6,r2
 1806608:	29400104 	addi	r5,r5,4
 180660c:	30c0052e 	bgeu	r6,r3,1806624 <__copybits+0x44>
 1806610:	30800017 	ldw	r2,0(r6)
 1806614:	31800104 	addi	r6,r6,4
 1806618:	20800015 	stw	r2,0(r4)
 180661c:	21000104 	addi	r4,r4,4
 1806620:	30fffb36 	bltu	r6,r3,1806610 <__copybits+0x30>
 1806624:	2140032e 	bgeu	r4,r5,1806634 <__copybits+0x54>
 1806628:	20000015 	stw	zero,0(r4)
 180662c:	21000104 	addi	r4,r4,4
 1806630:	217ffd36 	bltu	r4,r5,1806628 <__copybits+0x48>
 1806634:	f800283a 	ret

01806638 <__any_on>:
 1806638:	20800417 	ldw	r2,16(r4)
 180663c:	2807d17a 	srai	r3,r5,5
 1806640:	21000504 	addi	r4,r4,20
 1806644:	10c00d0e 	bge	r2,r3,180667c <__any_on+0x44>
 1806648:	1085883a 	add	r2,r2,r2
 180664c:	1085883a 	add	r2,r2,r2
 1806650:	208d883a 	add	r6,r4,r2
 1806654:	2180182e 	bgeu	r4,r6,18066b8 <__any_on+0x80>
 1806658:	30bfff17 	ldw	r2,-4(r6)
 180665c:	30ffff04 	addi	r3,r6,-4
 1806660:	1000041e 	bne	r2,zero,1806674 <__any_on+0x3c>
 1806664:	20c0142e 	bgeu	r4,r3,18066b8 <__any_on+0x80>
 1806668:	18ffff04 	addi	r3,r3,-4
 180666c:	18800017 	ldw	r2,0(r3)
 1806670:	103ffc26 	beq	r2,zero,1806664 <__any_on+0x2c>
 1806674:	00800044 	movi	r2,1
 1806678:	f800283a 	ret
 180667c:	18800a0e 	bge	r3,r2,18066a8 <__any_on+0x70>
 1806680:	294007cc 	andi	r5,r5,31
 1806684:	28000826 	beq	r5,zero,18066a8 <__any_on+0x70>
 1806688:	18c5883a 	add	r2,r3,r3
 180668c:	1085883a 	add	r2,r2,r2
 1806690:	208d883a 	add	r6,r4,r2
 1806694:	30c00017 	ldw	r3,0(r6)
 1806698:	1944d83a 	srl	r2,r3,r5
 180669c:	1144983a 	sll	r2,r2,r5
 18066a0:	18bff41e 	bne	r3,r2,1806674 <__any_on+0x3c>
 18066a4:	003feb06 	br	1806654 <__any_on+0x1c>
 18066a8:	18c5883a 	add	r2,r3,r3
 18066ac:	1085883a 	add	r2,r2,r2
 18066b0:	208d883a 	add	r6,r4,r2
 18066b4:	003fe706 	br	1806654 <__any_on+0x1c>
 18066b8:	0005883a 	mov	r2,zero
 18066bc:	f800283a 	ret

018066c0 <_Balloc>:
 18066c0:	20c01317 	ldw	r3,76(r4)
 18066c4:	defffb04 	addi	sp,sp,-20
 18066c8:	dcc00315 	stw	r19,12(sp)
 18066cc:	dc800215 	stw	r18,8(sp)
 18066d0:	dfc00415 	stw	ra,16(sp)
 18066d4:	2825883a 	mov	r18,r5
 18066d8:	dc400115 	stw	r17,4(sp)
 18066dc:	dc000015 	stw	r16,0(sp)
 18066e0:	2027883a 	mov	r19,r4
 18066e4:	01800404 	movi	r6,16
 18066e8:	01400104 	movi	r5,4
 18066ec:	18001726 	beq	r3,zero,180674c <_Balloc+0x8c>
 18066f0:	01400044 	movi	r5,1
 18066f4:	9485883a 	add	r2,r18,r18
 18066f8:	2ca2983a 	sll	r17,r5,r18
 18066fc:	1085883a 	add	r2,r2,r2
 1806700:	10c7883a 	add	r3,r2,r3
 1806704:	1c000017 	ldw	r16,0(r3)
 1806708:	8c4d883a 	add	r6,r17,r17
 180670c:	318d883a 	add	r6,r6,r6
 1806710:	9809883a 	mov	r4,r19
 1806714:	31800504 	addi	r6,r6,20
 1806718:	80001226 	beq	r16,zero,1806764 <_Balloc+0xa4>
 180671c:	80800017 	ldw	r2,0(r16)
 1806720:	18800015 	stw	r2,0(r3)
 1806724:	80000415 	stw	zero,16(r16)
 1806728:	80000315 	stw	zero,12(r16)
 180672c:	8005883a 	mov	r2,r16
 1806730:	dfc00417 	ldw	ra,16(sp)
 1806734:	dcc00317 	ldw	r19,12(sp)
 1806738:	dc800217 	ldw	r18,8(sp)
 180673c:	dc400117 	ldw	r17,4(sp)
 1806740:	dc000017 	ldw	r16,0(sp)
 1806744:	dec00504 	addi	sp,sp,20
 1806748:	f800283a 	ret
 180674c:	1807a880 	call	1807a88 <_calloc_r>
 1806750:	1007883a 	mov	r3,r2
 1806754:	0021883a 	mov	r16,zero
 1806758:	98801315 	stw	r2,76(r19)
 180675c:	103fe41e 	bne	r2,zero,18066f0 <_Balloc+0x30>
 1806760:	003ff206 	br	180672c <_Balloc+0x6c>
 1806764:	1807a880 	call	1807a88 <_calloc_r>
 1806768:	103ff026 	beq	r2,zero,180672c <_Balloc+0x6c>
 180676c:	1021883a 	mov	r16,r2
 1806770:	14800115 	stw	r18,4(r2)
 1806774:	14400215 	stw	r17,8(r2)
 1806778:	003fea06 	br	1806724 <_Balloc+0x64>

0180677c <__d2b>:
 180677c:	defff504 	addi	sp,sp,-44
 1806780:	dcc00515 	stw	r19,20(sp)
 1806784:	04c00044 	movi	r19,1
 1806788:	dc000215 	stw	r16,8(sp)
 180678c:	2821883a 	mov	r16,r5
 1806790:	980b883a 	mov	r5,r19
 1806794:	ddc00915 	stw	r23,36(sp)
 1806798:	dd800815 	stw	r22,32(sp)
 180679c:	dd400715 	stw	r21,28(sp)
 18067a0:	dd000615 	stw	r20,24(sp)
 18067a4:	dc800415 	stw	r18,16(sp)
 18067a8:	dc400315 	stw	r17,12(sp)
 18067ac:	dfc00a15 	stw	ra,40(sp)
 18067b0:	3023883a 	mov	r17,r6
 18067b4:	382d883a 	mov	r22,r7
 18067b8:	ddc00b17 	ldw	r23,44(sp)
 18067bc:	18066c00 	call	18066c0 <_Balloc>
 18067c0:	1025883a 	mov	r18,r2
 18067c4:	00a00034 	movhi	r2,32768
 18067c8:	10bfffc4 	addi	r2,r2,-1
 18067cc:	8888703a 	and	r4,r17,r2
 18067d0:	202ad53a 	srli	r21,r4,20
 18067d4:	00800434 	movhi	r2,16
 18067d8:	10bfffc4 	addi	r2,r2,-1
 18067dc:	8886703a 	and	r3,r17,r2
 18067e0:	a829003a 	cmpeq	r20,r21,zero
 18067e4:	800b883a 	mov	r5,r16
 18067e8:	d8c00115 	stw	r3,4(sp)
 18067ec:	94000504 	addi	r16,r18,20
 18067f0:	a000021e 	bne	r20,zero,18067fc <__d2b+0x80>
 18067f4:	18c00434 	orhi	r3,r3,16
 18067f8:	d8c00115 	stw	r3,4(sp)
 18067fc:	28002726 	beq	r5,zero,180689c <__d2b+0x120>
 1806800:	d809883a 	mov	r4,sp
 1806804:	d9400015 	stw	r5,0(sp)
 1806808:	18061d80 	call	18061d8 <__lo0bits>
 180680c:	100d883a 	mov	r6,r2
 1806810:	10003526 	beq	r2,zero,18068e8 <__d2b+0x16c>
 1806814:	d8c00117 	ldw	r3,4(sp)
 1806818:	00800804 	movi	r2,32
 180681c:	1185c83a 	sub	r2,r2,r6
 1806820:	d9000017 	ldw	r4,0(sp)
 1806824:	1886983a 	sll	r3,r3,r2
 1806828:	1906b03a 	or	r3,r3,r4
 180682c:	90c00515 	stw	r3,20(r18)
 1806830:	d8c00117 	ldw	r3,4(sp)
 1806834:	1986d83a 	srl	r3,r3,r6
 1806838:	d8c00115 	stw	r3,4(sp)
 180683c:	180b003a 	cmpeq	r5,r3,zero
 1806840:	00800084 	movi	r2,2
 1806844:	114bc83a 	sub	r5,r2,r5
 1806848:	80c00115 	stw	r3,4(r16)
 180684c:	91400415 	stw	r5,16(r18)
 1806850:	a0001a1e 	bne	r20,zero,18068bc <__d2b+0x140>
 1806854:	3545883a 	add	r2,r6,r21
 1806858:	10bef344 	addi	r2,r2,-1075
 180685c:	00c00d44 	movi	r3,53
 1806860:	b0800015 	stw	r2,0(r22)
 1806864:	1987c83a 	sub	r3,r3,r6
 1806868:	b8c00015 	stw	r3,0(r23)
 180686c:	9005883a 	mov	r2,r18
 1806870:	dfc00a17 	ldw	ra,40(sp)
 1806874:	ddc00917 	ldw	r23,36(sp)
 1806878:	dd800817 	ldw	r22,32(sp)
 180687c:	dd400717 	ldw	r21,28(sp)
 1806880:	dd000617 	ldw	r20,24(sp)
 1806884:	dcc00517 	ldw	r19,20(sp)
 1806888:	dc800417 	ldw	r18,16(sp)
 180688c:	dc400317 	ldw	r17,12(sp)
 1806890:	dc000217 	ldw	r16,8(sp)
 1806894:	dec00b04 	addi	sp,sp,44
 1806898:	f800283a 	ret
 180689c:	d9000104 	addi	r4,sp,4
 18068a0:	18061d80 	call	18061d8 <__lo0bits>
 18068a4:	11800804 	addi	r6,r2,32
 18068a8:	d8800117 	ldw	r2,4(sp)
 18068ac:	94c00415 	stw	r19,16(r18)
 18068b0:	980b883a 	mov	r5,r19
 18068b4:	90800515 	stw	r2,20(r18)
 18068b8:	a03fe626 	beq	r20,zero,1806854 <__d2b+0xd8>
 18068bc:	2945883a 	add	r2,r5,r5
 18068c0:	1085883a 	add	r2,r2,r2
 18068c4:	1405883a 	add	r2,r2,r16
 18068c8:	113fff17 	ldw	r4,-4(r2)
 18068cc:	30fef384 	addi	r3,r6,-1074
 18068d0:	2820917a 	slli	r16,r5,5
 18068d4:	b0c00015 	stw	r3,0(r22)
 18068d8:	18061680 	call	1806168 <__hi0bits>
 18068dc:	80a1c83a 	sub	r16,r16,r2
 18068e0:	bc000015 	stw	r16,0(r23)
 18068e4:	003fe106 	br	180686c <__d2b+0xf0>
 18068e8:	d8800017 	ldw	r2,0(sp)
 18068ec:	90800515 	stw	r2,20(r18)
 18068f0:	d8c00117 	ldw	r3,4(sp)
 18068f4:	003fd106 	br	180683c <__d2b+0xc0>

018068f8 <__mdiff>:
 18068f8:	defffb04 	addi	sp,sp,-20
 18068fc:	dc000015 	stw	r16,0(sp)
 1806900:	2821883a 	mov	r16,r5
 1806904:	dc800215 	stw	r18,8(sp)
 1806908:	300b883a 	mov	r5,r6
 180690c:	2025883a 	mov	r18,r4
 1806910:	8009883a 	mov	r4,r16
 1806914:	dc400115 	stw	r17,4(sp)
 1806918:	dfc00415 	stw	ra,16(sp)
 180691c:	dcc00315 	stw	r19,12(sp)
 1806920:	3023883a 	mov	r17,r6
 1806924:	180629c0 	call	180629c <__mcmp>
 1806928:	10004226 	beq	r2,zero,1806a34 <__mdiff+0x13c>
 180692c:	10005016 	blt	r2,zero,1806a70 <__mdiff+0x178>
 1806930:	0027883a 	mov	r19,zero
 1806934:	81400117 	ldw	r5,4(r16)
 1806938:	9009883a 	mov	r4,r18
 180693c:	18066c00 	call	18066c0 <_Balloc>
 1806940:	1019883a 	mov	r12,r2
 1806944:	82800417 	ldw	r10,16(r16)
 1806948:	88800417 	ldw	r2,16(r17)
 180694c:	81800504 	addi	r6,r16,20
 1806950:	5287883a 	add	r3,r10,r10
 1806954:	1085883a 	add	r2,r2,r2
 1806958:	18c7883a 	add	r3,r3,r3
 180695c:	1085883a 	add	r2,r2,r2
 1806960:	8a000504 	addi	r8,r17,20
 1806964:	64c00315 	stw	r19,12(r12)
 1806968:	30db883a 	add	r13,r6,r3
 180696c:	4097883a 	add	r11,r8,r2
 1806970:	61c00504 	addi	r7,r12,20
 1806974:	0013883a 	mov	r9,zero
 1806978:	31000017 	ldw	r4,0(r6)
 180697c:	41400017 	ldw	r5,0(r8)
 1806980:	42000104 	addi	r8,r8,4
 1806984:	20bfffcc 	andi	r2,r4,65535
 1806988:	28ffffcc 	andi	r3,r5,65535
 180698c:	10c5c83a 	sub	r2,r2,r3
 1806990:	1245883a 	add	r2,r2,r9
 1806994:	2008d43a 	srli	r4,r4,16
 1806998:	280ad43a 	srli	r5,r5,16
 180699c:	1007d43a 	srai	r3,r2,16
 18069a0:	3880000d 	sth	r2,0(r7)
 18069a4:	2149c83a 	sub	r4,r4,r5
 18069a8:	20c9883a 	add	r4,r4,r3
 18069ac:	3900008d 	sth	r4,2(r7)
 18069b0:	31800104 	addi	r6,r6,4
 18069b4:	39c00104 	addi	r7,r7,4
 18069b8:	2013d43a 	srai	r9,r4,16
 18069bc:	42ffee36 	bltu	r8,r11,1806978 <__mdiff+0x80>
 18069c0:	33400c2e 	bgeu	r6,r13,18069f4 <__mdiff+0xfc>
 18069c4:	30800017 	ldw	r2,0(r6)
 18069c8:	31800104 	addi	r6,r6,4
 18069cc:	10ffffcc 	andi	r3,r2,65535
 18069d0:	1a47883a 	add	r3,r3,r9
 18069d4:	1004d43a 	srli	r2,r2,16
 18069d8:	1809d43a 	srai	r4,r3,16
 18069dc:	38c0000d 	sth	r3,0(r7)
 18069e0:	1105883a 	add	r2,r2,r4
 18069e4:	3880008d 	sth	r2,2(r7)
 18069e8:	1013d43a 	srai	r9,r2,16
 18069ec:	39c00104 	addi	r7,r7,4
 18069f0:	337ff436 	bltu	r6,r13,18069c4 <__mdiff+0xcc>
 18069f4:	38bfff17 	ldw	r2,-4(r7)
 18069f8:	38ffff04 	addi	r3,r7,-4
 18069fc:	1000041e 	bne	r2,zero,1806a10 <__mdiff+0x118>
 1806a00:	18ffff04 	addi	r3,r3,-4
 1806a04:	18800017 	ldw	r2,0(r3)
 1806a08:	52bfffc4 	addi	r10,r10,-1
 1806a0c:	103ffc26 	beq	r2,zero,1806a00 <__mdiff+0x108>
 1806a10:	6005883a 	mov	r2,r12
 1806a14:	62800415 	stw	r10,16(r12)
 1806a18:	dfc00417 	ldw	ra,16(sp)
 1806a1c:	dcc00317 	ldw	r19,12(sp)
 1806a20:	dc800217 	ldw	r18,8(sp)
 1806a24:	dc400117 	ldw	r17,4(sp)
 1806a28:	dc000017 	ldw	r16,0(sp)
 1806a2c:	dec00504 	addi	sp,sp,20
 1806a30:	f800283a 	ret
 1806a34:	9009883a 	mov	r4,r18
 1806a38:	000b883a 	mov	r5,zero
 1806a3c:	18066c00 	call	18066c0 <_Balloc>
 1806a40:	1019883a 	mov	r12,r2
 1806a44:	00800044 	movi	r2,1
 1806a48:	60800415 	stw	r2,16(r12)
 1806a4c:	6005883a 	mov	r2,r12
 1806a50:	60000515 	stw	zero,20(r12)
 1806a54:	dfc00417 	ldw	ra,16(sp)
 1806a58:	dcc00317 	ldw	r19,12(sp)
 1806a5c:	dc800217 	ldw	r18,8(sp)
 1806a60:	dc400117 	ldw	r17,4(sp)
 1806a64:	dc000017 	ldw	r16,0(sp)
 1806a68:	dec00504 	addi	sp,sp,20
 1806a6c:	f800283a 	ret
 1806a70:	880d883a 	mov	r6,r17
 1806a74:	04c00044 	movi	r19,1
 1806a78:	8023883a 	mov	r17,r16
 1806a7c:	3021883a 	mov	r16,r6
 1806a80:	003fac06 	br	1806934 <__mdiff+0x3c>

01806a84 <__lshift>:
 1806a84:	defff904 	addi	sp,sp,-28
 1806a88:	28800417 	ldw	r2,16(r5)
 1806a8c:	dc000015 	stw	r16,0(sp)
 1806a90:	3021d17a 	srai	r16,r6,5
 1806a94:	28c00217 	ldw	r3,8(r5)
 1806a98:	10800044 	addi	r2,r2,1
 1806a9c:	dc400115 	stw	r17,4(sp)
 1806aa0:	80a3883a 	add	r17,r16,r2
 1806aa4:	dd400515 	stw	r21,20(sp)
 1806aa8:	dd000415 	stw	r20,16(sp)
 1806aac:	dc800215 	stw	r18,8(sp)
 1806ab0:	dfc00615 	stw	ra,24(sp)
 1806ab4:	2825883a 	mov	r18,r5
 1806ab8:	dcc00315 	stw	r19,12(sp)
 1806abc:	3029883a 	mov	r20,r6
 1806ac0:	202b883a 	mov	r21,r4
 1806ac4:	29400117 	ldw	r5,4(r5)
 1806ac8:	1c40030e 	bge	r3,r17,1806ad8 <__lshift+0x54>
 1806acc:	18c7883a 	add	r3,r3,r3
 1806ad0:	29400044 	addi	r5,r5,1
 1806ad4:	1c7ffd16 	blt	r3,r17,1806acc <__lshift+0x48>
 1806ad8:	a809883a 	mov	r4,r21
 1806adc:	18066c00 	call	18066c0 <_Balloc>
 1806ae0:	1027883a 	mov	r19,r2
 1806ae4:	11400504 	addi	r5,r2,20
 1806ae8:	0400090e 	bge	zero,r16,1806b10 <__lshift+0x8c>
 1806aec:	2805883a 	mov	r2,r5
 1806af0:	0007883a 	mov	r3,zero
 1806af4:	18c00044 	addi	r3,r3,1
 1806af8:	10000015 	stw	zero,0(r2)
 1806afc:	10800104 	addi	r2,r2,4
 1806b00:	80fffc1e 	bne	r16,r3,1806af4 <__lshift+0x70>
 1806b04:	8405883a 	add	r2,r16,r16
 1806b08:	1085883a 	add	r2,r2,r2
 1806b0c:	288b883a 	add	r5,r5,r2
 1806b10:	90800417 	ldw	r2,16(r18)
 1806b14:	91000504 	addi	r4,r18,20
 1806b18:	a18007cc 	andi	r6,r20,31
 1806b1c:	1085883a 	add	r2,r2,r2
 1806b20:	1085883a 	add	r2,r2,r2
 1806b24:	208f883a 	add	r7,r4,r2
 1806b28:	30001e26 	beq	r6,zero,1806ba4 <__lshift+0x120>
 1806b2c:	00800804 	movi	r2,32
 1806b30:	1191c83a 	sub	r8,r2,r6
 1806b34:	0007883a 	mov	r3,zero
 1806b38:	20800017 	ldw	r2,0(r4)
 1806b3c:	1184983a 	sll	r2,r2,r6
 1806b40:	1884b03a 	or	r2,r3,r2
 1806b44:	28800015 	stw	r2,0(r5)
 1806b48:	20c00017 	ldw	r3,0(r4)
 1806b4c:	21000104 	addi	r4,r4,4
 1806b50:	29400104 	addi	r5,r5,4
 1806b54:	1a06d83a 	srl	r3,r3,r8
 1806b58:	21fff736 	bltu	r4,r7,1806b38 <__lshift+0xb4>
 1806b5c:	28c00015 	stw	r3,0(r5)
 1806b60:	18000126 	beq	r3,zero,1806b68 <__lshift+0xe4>
 1806b64:	8c400044 	addi	r17,r17,1
 1806b68:	88bfffc4 	addi	r2,r17,-1
 1806b6c:	98800415 	stw	r2,16(r19)
 1806b70:	a809883a 	mov	r4,r21
 1806b74:	900b883a 	mov	r5,r18
 1806b78:	18061400 	call	1806140 <_Bfree>
 1806b7c:	9805883a 	mov	r2,r19
 1806b80:	dfc00617 	ldw	ra,24(sp)
 1806b84:	dd400517 	ldw	r21,20(sp)
 1806b88:	dd000417 	ldw	r20,16(sp)
 1806b8c:	dcc00317 	ldw	r19,12(sp)
 1806b90:	dc800217 	ldw	r18,8(sp)
 1806b94:	dc400117 	ldw	r17,4(sp)
 1806b98:	dc000017 	ldw	r16,0(sp)
 1806b9c:	dec00704 	addi	sp,sp,28
 1806ba0:	f800283a 	ret
 1806ba4:	20800017 	ldw	r2,0(r4)
 1806ba8:	21000104 	addi	r4,r4,4
 1806bac:	28800015 	stw	r2,0(r5)
 1806bb0:	29400104 	addi	r5,r5,4
 1806bb4:	21ffec2e 	bgeu	r4,r7,1806b68 <__lshift+0xe4>
 1806bb8:	20800017 	ldw	r2,0(r4)
 1806bbc:	21000104 	addi	r4,r4,4
 1806bc0:	28800015 	stw	r2,0(r5)
 1806bc4:	29400104 	addi	r5,r5,4
 1806bc8:	21fff636 	bltu	r4,r7,1806ba4 <__lshift+0x120>
 1806bcc:	003fe606 	br	1806b68 <__lshift+0xe4>

01806bd0 <__multiply>:
 1806bd0:	defff904 	addi	sp,sp,-28
 1806bd4:	dcc00315 	stw	r19,12(sp)
 1806bd8:	dc800215 	stw	r18,8(sp)
 1806bdc:	2cc00417 	ldw	r19,16(r5)
 1806be0:	34800417 	ldw	r18,16(r6)
 1806be4:	dd000415 	stw	r20,16(sp)
 1806be8:	dc400115 	stw	r17,4(sp)
 1806bec:	dfc00615 	stw	ra,24(sp)
 1806bf0:	dd400515 	stw	r21,20(sp)
 1806bf4:	dc000015 	stw	r16,0(sp)
 1806bf8:	2823883a 	mov	r17,r5
 1806bfc:	3029883a 	mov	r20,r6
 1806c00:	9c80040e 	bge	r19,r18,1806c14 <__multiply+0x44>
 1806c04:	9027883a 	mov	r19,r18
 1806c08:	2c800417 	ldw	r18,16(r5)
 1806c0c:	2829883a 	mov	r20,r5
 1806c10:	3023883a 	mov	r17,r6
 1806c14:	88800217 	ldw	r2,8(r17)
 1806c18:	9ca1883a 	add	r16,r19,r18
 1806c1c:	89400117 	ldw	r5,4(r17)
 1806c20:	1400010e 	bge	r2,r16,1806c28 <__multiply+0x58>
 1806c24:	29400044 	addi	r5,r5,1
 1806c28:	18066c00 	call	18066c0 <_Balloc>
 1806c2c:	102b883a 	mov	r21,r2
 1806c30:	8405883a 	add	r2,r16,r16
 1806c34:	1085883a 	add	r2,r2,r2
 1806c38:	a9000504 	addi	r4,r21,20
 1806c3c:	209d883a 	add	r14,r4,r2
 1806c40:	2380042e 	bgeu	r4,r14,1806c54 <__multiply+0x84>
 1806c44:	2005883a 	mov	r2,r4
 1806c48:	10000015 	stw	zero,0(r2)
 1806c4c:	10800104 	addi	r2,r2,4
 1806c50:	13bffd36 	bltu	r2,r14,1806c48 <__multiply+0x78>
 1806c54:	9485883a 	add	r2,r18,r18
 1806c58:	9cc7883a 	add	r3,r19,r19
 1806c5c:	a1800504 	addi	r6,r20,20
 1806c60:	1085883a 	add	r2,r2,r2
 1806c64:	8b400504 	addi	r13,r17,20
 1806c68:	18c7883a 	add	r3,r3,r3
 1806c6c:	309f883a 	add	r15,r6,r2
 1806c70:	68d7883a 	add	r11,r13,r3
 1806c74:	33c03b2e 	bgeu	r6,r15,1806d64 <__multiply+0x194>
 1806c78:	2019883a 	mov	r12,r4
 1806c7c:	30800017 	ldw	r2,0(r6)
 1806c80:	127fffcc 	andi	r9,r2,65535
 1806c84:	48001826 	beq	r9,zero,1806ce8 <__multiply+0x118>
 1806c88:	6811883a 	mov	r8,r13
 1806c8c:	600f883a 	mov	r7,r12
 1806c90:	0015883a 	mov	r10,zero
 1806c94:	40c00017 	ldw	r3,0(r8)
 1806c98:	39400017 	ldw	r5,0(r7)
 1806c9c:	42000104 	addi	r8,r8,4
 1806ca0:	193fffcc 	andi	r4,r3,65535
 1806ca4:	4909383a 	mul	r4,r9,r4
 1806ca8:	1806d43a 	srli	r3,r3,16
 1806cac:	28bfffcc 	andi	r2,r5,65535
 1806cb0:	5085883a 	add	r2,r10,r2
 1806cb4:	2089883a 	add	r4,r4,r2
 1806cb8:	48c7383a 	mul	r3,r9,r3
 1806cbc:	280ad43a 	srli	r5,r5,16
 1806cc0:	2004d43a 	srli	r2,r4,16
 1806cc4:	3900000d 	sth	r4,0(r7)
 1806cc8:	1947883a 	add	r3,r3,r5
 1806ccc:	10c5883a 	add	r2,r2,r3
 1806cd0:	3880008d 	sth	r2,2(r7)
 1806cd4:	1014d43a 	srli	r10,r2,16
 1806cd8:	39c00104 	addi	r7,r7,4
 1806cdc:	42ffed36 	bltu	r8,r11,1806c94 <__multiply+0xc4>
 1806ce0:	3a800015 	stw	r10,0(r7)
 1806ce4:	30800017 	ldw	r2,0(r6)
 1806ce8:	1012d43a 	srli	r9,r2,16
 1806cec:	48001926 	beq	r9,zero,1806d54 <__multiply+0x184>
 1806cf0:	60800017 	ldw	r2,0(r12)
 1806cf4:	6811883a 	mov	r8,r13
 1806cf8:	600f883a 	mov	r7,r12
 1806cfc:	0015883a 	mov	r10,zero
 1806d00:	100b883a 	mov	r5,r2
 1806d04:	41000017 	ldw	r4,0(r8)
 1806d08:	2806d43a 	srli	r3,r5,16
 1806d0c:	3880000d 	sth	r2,0(r7)
 1806d10:	20bfffcc 	andi	r2,r4,65535
 1806d14:	4885383a 	mul	r2,r9,r2
 1806d18:	50c7883a 	add	r3,r10,r3
 1806d1c:	2008d43a 	srli	r4,r4,16
 1806d20:	10c5883a 	add	r2,r2,r3
 1806d24:	3880008d 	sth	r2,2(r7)
 1806d28:	39c00104 	addi	r7,r7,4
 1806d2c:	39400017 	ldw	r5,0(r7)
 1806d30:	4909383a 	mul	r4,r9,r4
 1806d34:	1004d43a 	srli	r2,r2,16
 1806d38:	28ffffcc 	andi	r3,r5,65535
 1806d3c:	20c9883a 	add	r4,r4,r3
 1806d40:	1105883a 	add	r2,r2,r4
 1806d44:	42000104 	addi	r8,r8,4
 1806d48:	1014d43a 	srli	r10,r2,16
 1806d4c:	42ffed36 	bltu	r8,r11,1806d04 <__multiply+0x134>
 1806d50:	38800015 	stw	r2,0(r7)
 1806d54:	31800104 	addi	r6,r6,4
 1806d58:	33c0022e 	bgeu	r6,r15,1806d64 <__multiply+0x194>
 1806d5c:	63000104 	addi	r12,r12,4
 1806d60:	003fc606 	br	1806c7c <__multiply+0xac>
 1806d64:	0400090e 	bge	zero,r16,1806d8c <__multiply+0x1bc>
 1806d68:	70bfff17 	ldw	r2,-4(r14)
 1806d6c:	70ffff04 	addi	r3,r14,-4
 1806d70:	10000326 	beq	r2,zero,1806d80 <__multiply+0x1b0>
 1806d74:	00000506 	br	1806d8c <__multiply+0x1bc>
 1806d78:	18800017 	ldw	r2,0(r3)
 1806d7c:	1000031e 	bne	r2,zero,1806d8c <__multiply+0x1bc>
 1806d80:	843fffc4 	addi	r16,r16,-1
 1806d84:	18ffff04 	addi	r3,r3,-4
 1806d88:	803ffb1e 	bne	r16,zero,1806d78 <__multiply+0x1a8>
 1806d8c:	a805883a 	mov	r2,r21
 1806d90:	ac000415 	stw	r16,16(r21)
 1806d94:	dfc00617 	ldw	ra,24(sp)
 1806d98:	dd400517 	ldw	r21,20(sp)
 1806d9c:	dd000417 	ldw	r20,16(sp)
 1806da0:	dcc00317 	ldw	r19,12(sp)
 1806da4:	dc800217 	ldw	r18,8(sp)
 1806da8:	dc400117 	ldw	r17,4(sp)
 1806dac:	dc000017 	ldw	r16,0(sp)
 1806db0:	dec00704 	addi	sp,sp,28
 1806db4:	f800283a 	ret

01806db8 <__i2b>:
 1806db8:	defffd04 	addi	sp,sp,-12
 1806dbc:	dc000015 	stw	r16,0(sp)
 1806dc0:	04000044 	movi	r16,1
 1806dc4:	dc800115 	stw	r18,4(sp)
 1806dc8:	2825883a 	mov	r18,r5
 1806dcc:	800b883a 	mov	r5,r16
 1806dd0:	dfc00215 	stw	ra,8(sp)
 1806dd4:	18066c00 	call	18066c0 <_Balloc>
 1806dd8:	14000415 	stw	r16,16(r2)
 1806ddc:	14800515 	stw	r18,20(r2)
 1806de0:	dfc00217 	ldw	ra,8(sp)
 1806de4:	dc800117 	ldw	r18,4(sp)
 1806de8:	dc000017 	ldw	r16,0(sp)
 1806dec:	dec00304 	addi	sp,sp,12
 1806df0:	f800283a 	ret

01806df4 <__multadd>:
 1806df4:	defffa04 	addi	sp,sp,-24
 1806df8:	dc800215 	stw	r18,8(sp)
 1806dfc:	2c800417 	ldw	r18,16(r5)
 1806e00:	dd000415 	stw	r20,16(sp)
 1806e04:	dcc00315 	stw	r19,12(sp)
 1806e08:	dc000015 	stw	r16,0(sp)
 1806e0c:	dfc00515 	stw	ra,20(sp)
 1806e10:	3821883a 	mov	r16,r7
 1806e14:	dc400115 	stw	r17,4(sp)
 1806e18:	2827883a 	mov	r19,r5
 1806e1c:	2029883a 	mov	r20,r4
 1806e20:	2a000504 	addi	r8,r5,20
 1806e24:	000f883a 	mov	r7,zero
 1806e28:	40800017 	ldw	r2,0(r8)
 1806e2c:	39c00044 	addi	r7,r7,1
 1806e30:	10ffffcc 	andi	r3,r2,65535
 1806e34:	1987383a 	mul	r3,r3,r6
 1806e38:	1004d43a 	srli	r2,r2,16
 1806e3c:	1c07883a 	add	r3,r3,r16
 1806e40:	180ad43a 	srli	r5,r3,16
 1806e44:	1185383a 	mul	r2,r2,r6
 1806e48:	18ffffcc 	andi	r3,r3,65535
 1806e4c:	1145883a 	add	r2,r2,r5
 1806e50:	1008943a 	slli	r4,r2,16
 1806e54:	1020d43a 	srli	r16,r2,16
 1806e58:	20c9883a 	add	r4,r4,r3
 1806e5c:	41000015 	stw	r4,0(r8)
 1806e60:	42000104 	addi	r8,r8,4
 1806e64:	3cbff016 	blt	r7,r18,1806e28 <__multadd+0x34>
 1806e68:	80000826 	beq	r16,zero,1806e8c <__multadd+0x98>
 1806e6c:	98800217 	ldw	r2,8(r19)
 1806e70:	90800f0e 	bge	r18,r2,1806eb0 <__multadd+0xbc>
 1806e74:	9485883a 	add	r2,r18,r18
 1806e78:	1085883a 	add	r2,r2,r2
 1806e7c:	14c5883a 	add	r2,r2,r19
 1806e80:	90c00044 	addi	r3,r18,1
 1806e84:	14000515 	stw	r16,20(r2)
 1806e88:	98c00415 	stw	r3,16(r19)
 1806e8c:	9805883a 	mov	r2,r19
 1806e90:	dfc00517 	ldw	ra,20(sp)
 1806e94:	dd000417 	ldw	r20,16(sp)
 1806e98:	dcc00317 	ldw	r19,12(sp)
 1806e9c:	dc800217 	ldw	r18,8(sp)
 1806ea0:	dc400117 	ldw	r17,4(sp)
 1806ea4:	dc000017 	ldw	r16,0(sp)
 1806ea8:	dec00604 	addi	sp,sp,24
 1806eac:	f800283a 	ret
 1806eb0:	99400117 	ldw	r5,4(r19)
 1806eb4:	a009883a 	mov	r4,r20
 1806eb8:	29400044 	addi	r5,r5,1
 1806ebc:	18066c00 	call	18066c0 <_Balloc>
 1806ec0:	99800417 	ldw	r6,16(r19)
 1806ec4:	99400304 	addi	r5,r19,12
 1806ec8:	11000304 	addi	r4,r2,12
 1806ecc:	318d883a 	add	r6,r6,r6
 1806ed0:	318d883a 	add	r6,r6,r6
 1806ed4:	31800204 	addi	r6,r6,8
 1806ed8:	1023883a 	mov	r17,r2
 1806edc:	1805f280 	call	1805f28 <memcpy>
 1806ee0:	980b883a 	mov	r5,r19
 1806ee4:	a009883a 	mov	r4,r20
 1806ee8:	18061400 	call	1806140 <_Bfree>
 1806eec:	8827883a 	mov	r19,r17
 1806ef0:	003fe006 	br	1806e74 <__multadd+0x80>

01806ef4 <__pow5mult>:
 1806ef4:	defffa04 	addi	sp,sp,-24
 1806ef8:	308000cc 	andi	r2,r6,3
 1806efc:	dd000415 	stw	r20,16(sp)
 1806f00:	dcc00315 	stw	r19,12(sp)
 1806f04:	dc000015 	stw	r16,0(sp)
 1806f08:	dfc00515 	stw	ra,20(sp)
 1806f0c:	dc800215 	stw	r18,8(sp)
 1806f10:	dc400115 	stw	r17,4(sp)
 1806f14:	3021883a 	mov	r16,r6
 1806f18:	2027883a 	mov	r19,r4
 1806f1c:	2829883a 	mov	r20,r5
 1806f20:	10002b1e 	bne	r2,zero,1806fd0 <__pow5mult+0xdc>
 1806f24:	8025d0ba 	srai	r18,r16,2
 1806f28:	90001b26 	beq	r18,zero,1806f98 <__pow5mult+0xa4>
 1806f2c:	9c001217 	ldw	r16,72(r19)
 1806f30:	8000081e 	bne	r16,zero,1806f54 <__pow5mult+0x60>
 1806f34:	00003006 	br	1806ff8 <__pow5mult+0x104>
 1806f38:	800b883a 	mov	r5,r16
 1806f3c:	800d883a 	mov	r6,r16
 1806f40:	9809883a 	mov	r4,r19
 1806f44:	90001426 	beq	r18,zero,1806f98 <__pow5mult+0xa4>
 1806f48:	80800017 	ldw	r2,0(r16)
 1806f4c:	10001b26 	beq	r2,zero,1806fbc <__pow5mult+0xc8>
 1806f50:	1021883a 	mov	r16,r2
 1806f54:	9080004c 	andi	r2,r18,1
 1806f58:	1005003a 	cmpeq	r2,r2,zero
 1806f5c:	9025d07a 	srai	r18,r18,1
 1806f60:	800d883a 	mov	r6,r16
 1806f64:	9809883a 	mov	r4,r19
 1806f68:	a00b883a 	mov	r5,r20
 1806f6c:	103ff21e 	bne	r2,zero,1806f38 <__pow5mult+0x44>
 1806f70:	1806bd00 	call	1806bd0 <__multiply>
 1806f74:	a00b883a 	mov	r5,r20
 1806f78:	9809883a 	mov	r4,r19
 1806f7c:	1023883a 	mov	r17,r2
 1806f80:	18061400 	call	1806140 <_Bfree>
 1806f84:	8829883a 	mov	r20,r17
 1806f88:	800b883a 	mov	r5,r16
 1806f8c:	800d883a 	mov	r6,r16
 1806f90:	9809883a 	mov	r4,r19
 1806f94:	903fec1e 	bne	r18,zero,1806f48 <__pow5mult+0x54>
 1806f98:	a005883a 	mov	r2,r20
 1806f9c:	dfc00517 	ldw	ra,20(sp)
 1806fa0:	dd000417 	ldw	r20,16(sp)
 1806fa4:	dcc00317 	ldw	r19,12(sp)
 1806fa8:	dc800217 	ldw	r18,8(sp)
 1806fac:	dc400117 	ldw	r17,4(sp)
 1806fb0:	dc000017 	ldw	r16,0(sp)
 1806fb4:	dec00604 	addi	sp,sp,24
 1806fb8:	f800283a 	ret
 1806fbc:	1806bd00 	call	1806bd0 <__multiply>
 1806fc0:	80800015 	stw	r2,0(r16)
 1806fc4:	1021883a 	mov	r16,r2
 1806fc8:	10000015 	stw	zero,0(r2)
 1806fcc:	003fe106 	br	1806f54 <__pow5mult+0x60>
 1806fd0:	1085883a 	add	r2,r2,r2
 1806fd4:	00c06074 	movhi	r3,385
 1806fd8:	18c44304 	addi	r3,r3,4364
 1806fdc:	1085883a 	add	r2,r2,r2
 1806fe0:	10c5883a 	add	r2,r2,r3
 1806fe4:	11bfff17 	ldw	r6,-4(r2)
 1806fe8:	000f883a 	mov	r7,zero
 1806fec:	1806df40 	call	1806df4 <__multadd>
 1806ff0:	1029883a 	mov	r20,r2
 1806ff4:	003fcb06 	br	1806f24 <__pow5mult+0x30>
 1806ff8:	9809883a 	mov	r4,r19
 1806ffc:	01409c44 	movi	r5,625
 1807000:	1806db80 	call	1806db8 <__i2b>
 1807004:	98801215 	stw	r2,72(r19)
 1807008:	1021883a 	mov	r16,r2
 180700c:	10000015 	stw	zero,0(r2)
 1807010:	003fd006 	br	1806f54 <__pow5mult+0x60>

01807014 <__s2b>:
 1807014:	defff904 	addi	sp,sp,-28
 1807018:	dcc00315 	stw	r19,12(sp)
 180701c:	dc800215 	stw	r18,8(sp)
 1807020:	2827883a 	mov	r19,r5
 1807024:	2025883a 	mov	r18,r4
 1807028:	01400244 	movi	r5,9
 180702c:	39000204 	addi	r4,r7,8
 1807030:	dd000415 	stw	r20,16(sp)
 1807034:	dc400115 	stw	r17,4(sp)
 1807038:	dfc00615 	stw	ra,24(sp)
 180703c:	dd400515 	stw	r21,20(sp)
 1807040:	dc000015 	stw	r16,0(sp)
 1807044:	3829883a 	mov	r20,r7
 1807048:	3023883a 	mov	r17,r6
 180704c:	1809bd80 	call	1809bd8 <__divsi3>
 1807050:	00c00044 	movi	r3,1
 1807054:	1880350e 	bge	r3,r2,180712c <__s2b+0x118>
 1807058:	000b883a 	mov	r5,zero
 180705c:	18c7883a 	add	r3,r3,r3
 1807060:	29400044 	addi	r5,r5,1
 1807064:	18bffd16 	blt	r3,r2,180705c <__s2b+0x48>
 1807068:	9009883a 	mov	r4,r18
 180706c:	18066c00 	call	18066c0 <_Balloc>
 1807070:	1011883a 	mov	r8,r2
 1807074:	d8800717 	ldw	r2,28(sp)
 1807078:	00c00044 	movi	r3,1
 180707c:	01800244 	movi	r6,9
 1807080:	40800515 	stw	r2,20(r8)
 1807084:	40c00415 	stw	r3,16(r8)
 1807088:	3440260e 	bge	r6,r17,1807124 <__s2b+0x110>
 180708c:	3021883a 	mov	r16,r6
 1807090:	99ab883a 	add	r21,r19,r6
 1807094:	9c05883a 	add	r2,r19,r16
 1807098:	11c00007 	ldb	r7,0(r2)
 180709c:	400b883a 	mov	r5,r8
 18070a0:	9009883a 	mov	r4,r18
 18070a4:	39fff404 	addi	r7,r7,-48
 18070a8:	01800284 	movi	r6,10
 18070ac:	1806df40 	call	1806df4 <__multadd>
 18070b0:	84000044 	addi	r16,r16,1
 18070b4:	1011883a 	mov	r8,r2
 18070b8:	8c3ff61e 	bne	r17,r16,1807094 <__s2b+0x80>
 18070bc:	ac45883a 	add	r2,r21,r17
 18070c0:	117ffe04 	addi	r5,r2,-8
 18070c4:	880d883a 	mov	r6,r17
 18070c8:	35000c0e 	bge	r6,r20,18070fc <__s2b+0xe8>
 18070cc:	a185c83a 	sub	r2,r20,r6
 18070d0:	2821883a 	mov	r16,r5
 18070d4:	28a3883a 	add	r17,r5,r2
 18070d8:	81c00007 	ldb	r7,0(r16)
 18070dc:	400b883a 	mov	r5,r8
 18070e0:	9009883a 	mov	r4,r18
 18070e4:	39fff404 	addi	r7,r7,-48
 18070e8:	01800284 	movi	r6,10
 18070ec:	1806df40 	call	1806df4 <__multadd>
 18070f0:	84000044 	addi	r16,r16,1
 18070f4:	1011883a 	mov	r8,r2
 18070f8:	847ff71e 	bne	r16,r17,18070d8 <__s2b+0xc4>
 18070fc:	4005883a 	mov	r2,r8
 1807100:	dfc00617 	ldw	ra,24(sp)
 1807104:	dd400517 	ldw	r21,20(sp)
 1807108:	dd000417 	ldw	r20,16(sp)
 180710c:	dcc00317 	ldw	r19,12(sp)
 1807110:	dc800217 	ldw	r18,8(sp)
 1807114:	dc400117 	ldw	r17,4(sp)
 1807118:	dc000017 	ldw	r16,0(sp)
 180711c:	dec00704 	addi	sp,sp,28
 1807120:	f800283a 	ret
 1807124:	99400284 	addi	r5,r19,10
 1807128:	003fe706 	br	18070c8 <__s2b+0xb4>
 180712c:	000b883a 	mov	r5,zero
 1807130:	003fcd06 	br	1807068 <__s2b+0x54>

01807134 <_realloc_r>:
 1807134:	defff404 	addi	sp,sp,-48
 1807138:	dd800815 	stw	r22,32(sp)
 180713c:	dc800415 	stw	r18,16(sp)
 1807140:	dc400315 	stw	r17,12(sp)
 1807144:	dfc00b15 	stw	ra,44(sp)
 1807148:	df000a15 	stw	fp,40(sp)
 180714c:	ddc00915 	stw	r23,36(sp)
 1807150:	dd400715 	stw	r21,28(sp)
 1807154:	dd000615 	stw	r20,24(sp)
 1807158:	dcc00515 	stw	r19,20(sp)
 180715c:	dc000215 	stw	r16,8(sp)
 1807160:	2825883a 	mov	r18,r5
 1807164:	3023883a 	mov	r17,r6
 1807168:	202d883a 	mov	r22,r4
 180716c:	2800c926 	beq	r5,zero,1807494 <_realloc_r+0x360>
 1807170:	180a7ec0 	call	180a7ec <__malloc_lock>
 1807174:	943ffe04 	addi	r16,r18,-8
 1807178:	88c002c4 	addi	r3,r17,11
 180717c:	00800584 	movi	r2,22
 1807180:	82000117 	ldw	r8,4(r16)
 1807184:	10c01b2e 	bgeu	r2,r3,18071f4 <_realloc_r+0xc0>
 1807188:	00bffe04 	movi	r2,-8
 180718c:	188e703a 	and	r7,r3,r2
 1807190:	3839883a 	mov	fp,r7
 1807194:	38001a16 	blt	r7,zero,1807200 <_realloc_r+0xcc>
 1807198:	e4401936 	bltu	fp,r17,1807200 <_realloc_r+0xcc>
 180719c:	013fff04 	movi	r4,-4
 18071a0:	4126703a 	and	r19,r8,r4
 18071a4:	99c02616 	blt	r19,r7,1807240 <_realloc_r+0x10c>
 18071a8:	802b883a 	mov	r21,r16
 18071ac:	9829883a 	mov	r20,r19
 18071b0:	84000204 	addi	r16,r16,8
 18071b4:	a80f883a 	mov	r7,r21
 18071b8:	a70dc83a 	sub	r6,r20,fp
 18071bc:	008003c4 	movi	r2,15
 18071c0:	1180c136 	bltu	r2,r6,18074c8 <_realloc_r+0x394>
 18071c4:	38800117 	ldw	r2,4(r7)
 18071c8:	a549883a 	add	r4,r20,r21
 18071cc:	1080004c 	andi	r2,r2,1
 18071d0:	a084b03a 	or	r2,r20,r2
 18071d4:	38800115 	stw	r2,4(r7)
 18071d8:	20c00117 	ldw	r3,4(r4)
 18071dc:	18c00054 	ori	r3,r3,1
 18071e0:	20c00115 	stw	r3,4(r4)
 18071e4:	b009883a 	mov	r4,r22
 18071e8:	180a80c0 	call	180a80c <__malloc_unlock>
 18071ec:	8023883a 	mov	r17,r16
 18071f0:	00000606 	br	180720c <_realloc_r+0xd8>
 18071f4:	01c00404 	movi	r7,16
 18071f8:	3839883a 	mov	fp,r7
 18071fc:	e47fe72e 	bgeu	fp,r17,180719c <_realloc_r+0x68>
 1807200:	00800304 	movi	r2,12
 1807204:	0023883a 	mov	r17,zero
 1807208:	b0800015 	stw	r2,0(r22)
 180720c:	8805883a 	mov	r2,r17
 1807210:	dfc00b17 	ldw	ra,44(sp)
 1807214:	df000a17 	ldw	fp,40(sp)
 1807218:	ddc00917 	ldw	r23,36(sp)
 180721c:	dd800817 	ldw	r22,32(sp)
 1807220:	dd400717 	ldw	r21,28(sp)
 1807224:	dd000617 	ldw	r20,24(sp)
 1807228:	dcc00517 	ldw	r19,20(sp)
 180722c:	dc800417 	ldw	r18,16(sp)
 1807230:	dc400317 	ldw	r17,12(sp)
 1807234:	dc000217 	ldw	r16,8(sp)
 1807238:	dec00c04 	addi	sp,sp,48
 180723c:	f800283a 	ret
 1807240:	00806074 	movhi	r2,385
 1807244:	10860404 	addi	r2,r2,6160
 1807248:	12400217 	ldw	r9,8(r2)
 180724c:	84cd883a 	add	r6,r16,r19
 1807250:	802b883a 	mov	r21,r16
 1807254:	3240b926 	beq	r6,r9,180753c <_realloc_r+0x408>
 1807258:	31400117 	ldw	r5,4(r6)
 180725c:	00bfff84 	movi	r2,-2
 1807260:	2884703a 	and	r2,r5,r2
 1807264:	1185883a 	add	r2,r2,r6
 1807268:	10c00117 	ldw	r3,4(r2)
 180726c:	18c0004c 	andi	r3,r3,1
 1807270:	1807003a 	cmpeq	r3,r3,zero
 1807274:	1800a326 	beq	r3,zero,1807504 <_realloc_r+0x3d0>
 1807278:	2908703a 	and	r4,r5,r4
 180727c:	9929883a 	add	r20,r19,r4
 1807280:	a1c0a30e 	bge	r20,r7,1807510 <_realloc_r+0x3dc>
 1807284:	4080004c 	andi	r2,r8,1
 1807288:	1000551e 	bne	r2,zero,18073e0 <_realloc_r+0x2ac>
 180728c:	80800017 	ldw	r2,0(r16)
 1807290:	80afc83a 	sub	r23,r16,r2
 1807294:	b8c00117 	ldw	r3,4(r23)
 1807298:	00bfff04 	movi	r2,-4
 180729c:	1884703a 	and	r2,r3,r2
 18072a0:	30002e26 	beq	r6,zero,180735c <_realloc_r+0x228>
 18072a4:	3240b926 	beq	r6,r9,180758c <_realloc_r+0x458>
 18072a8:	98a9883a 	add	r20,r19,r2
 18072ac:	2509883a 	add	r4,r4,r20
 18072b0:	d9000015 	stw	r4,0(sp)
 18072b4:	21c02a16 	blt	r4,r7,1807360 <_realloc_r+0x22c>
 18072b8:	30800317 	ldw	r2,12(r6)
 18072bc:	30c00217 	ldw	r3,8(r6)
 18072c0:	01400904 	movi	r5,36
 18072c4:	99bfff04 	addi	r6,r19,-4
 18072c8:	18800315 	stw	r2,12(r3)
 18072cc:	10c00215 	stw	r3,8(r2)
 18072d0:	b9000317 	ldw	r4,12(r23)
 18072d4:	b8800217 	ldw	r2,8(r23)
 18072d8:	b82b883a 	mov	r21,r23
 18072dc:	bc000204 	addi	r16,r23,8
 18072e0:	20800215 	stw	r2,8(r4)
 18072e4:	11000315 	stw	r4,12(r2)
 18072e8:	2980e436 	bltu	r5,r6,180767c <_realloc_r+0x548>
 18072ec:	008004c4 	movi	r2,19
 18072f0:	9009883a 	mov	r4,r18
 18072f4:	8011883a 	mov	r8,r16
 18072f8:	11800f2e 	bgeu	r2,r6,1807338 <_realloc_r+0x204>
 18072fc:	90800017 	ldw	r2,0(r18)
 1807300:	ba000404 	addi	r8,r23,16
 1807304:	91000204 	addi	r4,r18,8
 1807308:	b8800215 	stw	r2,8(r23)
 180730c:	90c00117 	ldw	r3,4(r18)
 1807310:	008006c4 	movi	r2,27
 1807314:	b8c00315 	stw	r3,12(r23)
 1807318:	1180072e 	bgeu	r2,r6,1807338 <_realloc_r+0x204>
 180731c:	90c00217 	ldw	r3,8(r18)
 1807320:	ba000604 	addi	r8,r23,24
 1807324:	91000404 	addi	r4,r18,16
 1807328:	b8c00415 	stw	r3,16(r23)
 180732c:	90800317 	ldw	r2,12(r18)
 1807330:	b8800515 	stw	r2,20(r23)
 1807334:	3140e726 	beq	r6,r5,18076d4 <_realloc_r+0x5a0>
 1807338:	20800017 	ldw	r2,0(r4)
 180733c:	dd000017 	ldw	r20,0(sp)
 1807340:	b80f883a 	mov	r7,r23
 1807344:	40800015 	stw	r2,0(r8)
 1807348:	20c00117 	ldw	r3,4(r4)
 180734c:	40c00115 	stw	r3,4(r8)
 1807350:	20800217 	ldw	r2,8(r4)
 1807354:	40800215 	stw	r2,8(r8)
 1807358:	003f9706 	br	18071b8 <_realloc_r+0x84>
 180735c:	98a9883a 	add	r20,r19,r2
 1807360:	a1c01f16 	blt	r20,r7,18073e0 <_realloc_r+0x2ac>
 1807364:	b8c00317 	ldw	r3,12(r23)
 1807368:	b8800217 	ldw	r2,8(r23)
 180736c:	99bfff04 	addi	r6,r19,-4
 1807370:	01400904 	movi	r5,36
 1807374:	b82b883a 	mov	r21,r23
 1807378:	18800215 	stw	r2,8(r3)
 180737c:	10c00315 	stw	r3,12(r2)
 1807380:	bc000204 	addi	r16,r23,8
 1807384:	2980c336 	bltu	r5,r6,1807694 <_realloc_r+0x560>
 1807388:	008004c4 	movi	r2,19
 180738c:	9009883a 	mov	r4,r18
 1807390:	8011883a 	mov	r8,r16
 1807394:	11800f2e 	bgeu	r2,r6,18073d4 <_realloc_r+0x2a0>
 1807398:	90800017 	ldw	r2,0(r18)
 180739c:	ba000404 	addi	r8,r23,16
 18073a0:	91000204 	addi	r4,r18,8
 18073a4:	b8800215 	stw	r2,8(r23)
 18073a8:	90c00117 	ldw	r3,4(r18)
 18073ac:	008006c4 	movi	r2,27
 18073b0:	b8c00315 	stw	r3,12(r23)
 18073b4:	1180072e 	bgeu	r2,r6,18073d4 <_realloc_r+0x2a0>
 18073b8:	90c00217 	ldw	r3,8(r18)
 18073bc:	ba000604 	addi	r8,r23,24
 18073c0:	91000404 	addi	r4,r18,16
 18073c4:	b8c00415 	stw	r3,16(r23)
 18073c8:	90800317 	ldw	r2,12(r18)
 18073cc:	b8800515 	stw	r2,20(r23)
 18073d0:	3140c726 	beq	r6,r5,18076f0 <_realloc_r+0x5bc>
 18073d4:	20800017 	ldw	r2,0(r4)
 18073d8:	b80f883a 	mov	r7,r23
 18073dc:	003fd906 	br	1807344 <_realloc_r+0x210>
 18073e0:	880b883a 	mov	r5,r17
 18073e4:	b009883a 	mov	r4,r22
 18073e8:	18057040 	call	1805704 <_malloc_r>
 18073ec:	1023883a 	mov	r17,r2
 18073f0:	10002526 	beq	r2,zero,1807488 <_realloc_r+0x354>
 18073f4:	80800117 	ldw	r2,4(r16)
 18073f8:	00ffff84 	movi	r3,-2
 18073fc:	893ffe04 	addi	r4,r17,-8
 1807400:	10c4703a 	and	r2,r2,r3
 1807404:	8085883a 	add	r2,r16,r2
 1807408:	20809526 	beq	r4,r2,1807660 <_realloc_r+0x52c>
 180740c:	99bfff04 	addi	r6,r19,-4
 1807410:	01c00904 	movi	r7,36
 1807414:	39804536 	bltu	r7,r6,180752c <_realloc_r+0x3f8>
 1807418:	008004c4 	movi	r2,19
 180741c:	9009883a 	mov	r4,r18
 1807420:	880b883a 	mov	r5,r17
 1807424:	11800f2e 	bgeu	r2,r6,1807464 <_realloc_r+0x330>
 1807428:	90800017 	ldw	r2,0(r18)
 180742c:	89400204 	addi	r5,r17,8
 1807430:	91000204 	addi	r4,r18,8
 1807434:	88800015 	stw	r2,0(r17)
 1807438:	90c00117 	ldw	r3,4(r18)
 180743c:	008006c4 	movi	r2,27
 1807440:	88c00115 	stw	r3,4(r17)
 1807444:	1180072e 	bgeu	r2,r6,1807464 <_realloc_r+0x330>
 1807448:	90c00217 	ldw	r3,8(r18)
 180744c:	89400404 	addi	r5,r17,16
 1807450:	91000404 	addi	r4,r18,16
 1807454:	88c00215 	stw	r3,8(r17)
 1807458:	90800317 	ldw	r2,12(r18)
 180745c:	88800315 	stw	r2,12(r17)
 1807460:	31c09126 	beq	r6,r7,18076a8 <_realloc_r+0x574>
 1807464:	20800017 	ldw	r2,0(r4)
 1807468:	28800015 	stw	r2,0(r5)
 180746c:	20c00117 	ldw	r3,4(r4)
 1807470:	28c00115 	stw	r3,4(r5)
 1807474:	20800217 	ldw	r2,8(r4)
 1807478:	28800215 	stw	r2,8(r5)
 180747c:	900b883a 	mov	r5,r18
 1807480:	b009883a 	mov	r4,r22
 1807484:	1804b7c0 	call	1804b7c <_free_r>
 1807488:	b009883a 	mov	r4,r22
 180748c:	180a80c0 	call	180a80c <__malloc_unlock>
 1807490:	003f5e06 	br	180720c <_realloc_r+0xd8>
 1807494:	300b883a 	mov	r5,r6
 1807498:	dfc00b17 	ldw	ra,44(sp)
 180749c:	df000a17 	ldw	fp,40(sp)
 18074a0:	ddc00917 	ldw	r23,36(sp)
 18074a4:	dd800817 	ldw	r22,32(sp)
 18074a8:	dd400717 	ldw	r21,28(sp)
 18074ac:	dd000617 	ldw	r20,24(sp)
 18074b0:	dcc00517 	ldw	r19,20(sp)
 18074b4:	dc800417 	ldw	r18,16(sp)
 18074b8:	dc400317 	ldw	r17,12(sp)
 18074bc:	dc000217 	ldw	r16,8(sp)
 18074c0:	dec00c04 	addi	sp,sp,48
 18074c4:	18057041 	jmpi	1805704 <_malloc_r>
 18074c8:	38800117 	ldw	r2,4(r7)
 18074cc:	e54b883a 	add	r5,fp,r21
 18074d0:	31000054 	ori	r4,r6,1
 18074d4:	1080004c 	andi	r2,r2,1
 18074d8:	1704b03a 	or	r2,r2,fp
 18074dc:	38800115 	stw	r2,4(r7)
 18074e0:	29000115 	stw	r4,4(r5)
 18074e4:	2987883a 	add	r3,r5,r6
 18074e8:	18800117 	ldw	r2,4(r3)
 18074ec:	29400204 	addi	r5,r5,8
 18074f0:	b009883a 	mov	r4,r22
 18074f4:	10800054 	ori	r2,r2,1
 18074f8:	18800115 	stw	r2,4(r3)
 18074fc:	1804b7c0 	call	1804b7c <_free_r>
 1807500:	003f3806 	br	18071e4 <_realloc_r+0xb0>
 1807504:	000d883a 	mov	r6,zero
 1807508:	0009883a 	mov	r4,zero
 180750c:	003f5d06 	br	1807284 <_realloc_r+0x150>
 1807510:	30c00217 	ldw	r3,8(r6)
 1807514:	30800317 	ldw	r2,12(r6)
 1807518:	800f883a 	mov	r7,r16
 180751c:	84000204 	addi	r16,r16,8
 1807520:	10c00215 	stw	r3,8(r2)
 1807524:	18800315 	stw	r2,12(r3)
 1807528:	003f2306 	br	18071b8 <_realloc_r+0x84>
 180752c:	8809883a 	mov	r4,r17
 1807530:	900b883a 	mov	r5,r18
 1807534:	1805fc80 	call	1805fc8 <memmove>
 1807538:	003fd006 	br	180747c <_realloc_r+0x348>
 180753c:	30800117 	ldw	r2,4(r6)
 1807540:	e0c00404 	addi	r3,fp,16
 1807544:	1108703a 	and	r4,r2,r4
 1807548:	9905883a 	add	r2,r19,r4
 180754c:	10ff4d16 	blt	r2,r3,1807284 <_realloc_r+0x150>
 1807550:	1705c83a 	sub	r2,r2,fp
 1807554:	870b883a 	add	r5,r16,fp
 1807558:	10800054 	ori	r2,r2,1
 180755c:	28800115 	stw	r2,4(r5)
 1807560:	80c00117 	ldw	r3,4(r16)
 1807564:	00806074 	movhi	r2,385
 1807568:	10860404 	addi	r2,r2,6160
 180756c:	b009883a 	mov	r4,r22
 1807570:	18c0004c 	andi	r3,r3,1
 1807574:	e0c6b03a 	or	r3,fp,r3
 1807578:	11400215 	stw	r5,8(r2)
 180757c:	80c00115 	stw	r3,4(r16)
 1807580:	180a80c0 	call	180a80c <__malloc_unlock>
 1807584:	84400204 	addi	r17,r16,8
 1807588:	003f2006 	br	180720c <_realloc_r+0xd8>
 180758c:	98a9883a 	add	r20,r19,r2
 1807590:	2509883a 	add	r4,r4,r20
 1807594:	e0800404 	addi	r2,fp,16
 1807598:	d9000115 	stw	r4,4(sp)
 180759c:	20bf7016 	blt	r4,r2,1807360 <_realloc_r+0x22c>
 18075a0:	b8c00317 	ldw	r3,12(r23)
 18075a4:	b8800217 	ldw	r2,8(r23)
 18075a8:	99bfff04 	addi	r6,r19,-4
 18075ac:	01400904 	movi	r5,36
 18075b0:	18800215 	stw	r2,8(r3)
 18075b4:	10c00315 	stw	r3,12(r2)
 18075b8:	bc400204 	addi	r17,r23,8
 18075bc:	29804136 	bltu	r5,r6,18076c4 <_realloc_r+0x590>
 18075c0:	008004c4 	movi	r2,19
 18075c4:	9009883a 	mov	r4,r18
 18075c8:	880f883a 	mov	r7,r17
 18075cc:	11800f2e 	bgeu	r2,r6,180760c <_realloc_r+0x4d8>
 18075d0:	90800017 	ldw	r2,0(r18)
 18075d4:	b9c00404 	addi	r7,r23,16
 18075d8:	91000204 	addi	r4,r18,8
 18075dc:	b8800215 	stw	r2,8(r23)
 18075e0:	90c00117 	ldw	r3,4(r18)
 18075e4:	008006c4 	movi	r2,27
 18075e8:	b8c00315 	stw	r3,12(r23)
 18075ec:	1180072e 	bgeu	r2,r6,180760c <_realloc_r+0x4d8>
 18075f0:	90c00217 	ldw	r3,8(r18)
 18075f4:	b9c00604 	addi	r7,r23,24
 18075f8:	91000404 	addi	r4,r18,16
 18075fc:	b8c00415 	stw	r3,16(r23)
 1807600:	90800317 	ldw	r2,12(r18)
 1807604:	b8800515 	stw	r2,20(r23)
 1807608:	31404026 	beq	r6,r5,180770c <_realloc_r+0x5d8>
 180760c:	20800017 	ldw	r2,0(r4)
 1807610:	38800015 	stw	r2,0(r7)
 1807614:	20c00117 	ldw	r3,4(r4)
 1807618:	38c00115 	stw	r3,4(r7)
 180761c:	20800217 	ldw	r2,8(r4)
 1807620:	38800215 	stw	r2,8(r7)
 1807624:	d8c00117 	ldw	r3,4(sp)
 1807628:	bf0b883a 	add	r5,r23,fp
 180762c:	b009883a 	mov	r4,r22
 1807630:	1f05c83a 	sub	r2,r3,fp
 1807634:	10800054 	ori	r2,r2,1
 1807638:	28800115 	stw	r2,4(r5)
 180763c:	b8c00117 	ldw	r3,4(r23)
 1807640:	00806074 	movhi	r2,385
 1807644:	10860404 	addi	r2,r2,6160
 1807648:	11400215 	stw	r5,8(r2)
 180764c:	18c0004c 	andi	r3,r3,1
 1807650:	e0c6b03a 	or	r3,fp,r3
 1807654:	b8c00115 	stw	r3,4(r23)
 1807658:	180a80c0 	call	180a80c <__malloc_unlock>
 180765c:	003eeb06 	br	180720c <_realloc_r+0xd8>
 1807660:	20800117 	ldw	r2,4(r4)
 1807664:	00ffff04 	movi	r3,-4
 1807668:	800f883a 	mov	r7,r16
 180766c:	10c4703a 	and	r2,r2,r3
 1807670:	98a9883a 	add	r20,r19,r2
 1807674:	84000204 	addi	r16,r16,8
 1807678:	003ecf06 	br	18071b8 <_realloc_r+0x84>
 180767c:	900b883a 	mov	r5,r18
 1807680:	8009883a 	mov	r4,r16
 1807684:	1805fc80 	call	1805fc8 <memmove>
 1807688:	dd000017 	ldw	r20,0(sp)
 180768c:	b80f883a 	mov	r7,r23
 1807690:	003ec906 	br	18071b8 <_realloc_r+0x84>
 1807694:	900b883a 	mov	r5,r18
 1807698:	8009883a 	mov	r4,r16
 180769c:	1805fc80 	call	1805fc8 <memmove>
 18076a0:	b80f883a 	mov	r7,r23
 18076a4:	003ec406 	br	18071b8 <_realloc_r+0x84>
 18076a8:	90c00417 	ldw	r3,16(r18)
 18076ac:	89400604 	addi	r5,r17,24
 18076b0:	91000604 	addi	r4,r18,24
 18076b4:	88c00415 	stw	r3,16(r17)
 18076b8:	90800517 	ldw	r2,20(r18)
 18076bc:	88800515 	stw	r2,20(r17)
 18076c0:	003f6806 	br	1807464 <_realloc_r+0x330>
 18076c4:	900b883a 	mov	r5,r18
 18076c8:	8809883a 	mov	r4,r17
 18076cc:	1805fc80 	call	1805fc8 <memmove>
 18076d0:	003fd406 	br	1807624 <_realloc_r+0x4f0>
 18076d4:	90c00417 	ldw	r3,16(r18)
 18076d8:	91000604 	addi	r4,r18,24
 18076dc:	ba000804 	addi	r8,r23,32
 18076e0:	b8c00615 	stw	r3,24(r23)
 18076e4:	90800517 	ldw	r2,20(r18)
 18076e8:	b8800715 	stw	r2,28(r23)
 18076ec:	003f1206 	br	1807338 <_realloc_r+0x204>
 18076f0:	90c00417 	ldw	r3,16(r18)
 18076f4:	91000604 	addi	r4,r18,24
 18076f8:	ba000804 	addi	r8,r23,32
 18076fc:	b8c00615 	stw	r3,24(r23)
 1807700:	90800517 	ldw	r2,20(r18)
 1807704:	b8800715 	stw	r2,28(r23)
 1807708:	003f3206 	br	18073d4 <_realloc_r+0x2a0>
 180770c:	90c00417 	ldw	r3,16(r18)
 1807710:	91000604 	addi	r4,r18,24
 1807714:	b9c00804 	addi	r7,r23,32
 1807718:	b8c00615 	stw	r3,24(r23)
 180771c:	90800517 	ldw	r2,20(r18)
 1807720:	b8800715 	stw	r2,28(r23)
 1807724:	003fb906 	br	180760c <_realloc_r+0x4d8>

01807728 <__isinfd>:
 1807728:	200d883a 	mov	r6,r4
 180772c:	0109c83a 	sub	r4,zero,r4
 1807730:	2188b03a 	or	r4,r4,r6
 1807734:	2008d7fa 	srli	r4,r4,31
 1807738:	00a00034 	movhi	r2,32768
 180773c:	10bfffc4 	addi	r2,r2,-1
 1807740:	1144703a 	and	r2,r2,r5
 1807744:	2088b03a 	or	r4,r4,r2
 1807748:	009ffc34 	movhi	r2,32752
 180774c:	1105c83a 	sub	r2,r2,r4
 1807750:	0087c83a 	sub	r3,zero,r2
 1807754:	10c4b03a 	or	r2,r2,r3
 1807758:	1004d7fa 	srli	r2,r2,31
 180775c:	00c00044 	movi	r3,1
 1807760:	1885c83a 	sub	r2,r3,r2
 1807764:	f800283a 	ret

01807768 <__isnand>:
 1807768:	200d883a 	mov	r6,r4
 180776c:	0109c83a 	sub	r4,zero,r4
 1807770:	2188b03a 	or	r4,r4,r6
 1807774:	2008d7fa 	srli	r4,r4,31
 1807778:	00a00034 	movhi	r2,32768
 180777c:	10bfffc4 	addi	r2,r2,-1
 1807780:	1144703a 	and	r2,r2,r5
 1807784:	2088b03a 	or	r4,r4,r2
 1807788:	009ffc34 	movhi	r2,32752
 180778c:	1105c83a 	sub	r2,r2,r4
 1807790:	1004d7fa 	srli	r2,r2,31
 1807794:	f800283a 	ret

01807798 <_sbrk_r>:
 1807798:	defffd04 	addi	sp,sp,-12
 180779c:	dc000015 	stw	r16,0(sp)
 18077a0:	04006074 	movhi	r16,385
 18077a4:	840c5104 	addi	r16,r16,12612
 18077a8:	dc400115 	stw	r17,4(sp)
 18077ac:	80000015 	stw	zero,0(r16)
 18077b0:	2023883a 	mov	r17,r4
 18077b4:	2809883a 	mov	r4,r5
 18077b8:	dfc00215 	stw	ra,8(sp)
 18077bc:	180aa0c0 	call	180aa0c <sbrk>
 18077c0:	1007883a 	mov	r3,r2
 18077c4:	00bfffc4 	movi	r2,-1
 18077c8:	18800626 	beq	r3,r2,18077e4 <_sbrk_r+0x4c>
 18077cc:	1805883a 	mov	r2,r3
 18077d0:	dfc00217 	ldw	ra,8(sp)
 18077d4:	dc400117 	ldw	r17,4(sp)
 18077d8:	dc000017 	ldw	r16,0(sp)
 18077dc:	dec00304 	addi	sp,sp,12
 18077e0:	f800283a 	ret
 18077e4:	80800017 	ldw	r2,0(r16)
 18077e8:	103ff826 	beq	r2,zero,18077cc <_sbrk_r+0x34>
 18077ec:	88800015 	stw	r2,0(r17)
 18077f0:	1805883a 	mov	r2,r3
 18077f4:	dfc00217 	ldw	ra,8(sp)
 18077f8:	dc400117 	ldw	r17,4(sp)
 18077fc:	dc000017 	ldw	r16,0(sp)
 1807800:	dec00304 	addi	sp,sp,12
 1807804:	f800283a 	ret

01807808 <__sclose>:
 1807808:	2940038f 	ldh	r5,14(r5)
 180780c:	1807b3c1 	jmpi	1807b3c <_close_r>

01807810 <__sseek>:
 1807810:	defffe04 	addi	sp,sp,-8
 1807814:	dc000015 	stw	r16,0(sp)
 1807818:	2821883a 	mov	r16,r5
 180781c:	2940038f 	ldh	r5,14(r5)
 1807820:	dfc00115 	stw	ra,4(sp)
 1807824:	1807db40 	call	1807db4 <_lseek_r>
 1807828:	1007883a 	mov	r3,r2
 180782c:	00bfffc4 	movi	r2,-1
 1807830:	18800926 	beq	r3,r2,1807858 <__sseek+0x48>
 1807834:	8080030b 	ldhu	r2,12(r16)
 1807838:	80c01415 	stw	r3,80(r16)
 180783c:	10840014 	ori	r2,r2,4096
 1807840:	8080030d 	sth	r2,12(r16)
 1807844:	1805883a 	mov	r2,r3
 1807848:	dfc00117 	ldw	ra,4(sp)
 180784c:	dc000017 	ldw	r16,0(sp)
 1807850:	dec00204 	addi	sp,sp,8
 1807854:	f800283a 	ret
 1807858:	8080030b 	ldhu	r2,12(r16)
 180785c:	10bbffcc 	andi	r2,r2,61439
 1807860:	8080030d 	sth	r2,12(r16)
 1807864:	1805883a 	mov	r2,r3
 1807868:	dfc00117 	ldw	ra,4(sp)
 180786c:	dc000017 	ldw	r16,0(sp)
 1807870:	dec00204 	addi	sp,sp,8
 1807874:	f800283a 	ret

01807878 <__swrite>:
 1807878:	2880030b 	ldhu	r2,12(r5)
 180787c:	defffb04 	addi	sp,sp,-20
 1807880:	dcc00315 	stw	r19,12(sp)
 1807884:	1080400c 	andi	r2,r2,256
 1807888:	dc800215 	stw	r18,8(sp)
 180788c:	dc400115 	stw	r17,4(sp)
 1807890:	dc000015 	stw	r16,0(sp)
 1807894:	3027883a 	mov	r19,r6
 1807898:	3825883a 	mov	r18,r7
 180789c:	dfc00415 	stw	ra,16(sp)
 18078a0:	2821883a 	mov	r16,r5
 18078a4:	000d883a 	mov	r6,zero
 18078a8:	01c00084 	movi	r7,2
 18078ac:	2023883a 	mov	r17,r4
 18078b0:	10000226 	beq	r2,zero,18078bc <__swrite+0x44>
 18078b4:	2940038f 	ldh	r5,14(r5)
 18078b8:	1807db40 	call	1807db4 <_lseek_r>
 18078bc:	8080030b 	ldhu	r2,12(r16)
 18078c0:	8140038f 	ldh	r5,14(r16)
 18078c4:	8809883a 	mov	r4,r17
 18078c8:	10bbffcc 	andi	r2,r2,61439
 18078cc:	980d883a 	mov	r6,r19
 18078d0:	900f883a 	mov	r7,r18
 18078d4:	8080030d 	sth	r2,12(r16)
 18078d8:	dfc00417 	ldw	ra,16(sp)
 18078dc:	dcc00317 	ldw	r19,12(sp)
 18078e0:	dc800217 	ldw	r18,8(sp)
 18078e4:	dc400117 	ldw	r17,4(sp)
 18078e8:	dc000017 	ldw	r16,0(sp)
 18078ec:	dec00504 	addi	sp,sp,20
 18078f0:	1807a101 	jmpi	1807a10 <_write_r>

018078f4 <__sread>:
 18078f4:	defffe04 	addi	sp,sp,-8
 18078f8:	dc000015 	stw	r16,0(sp)
 18078fc:	2821883a 	mov	r16,r5
 1807900:	2940038f 	ldh	r5,14(r5)
 1807904:	dfc00115 	stw	ra,4(sp)
 1807908:	1807e2c0 	call	1807e2c <_read_r>
 180790c:	1007883a 	mov	r3,r2
 1807910:	10000816 	blt	r2,zero,1807934 <__sread+0x40>
 1807914:	80801417 	ldw	r2,80(r16)
 1807918:	10c5883a 	add	r2,r2,r3
 180791c:	80801415 	stw	r2,80(r16)
 1807920:	1805883a 	mov	r2,r3
 1807924:	dfc00117 	ldw	ra,4(sp)
 1807928:	dc000017 	ldw	r16,0(sp)
 180792c:	dec00204 	addi	sp,sp,8
 1807930:	f800283a 	ret
 1807934:	8080030b 	ldhu	r2,12(r16)
 1807938:	10bbffcc 	andi	r2,r2,61439
 180793c:	8080030d 	sth	r2,12(r16)
 1807940:	1805883a 	mov	r2,r3
 1807944:	dfc00117 	ldw	ra,4(sp)
 1807948:	dc000017 	ldw	r16,0(sp)
 180794c:	dec00204 	addi	sp,sp,8
 1807950:	f800283a 	ret

01807954 <strcmp>:
 1807954:	2144b03a 	or	r2,r4,r5
 1807958:	108000cc 	andi	r2,r2,3
 180795c:	10001d1e 	bne	r2,zero,18079d4 <strcmp+0x80>
 1807960:	200f883a 	mov	r7,r4
 1807964:	28800017 	ldw	r2,0(r5)
 1807968:	21000017 	ldw	r4,0(r4)
 180796c:	280d883a 	mov	r6,r5
 1807970:	2080161e 	bne	r4,r2,18079cc <strcmp+0x78>
 1807974:	023fbff4 	movhi	r8,65279
 1807978:	423fbfc4 	addi	r8,r8,-257
 180797c:	2207883a 	add	r3,r4,r8
 1807980:	01602074 	movhi	r5,32897
 1807984:	29602004 	addi	r5,r5,-32640
 1807988:	1946703a 	and	r3,r3,r5
 180798c:	0104303a 	nor	r2,zero,r4
 1807990:	10c4703a 	and	r2,r2,r3
 1807994:	10001c1e 	bne	r2,zero,1807a08 <strcmp+0xb4>
 1807998:	4013883a 	mov	r9,r8
 180799c:	2811883a 	mov	r8,r5
 18079a0:	00000106 	br	18079a8 <strcmp+0x54>
 18079a4:	1800181e 	bne	r3,zero,1807a08 <strcmp+0xb4>
 18079a8:	39c00104 	addi	r7,r7,4
 18079ac:	39000017 	ldw	r4,0(r7)
 18079b0:	31800104 	addi	r6,r6,4
 18079b4:	31400017 	ldw	r5,0(r6)
 18079b8:	2245883a 	add	r2,r4,r9
 18079bc:	1204703a 	and	r2,r2,r8
 18079c0:	0106303a 	nor	r3,zero,r4
 18079c4:	1886703a 	and	r3,r3,r2
 18079c8:	217ff626 	beq	r4,r5,18079a4 <strcmp+0x50>
 18079cc:	3809883a 	mov	r4,r7
 18079d0:	300b883a 	mov	r5,r6
 18079d4:	20c00007 	ldb	r3,0(r4)
 18079d8:	1800051e 	bne	r3,zero,18079f0 <strcmp+0x9c>
 18079dc:	00000606 	br	18079f8 <strcmp+0xa4>
 18079e0:	21000044 	addi	r4,r4,1
 18079e4:	20c00007 	ldb	r3,0(r4)
 18079e8:	29400044 	addi	r5,r5,1
 18079ec:	18000226 	beq	r3,zero,18079f8 <strcmp+0xa4>
 18079f0:	28800007 	ldb	r2,0(r5)
 18079f4:	18bffa26 	beq	r3,r2,18079e0 <strcmp+0x8c>
 18079f8:	20c00003 	ldbu	r3,0(r4)
 18079fc:	28800003 	ldbu	r2,0(r5)
 1807a00:	1885c83a 	sub	r2,r3,r2
 1807a04:	f800283a 	ret
 1807a08:	0005883a 	mov	r2,zero
 1807a0c:	f800283a 	ret

01807a10 <_write_r>:
 1807a10:	defffd04 	addi	sp,sp,-12
 1807a14:	dc000015 	stw	r16,0(sp)
 1807a18:	04006074 	movhi	r16,385
 1807a1c:	840c5104 	addi	r16,r16,12612
 1807a20:	dc400115 	stw	r17,4(sp)
 1807a24:	80000015 	stw	zero,0(r16)
 1807a28:	2023883a 	mov	r17,r4
 1807a2c:	2809883a 	mov	r4,r5
 1807a30:	300b883a 	mov	r5,r6
 1807a34:	380d883a 	mov	r6,r7
 1807a38:	dfc00215 	stw	ra,8(sp)
 1807a3c:	180aaf80 	call	180aaf8 <write>
 1807a40:	1007883a 	mov	r3,r2
 1807a44:	00bfffc4 	movi	r2,-1
 1807a48:	18800626 	beq	r3,r2,1807a64 <_write_r+0x54>
 1807a4c:	1805883a 	mov	r2,r3
 1807a50:	dfc00217 	ldw	ra,8(sp)
 1807a54:	dc400117 	ldw	r17,4(sp)
 1807a58:	dc000017 	ldw	r16,0(sp)
 1807a5c:	dec00304 	addi	sp,sp,12
 1807a60:	f800283a 	ret
 1807a64:	80800017 	ldw	r2,0(r16)
 1807a68:	103ff826 	beq	r2,zero,1807a4c <_write_r+0x3c>
 1807a6c:	88800015 	stw	r2,0(r17)
 1807a70:	1805883a 	mov	r2,r3
 1807a74:	dfc00217 	ldw	ra,8(sp)
 1807a78:	dc400117 	ldw	r17,4(sp)
 1807a7c:	dc000017 	ldw	r16,0(sp)
 1807a80:	dec00304 	addi	sp,sp,12
 1807a84:	f800283a 	ret

01807a88 <_calloc_r>:
 1807a88:	298b383a 	mul	r5,r5,r6
 1807a8c:	defffe04 	addi	sp,sp,-8
 1807a90:	dc000015 	stw	r16,0(sp)
 1807a94:	dfc00115 	stw	ra,4(sp)
 1807a98:	18057040 	call	1805704 <_malloc_r>
 1807a9c:	1021883a 	mov	r16,r2
 1807aa0:	01c00904 	movi	r7,36
 1807aa4:	10000d26 	beq	r2,zero,1807adc <_calloc_r+0x54>
 1807aa8:	10ffff17 	ldw	r3,-4(r2)
 1807aac:	1009883a 	mov	r4,r2
 1807ab0:	00bfff04 	movi	r2,-4
 1807ab4:	1886703a 	and	r3,r3,r2
 1807ab8:	1887883a 	add	r3,r3,r2
 1807abc:	180d883a 	mov	r6,r3
 1807ac0:	000b883a 	mov	r5,zero
 1807ac4:	38c01736 	bltu	r7,r3,1807b24 <_calloc_r+0x9c>
 1807ac8:	008004c4 	movi	r2,19
 1807acc:	10c00836 	bltu	r2,r3,1807af0 <_calloc_r+0x68>
 1807ad0:	20000215 	stw	zero,8(r4)
 1807ad4:	20000015 	stw	zero,0(r4)
 1807ad8:	20000115 	stw	zero,4(r4)
 1807adc:	8005883a 	mov	r2,r16
 1807ae0:	dfc00117 	ldw	ra,4(sp)
 1807ae4:	dc000017 	ldw	r16,0(sp)
 1807ae8:	dec00204 	addi	sp,sp,8
 1807aec:	f800283a 	ret
 1807af0:	008006c4 	movi	r2,27
 1807af4:	80000015 	stw	zero,0(r16)
 1807af8:	80000115 	stw	zero,4(r16)
 1807afc:	81000204 	addi	r4,r16,8
 1807b00:	10fff32e 	bgeu	r2,r3,1807ad0 <_calloc_r+0x48>
 1807b04:	80000215 	stw	zero,8(r16)
 1807b08:	80000315 	stw	zero,12(r16)
 1807b0c:	81000404 	addi	r4,r16,16
 1807b10:	19ffef1e 	bne	r3,r7,1807ad0 <_calloc_r+0x48>
 1807b14:	81000604 	addi	r4,r16,24
 1807b18:	80000415 	stw	zero,16(r16)
 1807b1c:	80000515 	stw	zero,20(r16)
 1807b20:	003feb06 	br	1807ad0 <_calloc_r+0x48>
 1807b24:	18060a80 	call	18060a8 <memset>
 1807b28:	8005883a 	mov	r2,r16
 1807b2c:	dfc00117 	ldw	ra,4(sp)
 1807b30:	dc000017 	ldw	r16,0(sp)
 1807b34:	dec00204 	addi	sp,sp,8
 1807b38:	f800283a 	ret

01807b3c <_close_r>:
 1807b3c:	defffd04 	addi	sp,sp,-12
 1807b40:	dc000015 	stw	r16,0(sp)
 1807b44:	04006074 	movhi	r16,385
 1807b48:	840c5104 	addi	r16,r16,12612
 1807b4c:	dc400115 	stw	r17,4(sp)
 1807b50:	80000015 	stw	zero,0(r16)
 1807b54:	2023883a 	mov	r17,r4
 1807b58:	2809883a 	mov	r4,r5
 1807b5c:	dfc00215 	stw	ra,8(sp)
 1807b60:	180a2540 	call	180a254 <close>
 1807b64:	1007883a 	mov	r3,r2
 1807b68:	00bfffc4 	movi	r2,-1
 1807b6c:	18800626 	beq	r3,r2,1807b88 <_close_r+0x4c>
 1807b70:	1805883a 	mov	r2,r3
 1807b74:	dfc00217 	ldw	ra,8(sp)
 1807b78:	dc400117 	ldw	r17,4(sp)
 1807b7c:	dc000017 	ldw	r16,0(sp)
 1807b80:	dec00304 	addi	sp,sp,12
 1807b84:	f800283a 	ret
 1807b88:	80800017 	ldw	r2,0(r16)
 1807b8c:	103ff826 	beq	r2,zero,1807b70 <_close_r+0x34>
 1807b90:	88800015 	stw	r2,0(r17)
 1807b94:	1805883a 	mov	r2,r3
 1807b98:	dfc00217 	ldw	ra,8(sp)
 1807b9c:	dc400117 	ldw	r17,4(sp)
 1807ba0:	dc000017 	ldw	r16,0(sp)
 1807ba4:	dec00304 	addi	sp,sp,12
 1807ba8:	f800283a 	ret

01807bac <_fclose_r>:
 1807bac:	defffc04 	addi	sp,sp,-16
 1807bb0:	dc400115 	stw	r17,4(sp)
 1807bb4:	dc000015 	stw	r16,0(sp)
 1807bb8:	dfc00315 	stw	ra,12(sp)
 1807bbc:	dc800215 	stw	r18,8(sp)
 1807bc0:	2821883a 	mov	r16,r5
 1807bc4:	2023883a 	mov	r17,r4
 1807bc8:	28002926 	beq	r5,zero,1807c70 <_fclose_r+0xc4>
 1807bcc:	18047e80 	call	18047e8 <__sfp_lock_acquire>
 1807bd0:	88000226 	beq	r17,zero,1807bdc <_fclose_r+0x30>
 1807bd4:	88800e17 	ldw	r2,56(r17)
 1807bd8:	10002d26 	beq	r2,zero,1807c90 <_fclose_r+0xe4>
 1807bdc:	8080030f 	ldh	r2,12(r16)
 1807be0:	10002226 	beq	r2,zero,1807c6c <_fclose_r+0xc0>
 1807be4:	8809883a 	mov	r4,r17
 1807be8:	800b883a 	mov	r5,r16
 1807bec:	18045600 	call	1804560 <_fflush_r>
 1807bf0:	1025883a 	mov	r18,r2
 1807bf4:	80800b17 	ldw	r2,44(r16)
 1807bf8:	10000426 	beq	r2,zero,1807c0c <_fclose_r+0x60>
 1807bfc:	81400717 	ldw	r5,28(r16)
 1807c00:	8809883a 	mov	r4,r17
 1807c04:	103ee83a 	callr	r2
 1807c08:	10002a16 	blt	r2,zero,1807cb4 <_fclose_r+0x108>
 1807c0c:	8080030b 	ldhu	r2,12(r16)
 1807c10:	1080200c 	andi	r2,r2,128
 1807c14:	1000231e 	bne	r2,zero,1807ca4 <_fclose_r+0xf8>
 1807c18:	81400c17 	ldw	r5,48(r16)
 1807c1c:	28000526 	beq	r5,zero,1807c34 <_fclose_r+0x88>
 1807c20:	80801004 	addi	r2,r16,64
 1807c24:	28800226 	beq	r5,r2,1807c30 <_fclose_r+0x84>
 1807c28:	8809883a 	mov	r4,r17
 1807c2c:	1804b7c0 	call	1804b7c <_free_r>
 1807c30:	80000c15 	stw	zero,48(r16)
 1807c34:	81401117 	ldw	r5,68(r16)
 1807c38:	28000326 	beq	r5,zero,1807c48 <_fclose_r+0x9c>
 1807c3c:	8809883a 	mov	r4,r17
 1807c40:	1804b7c0 	call	1804b7c <_free_r>
 1807c44:	80001115 	stw	zero,68(r16)
 1807c48:	8000030d 	sth	zero,12(r16)
 1807c4c:	18047ec0 	call	18047ec <__sfp_lock_release>
 1807c50:	9005883a 	mov	r2,r18
 1807c54:	dfc00317 	ldw	ra,12(sp)
 1807c58:	dc800217 	ldw	r18,8(sp)
 1807c5c:	dc400117 	ldw	r17,4(sp)
 1807c60:	dc000017 	ldw	r16,0(sp)
 1807c64:	dec00404 	addi	sp,sp,16
 1807c68:	f800283a 	ret
 1807c6c:	18047ec0 	call	18047ec <__sfp_lock_release>
 1807c70:	0025883a 	mov	r18,zero
 1807c74:	9005883a 	mov	r2,r18
 1807c78:	dfc00317 	ldw	ra,12(sp)
 1807c7c:	dc800217 	ldw	r18,8(sp)
 1807c80:	dc400117 	ldw	r17,4(sp)
 1807c84:	dc000017 	ldw	r16,0(sp)
 1807c88:	dec00404 	addi	sp,sp,16
 1807c8c:	f800283a 	ret
 1807c90:	8809883a 	mov	r4,r17
 1807c94:	18047f80 	call	18047f8 <__sinit>
 1807c98:	8080030f 	ldh	r2,12(r16)
 1807c9c:	103fd11e 	bne	r2,zero,1807be4 <_fclose_r+0x38>
 1807ca0:	003ff206 	br	1807c6c <_fclose_r+0xc0>
 1807ca4:	81400417 	ldw	r5,16(r16)
 1807ca8:	8809883a 	mov	r4,r17
 1807cac:	1804b7c0 	call	1804b7c <_free_r>
 1807cb0:	003fd906 	br	1807c18 <_fclose_r+0x6c>
 1807cb4:	04bfffc4 	movi	r18,-1
 1807cb8:	003fd406 	br	1807c0c <_fclose_r+0x60>

01807cbc <fclose>:
 1807cbc:	00806074 	movhi	r2,385
 1807cc0:	108c3704 	addi	r2,r2,12508
 1807cc4:	200b883a 	mov	r5,r4
 1807cc8:	11000017 	ldw	r4,0(r2)
 1807ccc:	1807bac1 	jmpi	1807bac <_fclose_r>

01807cd0 <_fstat_r>:
 1807cd0:	defffd04 	addi	sp,sp,-12
 1807cd4:	dc000015 	stw	r16,0(sp)
 1807cd8:	04006074 	movhi	r16,385
 1807cdc:	840c5104 	addi	r16,r16,12612
 1807ce0:	dc400115 	stw	r17,4(sp)
 1807ce4:	80000015 	stw	zero,0(r16)
 1807ce8:	2023883a 	mov	r17,r4
 1807cec:	2809883a 	mov	r4,r5
 1807cf0:	300b883a 	mov	r5,r6
 1807cf4:	dfc00215 	stw	ra,8(sp)
 1807cf8:	180a3dc0 	call	180a3dc <fstat>
 1807cfc:	1007883a 	mov	r3,r2
 1807d00:	00bfffc4 	movi	r2,-1
 1807d04:	18800626 	beq	r3,r2,1807d20 <_fstat_r+0x50>
 1807d08:	1805883a 	mov	r2,r3
 1807d0c:	dfc00217 	ldw	ra,8(sp)
 1807d10:	dc400117 	ldw	r17,4(sp)
 1807d14:	dc000017 	ldw	r16,0(sp)
 1807d18:	dec00304 	addi	sp,sp,12
 1807d1c:	f800283a 	ret
 1807d20:	80800017 	ldw	r2,0(r16)
 1807d24:	103ff826 	beq	r2,zero,1807d08 <_fstat_r+0x38>
 1807d28:	88800015 	stw	r2,0(r17)
 1807d2c:	1805883a 	mov	r2,r3
 1807d30:	dfc00217 	ldw	ra,8(sp)
 1807d34:	dc400117 	ldw	r17,4(sp)
 1807d38:	dc000017 	ldw	r16,0(sp)
 1807d3c:	dec00304 	addi	sp,sp,12
 1807d40:	f800283a 	ret

01807d44 <_isatty_r>:
 1807d44:	defffd04 	addi	sp,sp,-12
 1807d48:	dc000015 	stw	r16,0(sp)
 1807d4c:	04006074 	movhi	r16,385
 1807d50:	840c5104 	addi	r16,r16,12612
 1807d54:	dc400115 	stw	r17,4(sp)
 1807d58:	80000015 	stw	zero,0(r16)
 1807d5c:	2023883a 	mov	r17,r4
 1807d60:	2809883a 	mov	r4,r5
 1807d64:	dfc00215 	stw	ra,8(sp)
 1807d68:	180a5100 	call	180a510 <isatty>
 1807d6c:	1007883a 	mov	r3,r2
 1807d70:	00bfffc4 	movi	r2,-1
 1807d74:	18800626 	beq	r3,r2,1807d90 <_isatty_r+0x4c>
 1807d78:	1805883a 	mov	r2,r3
 1807d7c:	dfc00217 	ldw	ra,8(sp)
 1807d80:	dc400117 	ldw	r17,4(sp)
 1807d84:	dc000017 	ldw	r16,0(sp)
 1807d88:	dec00304 	addi	sp,sp,12
 1807d8c:	f800283a 	ret
 1807d90:	80800017 	ldw	r2,0(r16)
 1807d94:	103ff826 	beq	r2,zero,1807d78 <_isatty_r+0x34>
 1807d98:	88800015 	stw	r2,0(r17)
 1807d9c:	1805883a 	mov	r2,r3
 1807da0:	dfc00217 	ldw	ra,8(sp)
 1807da4:	dc400117 	ldw	r17,4(sp)
 1807da8:	dc000017 	ldw	r16,0(sp)
 1807dac:	dec00304 	addi	sp,sp,12
 1807db0:	f800283a 	ret

01807db4 <_lseek_r>:
 1807db4:	defffd04 	addi	sp,sp,-12
 1807db8:	dc000015 	stw	r16,0(sp)
 1807dbc:	04006074 	movhi	r16,385
 1807dc0:	840c5104 	addi	r16,r16,12612
 1807dc4:	dc400115 	stw	r17,4(sp)
 1807dc8:	80000015 	stw	zero,0(r16)
 1807dcc:	2023883a 	mov	r17,r4
 1807dd0:	2809883a 	mov	r4,r5
 1807dd4:	300b883a 	mov	r5,r6
 1807dd8:	380d883a 	mov	r6,r7
 1807ddc:	dfc00215 	stw	ra,8(sp)
 1807de0:	180a6300 	call	180a630 <lseek>
 1807de4:	1007883a 	mov	r3,r2
 1807de8:	00bfffc4 	movi	r2,-1
 1807dec:	18800626 	beq	r3,r2,1807e08 <_lseek_r+0x54>
 1807df0:	1805883a 	mov	r2,r3
 1807df4:	dfc00217 	ldw	ra,8(sp)
 1807df8:	dc400117 	ldw	r17,4(sp)
 1807dfc:	dc000017 	ldw	r16,0(sp)
 1807e00:	dec00304 	addi	sp,sp,12
 1807e04:	f800283a 	ret
 1807e08:	80800017 	ldw	r2,0(r16)
 1807e0c:	103ff826 	beq	r2,zero,1807df0 <_lseek_r+0x3c>
 1807e10:	88800015 	stw	r2,0(r17)
 1807e14:	1805883a 	mov	r2,r3
 1807e18:	dfc00217 	ldw	ra,8(sp)
 1807e1c:	dc400117 	ldw	r17,4(sp)
 1807e20:	dc000017 	ldw	r16,0(sp)
 1807e24:	dec00304 	addi	sp,sp,12
 1807e28:	f800283a 	ret

01807e2c <_read_r>:
 1807e2c:	defffd04 	addi	sp,sp,-12
 1807e30:	dc000015 	stw	r16,0(sp)
 1807e34:	04006074 	movhi	r16,385
 1807e38:	840c5104 	addi	r16,r16,12612
 1807e3c:	dc400115 	stw	r17,4(sp)
 1807e40:	80000015 	stw	zero,0(r16)
 1807e44:	2023883a 	mov	r17,r4
 1807e48:	2809883a 	mov	r4,r5
 1807e4c:	300b883a 	mov	r5,r6
 1807e50:	380d883a 	mov	r6,r7
 1807e54:	dfc00215 	stw	ra,8(sp)
 1807e58:	180a82c0 	call	180a82c <read>
 1807e5c:	1007883a 	mov	r3,r2
 1807e60:	00bfffc4 	movi	r2,-1
 1807e64:	18800626 	beq	r3,r2,1807e80 <_read_r+0x54>
 1807e68:	1805883a 	mov	r2,r3
 1807e6c:	dfc00217 	ldw	ra,8(sp)
 1807e70:	dc400117 	ldw	r17,4(sp)
 1807e74:	dc000017 	ldw	r16,0(sp)
 1807e78:	dec00304 	addi	sp,sp,12
 1807e7c:	f800283a 	ret
 1807e80:	80800017 	ldw	r2,0(r16)
 1807e84:	103ff826 	beq	r2,zero,1807e68 <_read_r+0x3c>
 1807e88:	88800015 	stw	r2,0(r17)
 1807e8c:	1805883a 	mov	r2,r3
 1807e90:	dfc00217 	ldw	ra,8(sp)
 1807e94:	dc400117 	ldw	r17,4(sp)
 1807e98:	dc000017 	ldw	r16,0(sp)
 1807e9c:	dec00304 	addi	sp,sp,12
 1807ea0:	f800283a 	ret

01807ea4 <__udivdi3>:
 1807ea4:	defff004 	addi	sp,sp,-64
 1807ea8:	2005883a 	mov	r2,r4
 1807eac:	3011883a 	mov	r8,r6
 1807eb0:	df000e15 	stw	fp,56(sp)
 1807eb4:	dd000a15 	stw	r20,40(sp)
 1807eb8:	dc000615 	stw	r16,24(sp)
 1807ebc:	dfc00f15 	stw	ra,60(sp)
 1807ec0:	ddc00d15 	stw	r23,52(sp)
 1807ec4:	dd800c15 	stw	r22,48(sp)
 1807ec8:	dd400b15 	stw	r21,44(sp)
 1807ecc:	dcc00915 	stw	r19,36(sp)
 1807ed0:	dc800815 	stw	r18,32(sp)
 1807ed4:	dc400715 	stw	r17,28(sp)
 1807ed8:	4021883a 	mov	r16,r8
 1807edc:	1039883a 	mov	fp,r2
 1807ee0:	2829883a 	mov	r20,r5
 1807ee4:	38003b1e 	bne	r7,zero,1807fd4 <__udivdi3+0x130>
 1807ee8:	2a005c36 	bltu	r5,r8,180805c <__udivdi3+0x1b8>
 1807eec:	4000a626 	beq	r8,zero,1808188 <__udivdi3+0x2e4>
 1807ef0:	00bfffd4 	movui	r2,65535
 1807ef4:	14009e36 	bltu	r2,r16,1808170 <__udivdi3+0x2cc>
 1807ef8:	00803fc4 	movi	r2,255
 1807efc:	14013d36 	bltu	r2,r16,18083f4 <__udivdi3+0x550>
 1807f00:	000b883a 	mov	r5,zero
 1807f04:	0005883a 	mov	r2,zero
 1807f08:	8084d83a 	srl	r2,r16,r2
 1807f0c:	01006074 	movhi	r4,385
 1807f10:	21038704 	addi	r4,r4,3612
 1807f14:	01800804 	movi	r6,32
 1807f18:	1105883a 	add	r2,r2,r4
 1807f1c:	10c00003 	ldbu	r3,0(r2)
 1807f20:	28c7883a 	add	r3,r5,r3
 1807f24:	30edc83a 	sub	r22,r6,r3
 1807f28:	b000ee1e 	bne	r22,zero,18082e4 <__udivdi3+0x440>
 1807f2c:	802ad43a 	srli	r21,r16,16
 1807f30:	00800044 	movi	r2,1
 1807f34:	a423c83a 	sub	r17,r20,r16
 1807f38:	85ffffcc 	andi	r23,r16,65535
 1807f3c:	d8800315 	stw	r2,12(sp)
 1807f40:	8809883a 	mov	r4,r17
 1807f44:	a80b883a 	mov	r5,r21
 1807f48:	1809c980 	call	1809c98 <__udivsi3>
 1807f4c:	8809883a 	mov	r4,r17
 1807f50:	a80b883a 	mov	r5,r21
 1807f54:	102d883a 	mov	r22,r2
 1807f58:	1809ca00 	call	1809ca0 <__umodsi3>
 1807f5c:	1004943a 	slli	r2,r2,16
 1807f60:	e006d43a 	srli	r3,fp,16
 1807f64:	bda3383a 	mul	r17,r23,r22
 1807f68:	10c4b03a 	or	r2,r2,r3
 1807f6c:	1440042e 	bgeu	r2,r17,1807f80 <__udivdi3+0xdc>
 1807f70:	1405883a 	add	r2,r2,r16
 1807f74:	b5bfffc4 	addi	r22,r22,-1
 1807f78:	14000136 	bltu	r2,r16,1807f80 <__udivdi3+0xdc>
 1807f7c:	14413d36 	bltu	r2,r17,1808474 <__udivdi3+0x5d0>
 1807f80:	1463c83a 	sub	r17,r2,r17
 1807f84:	8809883a 	mov	r4,r17
 1807f88:	a80b883a 	mov	r5,r21
 1807f8c:	1809c980 	call	1809c98 <__udivsi3>
 1807f90:	8809883a 	mov	r4,r17
 1807f94:	a80b883a 	mov	r5,r21
 1807f98:	1029883a 	mov	r20,r2
 1807f9c:	1809ca00 	call	1809ca0 <__umodsi3>
 1807fa0:	1004943a 	slli	r2,r2,16
 1807fa4:	bd09383a 	mul	r4,r23,r20
 1807fa8:	e0ffffcc 	andi	r3,fp,65535
 1807fac:	10c4b03a 	or	r2,r2,r3
 1807fb0:	1100042e 	bgeu	r2,r4,1807fc4 <__udivdi3+0x120>
 1807fb4:	8085883a 	add	r2,r16,r2
 1807fb8:	a53fffc4 	addi	r20,r20,-1
 1807fbc:	14000136 	bltu	r2,r16,1807fc4 <__udivdi3+0x120>
 1807fc0:	11012036 	bltu	r2,r4,1808444 <__udivdi3+0x5a0>
 1807fc4:	b004943a 	slli	r2,r22,16
 1807fc8:	d9000317 	ldw	r4,12(sp)
 1807fcc:	a084b03a 	or	r2,r20,r2
 1807fd0:	00001506 	br	1808028 <__udivdi3+0x184>
 1807fd4:	380d883a 	mov	r6,r7
 1807fd8:	29c06236 	bltu	r5,r7,1808164 <__udivdi3+0x2c0>
 1807fdc:	00bfffd4 	movui	r2,65535
 1807fe0:	11c05a36 	bltu	r2,r7,180814c <__udivdi3+0x2a8>
 1807fe4:	00803fc4 	movi	r2,255
 1807fe8:	11c0fc36 	bltu	r2,r7,18083dc <__udivdi3+0x538>
 1807fec:	000b883a 	mov	r5,zero
 1807ff0:	0005883a 	mov	r2,zero
 1807ff4:	3084d83a 	srl	r2,r6,r2
 1807ff8:	01006074 	movhi	r4,385
 1807ffc:	21038704 	addi	r4,r4,3612
 1808000:	01c00804 	movi	r7,32
 1808004:	1105883a 	add	r2,r2,r4
 1808008:	10c00003 	ldbu	r3,0(r2)
 180800c:	28c7883a 	add	r3,r5,r3
 1808010:	38efc83a 	sub	r23,r7,r3
 1808014:	b800691e 	bne	r23,zero,18081bc <__udivdi3+0x318>
 1808018:	35000136 	bltu	r6,r20,1808020 <__udivdi3+0x17c>
 180801c:	e4005136 	bltu	fp,r16,1808164 <__udivdi3+0x2c0>
 1808020:	00800044 	movi	r2,1
 1808024:	0009883a 	mov	r4,zero
 1808028:	2007883a 	mov	r3,r4
 180802c:	dfc00f17 	ldw	ra,60(sp)
 1808030:	df000e17 	ldw	fp,56(sp)
 1808034:	ddc00d17 	ldw	r23,52(sp)
 1808038:	dd800c17 	ldw	r22,48(sp)
 180803c:	dd400b17 	ldw	r21,44(sp)
 1808040:	dd000a17 	ldw	r20,40(sp)
 1808044:	dcc00917 	ldw	r19,36(sp)
 1808048:	dc800817 	ldw	r18,32(sp)
 180804c:	dc400717 	ldw	r17,28(sp)
 1808050:	dc000617 	ldw	r16,24(sp)
 1808054:	dec01004 	addi	sp,sp,64
 1808058:	f800283a 	ret
 180805c:	00bfffd4 	movui	r2,65535
 1808060:	12005036 	bltu	r2,r8,18081a4 <__udivdi3+0x300>
 1808064:	00803fc4 	movi	r2,255
 1808068:	1200e836 	bltu	r2,r8,180840c <__udivdi3+0x568>
 180806c:	000b883a 	mov	r5,zero
 1808070:	0005883a 	mov	r2,zero
 1808074:	8084d83a 	srl	r2,r16,r2
 1808078:	01006074 	movhi	r4,385
 180807c:	21038704 	addi	r4,r4,3612
 1808080:	01800804 	movi	r6,32
 1808084:	1105883a 	add	r2,r2,r4
 1808088:	10c00003 	ldbu	r3,0(r2)
 180808c:	28c7883a 	add	r3,r5,r3
 1808090:	30cbc83a 	sub	r5,r6,r3
 1808094:	28000626 	beq	r5,zero,18080b0 <__udivdi3+0x20c>
 1808098:	3145c83a 	sub	r2,r6,r5
 180809c:	e084d83a 	srl	r2,fp,r2
 18080a0:	a146983a 	sll	r3,r20,r5
 18080a4:	e178983a 	sll	fp,fp,r5
 18080a8:	8160983a 	sll	r16,r16,r5
 18080ac:	18a8b03a 	or	r20,r3,r2
 18080b0:	802ad43a 	srli	r21,r16,16
 18080b4:	a009883a 	mov	r4,r20
 18080b8:	85ffffcc 	andi	r23,r16,65535
 18080bc:	a80b883a 	mov	r5,r21
 18080c0:	1809c980 	call	1809c98 <__udivsi3>
 18080c4:	a009883a 	mov	r4,r20
 18080c8:	a80b883a 	mov	r5,r21
 18080cc:	102d883a 	mov	r22,r2
 18080d0:	1809ca00 	call	1809ca0 <__umodsi3>
 18080d4:	1004943a 	slli	r2,r2,16
 18080d8:	e006d43a 	srli	r3,fp,16
 18080dc:	bda3383a 	mul	r17,r23,r22
 18080e0:	10c4b03a 	or	r2,r2,r3
 18080e4:	1440042e 	bgeu	r2,r17,18080f8 <__udivdi3+0x254>
 18080e8:	1405883a 	add	r2,r2,r16
 18080ec:	b5bfffc4 	addi	r22,r22,-1
 18080f0:	14000136 	bltu	r2,r16,18080f8 <__udivdi3+0x254>
 18080f4:	1440d536 	bltu	r2,r17,180844c <__udivdi3+0x5a8>
 18080f8:	1463c83a 	sub	r17,r2,r17
 18080fc:	8809883a 	mov	r4,r17
 1808100:	a80b883a 	mov	r5,r21
 1808104:	1809c980 	call	1809c98 <__udivsi3>
 1808108:	8809883a 	mov	r4,r17
 180810c:	a80b883a 	mov	r5,r21
 1808110:	1029883a 	mov	r20,r2
 1808114:	1809ca00 	call	1809ca0 <__umodsi3>
 1808118:	1004943a 	slli	r2,r2,16
 180811c:	bd09383a 	mul	r4,r23,r20
 1808120:	e0ffffcc 	andi	r3,fp,65535
 1808124:	10c4b03a 	or	r2,r2,r3
 1808128:	1100042e 	bgeu	r2,r4,180813c <__udivdi3+0x298>
 180812c:	8085883a 	add	r2,r16,r2
 1808130:	a53fffc4 	addi	r20,r20,-1
 1808134:	14000136 	bltu	r2,r16,180813c <__udivdi3+0x298>
 1808138:	1100c736 	bltu	r2,r4,1808458 <__udivdi3+0x5b4>
 180813c:	b004943a 	slli	r2,r22,16
 1808140:	0009883a 	mov	r4,zero
 1808144:	a084b03a 	or	r2,r20,r2
 1808148:	003fb706 	br	1808028 <__udivdi3+0x184>
 180814c:	00804034 	movhi	r2,256
 1808150:	10bfffc4 	addi	r2,r2,-1
 1808154:	11c0a436 	bltu	r2,r7,18083e8 <__udivdi3+0x544>
 1808158:	01400404 	movi	r5,16
 180815c:	2805883a 	mov	r2,r5
 1808160:	003fa406 	br	1807ff4 <__udivdi3+0x150>
 1808164:	0005883a 	mov	r2,zero
 1808168:	0009883a 	mov	r4,zero
 180816c:	003fae06 	br	1808028 <__udivdi3+0x184>
 1808170:	00804034 	movhi	r2,256
 1808174:	10bfffc4 	addi	r2,r2,-1
 1808178:	1400a136 	bltu	r2,r16,1808400 <__udivdi3+0x55c>
 180817c:	01400404 	movi	r5,16
 1808180:	2805883a 	mov	r2,r5
 1808184:	003f6006 	br	1807f08 <__udivdi3+0x64>
 1808188:	01000044 	movi	r4,1
 180818c:	000b883a 	mov	r5,zero
 1808190:	1809c980 	call	1809c98 <__udivsi3>
 1808194:	1021883a 	mov	r16,r2
 1808198:	00bfffd4 	movui	r2,65535
 180819c:	143ff436 	bltu	r2,r16,1808170 <__udivdi3+0x2cc>
 18081a0:	003f5506 	br	1807ef8 <__udivdi3+0x54>
 18081a4:	00804034 	movhi	r2,256
 18081a8:	10bfffc4 	addi	r2,r2,-1
 18081ac:	12009a36 	bltu	r2,r8,1808418 <__udivdi3+0x574>
 18081b0:	01400404 	movi	r5,16
 18081b4:	2805883a 	mov	r2,r5
 18081b8:	003fae06 	br	1808074 <__udivdi3+0x1d0>
 18081bc:	3dc5c83a 	sub	r2,r7,r23
 18081c0:	35c8983a 	sll	r4,r6,r23
 18081c4:	8086d83a 	srl	r3,r16,r2
 18081c8:	a0a2d83a 	srl	r17,r20,r2
 18081cc:	e084d83a 	srl	r2,fp,r2
 18081d0:	20eab03a 	or	r21,r4,r3
 18081d4:	a82cd43a 	srli	r22,r21,16
 18081d8:	a5c6983a 	sll	r3,r20,r23
 18081dc:	8809883a 	mov	r4,r17
 18081e0:	b00b883a 	mov	r5,r22
 18081e4:	1886b03a 	or	r3,r3,r2
 18081e8:	d8c00215 	stw	r3,8(sp)
 18081ec:	1809c980 	call	1809c98 <__udivsi3>
 18081f0:	8809883a 	mov	r4,r17
 18081f4:	b00b883a 	mov	r5,r22
 18081f8:	1029883a 	mov	r20,r2
 18081fc:	1809ca00 	call	1809ca0 <__umodsi3>
 1808200:	a8ffffcc 	andi	r3,r21,65535
 1808204:	d8c00515 	stw	r3,20(sp)
 1808208:	d9000217 	ldw	r4,8(sp)
 180820c:	d9400517 	ldw	r5,20(sp)
 1808210:	1004943a 	slli	r2,r2,16
 1808214:	2006d43a 	srli	r3,r4,16
 1808218:	85e0983a 	sll	r16,r16,r23
 180821c:	2d23383a 	mul	r17,r5,r20
 1808220:	10c4b03a 	or	r2,r2,r3
 1808224:	dc000015 	stw	r16,0(sp)
 1808228:	1440032e 	bgeu	r2,r17,1808238 <__udivdi3+0x394>
 180822c:	1545883a 	add	r2,r2,r21
 1808230:	a53fffc4 	addi	r20,r20,-1
 1808234:	15407f2e 	bgeu	r2,r21,1808434 <__udivdi3+0x590>
 1808238:	1463c83a 	sub	r17,r2,r17
 180823c:	8809883a 	mov	r4,r17
 1808240:	b00b883a 	mov	r5,r22
 1808244:	1809c980 	call	1809c98 <__udivsi3>
 1808248:	8809883a 	mov	r4,r17
 180824c:	b00b883a 	mov	r5,r22
 1808250:	1021883a 	mov	r16,r2
 1808254:	1809ca00 	call	1809ca0 <__umodsi3>
 1808258:	d8c00517 	ldw	r3,20(sp)
 180825c:	d9000217 	ldw	r4,8(sp)
 1808260:	1004943a 	slli	r2,r2,16
 1808264:	1c0f383a 	mul	r7,r3,r16
 1808268:	20ffffcc 	andi	r3,r4,65535
 180826c:	10e2b03a 	or	r17,r2,r3
 1808270:	89c0032e 	bgeu	r17,r7,1808280 <__udivdi3+0x3dc>
 1808274:	8d63883a 	add	r17,r17,r21
 1808278:	843fffc4 	addi	r16,r16,-1
 180827c:	8d40692e 	bgeu	r17,r21,1808424 <__udivdi3+0x580>
 1808280:	a008943a 	slli	r4,r20,16
 1808284:	d9400017 	ldw	r5,0(sp)
 1808288:	89e3c83a 	sub	r17,r17,r7
 180828c:	8110b03a 	or	r8,r16,r4
 1808290:	280cd43a 	srli	r6,r5,16
 1808294:	28ffffcc 	andi	r3,r5,65535
 1808298:	40bfffcc 	andi	r2,r8,65535
 180829c:	400ad43a 	srli	r5,r8,16
 18082a0:	10d3383a 	mul	r9,r2,r3
 18082a4:	1185383a 	mul	r2,r2,r6
 18082a8:	28c7383a 	mul	r3,r5,r3
 18082ac:	4808d43a 	srli	r4,r9,16
 18082b0:	298b383a 	mul	r5,r5,r6
 18082b4:	10c5883a 	add	r2,r2,r3
 18082b8:	2089883a 	add	r4,r4,r2
 18082bc:	20c0022e 	bgeu	r4,r3,18082c8 <__udivdi3+0x424>
 18082c0:	00800074 	movhi	r2,1
 18082c4:	288b883a 	add	r5,r5,r2
 18082c8:	2004d43a 	srli	r2,r4,16
 18082cc:	288b883a 	add	r5,r5,r2
 18082d0:	89403f36 	bltu	r17,r5,18083d0 <__udivdi3+0x52c>
 18082d4:	89403926 	beq	r17,r5,18083bc <__udivdi3+0x518>
 18082d8:	4005883a 	mov	r2,r8
 18082dc:	0009883a 	mov	r4,zero
 18082e0:	003f5106 	br	1808028 <__udivdi3+0x184>
 18082e4:	85a0983a 	sll	r16,r16,r22
 18082e8:	3585c83a 	sub	r2,r6,r22
 18082ec:	a0a2d83a 	srl	r17,r20,r2
 18082f0:	802ad43a 	srli	r21,r16,16
 18082f4:	e084d83a 	srl	r2,fp,r2
 18082f8:	a586983a 	sll	r3,r20,r22
 18082fc:	8809883a 	mov	r4,r17
 1808300:	a80b883a 	mov	r5,r21
 1808304:	1886b03a 	or	r3,r3,r2
 1808308:	d8c00115 	stw	r3,4(sp)
 180830c:	1809c980 	call	1809c98 <__udivsi3>
 1808310:	8809883a 	mov	r4,r17
 1808314:	a80b883a 	mov	r5,r21
 1808318:	d8800415 	stw	r2,16(sp)
 180831c:	1809ca00 	call	1809ca0 <__umodsi3>
 1808320:	d9000117 	ldw	r4,4(sp)
 1808324:	d9400417 	ldw	r5,16(sp)
 1808328:	1004943a 	slli	r2,r2,16
 180832c:	85ffffcc 	andi	r23,r16,65535
 1808330:	2006d43a 	srli	r3,r4,16
 1808334:	b963383a 	mul	r17,r23,r5
 1808338:	10c4b03a 	or	r2,r2,r3
 180833c:	1440042e 	bgeu	r2,r17,1808350 <__udivdi3+0x4ac>
 1808340:	297fffc4 	addi	r5,r5,-1
 1808344:	1405883a 	add	r2,r2,r16
 1808348:	d9400415 	stw	r5,16(sp)
 180834c:	1400442e 	bgeu	r2,r16,1808460 <__udivdi3+0x5bc>
 1808350:	1463c83a 	sub	r17,r2,r17
 1808354:	8809883a 	mov	r4,r17
 1808358:	a80b883a 	mov	r5,r21
 180835c:	1809c980 	call	1809c98 <__udivsi3>
 1808360:	8809883a 	mov	r4,r17
 1808364:	a80b883a 	mov	r5,r21
 1808368:	1029883a 	mov	r20,r2
 180836c:	1809ca00 	call	1809ca0 <__umodsi3>
 1808370:	d9400117 	ldw	r5,4(sp)
 1808374:	1004943a 	slli	r2,r2,16
 1808378:	bd09383a 	mul	r4,r23,r20
 180837c:	28ffffcc 	andi	r3,r5,65535
 1808380:	10c6b03a 	or	r3,r2,r3
 1808384:	1900062e 	bgeu	r3,r4,18083a0 <__udivdi3+0x4fc>
 1808388:	1c07883a 	add	r3,r3,r16
 180838c:	a53fffc4 	addi	r20,r20,-1
 1808390:	1c000336 	bltu	r3,r16,18083a0 <__udivdi3+0x4fc>
 1808394:	1900022e 	bgeu	r3,r4,18083a0 <__udivdi3+0x4fc>
 1808398:	a53fffc4 	addi	r20,r20,-1
 180839c:	1c07883a 	add	r3,r3,r16
 18083a0:	d9400417 	ldw	r5,16(sp)
 18083a4:	e5b8983a 	sll	fp,fp,r22
 18083a8:	1923c83a 	sub	r17,r3,r4
 18083ac:	2804943a 	slli	r2,r5,16
 18083b0:	a0a8b03a 	or	r20,r20,r2
 18083b4:	dd000315 	stw	r20,12(sp)
 18083b8:	003ee106 	br	1807f40 <__udivdi3+0x9c>
 18083bc:	2004943a 	slli	r2,r4,16
 18083c0:	e5c8983a 	sll	r4,fp,r23
 18083c4:	48ffffcc 	andi	r3,r9,65535
 18083c8:	10c5883a 	add	r2,r2,r3
 18083cc:	20bfc22e 	bgeu	r4,r2,18082d8 <__udivdi3+0x434>
 18083d0:	40bfffc4 	addi	r2,r8,-1
 18083d4:	0009883a 	mov	r4,zero
 18083d8:	003f1306 	br	1808028 <__udivdi3+0x184>
 18083dc:	01400204 	movi	r5,8
 18083e0:	2805883a 	mov	r2,r5
 18083e4:	003f0306 	br	1807ff4 <__udivdi3+0x150>
 18083e8:	01400604 	movi	r5,24
 18083ec:	2805883a 	mov	r2,r5
 18083f0:	003f0006 	br	1807ff4 <__udivdi3+0x150>
 18083f4:	01400204 	movi	r5,8
 18083f8:	2805883a 	mov	r2,r5
 18083fc:	003ec206 	br	1807f08 <__udivdi3+0x64>
 1808400:	01400604 	movi	r5,24
 1808404:	2805883a 	mov	r2,r5
 1808408:	003ebf06 	br	1807f08 <__udivdi3+0x64>
 180840c:	01400204 	movi	r5,8
 1808410:	2805883a 	mov	r2,r5
 1808414:	003f1706 	br	1808074 <__udivdi3+0x1d0>
 1808418:	01400604 	movi	r5,24
 180841c:	2805883a 	mov	r2,r5
 1808420:	003f1406 	br	1808074 <__udivdi3+0x1d0>
 1808424:	89ff962e 	bgeu	r17,r7,1808280 <__udivdi3+0x3dc>
 1808428:	8d63883a 	add	r17,r17,r21
 180842c:	843fffc4 	addi	r16,r16,-1
 1808430:	003f9306 	br	1808280 <__udivdi3+0x3dc>
 1808434:	147f802e 	bgeu	r2,r17,1808238 <__udivdi3+0x394>
 1808438:	a53fffc4 	addi	r20,r20,-1
 180843c:	1545883a 	add	r2,r2,r21
 1808440:	003f7d06 	br	1808238 <__udivdi3+0x394>
 1808444:	a53fffc4 	addi	r20,r20,-1
 1808448:	003ede06 	br	1807fc4 <__udivdi3+0x120>
 180844c:	b5bfffc4 	addi	r22,r22,-1
 1808450:	1405883a 	add	r2,r2,r16
 1808454:	003f2806 	br	18080f8 <__udivdi3+0x254>
 1808458:	a53fffc4 	addi	r20,r20,-1
 180845c:	003f3706 	br	180813c <__udivdi3+0x298>
 1808460:	147fbb2e 	bgeu	r2,r17,1808350 <__udivdi3+0x4ac>
 1808464:	297fffc4 	addi	r5,r5,-1
 1808468:	1405883a 	add	r2,r2,r16
 180846c:	d9400415 	stw	r5,16(sp)
 1808470:	003fb706 	br	1808350 <__udivdi3+0x4ac>
 1808474:	b5bfffc4 	addi	r22,r22,-1
 1808478:	1405883a 	add	r2,r2,r16
 180847c:	003ec006 	br	1807f80 <__udivdi3+0xdc>

01808480 <__umoddi3>:
 1808480:	defff104 	addi	sp,sp,-60
 1808484:	dd800b15 	stw	r22,44(sp)
 1808488:	dd000915 	stw	r20,36(sp)
 180848c:	dc000515 	stw	r16,20(sp)
 1808490:	dfc00e15 	stw	ra,56(sp)
 1808494:	df000d15 	stw	fp,52(sp)
 1808498:	ddc00c15 	stw	r23,48(sp)
 180849c:	dd400a15 	stw	r21,40(sp)
 18084a0:	dcc00815 	stw	r19,32(sp)
 18084a4:	dc800715 	stw	r18,28(sp)
 18084a8:	dc400615 	stw	r17,24(sp)
 18084ac:	3021883a 	mov	r16,r6
 18084b0:	202d883a 	mov	r22,r4
 18084b4:	2829883a 	mov	r20,r5
 18084b8:	38002b1e 	bne	r7,zero,1808568 <__umoddi3+0xe8>
 18084bc:	29805036 	bltu	r5,r6,1808600 <__umoddi3+0x180>
 18084c0:	30008a26 	beq	r6,zero,18086ec <__umoddi3+0x26c>
 18084c4:	00bfffd4 	movui	r2,65535
 18084c8:	14008236 	bltu	r2,r16,18086d4 <__umoddi3+0x254>
 18084cc:	00803fc4 	movi	r2,255
 18084d0:	14013636 	bltu	r2,r16,18089ac <__umoddi3+0x52c>
 18084d4:	000b883a 	mov	r5,zero
 18084d8:	0005883a 	mov	r2,zero
 18084dc:	8084d83a 	srl	r2,r16,r2
 18084e0:	01006074 	movhi	r4,385
 18084e4:	21038704 	addi	r4,r4,3612
 18084e8:	01800804 	movi	r6,32
 18084ec:	1105883a 	add	r2,r2,r4
 18084f0:	10c00003 	ldbu	r3,0(r2)
 18084f4:	28c7883a 	add	r3,r5,r3
 18084f8:	30efc83a 	sub	r23,r6,r3
 18084fc:	b800941e 	bne	r23,zero,1808750 <__umoddi3+0x2d0>
 1808500:	802ad43a 	srli	r21,r16,16
 1808504:	a423c83a 	sub	r17,r20,r16
 1808508:	0039883a 	mov	fp,zero
 180850c:	853fffcc 	andi	r20,r16,65535
 1808510:	8809883a 	mov	r4,r17
 1808514:	a80b883a 	mov	r5,r21
 1808518:	1809c980 	call	1809c98 <__udivsi3>
 180851c:	8809883a 	mov	r4,r17
 1808520:	a80b883a 	mov	r5,r21
 1808524:	a0a3383a 	mul	r17,r20,r2
 1808528:	1809ca00 	call	1809ca0 <__umodsi3>
 180852c:	1004943a 	slli	r2,r2,16
 1808530:	b006d43a 	srli	r3,r22,16
 1808534:	10c4b03a 	or	r2,r2,r3
 1808538:	1440032e 	bgeu	r2,r17,1808548 <__umoddi3+0xc8>
 180853c:	1405883a 	add	r2,r2,r16
 1808540:	14000136 	bltu	r2,r16,1808548 <__umoddi3+0xc8>
 1808544:	14413536 	bltu	r2,r17,1808a1c <__umoddi3+0x59c>
 1808548:	1463c83a 	sub	r17,r2,r17
 180854c:	8809883a 	mov	r4,r17
 1808550:	a80b883a 	mov	r5,r21
 1808554:	1809c980 	call	1809c98 <__udivsi3>
 1808558:	8809883a 	mov	r4,r17
 180855c:	a0a3383a 	mul	r17,r20,r2
 1808560:	a80b883a 	mov	r5,r21
 1808564:	00004d06 	br	180869c <__umoddi3+0x21c>
 1808568:	380d883a 	mov	r6,r7
 180856c:	29c0102e 	bgeu	r5,r7,18085b0 <__umoddi3+0x130>
 1808570:	2011883a 	mov	r8,r4
 1808574:	2813883a 	mov	r9,r5
 1808578:	4005883a 	mov	r2,r8
 180857c:	4807883a 	mov	r3,r9
 1808580:	dfc00e17 	ldw	ra,56(sp)
 1808584:	df000d17 	ldw	fp,52(sp)
 1808588:	ddc00c17 	ldw	r23,48(sp)
 180858c:	dd800b17 	ldw	r22,44(sp)
 1808590:	dd400a17 	ldw	r21,40(sp)
 1808594:	dd000917 	ldw	r20,36(sp)
 1808598:	dcc00817 	ldw	r19,32(sp)
 180859c:	dc800717 	ldw	r18,28(sp)
 18085a0:	dc400617 	ldw	r17,24(sp)
 18085a4:	dc000517 	ldw	r16,20(sp)
 18085a8:	dec00f04 	addi	sp,sp,60
 18085ac:	f800283a 	ret
 18085b0:	00bfffd4 	movui	r2,65535
 18085b4:	11c05a36 	bltu	r2,r7,1808720 <__umoddi3+0x2a0>
 18085b8:	00803fc4 	movi	r2,255
 18085bc:	11c0fe36 	bltu	r2,r7,18089b8 <__umoddi3+0x538>
 18085c0:	000b883a 	mov	r5,zero
 18085c4:	0005883a 	mov	r2,zero
 18085c8:	3084d83a 	srl	r2,r6,r2
 18085cc:	01006074 	movhi	r4,385
 18085d0:	21038704 	addi	r4,r4,3612
 18085d4:	01c00804 	movi	r7,32
 18085d8:	1105883a 	add	r2,r2,r4
 18085dc:	10c00003 	ldbu	r3,0(r2)
 18085e0:	28c7883a 	add	r3,r5,r3
 18085e4:	38ebc83a 	sub	r21,r7,r3
 18085e8:	a800851e 	bne	r21,zero,1808800 <__umoddi3+0x380>
 18085ec:	35005236 	bltu	r6,r20,1808738 <__umoddi3+0x2b8>
 18085f0:	b400512e 	bgeu	r22,r16,1808738 <__umoddi3+0x2b8>
 18085f4:	b011883a 	mov	r8,r22
 18085f8:	a013883a 	mov	r9,r20
 18085fc:	003fde06 	br	1808578 <__umoddi3+0xf8>
 1808600:	00bfffd4 	movui	r2,65535
 1808604:	11804036 	bltu	r2,r6,1808708 <__umoddi3+0x288>
 1808608:	00803fc4 	movi	r2,255
 180860c:	1180ed36 	bltu	r2,r6,18089c4 <__umoddi3+0x544>
 1808610:	000b883a 	mov	r5,zero
 1808614:	0005883a 	mov	r2,zero
 1808618:	8084d83a 	srl	r2,r16,r2
 180861c:	01006074 	movhi	r4,385
 1808620:	21038704 	addi	r4,r4,3612
 1808624:	01800804 	movi	r6,32
 1808628:	1105883a 	add	r2,r2,r4
 180862c:	10c00003 	ldbu	r3,0(r2)
 1808630:	28c7883a 	add	r3,r5,r3
 1808634:	30c7c83a 	sub	r3,r6,r3
 1808638:	1800bf1e 	bne	r3,zero,1808938 <__umoddi3+0x4b8>
 180863c:	0039883a 	mov	fp,zero
 1808640:	802ad43a 	srli	r21,r16,16
 1808644:	a009883a 	mov	r4,r20
 1808648:	85ffffcc 	andi	r23,r16,65535
 180864c:	a80b883a 	mov	r5,r21
 1808650:	1809c980 	call	1809c98 <__udivsi3>
 1808654:	a009883a 	mov	r4,r20
 1808658:	a80b883a 	mov	r5,r21
 180865c:	b8a3383a 	mul	r17,r23,r2
 1808660:	1809ca00 	call	1809ca0 <__umodsi3>
 1808664:	1004943a 	slli	r2,r2,16
 1808668:	b006d43a 	srli	r3,r22,16
 180866c:	10c4b03a 	or	r2,r2,r3
 1808670:	1440032e 	bgeu	r2,r17,1808680 <__umoddi3+0x200>
 1808674:	1405883a 	add	r2,r2,r16
 1808678:	14000136 	bltu	r2,r16,1808680 <__umoddi3+0x200>
 180867c:	1440e536 	bltu	r2,r17,1808a14 <__umoddi3+0x594>
 1808680:	1463c83a 	sub	r17,r2,r17
 1808684:	8809883a 	mov	r4,r17
 1808688:	a80b883a 	mov	r5,r21
 180868c:	1809c980 	call	1809c98 <__udivsi3>
 1808690:	8809883a 	mov	r4,r17
 1808694:	b8a3383a 	mul	r17,r23,r2
 1808698:	a80b883a 	mov	r5,r21
 180869c:	1809ca00 	call	1809ca0 <__umodsi3>
 18086a0:	1004943a 	slli	r2,r2,16
 18086a4:	b0ffffcc 	andi	r3,r22,65535
 18086a8:	10c4b03a 	or	r2,r2,r3
 18086ac:	1440042e 	bgeu	r2,r17,18086c0 <__umoddi3+0x240>
 18086b0:	1405883a 	add	r2,r2,r16
 18086b4:	14000236 	bltu	r2,r16,18086c0 <__umoddi3+0x240>
 18086b8:	1440012e 	bgeu	r2,r17,18086c0 <__umoddi3+0x240>
 18086bc:	1405883a 	add	r2,r2,r16
 18086c0:	1445c83a 	sub	r2,r2,r17
 18086c4:	1724d83a 	srl	r18,r2,fp
 18086c8:	0013883a 	mov	r9,zero
 18086cc:	9011883a 	mov	r8,r18
 18086d0:	003fa906 	br	1808578 <__umoddi3+0xf8>
 18086d4:	00804034 	movhi	r2,256
 18086d8:	10bfffc4 	addi	r2,r2,-1
 18086dc:	1400b036 	bltu	r2,r16,18089a0 <__umoddi3+0x520>
 18086e0:	01400404 	movi	r5,16
 18086e4:	2805883a 	mov	r2,r5
 18086e8:	003f7c06 	br	18084dc <__umoddi3+0x5c>
 18086ec:	01000044 	movi	r4,1
 18086f0:	000b883a 	mov	r5,zero
 18086f4:	1809c980 	call	1809c98 <__udivsi3>
 18086f8:	1021883a 	mov	r16,r2
 18086fc:	00bfffd4 	movui	r2,65535
 1808700:	143ff436 	bltu	r2,r16,18086d4 <__umoddi3+0x254>
 1808704:	003f7106 	br	18084cc <__umoddi3+0x4c>
 1808708:	00804034 	movhi	r2,256
 180870c:	10bfffc4 	addi	r2,r2,-1
 1808710:	1180af36 	bltu	r2,r6,18089d0 <__umoddi3+0x550>
 1808714:	01400404 	movi	r5,16
 1808718:	2805883a 	mov	r2,r5
 180871c:	003fbe06 	br	1808618 <__umoddi3+0x198>
 1808720:	00804034 	movhi	r2,256
 1808724:	10bfffc4 	addi	r2,r2,-1
 1808728:	11c0ac36 	bltu	r2,r7,18089dc <__umoddi3+0x55c>
 180872c:	01400404 	movi	r5,16
 1808730:	2805883a 	mov	r2,r5
 1808734:	003fa406 	br	18085c8 <__umoddi3+0x148>
 1808738:	b409c83a 	sub	r4,r22,r16
 180873c:	b105803a 	cmpltu	r2,r22,r4
 1808740:	a187c83a 	sub	r3,r20,r6
 1808744:	18a9c83a 	sub	r20,r3,r2
 1808748:	202d883a 	mov	r22,r4
 180874c:	003fa906 	br	18085f4 <__umoddi3+0x174>
 1808750:	85e0983a 	sll	r16,r16,r23
 1808754:	35c5c83a 	sub	r2,r6,r23
 1808758:	a0a2d83a 	srl	r17,r20,r2
 180875c:	802ad43a 	srli	r21,r16,16
 1808760:	b084d83a 	srl	r2,r22,r2
 1808764:	a5c6983a 	sll	r3,r20,r23
 1808768:	8809883a 	mov	r4,r17
 180876c:	a80b883a 	mov	r5,r21
 1808770:	1886b03a 	or	r3,r3,r2
 1808774:	d8c00115 	stw	r3,4(sp)
 1808778:	853fffcc 	andi	r20,r16,65535
 180877c:	1809c980 	call	1809c98 <__udivsi3>
 1808780:	8809883a 	mov	r4,r17
 1808784:	a80b883a 	mov	r5,r21
 1808788:	a0a3383a 	mul	r17,r20,r2
 180878c:	1809ca00 	call	1809ca0 <__umodsi3>
 1808790:	d9000117 	ldw	r4,4(sp)
 1808794:	1004943a 	slli	r2,r2,16
 1808798:	b839883a 	mov	fp,r23
 180879c:	2006d43a 	srli	r3,r4,16
 18087a0:	10c4b03a 	or	r2,r2,r3
 18087a4:	1440022e 	bgeu	r2,r17,18087b0 <__umoddi3+0x330>
 18087a8:	1405883a 	add	r2,r2,r16
 18087ac:	1400962e 	bgeu	r2,r16,1808a08 <__umoddi3+0x588>
 18087b0:	1463c83a 	sub	r17,r2,r17
 18087b4:	8809883a 	mov	r4,r17
 18087b8:	a80b883a 	mov	r5,r21
 18087bc:	1809c980 	call	1809c98 <__udivsi3>
 18087c0:	8809883a 	mov	r4,r17
 18087c4:	a80b883a 	mov	r5,r21
 18087c8:	a0a3383a 	mul	r17,r20,r2
 18087cc:	1809ca00 	call	1809ca0 <__umodsi3>
 18087d0:	d9400117 	ldw	r5,4(sp)
 18087d4:	1004943a 	slli	r2,r2,16
 18087d8:	28ffffcc 	andi	r3,r5,65535
 18087dc:	10c4b03a 	or	r2,r2,r3
 18087e0:	1440042e 	bgeu	r2,r17,18087f4 <__umoddi3+0x374>
 18087e4:	1405883a 	add	r2,r2,r16
 18087e8:	14000236 	bltu	r2,r16,18087f4 <__umoddi3+0x374>
 18087ec:	1440012e 	bgeu	r2,r17,18087f4 <__umoddi3+0x374>
 18087f0:	1405883a 	add	r2,r2,r16
 18087f4:	b5ec983a 	sll	r22,r22,r23
 18087f8:	1463c83a 	sub	r17,r2,r17
 18087fc:	003f4406 	br	1808510 <__umoddi3+0x90>
 1808800:	3d4fc83a 	sub	r7,r7,r21
 1808804:	3546983a 	sll	r3,r6,r21
 1808808:	81c4d83a 	srl	r2,r16,r7
 180880c:	a1e2d83a 	srl	r17,r20,r7
 1808810:	a54c983a 	sll	r6,r20,r21
 1808814:	18aeb03a 	or	r23,r3,r2
 1808818:	b828d43a 	srli	r20,r23,16
 180881c:	b1c4d83a 	srl	r2,r22,r7
 1808820:	8809883a 	mov	r4,r17
 1808824:	a00b883a 	mov	r5,r20
 1808828:	308cb03a 	or	r6,r6,r2
 180882c:	d9c00315 	stw	r7,12(sp)
 1808830:	d9800215 	stw	r6,8(sp)
 1808834:	1809c980 	call	1809c98 <__udivsi3>
 1808838:	8809883a 	mov	r4,r17
 180883c:	a00b883a 	mov	r5,r20
 1808840:	1039883a 	mov	fp,r2
 1808844:	1809ca00 	call	1809ca0 <__umodsi3>
 1808848:	b8ffffcc 	andi	r3,r23,65535
 180884c:	d8c00415 	stw	r3,16(sp)
 1808850:	d9000217 	ldw	r4,8(sp)
 1808854:	d9400417 	ldw	r5,16(sp)
 1808858:	1004943a 	slli	r2,r2,16
 180885c:	2006d43a 	srli	r3,r4,16
 1808860:	8560983a 	sll	r16,r16,r21
 1808864:	2f23383a 	mul	r17,r5,fp
 1808868:	10c4b03a 	or	r2,r2,r3
 180886c:	dc000015 	stw	r16,0(sp)
 1808870:	b56c983a 	sll	r22,r22,r21
 1808874:	1440032e 	bgeu	r2,r17,1808884 <__umoddi3+0x404>
 1808878:	15c5883a 	add	r2,r2,r23
 180887c:	e73fffc4 	addi	fp,fp,-1
 1808880:	15c05d2e 	bgeu	r2,r23,18089f8 <__umoddi3+0x578>
 1808884:	1463c83a 	sub	r17,r2,r17
 1808888:	8809883a 	mov	r4,r17
 180888c:	a00b883a 	mov	r5,r20
 1808890:	1809c980 	call	1809c98 <__udivsi3>
 1808894:	8809883a 	mov	r4,r17
 1808898:	a00b883a 	mov	r5,r20
 180889c:	1021883a 	mov	r16,r2
 18088a0:	1809ca00 	call	1809ca0 <__umodsi3>
 18088a4:	d8c00417 	ldw	r3,16(sp)
 18088a8:	d9000217 	ldw	r4,8(sp)
 18088ac:	1004943a 	slli	r2,r2,16
 18088b0:	1c23383a 	mul	r17,r3,r16
 18088b4:	20ffffcc 	andi	r3,r4,65535
 18088b8:	10ceb03a 	or	r7,r2,r3
 18088bc:	3c40032e 	bgeu	r7,r17,18088cc <__umoddi3+0x44c>
 18088c0:	3dcf883a 	add	r7,r7,r23
 18088c4:	843fffc4 	addi	r16,r16,-1
 18088c8:	3dc0472e 	bgeu	r7,r23,18089e8 <__umoddi3+0x568>
 18088cc:	e004943a 	slli	r2,fp,16
 18088d0:	d9400017 	ldw	r5,0(sp)
 18088d4:	3c4fc83a 	sub	r7,r7,r17
 18088d8:	8084b03a 	or	r2,r16,r2
 18088dc:	28ffffcc 	andi	r3,r5,65535
 18088e0:	280cd43a 	srli	r6,r5,16
 18088e4:	100ad43a 	srli	r5,r2,16
 18088e8:	10bfffcc 	andi	r2,r2,65535
 18088ec:	10d1383a 	mul	r8,r2,r3
 18088f0:	28c7383a 	mul	r3,r5,r3
 18088f4:	1185383a 	mul	r2,r2,r6
 18088f8:	4008d43a 	srli	r4,r8,16
 18088fc:	298b383a 	mul	r5,r5,r6
 1808900:	10c5883a 	add	r2,r2,r3
 1808904:	2089883a 	add	r4,r4,r2
 1808908:	20c0022e 	bgeu	r4,r3,1808914 <__umoddi3+0x494>
 180890c:	00800074 	movhi	r2,1
 1808910:	288b883a 	add	r5,r5,r2
 1808914:	2004d43a 	srli	r2,r4,16
 1808918:	2008943a 	slli	r4,r4,16
 180891c:	40ffffcc 	andi	r3,r8,65535
 1808920:	288b883a 	add	r5,r5,r2
 1808924:	20c9883a 	add	r4,r4,r3
 1808928:	39400b36 	bltu	r7,r5,1808958 <__umoddi3+0x4d8>
 180892c:	39403d26 	beq	r7,r5,1808a24 <__umoddi3+0x5a4>
 1808930:	394bc83a 	sub	r5,r7,r5
 1808934:	00000f06 	br	1808974 <__umoddi3+0x4f4>
 1808938:	30c5c83a 	sub	r2,r6,r3
 180893c:	1839883a 	mov	fp,r3
 1808940:	b084d83a 	srl	r2,r22,r2
 1808944:	a0c6983a 	sll	r3,r20,r3
 1808948:	8720983a 	sll	r16,r16,fp
 180894c:	b72c983a 	sll	r22,r22,fp
 1808950:	18a8b03a 	or	r20,r3,r2
 1808954:	003f3a06 	br	1808640 <__umoddi3+0x1c0>
 1808958:	d8c00017 	ldw	r3,0(sp)
 180895c:	20c5c83a 	sub	r2,r4,r3
 1808960:	2089803a 	cmpltu	r4,r4,r2
 1808964:	2dc7c83a 	sub	r3,r5,r23
 1808968:	1907c83a 	sub	r3,r3,r4
 180896c:	38cbc83a 	sub	r5,r7,r3
 1808970:	1009883a 	mov	r4,r2
 1808974:	b105c83a 	sub	r2,r22,r4
 1808978:	b087803a 	cmpltu	r3,r22,r2
 180897c:	28c7c83a 	sub	r3,r5,r3
 1808980:	d9400317 	ldw	r5,12(sp)
 1808984:	1544d83a 	srl	r2,r2,r21
 1808988:	1948983a 	sll	r4,r3,r5
 180898c:	1d46d83a 	srl	r3,r3,r21
 1808990:	20a4b03a 	or	r18,r4,r2
 1808994:	9011883a 	mov	r8,r18
 1808998:	1813883a 	mov	r9,r3
 180899c:	003ef606 	br	1808578 <__umoddi3+0xf8>
 18089a0:	01400604 	movi	r5,24
 18089a4:	2805883a 	mov	r2,r5
 18089a8:	003ecc06 	br	18084dc <__umoddi3+0x5c>
 18089ac:	01400204 	movi	r5,8
 18089b0:	2805883a 	mov	r2,r5
 18089b4:	003ec906 	br	18084dc <__umoddi3+0x5c>
 18089b8:	01400204 	movi	r5,8
 18089bc:	2805883a 	mov	r2,r5
 18089c0:	003f0106 	br	18085c8 <__umoddi3+0x148>
 18089c4:	01400204 	movi	r5,8
 18089c8:	2805883a 	mov	r2,r5
 18089cc:	003f1206 	br	1808618 <__umoddi3+0x198>
 18089d0:	01400604 	movi	r5,24
 18089d4:	2805883a 	mov	r2,r5
 18089d8:	003f0f06 	br	1808618 <__umoddi3+0x198>
 18089dc:	01400604 	movi	r5,24
 18089e0:	2805883a 	mov	r2,r5
 18089e4:	003ef806 	br	18085c8 <__umoddi3+0x148>
 18089e8:	3c7fb82e 	bgeu	r7,r17,18088cc <__umoddi3+0x44c>
 18089ec:	843fffc4 	addi	r16,r16,-1
 18089f0:	3dcf883a 	add	r7,r7,r23
 18089f4:	003fb506 	br	18088cc <__umoddi3+0x44c>
 18089f8:	147fa22e 	bgeu	r2,r17,1808884 <__umoddi3+0x404>
 18089fc:	e73fffc4 	addi	fp,fp,-1
 1808a00:	15c5883a 	add	r2,r2,r23
 1808a04:	003f9f06 	br	1808884 <__umoddi3+0x404>
 1808a08:	147f692e 	bgeu	r2,r17,18087b0 <__umoddi3+0x330>
 1808a0c:	1405883a 	add	r2,r2,r16
 1808a10:	003f6706 	br	18087b0 <__umoddi3+0x330>
 1808a14:	1405883a 	add	r2,r2,r16
 1808a18:	003f1906 	br	1808680 <__umoddi3+0x200>
 1808a1c:	1405883a 	add	r2,r2,r16
 1808a20:	003ec906 	br	1808548 <__umoddi3+0xc8>
 1808a24:	b13fcc36 	bltu	r22,r4,1808958 <__umoddi3+0x4d8>
 1808a28:	000b883a 	mov	r5,zero
 1808a2c:	003fd106 	br	1808974 <__umoddi3+0x4f4>

01808a30 <_fpadd_parts>:
 1808a30:	defff804 	addi	sp,sp,-32
 1808a34:	dcc00315 	stw	r19,12(sp)
 1808a38:	2027883a 	mov	r19,r4
 1808a3c:	21000017 	ldw	r4,0(r4)
 1808a40:	00c00044 	movi	r3,1
 1808a44:	dd400515 	stw	r21,20(sp)
 1808a48:	dd000415 	stw	r20,16(sp)
 1808a4c:	ddc00715 	stw	r23,28(sp)
 1808a50:	dd800615 	stw	r22,24(sp)
 1808a54:	dc800215 	stw	r18,8(sp)
 1808a58:	dc400115 	stw	r17,4(sp)
 1808a5c:	dc000015 	stw	r16,0(sp)
 1808a60:	282b883a 	mov	r21,r5
 1808a64:	3029883a 	mov	r20,r6
 1808a68:	1900632e 	bgeu	r3,r4,1808bf8 <_fpadd_parts+0x1c8>
 1808a6c:	28800017 	ldw	r2,0(r5)
 1808a70:	1880812e 	bgeu	r3,r2,1808c78 <_fpadd_parts+0x248>
 1808a74:	00c00104 	movi	r3,4
 1808a78:	20c0dc26 	beq	r4,r3,1808dec <_fpadd_parts+0x3bc>
 1808a7c:	10c07e26 	beq	r2,r3,1808c78 <_fpadd_parts+0x248>
 1808a80:	00c00084 	movi	r3,2
 1808a84:	10c06726 	beq	r2,r3,1808c24 <_fpadd_parts+0x1f4>
 1808a88:	20c07b26 	beq	r4,r3,1808c78 <_fpadd_parts+0x248>
 1808a8c:	9dc00217 	ldw	r23,8(r19)
 1808a90:	28c00217 	ldw	r3,8(r5)
 1808a94:	9c400317 	ldw	r17,12(r19)
 1808a98:	2bc00317 	ldw	r15,12(r5)
 1808a9c:	b8cdc83a 	sub	r6,r23,r3
 1808aa0:	9c800417 	ldw	r18,16(r19)
 1808aa4:	2c000417 	ldw	r16,16(r5)
 1808aa8:	3009883a 	mov	r4,r6
 1808aac:	30009716 	blt	r6,zero,1808d0c <_fpadd_parts+0x2dc>
 1808ab0:	00800fc4 	movi	r2,63
 1808ab4:	11806b16 	blt	r2,r6,1808c64 <_fpadd_parts+0x234>
 1808ab8:	0100a40e 	bge	zero,r4,1808d4c <_fpadd_parts+0x31c>
 1808abc:	35bff804 	addi	r22,r6,-32
 1808ac0:	b000bc16 	blt	r22,zero,1808db4 <_fpadd_parts+0x384>
 1808ac4:	8596d83a 	srl	r11,r16,r22
 1808ac8:	0019883a 	mov	r12,zero
 1808acc:	0013883a 	mov	r9,zero
 1808ad0:	01000044 	movi	r4,1
 1808ad4:	0015883a 	mov	r10,zero
 1808ad8:	b000be16 	blt	r22,zero,1808dd4 <_fpadd_parts+0x3a4>
 1808adc:	2590983a 	sll	r8,r4,r22
 1808ae0:	000f883a 	mov	r7,zero
 1808ae4:	00bfffc4 	movi	r2,-1
 1808ae8:	3889883a 	add	r4,r7,r2
 1808aec:	408b883a 	add	r5,r8,r2
 1808af0:	21cd803a 	cmpltu	r6,r4,r7
 1808af4:	314b883a 	add	r5,r6,r5
 1808af8:	7904703a 	and	r2,r15,r4
 1808afc:	8146703a 	and	r3,r16,r5
 1808b00:	10c4b03a 	or	r2,r2,r3
 1808b04:	10000226 	beq	r2,zero,1808b10 <_fpadd_parts+0xe0>
 1808b08:	02400044 	movi	r9,1
 1808b0c:	0015883a 	mov	r10,zero
 1808b10:	5a5eb03a 	or	r15,r11,r9
 1808b14:	62a0b03a 	or	r16,r12,r10
 1808b18:	99400117 	ldw	r5,4(r19)
 1808b1c:	a8800117 	ldw	r2,4(r21)
 1808b20:	28806e26 	beq	r5,r2,1808cdc <_fpadd_parts+0x2ac>
 1808b24:	28006626 	beq	r5,zero,1808cc0 <_fpadd_parts+0x290>
 1808b28:	7c45c83a 	sub	r2,r15,r17
 1808b2c:	7889803a 	cmpltu	r4,r15,r2
 1808b30:	8487c83a 	sub	r3,r16,r18
 1808b34:	1909c83a 	sub	r4,r3,r4
 1808b38:	100d883a 	mov	r6,r2
 1808b3c:	200f883a 	mov	r7,r4
 1808b40:	38007716 	blt	r7,zero,1808d20 <_fpadd_parts+0x2f0>
 1808b44:	a5c00215 	stw	r23,8(r20)
 1808b48:	a1c00415 	stw	r7,16(r20)
 1808b4c:	a0000115 	stw	zero,4(r20)
 1808b50:	a1800315 	stw	r6,12(r20)
 1808b54:	a2000317 	ldw	r8,12(r20)
 1808b58:	a2400417 	ldw	r9,16(r20)
 1808b5c:	00bfffc4 	movi	r2,-1
 1808b60:	408b883a 	add	r5,r8,r2
 1808b64:	2a09803a 	cmpltu	r4,r5,r8
 1808b68:	488d883a 	add	r6,r9,r2
 1808b6c:	01c40034 	movhi	r7,4096
 1808b70:	39ffffc4 	addi	r7,r7,-1
 1808b74:	218d883a 	add	r6,r4,r6
 1808b78:	39801736 	bltu	r7,r6,1808bd8 <_fpadd_parts+0x1a8>
 1808b7c:	31c06526 	beq	r6,r7,1808d14 <_fpadd_parts+0x2e4>
 1808b80:	a3000217 	ldw	r12,8(r20)
 1808b84:	4209883a 	add	r4,r8,r8
 1808b88:	00bfffc4 	movi	r2,-1
 1808b8c:	220f803a 	cmpltu	r7,r4,r8
 1808b90:	4a4b883a 	add	r5,r9,r9
 1808b94:	394f883a 	add	r7,r7,r5
 1808b98:	2095883a 	add	r10,r4,r2
 1808b9c:	3897883a 	add	r11,r7,r2
 1808ba0:	510d803a 	cmpltu	r6,r10,r4
 1808ba4:	6099883a 	add	r12,r12,r2
 1808ba8:	32d7883a 	add	r11,r6,r11
 1808bac:	00840034 	movhi	r2,4096
 1808bb0:	10bfffc4 	addi	r2,r2,-1
 1808bb4:	2011883a 	mov	r8,r4
 1808bb8:	3813883a 	mov	r9,r7
 1808bbc:	a1000315 	stw	r4,12(r20)
 1808bc0:	a1c00415 	stw	r7,16(r20)
 1808bc4:	a3000215 	stw	r12,8(r20)
 1808bc8:	12c00336 	bltu	r2,r11,1808bd8 <_fpadd_parts+0x1a8>
 1808bcc:	58bfed1e 	bne	r11,r2,1808b84 <_fpadd_parts+0x154>
 1808bd0:	00bfff84 	movi	r2,-2
 1808bd4:	12bfeb2e 	bgeu	r2,r10,1808b84 <_fpadd_parts+0x154>
 1808bd8:	a2800417 	ldw	r10,16(r20)
 1808bdc:	008000c4 	movi	r2,3
 1808be0:	00c80034 	movhi	r3,8192
 1808be4:	18ffffc4 	addi	r3,r3,-1
 1808be8:	a2400317 	ldw	r9,12(r20)
 1808bec:	a0800015 	stw	r2,0(r20)
 1808bf0:	1a802336 	bltu	r3,r10,1808c80 <_fpadd_parts+0x250>
 1808bf4:	a027883a 	mov	r19,r20
 1808bf8:	9805883a 	mov	r2,r19
 1808bfc:	ddc00717 	ldw	r23,28(sp)
 1808c00:	dd800617 	ldw	r22,24(sp)
 1808c04:	dd400517 	ldw	r21,20(sp)
 1808c08:	dd000417 	ldw	r20,16(sp)
 1808c0c:	dcc00317 	ldw	r19,12(sp)
 1808c10:	dc800217 	ldw	r18,8(sp)
 1808c14:	dc400117 	ldw	r17,4(sp)
 1808c18:	dc000017 	ldw	r16,0(sp)
 1808c1c:	dec00804 	addi	sp,sp,32
 1808c20:	f800283a 	ret
 1808c24:	20fff41e 	bne	r4,r3,1808bf8 <_fpadd_parts+0x1c8>
 1808c28:	31000015 	stw	r4,0(r6)
 1808c2c:	98800117 	ldw	r2,4(r19)
 1808c30:	30800115 	stw	r2,4(r6)
 1808c34:	98c00217 	ldw	r3,8(r19)
 1808c38:	30c00215 	stw	r3,8(r6)
 1808c3c:	98800317 	ldw	r2,12(r19)
 1808c40:	30800315 	stw	r2,12(r6)
 1808c44:	98c00417 	ldw	r3,16(r19)
 1808c48:	30c00415 	stw	r3,16(r6)
 1808c4c:	98800117 	ldw	r2,4(r19)
 1808c50:	28c00117 	ldw	r3,4(r5)
 1808c54:	3027883a 	mov	r19,r6
 1808c58:	10c4703a 	and	r2,r2,r3
 1808c5c:	30800115 	stw	r2,4(r6)
 1808c60:	003fe506 	br	1808bf8 <_fpadd_parts+0x1c8>
 1808c64:	1dc02616 	blt	r3,r23,1808d00 <_fpadd_parts+0x2d0>
 1808c68:	0023883a 	mov	r17,zero
 1808c6c:	182f883a 	mov	r23,r3
 1808c70:	0025883a 	mov	r18,zero
 1808c74:	003fa806 	br	1808b18 <_fpadd_parts+0xe8>
 1808c78:	a827883a 	mov	r19,r21
 1808c7c:	003fde06 	br	1808bf8 <_fpadd_parts+0x1c8>
 1808c80:	01800044 	movi	r6,1
 1808c84:	500497fa 	slli	r2,r10,31
 1808c88:	4808d07a 	srli	r4,r9,1
 1808c8c:	518ad83a 	srl	r5,r10,r6
 1808c90:	a2000217 	ldw	r8,8(r20)
 1808c94:	1108b03a 	or	r4,r2,r4
 1808c98:	0007883a 	mov	r3,zero
 1808c9c:	4984703a 	and	r2,r9,r6
 1808ca0:	208cb03a 	or	r6,r4,r2
 1808ca4:	28ceb03a 	or	r7,r5,r3
 1808ca8:	42000044 	addi	r8,r8,1
 1808cac:	a027883a 	mov	r19,r20
 1808cb0:	a1c00415 	stw	r7,16(r20)
 1808cb4:	a2000215 	stw	r8,8(r20)
 1808cb8:	a1800315 	stw	r6,12(r20)
 1808cbc:	003fce06 	br	1808bf8 <_fpadd_parts+0x1c8>
 1808cc0:	8bc5c83a 	sub	r2,r17,r15
 1808cc4:	8889803a 	cmpltu	r4,r17,r2
 1808cc8:	9407c83a 	sub	r3,r18,r16
 1808ccc:	1909c83a 	sub	r4,r3,r4
 1808cd0:	100d883a 	mov	r6,r2
 1808cd4:	200f883a 	mov	r7,r4
 1808cd8:	003f9906 	br	1808b40 <_fpadd_parts+0x110>
 1808cdc:	7c45883a 	add	r2,r15,r17
 1808ce0:	13c9803a 	cmpltu	r4,r2,r15
 1808ce4:	8487883a 	add	r3,r16,r18
 1808ce8:	20c9883a 	add	r4,r4,r3
 1808cec:	a1400115 	stw	r5,4(r20)
 1808cf0:	a5c00215 	stw	r23,8(r20)
 1808cf4:	a0800315 	stw	r2,12(r20)
 1808cf8:	a1000415 	stw	r4,16(r20)
 1808cfc:	003fb606 	br	1808bd8 <_fpadd_parts+0x1a8>
 1808d00:	001f883a 	mov	r15,zero
 1808d04:	0021883a 	mov	r16,zero
 1808d08:	003f8306 	br	1808b18 <_fpadd_parts+0xe8>
 1808d0c:	018dc83a 	sub	r6,zero,r6
 1808d10:	003f6706 	br	1808ab0 <_fpadd_parts+0x80>
 1808d14:	00bfff84 	movi	r2,-2
 1808d18:	117faf36 	bltu	r2,r5,1808bd8 <_fpadd_parts+0x1a8>
 1808d1c:	003f9806 	br	1808b80 <_fpadd_parts+0x150>
 1808d20:	0005883a 	mov	r2,zero
 1808d24:	1189c83a 	sub	r4,r2,r6
 1808d28:	1105803a 	cmpltu	r2,r2,r4
 1808d2c:	01cbc83a 	sub	r5,zero,r7
 1808d30:	2885c83a 	sub	r2,r5,r2
 1808d34:	01800044 	movi	r6,1
 1808d38:	a1800115 	stw	r6,4(r20)
 1808d3c:	a5c00215 	stw	r23,8(r20)
 1808d40:	a1000315 	stw	r4,12(r20)
 1808d44:	a0800415 	stw	r2,16(r20)
 1808d48:	003f8206 	br	1808b54 <_fpadd_parts+0x124>
 1808d4c:	203f7226 	beq	r4,zero,1808b18 <_fpadd_parts+0xe8>
 1808d50:	35bff804 	addi	r22,r6,-32
 1808d54:	b9af883a 	add	r23,r23,r6
 1808d58:	b0003116 	blt	r22,zero,1808e20 <_fpadd_parts+0x3f0>
 1808d5c:	959ad83a 	srl	r13,r18,r22
 1808d60:	001d883a 	mov	r14,zero
 1808d64:	000f883a 	mov	r7,zero
 1808d68:	01000044 	movi	r4,1
 1808d6c:	0011883a 	mov	r8,zero
 1808d70:	b0002516 	blt	r22,zero,1808e08 <_fpadd_parts+0x3d8>
 1808d74:	2594983a 	sll	r10,r4,r22
 1808d78:	0013883a 	mov	r9,zero
 1808d7c:	00bfffc4 	movi	r2,-1
 1808d80:	4889883a 	add	r4,r9,r2
 1808d84:	508b883a 	add	r5,r10,r2
 1808d88:	224d803a 	cmpltu	r6,r4,r9
 1808d8c:	314b883a 	add	r5,r6,r5
 1808d90:	8904703a 	and	r2,r17,r4
 1808d94:	9146703a 	and	r3,r18,r5
 1808d98:	10c4b03a 	or	r2,r2,r3
 1808d9c:	10000226 	beq	r2,zero,1808da8 <_fpadd_parts+0x378>
 1808da0:	01c00044 	movi	r7,1
 1808da4:	0011883a 	mov	r8,zero
 1808da8:	69e2b03a 	or	r17,r13,r7
 1808dac:	7224b03a 	or	r18,r14,r8
 1808db0:	003f5906 	br	1808b18 <_fpadd_parts+0xe8>
 1808db4:	8407883a 	add	r3,r16,r16
 1808db8:	008007c4 	movi	r2,31
 1808dbc:	1185c83a 	sub	r2,r2,r6
 1808dc0:	1886983a 	sll	r3,r3,r2
 1808dc4:	7996d83a 	srl	r11,r15,r6
 1808dc8:	8198d83a 	srl	r12,r16,r6
 1808dcc:	1ad6b03a 	or	r11,r3,r11
 1808dd0:	003f3e06 	br	1808acc <_fpadd_parts+0x9c>
 1808dd4:	2006d07a 	srli	r3,r4,1
 1808dd8:	008007c4 	movi	r2,31
 1808ddc:	1185c83a 	sub	r2,r2,r6
 1808de0:	1890d83a 	srl	r8,r3,r2
 1808de4:	218e983a 	sll	r7,r4,r6
 1808de8:	003f3e06 	br	1808ae4 <_fpadd_parts+0xb4>
 1808dec:	113f821e 	bne	r2,r4,1808bf8 <_fpadd_parts+0x1c8>
 1808df0:	28c00117 	ldw	r3,4(r5)
 1808df4:	98800117 	ldw	r2,4(r19)
 1808df8:	10ff7f26 	beq	r2,r3,1808bf8 <_fpadd_parts+0x1c8>
 1808dfc:	04c06074 	movhi	r19,385
 1808e00:	9cc44604 	addi	r19,r19,4376
 1808e04:	003f7c06 	br	1808bf8 <_fpadd_parts+0x1c8>
 1808e08:	2006d07a 	srli	r3,r4,1
 1808e0c:	008007c4 	movi	r2,31
 1808e10:	1185c83a 	sub	r2,r2,r6
 1808e14:	1894d83a 	srl	r10,r3,r2
 1808e18:	2192983a 	sll	r9,r4,r6
 1808e1c:	003fd706 	br	1808d7c <_fpadd_parts+0x34c>
 1808e20:	9487883a 	add	r3,r18,r18
 1808e24:	008007c4 	movi	r2,31
 1808e28:	1185c83a 	sub	r2,r2,r6
 1808e2c:	1886983a 	sll	r3,r3,r2
 1808e30:	899ad83a 	srl	r13,r17,r6
 1808e34:	919cd83a 	srl	r14,r18,r6
 1808e38:	1b5ab03a 	or	r13,r3,r13
 1808e3c:	003fc906 	br	1808d64 <_fpadd_parts+0x334>

01808e40 <__subdf3>:
 1808e40:	deffea04 	addi	sp,sp,-88
 1808e44:	dcc01415 	stw	r19,80(sp)
 1808e48:	dcc00404 	addi	r19,sp,16
 1808e4c:	2011883a 	mov	r8,r4
 1808e50:	2813883a 	mov	r9,r5
 1808e54:	dc401315 	stw	r17,76(sp)
 1808e58:	d809883a 	mov	r4,sp
 1808e5c:	980b883a 	mov	r5,r19
 1808e60:	dc400904 	addi	r17,sp,36
 1808e64:	dfc01515 	stw	ra,84(sp)
 1808e68:	da400115 	stw	r9,4(sp)
 1808e6c:	d9c00315 	stw	r7,12(sp)
 1808e70:	da000015 	stw	r8,0(sp)
 1808e74:	d9800215 	stw	r6,8(sp)
 1808e78:	180a0540 	call	180a054 <__unpack_d>
 1808e7c:	d9000204 	addi	r4,sp,8
 1808e80:	880b883a 	mov	r5,r17
 1808e84:	180a0540 	call	180a054 <__unpack_d>
 1808e88:	d8800a17 	ldw	r2,40(sp)
 1808e8c:	880b883a 	mov	r5,r17
 1808e90:	9809883a 	mov	r4,r19
 1808e94:	d9800e04 	addi	r6,sp,56
 1808e98:	1080005c 	xori	r2,r2,1
 1808e9c:	d8800a15 	stw	r2,40(sp)
 1808ea0:	1808a300 	call	1808a30 <_fpadd_parts>
 1808ea4:	1009883a 	mov	r4,r2
 1808ea8:	1809d400 	call	1809d40 <__pack_d>
 1808eac:	dfc01517 	ldw	ra,84(sp)
 1808eb0:	dcc01417 	ldw	r19,80(sp)
 1808eb4:	dc401317 	ldw	r17,76(sp)
 1808eb8:	dec01604 	addi	sp,sp,88
 1808ebc:	f800283a 	ret

01808ec0 <__adddf3>:
 1808ec0:	deffea04 	addi	sp,sp,-88
 1808ec4:	dcc01415 	stw	r19,80(sp)
 1808ec8:	dcc00404 	addi	r19,sp,16
 1808ecc:	2011883a 	mov	r8,r4
 1808ed0:	2813883a 	mov	r9,r5
 1808ed4:	dc401315 	stw	r17,76(sp)
 1808ed8:	d809883a 	mov	r4,sp
 1808edc:	980b883a 	mov	r5,r19
 1808ee0:	dc400904 	addi	r17,sp,36
 1808ee4:	dfc01515 	stw	ra,84(sp)
 1808ee8:	da400115 	stw	r9,4(sp)
 1808eec:	d9c00315 	stw	r7,12(sp)
 1808ef0:	da000015 	stw	r8,0(sp)
 1808ef4:	d9800215 	stw	r6,8(sp)
 1808ef8:	180a0540 	call	180a054 <__unpack_d>
 1808efc:	d9000204 	addi	r4,sp,8
 1808f00:	880b883a 	mov	r5,r17
 1808f04:	180a0540 	call	180a054 <__unpack_d>
 1808f08:	d9800e04 	addi	r6,sp,56
 1808f0c:	9809883a 	mov	r4,r19
 1808f10:	880b883a 	mov	r5,r17
 1808f14:	1808a300 	call	1808a30 <_fpadd_parts>
 1808f18:	1009883a 	mov	r4,r2
 1808f1c:	1809d400 	call	1809d40 <__pack_d>
 1808f20:	dfc01517 	ldw	ra,84(sp)
 1808f24:	dcc01417 	ldw	r19,80(sp)
 1808f28:	dc401317 	ldw	r17,76(sp)
 1808f2c:	dec01604 	addi	sp,sp,88
 1808f30:	f800283a 	ret

01808f34 <__muldf3>:
 1808f34:	deffe004 	addi	sp,sp,-128
 1808f38:	dc401815 	stw	r17,96(sp)
 1808f3c:	dc400404 	addi	r17,sp,16
 1808f40:	2011883a 	mov	r8,r4
 1808f44:	2813883a 	mov	r9,r5
 1808f48:	dc001715 	stw	r16,92(sp)
 1808f4c:	d809883a 	mov	r4,sp
 1808f50:	880b883a 	mov	r5,r17
 1808f54:	dc000904 	addi	r16,sp,36
 1808f58:	dfc01f15 	stw	ra,124(sp)
 1808f5c:	da400115 	stw	r9,4(sp)
 1808f60:	d9c00315 	stw	r7,12(sp)
 1808f64:	da000015 	stw	r8,0(sp)
 1808f68:	d9800215 	stw	r6,8(sp)
 1808f6c:	ddc01e15 	stw	r23,120(sp)
 1808f70:	dd801d15 	stw	r22,116(sp)
 1808f74:	dd401c15 	stw	r21,112(sp)
 1808f78:	dd001b15 	stw	r20,108(sp)
 1808f7c:	dcc01a15 	stw	r19,104(sp)
 1808f80:	dc801915 	stw	r18,100(sp)
 1808f84:	180a0540 	call	180a054 <__unpack_d>
 1808f88:	d9000204 	addi	r4,sp,8
 1808f8c:	800b883a 	mov	r5,r16
 1808f90:	180a0540 	call	180a054 <__unpack_d>
 1808f94:	d9000417 	ldw	r4,16(sp)
 1808f98:	00800044 	movi	r2,1
 1808f9c:	1100102e 	bgeu	r2,r4,1808fe0 <__muldf3+0xac>
 1808fa0:	d8c00917 	ldw	r3,36(sp)
 1808fa4:	10c0062e 	bgeu	r2,r3,1808fc0 <__muldf3+0x8c>
 1808fa8:	00800104 	movi	r2,4
 1808fac:	20800a26 	beq	r4,r2,1808fd8 <__muldf3+0xa4>
 1808fb0:	1880cc26 	beq	r3,r2,18092e4 <__muldf3+0x3b0>
 1808fb4:	00800084 	movi	r2,2
 1808fb8:	20800926 	beq	r4,r2,1808fe0 <__muldf3+0xac>
 1808fbc:	1880191e 	bne	r3,r2,1809024 <__muldf3+0xf0>
 1808fc0:	d8c00a17 	ldw	r3,40(sp)
 1808fc4:	d8800517 	ldw	r2,20(sp)
 1808fc8:	8009883a 	mov	r4,r16
 1808fcc:	10c4c03a 	cmpne	r2,r2,r3
 1808fd0:	d8800a15 	stw	r2,40(sp)
 1808fd4:	00000706 	br	1808ff4 <__muldf3+0xc0>
 1808fd8:	00800084 	movi	r2,2
 1808fdc:	1880c326 	beq	r3,r2,18092ec <__muldf3+0x3b8>
 1808fe0:	d8800517 	ldw	r2,20(sp)
 1808fe4:	d8c00a17 	ldw	r3,40(sp)
 1808fe8:	8809883a 	mov	r4,r17
 1808fec:	10c4c03a 	cmpne	r2,r2,r3
 1808ff0:	d8800515 	stw	r2,20(sp)
 1808ff4:	1809d400 	call	1809d40 <__pack_d>
 1808ff8:	dfc01f17 	ldw	ra,124(sp)
 1808ffc:	ddc01e17 	ldw	r23,120(sp)
 1809000:	dd801d17 	ldw	r22,116(sp)
 1809004:	dd401c17 	ldw	r21,112(sp)
 1809008:	dd001b17 	ldw	r20,108(sp)
 180900c:	dcc01a17 	ldw	r19,104(sp)
 1809010:	dc801917 	ldw	r18,100(sp)
 1809014:	dc401817 	ldw	r17,96(sp)
 1809018:	dc001717 	ldw	r16,92(sp)
 180901c:	dec02004 	addi	sp,sp,128
 1809020:	f800283a 	ret
 1809024:	dd800717 	ldw	r22,28(sp)
 1809028:	dc800c17 	ldw	r18,48(sp)
 180902c:	002b883a 	mov	r21,zero
 1809030:	0023883a 	mov	r17,zero
 1809034:	a80b883a 	mov	r5,r21
 1809038:	b00d883a 	mov	r6,r22
 180903c:	880f883a 	mov	r7,r17
 1809040:	ddc00817 	ldw	r23,32(sp)
 1809044:	dcc00d17 	ldw	r19,52(sp)
 1809048:	9009883a 	mov	r4,r18
 180904c:	1809ca80 	call	1809ca8 <__muldi3>
 1809050:	001b883a 	mov	r13,zero
 1809054:	680f883a 	mov	r7,r13
 1809058:	b009883a 	mov	r4,r22
 180905c:	000b883a 	mov	r5,zero
 1809060:	980d883a 	mov	r6,r19
 1809064:	b82d883a 	mov	r22,r23
 1809068:	002f883a 	mov	r23,zero
 180906c:	db401615 	stw	r13,88(sp)
 1809070:	d8801315 	stw	r2,76(sp)
 1809074:	d8c01415 	stw	r3,80(sp)
 1809078:	dcc01515 	stw	r19,84(sp)
 180907c:	1809ca80 	call	1809ca8 <__muldi3>
 1809080:	b00d883a 	mov	r6,r22
 1809084:	000b883a 	mov	r5,zero
 1809088:	9009883a 	mov	r4,r18
 180908c:	b80f883a 	mov	r7,r23
 1809090:	1021883a 	mov	r16,r2
 1809094:	1823883a 	mov	r17,r3
 1809098:	1809ca80 	call	1809ca8 <__muldi3>
 180909c:	8085883a 	add	r2,r16,r2
 18090a0:	140d803a 	cmpltu	r6,r2,r16
 18090a4:	88c7883a 	add	r3,r17,r3
 18090a8:	30cd883a 	add	r6,r6,r3
 18090ac:	1029883a 	mov	r20,r2
 18090b0:	302b883a 	mov	r21,r6
 18090b4:	da801317 	ldw	r10,76(sp)
 18090b8:	dac01417 	ldw	r11,80(sp)
 18090bc:	db001517 	ldw	r12,84(sp)
 18090c0:	db401617 	ldw	r13,88(sp)
 18090c4:	3440612e 	bgeu	r6,r17,180924c <__muldf3+0x318>
 18090c8:	0009883a 	mov	r4,zero
 18090cc:	5105883a 	add	r2,r10,r4
 18090d0:	128d803a 	cmpltu	r6,r2,r10
 18090d4:	5d07883a 	add	r3,r11,r20
 18090d8:	30cd883a 	add	r6,r6,r3
 18090dc:	0021883a 	mov	r16,zero
 18090e0:	04400044 	movi	r17,1
 18090e4:	1025883a 	mov	r18,r2
 18090e8:	3027883a 	mov	r19,r6
 18090ec:	32c06236 	bltu	r6,r11,1809278 <__muldf3+0x344>
 18090f0:	59807a26 	beq	r11,r6,18092dc <__muldf3+0x3a8>
 18090f4:	680b883a 	mov	r5,r13
 18090f8:	b80f883a 	mov	r7,r23
 18090fc:	6009883a 	mov	r4,r12
 1809100:	b00d883a 	mov	r6,r22
 1809104:	1809ca80 	call	1809ca8 <__muldi3>
 1809108:	1009883a 	mov	r4,r2
 180910c:	000f883a 	mov	r7,zero
 1809110:	1545883a 	add	r2,r2,r21
 1809114:	1111803a 	cmpltu	r8,r2,r4
 1809118:	19c7883a 	add	r3,r3,r7
 180911c:	40c7883a 	add	r3,r8,r3
 1809120:	88cb883a 	add	r5,r17,r3
 1809124:	d8c00617 	ldw	r3,24(sp)
 1809128:	8089883a 	add	r4,r16,r2
 180912c:	d8800b17 	ldw	r2,44(sp)
 1809130:	18c00104 	addi	r3,r3,4
 1809134:	240d803a 	cmpltu	r6,r4,r16
 1809138:	10c7883a 	add	r3,r2,r3
 180913c:	2013883a 	mov	r9,r4
 1809140:	d8800a17 	ldw	r2,40(sp)
 1809144:	d9000517 	ldw	r4,20(sp)
 1809148:	314d883a 	add	r6,r6,r5
 180914c:	3015883a 	mov	r10,r6
 1809150:	2088c03a 	cmpne	r4,r4,r2
 1809154:	00880034 	movhi	r2,8192
 1809158:	10bfffc4 	addi	r2,r2,-1
 180915c:	d9000f15 	stw	r4,60(sp)
 1809160:	d8c01015 	stw	r3,64(sp)
 1809164:	1180162e 	bgeu	r2,r6,18091c0 <__muldf3+0x28c>
 1809168:	1811883a 	mov	r8,r3
 180916c:	101f883a 	mov	r15,r2
 1809170:	980497fa 	slli	r2,r19,31
 1809174:	9016d07a 	srli	r11,r18,1
 1809178:	500697fa 	slli	r3,r10,31
 180917c:	480cd07a 	srli	r6,r9,1
 1809180:	500ed07a 	srli	r7,r10,1
 1809184:	12d6b03a 	or	r11,r2,r11
 1809188:	00800044 	movi	r2,1
 180918c:	198cb03a 	or	r6,r3,r6
 1809190:	4888703a 	and	r4,r9,r2
 1809194:	9818d07a 	srli	r12,r19,1
 1809198:	001b883a 	mov	r13,zero
 180919c:	03a00034 	movhi	r14,32768
 18091a0:	3013883a 	mov	r9,r6
 18091a4:	3815883a 	mov	r10,r7
 18091a8:	4091883a 	add	r8,r8,r2
 18091ac:	20000226 	beq	r4,zero,18091b8 <__muldf3+0x284>
 18091b0:	5b64b03a 	or	r18,r11,r13
 18091b4:	63a6b03a 	or	r19,r12,r14
 18091b8:	7abfed36 	bltu	r15,r10,1809170 <__muldf3+0x23c>
 18091bc:	da001015 	stw	r8,64(sp)
 18091c0:	00840034 	movhi	r2,4096
 18091c4:	10bfffc4 	addi	r2,r2,-1
 18091c8:	12801436 	bltu	r2,r10,180921c <__muldf3+0x2e8>
 18091cc:	da001017 	ldw	r8,64(sp)
 18091d0:	101f883a 	mov	r15,r2
 18091d4:	4a45883a 	add	r2,r9,r9
 18091d8:	124d803a 	cmpltu	r6,r2,r9
 18091dc:	5287883a 	add	r3,r10,r10
 18091e0:	9497883a 	add	r11,r18,r18
 18091e4:	5c8f803a 	cmpltu	r7,r11,r18
 18091e8:	9cd9883a 	add	r12,r19,r19
 18091ec:	01000044 	movi	r4,1
 18091f0:	30cd883a 	add	r6,r6,r3
 18091f4:	3b0f883a 	add	r7,r7,r12
 18091f8:	423fffc4 	addi	r8,r8,-1
 18091fc:	1013883a 	mov	r9,r2
 1809200:	3015883a 	mov	r10,r6
 1809204:	111ab03a 	or	r13,r2,r4
 1809208:	98003016 	blt	r19,zero,18092cc <__muldf3+0x398>
 180920c:	5825883a 	mov	r18,r11
 1809210:	3827883a 	mov	r19,r7
 1809214:	7abfef2e 	bgeu	r15,r10,18091d4 <__muldf3+0x2a0>
 1809218:	da001015 	stw	r8,64(sp)
 180921c:	00803fc4 	movi	r2,255
 1809220:	488e703a 	and	r7,r9,r2
 1809224:	00802004 	movi	r2,128
 1809228:	0007883a 	mov	r3,zero
 180922c:	0011883a 	mov	r8,zero
 1809230:	38801826 	beq	r7,r2,1809294 <__muldf3+0x360>
 1809234:	008000c4 	movi	r2,3
 1809238:	d9000e04 	addi	r4,sp,56
 180923c:	da801215 	stw	r10,72(sp)
 1809240:	d8800e15 	stw	r2,56(sp)
 1809244:	da401115 	stw	r9,68(sp)
 1809248:	003f6a06 	br	1808ff4 <__muldf3+0xc0>
 180924c:	89802126 	beq	r17,r6,18092d4 <__muldf3+0x3a0>
 1809250:	0009883a 	mov	r4,zero
 1809254:	5105883a 	add	r2,r10,r4
 1809258:	128d803a 	cmpltu	r6,r2,r10
 180925c:	5d07883a 	add	r3,r11,r20
 1809260:	30cd883a 	add	r6,r6,r3
 1809264:	0021883a 	mov	r16,zero
 1809268:	0023883a 	mov	r17,zero
 180926c:	1025883a 	mov	r18,r2
 1809270:	3027883a 	mov	r19,r6
 1809274:	32ff9e2e 	bgeu	r6,r11,18090f0 <__muldf3+0x1bc>
 1809278:	00800044 	movi	r2,1
 180927c:	8089883a 	add	r4,r16,r2
 1809280:	240d803a 	cmpltu	r6,r4,r16
 1809284:	344d883a 	add	r6,r6,r17
 1809288:	2021883a 	mov	r16,r4
 180928c:	3023883a 	mov	r17,r6
 1809290:	003f9806 	br	18090f4 <__muldf3+0x1c0>
 1809294:	403fe71e 	bne	r8,zero,1809234 <__muldf3+0x300>
 1809298:	01004004 	movi	r4,256
 180929c:	4904703a 	and	r2,r9,r4
 18092a0:	10c4b03a 	or	r2,r2,r3
 18092a4:	103fe31e 	bne	r2,zero,1809234 <__muldf3+0x300>
 18092a8:	94c4b03a 	or	r2,r18,r19
 18092ac:	103fe126 	beq	r2,zero,1809234 <__muldf3+0x300>
 18092b0:	49c5883a 	add	r2,r9,r7
 18092b4:	1251803a 	cmpltu	r8,r2,r9
 18092b8:	4291883a 	add	r8,r8,r10
 18092bc:	013fc004 	movi	r4,-256
 18092c0:	1112703a 	and	r9,r2,r4
 18092c4:	4015883a 	mov	r10,r8
 18092c8:	003fda06 	br	1809234 <__muldf3+0x300>
 18092cc:	6813883a 	mov	r9,r13
 18092d0:	003fce06 	br	180920c <__muldf3+0x2d8>
 18092d4:	143f7c36 	bltu	r2,r16,18090c8 <__muldf3+0x194>
 18092d8:	003fdd06 	br	1809250 <__muldf3+0x31c>
 18092dc:	12bf852e 	bgeu	r2,r10,18090f4 <__muldf3+0x1c0>
 18092e0:	003fe506 	br	1809278 <__muldf3+0x344>
 18092e4:	00800084 	movi	r2,2
 18092e8:	20bf351e 	bne	r4,r2,1808fc0 <__muldf3+0x8c>
 18092ec:	01006074 	movhi	r4,385
 18092f0:	21044604 	addi	r4,r4,4376
 18092f4:	003f3f06 	br	1808ff4 <__muldf3+0xc0>

018092f8 <__divdf3>:
 18092f8:	deffed04 	addi	sp,sp,-76
 18092fc:	dcc01115 	stw	r19,68(sp)
 1809300:	dcc00404 	addi	r19,sp,16
 1809304:	2011883a 	mov	r8,r4
 1809308:	2813883a 	mov	r9,r5
 180930c:	dc000e15 	stw	r16,56(sp)
 1809310:	d809883a 	mov	r4,sp
 1809314:	980b883a 	mov	r5,r19
 1809318:	dc000904 	addi	r16,sp,36
 180931c:	dfc01215 	stw	ra,72(sp)
 1809320:	da400115 	stw	r9,4(sp)
 1809324:	d9c00315 	stw	r7,12(sp)
 1809328:	da000015 	stw	r8,0(sp)
 180932c:	d9800215 	stw	r6,8(sp)
 1809330:	dc801015 	stw	r18,64(sp)
 1809334:	dc400f15 	stw	r17,60(sp)
 1809338:	180a0540 	call	180a054 <__unpack_d>
 180933c:	d9000204 	addi	r4,sp,8
 1809340:	800b883a 	mov	r5,r16
 1809344:	180a0540 	call	180a054 <__unpack_d>
 1809348:	d9000417 	ldw	r4,16(sp)
 180934c:	00800044 	movi	r2,1
 1809350:	11000b2e 	bgeu	r2,r4,1809380 <__divdf3+0x88>
 1809354:	d9400917 	ldw	r5,36(sp)
 1809358:	1140762e 	bgeu	r2,r5,1809534 <__divdf3+0x23c>
 180935c:	d8800517 	ldw	r2,20(sp)
 1809360:	d8c00a17 	ldw	r3,40(sp)
 1809364:	01800104 	movi	r6,4
 1809368:	10c4f03a 	xor	r2,r2,r3
 180936c:	d8800515 	stw	r2,20(sp)
 1809370:	21800226 	beq	r4,r6,180937c <__divdf3+0x84>
 1809374:	00800084 	movi	r2,2
 1809378:	2080141e 	bne	r4,r2,18093cc <__divdf3+0xd4>
 180937c:	29000926 	beq	r5,r4,18093a4 <__divdf3+0xac>
 1809380:	9809883a 	mov	r4,r19
 1809384:	1809d400 	call	1809d40 <__pack_d>
 1809388:	dfc01217 	ldw	ra,72(sp)
 180938c:	dcc01117 	ldw	r19,68(sp)
 1809390:	dc801017 	ldw	r18,64(sp)
 1809394:	dc400f17 	ldw	r17,60(sp)
 1809398:	dc000e17 	ldw	r16,56(sp)
 180939c:	dec01304 	addi	sp,sp,76
 18093a0:	f800283a 	ret
 18093a4:	01006074 	movhi	r4,385
 18093a8:	21044604 	addi	r4,r4,4376
 18093ac:	1809d400 	call	1809d40 <__pack_d>
 18093b0:	dfc01217 	ldw	ra,72(sp)
 18093b4:	dcc01117 	ldw	r19,68(sp)
 18093b8:	dc801017 	ldw	r18,64(sp)
 18093bc:	dc400f17 	ldw	r17,60(sp)
 18093c0:	dc000e17 	ldw	r16,56(sp)
 18093c4:	dec01304 	addi	sp,sp,76
 18093c8:	f800283a 	ret
 18093cc:	29805b26 	beq	r5,r6,180953c <__divdf3+0x244>
 18093d0:	28802d26 	beq	r5,r2,1809488 <__divdf3+0x190>
 18093d4:	d8c00617 	ldw	r3,24(sp)
 18093d8:	d8800b17 	ldw	r2,44(sp)
 18093dc:	d9c00817 	ldw	r7,32(sp)
 18093e0:	dc400d17 	ldw	r17,52(sp)
 18093e4:	188bc83a 	sub	r5,r3,r2
 18093e8:	d9800717 	ldw	r6,28(sp)
 18093ec:	dc000c17 	ldw	r16,48(sp)
 18093f0:	d9400615 	stw	r5,24(sp)
 18093f4:	3c403836 	bltu	r7,r17,18094d8 <__divdf3+0x1e0>
 18093f8:	89c03626 	beq	r17,r7,18094d4 <__divdf3+0x1dc>
 18093fc:	0015883a 	mov	r10,zero
 1809400:	001d883a 	mov	r14,zero
 1809404:	02c40034 	movhi	r11,4096
 1809408:	001f883a 	mov	r15,zero
 180940c:	003f883a 	mov	ra,zero
 1809410:	04800f44 	movi	r18,61
 1809414:	00000f06 	br	1809454 <__divdf3+0x15c>
 1809418:	601d883a 	mov	r14,r12
 180941c:	681f883a 	mov	r15,r13
 1809420:	400d883a 	mov	r6,r8
 1809424:	100f883a 	mov	r7,r2
 1809428:	3191883a 	add	r8,r6,r6
 180942c:	5808d07a 	srli	r4,r11,1
 1809430:	4185803a 	cmpltu	r2,r8,r6
 1809434:	39d3883a 	add	r9,r7,r7
 1809438:	28c6b03a 	or	r3,r5,r3
 180943c:	1245883a 	add	r2,r2,r9
 1809440:	1815883a 	mov	r10,r3
 1809444:	2017883a 	mov	r11,r4
 1809448:	400d883a 	mov	r6,r8
 180944c:	100f883a 	mov	r7,r2
 1809450:	fc801726 	beq	ra,r18,18094b0 <__divdf3+0x1b8>
 1809454:	580a97fa 	slli	r5,r11,31
 1809458:	5006d07a 	srli	r3,r10,1
 180945c:	ffc00044 	addi	ra,ra,1
 1809460:	3c7ff136 	bltu	r7,r17,1809428 <__divdf3+0x130>
 1809464:	3411c83a 	sub	r8,r6,r16
 1809468:	3205803a 	cmpltu	r2,r6,r8
 180946c:	3c53c83a 	sub	r9,r7,r17
 1809470:	7298b03a 	or	r12,r14,r10
 1809474:	7adab03a 	or	r13,r15,r11
 1809478:	4885c83a 	sub	r2,r9,r2
 180947c:	89ffe61e 	bne	r17,r7,1809418 <__divdf3+0x120>
 1809480:	343fe936 	bltu	r6,r16,1809428 <__divdf3+0x130>
 1809484:	003fe406 	br	1809418 <__divdf3+0x120>
 1809488:	9809883a 	mov	r4,r19
 180948c:	d9800415 	stw	r6,16(sp)
 1809490:	1809d400 	call	1809d40 <__pack_d>
 1809494:	dfc01217 	ldw	ra,72(sp)
 1809498:	dcc01117 	ldw	r19,68(sp)
 180949c:	dc801017 	ldw	r18,64(sp)
 18094a0:	dc400f17 	ldw	r17,60(sp)
 18094a4:	dc000e17 	ldw	r16,56(sp)
 18094a8:	dec01304 	addi	sp,sp,76
 18094ac:	f800283a 	ret
 18094b0:	00803fc4 	movi	r2,255
 18094b4:	7090703a 	and	r8,r14,r2
 18094b8:	00802004 	movi	r2,128
 18094bc:	0007883a 	mov	r3,zero
 18094c0:	0013883a 	mov	r9,zero
 18094c4:	40800d26 	beq	r8,r2,18094fc <__divdf3+0x204>
 18094c8:	dbc00815 	stw	r15,32(sp)
 18094cc:	db800715 	stw	r14,28(sp)
 18094d0:	003fab06 	br	1809380 <__divdf3+0x88>
 18094d4:	343fc92e 	bgeu	r6,r16,18093fc <__divdf3+0x104>
 18094d8:	3185883a 	add	r2,r6,r6
 18094dc:	1189803a 	cmpltu	r4,r2,r6
 18094e0:	39c7883a 	add	r3,r7,r7
 18094e4:	20c9883a 	add	r4,r4,r3
 18094e8:	297fffc4 	addi	r5,r5,-1
 18094ec:	100d883a 	mov	r6,r2
 18094f0:	200f883a 	mov	r7,r4
 18094f4:	d9400615 	stw	r5,24(sp)
 18094f8:	003fc006 	br	18093fc <__divdf3+0x104>
 18094fc:	483ff21e 	bne	r9,zero,18094c8 <__divdf3+0x1d0>
 1809500:	01004004 	movi	r4,256
 1809504:	7104703a 	and	r2,r14,r4
 1809508:	10c4b03a 	or	r2,r2,r3
 180950c:	103fee1e 	bne	r2,zero,18094c8 <__divdf3+0x1d0>
 1809510:	31c4b03a 	or	r2,r6,r7
 1809514:	103fec26 	beq	r2,zero,18094c8 <__divdf3+0x1d0>
 1809518:	7205883a 	add	r2,r14,r8
 180951c:	1391803a 	cmpltu	r8,r2,r14
 1809520:	43d1883a 	add	r8,r8,r15
 1809524:	013fc004 	movi	r4,-256
 1809528:	111c703a 	and	r14,r2,r4
 180952c:	401f883a 	mov	r15,r8
 1809530:	003fe506 	br	18094c8 <__divdf3+0x1d0>
 1809534:	8009883a 	mov	r4,r16
 1809538:	003f9206 	br	1809384 <__divdf3+0x8c>
 180953c:	9809883a 	mov	r4,r19
 1809540:	d8000715 	stw	zero,28(sp)
 1809544:	d8000815 	stw	zero,32(sp)
 1809548:	d8000615 	stw	zero,24(sp)
 180954c:	003f8d06 	br	1809384 <__divdf3+0x8c>

01809550 <__eqdf2>:
 1809550:	deffef04 	addi	sp,sp,-68
 1809554:	dc400f15 	stw	r17,60(sp)
 1809558:	dc400404 	addi	r17,sp,16
 180955c:	2005883a 	mov	r2,r4
 1809560:	2807883a 	mov	r3,r5
 1809564:	dc000e15 	stw	r16,56(sp)
 1809568:	d809883a 	mov	r4,sp
 180956c:	880b883a 	mov	r5,r17
 1809570:	dc000904 	addi	r16,sp,36
 1809574:	d8c00115 	stw	r3,4(sp)
 1809578:	d8800015 	stw	r2,0(sp)
 180957c:	d9800215 	stw	r6,8(sp)
 1809580:	dfc01015 	stw	ra,64(sp)
 1809584:	d9c00315 	stw	r7,12(sp)
 1809588:	180a0540 	call	180a054 <__unpack_d>
 180958c:	d9000204 	addi	r4,sp,8
 1809590:	800b883a 	mov	r5,r16
 1809594:	180a0540 	call	180a054 <__unpack_d>
 1809598:	d8800417 	ldw	r2,16(sp)
 180959c:	00c00044 	movi	r3,1
 18095a0:	180d883a 	mov	r6,r3
 18095a4:	1880062e 	bgeu	r3,r2,18095c0 <__eqdf2+0x70>
 18095a8:	d8800917 	ldw	r2,36(sp)
 18095ac:	8809883a 	mov	r4,r17
 18095b0:	800b883a 	mov	r5,r16
 18095b4:	1880022e 	bgeu	r3,r2,18095c0 <__eqdf2+0x70>
 18095b8:	180a18c0 	call	180a18c <__fpcmp_parts_d>
 18095bc:	100d883a 	mov	r6,r2
 18095c0:	3005883a 	mov	r2,r6
 18095c4:	dfc01017 	ldw	ra,64(sp)
 18095c8:	dc400f17 	ldw	r17,60(sp)
 18095cc:	dc000e17 	ldw	r16,56(sp)
 18095d0:	dec01104 	addi	sp,sp,68
 18095d4:	f800283a 	ret

018095d8 <__nedf2>:
 18095d8:	deffef04 	addi	sp,sp,-68
 18095dc:	dc400f15 	stw	r17,60(sp)
 18095e0:	dc400404 	addi	r17,sp,16
 18095e4:	2005883a 	mov	r2,r4
 18095e8:	2807883a 	mov	r3,r5
 18095ec:	dc000e15 	stw	r16,56(sp)
 18095f0:	d809883a 	mov	r4,sp
 18095f4:	880b883a 	mov	r5,r17
 18095f8:	dc000904 	addi	r16,sp,36
 18095fc:	d8c00115 	stw	r3,4(sp)
 1809600:	d8800015 	stw	r2,0(sp)
 1809604:	d9800215 	stw	r6,8(sp)
 1809608:	dfc01015 	stw	ra,64(sp)
 180960c:	d9c00315 	stw	r7,12(sp)
 1809610:	180a0540 	call	180a054 <__unpack_d>
 1809614:	d9000204 	addi	r4,sp,8
 1809618:	800b883a 	mov	r5,r16
 180961c:	180a0540 	call	180a054 <__unpack_d>
 1809620:	d8800417 	ldw	r2,16(sp)
 1809624:	00c00044 	movi	r3,1
 1809628:	180d883a 	mov	r6,r3
 180962c:	1880062e 	bgeu	r3,r2,1809648 <__nedf2+0x70>
 1809630:	d8800917 	ldw	r2,36(sp)
 1809634:	8809883a 	mov	r4,r17
 1809638:	800b883a 	mov	r5,r16
 180963c:	1880022e 	bgeu	r3,r2,1809648 <__nedf2+0x70>
 1809640:	180a18c0 	call	180a18c <__fpcmp_parts_d>
 1809644:	100d883a 	mov	r6,r2
 1809648:	3005883a 	mov	r2,r6
 180964c:	dfc01017 	ldw	ra,64(sp)
 1809650:	dc400f17 	ldw	r17,60(sp)
 1809654:	dc000e17 	ldw	r16,56(sp)
 1809658:	dec01104 	addi	sp,sp,68
 180965c:	f800283a 	ret

01809660 <__gtdf2>:
 1809660:	deffef04 	addi	sp,sp,-68
 1809664:	dc400f15 	stw	r17,60(sp)
 1809668:	dc400404 	addi	r17,sp,16
 180966c:	2005883a 	mov	r2,r4
 1809670:	2807883a 	mov	r3,r5
 1809674:	dc000e15 	stw	r16,56(sp)
 1809678:	d809883a 	mov	r4,sp
 180967c:	880b883a 	mov	r5,r17
 1809680:	dc000904 	addi	r16,sp,36
 1809684:	d8c00115 	stw	r3,4(sp)
 1809688:	d8800015 	stw	r2,0(sp)
 180968c:	d9800215 	stw	r6,8(sp)
 1809690:	dfc01015 	stw	ra,64(sp)
 1809694:	d9c00315 	stw	r7,12(sp)
 1809698:	180a0540 	call	180a054 <__unpack_d>
 180969c:	d9000204 	addi	r4,sp,8
 18096a0:	800b883a 	mov	r5,r16
 18096a4:	180a0540 	call	180a054 <__unpack_d>
 18096a8:	d8800417 	ldw	r2,16(sp)
 18096ac:	00c00044 	movi	r3,1
 18096b0:	01bfffc4 	movi	r6,-1
 18096b4:	1880062e 	bgeu	r3,r2,18096d0 <__gtdf2+0x70>
 18096b8:	d8800917 	ldw	r2,36(sp)
 18096bc:	8809883a 	mov	r4,r17
 18096c0:	800b883a 	mov	r5,r16
 18096c4:	1880022e 	bgeu	r3,r2,18096d0 <__gtdf2+0x70>
 18096c8:	180a18c0 	call	180a18c <__fpcmp_parts_d>
 18096cc:	100d883a 	mov	r6,r2
 18096d0:	3005883a 	mov	r2,r6
 18096d4:	dfc01017 	ldw	ra,64(sp)
 18096d8:	dc400f17 	ldw	r17,60(sp)
 18096dc:	dc000e17 	ldw	r16,56(sp)
 18096e0:	dec01104 	addi	sp,sp,68
 18096e4:	f800283a 	ret

018096e8 <__gedf2>:
 18096e8:	deffef04 	addi	sp,sp,-68
 18096ec:	dc400f15 	stw	r17,60(sp)
 18096f0:	dc400404 	addi	r17,sp,16
 18096f4:	2005883a 	mov	r2,r4
 18096f8:	2807883a 	mov	r3,r5
 18096fc:	dc000e15 	stw	r16,56(sp)
 1809700:	d809883a 	mov	r4,sp
 1809704:	880b883a 	mov	r5,r17
 1809708:	dc000904 	addi	r16,sp,36
 180970c:	d8c00115 	stw	r3,4(sp)
 1809710:	d8800015 	stw	r2,0(sp)
 1809714:	d9800215 	stw	r6,8(sp)
 1809718:	dfc01015 	stw	ra,64(sp)
 180971c:	d9c00315 	stw	r7,12(sp)
 1809720:	180a0540 	call	180a054 <__unpack_d>
 1809724:	d9000204 	addi	r4,sp,8
 1809728:	800b883a 	mov	r5,r16
 180972c:	180a0540 	call	180a054 <__unpack_d>
 1809730:	d8800417 	ldw	r2,16(sp)
 1809734:	00c00044 	movi	r3,1
 1809738:	01bfffc4 	movi	r6,-1
 180973c:	1880062e 	bgeu	r3,r2,1809758 <__gedf2+0x70>
 1809740:	d8800917 	ldw	r2,36(sp)
 1809744:	8809883a 	mov	r4,r17
 1809748:	800b883a 	mov	r5,r16
 180974c:	1880022e 	bgeu	r3,r2,1809758 <__gedf2+0x70>
 1809750:	180a18c0 	call	180a18c <__fpcmp_parts_d>
 1809754:	100d883a 	mov	r6,r2
 1809758:	3005883a 	mov	r2,r6
 180975c:	dfc01017 	ldw	ra,64(sp)
 1809760:	dc400f17 	ldw	r17,60(sp)
 1809764:	dc000e17 	ldw	r16,56(sp)
 1809768:	dec01104 	addi	sp,sp,68
 180976c:	f800283a 	ret

01809770 <__ltdf2>:
 1809770:	deffef04 	addi	sp,sp,-68
 1809774:	dc400f15 	stw	r17,60(sp)
 1809778:	dc400404 	addi	r17,sp,16
 180977c:	2005883a 	mov	r2,r4
 1809780:	2807883a 	mov	r3,r5
 1809784:	dc000e15 	stw	r16,56(sp)
 1809788:	d809883a 	mov	r4,sp
 180978c:	880b883a 	mov	r5,r17
 1809790:	dc000904 	addi	r16,sp,36
 1809794:	d8c00115 	stw	r3,4(sp)
 1809798:	d8800015 	stw	r2,0(sp)
 180979c:	d9800215 	stw	r6,8(sp)
 18097a0:	dfc01015 	stw	ra,64(sp)
 18097a4:	d9c00315 	stw	r7,12(sp)
 18097a8:	180a0540 	call	180a054 <__unpack_d>
 18097ac:	d9000204 	addi	r4,sp,8
 18097b0:	800b883a 	mov	r5,r16
 18097b4:	180a0540 	call	180a054 <__unpack_d>
 18097b8:	d8800417 	ldw	r2,16(sp)
 18097bc:	00c00044 	movi	r3,1
 18097c0:	180d883a 	mov	r6,r3
 18097c4:	1880062e 	bgeu	r3,r2,18097e0 <__ltdf2+0x70>
 18097c8:	d8800917 	ldw	r2,36(sp)
 18097cc:	8809883a 	mov	r4,r17
 18097d0:	800b883a 	mov	r5,r16
 18097d4:	1880022e 	bgeu	r3,r2,18097e0 <__ltdf2+0x70>
 18097d8:	180a18c0 	call	180a18c <__fpcmp_parts_d>
 18097dc:	100d883a 	mov	r6,r2
 18097e0:	3005883a 	mov	r2,r6
 18097e4:	dfc01017 	ldw	ra,64(sp)
 18097e8:	dc400f17 	ldw	r17,60(sp)
 18097ec:	dc000e17 	ldw	r16,56(sp)
 18097f0:	dec01104 	addi	sp,sp,68
 18097f4:	f800283a 	ret

018097f8 <__floatsidf>:
 18097f8:	2006d7fa 	srli	r3,r4,31
 18097fc:	defff604 	addi	sp,sp,-40
 1809800:	008000c4 	movi	r2,3
 1809804:	dfc00915 	stw	ra,36(sp)
 1809808:	dcc00815 	stw	r19,32(sp)
 180980c:	dc800715 	stw	r18,28(sp)
 1809810:	dc400615 	stw	r17,24(sp)
 1809814:	dc000515 	stw	r16,20(sp)
 1809818:	d8800015 	stw	r2,0(sp)
 180981c:	d8c00115 	stw	r3,4(sp)
 1809820:	20000f1e 	bne	r4,zero,1809860 <__floatsidf+0x68>
 1809824:	00800084 	movi	r2,2
 1809828:	d8800015 	stw	r2,0(sp)
 180982c:	d809883a 	mov	r4,sp
 1809830:	1809d400 	call	1809d40 <__pack_d>
 1809834:	1009883a 	mov	r4,r2
 1809838:	180b883a 	mov	r5,r3
 180983c:	2005883a 	mov	r2,r4
 1809840:	2807883a 	mov	r3,r5
 1809844:	dfc00917 	ldw	ra,36(sp)
 1809848:	dcc00817 	ldw	r19,32(sp)
 180984c:	dc800717 	ldw	r18,28(sp)
 1809850:	dc400617 	ldw	r17,24(sp)
 1809854:	dc000517 	ldw	r16,20(sp)
 1809858:	dec00a04 	addi	sp,sp,40
 180985c:	f800283a 	ret
 1809860:	00800f04 	movi	r2,60
 1809864:	1807003a 	cmpeq	r3,r3,zero
 1809868:	d8800215 	stw	r2,8(sp)
 180986c:	18001126 	beq	r3,zero,18098b4 <__floatsidf+0xbc>
 1809870:	0027883a 	mov	r19,zero
 1809874:	2025883a 	mov	r18,r4
 1809878:	d9000315 	stw	r4,12(sp)
 180987c:	dcc00415 	stw	r19,16(sp)
 1809880:	18008e80 	call	18008e8 <__clzsi2>
 1809884:	11000744 	addi	r4,r2,29
 1809888:	013fe80e 	bge	zero,r4,180982c <__floatsidf+0x34>
 180988c:	10bfff44 	addi	r2,r2,-3
 1809890:	10000c16 	blt	r2,zero,18098c4 <__floatsidf+0xcc>
 1809894:	90a2983a 	sll	r17,r18,r2
 1809898:	0021883a 	mov	r16,zero
 180989c:	d8800217 	ldw	r2,8(sp)
 18098a0:	dc400415 	stw	r17,16(sp)
 18098a4:	dc000315 	stw	r16,12(sp)
 18098a8:	1105c83a 	sub	r2,r2,r4
 18098ac:	d8800215 	stw	r2,8(sp)
 18098b0:	003fde06 	br	180982c <__floatsidf+0x34>
 18098b4:	00a00034 	movhi	r2,32768
 18098b8:	20800a26 	beq	r4,r2,18098e4 <__floatsidf+0xec>
 18098bc:	0109c83a 	sub	r4,zero,r4
 18098c0:	003feb06 	br	1809870 <__floatsidf+0x78>
 18098c4:	9006d07a 	srli	r3,r18,1
 18098c8:	008007c4 	movi	r2,31
 18098cc:	1105c83a 	sub	r2,r2,r4
 18098d0:	1886d83a 	srl	r3,r3,r2
 18098d4:	9922983a 	sll	r17,r19,r4
 18098d8:	9120983a 	sll	r16,r18,r4
 18098dc:	1c62b03a 	or	r17,r3,r17
 18098e0:	003fee06 	br	180989c <__floatsidf+0xa4>
 18098e4:	0009883a 	mov	r4,zero
 18098e8:	01707834 	movhi	r5,49632
 18098ec:	003fd306 	br	180983c <__floatsidf+0x44>

018098f0 <__fixdfsi>:
 18098f0:	defff804 	addi	sp,sp,-32
 18098f4:	2005883a 	mov	r2,r4
 18098f8:	2807883a 	mov	r3,r5
 18098fc:	d809883a 	mov	r4,sp
 1809900:	d9400204 	addi	r5,sp,8
 1809904:	d8c00115 	stw	r3,4(sp)
 1809908:	d8800015 	stw	r2,0(sp)
 180990c:	dfc00715 	stw	ra,28(sp)
 1809910:	180a0540 	call	180a054 <__unpack_d>
 1809914:	d8c00217 	ldw	r3,8(sp)
 1809918:	00800084 	movi	r2,2
 180991c:	1880051e 	bne	r3,r2,1809934 <__fixdfsi+0x44>
 1809920:	0007883a 	mov	r3,zero
 1809924:	1805883a 	mov	r2,r3
 1809928:	dfc00717 	ldw	ra,28(sp)
 180992c:	dec00804 	addi	sp,sp,32
 1809930:	f800283a 	ret
 1809934:	00800044 	movi	r2,1
 1809938:	10fff92e 	bgeu	r2,r3,1809920 <__fixdfsi+0x30>
 180993c:	00800104 	movi	r2,4
 1809940:	18800426 	beq	r3,r2,1809954 <__fixdfsi+0x64>
 1809944:	d8c00417 	ldw	r3,16(sp)
 1809948:	183ff516 	blt	r3,zero,1809920 <__fixdfsi+0x30>
 180994c:	00800784 	movi	r2,30
 1809950:	10c0080e 	bge	r2,r3,1809974 <__fixdfsi+0x84>
 1809954:	d8800317 	ldw	r2,12(sp)
 1809958:	1000121e 	bne	r2,zero,18099a4 <__fixdfsi+0xb4>
 180995c:	00e00034 	movhi	r3,32768
 1809960:	18ffffc4 	addi	r3,r3,-1
 1809964:	1805883a 	mov	r2,r3
 1809968:	dfc00717 	ldw	ra,28(sp)
 180996c:	dec00804 	addi	sp,sp,32
 1809970:	f800283a 	ret
 1809974:	00800f04 	movi	r2,60
 1809978:	10d1c83a 	sub	r8,r2,r3
 180997c:	40bff804 	addi	r2,r8,-32
 1809980:	d9800517 	ldw	r6,20(sp)
 1809984:	d9c00617 	ldw	r7,24(sp)
 1809988:	10000816 	blt	r2,zero,18099ac <__fixdfsi+0xbc>
 180998c:	3888d83a 	srl	r4,r7,r2
 1809990:	d8800317 	ldw	r2,12(sp)
 1809994:	2007883a 	mov	r3,r4
 1809998:	103fe226 	beq	r2,zero,1809924 <__fixdfsi+0x34>
 180999c:	0107c83a 	sub	r3,zero,r4
 18099a0:	003fe006 	br	1809924 <__fixdfsi+0x34>
 18099a4:	00e00034 	movhi	r3,32768
 18099a8:	003fde06 	br	1809924 <__fixdfsi+0x34>
 18099ac:	39c7883a 	add	r3,r7,r7
 18099b0:	008007c4 	movi	r2,31
 18099b4:	1205c83a 	sub	r2,r2,r8
 18099b8:	1886983a 	sll	r3,r3,r2
 18099bc:	3208d83a 	srl	r4,r6,r8
 18099c0:	1908b03a 	or	r4,r3,r4
 18099c4:	003ff206 	br	1809990 <__fixdfsi+0xa0>

018099c8 <__floatunsidf>:
 18099c8:	defff204 	addi	sp,sp,-56
 18099cc:	dfc00d15 	stw	ra,52(sp)
 18099d0:	ddc00c15 	stw	r23,48(sp)
 18099d4:	dd800b15 	stw	r22,44(sp)
 18099d8:	dd400a15 	stw	r21,40(sp)
 18099dc:	dd000915 	stw	r20,36(sp)
 18099e0:	dcc00815 	stw	r19,32(sp)
 18099e4:	dc800715 	stw	r18,28(sp)
 18099e8:	dc400615 	stw	r17,24(sp)
 18099ec:	dc000515 	stw	r16,20(sp)
 18099f0:	d8000115 	stw	zero,4(sp)
 18099f4:	20000f1e 	bne	r4,zero,1809a34 <__floatunsidf+0x6c>
 18099f8:	00800084 	movi	r2,2
 18099fc:	d8800015 	stw	r2,0(sp)
 1809a00:	d809883a 	mov	r4,sp
 1809a04:	1809d400 	call	1809d40 <__pack_d>
 1809a08:	dfc00d17 	ldw	ra,52(sp)
 1809a0c:	ddc00c17 	ldw	r23,48(sp)
 1809a10:	dd800b17 	ldw	r22,44(sp)
 1809a14:	dd400a17 	ldw	r21,40(sp)
 1809a18:	dd000917 	ldw	r20,36(sp)
 1809a1c:	dcc00817 	ldw	r19,32(sp)
 1809a20:	dc800717 	ldw	r18,28(sp)
 1809a24:	dc400617 	ldw	r17,24(sp)
 1809a28:	dc000517 	ldw	r16,20(sp)
 1809a2c:	dec00e04 	addi	sp,sp,56
 1809a30:	f800283a 	ret
 1809a34:	008000c4 	movi	r2,3
 1809a38:	00c00f04 	movi	r3,60
 1809a3c:	002f883a 	mov	r23,zero
 1809a40:	202d883a 	mov	r22,r4
 1809a44:	d8800015 	stw	r2,0(sp)
 1809a48:	d8c00215 	stw	r3,8(sp)
 1809a4c:	d9000315 	stw	r4,12(sp)
 1809a50:	ddc00415 	stw	r23,16(sp)
 1809a54:	18008e80 	call	18008e8 <__clzsi2>
 1809a58:	12400744 	addi	r9,r2,29
 1809a5c:	48000b16 	blt	r9,zero,1809a8c <__floatunsidf+0xc4>
 1809a60:	483fe726 	beq	r9,zero,1809a00 <__floatunsidf+0x38>
 1809a64:	10bfff44 	addi	r2,r2,-3
 1809a68:	10002e16 	blt	r2,zero,1809b24 <__floatunsidf+0x15c>
 1809a6c:	b0a2983a 	sll	r17,r22,r2
 1809a70:	0021883a 	mov	r16,zero
 1809a74:	d8800217 	ldw	r2,8(sp)
 1809a78:	dc400415 	stw	r17,16(sp)
 1809a7c:	dc000315 	stw	r16,12(sp)
 1809a80:	1245c83a 	sub	r2,r2,r9
 1809a84:	d8800215 	stw	r2,8(sp)
 1809a88:	003fdd06 	br	1809a00 <__floatunsidf+0x38>
 1809a8c:	0255c83a 	sub	r10,zero,r9
 1809a90:	51bff804 	addi	r6,r10,-32
 1809a94:	30001b16 	blt	r6,zero,1809b04 <__floatunsidf+0x13c>
 1809a98:	b9a8d83a 	srl	r20,r23,r6
 1809a9c:	002b883a 	mov	r21,zero
 1809aa0:	000f883a 	mov	r7,zero
 1809aa4:	01000044 	movi	r4,1
 1809aa8:	0011883a 	mov	r8,zero
 1809aac:	30002516 	blt	r6,zero,1809b44 <__floatunsidf+0x17c>
 1809ab0:	21a6983a 	sll	r19,r4,r6
 1809ab4:	0025883a 	mov	r18,zero
 1809ab8:	00bfffc4 	movi	r2,-1
 1809abc:	9089883a 	add	r4,r18,r2
 1809ac0:	988b883a 	add	r5,r19,r2
 1809ac4:	248d803a 	cmpltu	r6,r4,r18
 1809ac8:	314b883a 	add	r5,r6,r5
 1809acc:	b104703a 	and	r2,r22,r4
 1809ad0:	b946703a 	and	r3,r23,r5
 1809ad4:	10c4b03a 	or	r2,r2,r3
 1809ad8:	10000226 	beq	r2,zero,1809ae4 <__floatunsidf+0x11c>
 1809adc:	01c00044 	movi	r7,1
 1809ae0:	0011883a 	mov	r8,zero
 1809ae4:	d9000217 	ldw	r4,8(sp)
 1809ae8:	a1c4b03a 	or	r2,r20,r7
 1809aec:	aa06b03a 	or	r3,r21,r8
 1809af0:	2249c83a 	sub	r4,r4,r9
 1809af4:	d8c00415 	stw	r3,16(sp)
 1809af8:	d9000215 	stw	r4,8(sp)
 1809afc:	d8800315 	stw	r2,12(sp)
 1809b00:	003fbf06 	br	1809a00 <__floatunsidf+0x38>
 1809b04:	bdc7883a 	add	r3,r23,r23
 1809b08:	008007c4 	movi	r2,31
 1809b0c:	1285c83a 	sub	r2,r2,r10
 1809b10:	1886983a 	sll	r3,r3,r2
 1809b14:	b2a8d83a 	srl	r20,r22,r10
 1809b18:	baaad83a 	srl	r21,r23,r10
 1809b1c:	1d28b03a 	or	r20,r3,r20
 1809b20:	003fdf06 	br	1809aa0 <__floatunsidf+0xd8>
 1809b24:	b006d07a 	srli	r3,r22,1
 1809b28:	008007c4 	movi	r2,31
 1809b2c:	1245c83a 	sub	r2,r2,r9
 1809b30:	1886d83a 	srl	r3,r3,r2
 1809b34:	ba62983a 	sll	r17,r23,r9
 1809b38:	b260983a 	sll	r16,r22,r9
 1809b3c:	1c62b03a 	or	r17,r3,r17
 1809b40:	003fcc06 	br	1809a74 <__floatunsidf+0xac>
 1809b44:	2006d07a 	srli	r3,r4,1
 1809b48:	008007c4 	movi	r2,31
 1809b4c:	1285c83a 	sub	r2,r2,r10
 1809b50:	18a6d83a 	srl	r19,r3,r2
 1809b54:	22a4983a 	sll	r18,r4,r10
 1809b58:	003fd706 	br	1809ab8 <__floatunsidf+0xf0>

01809b5c <udivmodsi4>:
 1809b5c:	29001b2e 	bgeu	r5,r4,1809bcc <udivmodsi4+0x70>
 1809b60:	28001a16 	blt	r5,zero,1809bcc <udivmodsi4+0x70>
 1809b64:	00800044 	movi	r2,1
 1809b68:	0007883a 	mov	r3,zero
 1809b6c:	01c007c4 	movi	r7,31
 1809b70:	00000306 	br	1809b80 <udivmodsi4+0x24>
 1809b74:	19c01326 	beq	r3,r7,1809bc4 <udivmodsi4+0x68>
 1809b78:	18c00044 	addi	r3,r3,1
 1809b7c:	28000416 	blt	r5,zero,1809b90 <udivmodsi4+0x34>
 1809b80:	294b883a 	add	r5,r5,r5
 1809b84:	1085883a 	add	r2,r2,r2
 1809b88:	293ffa36 	bltu	r5,r4,1809b74 <udivmodsi4+0x18>
 1809b8c:	10000d26 	beq	r2,zero,1809bc4 <udivmodsi4+0x68>
 1809b90:	0007883a 	mov	r3,zero
 1809b94:	21400236 	bltu	r4,r5,1809ba0 <udivmodsi4+0x44>
 1809b98:	2149c83a 	sub	r4,r4,r5
 1809b9c:	1886b03a 	or	r3,r3,r2
 1809ba0:	1004d07a 	srli	r2,r2,1
 1809ba4:	280ad07a 	srli	r5,r5,1
 1809ba8:	103ffa1e 	bne	r2,zero,1809b94 <udivmodsi4+0x38>
 1809bac:	30000226 	beq	r6,zero,1809bb8 <udivmodsi4+0x5c>
 1809bb0:	2005883a 	mov	r2,r4
 1809bb4:	f800283a 	ret
 1809bb8:	1809883a 	mov	r4,r3
 1809bbc:	2005883a 	mov	r2,r4
 1809bc0:	f800283a 	ret
 1809bc4:	0007883a 	mov	r3,zero
 1809bc8:	003ff806 	br	1809bac <udivmodsi4+0x50>
 1809bcc:	00800044 	movi	r2,1
 1809bd0:	0007883a 	mov	r3,zero
 1809bd4:	003fef06 	br	1809b94 <udivmodsi4+0x38>

01809bd8 <__divsi3>:
 1809bd8:	defffe04 	addi	sp,sp,-8
 1809bdc:	dc000015 	stw	r16,0(sp)
 1809be0:	dfc00115 	stw	ra,4(sp)
 1809be4:	0021883a 	mov	r16,zero
 1809be8:	20000c16 	blt	r4,zero,1809c1c <__divsi3+0x44>
 1809bec:	000d883a 	mov	r6,zero
 1809bf0:	28000e16 	blt	r5,zero,1809c2c <__divsi3+0x54>
 1809bf4:	1809b5c0 	call	1809b5c <udivmodsi4>
 1809bf8:	1007883a 	mov	r3,r2
 1809bfc:	8005003a 	cmpeq	r2,r16,zero
 1809c00:	1000011e 	bne	r2,zero,1809c08 <__divsi3+0x30>
 1809c04:	00c7c83a 	sub	r3,zero,r3
 1809c08:	1805883a 	mov	r2,r3
 1809c0c:	dfc00117 	ldw	ra,4(sp)
 1809c10:	dc000017 	ldw	r16,0(sp)
 1809c14:	dec00204 	addi	sp,sp,8
 1809c18:	f800283a 	ret
 1809c1c:	0109c83a 	sub	r4,zero,r4
 1809c20:	04000044 	movi	r16,1
 1809c24:	000d883a 	mov	r6,zero
 1809c28:	283ff20e 	bge	r5,zero,1809bf4 <__divsi3+0x1c>
 1809c2c:	014bc83a 	sub	r5,zero,r5
 1809c30:	8021003a 	cmpeq	r16,r16,zero
 1809c34:	003fef06 	br	1809bf4 <__divsi3+0x1c>

01809c38 <__modsi3>:
 1809c38:	deffff04 	addi	sp,sp,-4
 1809c3c:	dfc00015 	stw	ra,0(sp)
 1809c40:	01800044 	movi	r6,1
 1809c44:	2807883a 	mov	r3,r5
 1809c48:	20000416 	blt	r4,zero,1809c5c <__modsi3+0x24>
 1809c4c:	28000c16 	blt	r5,zero,1809c80 <__modsi3+0x48>
 1809c50:	dfc00017 	ldw	ra,0(sp)
 1809c54:	dec00104 	addi	sp,sp,4
 1809c58:	1809b5c1 	jmpi	1809b5c <udivmodsi4>
 1809c5c:	0109c83a 	sub	r4,zero,r4
 1809c60:	28000b16 	blt	r5,zero,1809c90 <__modsi3+0x58>
 1809c64:	180b883a 	mov	r5,r3
 1809c68:	01800044 	movi	r6,1
 1809c6c:	1809b5c0 	call	1809b5c <udivmodsi4>
 1809c70:	0085c83a 	sub	r2,zero,r2
 1809c74:	dfc00017 	ldw	ra,0(sp)
 1809c78:	dec00104 	addi	sp,sp,4
 1809c7c:	f800283a 	ret
 1809c80:	014bc83a 	sub	r5,zero,r5
 1809c84:	dfc00017 	ldw	ra,0(sp)
 1809c88:	dec00104 	addi	sp,sp,4
 1809c8c:	1809b5c1 	jmpi	1809b5c <udivmodsi4>
 1809c90:	0147c83a 	sub	r3,zero,r5
 1809c94:	003ff306 	br	1809c64 <__modsi3+0x2c>

01809c98 <__udivsi3>:
 1809c98:	000d883a 	mov	r6,zero
 1809c9c:	1809b5c1 	jmpi	1809b5c <udivmodsi4>

01809ca0 <__umodsi3>:
 1809ca0:	01800044 	movi	r6,1
 1809ca4:	1809b5c1 	jmpi	1809b5c <udivmodsi4>

01809ca8 <__muldi3>:
 1809ca8:	2011883a 	mov	r8,r4
 1809cac:	427fffcc 	andi	r9,r8,65535
 1809cb0:	4018d43a 	srli	r12,r8,16
 1809cb4:	32bfffcc 	andi	r10,r6,65535
 1809cb8:	3016d43a 	srli	r11,r6,16
 1809cbc:	4a85383a 	mul	r2,r9,r10
 1809cc0:	6295383a 	mul	r10,r12,r10
 1809cc4:	4ad3383a 	mul	r9,r9,r11
 1809cc8:	113fffcc 	andi	r4,r2,65535
 1809ccc:	1004d43a 	srli	r2,r2,16
 1809cd0:	4a93883a 	add	r9,r9,r10
 1809cd4:	3807883a 	mov	r3,r7
 1809cd8:	1245883a 	add	r2,r2,r9
 1809cdc:	280f883a 	mov	r7,r5
 1809ce0:	180b883a 	mov	r5,r3
 1809ce4:	1006943a 	slli	r3,r2,16
 1809ce8:	defffd04 	addi	sp,sp,-12
 1809cec:	dc800215 	stw	r18,8(sp)
 1809cf0:	1907883a 	add	r3,r3,r4
 1809cf4:	dc400115 	stw	r17,4(sp)
 1809cf8:	dc000015 	stw	r16,0(sp)
 1809cfc:	4165383a 	mul	r18,r8,r5
 1809d00:	31e3383a 	mul	r17,r6,r7
 1809d04:	1012d43a 	srli	r9,r2,16
 1809d08:	62d9383a 	mul	r12,r12,r11
 1809d0c:	181f883a 	mov	r15,r3
 1809d10:	1280022e 	bgeu	r2,r10,1809d1c <__muldi3+0x74>
 1809d14:	00800074 	movhi	r2,1
 1809d18:	6099883a 	add	r12,r12,r2
 1809d1c:	624d883a 	add	r6,r12,r9
 1809d20:	9187883a 	add	r3,r18,r6
 1809d24:	88c7883a 	add	r3,r17,r3
 1809d28:	7805883a 	mov	r2,r15
 1809d2c:	dc800217 	ldw	r18,8(sp)
 1809d30:	dc400117 	ldw	r17,4(sp)
 1809d34:	dc000017 	ldw	r16,0(sp)
 1809d38:	dec00304 	addi	sp,sp,12
 1809d3c:	f800283a 	ret

01809d40 <__pack_d>:
 1809d40:	20c00017 	ldw	r3,0(r4)
 1809d44:	defffd04 	addi	sp,sp,-12
 1809d48:	dc000015 	stw	r16,0(sp)
 1809d4c:	dc800215 	stw	r18,8(sp)
 1809d50:	dc400115 	stw	r17,4(sp)
 1809d54:	00800044 	movi	r2,1
 1809d58:	22000317 	ldw	r8,12(r4)
 1809d5c:	001f883a 	mov	r15,zero
 1809d60:	22400417 	ldw	r9,16(r4)
 1809d64:	24000117 	ldw	r16,4(r4)
 1809d68:	10c0552e 	bgeu	r2,r3,1809ec0 <__pack_d+0x180>
 1809d6c:	00800104 	movi	r2,4
 1809d70:	18804f26 	beq	r3,r2,1809eb0 <__pack_d+0x170>
 1809d74:	00800084 	movi	r2,2
 1809d78:	18800226 	beq	r3,r2,1809d84 <__pack_d+0x44>
 1809d7c:	4244b03a 	or	r2,r8,r9
 1809d80:	10001a1e 	bne	r2,zero,1809dec <__pack_d+0xac>
 1809d84:	000d883a 	mov	r6,zero
 1809d88:	000f883a 	mov	r7,zero
 1809d8c:	0011883a 	mov	r8,zero
 1809d90:	00800434 	movhi	r2,16
 1809d94:	10bfffc4 	addi	r2,r2,-1
 1809d98:	301d883a 	mov	r14,r6
 1809d9c:	3884703a 	and	r2,r7,r2
 1809da0:	400a953a 	slli	r5,r8,20
 1809da4:	79bffc2c 	andhi	r6,r15,65520
 1809da8:	308cb03a 	or	r6,r6,r2
 1809dac:	00e00434 	movhi	r3,32784
 1809db0:	18ffffc4 	addi	r3,r3,-1
 1809db4:	800497fa 	slli	r2,r16,31
 1809db8:	30c6703a 	and	r3,r6,r3
 1809dbc:	1946b03a 	or	r3,r3,r5
 1809dc0:	01600034 	movhi	r5,32768
 1809dc4:	297fffc4 	addi	r5,r5,-1
 1809dc8:	194a703a 	and	r5,r3,r5
 1809dcc:	288ab03a 	or	r5,r5,r2
 1809dd0:	2807883a 	mov	r3,r5
 1809dd4:	7005883a 	mov	r2,r14
 1809dd8:	dc800217 	ldw	r18,8(sp)
 1809ddc:	dc400117 	ldw	r17,4(sp)
 1809de0:	dc000017 	ldw	r16,0(sp)
 1809de4:	dec00304 	addi	sp,sp,12
 1809de8:	f800283a 	ret
 1809dec:	21000217 	ldw	r4,8(r4)
 1809df0:	00bf0084 	movi	r2,-1022
 1809df4:	20803f16 	blt	r4,r2,1809ef4 <__pack_d+0x1b4>
 1809df8:	0080ffc4 	movi	r2,1023
 1809dfc:	11002c16 	blt	r2,r4,1809eb0 <__pack_d+0x170>
 1809e00:	00803fc4 	movi	r2,255
 1809e04:	408c703a 	and	r6,r8,r2
 1809e08:	00802004 	movi	r2,128
 1809e0c:	0007883a 	mov	r3,zero
 1809e10:	000f883a 	mov	r7,zero
 1809e14:	2280ffc4 	addi	r10,r4,1023
 1809e18:	30801e26 	beq	r6,r2,1809e94 <__pack_d+0x154>
 1809e1c:	00801fc4 	movi	r2,127
 1809e20:	4089883a 	add	r4,r8,r2
 1809e24:	220d803a 	cmpltu	r6,r4,r8
 1809e28:	324d883a 	add	r6,r6,r9
 1809e2c:	2011883a 	mov	r8,r4
 1809e30:	3013883a 	mov	r9,r6
 1809e34:	00880034 	movhi	r2,8192
 1809e38:	10bfffc4 	addi	r2,r2,-1
 1809e3c:	12400d36 	bltu	r2,r9,1809e74 <__pack_d+0x134>
 1809e40:	4804963a 	slli	r2,r9,24
 1809e44:	400cd23a 	srli	r6,r8,8
 1809e48:	480ed23a 	srli	r7,r9,8
 1809e4c:	013fffc4 	movi	r4,-1
 1809e50:	118cb03a 	or	r6,r2,r6
 1809e54:	01400434 	movhi	r5,16
 1809e58:	297fffc4 	addi	r5,r5,-1
 1809e5c:	3104703a 	and	r2,r6,r4
 1809e60:	3946703a 	and	r3,r7,r5
 1809e64:	5201ffcc 	andi	r8,r10,2047
 1809e68:	100d883a 	mov	r6,r2
 1809e6c:	180f883a 	mov	r7,r3
 1809e70:	003fc706 	br	1809d90 <__pack_d+0x50>
 1809e74:	480897fa 	slli	r4,r9,31
 1809e78:	4004d07a 	srli	r2,r8,1
 1809e7c:	4806d07a 	srli	r3,r9,1
 1809e80:	52800044 	addi	r10,r10,1
 1809e84:	2084b03a 	or	r2,r4,r2
 1809e88:	1011883a 	mov	r8,r2
 1809e8c:	1813883a 	mov	r9,r3
 1809e90:	003feb06 	br	1809e40 <__pack_d+0x100>
 1809e94:	383fe11e 	bne	r7,zero,1809e1c <__pack_d+0xdc>
 1809e98:	01004004 	movi	r4,256
 1809e9c:	4104703a 	and	r2,r8,r4
 1809ea0:	10c4b03a 	or	r2,r2,r3
 1809ea4:	103fe326 	beq	r2,zero,1809e34 <__pack_d+0xf4>
 1809ea8:	3005883a 	mov	r2,r6
 1809eac:	003fdc06 	br	1809e20 <__pack_d+0xe0>
 1809eb0:	000d883a 	mov	r6,zero
 1809eb4:	000f883a 	mov	r7,zero
 1809eb8:	0201ffc4 	movi	r8,2047
 1809ebc:	003fb406 	br	1809d90 <__pack_d+0x50>
 1809ec0:	0005883a 	mov	r2,zero
 1809ec4:	00c00234 	movhi	r3,8
 1809ec8:	408cb03a 	or	r6,r8,r2
 1809ecc:	48ceb03a 	or	r7,r9,r3
 1809ed0:	013fffc4 	movi	r4,-1
 1809ed4:	01400434 	movhi	r5,16
 1809ed8:	297fffc4 	addi	r5,r5,-1
 1809edc:	3104703a 	and	r2,r6,r4
 1809ee0:	3946703a 	and	r3,r7,r5
 1809ee4:	100d883a 	mov	r6,r2
 1809ee8:	180f883a 	mov	r7,r3
 1809eec:	0201ffc4 	movi	r8,2047
 1809ef0:	003fa706 	br	1809d90 <__pack_d+0x50>
 1809ef4:	1109c83a 	sub	r4,r2,r4
 1809ef8:	00800e04 	movi	r2,56
 1809efc:	11004316 	blt	r2,r4,180a00c <__pack_d+0x2cc>
 1809f00:	21fff804 	addi	r7,r4,-32
 1809f04:	38004516 	blt	r7,zero,180a01c <__pack_d+0x2dc>
 1809f08:	49d8d83a 	srl	r12,r9,r7
 1809f0c:	001b883a 	mov	r13,zero
 1809f10:	0023883a 	mov	r17,zero
 1809f14:	01400044 	movi	r5,1
 1809f18:	0025883a 	mov	r18,zero
 1809f1c:	38004716 	blt	r7,zero,180a03c <__pack_d+0x2fc>
 1809f20:	29d6983a 	sll	r11,r5,r7
 1809f24:	0015883a 	mov	r10,zero
 1809f28:	00bfffc4 	movi	r2,-1
 1809f2c:	5089883a 	add	r4,r10,r2
 1809f30:	588b883a 	add	r5,r11,r2
 1809f34:	228d803a 	cmpltu	r6,r4,r10
 1809f38:	314b883a 	add	r5,r6,r5
 1809f3c:	4104703a 	and	r2,r8,r4
 1809f40:	4946703a 	and	r3,r9,r5
 1809f44:	10c4b03a 	or	r2,r2,r3
 1809f48:	10000226 	beq	r2,zero,1809f54 <__pack_d+0x214>
 1809f4c:	04400044 	movi	r17,1
 1809f50:	0025883a 	mov	r18,zero
 1809f54:	00803fc4 	movi	r2,255
 1809f58:	644eb03a 	or	r7,r12,r17
 1809f5c:	3892703a 	and	r9,r7,r2
 1809f60:	00802004 	movi	r2,128
 1809f64:	6c90b03a 	or	r8,r13,r18
 1809f68:	0015883a 	mov	r10,zero
 1809f6c:	48801626 	beq	r9,r2,1809fc8 <__pack_d+0x288>
 1809f70:	01001fc4 	movi	r4,127
 1809f74:	3905883a 	add	r2,r7,r4
 1809f78:	11cd803a 	cmpltu	r6,r2,r7
 1809f7c:	320d883a 	add	r6,r6,r8
 1809f80:	100f883a 	mov	r7,r2
 1809f84:	00840034 	movhi	r2,4096
 1809f88:	10bfffc4 	addi	r2,r2,-1
 1809f8c:	3011883a 	mov	r8,r6
 1809f90:	0007883a 	mov	r3,zero
 1809f94:	11801b36 	bltu	r2,r6,180a004 <__pack_d+0x2c4>
 1809f98:	4004963a 	slli	r2,r8,24
 1809f9c:	3808d23a 	srli	r4,r7,8
 1809fa0:	400ad23a 	srli	r5,r8,8
 1809fa4:	1813883a 	mov	r9,r3
 1809fa8:	1108b03a 	or	r4,r2,r4
 1809fac:	00bfffc4 	movi	r2,-1
 1809fb0:	00c00434 	movhi	r3,16
 1809fb4:	18ffffc4 	addi	r3,r3,-1
 1809fb8:	208c703a 	and	r6,r4,r2
 1809fbc:	28ce703a 	and	r7,r5,r3
 1809fc0:	4a01ffcc 	andi	r8,r9,2047
 1809fc4:	003f7206 	br	1809d90 <__pack_d+0x50>
 1809fc8:	503fe91e 	bne	r10,zero,1809f70 <__pack_d+0x230>
 1809fcc:	01004004 	movi	r4,256
 1809fd0:	3904703a 	and	r2,r7,r4
 1809fd4:	0007883a 	mov	r3,zero
 1809fd8:	10c4b03a 	or	r2,r2,r3
 1809fdc:	10000626 	beq	r2,zero,1809ff8 <__pack_d+0x2b8>
 1809fe0:	3a45883a 	add	r2,r7,r9
 1809fe4:	11cd803a 	cmpltu	r6,r2,r7
 1809fe8:	320d883a 	add	r6,r6,r8
 1809fec:	100f883a 	mov	r7,r2
 1809ff0:	3011883a 	mov	r8,r6
 1809ff4:	0007883a 	mov	r3,zero
 1809ff8:	00840034 	movhi	r2,4096
 1809ffc:	10bfffc4 	addi	r2,r2,-1
 180a000:	123fe52e 	bgeu	r2,r8,1809f98 <__pack_d+0x258>
 180a004:	00c00044 	movi	r3,1
 180a008:	003fe306 	br	1809f98 <__pack_d+0x258>
 180a00c:	0009883a 	mov	r4,zero
 180a010:	0013883a 	mov	r9,zero
 180a014:	000b883a 	mov	r5,zero
 180a018:	003fe406 	br	1809fac <__pack_d+0x26c>
 180a01c:	4a47883a 	add	r3,r9,r9
 180a020:	008007c4 	movi	r2,31
 180a024:	1105c83a 	sub	r2,r2,r4
 180a028:	1886983a 	sll	r3,r3,r2
 180a02c:	4118d83a 	srl	r12,r8,r4
 180a030:	491ad83a 	srl	r13,r9,r4
 180a034:	1b18b03a 	or	r12,r3,r12
 180a038:	003fb506 	br	1809f10 <__pack_d+0x1d0>
 180a03c:	2806d07a 	srli	r3,r5,1
 180a040:	008007c4 	movi	r2,31
 180a044:	1105c83a 	sub	r2,r2,r4
 180a048:	1896d83a 	srl	r11,r3,r2
 180a04c:	2914983a 	sll	r10,r5,r4
 180a050:	003fb506 	br	1809f28 <__pack_d+0x1e8>

0180a054 <__unpack_d>:
 180a054:	20c00117 	ldw	r3,4(r4)
 180a058:	22400017 	ldw	r9,0(r4)
 180a05c:	00800434 	movhi	r2,16
 180a060:	10bfffc4 	addi	r2,r2,-1
 180a064:	1808d53a 	srli	r4,r3,20
 180a068:	180cd7fa 	srli	r6,r3,31
 180a06c:	1894703a 	and	r10,r3,r2
 180a070:	2201ffcc 	andi	r8,r4,2047
 180a074:	281b883a 	mov	r13,r5
 180a078:	4817883a 	mov	r11,r9
 180a07c:	29800115 	stw	r6,4(r5)
 180a080:	5019883a 	mov	r12,r10
 180a084:	40001e1e 	bne	r8,zero,180a100 <__unpack_d+0xac>
 180a088:	4a84b03a 	or	r2,r9,r10
 180a08c:	10001926 	beq	r2,zero,180a0f4 <__unpack_d+0xa0>
 180a090:	4804d63a 	srli	r2,r9,24
 180a094:	500c923a 	slli	r6,r10,8
 180a098:	013f0084 	movi	r4,-1022
 180a09c:	00c40034 	movhi	r3,4096
 180a0a0:	18ffffc4 	addi	r3,r3,-1
 180a0a4:	118cb03a 	or	r6,r2,r6
 180a0a8:	008000c4 	movi	r2,3
 180a0ac:	480a923a 	slli	r5,r9,8
 180a0b0:	68800015 	stw	r2,0(r13)
 180a0b4:	69000215 	stw	r4,8(r13)
 180a0b8:	19800b36 	bltu	r3,r6,180a0e8 <__unpack_d+0x94>
 180a0bc:	200f883a 	mov	r7,r4
 180a0c0:	1811883a 	mov	r8,r3
 180a0c4:	2945883a 	add	r2,r5,r5
 180a0c8:	1149803a 	cmpltu	r4,r2,r5
 180a0cc:	3187883a 	add	r3,r6,r6
 180a0d0:	20c9883a 	add	r4,r4,r3
 180a0d4:	100b883a 	mov	r5,r2
 180a0d8:	200d883a 	mov	r6,r4
 180a0dc:	39ffffc4 	addi	r7,r7,-1
 180a0e0:	413ff82e 	bgeu	r8,r4,180a0c4 <__unpack_d+0x70>
 180a0e4:	69c00215 	stw	r7,8(r13)
 180a0e8:	69800415 	stw	r6,16(r13)
 180a0ec:	69400315 	stw	r5,12(r13)
 180a0f0:	f800283a 	ret
 180a0f4:	00800084 	movi	r2,2
 180a0f8:	28800015 	stw	r2,0(r5)
 180a0fc:	f800283a 	ret
 180a100:	0081ffc4 	movi	r2,2047
 180a104:	40800f26 	beq	r8,r2,180a144 <__unpack_d+0xf0>
 180a108:	480cd63a 	srli	r6,r9,24
 180a10c:	5006923a 	slli	r3,r10,8
 180a110:	4804923a 	slli	r2,r9,8
 180a114:	0009883a 	mov	r4,zero
 180a118:	30c6b03a 	or	r3,r6,r3
 180a11c:	01440034 	movhi	r5,4096
 180a120:	110cb03a 	or	r6,r2,r4
 180a124:	423f0044 	addi	r8,r8,-1023
 180a128:	194eb03a 	or	r7,r3,r5
 180a12c:	008000c4 	movi	r2,3
 180a130:	69c00415 	stw	r7,16(r13)
 180a134:	6a000215 	stw	r8,8(r13)
 180a138:	68800015 	stw	r2,0(r13)
 180a13c:	69800315 	stw	r6,12(r13)
 180a140:	f800283a 	ret
 180a144:	4a84b03a 	or	r2,r9,r10
 180a148:	1000031e 	bne	r2,zero,180a158 <__unpack_d+0x104>
 180a14c:	00800104 	movi	r2,4
 180a150:	28800015 	stw	r2,0(r5)
 180a154:	f800283a 	ret
 180a158:	0009883a 	mov	r4,zero
 180a15c:	01400234 	movhi	r5,8
 180a160:	4904703a 	and	r2,r9,r4
 180a164:	5146703a 	and	r3,r10,r5
 180a168:	10c4b03a 	or	r2,r2,r3
 180a16c:	10000526 	beq	r2,zero,180a184 <__unpack_d+0x130>
 180a170:	00800044 	movi	r2,1
 180a174:	68800015 	stw	r2,0(r13)
 180a178:	6b000415 	stw	r12,16(r13)
 180a17c:	6ac00315 	stw	r11,12(r13)
 180a180:	f800283a 	ret
 180a184:	68000015 	stw	zero,0(r13)
 180a188:	003ffb06 	br	180a178 <__unpack_d+0x124>

0180a18c <__fpcmp_parts_d>:
 180a18c:	21800017 	ldw	r6,0(r4)
 180a190:	00c00044 	movi	r3,1
 180a194:	19800a2e 	bgeu	r3,r6,180a1c0 <__fpcmp_parts_d+0x34>
 180a198:	28800017 	ldw	r2,0(r5)
 180a19c:	1880082e 	bgeu	r3,r2,180a1c0 <__fpcmp_parts_d+0x34>
 180a1a0:	00c00104 	movi	r3,4
 180a1a4:	30c02626 	beq	r6,r3,180a240 <__fpcmp_parts_d+0xb4>
 180a1a8:	10c02226 	beq	r2,r3,180a234 <__fpcmp_parts_d+0xa8>
 180a1ac:	00c00084 	movi	r3,2
 180a1b0:	30c00526 	beq	r6,r3,180a1c8 <__fpcmp_parts_d+0x3c>
 180a1b4:	10c0071e 	bne	r2,r3,180a1d4 <__fpcmp_parts_d+0x48>
 180a1b8:	20800117 	ldw	r2,4(r4)
 180a1bc:	1000091e 	bne	r2,zero,180a1e4 <__fpcmp_parts_d+0x58>
 180a1c0:	00800044 	movi	r2,1
 180a1c4:	f800283a 	ret
 180a1c8:	10c01a1e 	bne	r2,r3,180a234 <__fpcmp_parts_d+0xa8>
 180a1cc:	0005883a 	mov	r2,zero
 180a1d0:	f800283a 	ret
 180a1d4:	22000117 	ldw	r8,4(r4)
 180a1d8:	28800117 	ldw	r2,4(r5)
 180a1dc:	40800326 	beq	r8,r2,180a1ec <__fpcmp_parts_d+0x60>
 180a1e0:	403ff726 	beq	r8,zero,180a1c0 <__fpcmp_parts_d+0x34>
 180a1e4:	00bfffc4 	movi	r2,-1
 180a1e8:	f800283a 	ret
 180a1ec:	20c00217 	ldw	r3,8(r4)
 180a1f0:	28800217 	ldw	r2,8(r5)
 180a1f4:	10fffa16 	blt	r2,r3,180a1e0 <__fpcmp_parts_d+0x54>
 180a1f8:	18800916 	blt	r3,r2,180a220 <__fpcmp_parts_d+0x94>
 180a1fc:	21c00417 	ldw	r7,16(r4)
 180a200:	28c00417 	ldw	r3,16(r5)
 180a204:	21800317 	ldw	r6,12(r4)
 180a208:	28800317 	ldw	r2,12(r5)
 180a20c:	19fff436 	bltu	r3,r7,180a1e0 <__fpcmp_parts_d+0x54>
 180a210:	38c00526 	beq	r7,r3,180a228 <__fpcmp_parts_d+0x9c>
 180a214:	38c00236 	bltu	r7,r3,180a220 <__fpcmp_parts_d+0x94>
 180a218:	19ffec1e 	bne	r3,r7,180a1cc <__fpcmp_parts_d+0x40>
 180a21c:	30bfeb2e 	bgeu	r6,r2,180a1cc <__fpcmp_parts_d+0x40>
 180a220:	403fe71e 	bne	r8,zero,180a1c0 <__fpcmp_parts_d+0x34>
 180a224:	003fef06 	br	180a1e4 <__fpcmp_parts_d+0x58>
 180a228:	11bffa2e 	bgeu	r2,r6,180a214 <__fpcmp_parts_d+0x88>
 180a22c:	403fe426 	beq	r8,zero,180a1c0 <__fpcmp_parts_d+0x34>
 180a230:	003fec06 	br	180a1e4 <__fpcmp_parts_d+0x58>
 180a234:	28800117 	ldw	r2,4(r5)
 180a238:	103fe11e 	bne	r2,zero,180a1c0 <__fpcmp_parts_d+0x34>
 180a23c:	003fe906 	br	180a1e4 <__fpcmp_parts_d+0x58>
 180a240:	11bfdd1e 	bne	r2,r6,180a1b8 <__fpcmp_parts_d+0x2c>
 180a244:	28c00117 	ldw	r3,4(r5)
 180a248:	20800117 	ldw	r2,4(r4)
 180a24c:	1885c83a 	sub	r2,r3,r2
 180a250:	f800283a 	ret

0180a254 <close>:
 *
 * ALT_CLOSE is mapped onto the close() system call in alt_syscall.h
 */
 
int ALT_CLOSE (int fildes)
{
 180a254:	defff804 	addi	sp,sp,-32
 180a258:	dfc00715 	stw	ra,28(sp)
 180a25c:	df000615 	stw	fp,24(sp)
 180a260:	df000604 	addi	fp,sp,24
 180a264:	e13ffc15 	stw	r4,-16(fp)
   * A common error case is that when the file descriptor was created, the call
   * to open() failed resulting in a negative file descriptor. This is trapped
   * below so that we don't try and process an invalid file descriptor.
   */

  fd = (fildes < 0) ? NULL : &alt_fd_list[fildes];
 180a268:	e0bffc17 	ldw	r2,-16(fp)
 180a26c:	1004803a 	cmplt	r2,r2,zero
 180a270:	1000081e 	bne	r2,zero,180a294 <close+0x40>
 180a274:	e0bffc17 	ldw	r2,-16(fp)
 180a278:	10800324 	muli	r2,r2,12
 180a27c:	1007883a 	mov	r3,r2
 180a280:	00806074 	movhi	r2,385
 180a284:	10871004 	addi	r2,r2,7232
 180a288:	1887883a 	add	r3,r3,r2
 180a28c:	e0ffff15 	stw	r3,-4(fp)
 180a290:	00000106 	br	180a298 <close+0x44>
 180a294:	e03fff15 	stw	zero,-4(fp)
 180a298:	e0bfff17 	ldw	r2,-4(fp)
 180a29c:	e0bffb15 	stw	r2,-20(fp)

  if (fd)
 180a2a0:	e0bffb17 	ldw	r2,-20(fp)
 180a2a4:	1005003a 	cmpeq	r2,r2,zero
 180a2a8:	10001d1e 	bne	r2,zero,180a320 <close+0xcc>
    /*
     * If the associated file system/device has a close function, call it so 
     * that any necessary cleanup code can run.
     */

    rval = (fd->dev->close) ? fd->dev->close(fd) : 0;
 180a2ac:	e0bffb17 	ldw	r2,-20(fp)
 180a2b0:	10800017 	ldw	r2,0(r2)
 180a2b4:	10800417 	ldw	r2,16(r2)
 180a2b8:	1005003a 	cmpeq	r2,r2,zero
 180a2bc:	1000071e 	bne	r2,zero,180a2dc <close+0x88>
 180a2c0:	e0bffb17 	ldw	r2,-20(fp)
 180a2c4:	10800017 	ldw	r2,0(r2)
 180a2c8:	10800417 	ldw	r2,16(r2)
 180a2cc:	e13ffb17 	ldw	r4,-20(fp)
 180a2d0:	103ee83a 	callr	r2
 180a2d4:	e0bffe15 	stw	r2,-8(fp)
 180a2d8:	00000106 	br	180a2e0 <close+0x8c>
 180a2dc:	e03ffe15 	stw	zero,-8(fp)
 180a2e0:	e0bffe17 	ldw	r2,-8(fp)
 180a2e4:	e0bffa15 	stw	r2,-24(fp)

    /* Free the file descriptor structure and return. */

    alt_release_fd (fildes);
 180a2e8:	e13ffc17 	ldw	r4,-16(fp)
 180a2ec:	180a9ac0 	call	180a9ac <alt_release_fd>
    if (rval < 0)
 180a2f0:	e0bffa17 	ldw	r2,-24(fp)
 180a2f4:	1004403a 	cmpge	r2,r2,zero
 180a2f8:	1000071e 	bne	r2,zero,180a318 <close+0xc4>
    {
      ALT_ERRNO = -rval;
 180a2fc:	180a3500 	call	180a350 <alt_get_errno>
 180a300:	e0fffa17 	ldw	r3,-24(fp)
 180a304:	00c7c83a 	sub	r3,zero,r3
 180a308:	10c00015 	stw	r3,0(r2)
      return -1;
 180a30c:	00bfffc4 	movi	r2,-1
 180a310:	e0bffd15 	stw	r2,-12(fp)
 180a314:	00000806 	br	180a338 <close+0xe4>
    }
    return 0;
 180a318:	e03ffd15 	stw	zero,-12(fp)
 180a31c:	00000606 	br	180a338 <close+0xe4>
  }
  else
  {
    ALT_ERRNO = EBADFD;
 180a320:	180a3500 	call	180a350 <alt_get_errno>
 180a324:	1007883a 	mov	r3,r2
 180a328:	00801444 	movi	r2,81
 180a32c:	18800015 	stw	r2,0(r3)
    return -1;
 180a330:	00bfffc4 	movi	r2,-1
 180a334:	e0bffd15 	stw	r2,-12(fp)
 180a338:	e0bffd17 	ldw	r2,-12(fp)
  }
}
 180a33c:	e037883a 	mov	sp,fp
 180a340:	dfc00117 	ldw	ra,4(sp)
 180a344:	df000017 	ldw	fp,0(sp)
 180a348:	dec00204 	addi	sp,sp,8
 180a34c:	f800283a 	ret

0180a350 <alt_get_errno>:
#undef errno

extern int errno;

static ALT_INLINE int* alt_get_errno(void)
{
 180a350:	defffd04 	addi	sp,sp,-12
 180a354:	dfc00215 	stw	ra,8(sp)
 180a358:	df000115 	stw	fp,4(sp)
 180a35c:	df000104 	addi	fp,sp,4
  return ((alt_errno) ? alt_errno() : &errno);
 180a360:	00806074 	movhi	r2,385
 180a364:	108c4204 	addi	r2,r2,12552
 180a368:	10800017 	ldw	r2,0(r2)
 180a36c:	1005003a 	cmpeq	r2,r2,zero
 180a370:	1000061e 	bne	r2,zero,180a38c <alt_get_errno+0x3c>
 180a374:	00806074 	movhi	r2,385
 180a378:	108c4204 	addi	r2,r2,12552
 180a37c:	10800017 	ldw	r2,0(r2)
 180a380:	103ee83a 	callr	r2
 180a384:	e0bfff15 	stw	r2,-4(fp)
 180a388:	00000306 	br	180a398 <alt_get_errno+0x48>
 180a38c:	00806074 	movhi	r2,385
 180a390:	108c5104 	addi	r2,r2,12612
 180a394:	e0bfff15 	stw	r2,-4(fp)
 180a398:	e0bfff17 	ldw	r2,-4(fp)
}
 180a39c:	e037883a 	mov	sp,fp
 180a3a0:	dfc00117 	ldw	ra,4(sp)
 180a3a4:	df000017 	ldw	fp,0(sp)
 180a3a8:	dec00204 	addi	sp,sp,8
 180a3ac:	f800283a 	ret

0180a3b0 <alt_dev_null_write>:
 * by the alt_dev_null device. It simple discards all data passed to it, and
 * indicates that the data has been successfully transmitted.
 */

static int alt_dev_null_write (alt_fd* fd, const char* ptr, int len)
{
 180a3b0:	defffc04 	addi	sp,sp,-16
 180a3b4:	df000315 	stw	fp,12(sp)
 180a3b8:	df000304 	addi	fp,sp,12
 180a3bc:	e13ffd15 	stw	r4,-12(fp)
 180a3c0:	e17ffe15 	stw	r5,-8(fp)
 180a3c4:	e1bfff15 	stw	r6,-4(fp)
  return len;
 180a3c8:	e0bfff17 	ldw	r2,-4(fp)
}
 180a3cc:	e037883a 	mov	sp,fp
 180a3d0:	df000017 	ldw	fp,0(sp)
 180a3d4:	dec00104 	addi	sp,sp,4
 180a3d8:	f800283a 	ret

0180a3dc <fstat>:
}

#else /* !ALT_USE_DIRECT_DRIVERS */

int ALT_FSTAT (int file, struct stat *st)
{
 180a3dc:	defff904 	addi	sp,sp,-28
 180a3e0:	dfc00615 	stw	ra,24(sp)
 180a3e4:	df000515 	stw	fp,20(sp)
 180a3e8:	df000504 	addi	fp,sp,20
 180a3ec:	e13ffc15 	stw	r4,-16(fp)
 180a3f0:	e17ffd15 	stw	r5,-12(fp)
   * A common error case is that when the file descriptor was created, the call
   * to open() failed resulting in a negative file descriptor. This is trapped
   * below so that we don't try and process an invalid file descriptor.
   */

  fd = (file < 0) ? NULL : &alt_fd_list[file];
 180a3f4:	e0bffc17 	ldw	r2,-16(fp)
 180a3f8:	1004803a 	cmplt	r2,r2,zero
 180a3fc:	1000081e 	bne	r2,zero,180a420 <fstat+0x44>
 180a400:	e0bffc17 	ldw	r2,-16(fp)
 180a404:	10800324 	muli	r2,r2,12
 180a408:	1007883a 	mov	r3,r2
 180a40c:	00806074 	movhi	r2,385
 180a410:	10871004 	addi	r2,r2,7232
 180a414:	1887883a 	add	r3,r3,r2
 180a418:	e0ffff15 	stw	r3,-4(fp)
 180a41c:	00000106 	br	180a424 <fstat+0x48>
 180a420:	e03fff15 	stw	zero,-4(fp)
 180a424:	e0bfff17 	ldw	r2,-4(fp)
 180a428:	e0bffb15 	stw	r2,-20(fp)
  
  if (fd)
 180a42c:	e0bffb17 	ldw	r2,-20(fp)
 180a430:	1005003a 	cmpeq	r2,r2,zero
 180a434:	1000121e 	bne	r2,zero,180a480 <fstat+0xa4>
  {
    /* Call the drivers fstat() function to fill out the "st" structure. */

    if (fd->dev->fstat)
 180a438:	e0bffb17 	ldw	r2,-20(fp)
 180a43c:	10800017 	ldw	r2,0(r2)
 180a440:	10800817 	ldw	r2,32(r2)
 180a444:	1005003a 	cmpeq	r2,r2,zero
 180a448:	1000081e 	bne	r2,zero,180a46c <fstat+0x90>
    {
      return fd->dev->fstat(fd, st);
 180a44c:	e0bffb17 	ldw	r2,-20(fp)
 180a450:	10800017 	ldw	r2,0(r2)
 180a454:	10800817 	ldw	r2,32(r2)
 180a458:	e13ffb17 	ldw	r4,-20(fp)
 180a45c:	e17ffd17 	ldw	r5,-12(fp)
 180a460:	103ee83a 	callr	r2
 180a464:	e0bffe15 	stw	r2,-8(fp)
 180a468:	00000b06 	br	180a498 <fstat+0xbc>
     * device.
     */
 
    else
    {
      st->st_mode = _IFCHR;
 180a46c:	e0fffd17 	ldw	r3,-12(fp)
 180a470:	00880004 	movi	r2,8192
 180a474:	18800115 	stw	r2,4(r3)
      return 0;
 180a478:	e03ffe15 	stw	zero,-8(fp)
 180a47c:	00000606 	br	180a498 <fstat+0xbc>
    }
  }
  else
  {
    ALT_ERRNO = EBADFD;
 180a480:	180a4b00 	call	180a4b0 <alt_get_errno>
 180a484:	1007883a 	mov	r3,r2
 180a488:	00801444 	movi	r2,81
 180a48c:	18800015 	stw	r2,0(r3)
    return -1;
 180a490:	00bfffc4 	movi	r2,-1
 180a494:	e0bffe15 	stw	r2,-8(fp)
 180a498:	e0bffe17 	ldw	r2,-8(fp)
  }
}
 180a49c:	e037883a 	mov	sp,fp
 180a4a0:	dfc00117 	ldw	ra,4(sp)
 180a4a4:	df000017 	ldw	fp,0(sp)
 180a4a8:	dec00204 	addi	sp,sp,8
 180a4ac:	f800283a 	ret

0180a4b0 <alt_get_errno>:
#undef errno

extern int errno;

static ALT_INLINE int* alt_get_errno(void)
{
 180a4b0:	defffd04 	addi	sp,sp,-12
 180a4b4:	dfc00215 	stw	ra,8(sp)
 180a4b8:	df000115 	stw	fp,4(sp)
 180a4bc:	df000104 	addi	fp,sp,4
  return ((alt_errno) ? alt_errno() : &errno);
 180a4c0:	00806074 	movhi	r2,385
 180a4c4:	108c4204 	addi	r2,r2,12552
 180a4c8:	10800017 	ldw	r2,0(r2)
 180a4cc:	1005003a 	cmpeq	r2,r2,zero
 180a4d0:	1000061e 	bne	r2,zero,180a4ec <alt_get_errno+0x3c>
 180a4d4:	00806074 	movhi	r2,385
 180a4d8:	108c4204 	addi	r2,r2,12552
 180a4dc:	10800017 	ldw	r2,0(r2)
 180a4e0:	103ee83a 	callr	r2
 180a4e4:	e0bfff15 	stw	r2,-4(fp)
 180a4e8:	00000306 	br	180a4f8 <alt_get_errno+0x48>
 180a4ec:	00806074 	movhi	r2,385
 180a4f0:	108c5104 	addi	r2,r2,12612
 180a4f4:	e0bfff15 	stw	r2,-4(fp)
 180a4f8:	e0bfff17 	ldw	r2,-4(fp)
}
 180a4fc:	e037883a 	mov	sp,fp
 180a500:	dfc00117 	ldw	ra,4(sp)
 180a504:	df000017 	ldw	fp,0(sp)
 180a508:	dec00204 	addi	sp,sp,8
 180a50c:	f800283a 	ret

0180a510 <isatty>:
 *
 * ALT_ISATTY is mapped onto the isatty() system call in alt_syscall.h
 */
 
int ALT_ISATTY (int file)
{
 180a510:	deffeb04 	addi	sp,sp,-84
 180a514:	dfc01415 	stw	ra,80(sp)
 180a518:	df001315 	stw	fp,76(sp)
 180a51c:	df001304 	addi	fp,sp,76
 180a520:	e13ffd15 	stw	r4,-12(fp)
   * A common error case is that when the file descriptor was created, the call
   * to open() failed resulting in a negative file descriptor. This is trapped
   * below so that we don't try and process an invalid file descriptor.
   */

  fd = (file < 0) ? NULL : &alt_fd_list[file];
 180a524:	e0bffd17 	ldw	r2,-12(fp)
 180a528:	1004803a 	cmplt	r2,r2,zero
 180a52c:	1000081e 	bne	r2,zero,180a550 <isatty+0x40>
 180a530:	e0bffd17 	ldw	r2,-12(fp)
 180a534:	10800324 	muli	r2,r2,12
 180a538:	1007883a 	mov	r3,r2
 180a53c:	00806074 	movhi	r2,385
 180a540:	10871004 	addi	r2,r2,7232
 180a544:	1887883a 	add	r3,r3,r2
 180a548:	e0ffff15 	stw	r3,-4(fp)
 180a54c:	00000106 	br	180a554 <isatty+0x44>
 180a550:	e03fff15 	stw	zero,-4(fp)
 180a554:	e0bfff17 	ldw	r2,-4(fp)
 180a558:	e0bfed15 	stw	r2,-76(fp)
  
  if (fd)
 180a55c:	e0bfed17 	ldw	r2,-76(fp)
 180a560:	1005003a 	cmpeq	r2,r2,zero
 180a564:	10000f1e 	bne	r2,zero,180a5a4 <isatty+0x94>
    /*
     * If a device driver does not provide an fstat() function, then it is 
     * treated as a terminal device by default.
     */

    if (!fd->dev->fstat)
 180a568:	e0bfed17 	ldw	r2,-76(fp)
 180a56c:	10800017 	ldw	r2,0(r2)
 180a570:	10800817 	ldw	r2,32(r2)
 180a574:	1004c03a 	cmpne	r2,r2,zero
 180a578:	1000031e 	bne	r2,zero,180a588 <isatty+0x78>
    {
      return 1;
 180a57c:	00800044 	movi	r2,1
 180a580:	e0bffe15 	stw	r2,-8(fp)
 180a584:	00000c06 	br	180a5b8 <isatty+0xa8>
     * this is called so that the device can identify itself.
     */ 

    else
    {
      fstat (file, &stat);
 180a588:	e17fee04 	addi	r5,fp,-72
 180a58c:	e13ffd17 	ldw	r4,-12(fp)
 180a590:	180a3dc0 	call	180a3dc <fstat>
      return (stat.st_mode == _IFCHR) ? 1 : 0;
 180a594:	e0bfef17 	ldw	r2,-68(fp)
 180a598:	10880020 	cmpeqi	r2,r2,8192
 180a59c:	e0bffe15 	stw	r2,-8(fp)
 180a5a0:	00000506 	br	180a5b8 <isatty+0xa8>
    }
  }
  else
  {
    ALT_ERRNO = EBADFD;
 180a5a4:	180a5d00 	call	180a5d0 <alt_get_errno>
 180a5a8:	1007883a 	mov	r3,r2
 180a5ac:	00801444 	movi	r2,81
 180a5b0:	18800015 	stw	r2,0(r3)
    return 0;
 180a5b4:	e03ffe15 	stw	zero,-8(fp)
 180a5b8:	e0bffe17 	ldw	r2,-8(fp)
  }
}
 180a5bc:	e037883a 	mov	sp,fp
 180a5c0:	dfc00117 	ldw	ra,4(sp)
 180a5c4:	df000017 	ldw	fp,0(sp)
 180a5c8:	dec00204 	addi	sp,sp,8
 180a5cc:	f800283a 	ret

0180a5d0 <alt_get_errno>:
#undef errno

extern int errno;

static ALT_INLINE int* alt_get_errno(void)
{
 180a5d0:	defffd04 	addi	sp,sp,-12
 180a5d4:	dfc00215 	stw	ra,8(sp)
 180a5d8:	df000115 	stw	fp,4(sp)
 180a5dc:	df000104 	addi	fp,sp,4
  return ((alt_errno) ? alt_errno() : &errno);
 180a5e0:	00806074 	movhi	r2,385
 180a5e4:	108c4204 	addi	r2,r2,12552
 180a5e8:	10800017 	ldw	r2,0(r2)
 180a5ec:	1005003a 	cmpeq	r2,r2,zero
 180a5f0:	1000061e 	bne	r2,zero,180a60c <alt_get_errno+0x3c>
 180a5f4:	00806074 	movhi	r2,385
 180a5f8:	108c4204 	addi	r2,r2,12552
 180a5fc:	10800017 	ldw	r2,0(r2)
 180a600:	103ee83a 	callr	r2
 180a604:	e0bfff15 	stw	r2,-4(fp)
 180a608:	00000306 	br	180a618 <alt_get_errno+0x48>
 180a60c:	00806074 	movhi	r2,385
 180a610:	108c5104 	addi	r2,r2,12612
 180a614:	e0bfff15 	stw	r2,-4(fp)
 180a618:	e0bfff17 	ldw	r2,-4(fp)
}
 180a61c:	e037883a 	mov	sp,fp
 180a620:	dfc00117 	ldw	ra,4(sp)
 180a624:	df000017 	ldw	fp,0(sp)
 180a628:	dec00204 	addi	sp,sp,8
 180a62c:	f800283a 	ret

0180a630 <lseek>:
 * ALT_LSEEK is mapped onto the lseek() system call in alt_syscall.h
 *
 */

off_t ALT_LSEEK (int file, off_t ptr, int dir)
{
 180a630:	defff804 	addi	sp,sp,-32
 180a634:	dfc00715 	stw	ra,28(sp)
 180a638:	df000615 	stw	fp,24(sp)
 180a63c:	df000604 	addi	fp,sp,24
 180a640:	e13ffc15 	stw	r4,-16(fp)
 180a644:	e17ffd15 	stw	r5,-12(fp)
 180a648:	e1bffe15 	stw	r6,-8(fp)
  alt_fd* fd;
  off_t   rc = 0; 
 180a64c:	e03ffa15 	stw	zero,-24(fp)
   * A common error case is that when the file descriptor was created, the call
   * to open() failed resulting in a negative file descriptor. This is trapped
   * below so that we don't try and process an invalid file descriptor.
   */

  fd = (file < 0) ? NULL : &alt_fd_list[file];
 180a650:	e0bffc17 	ldw	r2,-16(fp)
 180a654:	1004803a 	cmplt	r2,r2,zero
 180a658:	1000081e 	bne	r2,zero,180a67c <lseek+0x4c>
 180a65c:	e0bffc17 	ldw	r2,-16(fp)
 180a660:	10800324 	muli	r2,r2,12
 180a664:	1007883a 	mov	r3,r2
 180a668:	00806074 	movhi	r2,385
 180a66c:	10871004 	addi	r2,r2,7232
 180a670:	1887883a 	add	r3,r3,r2
 180a674:	e0ffff15 	stw	r3,-4(fp)
 180a678:	00000106 	br	180a680 <lseek+0x50>
 180a67c:	e03fff15 	stw	zero,-4(fp)
 180a680:	e0bfff17 	ldw	r2,-4(fp)
 180a684:	e0bffb15 	stw	r2,-20(fp)
  
  if (fd) 
 180a688:	e0bffb17 	ldw	r2,-20(fp)
 180a68c:	1005003a 	cmpeq	r2,r2,zero
 180a690:	1000111e 	bne	r2,zero,180a6d8 <lseek+0xa8>
    /*
     * If the device driver provides an implementation of the lseek() function,
     * then call that to process the request.
     */
 
    if (fd->dev->lseek)
 180a694:	e0bffb17 	ldw	r2,-20(fp)
 180a698:	10800017 	ldw	r2,0(r2)
 180a69c:	10800717 	ldw	r2,28(r2)
 180a6a0:	1005003a 	cmpeq	r2,r2,zero
 180a6a4:	1000091e 	bne	r2,zero,180a6cc <lseek+0x9c>
    {
      rc = fd->dev->lseek(fd, ptr, dir);
 180a6a8:	e0bffb17 	ldw	r2,-20(fp)
 180a6ac:	10800017 	ldw	r2,0(r2)
 180a6b0:	10800717 	ldw	r2,28(r2)
 180a6b4:	e13ffb17 	ldw	r4,-20(fp)
 180a6b8:	e17ffd17 	ldw	r5,-12(fp)
 180a6bc:	e1bffe17 	ldw	r6,-8(fp)
 180a6c0:	103ee83a 	callr	r2
 180a6c4:	e0bffa15 	stw	r2,-24(fp)
 180a6c8:	00000506 	br	180a6e0 <lseek+0xb0>
     * Otherwise return an error.
     */

    else
    {
      rc = -ENOTSUP;
 180a6cc:	00bfde84 	movi	r2,-134
 180a6d0:	e0bffa15 	stw	r2,-24(fp)
 180a6d4:	00000206 	br	180a6e0 <lseek+0xb0>
    }
  }
  else  
  {
    rc = -EBADFD;
 180a6d8:	00bfebc4 	movi	r2,-81
 180a6dc:	e0bffa15 	stw	r2,-24(fp)
  }

  if (rc < 0)
 180a6e0:	e0bffa17 	ldw	r2,-24(fp)
 180a6e4:	1004403a 	cmpge	r2,r2,zero
 180a6e8:	1000071e 	bne	r2,zero,180a708 <lseek+0xd8>
  {
    ALT_ERRNO = -rc;
 180a6ec:	180a7200 	call	180a720 <alt_get_errno>
 180a6f0:	1007883a 	mov	r3,r2
 180a6f4:	e0bffa17 	ldw	r2,-24(fp)
 180a6f8:	0085c83a 	sub	r2,zero,r2
 180a6fc:	18800015 	stw	r2,0(r3)
    rc = -1;
 180a700:	00bfffc4 	movi	r2,-1
 180a704:	e0bffa15 	stw	r2,-24(fp)
  }

  return rc;
 180a708:	e0bffa17 	ldw	r2,-24(fp)
}
 180a70c:	e037883a 	mov	sp,fp
 180a710:	dfc00117 	ldw	ra,4(sp)
 180a714:	df000017 	ldw	fp,0(sp)
 180a718:	dec00204 	addi	sp,sp,8
 180a71c:	f800283a 	ret

0180a720 <alt_get_errno>:
#undef errno

extern int errno;

static ALT_INLINE int* alt_get_errno(void)
{
 180a720:	defffd04 	addi	sp,sp,-12
 180a724:	dfc00215 	stw	ra,8(sp)
 180a728:	df000115 	stw	fp,4(sp)
 180a72c:	df000104 	addi	fp,sp,4
  return ((alt_errno) ? alt_errno() : &errno);
 180a730:	00806074 	movhi	r2,385
 180a734:	108c4204 	addi	r2,r2,12552
 180a738:	10800017 	ldw	r2,0(r2)
 180a73c:	1005003a 	cmpeq	r2,r2,zero
 180a740:	1000061e 	bne	r2,zero,180a75c <alt_get_errno+0x3c>
 180a744:	00806074 	movhi	r2,385
 180a748:	108c4204 	addi	r2,r2,12552
 180a74c:	10800017 	ldw	r2,0(r2)
 180a750:	103ee83a 	callr	r2
 180a754:	e0bfff15 	stw	r2,-4(fp)
 180a758:	00000306 	br	180a768 <alt_get_errno+0x48>
 180a75c:	00806074 	movhi	r2,385
 180a760:	108c5104 	addi	r2,r2,12612
 180a764:	e0bfff15 	stw	r2,-4(fp)
 180a768:	e0bfff17 	ldw	r2,-4(fp)
}
 180a76c:	e037883a 	mov	sp,fp
 180a770:	dfc00117 	ldw	ra,4(sp)
 180a774:	df000017 	ldw	fp,0(sp)
 180a778:	dec00204 	addi	sp,sp,8
 180a77c:	f800283a 	ret

0180a780 <alt_main>:
 * devices/filesystems/components in the system; and call the entry point for
 * the users application, i.e. main().
 */

void alt_main (void)
{
 180a780:	defffd04 	addi	sp,sp,-12
 180a784:	dfc00215 	stw	ra,8(sp)
 180a788:	df000115 	stw	fp,4(sp)
 180a78c:	df000104 	addi	fp,sp,4
#endif

  /* ALT LOG - please see HAL/sys/alt_log_printf.h for details */
  ALT_LOG_PRINT_BOOT("[alt_main.c] Entering alt_main, calling alt_irq_init.\r\n");
  /* Initialize the interrupt controller. */
  alt_irq_init (NULL);
 180a790:	0009883a 	mov	r4,zero
 180a794:	180ac780 	call	180ac78 <alt_irq_init>
  ALT_LOG_PRINT_BOOT("[alt_main.c] Done OS Init, calling alt_sem_create.\r\n");
  ALT_SEM_CREATE (&alt_fd_list_lock, 1);

  /* Initialize the device drivers/software components. */
  ALT_LOG_PRINT_BOOT("[alt_main.c] Calling alt_sys_init.\r\n");
  alt_sys_init();
 180a798:	180acac0 	call	180acac <alt_sys_init>
   * devices be present (not equal to /dev/null) and if direct drivers
   * aren't being used.
   */

    ALT_LOG_PRINT_BOOT("[alt_main.c] Redirecting IO.\r\n");
    alt_io_redirect(ALT_STDOUT, ALT_STDIN, ALT_STDERR);
 180a79c:	01006074 	movhi	r4,385
 180a7a0:	21044e04 	addi	r4,r4,4408
 180a7a4:	01406074 	movhi	r5,385
 180a7a8:	29444e04 	addi	r5,r5,4408
 180a7ac:	01806074 	movhi	r6,385
 180a7b0:	31844e04 	addi	r6,r6,4408
 180a7b4:	180f8680 	call	180f868 <alt_io_redirect>
  /* 
   * Call the C++ constructors 
   */

  ALT_LOG_PRINT_BOOT("[alt_main.c] Calling C++ constructors.\r\n");
  _do_ctors ();
 180a7b8:	180f3400 	call	180f340 <_do_ctors>
   * redefined as _exit()). This is in the interest of reducing code footprint,
   * in that the atexit() overhead is removed when it's not needed.
   */

  ALT_LOG_PRINT_BOOT("[alt_main.c] Calling atexit.\r\n");
  atexit (_do_dtors);
 180a7bc:	01006074 	movhi	r4,385
 180a7c0:	213ce904 	addi	r4,r4,-3164
 180a7c4:	18109700 	call	1810970 <atexit>
  ALT_LOG_PRINT_BOOT("[alt_main.c] Calling main.\r\n");

#ifdef ALT_NO_EXIT
  main (alt_argc, alt_argv, alt_envp);
#else
  result = main (alt_argc, alt_argv, alt_envp);
 180a7c8:	d1201b17 	ldw	r4,-32660(gp)
 180a7cc:	d1601c17 	ldw	r5,-32656(gp)
 180a7d0:	d1a01d17 	ldw	r6,-32652(gp)
 180a7d4:	18000480 	call	1800048 <main>
 180a7d8:	e0bfff15 	stw	r2,-4(fp)
  close(STDOUT_FILENO);
 180a7dc:	01000044 	movi	r4,1
 180a7e0:	180a2540 	call	180a254 <close>
  exit (result);
 180a7e4:	e13fff17 	ldw	r4,-4(fp)
 180a7e8:	18109840 	call	1810984 <exit>

0180a7ec <__malloc_lock>:
 * configuration is single threaded, so there is nothing to do here. Note that 
 * this requires that malloc is never called by an interrupt service routine.
 */

void __malloc_lock ( struct _reent *_r )
{
 180a7ec:	defffe04 	addi	sp,sp,-8
 180a7f0:	df000115 	stw	fp,4(sp)
 180a7f4:	df000104 	addi	fp,sp,4
 180a7f8:	e13fff15 	stw	r4,-4(fp)
}
 180a7fc:	e037883a 	mov	sp,fp
 180a800:	df000017 	ldw	fp,0(sp)
 180a804:	dec00104 	addi	sp,sp,4
 180a808:	f800283a 	ret

0180a80c <__malloc_unlock>:
/*
 *
 */

void __malloc_unlock ( struct _reent *_r )
{
 180a80c:	defffe04 	addi	sp,sp,-8
 180a810:	df000115 	stw	fp,4(sp)
 180a814:	df000104 	addi	fp,sp,4
 180a818:	e13fff15 	stw	r4,-4(fp)
}
 180a81c:	e037883a 	mov	sp,fp
 180a820:	df000017 	ldw	fp,0(sp)
 180a824:	dec00104 	addi	sp,sp,4
 180a828:	f800283a 	ret

0180a82c <read>:
}

#else /* !ALT_USE_DIRECT_DRIVERS */

int ALT_READ (int file, void *ptr, size_t len)
{
 180a82c:	defff704 	addi	sp,sp,-36
 180a830:	dfc00815 	stw	ra,32(sp)
 180a834:	df000715 	stw	fp,28(sp)
 180a838:	df000704 	addi	fp,sp,28
 180a83c:	e13ffb15 	stw	r4,-20(fp)
 180a840:	e17ffc15 	stw	r5,-16(fp)
 180a844:	e1bffd15 	stw	r6,-12(fp)
   * A common error case is that when the file descriptor was created, the call
   * to open() failed resulting in a negative file descriptor. This is trapped
   * below so that we don't try and process an invalid file descriptor.
   */

  fd = (file < 0) ? NULL : &alt_fd_list[file];
 180a848:	e0bffb17 	ldw	r2,-20(fp)
 180a84c:	1004803a 	cmplt	r2,r2,zero
 180a850:	1000081e 	bne	r2,zero,180a874 <read+0x48>
 180a854:	e0bffb17 	ldw	r2,-20(fp)
 180a858:	10800324 	muli	r2,r2,12
 180a85c:	1007883a 	mov	r3,r2
 180a860:	00806074 	movhi	r2,385
 180a864:	10871004 	addi	r2,r2,7232
 180a868:	1887883a 	add	r3,r3,r2
 180a86c:	e0ffff15 	stw	r3,-4(fp)
 180a870:	00000106 	br	180a878 <read+0x4c>
 180a874:	e03fff15 	stw	zero,-4(fp)
 180a878:	e0bfff17 	ldw	r2,-4(fp)
 180a87c:	e0bffa15 	stw	r2,-24(fp)
  
  if (fd)
 180a880:	e0bffa17 	ldw	r2,-24(fp)
 180a884:	1005003a 	cmpeq	r2,r2,zero
 180a888:	1000241e 	bne	r2,zero,180a91c <read+0xf0>
     * If the file has not been opened with read access, or if the driver does
     * not provide an implementation of read(), generate an error. Otherwise
     * call the drivers read() function to process the request.
     */

    if (((fd->fd_flags & O_ACCMODE) != O_WRONLY) && 
 180a88c:	e0bffa17 	ldw	r2,-24(fp)
 180a890:	10800217 	ldw	r2,8(r2)
 180a894:	108000cc 	andi	r2,r2,3
 180a898:	10800060 	cmpeqi	r2,r2,1
 180a89c:	10001a1e 	bne	r2,zero,180a908 <read+0xdc>
 180a8a0:	e0bffa17 	ldw	r2,-24(fp)
 180a8a4:	10800017 	ldw	r2,0(r2)
 180a8a8:	10800517 	ldw	r2,20(r2)
 180a8ac:	1005003a 	cmpeq	r2,r2,zero
 180a8b0:	1000151e 	bne	r2,zero,180a908 <read+0xdc>
        (fd->dev->read))
      {
        if ((rval = fd->dev->read(fd, ptr, len)) < 0)
 180a8b4:	e0bffa17 	ldw	r2,-24(fp)
 180a8b8:	10800017 	ldw	r2,0(r2)
 180a8bc:	10800517 	ldw	r2,20(r2)
 180a8c0:	e17ffc17 	ldw	r5,-16(fp)
 180a8c4:	e1bffd17 	ldw	r6,-12(fp)
 180a8c8:	e13ffa17 	ldw	r4,-24(fp)
 180a8cc:	103ee83a 	callr	r2
 180a8d0:	e0bff915 	stw	r2,-28(fp)
 180a8d4:	e0bff917 	ldw	r2,-28(fp)
 180a8d8:	1004403a 	cmpge	r2,r2,zero
 180a8dc:	1000071e 	bne	r2,zero,180a8fc <read+0xd0>
        {
          ALT_ERRNO = -rval;
 180a8e0:	180a94c0 	call	180a94c <alt_get_errno>
 180a8e4:	e0fff917 	ldw	r3,-28(fp)
 180a8e8:	00c7c83a 	sub	r3,zero,r3
 180a8ec:	10c00015 	stw	r3,0(r2)
          return -1;
 180a8f0:	00bfffc4 	movi	r2,-1
 180a8f4:	e0bffe15 	stw	r2,-8(fp)
 180a8f8:	00000e06 	br	180a934 <read+0x108>
        }
        return rval;
 180a8fc:	e0bff917 	ldw	r2,-28(fp)
 180a900:	e0bffe15 	stw	r2,-8(fp)
 180a904:	00000b06 	br	180a934 <read+0x108>
      }
      else
      {
        ALT_ERRNO = EACCES;
 180a908:	180a94c0 	call	180a94c <alt_get_errno>
 180a90c:	1007883a 	mov	r3,r2
 180a910:	00800344 	movi	r2,13
 180a914:	18800015 	stw	r2,0(r3)
 180a918:	00000406 	br	180a92c <read+0x100>
      }
    }
  else
  {
    ALT_ERRNO = EBADFD;
 180a91c:	180a94c0 	call	180a94c <alt_get_errno>
 180a920:	1007883a 	mov	r3,r2
 180a924:	00801444 	movi	r2,81
 180a928:	18800015 	stw	r2,0(r3)
  }
  return -1;
 180a92c:	00bfffc4 	movi	r2,-1
 180a930:	e0bffe15 	stw	r2,-8(fp)
 180a934:	e0bffe17 	ldw	r2,-8(fp)
}
 180a938:	e037883a 	mov	sp,fp
 180a93c:	dfc00117 	ldw	ra,4(sp)
 180a940:	df000017 	ldw	fp,0(sp)
 180a944:	dec00204 	addi	sp,sp,8
 180a948:	f800283a 	ret

0180a94c <alt_get_errno>:
#undef errno

extern int errno;

static ALT_INLINE int* alt_get_errno(void)
{
 180a94c:	defffd04 	addi	sp,sp,-12
 180a950:	dfc00215 	stw	ra,8(sp)
 180a954:	df000115 	stw	fp,4(sp)
 180a958:	df000104 	addi	fp,sp,4
  return ((alt_errno) ? alt_errno() : &errno);
 180a95c:	00806074 	movhi	r2,385
 180a960:	108c4204 	addi	r2,r2,12552
 180a964:	10800017 	ldw	r2,0(r2)
 180a968:	1005003a 	cmpeq	r2,r2,zero
 180a96c:	1000061e 	bne	r2,zero,180a988 <alt_get_errno+0x3c>
 180a970:	00806074 	movhi	r2,385
 180a974:	108c4204 	addi	r2,r2,12552
 180a978:	10800017 	ldw	r2,0(r2)
 180a97c:	103ee83a 	callr	r2
 180a980:	e0bfff15 	stw	r2,-4(fp)
 180a984:	00000306 	br	180a994 <alt_get_errno+0x48>
 180a988:	00806074 	movhi	r2,385
 180a98c:	108c5104 	addi	r2,r2,12612
 180a990:	e0bfff15 	stw	r2,-4(fp)
 180a994:	e0bfff17 	ldw	r2,-4(fp)
}
 180a998:	e037883a 	mov	sp,fp
 180a99c:	dfc00117 	ldw	ra,4(sp)
 180a9a0:	df000017 	ldw	fp,0(sp)
 180a9a4:	dec00204 	addi	sp,sp,8
 180a9a8:	f800283a 	ret

0180a9ac <alt_release_fd>:
 * File descriptors correcponding to standard in, standard out and standard 
 * error cannont be released backed to the pool. They are always reserved.
 */

void alt_release_fd (int fd)
{
 180a9ac:	defffe04 	addi	sp,sp,-8
 180a9b0:	df000115 	stw	fp,4(sp)
 180a9b4:	df000104 	addi	fp,sp,4
 180a9b8:	e13fff15 	stw	r4,-4(fp)
  if (fd > 2)
 180a9bc:	e0bfff17 	ldw	r2,-4(fp)
 180a9c0:	108000d0 	cmplti	r2,r2,3
 180a9c4:	10000d1e 	bne	r2,zero,180a9fc <alt_release_fd+0x50>
  {
    alt_fd_list[fd].fd_flags = 0;
 180a9c8:	e0bfff17 	ldw	r2,-4(fp)
 180a9cc:	00c06074 	movhi	r3,385
 180a9d0:	18c71004 	addi	r3,r3,7232
 180a9d4:	10800324 	muli	r2,r2,12
 180a9d8:	10c5883a 	add	r2,r2,r3
 180a9dc:	10800204 	addi	r2,r2,8
 180a9e0:	10000015 	stw	zero,0(r2)
    alt_fd_list[fd].dev      = 0;
 180a9e4:	e0bfff17 	ldw	r2,-4(fp)
 180a9e8:	00c06074 	movhi	r3,385
 180a9ec:	18c71004 	addi	r3,r3,7232
 180a9f0:	10800324 	muli	r2,r2,12
 180a9f4:	10c5883a 	add	r2,r2,r3
 180a9f8:	10000015 	stw	zero,0(r2)
  }
}
 180a9fc:	e037883a 	mov	sp,fp
 180aa00:	df000017 	ldw	fp,0(sp)
 180aa04:	dec00104 	addi	sp,sp,4
 180aa08:	f800283a 	ret

0180aa0c <sbrk>:
#endif
 
caddr_t ALT_SBRK (int incr) __attribute__ ((no_instrument_function ));

caddr_t ALT_SBRK (int incr)
{ 
 180aa0c:	defff804 	addi	sp,sp,-32
 180aa10:	df000715 	stw	fp,28(sp)
 180aa14:	df000704 	addi	fp,sp,28
 180aa18:	e13ffe15 	stw	r4,-8(fp)
static ALT_INLINE alt_irq_context ALT_ALWAYS_INLINE 
       alt_irq_disable_all (void)
{
  alt_irq_context context;

  NIOS2_READ_STATUS (context);
 180aa1c:	0005303a 	rdctl	r2,status
 180aa20:	e0bffb15 	stw	r2,-20(fp)

  NIOS2_WRITE_STATUS (context & ~NIOS2_STATUS_PIE_MSK);
 180aa24:	e0fffb17 	ldw	r3,-20(fp)
 180aa28:	00bfff84 	movi	r2,-2
 180aa2c:	1884703a 	and	r2,r3,r2
 180aa30:	1001703a 	wrctl	status,r2
  
  return context;
 180aa34:	e0bffb17 	ldw	r2,-20(fp)
  alt_irq_context context;
  char *prev_heap_end; 

  context = alt_irq_disable_all();
 180aa38:	e0bffd15 	stw	r2,-12(fp)

  /* Always return data aligned on a word boundary */
  heap_end = (char *)(((unsigned int)heap_end + 3) & ~3);
 180aa3c:	d0a00c17 	ldw	r2,-32720(gp)
 180aa40:	10c000c4 	addi	r3,r2,3
 180aa44:	00bfff04 	movi	r2,-4
 180aa48:	1884703a 	and	r2,r3,r2
 180aa4c:	d0a00c15 	stw	r2,-32720(gp)
  if (((heap_end + incr) - __alt_heap_start) > ALT_MAX_HEAP_BYTES) {
    alt_irq_enable_all(context);
    return (caddr_t)-1;
  }
#else
  if ((heap_end + incr) > __alt_heap_limit) {
 180aa50:	d0e00c17 	ldw	r3,-32720(gp)
 180aa54:	e0bffe17 	ldw	r2,-8(fp)
 180aa58:	1887883a 	add	r3,r3,r2
 180aa5c:	00808034 	movhi	r2,512
 180aa60:	10800004 	addi	r2,r2,0
 180aa64:	10c0072e 	bgeu	r2,r3,180aa84 <sbrk+0x78>
 180aa68:	e0bffd17 	ldw	r2,-12(fp)
 180aa6c:	e0bffa15 	stw	r2,-24(fp)
  status &= ~NIOS2_STATUS_PIE_MSK;
  status |= (context & NIOS2_STATUS_PIE_MSK);
  
  NIOS2_WRITE_STATUS (status);
#else
  NIOS2_WRITE_STATUS (context);
 180aa70:	e0bffa17 	ldw	r2,-24(fp)
 180aa74:	1001703a 	wrctl	status,r2
    alt_irq_enable_all(context);
    return (caddr_t)-1;
 180aa78:	00bfffc4 	movi	r2,-1
 180aa7c:	e0bfff15 	stw	r2,-4(fp)
 180aa80:	00000c06 	br	180aab4 <sbrk+0xa8>
  }
#endif

  prev_heap_end = heap_end; 
 180aa84:	d0a00c17 	ldw	r2,-32720(gp)
 180aa88:	e0bffc15 	stw	r2,-16(fp)
  heap_end += incr; 
 180aa8c:	d0e00c17 	ldw	r3,-32720(gp)
 180aa90:	e0bffe17 	ldw	r2,-8(fp)
 180aa94:	1885883a 	add	r2,r3,r2
 180aa98:	d0a00c15 	stw	r2,-32720(gp)
 180aa9c:	e0bffd17 	ldw	r2,-12(fp)
 180aaa0:	e0bff915 	stw	r2,-28(fp)
 180aaa4:	e0bff917 	ldw	r2,-28(fp)
 180aaa8:	1001703a 	wrctl	status,r2

#endif

  alt_irq_enable_all(context);

  return (caddr_t) prev_heap_end; 
 180aaac:	e0bffc17 	ldw	r2,-16(fp)
 180aab0:	e0bfff15 	stw	r2,-4(fp)
 180aab4:	e0bfff17 	ldw	r2,-4(fp)
} 
 180aab8:	e037883a 	mov	sp,fp
 180aabc:	df000017 	ldw	fp,0(sp)
 180aac0:	dec00104 	addi	sp,sp,4
 180aac4:	f800283a 	ret

0180aac8 <usleep>:
#if defined (__GNUC__) && __GNUC__ >= 4
int ALT_USLEEP (useconds_t us)
#else
unsigned int ALT_USLEEP (unsigned int us)
#endif
{
 180aac8:	defffd04 	addi	sp,sp,-12
 180aacc:	dfc00215 	stw	ra,8(sp)
 180aad0:	df000115 	stw	fp,4(sp)
 180aad4:	df000104 	addi	fp,sp,4
 180aad8:	e13fff15 	stw	r4,-4(fp)
  return alt_busy_sleep(us);
 180aadc:	e13fff17 	ldw	r4,-4(fp)
 180aae0:	180f0880 	call	180f088 <alt_busy_sleep>
}
 180aae4:	e037883a 	mov	sp,fp
 180aae8:	dfc00117 	ldw	ra,4(sp)
 180aaec:	df000017 	ldw	fp,0(sp)
 180aaf0:	dec00204 	addi	sp,sp,8
 180aaf4:	f800283a 	ret

0180aaf8 <write>:
}

#else /* !ALT_USE_DIRECT_DRIVERS */

int ALT_WRITE (int file, const void *ptr, size_t len)
{
 180aaf8:	defff704 	addi	sp,sp,-36
 180aafc:	dfc00815 	stw	ra,32(sp)
 180ab00:	df000715 	stw	fp,28(sp)
 180ab04:	df000704 	addi	fp,sp,28
 180ab08:	e13ffb15 	stw	r4,-20(fp)
 180ab0c:	e17ffc15 	stw	r5,-16(fp)
 180ab10:	e1bffd15 	stw	r6,-12(fp)
   * A common error case is that when the file descriptor was created, the call
   * to open() failed resulting in a negative file descriptor. This is trapped
   * below so that we don't try and process an invalid file descriptor.
   */

  fd = (file < 0) ? NULL : &alt_fd_list[file];
 180ab14:	e0bffb17 	ldw	r2,-20(fp)
 180ab18:	1004803a 	cmplt	r2,r2,zero
 180ab1c:	1000081e 	bne	r2,zero,180ab40 <write+0x48>
 180ab20:	e0bffb17 	ldw	r2,-20(fp)
 180ab24:	10800324 	muli	r2,r2,12
 180ab28:	1007883a 	mov	r3,r2
 180ab2c:	00806074 	movhi	r2,385
 180ab30:	10871004 	addi	r2,r2,7232
 180ab34:	1887883a 	add	r3,r3,r2
 180ab38:	e0ffff15 	stw	r3,-4(fp)
 180ab3c:	00000106 	br	180ab44 <write+0x4c>
 180ab40:	e03fff15 	stw	zero,-4(fp)
 180ab44:	e0bfff17 	ldw	r2,-4(fp)
 180ab48:	e0bffa15 	stw	r2,-24(fp)
  
  if (fd)
 180ab4c:	e0bffa17 	ldw	r2,-24(fp)
 180ab50:	1005003a 	cmpeq	r2,r2,zero
 180ab54:	1000241e 	bne	r2,zero,180abe8 <write+0xf0>
     * If the file has not been opened with write access, or if the driver does
     * not provide an implementation of write(), generate an error. Otherwise
     * call the drivers write() function to process the request.
     */

    if (((fd->fd_flags & O_ACCMODE) != O_RDONLY) && fd->dev->write)
 180ab58:	e0bffa17 	ldw	r2,-24(fp)
 180ab5c:	10800217 	ldw	r2,8(r2)
 180ab60:	108000cc 	andi	r2,r2,3
 180ab64:	1005003a 	cmpeq	r2,r2,zero
 180ab68:	10001a1e 	bne	r2,zero,180abd4 <write+0xdc>
 180ab6c:	e0bffa17 	ldw	r2,-24(fp)
 180ab70:	10800017 	ldw	r2,0(r2)
 180ab74:	10800617 	ldw	r2,24(r2)
 180ab78:	1005003a 	cmpeq	r2,r2,zero
 180ab7c:	1000151e 	bne	r2,zero,180abd4 <write+0xdc>
    {
      
      /* ALT_LOG - see altera_hal/HAL/inc/sys/alt_log_printf.h */
      ALT_LOG_WRITE_FUNCTION(ptr,len);

      if ((rval = fd->dev->write(fd, ptr, len)) < 0)
 180ab80:	e0bffa17 	ldw	r2,-24(fp)
 180ab84:	10800017 	ldw	r2,0(r2)
 180ab88:	10800617 	ldw	r2,24(r2)
 180ab8c:	e17ffc17 	ldw	r5,-16(fp)
 180ab90:	e1bffd17 	ldw	r6,-12(fp)
 180ab94:	e13ffa17 	ldw	r4,-24(fp)
 180ab98:	103ee83a 	callr	r2
 180ab9c:	e0bff915 	stw	r2,-28(fp)
 180aba0:	e0bff917 	ldw	r2,-28(fp)
 180aba4:	1004403a 	cmpge	r2,r2,zero
 180aba8:	1000071e 	bne	r2,zero,180abc8 <write+0xd0>
      {
        ALT_ERRNO = -rval;
 180abac:	180ac180 	call	180ac18 <alt_get_errno>
 180abb0:	e0fff917 	ldw	r3,-28(fp)
 180abb4:	00c7c83a 	sub	r3,zero,r3
 180abb8:	10c00015 	stw	r3,0(r2)
        return -1;
 180abbc:	00bfffc4 	movi	r2,-1
 180abc0:	e0bffe15 	stw	r2,-8(fp)
 180abc4:	00000e06 	br	180ac00 <write+0x108>
      }
      return rval;
 180abc8:	e0bff917 	ldw	r2,-28(fp)
 180abcc:	e0bffe15 	stw	r2,-8(fp)
 180abd0:	00000b06 	br	180ac00 <write+0x108>
    }
    else
    {
      ALT_ERRNO = EACCES;
 180abd4:	180ac180 	call	180ac18 <alt_get_errno>
 180abd8:	1007883a 	mov	r3,r2
 180abdc:	00800344 	movi	r2,13
 180abe0:	18800015 	stw	r2,0(r3)
 180abe4:	00000406 	br	180abf8 <write+0x100>
    }
  }
  else  
  {
    ALT_ERRNO = EBADFD;
 180abe8:	180ac180 	call	180ac18 <alt_get_errno>
 180abec:	1007883a 	mov	r3,r2
 180abf0:	00801444 	movi	r2,81
 180abf4:	18800015 	stw	r2,0(r3)
  }
  return -1;
 180abf8:	00bfffc4 	movi	r2,-1
 180abfc:	e0bffe15 	stw	r2,-8(fp)
 180ac00:	e0bffe17 	ldw	r2,-8(fp)
}
 180ac04:	e037883a 	mov	sp,fp
 180ac08:	dfc00117 	ldw	ra,4(sp)
 180ac0c:	df000017 	ldw	fp,0(sp)
 180ac10:	dec00204 	addi	sp,sp,8
 180ac14:	f800283a 	ret

0180ac18 <alt_get_errno>:
#undef errno

extern int errno;

static ALT_INLINE int* alt_get_errno(void)
{
 180ac18:	defffd04 	addi	sp,sp,-12
 180ac1c:	dfc00215 	stw	ra,8(sp)
 180ac20:	df000115 	stw	fp,4(sp)
 180ac24:	df000104 	addi	fp,sp,4
  return ((alt_errno) ? alt_errno() : &errno);
 180ac28:	00806074 	movhi	r2,385
 180ac2c:	108c4204 	addi	r2,r2,12552
 180ac30:	10800017 	ldw	r2,0(r2)
 180ac34:	1005003a 	cmpeq	r2,r2,zero
 180ac38:	1000061e 	bne	r2,zero,180ac54 <alt_get_errno+0x3c>
 180ac3c:	00806074 	movhi	r2,385
 180ac40:	108c4204 	addi	r2,r2,12552
 180ac44:	10800017 	ldw	r2,0(r2)
 180ac48:	103ee83a 	callr	r2
 180ac4c:	e0bfff15 	stw	r2,-4(fp)
 180ac50:	00000306 	br	180ac60 <alt_get_errno+0x48>
 180ac54:	00806074 	movhi	r2,385
 180ac58:	108c5104 	addi	r2,r2,12612
 180ac5c:	e0bfff15 	stw	r2,-4(fp)
 180ac60:	e0bfff17 	ldw	r2,-4(fp)
}
 180ac64:	e037883a 	mov	sp,fp
 180ac68:	dfc00117 	ldw	ra,4(sp)
 180ac6c:	df000017 	ldw	fp,0(sp)
 180ac70:	dec00204 	addi	sp,sp,8
 180ac74:	f800283a 	ret

0180ac78 <alt_irq_init>:
 * The "base" parameter is ignored and only
 * present for backwards-compatibility.
 */

void alt_irq_init ( const void* base )
{
 180ac78:	defffd04 	addi	sp,sp,-12
 180ac7c:	dfc00215 	stw	ra,8(sp)
 180ac80:	df000115 	stw	fp,4(sp)
 180ac84:	df000104 	addi	fp,sp,4
 180ac88:	e13fff15 	stw	r4,-4(fp)
    ALTERA_NIOS2_IRQ_INIT ( CPU, cpu);
 180ac8c:	180fd480 	call	180fd48 <altera_nios2_irq_init>
 * alt_irq_cpu_enable_interrupts() enables the CPU to start taking interrupts.
 */
static ALT_INLINE void ALT_ALWAYS_INLINE 
       alt_irq_cpu_enable_interrupts ()
{
    NIOS2_WRITE_STATUS(NIOS2_STATUS_PIE_MSK
 180ac90:	00800044 	movi	r2,1
 180ac94:	1001703a 	wrctl	status,r2
    alt_irq_cpu_enable_interrupts();
}
 180ac98:	e037883a 	mov	sp,fp
 180ac9c:	dfc00117 	ldw	ra,4(sp)
 180aca0:	df000017 	ldw	fp,0(sp)
 180aca4:	dec00204 	addi	sp,sp,8
 180aca8:	f800283a 	ret

0180acac <alt_sys_init>:
 * Initialize the non-interrupt controller devices.
 * Called after alt_irq_init().
 */

void alt_sys_init( void )
{
 180acac:	defffe04 	addi	sp,sp,-8
 180acb0:	dfc00115 	stw	ra,4(sp)
 180acb4:	df000015 	stw	fp,0(sp)
 180acb8:	d839883a 	mov	fp,sp
    ALTERA_AVALON_TIMER_INIT ( PROFILE_TIMER, profile_timer);
 180acbc:	0009883a 	mov	r4,zero
 180acc0:	000b883a 	mov	r5,zero
 180acc4:	01800144 	movi	r6,5
 180acc8:	01d38804 	movi	r7,20000
 180accc:	180e4f40 	call	180e4f4 <alt_avalon_timer_sc_init>
    ALTERA_AVALON_TIMER_INIT ( TIMER, timer);
    ALTERA_AVALON_TIMER_INIT ( USER_TIMER, user_timer);
    ALTERA_AVALON_CFI_FLASH_INIT ( CFI_FLASH, cfi_flash);
 180acd0:	01006074 	movhi	r4,385
 180acd4:	21077004 	addi	r4,r4,7616
 180acd8:	180ad800 	call	180ad80 <alt_flash_cfi_init>
    ALTERA_AVALON_JTAG_UART_INIT ( JTAG_UART, jtag_uart);
 180acdc:	01006074 	movhi	r4,385
 180ace0:	2107b004 	addi	r4,r4,7872
 180ace4:	000b883a 	mov	r5,zero
 180ace8:	000d883a 	mov	r6,zero
 180acec:	180cbe80 	call	180cbe8 <altera_avalon_jtag_uart_init>
 180acf0:	01006074 	movhi	r4,385
 180acf4:	2107a604 	addi	r4,r4,7832
 180acf8:	180ad480 	call	180ad48 <alt_dev_reg>
    ALTERA_AVALON_LCD_16207_INIT ( LCD, lcd);
 180acfc:	01006074 	movhi	r4,385
 180ad00:	210bc804 	addi	r4,r4,12064
 180ad04:	180e2f00 	call	180e2f0 <altera_avalon_lcd_16207_init>
 180ad08:	01006074 	movhi	r4,385
 180ad0c:	210bbe04 	addi	r4,r4,12024
 180ad10:	180ad480 	call	180ad48 <alt_dev_reg>
    ALTERA_AVALON_SYSID_INIT ( SYSID, sysid);
    ALTERA_AVALON_UART_INIT ( UART, uart);
 180ad14:	01006074 	movhi	r4,385
 180ad18:	210c1004 	addi	r4,r4,12352
 180ad1c:	000b883a 	mov	r5,zero
 180ad20:	01800044 	movi	r6,1
 180ad24:	180e67c0 	call	180e67c <altera_avalon_uart_init>
 180ad28:	01006074 	movhi	r4,385
 180ad2c:	210c0604 	addi	r4,r4,12312
 180ad30:	180ad480 	call	180ad48 <alt_dev_reg>
}
 180ad34:	e037883a 	mov	sp,fp
 180ad38:	dfc00117 	ldw	ra,4(sp)
 180ad3c:	df000017 	ldw	fp,0(sp)
 180ad40:	dec00204 	addi	sp,sp,8
 180ad44:	f800283a 	ret

0180ad48 <alt_dev_reg>:
 */

extern int alt_fs_reg  (alt_dev* dev); 

static ALT_INLINE int alt_dev_reg (alt_dev* dev)
{
 180ad48:	defffd04 	addi	sp,sp,-12
 180ad4c:	dfc00215 	stw	ra,8(sp)
 180ad50:	df000115 	stw	fp,4(sp)
 180ad54:	df000104 	addi	fp,sp,4
 180ad58:	e13fff15 	stw	r4,-4(fp)
  extern alt_llist alt_dev_list;

  return alt_dev_llist_insert ((alt_dev_llist*) dev, &alt_dev_list);
 180ad5c:	e13fff17 	ldw	r4,-4(fp)
 180ad60:	01406074 	movhi	r5,385
 180ad64:	294c3f04 	addi	r5,r5,12540
 180ad68:	180f22c0 	call	180f22c <alt_dev_llist_insert>
}
 180ad6c:	e037883a 	mov	sp,fp
 180ad70:	dfc00117 	ldw	ra,4(sp)
 180ad74:	df000017 	ldw	fp,0(sp)
 180ad78:	dec00204 	addi	sp,sp,8
 180ad7c:	f800283a 	ret

0180ad80 <alt_flash_cfi_init>:
 * Read the CFI table and fill out the alt_flash_cfi_dev structure with all the 
 * information we need to program the flash.
 * 
 */
int alt_flash_cfi_init( alt_flash_cfi_dev* flash  )
{
 180ad80:	defffc04 	addi	sp,sp,-16
 180ad84:	dfc00315 	stw	ra,12(sp)
 180ad88:	df000215 	stw	fp,8(sp)
 180ad8c:	df000204 	addi	fp,sp,8
 180ad90:	e13fff15 	stw	r4,-4(fp)
  int ret_code = 0;
 180ad94:	e03ffe15 	stw	zero,-8(fp)
 
  ret_code = alt_read_cfi_width( flash );
 180ad98:	e13fff17 	ldw	r4,-4(fp)
 180ad9c:	180c2180 	call	180c218 <alt_read_cfi_width>
 180ada0:	e0bffe15 	stw	r2,-8(fp)
  
  if (!ret_code)
 180ada4:	e0bffe17 	ldw	r2,-8(fp)
 180ada8:	1004c03a 	cmpne	r2,r2,zero
 180adac:	1000031e 	bne	r2,zero,180adbc <alt_flash_cfi_init+0x3c>
    ret_code = alt_set_flash_width_func( flash );
 180adb0:	e13fff17 	ldw	r4,-4(fp)
 180adb4:	180b9900 	call	180b990 <alt_set_flash_width_func>
 180adb8:	e0bffe15 	stw	r2,-8(fp)
  
  if (!ret_code)
 180adbc:	e0bffe17 	ldw	r2,-8(fp)
 180adc0:	1004c03a 	cmpne	r2,r2,zero
 180adc4:	1000031e 	bne	r2,zero,180add4 <alt_flash_cfi_init+0x54>
    ret_code = alt_read_cfi_table( flash );
 180adc8:	e13fff17 	ldw	r4,-4(fp)
 180adcc:	180bc980 	call	180bc98 <alt_read_cfi_table>
 180add0:	e0bffe15 	stw	r2,-8(fp)

  if (!ret_code) 
 180add4:	e0bffe17 	ldw	r2,-8(fp)
 180add8:	1004c03a 	cmpne	r2,r2,zero
 180addc:	1000031e 	bne	r2,zero,180adec <alt_flash_cfi_init+0x6c>
    ret_code = alt_set_flash_algorithm_func( flash);
 180ade0:	e13fff17 	ldw	r4,-4(fp)
 180ade4:	180bb700 	call	180bb70 <alt_set_flash_algorithm_func>
 180ade8:	e0bffe15 	stw	r2,-8(fp)

  /*
  *  Register this device as a valid flash device type
  */ 
  if (!ret_code)
 180adec:	e0bffe17 	ldw	r2,-8(fp)
 180adf0:	1004c03a 	cmpne	r2,r2,zero
 180adf4:	1000031e 	bne	r2,zero,180ae04 <alt_flash_cfi_init+0x84>
    ret_code = alt_flash_device_register(&(flash->dev));
 180adf8:	e13fff17 	ldw	r4,-4(fp)
 180adfc:	180ae1c0 	call	180ae1c <alt_flash_device_register>
 180ae00:	e0bffe15 	stw	r2,-8(fp)
 
  return ret_code;
 180ae04:	e0bffe17 	ldw	r2,-8(fp)
}
 180ae08:	e037883a 	mov	sp,fp
 180ae0c:	dfc00117 	ldw	ra,4(sp)
 180ae10:	df000017 	ldw	fp,0(sp)
 180ae14:	dec00204 	addi	sp,sp,8
 180ae18:	f800283a 	ret

0180ae1c <alt_flash_device_register>:

typedef struct alt_flash_dev alt_flash_dev; 
typedef alt_flash_dev alt_flash_fd;

static ALT_INLINE int alt_flash_device_register( alt_flash_fd* fd)
{
 180ae1c:	defffd04 	addi	sp,sp,-12
 180ae20:	dfc00215 	stw	ra,8(sp)
 180ae24:	df000115 	stw	fp,4(sp)
 180ae28:	df000104 	addi	fp,sp,4
 180ae2c:	e13fff15 	stw	r4,-4(fp)
  extern alt_llist alt_flash_dev_list;

  return alt_dev_llist_insert ((alt_dev_llist*) fd, &alt_flash_dev_list);
 180ae30:	e13fff17 	ldw	r4,-4(fp)
 180ae34:	01406074 	movhi	r5,385
 180ae38:	294c4504 	addi	r5,r5,12564
 180ae3c:	180f22c0 	call	180f22c <alt_dev_llist_insert>
}
 180ae40:	e037883a 	mov	sp,fp
 180ae44:	dfc00117 	ldw	ra,4(sp)
 180ae48:	df000017 	ldw	fp,0(sp)
 180ae4c:	dec00204 	addi	sp,sp,8
 180ae50:	f800283a 	ret

0180ae54 <alt_flash_cfi_write>:
 * large buffer to tie up in our programming library, when not all users will 
 * want that functionality.
 */
 int alt_flash_cfi_write( alt_flash_dev* flash_info, int offset, 
                          const void* src_addr, int length )
 {
 180ae54:	deffef04 	addi	sp,sp,-68
 180ae58:	dfc01015 	stw	ra,64(sp)
 180ae5c:	df000f15 	stw	fp,60(sp)
 180ae60:	df000f04 	addi	fp,sp,60
 180ae64:	e13ffa15 	stw	r4,-24(fp)
 180ae68:	e17ffb15 	stw	r5,-20(fp)
 180ae6c:	e1bffc15 	stw	r6,-16(fp)
 180ae70:	e1fffd15 	stw	r7,-12(fp)
  int         ret_code = 0;
 180ae74:	e03ff915 	stw	zero,-28(fp)
  int         i,j;
  int         data_to_write;
  int         full_length = length;
 180ae78:	e0bffd17 	ldw	r2,-12(fp)
 180ae7c:	e0bff515 	stw	r2,-44(fp)
  int         current_offset;
  int         start_offset = offset;
 180ae80:	e0bffb17 	ldw	r2,-20(fp)
 180ae84:	e0bff315 	stw	r2,-52(fp)
  alt_flash_cfi_dev* flash = (alt_flash_cfi_dev*)flash_info;
 180ae88:	e0bffa17 	ldw	r2,-24(fp)
 180ae8c:	e0bff215 	stw	r2,-56(fp)

  /*
   * First and foremost which sectors are affected?
   */   
  for(i=0;i<flash->dev.number_of_regions;i++)
 180ae90:	e03ff815 	stw	zero,-32(fp)
 180ae94:	00008e06 	br	180b0d0 <alt_flash_cfi_write+0x27c>
  {
    /* Is it in this erase block region?*/
    if((offset >= flash->dev.region_info[i].offset) &&
 180ae98:	e0bff817 	ldw	r2,-32(fp)
 180ae9c:	e0fff217 	ldw	r3,-56(fp)
 180aea0:	1004913a 	slli	r2,r2,4
 180aea4:	10c5883a 	add	r2,r2,r3
 180aea8:	10800d04 	addi	r2,r2,52
 180aeac:	10c00017 	ldw	r3,0(r2)
 180aeb0:	e0bffb17 	ldw	r2,-20(fp)
 180aeb4:	10c08316 	blt	r2,r3,180b0c4 <alt_flash_cfi_write+0x270>
 180aeb8:	e0bff817 	ldw	r2,-32(fp)
 180aebc:	e0fff217 	ldw	r3,-56(fp)
 180aec0:	1004913a 	slli	r2,r2,4
 180aec4:	10c5883a 	add	r2,r2,r3
 180aec8:	10800d04 	addi	r2,r2,52
 180aecc:	11000017 	ldw	r4,0(r2)
 180aed0:	e0bff817 	ldw	r2,-32(fp)
 180aed4:	e0fff217 	ldw	r3,-56(fp)
 180aed8:	1004913a 	slli	r2,r2,4
 180aedc:	10c5883a 	add	r2,r2,r3
 180aee0:	10800e04 	addi	r2,r2,56
 180aee4:	10800017 	ldw	r2,0(r2)
 180aee8:	2087883a 	add	r3,r4,r2
 180aeec:	e0bffb17 	ldw	r2,-20(fp)
 180aef0:	10c0740e 	bge	r2,r3,180b0c4 <alt_flash_cfi_write+0x270>
      (offset < (flash->dev.region_info[i].offset + 
      flash->dev.region_info[i].region_size)))
    {
      current_offset = flash->dev.region_info[i].offset;
 180aef4:	e0bff817 	ldw	r2,-32(fp)
 180aef8:	e0fff217 	ldw	r3,-56(fp)
 180aefc:	1004913a 	slli	r2,r2,4
 180af00:	10c5883a 	add	r2,r2,r3
 180af04:	10800d04 	addi	r2,r2,52
 180af08:	10800017 	ldw	r2,0(r2)
 180af0c:	e0bff415 	stw	r2,-48(fp)

      for(j=0;j<flash->dev.region_info[i].number_of_blocks;j++)
 180af10:	e03ff715 	stw	zero,-36(fp)
 180af14:	00006306 	br	180b0a4 <alt_flash_cfi_write+0x250>
      {
        if ((offset >= current_offset ) && 
 180af18:	e0fffb17 	ldw	r3,-20(fp)
 180af1c:	e0bff417 	ldw	r2,-48(fp)
 180af20:	18805416 	blt	r3,r2,180b074 <alt_flash_cfi_write+0x220>
 180af24:	e0bff817 	ldw	r2,-32(fp)
 180af28:	e0fff217 	ldw	r3,-56(fp)
 180af2c:	1004913a 	slli	r2,r2,4
 180af30:	10c5883a 	add	r2,r2,r3
 180af34:	10801004 	addi	r2,r2,64
 180af38:	10c00017 	ldw	r3,0(r2)
 180af3c:	e0bff417 	ldw	r2,-48(fp)
 180af40:	1887883a 	add	r3,r3,r2
 180af44:	e0bffb17 	ldw	r2,-20(fp)
 180af48:	10c04a0e 	bge	r2,r3,180b074 <alt_flash_cfi_write+0x220>
        {
          /*
           * Check if the contents of the block are different
           * from the data we wish to put there
           */
          data_to_write = ( current_offset + flash->dev.region_info[i].block_size 
 180af4c:	e0bff817 	ldw	r2,-32(fp)
 180af50:	e0fff217 	ldw	r3,-56(fp)
 180af54:	1004913a 	slli	r2,r2,4
 180af58:	10c5883a 	add	r2,r2,r3
 180af5c:	10801004 	addi	r2,r2,64
 180af60:	10c00017 	ldw	r3,0(r2)
 180af64:	e0bff417 	ldw	r2,-48(fp)
 180af68:	1887883a 	add	r3,r3,r2
 180af6c:	e0bffb17 	ldw	r2,-20(fp)
 180af70:	1885c83a 	sub	r2,r3,r2
 180af74:	e0bff615 	stw	r2,-40(fp)
                            - offset); 
          data_to_write = MIN(data_to_write, length);
 180af78:	e0bff617 	ldw	r2,-40(fp)
 180af7c:	e0bfff15 	stw	r2,-4(fp)
 180af80:	e0fffd17 	ldw	r3,-12(fp)
 180af84:	e0fffe15 	stw	r3,-8(fp)
 180af88:	e0bfff17 	ldw	r2,-4(fp)
 180af8c:	e0fffe17 	ldw	r3,-8(fp)
 180af90:	10c0020e 	bge	r2,r3,180af9c <alt_flash_cfi_write+0x148>
 180af94:	e0bfff17 	ldw	r2,-4(fp)
 180af98:	e0bffe15 	stw	r2,-8(fp)
 180af9c:	e0fffe17 	ldw	r3,-8(fp)
 180afa0:	e0fff615 	stw	r3,-40(fp)
          if(memcmp(src_addr, 
 180afa4:	e0bff217 	ldw	r2,-56(fp)
 180afa8:	10800a17 	ldw	r2,40(r2)
 180afac:	1007883a 	mov	r3,r2
 180afb0:	e0bffb17 	ldw	r2,-20(fp)
 180afb4:	188b883a 	add	r5,r3,r2
 180afb8:	e1bff617 	ldw	r6,-40(fp)
 180afbc:	e13ffc17 	ldw	r4,-16(fp)
 180afc0:	18109bc0 	call	18109bc <memcmp>
 180afc4:	1005003a 	cmpeq	r2,r2,zero
 180afc8:	1000131e 	bne	r2,zero,180b018 <alt_flash_cfi_write+0x1c4>
                    (alt_u8*)flash->dev.base_addr+offset,
                    data_to_write))
          {
            ret_code = (*flash->dev.erase_block)( &flash->dev, current_offset);
 180afcc:	e0bff217 	ldw	r2,-56(fp)
 180afd0:	10800817 	ldw	r2,32(r2)
 180afd4:	e13ff217 	ldw	r4,-56(fp)
 180afd8:	e17ff417 	ldw	r5,-48(fp)
 180afdc:	103ee83a 	callr	r2
 180afe0:	e0bff915 	stw	r2,-28(fp)

            if (!ret_code)
 180afe4:	e0bff917 	ldw	r2,-28(fp)
 180afe8:	1004c03a 	cmpne	r2,r2,zero
 180afec:	10000a1e 	bne	r2,zero,180b018 <alt_flash_cfi_write+0x1c4>
            {
              ret_code = (*flash->dev.write_block)( 
 180aff0:	e0bff217 	ldw	r2,-56(fp)
 180aff4:	10c00917 	ldw	r3,36(r2)
 180aff8:	e13ff217 	ldw	r4,-56(fp)
 180affc:	e0bff617 	ldw	r2,-40(fp)
 180b000:	d8800015 	stw	r2,0(sp)
 180b004:	e17ff417 	ldw	r5,-48(fp)
 180b008:	e1bffb17 	ldw	r6,-20(fp)
 180b00c:	e1fffc17 	ldw	r7,-16(fp)
 180b010:	183ee83a 	callr	r3
 180b014:	e0bff915 	stw	r2,-28(fp)
                                                  data_to_write);
            }
          }    
    
          /* Was this the last block? */    
          if ((length == data_to_write) || ret_code)
 180b018:	e0fffd17 	ldw	r3,-12(fp)
 180b01c:	e0bff617 	ldw	r2,-40(fp)
 180b020:	18802f26 	beq	r3,r2,180b0e0 <alt_flash_cfi_write+0x28c>
 180b024:	e0bff917 	ldw	r2,-28(fp)
 180b028:	1004c03a 	cmpne	r2,r2,zero
 180b02c:	10002c1e 	bne	r2,zero,180b0e0 <alt_flash_cfi_write+0x28c>
          {
            goto finished;
          }
          
          length -= data_to_write;
 180b030:	e0fffd17 	ldw	r3,-12(fp)
 180b034:	e0bff617 	ldw	r2,-40(fp)
 180b038:	1885c83a 	sub	r2,r3,r2
 180b03c:	e0bffd15 	stw	r2,-12(fp)
          offset = current_offset + flash->dev.region_info[i].block_size;
 180b040:	e0bff817 	ldw	r2,-32(fp)
 180b044:	e0fff217 	ldw	r3,-56(fp)
 180b048:	1004913a 	slli	r2,r2,4
 180b04c:	10c5883a 	add	r2,r2,r3
 180b050:	10801004 	addi	r2,r2,64
 180b054:	10c00017 	ldw	r3,0(r2)
 180b058:	e0bff417 	ldw	r2,-48(fp)
 180b05c:	1885883a 	add	r2,r3,r2
 180b060:	e0bffb15 	stw	r2,-20(fp)
          src_addr = (alt_u8*)src_addr + data_to_write;
 180b064:	e0fffc17 	ldw	r3,-16(fp)
 180b068:	e0bff617 	ldw	r2,-40(fp)
 180b06c:	1885883a 	add	r2,r3,r2
 180b070:	e0bffc15 	stw	r2,-16(fp)
        }
        current_offset += flash->dev.region_info[i].block_size;
 180b074:	e0bff817 	ldw	r2,-32(fp)
 180b078:	e0fff217 	ldw	r3,-56(fp)
 180b07c:	1004913a 	slli	r2,r2,4
 180b080:	10c5883a 	add	r2,r2,r3
 180b084:	10801004 	addi	r2,r2,64
 180b088:	10c00017 	ldw	r3,0(r2)
 180b08c:	e0bff417 	ldw	r2,-48(fp)
 180b090:	10c5883a 	add	r2,r2,r3
 180b094:	e0bff415 	stw	r2,-48(fp)
      (offset < (flash->dev.region_info[i].offset + 
      flash->dev.region_info[i].region_size)))
    {
      current_offset = flash->dev.region_info[i].offset;

      for(j=0;j<flash->dev.region_info[i].number_of_blocks;j++)
 180b098:	e0bff717 	ldw	r2,-36(fp)
 180b09c:	10800044 	addi	r2,r2,1
 180b0a0:	e0bff715 	stw	r2,-36(fp)
 180b0a4:	e0bff817 	ldw	r2,-32(fp)
 180b0a8:	e0fff217 	ldw	r3,-56(fp)
 180b0ac:	1004913a 	slli	r2,r2,4
 180b0b0:	10c5883a 	add	r2,r2,r3
 180b0b4:	10800f04 	addi	r2,r2,60
 180b0b8:	10c00017 	ldw	r3,0(r2)
 180b0bc:	e0bff717 	ldw	r2,-36(fp)
 180b0c0:	10ff9516 	blt	r2,r3,180af18 <alt_flash_cfi_write+0xc4>
  alt_flash_cfi_dev* flash = (alt_flash_cfi_dev*)flash_info;

  /*
   * First and foremost which sectors are affected?
   */   
  for(i=0;i<flash->dev.number_of_regions;i++)
 180b0c4:	e0bff817 	ldw	r2,-32(fp)
 180b0c8:	10800044 	addi	r2,r2,1
 180b0cc:	e0bff815 	stw	r2,-32(fp)
 180b0d0:	e0bff217 	ldw	r2,-56(fp)
 180b0d4:	10c00c17 	ldw	r3,48(r2)
 180b0d8:	e0bff817 	ldw	r2,-32(fp)
 180b0dc:	10ff6e16 	blt	r2,r3,180ae98 <alt_flash_cfi_write+0x44>
      }     
    } 
  }
finished:    

  alt_dcache_flush((alt_u8*)flash->dev.base_addr+start_offset, full_length);
 180b0e0:	e0bff217 	ldw	r2,-56(fp)
 180b0e4:	10800a17 	ldw	r2,40(r2)
 180b0e8:	1007883a 	mov	r3,r2
 180b0ec:	e0bff317 	ldw	r2,-52(fp)
 180b0f0:	1889883a 	add	r4,r3,r2
 180b0f4:	e17ff517 	ldw	r5,-44(fp)
 180b0f8:	180f1b40 	call	180f1b4 <alt_dcache_flush>
  return ret_code;
 180b0fc:	e0bff917 	ldw	r2,-28(fp)
}
 180b100:	e037883a 	mov	sp,fp
 180b104:	dfc00117 	ldw	ra,4(sp)
 180b108:	df000017 	ldw	fp,0(sp)
 180b10c:	dec00204 	addi	sp,sp,8
 180b110:	f800283a 	ret

0180b114 <alt_flash_cfi_get_info>:
 * 
 *  Pass the table of erase blocks to the user
 */
int alt_flash_cfi_get_info( alt_flash_fd* fd, flash_region** info, 
                            int* number_of_regions)
{
 180b114:	defffa04 	addi	sp,sp,-24
 180b118:	df000515 	stw	fp,20(sp)
 180b11c:	df000504 	addi	fp,sp,20
 180b120:	e13ffd15 	stw	r4,-12(fp)
 180b124:	e17ffe15 	stw	r5,-8(fp)
 180b128:	e1bfff15 	stw	r6,-4(fp)
  int ret_code = 0;
 180b12c:	e03ffc15 	stw	zero,-16(fp)
  alt_flash_dev* flash = (alt_flash_dev*)fd;
 180b130:	e0bffd17 	ldw	r2,-12(fp)
 180b134:	e0bffb15 	stw	r2,-20(fp)

  *number_of_regions = flash->number_of_regions;
 180b138:	e0bffb17 	ldw	r2,-20(fp)
 180b13c:	10c00c17 	ldw	r3,48(r2)
 180b140:	e0bfff17 	ldw	r2,-4(fp)
 180b144:	10c00015 	stw	r3,0(r2)

  if (!flash->number_of_regions)
 180b148:	e0bffb17 	ldw	r2,-20(fp)
 180b14c:	10800c17 	ldw	r2,48(r2)
 180b150:	1004c03a 	cmpne	r2,r2,zero
 180b154:	1000031e 	bne	r2,zero,180b164 <alt_flash_cfi_get_info+0x50>
  {
    ret_code = -EIO;
 180b158:	00bffec4 	movi	r2,-5
 180b15c:	e0bffc15 	stw	r2,-16(fp)
 180b160:	00000b06 	br	180b190 <alt_flash_cfi_get_info+0x7c>
  }
  else if (flash->number_of_regions > ALT_MAX_NUMBER_OF_FLASH_REGIONS)
 180b164:	e0bffb17 	ldw	r2,-20(fp)
 180b168:	10800c17 	ldw	r2,48(r2)
 180b16c:	10800250 	cmplti	r2,r2,9
 180b170:	1000031e 	bne	r2,zero,180b180 <alt_flash_cfi_get_info+0x6c>
  {
    ret_code = -ENOMEM;
 180b174:	00bffd04 	movi	r2,-12
 180b178:	e0bffc15 	stw	r2,-16(fp)
 180b17c:	00000406 	br	180b190 <alt_flash_cfi_get_info+0x7c>
  }
  else
  {
    *info = &flash->region_info[0];
 180b180:	e0bffb17 	ldw	r2,-20(fp)
 180b184:	10c00d04 	addi	r3,r2,52
 180b188:	e0bffe17 	ldw	r2,-8(fp)
 180b18c:	10c00015 	stw	r3,0(r2)
  }

  return ret_code;
 180b190:	e0bffc17 	ldw	r2,-16(fp)
}
 180b194:	e037883a 	mov	sp,fp
 180b198:	df000017 	ldw	fp,0(sp)
 180b19c:	dec00104 	addi	sp,sp,4
 180b1a0:	f800283a 	ret

0180b1a4 <alt_flash_cfi_read>:
 *  Read from an area in flash, you could use memcopy yourself
 *  for these flash types, but we're trying to be generic and future proof
 */
int alt_flash_cfi_read( alt_flash_dev* flash_info, int offset, 
                        void* dest_addr, int length )
{
 180b1a4:	defff904 	addi	sp,sp,-28
 180b1a8:	dfc00615 	stw	ra,24(sp)
 180b1ac:	df000515 	stw	fp,20(sp)
 180b1b0:	df000504 	addi	fp,sp,20
 180b1b4:	e13ffc15 	stw	r4,-16(fp)
 180b1b8:	e17ffd15 	stw	r5,-12(fp)
 180b1bc:	e1bffe15 	stw	r6,-8(fp)
 180b1c0:	e1ffff15 	stw	r7,-4(fp)
  alt_flash_cfi_dev* flash = (alt_flash_cfi_dev*)flash_info;
 180b1c4:	e0bffc17 	ldw	r2,-16(fp)
 180b1c8:	e0bffb15 	stw	r2,-20(fp)
  memcpy(dest_addr, (alt_u8*)flash->dev.base_addr+offset, length);
 180b1cc:	e0bffb17 	ldw	r2,-20(fp)
 180b1d0:	10800a17 	ldw	r2,40(r2)
 180b1d4:	1007883a 	mov	r3,r2
 180b1d8:	e0bffd17 	ldw	r2,-12(fp)
 180b1dc:	1887883a 	add	r3,r3,r2
 180b1e0:	e1bfff17 	ldw	r6,-4(fp)
 180b1e4:	e0bffe17 	ldw	r2,-8(fp)
 180b1e8:	1009883a 	mov	r4,r2
 180b1ec:	180b883a 	mov	r5,r3
 180b1f0:	1805f280 	call	1805f28 <memcpy>
  return 0;
 180b1f4:	0005883a 	mov	r2,zero
}
 180b1f8:	e037883a 	mov	sp,fp
 180b1fc:	dfc00117 	ldw	ra,4(sp)
 180b200:	df000017 	ldw	fp,0(sp)
 180b204:	dec00204 	addi	sp,sp,8
 180b208:	f800283a 	ret

0180b20c <alt_write_value_to_flash>:
* It writes the largest word size that the flash can support
* so if it's an 8 bit flash it writes bytes
* 16 bit half word etc.
*/
void alt_write_value_to_flash(alt_flash_cfi_dev* flash, int offset, const alt_u8* src_addr)
{
 180b20c:	defffa04 	addi	sp,sp,-24
 180b210:	df000515 	stw	fp,20(sp)
 180b214:	df000504 	addi	fp,sp,20
 180b218:	e13ffd15 	stw	r4,-12(fp)
 180b21c:	e17ffe15 	stw	r5,-8(fp)
 180b220:	e1bfff15 	stw	r6,-4(fp)
  alt_u16 half_word_value;
  alt_u32 word_value;

  if (flash->mode_width == 1)
 180b224:	e0bffd17 	ldw	r2,-12(fp)
 180b228:	10802e17 	ldw	r2,184(r2)
 180b22c:	10800058 	cmpnei	r2,r2,1
 180b230:	10000b1e 	bne	r2,zero,180b260 <alt_write_value_to_flash+0x54>
  {
    IOWR_8DIRECT(flash->dev.base_addr, offset, *src_addr);
 180b234:	e0bffd17 	ldw	r2,-12(fp)
 180b238:	10800a17 	ldw	r2,40(r2)
 180b23c:	1007883a 	mov	r3,r2
 180b240:	e0bffe17 	ldw	r2,-8(fp)
 180b244:	1889883a 	add	r4,r3,r2
 180b248:	e0bfff17 	ldw	r2,-4(fp)
 180b24c:	10800003 	ldbu	r2,0(r2)
 180b250:	10c03fcc 	andi	r3,r2,255
 180b254:	2005883a 	mov	r2,r4
 180b258:	10c00025 	stbio	r3,0(r2)
 180b25c:	00004006 	br	180b360 <alt_write_value_to_flash+0x154>
  }
  else if (flash->mode_width == 2)
 180b260:	e0bffd17 	ldw	r2,-12(fp)
 180b264:	10802e17 	ldw	r2,184(r2)
 180b268:	10800098 	cmpnei	r2,r2,2
 180b26c:	1000151e 	bne	r2,zero,180b2c4 <alt_write_value_to_flash+0xb8>
  {
    half_word_value = (alt_u16)(*src_addr);
 180b270:	e0bfff17 	ldw	r2,-4(fp)
 180b274:	10800003 	ldbu	r2,0(r2)
 180b278:	10803fcc 	andi	r2,r2,255
 180b27c:	e0bffc0d 	sth	r2,-16(fp)
    half_word_value |= (alt_u16)(*(src_addr + 1)) << 8;
 180b280:	e0bfff17 	ldw	r2,-4(fp)
 180b284:	10800044 	addi	r2,r2,1
 180b288:	10800003 	ldbu	r2,0(r2)
 180b28c:	10803fcc 	andi	r2,r2,255
 180b290:	1004923a 	slli	r2,r2,8
 180b294:	1007883a 	mov	r3,r2
 180b298:	e0bffc0b 	ldhu	r2,-16(fp)
 180b29c:	1884b03a 	or	r2,r3,r2
 180b2a0:	e0bffc0d 	sth	r2,-16(fp)
    IOWR_16DIRECT(flash->dev.base_addr, offset, half_word_value);
 180b2a4:	e0bffd17 	ldw	r2,-12(fp)
 180b2a8:	10800a17 	ldw	r2,40(r2)
 180b2ac:	1007883a 	mov	r3,r2
 180b2b0:	e0bffe17 	ldw	r2,-8(fp)
 180b2b4:	1885883a 	add	r2,r3,r2
 180b2b8:	e0fffc0b 	ldhu	r3,-16(fp)
 180b2bc:	10c0002d 	sthio	r3,0(r2)
 180b2c0:	00002706 	br	180b360 <alt_write_value_to_flash+0x154>
  }
  else if (flash->mode_width == 4)
 180b2c4:	e0bffd17 	ldw	r2,-12(fp)
 180b2c8:	10802e17 	ldw	r2,184(r2)
 180b2cc:	10800118 	cmpnei	r2,r2,4
 180b2d0:	1000231e 	bne	r2,zero,180b360 <alt_write_value_to_flash+0x154>
  {
    word_value = (alt_u32)(*src_addr);
 180b2d4:	e0bfff17 	ldw	r2,-4(fp)
 180b2d8:	10800003 	ldbu	r2,0(r2)
 180b2dc:	10803fcc 	andi	r2,r2,255
 180b2e0:	e0bffb15 	stw	r2,-20(fp)
    word_value |= ((alt_u32)(*(src_addr + 1)) << 8);
 180b2e4:	e0bfff17 	ldw	r2,-4(fp)
 180b2e8:	10800044 	addi	r2,r2,1
 180b2ec:	10800003 	ldbu	r2,0(r2)
 180b2f0:	10803fcc 	andi	r2,r2,255
 180b2f4:	1006923a 	slli	r3,r2,8
 180b2f8:	e0bffb17 	ldw	r2,-20(fp)
 180b2fc:	10c4b03a 	or	r2,r2,r3
 180b300:	e0bffb15 	stw	r2,-20(fp)
    word_value |= ((alt_u32)(*(src_addr + 2)) << 16);
 180b304:	e0bfff17 	ldw	r2,-4(fp)
 180b308:	10800084 	addi	r2,r2,2
 180b30c:	10800003 	ldbu	r2,0(r2)
 180b310:	10803fcc 	andi	r2,r2,255
 180b314:	1006943a 	slli	r3,r2,16
 180b318:	e0bffb17 	ldw	r2,-20(fp)
 180b31c:	10c4b03a 	or	r2,r2,r3
 180b320:	e0bffb15 	stw	r2,-20(fp)
    word_value |= ((alt_u32)(*(src_addr + 3)) << 24);
 180b324:	e0bfff17 	ldw	r2,-4(fp)
 180b328:	108000c4 	addi	r2,r2,3
 180b32c:	10800003 	ldbu	r2,0(r2)
 180b330:	10803fcc 	andi	r2,r2,255
 180b334:	1006963a 	slli	r3,r2,24
 180b338:	e0bffb17 	ldw	r2,-20(fp)
 180b33c:	10c4b03a 	or	r2,r2,r3
 180b340:	e0bffb15 	stw	r2,-20(fp)
    IOWR_32DIRECT(flash->dev.base_addr, offset, word_value);
 180b344:	e0bffd17 	ldw	r2,-12(fp)
 180b348:	10800a17 	ldw	r2,40(r2)
 180b34c:	1007883a 	mov	r3,r2
 180b350:	e0bffe17 	ldw	r2,-8(fp)
 180b354:	1885883a 	add	r2,r3,r2
 180b358:	e0fffb17 	ldw	r3,-20(fp)
 180b35c:	10c00035 	stwio	r3,0(r2)
  }

  return;
}
 180b360:	e037883a 	mov	sp,fp
 180b364:	df000017 	ldw	fp,0(sp)
 180b368:	dec00104 	addi	sp,sp,4
 180b36c:	f800283a 	ret

0180b370 <alt_flash_program_block>:
*/
int alt_flash_program_block(  alt_flash_cfi_dev* flash, const int offset, 
                        const alt_u8* src_addr, 
                        const int length,
                        alt_program_word_fn program_word_func)
{
 180b370:	defff304 	addi	sp,sp,-52
 180b374:	dfc00c15 	stw	ra,48(sp)
 180b378:	df000b15 	stw	fp,44(sp)
 180b37c:	df000b04 	addi	fp,sp,44
 180b380:	e13ffc15 	stw	r4,-16(fp)
 180b384:	e17ffd15 	stw	r5,-12(fp)
 180b388:	e1bffe15 	stw	r6,-8(fp)
 180b38c:	e1ffff15 	stw	r7,-4(fp)
  int     ret_code = 0;
 180b390:	e03ffa15 	stw	zero,-24(fp)

  /*
   * First take care of any writes which are on none native boundaries
   * as far as the flash is concerned.
   */
  bytes_to_preserve = ((int)((alt_u8*)flash->dev.base_addr + offset) % 
 180b394:	e0bffc17 	ldw	r2,-16(fp)
 180b398:	10800a17 	ldw	r2,40(r2)
 180b39c:	1007883a 	mov	r3,r2
 180b3a0:	e0bffd17 	ldw	r2,-12(fp)
 180b3a4:	1885883a 	add	r2,r3,r2
 180b3a8:	1009883a 	mov	r4,r2
 180b3ac:	e0bffc17 	ldw	r2,-16(fp)
 180b3b0:	10c02e17 	ldw	r3,184(r2)
 180b3b4:	20c5283a 	div	r2,r4,r3
 180b3b8:	10c5383a 	mul	r2,r2,r3
 180b3bc:	2085c83a 	sub	r2,r4,r2
 180b3c0:	e0bff915 	stw	r2,-28(fp)
                      flash->mode_width);
  if ( bytes_to_preserve != 0)
 180b3c4:	e0bff917 	ldw	r2,-28(fp)
 180b3c8:	1005003a 	cmpeq	r2,r2,zero
 180b3cc:	10003a1e 	bne	r2,zero,180b4b8 <alt_flash_program_block+0x148>
  {
    unaligned_bytes = flash->mode_width - bytes_to_preserve;
 180b3d0:	e0bffc17 	ldw	r2,-16(fp)
 180b3d4:	10c02e17 	ldw	r3,184(r2)
 180b3d8:	e0bff917 	ldw	r2,-28(fp)
 180b3dc:	1885c83a 	sub	r2,r3,r2
 180b3e0:	e0bff815 	stw	r2,-32(fp)
    /*
     * Read the bytes we wish to preserve out of flash
     */
    for (i=0;i<bytes_to_preserve;i++)
 180b3e4:	e03ff615 	stw	zero,-40(fp)
 180b3e8:	00001206 	br	180b434 <alt_flash_program_block+0xc4>
    {
      unaligned[i] = IORD_8DIRECT(flash->dev.base_addr, 
 180b3ec:	e17ff617 	ldw	r5,-40(fp)
 180b3f0:	e0bffc17 	ldw	r2,-16(fp)
 180b3f4:	10800a17 	ldw	r2,40(r2)
 180b3f8:	1009883a 	mov	r4,r2
 180b3fc:	e0fffd17 	ldw	r3,-12(fp)
 180b400:	e0bff917 	ldw	r2,-28(fp)
 180b404:	1887c83a 	sub	r3,r3,r2
 180b408:	e0bff617 	ldw	r2,-40(fp)
 180b40c:	1885883a 	add	r2,r3,r2
 180b410:	2085883a 	add	r2,r4,r2
 180b414:	10800023 	ldbuio	r2,0(r2)
 180b418:	1007883a 	mov	r3,r2
 180b41c:	e0bffb04 	addi	r2,fp,-20
 180b420:	1145883a 	add	r2,r2,r5
 180b424:	10c00005 	stb	r3,0(r2)
  {
    unaligned_bytes = flash->mode_width - bytes_to_preserve;
    /*
     * Read the bytes we wish to preserve out of flash
     */
    for (i=0;i<bytes_to_preserve;i++)
 180b428:	e0bff617 	ldw	r2,-40(fp)
 180b42c:	10800044 	addi	r2,r2,1
 180b430:	e0bff615 	stw	r2,-40(fp)
 180b434:	e0fff617 	ldw	r3,-40(fp)
 180b438:	e0bff917 	ldw	r2,-28(fp)
 180b43c:	18bfeb16 	blt	r3,r2,180b3ec <alt_flash_program_block+0x7c>
    {
      unaligned[i] = IORD_8DIRECT(flash->dev.base_addr, 
                                offset-bytes_to_preserve+i);
    }

    for (i=0;i<unaligned_bytes;i++)
 180b440:	e03ff615 	stw	zero,-40(fp)
 180b444:	00000e06 	br	180b480 <alt_flash_program_block+0x110>
    {
      unaligned[bytes_to_preserve + i] = *(alt_u8*)(src_addr + i);
 180b448:	e0fff917 	ldw	r3,-28(fp)
 180b44c:	e0bff617 	ldw	r2,-40(fp)
 180b450:	1889883a 	add	r4,r3,r2
 180b454:	e0bff617 	ldw	r2,-40(fp)
 180b458:	1007883a 	mov	r3,r2
 180b45c:	e0bffe17 	ldw	r2,-8(fp)
 180b460:	1885883a 	add	r2,r3,r2
 180b464:	10c00003 	ldbu	r3,0(r2)
 180b468:	e0bffb04 	addi	r2,fp,-20
 180b46c:	1105883a 	add	r2,r2,r4
 180b470:	10c00005 	stb	r3,0(r2)
    {
      unaligned[i] = IORD_8DIRECT(flash->dev.base_addr, 
                                offset-bytes_to_preserve+i);
    }

    for (i=0;i<unaligned_bytes;i++)
 180b474:	e0bff617 	ldw	r2,-40(fp)
 180b478:	10800044 	addi	r2,r2,1
 180b47c:	e0bff615 	stw	r2,-40(fp)
 180b480:	e0fff617 	ldw	r3,-40(fp)
 180b484:	e0bff817 	ldw	r2,-32(fp)
 180b488:	18bfef16 	blt	r3,r2,180b448 <alt_flash_program_block+0xd8>
    {
      unaligned[bytes_to_preserve + i] = *(alt_u8*)(src_addr + i);
    }
    
    ret_code = (*program_word_func)(flash, offset-bytes_to_preserve, unaligned);
 180b48c:	e0fffd17 	ldw	r3,-12(fp)
 180b490:	e0bff917 	ldw	r2,-28(fp)
 180b494:	188bc83a 	sub	r5,r3,r2
 180b498:	e1bffb04 	addi	r6,fp,-20
 180b49c:	e0800217 	ldw	r2,8(fp)
 180b4a0:	e13ffc17 	ldw	r4,-16(fp)
 180b4a4:	103ee83a 	callr	r2
 180b4a8:	e0bffa15 	stw	r2,-24(fp)
    i = unaligned_bytes;
 180b4ac:	e0bff817 	ldw	r2,-32(fp)
 180b4b0:	e0bff615 	stw	r2,-40(fp)
 180b4b4:	00000106 	br	180b4bc <alt_flash_program_block+0x14c>
  }
  else
  {
    i = 0;
 180b4b8:	e03ff615 	stw	zero,-40(fp)
  }

  unaligned_end_bytes = (offset+length) % flash->mode_width;
 180b4bc:	e0fffd17 	ldw	r3,-12(fp)
 180b4c0:	e0bfff17 	ldw	r2,-4(fp)
 180b4c4:	1889883a 	add	r4,r3,r2
 180b4c8:	e0bffc17 	ldw	r2,-16(fp)
 180b4cc:	10c02e17 	ldw	r3,184(r2)
 180b4d0:	20c5283a 	div	r2,r4,r3
 180b4d4:	10c5383a 	mul	r2,r2,r3
 180b4d8:	2085c83a 	sub	r2,r4,r2
 180b4dc:	e0bff715 	stw	r2,-36(fp)
  while ((ret_code == 0) && (i < (length-unaligned_end_bytes)))
 180b4e0:	00001006 	br	180b524 <alt_flash_program_block+0x1b4>
  {
    ret_code = (*program_word_func)(flash, offset+i, src_addr+i);
 180b4e4:	e0fffd17 	ldw	r3,-12(fp)
 180b4e8:	e0bff617 	ldw	r2,-40(fp)
 180b4ec:	188b883a 	add	r5,r3,r2
 180b4f0:	e0bff617 	ldw	r2,-40(fp)
 180b4f4:	1007883a 	mov	r3,r2
 180b4f8:	e0bffe17 	ldw	r2,-8(fp)
 180b4fc:	188d883a 	add	r6,r3,r2
 180b500:	e0800217 	ldw	r2,8(fp)
 180b504:	e13ffc17 	ldw	r4,-16(fp)
 180b508:	103ee83a 	callr	r2
 180b50c:	e0bffa15 	stw	r2,-24(fp)
    i += flash->mode_width;     
 180b510:	e0bffc17 	ldw	r2,-16(fp)
 180b514:	10c02e17 	ldw	r3,184(r2)
 180b518:	e0bff617 	ldw	r2,-40(fp)
 180b51c:	10c5883a 	add	r2,r2,r3
 180b520:	e0bff615 	stw	r2,-40(fp)
  {
    i = 0;
  }

  unaligned_end_bytes = (offset+length) % flash->mode_width;
  while ((ret_code == 0) && (i < (length-unaligned_end_bytes)))
 180b524:	e0bffa17 	ldw	r2,-24(fp)
 180b528:	1004c03a 	cmpne	r2,r2,zero
 180b52c:	1000051e 	bne	r2,zero,180b544 <alt_flash_program_block+0x1d4>
 180b530:	e0ffff17 	ldw	r3,-4(fp)
 180b534:	e0bff717 	ldw	r2,-36(fp)
 180b538:	1887c83a 	sub	r3,r3,r2
 180b53c:	e0bff617 	ldw	r2,-40(fp)
 180b540:	10ffe816 	blt	r2,r3,180b4e4 <alt_flash_program_block+0x174>

  /*
   * Now take care of any writes at the end of the buffer which are on none 
   * native boundaries as far as the flash is concerned.
   */
  if (unaligned_end_bytes && !ret_code)
 180b544:	e0bff717 	ldw	r2,-36(fp)
 180b548:	1005003a 	cmpeq	r2,r2,zero
 180b54c:	10003c1e 	bne	r2,zero,180b640 <alt_flash_program_block+0x2d0>
 180b550:	e0bffa17 	ldw	r2,-24(fp)
 180b554:	1004c03a 	cmpne	r2,r2,zero
 180b558:	1000391e 	bne	r2,zero,180b640 <alt_flash_program_block+0x2d0>
  {
    bytes_to_preserve = flash->mode_width - unaligned_end_bytes;
 180b55c:	e0bffc17 	ldw	r2,-16(fp)
 180b560:	10c02e17 	ldw	r3,184(r2)
 180b564:	e0bff717 	ldw	r2,-36(fp)
 180b568:	1885c83a 	sub	r2,r3,r2
 180b56c:	e0bff915 	stw	r2,-28(fp)
    
    for (j=0;j<unaligned_end_bytes;j++)
 180b570:	e03ff515 	stw	zero,-44(fp)
 180b574:	00000e06 	br	180b5b0 <alt_flash_program_block+0x240>
    {
      unaligned[j] = *(alt_u8*)(src_addr+i+j);
 180b578:	e13ff517 	ldw	r4,-44(fp)
 180b57c:	e0bff617 	ldw	r2,-40(fp)
 180b580:	1007883a 	mov	r3,r2
 180b584:	e0bffe17 	ldw	r2,-8(fp)
 180b588:	1887883a 	add	r3,r3,r2
 180b58c:	e0bff517 	ldw	r2,-44(fp)
 180b590:	1885883a 	add	r2,r3,r2
 180b594:	10c00003 	ldbu	r3,0(r2)
 180b598:	e0bffb04 	addi	r2,fp,-20
 180b59c:	1105883a 	add	r2,r2,r4
 180b5a0:	10c00005 	stb	r3,0(r2)
   */
  if (unaligned_end_bytes && !ret_code)
  {
    bytes_to_preserve = flash->mode_width - unaligned_end_bytes;
    
    for (j=0;j<unaligned_end_bytes;j++)
 180b5a4:	e0bff517 	ldw	r2,-44(fp)
 180b5a8:	10800044 	addi	r2,r2,1
 180b5ac:	e0bff515 	stw	r2,-44(fp)
 180b5b0:	e0fff517 	ldw	r3,-44(fp)
 180b5b4:	e0bff717 	ldw	r2,-36(fp)
 180b5b8:	18bfef16 	blt	r3,r2,180b578 <alt_flash_program_block+0x208>
    {
      unaligned[j] = *(alt_u8*)(src_addr+i+j);
    }
    
    for (j=0;j<bytes_to_preserve;j++)
 180b5bc:	e03ff515 	stw	zero,-44(fp)
 180b5c0:	00001406 	br	180b614 <alt_flash_program_block+0x2a4>
    {
      unaligned[unaligned_end_bytes+j] = IORD_8DIRECT(flash->dev.base_addr, 
 180b5c4:	e0fff717 	ldw	r3,-36(fp)
 180b5c8:	e0bff517 	ldw	r2,-44(fp)
 180b5cc:	188b883a 	add	r5,r3,r2
 180b5d0:	e0bffc17 	ldw	r2,-16(fp)
 180b5d4:	10800a17 	ldw	r2,40(r2)
 180b5d8:	1009883a 	mov	r4,r2
 180b5dc:	e0fffd17 	ldw	r3,-12(fp)
 180b5e0:	e0bfff17 	ldw	r2,-4(fp)
 180b5e4:	1887883a 	add	r3,r3,r2
 180b5e8:	e0bff517 	ldw	r2,-44(fp)
 180b5ec:	1885883a 	add	r2,r3,r2
 180b5f0:	2085883a 	add	r2,r4,r2
 180b5f4:	10800023 	ldbuio	r2,0(r2)
 180b5f8:	1007883a 	mov	r3,r2
 180b5fc:	e0bffb04 	addi	r2,fp,-20
 180b600:	1145883a 	add	r2,r2,r5
 180b604:	10c00005 	stb	r3,0(r2)
    for (j=0;j<unaligned_end_bytes;j++)
    {
      unaligned[j] = *(alt_u8*)(src_addr+i+j);
    }
    
    for (j=0;j<bytes_to_preserve;j++)
 180b608:	e0bff517 	ldw	r2,-44(fp)
 180b60c:	10800044 	addi	r2,r2,1
 180b610:	e0bff515 	stw	r2,-44(fp)
 180b614:	e0fff517 	ldw	r3,-44(fp)
 180b618:	e0bff917 	ldw	r2,-28(fp)
 180b61c:	18bfe916 	blt	r3,r2,180b5c4 <alt_flash_program_block+0x254>
    {
      unaligned[unaligned_end_bytes+j] = IORD_8DIRECT(flash->dev.base_addr, 
                                                      offset+length+j);
    }

    ret_code = (*program_word_func)(flash, offset+i, unaligned);      
 180b620:	e0fffd17 	ldw	r3,-12(fp)
 180b624:	e0bff617 	ldw	r2,-40(fp)
 180b628:	188b883a 	add	r5,r3,r2
 180b62c:	e1bffb04 	addi	r6,fp,-20
 180b630:	e0800217 	ldw	r2,8(fp)
 180b634:	e13ffc17 	ldw	r4,-16(fp)
 180b638:	103ee83a 	callr	r2
 180b63c:	e0bffa15 	stw	r2,-24(fp)
  }

  return ret_code;
 180b640:	e0bffa17 	ldw	r2,-24(fp)
}
 180b644:	e037883a 	mov	sp,fp
 180b648:	dfc00117 	ldw	ra,4(sp)
 180b64c:	df000017 	ldw	fp,0(sp)
 180b650:	dec00204 	addi	sp,sp,8
 180b654:	f800283a 	ret

0180b658 <alt_read_query_entry_8bit>:

/*
 *  Read an 8 bit value from the CFI query table in flash
 */
alt_u8 alt_read_query_entry_8bit( alt_flash_cfi_dev* flash, int address)
{
 180b658:	defffd04 	addi	sp,sp,-12
 180b65c:	df000215 	stw	fp,8(sp)
 180b660:	df000204 	addi	fp,sp,8
 180b664:	e13ffe15 	stw	r4,-8(fp)
 180b668:	e17fff15 	stw	r5,-4(fp)
  return IORD_8DIRECT((alt_u8*)flash->dev.base_addr, address);
 180b66c:	e0bffe17 	ldw	r2,-8(fp)
 180b670:	10800a17 	ldw	r2,40(r2)
 180b674:	1007883a 	mov	r3,r2
 180b678:	e0bfff17 	ldw	r2,-4(fp)
 180b67c:	1885883a 	add	r2,r3,r2
 180b680:	10800023 	ldbuio	r2,0(r2)
 180b684:	10803fcc 	andi	r2,r2,255
}
 180b688:	e037883a 	mov	sp,fp
 180b68c:	df000017 	ldw	fp,0(sp)
 180b690:	dec00104 	addi	sp,sp,4
 180b694:	f800283a 	ret

0180b698 <alt_read_query_entry_16bit>:

alt_u8 alt_read_query_entry_16bit( alt_flash_cfi_dev* flash, int address)
{
 180b698:	defffd04 	addi	sp,sp,-12
 180b69c:	df000215 	stw	fp,8(sp)
 180b6a0:	df000204 	addi	fp,sp,8
 180b6a4:	e13ffe15 	stw	r4,-8(fp)
 180b6a8:	e17fff15 	stw	r5,-4(fp)
  return (IORD_16DIRECT((alt_u8*)flash->dev.base_addr, address*2) & 0xff);
 180b6ac:	e0bffe17 	ldw	r2,-8(fp)
 180b6b0:	10800a17 	ldw	r2,40(r2)
 180b6b4:	1007883a 	mov	r3,r2
 180b6b8:	e0bfff17 	ldw	r2,-4(fp)
 180b6bc:	1085883a 	add	r2,r2,r2
 180b6c0:	1885883a 	add	r2,r3,r2
 180b6c4:	1080002b 	ldhuio	r2,0(r2)
 180b6c8:	10803fcc 	andi	r2,r2,255
}
 180b6cc:	e037883a 	mov	sp,fp
 180b6d0:	df000017 	ldw	fp,0(sp)
 180b6d4:	dec00104 	addi	sp,sp,4
 180b6d8:	f800283a 	ret

0180b6dc <alt_read_query_entry_32bit>:

alt_u8 alt_read_query_entry_32bit( alt_flash_cfi_dev* flash, int address)
{
 180b6dc:	defffd04 	addi	sp,sp,-12
 180b6e0:	df000215 	stw	fp,8(sp)
 180b6e4:	df000204 	addi	fp,sp,8
 180b6e8:	e13ffe15 	stw	r4,-8(fp)
 180b6ec:	e17fff15 	stw	r5,-4(fp)
  return (IORD_32DIRECT((alt_u8*)flash->dev.base_addr, address*4) & 0xff);
 180b6f0:	e0bffe17 	ldw	r2,-8(fp)
 180b6f4:	10800a17 	ldw	r2,40(r2)
 180b6f8:	1007883a 	mov	r3,r2
 180b6fc:	e0bfff17 	ldw	r2,-4(fp)
 180b700:	1085883a 	add	r2,r2,r2
 180b704:	1085883a 	add	r2,r2,r2
 180b708:	1885883a 	add	r2,r3,r2
 180b70c:	10800037 	ldwio	r2,0(r2)
 180b710:	10803fcc 	andi	r2,r2,255
}
 180b714:	e037883a 	mov	sp,fp
 180b718:	df000017 	ldw	fp,0(sp)
 180b71c:	dec00104 	addi	sp,sp,4
 180b720:	f800283a 	ret

0180b724 <alt_write_flash_command_8bit_device_8bit_mode>:

/*
 * Write an 8 bit command to a flash
 */
void alt_write_flash_command_8bit_device_8bit_mode( void* base_addr, int offset, alt_u8 value)
{
 180b724:	defffc04 	addi	sp,sp,-16
 180b728:	df000315 	stw	fp,12(sp)
 180b72c:	df000304 	addi	fp,sp,12
 180b730:	e13ffd15 	stw	r4,-12(fp)
 180b734:	e17ffe15 	stw	r5,-8(fp)
 180b738:	e1bfff05 	stb	r6,-4(fp)
  IOWR_8DIRECT(base_addr, offset, value);
 180b73c:	e0fffd17 	ldw	r3,-12(fp)
 180b740:	e0bffe17 	ldw	r2,-8(fp)
 180b744:	1885883a 	add	r2,r3,r2
 180b748:	e0ffff03 	ldbu	r3,-4(fp)
 180b74c:	10c00025 	stbio	r3,0(r2)
  return;
}
 180b750:	e037883a 	mov	sp,fp
 180b754:	df000017 	ldw	fp,0(sp)
 180b758:	dec00104 	addi	sp,sp,4
 180b75c:	f800283a 	ret

0180b760 <alt_write_flash_command_16bit_device_8bit_mode>:

void alt_write_flash_command_16bit_device_8bit_mode( void* base_addr, int offset, alt_u8 value)
{
 180b760:	defffc04 	addi	sp,sp,-16
 180b764:	df000315 	stw	fp,12(sp)
 180b768:	df000304 	addi	fp,sp,12
 180b76c:	e13ffd15 	stw	r4,-12(fp)
 180b770:	e17ffe15 	stw	r5,-8(fp)
 180b774:	e1bfff05 	stb	r6,-4(fp)
  if (offset % 2)
 180b778:	e0bffe17 	ldw	r2,-8(fp)
 180b77c:	1080004c 	andi	r2,r2,1
 180b780:	10803fcc 	andi	r2,r2,255
 180b784:	1005003a 	cmpeq	r2,r2,zero
 180b788:	1000081e 	bne	r2,zero,180b7ac <alt_write_flash_command_16bit_device_8bit_mode+0x4c>
  {
    IOWR_8DIRECT(base_addr, offset*2, value);
 180b78c:	e0bffe17 	ldw	r2,-8(fp)
 180b790:	1085883a 	add	r2,r2,r2
 180b794:	1007883a 	mov	r3,r2
 180b798:	e0bffd17 	ldw	r2,-12(fp)
 180b79c:	1885883a 	add	r2,r3,r2
 180b7a0:	e0ffff03 	ldbu	r3,-4(fp)
 180b7a4:	10c00025 	stbio	r3,0(r2)
 180b7a8:	00000806 	br	180b7cc <alt_write_flash_command_16bit_device_8bit_mode+0x6c>
  }
  else
  {
    IOWR_8DIRECT(base_addr, (offset*2)+1, value);
 180b7ac:	e0bffe17 	ldw	r2,-8(fp)
 180b7b0:	1085883a 	add	r2,r2,r2
 180b7b4:	1007883a 	mov	r3,r2
 180b7b8:	e0bffd17 	ldw	r2,-12(fp)
 180b7bc:	1885883a 	add	r2,r3,r2
 180b7c0:	10800044 	addi	r2,r2,1
 180b7c4:	e0ffff03 	ldbu	r3,-4(fp)
 180b7c8:	10c00025 	stbio	r3,0(r2)
  }
  return;
}
 180b7cc:	e037883a 	mov	sp,fp
 180b7d0:	df000017 	ldw	fp,0(sp)
 180b7d4:	dec00104 	addi	sp,sp,4
 180b7d8:	f800283a 	ret

0180b7dc <alt_write_flash_command_32bit_device_8bit_mode>:

void alt_write_flash_command_32bit_device_8bit_mode( void* base_addr, int offset, alt_u8 value)
{
 180b7dc:	defffc04 	addi	sp,sp,-16
 180b7e0:	df000315 	stw	fp,12(sp)
 180b7e4:	df000304 	addi	fp,sp,12
 180b7e8:	e13ffd15 	stw	r4,-12(fp)
 180b7ec:	e17ffe15 	stw	r5,-8(fp)
 180b7f0:	e1bfff05 	stb	r6,-4(fp)
  IOWR_8DIRECT(base_addr, offset*4, value);
 180b7f4:	e0bffe17 	ldw	r2,-8(fp)
 180b7f8:	1085883a 	add	r2,r2,r2
 180b7fc:	1085883a 	add	r2,r2,r2
 180b800:	1007883a 	mov	r3,r2
 180b804:	e0bffd17 	ldw	r2,-12(fp)
 180b808:	1885883a 	add	r2,r3,r2
 180b80c:	e0ffff03 	ldbu	r3,-4(fp)
 180b810:	10c00025 	stbio	r3,0(r2)
  return;
}
 180b814:	e037883a 	mov	sp,fp
 180b818:	df000017 	ldw	fp,0(sp)
 180b81c:	dec00104 	addi	sp,sp,4
 180b820:	f800283a 	ret

0180b824 <alt_write_flash_command_16bit_device_16bit_mode>:

void alt_write_flash_command_16bit_device_16bit_mode( void* base_addr, int offset, alt_u8 value)
{
 180b824:	defffc04 	addi	sp,sp,-16
 180b828:	df000315 	stw	fp,12(sp)
 180b82c:	df000304 	addi	fp,sp,12
 180b830:	e13ffd15 	stw	r4,-12(fp)
 180b834:	e17ffe15 	stw	r5,-8(fp)
 180b838:	e1bfff05 	stb	r6,-4(fp)
  IOWR_16DIRECT(base_addr, offset*2, ((alt_u16)value)& 0x00ff);
 180b83c:	e0bffe17 	ldw	r2,-8(fp)
 180b840:	1085883a 	add	r2,r2,r2
 180b844:	1007883a 	mov	r3,r2
 180b848:	e0bffd17 	ldw	r2,-12(fp)
 180b84c:	1885883a 	add	r2,r3,r2
 180b850:	e0ffff03 	ldbu	r3,-4(fp)
 180b854:	10c0002d 	sthio	r3,0(r2)
  return;
}
 180b858:	e037883a 	mov	sp,fp
 180b85c:	df000017 	ldw	fp,0(sp)
 180b860:	dec00104 	addi	sp,sp,4
 180b864:	f800283a 	ret

0180b868 <alt_write_flash_command_32bit_device_16bit_mode>:

void alt_write_flash_command_32bit_device_16bit_mode( void* base_addr, int offset, alt_u8 value)
{
 180b868:	defffc04 	addi	sp,sp,-16
 180b86c:	df000315 	stw	fp,12(sp)
 180b870:	df000304 	addi	fp,sp,12
 180b874:	e13ffd15 	stw	r4,-12(fp)
 180b878:	e17ffe15 	stw	r5,-8(fp)
 180b87c:	e1bfff05 	stb	r6,-4(fp)
  IOWR_16DIRECT(base_addr, offset*4, ((alt_u16)value)& 0x00ff);
 180b880:	e0bffe17 	ldw	r2,-8(fp)
 180b884:	1085883a 	add	r2,r2,r2
 180b888:	1085883a 	add	r2,r2,r2
 180b88c:	1007883a 	mov	r3,r2
 180b890:	e0bffd17 	ldw	r2,-12(fp)
 180b894:	1885883a 	add	r2,r3,r2
 180b898:	e0ffff03 	ldbu	r3,-4(fp)
 180b89c:	10c0002d 	sthio	r3,0(r2)
  return;
}
 180b8a0:	e037883a 	mov	sp,fp
 180b8a4:	df000017 	ldw	fp,0(sp)
 180b8a8:	dec00104 	addi	sp,sp,4
 180b8ac:	f800283a 	ret

0180b8b0 <alt_write_flash_command_32bit_device_32bit_mode>:

void alt_write_flash_command_32bit_device_32bit_mode( void* base_addr, int offset, alt_u8 value)
{
 180b8b0:	defffc04 	addi	sp,sp,-16
 180b8b4:	df000315 	stw	fp,12(sp)
 180b8b8:	df000304 	addi	fp,sp,12
 180b8bc:	e13ffd15 	stw	r4,-12(fp)
 180b8c0:	e17ffe15 	stw	r5,-8(fp)
 180b8c4:	e1bfff05 	stb	r6,-4(fp)
  IOWR_32DIRECT(base_addr, offset*4, ((alt_u32)value)& 0x000000ff);
 180b8c8:	e0bffe17 	ldw	r2,-8(fp)
 180b8cc:	1085883a 	add	r2,r2,r2
 180b8d0:	1085883a 	add	r2,r2,r2
 180b8d4:	1007883a 	mov	r3,r2
 180b8d8:	e0bffd17 	ldw	r2,-12(fp)
 180b8dc:	1885883a 	add	r2,r3,r2
 180b8e0:	e0ffff03 	ldbu	r3,-4(fp)
 180b8e4:	10c00035 	stwio	r3,0(r2)
  return;
}
 180b8e8:	e037883a 	mov	sp,fp
 180b8ec:	df000017 	ldw	fp,0(sp)
 180b8f0:	dec00104 	addi	sp,sp,4
 180b8f4:	f800283a 	ret

0180b8f8 <alt_write_native_8bit>:

/*
 * Write the value passed to the flash
 */
void alt_write_native_8bit( void* address, alt_u32 value)
{
 180b8f8:	defffd04 	addi	sp,sp,-12
 180b8fc:	df000215 	stw	fp,8(sp)
 180b900:	df000204 	addi	fp,sp,8
 180b904:	e13ffe15 	stw	r4,-8(fp)
 180b908:	e17fff15 	stw	r5,-4(fp)
  IOWR_8DIRECT(address, 0, (alt_u8)(value&0xff));
 180b90c:	e0bfff17 	ldw	r2,-4(fp)
 180b910:	10c03fcc 	andi	r3,r2,255
 180b914:	e0bffe17 	ldw	r2,-8(fp)
 180b918:	10c00025 	stbio	r3,0(r2)
  return;
}
 180b91c:	e037883a 	mov	sp,fp
 180b920:	df000017 	ldw	fp,0(sp)
 180b924:	dec00104 	addi	sp,sp,4
 180b928:	f800283a 	ret

0180b92c <alt_write_native_16bit>:

void alt_write_native_16bit( void* address, alt_u32 value)
{
 180b92c:	defffd04 	addi	sp,sp,-12
 180b930:	df000215 	stw	fp,8(sp)
 180b934:	df000204 	addi	fp,sp,8
 180b938:	e13ffe15 	stw	r4,-8(fp)
 180b93c:	e17fff15 	stw	r5,-4(fp)
  IOWR_16DIRECT(address, 0, ((alt_u16)value)& 0xffff);
 180b940:	e0bfff17 	ldw	r2,-4(fp)
 180b944:	10ffffcc 	andi	r3,r2,65535
 180b948:	e0bffe17 	ldw	r2,-8(fp)
 180b94c:	10c0002d 	sthio	r3,0(r2)
  return;
}
 180b950:	e037883a 	mov	sp,fp
 180b954:	df000017 	ldw	fp,0(sp)
 180b958:	dec00104 	addi	sp,sp,4
 180b95c:	f800283a 	ret

0180b960 <alt_write_native_32bit>:

void alt_write_native_32bit( void* address, alt_u32 value)
{
 180b960:	defffd04 	addi	sp,sp,-12
 180b964:	df000215 	stw	fp,8(sp)
 180b968:	df000204 	addi	fp,sp,8
 180b96c:	e13ffe15 	stw	r4,-8(fp)
 180b970:	e17fff15 	stw	r5,-4(fp)
  IOWR_32DIRECT(address, 0, value);
 180b974:	e0ffff17 	ldw	r3,-4(fp)
 180b978:	e0bffe17 	ldw	r2,-8(fp)
 180b97c:	10c00035 	stwio	r3,0(r2)
  return;
}
 180b980:	e037883a 	mov	sp,fp
 180b984:	df000017 	ldw	fp,0(sp)
 180b988:	dec00104 	addi	sp,sp,4
 180b98c:	f800283a 	ret

0180b990 <alt_set_flash_width_func>:
 * 
 * Setup the function pointers for writing a byte to the flash for the width
 * of the device
 */
int alt_set_flash_width_func( alt_flash_cfi_dev* flash)
{ 
 180b990:	defffb04 	addi	sp,sp,-20
 180b994:	df000415 	stw	fp,16(sp)
 180b998:	df000404 	addi	fp,sp,16
 180b99c:	e13ffd15 	stw	r4,-12(fp)
  int ret_code = 0;
 180b9a0:	e03ffc15 	stw	zero,-16(fp)
  
  switch(flash->mode_width)
 180b9a4:	e0bffd17 	ldw	r2,-12(fp)
 180b9a8:	10802e17 	ldw	r2,184(r2)
 180b9ac:	e0bfff15 	stw	r2,-4(fp)
 180b9b0:	e0ffff17 	ldw	r3,-4(fp)
 180b9b4:	188000a0 	cmpeqi	r2,r3,2
 180b9b8:	1000261e 	bne	r2,zero,180ba54 <alt_set_flash_width_func+0xc4>
 180b9bc:	e0ffff17 	ldw	r3,-4(fp)
 180b9c0:	18800120 	cmpeqi	r2,r3,4
 180b9c4:	1000391e 	bne	r2,zero,180baac <alt_set_flash_width_func+0x11c>
 180b9c8:	e0ffff17 	ldw	r3,-4(fp)
 180b9cc:	18800060 	cmpeqi	r2,r3,1
 180b9d0:	1000011e 	bne	r2,zero,180b9d8 <alt_set_flash_width_func+0x48>
 180b9d4:	00003e06 	br	180bad0 <alt_set_flash_width_func+0x140>
  {
    case 1:
    {
      flash->write_native = alt_write_native_8bit;
 180b9d8:	e0fffd17 	ldw	r3,-12(fp)
 180b9dc:	00806074 	movhi	r2,385
 180b9e0:	10ae3e04 	addi	r2,r2,-18184
 180b9e4:	18803515 	stw	r2,212(r3)

      if (flash->device_width == 1)
 180b9e8:	e0bffd17 	ldw	r2,-12(fp)
 180b9ec:	10802f17 	ldw	r2,188(r2)
 180b9f0:	10800058 	cmpnei	r2,r2,1
 180b9f4:	1000051e 	bne	r2,zero,180ba0c <alt_set_flash_width_func+0x7c>
      {
        flash->write_command = alt_write_flash_command_8bit_device_8bit_mode;
 180b9f8:	e0fffd17 	ldw	r3,-12(fp)
 180b9fc:	00806074 	movhi	r2,385
 180ba00:	10adc904 	addi	r2,r2,-18652
 180ba04:	18803315 	stw	r2,204(r3)
 180ba08:	00003306 	br	180bad8 <alt_set_flash_width_func+0x148>
      }
      else if (flash->device_width == 2)
 180ba0c:	e0bffd17 	ldw	r2,-12(fp)
 180ba10:	10802f17 	ldw	r2,188(r2)
 180ba14:	10800098 	cmpnei	r2,r2,2
 180ba18:	1000051e 	bne	r2,zero,180ba30 <alt_set_flash_width_func+0xa0>
      {
        flash->write_command = alt_write_flash_command_16bit_device_8bit_mode;
 180ba1c:	e0fffd17 	ldw	r3,-12(fp)
 180ba20:	00806074 	movhi	r2,385
 180ba24:	10add804 	addi	r2,r2,-18592
 180ba28:	18803315 	stw	r2,204(r3)
 180ba2c:	00002a06 	br	180bad8 <alt_set_flash_width_func+0x148>
      }
      else if (flash->device_width == 4)
 180ba30:	e0bffd17 	ldw	r2,-12(fp)
 180ba34:	10802f17 	ldw	r2,188(r2)
 180ba38:	10800118 	cmpnei	r2,r2,4
 180ba3c:	1000261e 	bne	r2,zero,180bad8 <alt_set_flash_width_func+0x148>
      {
        flash->write_command = alt_write_flash_command_32bit_device_8bit_mode;
 180ba40:	e0fffd17 	ldw	r3,-12(fp)
 180ba44:	00806074 	movhi	r2,385
 180ba48:	10adf704 	addi	r2,r2,-18468
 180ba4c:	18803315 	stw	r2,204(r3)
      }
      break;
 180ba50:	00002106 	br	180bad8 <alt_set_flash_width_func+0x148>
    }
    case 2:
    {
      flash->write_native = alt_write_native_16bit;
 180ba54:	e0fffd17 	ldw	r3,-12(fp)
 180ba58:	00806074 	movhi	r2,385
 180ba5c:	10ae4b04 	addi	r2,r2,-18132
 180ba60:	18803515 	stw	r2,212(r3)

      if (flash->device_width == 2)
 180ba64:	e0bffd17 	ldw	r2,-12(fp)
 180ba68:	10802f17 	ldw	r2,188(r2)
 180ba6c:	10800098 	cmpnei	r2,r2,2
 180ba70:	1000051e 	bne	r2,zero,180ba88 <alt_set_flash_width_func+0xf8>
      {
        flash->write_command = alt_write_flash_command_16bit_device_16bit_mode;
 180ba74:	e0fffd17 	ldw	r3,-12(fp)
 180ba78:	00806074 	movhi	r2,385
 180ba7c:	10ae0904 	addi	r2,r2,-18396
 180ba80:	18803315 	stw	r2,204(r3)
 180ba84:	00001406 	br	180bad8 <alt_set_flash_width_func+0x148>
      }
      else if (flash->device_width == 4)
 180ba88:	e0bffd17 	ldw	r2,-12(fp)
 180ba8c:	10802f17 	ldw	r2,188(r2)
 180ba90:	10800118 	cmpnei	r2,r2,4
 180ba94:	1000101e 	bne	r2,zero,180bad8 <alt_set_flash_width_func+0x148>
      {
        flash->write_command = alt_write_flash_command_32bit_device_16bit_mode;
 180ba98:	e0fffd17 	ldw	r3,-12(fp)
 180ba9c:	00806074 	movhi	r2,385
 180baa0:	10ae1a04 	addi	r2,r2,-18328
 180baa4:	18803315 	stw	r2,204(r3)
      }

      break;
 180baa8:	00000b06 	br	180bad8 <alt_set_flash_width_func+0x148>
    }
    case 4:
    {
      flash->write_native = alt_write_native_32bit;
 180baac:	e0fffd17 	ldw	r3,-12(fp)
 180bab0:	00806074 	movhi	r2,385
 180bab4:	10ae5804 	addi	r2,r2,-18080
 180bab8:	18803515 	stw	r2,212(r3)
      flash->write_command = alt_write_flash_command_32bit_device_32bit_mode;
 180babc:	e0fffd17 	ldw	r3,-12(fp)
 180bac0:	00806074 	movhi	r2,385
 180bac4:	10ae2c04 	addi	r2,r2,-18256
 180bac8:	18803315 	stw	r2,204(r3)
      break;
 180bacc:	00000206 	br	180bad8 <alt_set_flash_width_func+0x148>
    }
    default:
    {
      ret_code = -EACCES;
 180bad0:	00bffcc4 	movi	r2,-13
 180bad4:	e0bffc15 	stw	r2,-16(fp)
    }
  }

  if (!ret_code)
 180bad8:	e0bffc17 	ldw	r2,-16(fp)
 180badc:	1004c03a 	cmpne	r2,r2,zero
 180bae0:	10001e1e 	bne	r2,zero,180bb5c <alt_set_flash_width_func+0x1cc>
  {
    switch(flash->device_width)
 180bae4:	e0bffd17 	ldw	r2,-12(fp)
 180bae8:	10802f17 	ldw	r2,188(r2)
 180baec:	e0bffe15 	stw	r2,-8(fp)
 180baf0:	e0fffe17 	ldw	r3,-8(fp)
 180baf4:	188000a0 	cmpeqi	r2,r3,2
 180baf8:	10000c1e 	bne	r2,zero,180bb2c <alt_set_flash_width_func+0x19c>
 180bafc:	e0fffe17 	ldw	r3,-8(fp)
 180bb00:	18800120 	cmpeqi	r2,r3,4
 180bb04:	10000e1e 	bne	r2,zero,180bb40 <alt_set_flash_width_func+0x1b0>
 180bb08:	e0fffe17 	ldw	r3,-8(fp)
 180bb0c:	18800060 	cmpeqi	r2,r3,1
 180bb10:	1000011e 	bne	r2,zero,180bb18 <alt_set_flash_width_func+0x188>
 180bb14:	00000f06 	br	180bb54 <alt_set_flash_width_func+0x1c4>
    {
      case 1:
      {
        flash->read_query = alt_read_query_entry_8bit;
 180bb18:	e0fffd17 	ldw	r3,-12(fp)
 180bb1c:	00806074 	movhi	r2,385
 180bb20:	10ad9604 	addi	r2,r2,-18856
 180bb24:	18803415 	stw	r2,208(r3)
        break;
 180bb28:	00000c06 	br	180bb5c <alt_set_flash_width_func+0x1cc>
      }
      case 2:
      {
        flash->read_query = alt_read_query_entry_16bit;
 180bb2c:	e0fffd17 	ldw	r3,-12(fp)
 180bb30:	00806074 	movhi	r2,385
 180bb34:	10ada604 	addi	r2,r2,-18792
 180bb38:	18803415 	stw	r2,208(r3)
        break;
 180bb3c:	00000706 	br	180bb5c <alt_set_flash_width_func+0x1cc>
      }
      case 4:
      {
        flash->read_query = alt_read_query_entry_32bit;
 180bb40:	e0fffd17 	ldw	r3,-12(fp)
 180bb44:	00806074 	movhi	r2,385
 180bb48:	10adb704 	addi	r2,r2,-18724
 180bb4c:	18803415 	stw	r2,208(r3)
        break;
 180bb50:	00000206 	br	180bb5c <alt_set_flash_width_func+0x1cc>
      }
      default:
      {
        ret_code = -EACCES;
 180bb54:	00bffcc4 	movi	r2,-13
 180bb58:	e0bffc15 	stw	r2,-16(fp)
      }
    }
  }

  return ret_code;
 180bb5c:	e0bffc17 	ldw	r2,-16(fp)
}
 180bb60:	e037883a 	mov	sp,fp
 180bb64:	df000017 	ldw	fp,0(sp)
 180bb68:	dec00104 	addi	sp,sp,4
 180bb6c:	f800283a 	ret

0180bb70 <alt_set_flash_algorithm_func>:
 * 
 * Setup the function pointers to the functions for this algorithm
 * 
 */
int alt_set_flash_algorithm_func( alt_flash_cfi_dev* flash)
{
 180bb70:	defffc04 	addi	sp,sp,-16
 180bb74:	df000315 	stw	fp,12(sp)
 180bb78:	df000304 	addi	fp,sp,12
 180bb7c:	e13ffe15 	stw	r4,-8(fp)
  int ret_code = 0;
 180bb80:	e03ffd15 	stw	zero,-12(fp)
 
  switch(flash->algorithm)
 180bb84:	e0bffe17 	ldw	r2,-8(fp)
 180bb88:	10802d17 	ldw	r2,180(r2)
 180bb8c:	e0bfff15 	stw	r2,-4(fp)
 180bb90:	e0ffff17 	ldw	r3,-4(fp)
 180bb94:	188000a0 	cmpeqi	r2,r3,2
 180bb98:	1000071e 	bne	r2,zero,180bbb8 <alt_set_flash_algorithm_func+0x48>
 180bb9c:	e0ffff17 	ldw	r3,-4(fp)
 180bba0:	188000e0 	cmpeqi	r2,r3,3
 180bba4:	10000d1e 	bne	r2,zero,180bbdc <alt_set_flash_algorithm_func+0x6c>
 180bba8:	e0ffff17 	ldw	r3,-4(fp)
 180bbac:	18800060 	cmpeqi	r2,r3,1
 180bbb0:	10000a1e 	bne	r2,zero,180bbdc <alt_set_flash_algorithm_func+0x6c>
 180bbb4:	00001206 	br	180bc00 <alt_set_flash_algorithm_func+0x90>
  {
    case CFI_ALG_AMD:
    {
      flash->dev.erase_block = alt_erase_block_amd;
 180bbb8:	e0fffe17 	ldw	r3,-8(fp)
 180bbbc:	00806074 	movhi	r2,385
 180bbc0:	10bf7404 	addi	r2,r2,-560
 180bbc4:	18800815 	stw	r2,32(r3)
      flash->dev.write_block = alt_program_amd;
 180bbc8:	e0fffe17 	ldw	r3,-8(fp)
 180bbcc:	00806074 	movhi	r2,385
 180bbd0:	10bf5a04 	addi	r2,r2,-664
 180bbd4:	18800915 	stw	r2,36(r3)
      break;
 180bbd8:	00000b06 	br	180bc08 <alt_set_flash_algorithm_func+0x98>
    }
    case CFI_ALG_INTEL:
    case CFI_ALG_INTEL_STRATA:
    {
      flash->dev.erase_block = alt_erase_block_intel;
 180bbdc:	e0fffe17 	ldw	r3,-8(fp)
 180bbe0:	00806074 	movhi	r2,385
 180bbe4:	10809304 	addi	r2,r2,588
 180bbe8:	18800815 	stw	r2,32(r3)
      flash->dev.write_block = alt_program_intel;
 180bbec:	e0fffe17 	ldw	r3,-8(fp)
 180bbf0:	00806074 	movhi	r2,385
 180bbf4:	10807204 	addi	r2,r2,456
 180bbf8:	18800915 	stw	r2,36(r3)
      break;
 180bbfc:	00000206 	br	180bc08 <alt_set_flash_algorithm_func+0x98>
    }
    default:
    {
      ret_code = -EIO;
 180bc00:	00bffec4 	movi	r2,-5
 180bc04:	e0bffd15 	stw	r2,-12(fp)
    }
  } 
  return ret_code;  
 180bc08:	e0bffd17 	ldw	r2,-12(fp)
}
 180bc0c:	e037883a 	mov	sp,fp
 180bc10:	df000017 	ldw	fp,0(sp)
 180bc14:	dec00104 	addi	sp,sp,4
 180bc18:	f800283a 	ret

0180bc1c <alt_read_16bit_query_entry>:
 * read_16bit_query_entry
 * 
 * Read a 16 bit entry from the CFI Query table
 */
static alt_u16 alt_read_16bit_query_entry(alt_flash_cfi_dev* flash, int address)
{
 180bc1c:	defffb04 	addi	sp,sp,-20
 180bc20:	dfc00415 	stw	ra,16(sp)
 180bc24:	df000315 	stw	fp,12(sp)
 180bc28:	df000304 	addi	fp,sp,12
 180bc2c:	e13ffe15 	stw	r4,-8(fp)
 180bc30:	e17fff15 	stw	r5,-4(fp)
  alt_u16 ret_code;

  ret_code = (*flash->read_query)( flash, address);
 180bc34:	e0bffe17 	ldw	r2,-8(fp)
 180bc38:	10803417 	ldw	r2,208(r2)
 180bc3c:	e13ffe17 	ldw	r4,-8(fp)
 180bc40:	e17fff17 	ldw	r5,-4(fp)
 180bc44:	103ee83a 	callr	r2
 180bc48:	10803fcc 	andi	r2,r2,255
 180bc4c:	e0bffd0d 	sth	r2,-12(fp)
  ret_code |= (((int)(*flash->read_query)(flash, address+1)) << 8);                   
 180bc50:	e0bffe17 	ldw	r2,-8(fp)
 180bc54:	10c03417 	ldw	r3,208(r2)
 180bc58:	e0bfff17 	ldw	r2,-4(fp)
 180bc5c:	11400044 	addi	r5,r2,1
 180bc60:	e13ffe17 	ldw	r4,-8(fp)
 180bc64:	183ee83a 	callr	r3
 180bc68:	10803fcc 	andi	r2,r2,255
 180bc6c:	1004923a 	slli	r2,r2,8
 180bc70:	1007883a 	mov	r3,r2
 180bc74:	e0bffd0b 	ldhu	r2,-12(fp)
 180bc78:	1884b03a 	or	r2,r3,r2
 180bc7c:	e0bffd0d 	sth	r2,-12(fp)

  return ret_code;
 180bc80:	e0bffd0b 	ldhu	r2,-12(fp)
}
 180bc84:	e037883a 	mov	sp,fp
 180bc88:	dfc00117 	ldw	ra,4(sp)
 180bc8c:	df000017 	ldw	fp,0(sp)
 180bc90:	dec00204 	addi	sp,sp,8
 180bc94:	f800283a 	ret

0180bc98 <alt_read_cfi_table>:
 * read_cfi_table
 * 
 * Read the CFI Table
 */
int alt_read_cfi_table(alt_flash_cfi_dev* flash)
{
 180bc98:	defff204 	addi	sp,sp,-56
 180bc9c:	dfc00d15 	stw	ra,52(sp)
 180bca0:	df000c15 	stw	fp,48(sp)
 180bca4:	dc000b15 	stw	r16,44(sp)
 180bca8:	df000b04 	addi	fp,sp,44
 180bcac:	e13fff15 	stw	r4,-4(fp)
  int   i,j;
  int   device_size;
  int   ret_code = 0;
 180bcb0:	e03ffb15 	stw	zero,-20(fp)
  int   size = 0;
 180bcb4:	e03ffa15 	stw	zero,-24(fp)
  int   swap;
  int   typical_timeout;
  int   max_timeout;
  int   offset = 0;
 180bcb8:	e03ff615 	stw	zero,-40(fp)
   
  /*
  * Check that the Primary Vendor Specific table
  * starts with the letters PRI                                                         
  */
  ret_code = alt_check_primary_table(flash);
 180bcbc:	e13fff17 	ldw	r4,-4(fp)
 180bcc0:	180c9c40 	call	180c9c4 <alt_check_primary_table>
 180bcc4:	e0bffb15 	stw	r2,-20(fp)

  if (!ret_code)
 180bcc8:	e0bffb17 	ldw	r2,-20(fp)
 180bccc:	1004c03a 	cmpne	r2,r2,zero
 180bcd0:	10014a1e 	bne	r2,zero,180c1fc <alt_read_cfi_table+0x564>
  {
    flash->algorithm = (*flash->read_query)(flash, 0x13);
 180bcd4:	e0bfff17 	ldw	r2,-4(fp)
 180bcd8:	10803417 	ldw	r2,208(r2)
 180bcdc:	e13fff17 	ldw	r4,-4(fp)
 180bce0:	014004c4 	movi	r5,19
 180bce4:	103ee83a 	callr	r2
 180bce8:	10c03fcc 	andi	r3,r2,255
 180bcec:	e0bfff17 	ldw	r2,-4(fp)
 180bcf0:	10c02d15 	stw	r3,180(r2)
  
    /* 
     * Let's read the write timeout values from the flash 
     * 
     */
    typical_timeout = (*flash->read_query)( flash, 0x1f);
 180bcf4:	e0bfff17 	ldw	r2,-4(fp)
 180bcf8:	10803417 	ldw	r2,208(r2)
 180bcfc:	e13fff17 	ldw	r4,-4(fp)
 180bd00:	014007c4 	movi	r5,31
 180bd04:	103ee83a 	callr	r2
 180bd08:	10803fcc 	andi	r2,r2,255
 180bd0c:	e0bff815 	stw	r2,-32(fp)
    max_timeout = (*flash->read_query)( flash, 0x23);
 180bd10:	e0bfff17 	ldw	r2,-4(fp)
 180bd14:	10803417 	ldw	r2,208(r2)
 180bd18:	e13fff17 	ldw	r4,-4(fp)
 180bd1c:	014008c4 	movi	r5,35
 180bd20:	103ee83a 	callr	r2
 180bd24:	10803fcc 	andi	r2,r2,255
 180bd28:	e0bff715 	stw	r2,-36(fp)
    
    if ((typical_timeout == 0 ) || (max_timeout == 0))
 180bd2c:	e0bff817 	ldw	r2,-32(fp)
 180bd30:	1005003a 	cmpeq	r2,r2,zero
 180bd34:	1000031e 	bne	r2,zero,180bd44 <alt_read_cfi_table+0xac>
 180bd38:	e0bff717 	ldw	r2,-36(fp)
 180bd3c:	1004c03a 	cmpne	r2,r2,zero
 180bd40:	1000041e 	bne	r2,zero,180bd54 <alt_read_cfi_table+0xbc>
    {
      flash->write_timeout = 1000; /* 1ms should be more than enough */
 180bd44:	e0ffff17 	ldw	r3,-4(fp)
 180bd48:	0080fa04 	movi	r2,1000
 180bd4c:	18803015 	stw	r2,192(r3)
     * 
     */
    typical_timeout = (*flash->read_query)( flash, 0x1f);
    max_timeout = (*flash->read_query)( flash, 0x23);
    
    if ((typical_timeout == 0 ) || (max_timeout == 0))
 180bd50:	00000706 	br	180bd70 <alt_read_cfi_table+0xd8>
    {
      flash->write_timeout = 1000; /* 1ms should be more than enough */
    }
    else
    {
      flash->write_timeout = (1 << typical_timeout) * (1 << max_timeout);
 180bd54:	00c00044 	movi	r3,1
 180bd58:	e0bff817 	ldw	r2,-32(fp)
 180bd5c:	1886983a 	sll	r3,r3,r2
 180bd60:	e0bff717 	ldw	r2,-36(fp)
 180bd64:	1886983a 	sll	r3,r3,r2
 180bd68:	e0bfff17 	ldw	r2,-4(fp)
 180bd6c:	10c03015 	stw	r3,192(r2)
    }
   
    /* Let's read the block erase timeout values from the flash */
    typical_timeout = (*flash->read_query)( flash, 0x21);
 180bd70:	e0bfff17 	ldw	r2,-4(fp)
 180bd74:	10803417 	ldw	r2,208(r2)
 180bd78:	e13fff17 	ldw	r4,-4(fp)
 180bd7c:	01400844 	movi	r5,33
 180bd80:	103ee83a 	callr	r2
 180bd84:	10803fcc 	andi	r2,r2,255
 180bd88:	e0bff815 	stw	r2,-32(fp)
    max_timeout = (*flash->read_query)( flash, 0x25);
 180bd8c:	e0bfff17 	ldw	r2,-4(fp)
 180bd90:	10803417 	ldw	r2,208(r2)
 180bd94:	e13fff17 	ldw	r4,-4(fp)
 180bd98:	01400944 	movi	r5,37
 180bd9c:	103ee83a 	callr	r2
 180bda0:	10803fcc 	andi	r2,r2,255
 180bda4:	e0bff715 	stw	r2,-36(fp)
    
    if ((typical_timeout == 0 ) || (max_timeout == 0))
 180bda8:	e0bff817 	ldw	r2,-32(fp)
 180bdac:	1005003a 	cmpeq	r2,r2,zero
 180bdb0:	1000031e 	bne	r2,zero,180bdc0 <alt_read_cfi_table+0x128>
 180bdb4:	e0bff717 	ldw	r2,-36(fp)
 180bdb8:	1004c03a 	cmpne	r2,r2,zero
 180bdbc:	1000051e 	bne	r2,zero,180bdd4 <alt_read_cfi_table+0x13c>
    {
      flash->erase_timeout = 20000000; /* 20s should be more than enough */
 180bdc0:	e0ffff17 	ldw	r3,-4(fp)
 180bdc4:	00804c74 	movhi	r2,305
 180bdc8:	108b4004 	addi	r2,r2,11520
 180bdcc:	18803115 	stw	r2,196(r3)
   
    /* Let's read the block erase timeout values from the flash */
    typical_timeout = (*flash->read_query)( flash, 0x21);
    max_timeout = (*flash->read_query)( flash, 0x25);
    
    if ((typical_timeout == 0 ) || (max_timeout == 0))
 180bdd0:	00000806 	br	180bdf4 <alt_read_cfi_table+0x15c>
    {
      flash->erase_timeout = 20000000; /* 20s should be more than enough */
    }
    else
    {
      flash->erase_timeout = (1 << typical_timeout) * (1 << max_timeout) * 1000;
 180bdd4:	00c00044 	movi	r3,1
 180bdd8:	e0bff817 	ldw	r2,-32(fp)
 180bddc:	1886983a 	sll	r3,r3,r2
 180bde0:	e0bff717 	ldw	r2,-36(fp)
 180bde4:	1884983a 	sll	r2,r3,r2
 180bde8:	10c0fa24 	muli	r3,r2,1000
 180bdec:	e0bfff17 	ldw	r2,-4(fp)
 180bdf0:	10c03115 	stw	r3,196(r2)
    }
   
    device_size = 0x1 << (*flash->read_query)( flash, 0x27);
 180bdf4:	e0bfff17 	ldw	r2,-4(fp)
 180bdf8:	10803417 	ldw	r2,208(r2)
 180bdfc:	e13fff17 	ldw	r4,-4(fp)
 180be00:	014009c4 	movi	r5,39
 180be04:	103ee83a 	callr	r2
 180be08:	10c03fcc 	andi	r3,r2,255
 180be0c:	00800044 	movi	r2,1
 180be10:	10c4983a 	sll	r2,r2,r3
 180be14:	e0bffc15 	stw	r2,-16(fp)
  
    flash->dev.number_of_regions = (*flash->read_query)(flash, 0x2c);
 180be18:	e0bfff17 	ldw	r2,-4(fp)
 180be1c:	10803417 	ldw	r2,208(r2)
 180be20:	e13fff17 	ldw	r4,-4(fp)
 180be24:	01400b04 	movi	r5,44
 180be28:	103ee83a 	callr	r2
 180be2c:	10c03fcc 	andi	r3,r2,255
 180be30:	e0bfff17 	ldw	r2,-4(fp)
 180be34:	10c00c15 	stw	r3,48(r2)
    
    if (flash->dev.number_of_regions > ALT_MAX_NUMBER_OF_FLASH_REGIONS)
 180be38:	e0bfff17 	ldw	r2,-4(fp)
 180be3c:	10800c17 	ldw	r2,48(r2)
 180be40:	10800250 	cmplti	r2,r2,9
 180be44:	1000031e 	bne	r2,zero,180be54 <alt_read_cfi_table+0x1bc>
    {
      ret_code = -ENOMEM;
 180be48:	00bffd04 	movi	r2,-12
 180be4c:	e0bffb15 	stw	r2,-20(fp)
 180be50:	00005e06 	br	180bfcc <alt_read_cfi_table+0x334>
    }
    else
    {
      for(i=0;i<flash->dev.number_of_regions;i++)
 180be54:	e03ffe15 	stw	zero,-8(fp)
 180be58:	00005306 	br	180bfa8 <alt_read_cfi_table+0x310>
      {
        flash->dev.region_info[i].number_of_blocks =  alt_read_16bit_query_entry( 
 180be5c:	e43ffe17 	ldw	r16,-8(fp)
 180be60:	e0bffe17 	ldw	r2,-8(fp)
 180be64:	1085883a 	add	r2,r2,r2
 180be68:	1085883a 	add	r2,r2,r2
 180be6c:	11400b44 	addi	r5,r2,45
 180be70:	e13fff17 	ldw	r4,-4(fp)
 180be74:	180bc1c0 	call	180bc1c <alt_read_16bit_query_entry>
 180be78:	113fffcc 	andi	r4,r2,65535
 180be7c:	e0ffff17 	ldw	r3,-4(fp)
 180be80:	8004913a 	slli	r2,r16,4
 180be84:	10c5883a 	add	r2,r2,r3
 180be88:	10800f04 	addi	r2,r2,60
 180be8c:	11000015 	stw	r4,0(r2)
                                                            flash,
                                                            (0x2D+i*4));
        flash->dev.region_info[i].number_of_blocks += 1; 
 180be90:	e17ffe17 	ldw	r5,-8(fp)
 180be94:	e0bffe17 	ldw	r2,-8(fp)
 180be98:	e0ffff17 	ldw	r3,-4(fp)
 180be9c:	1004913a 	slli	r2,r2,4
 180bea0:	10c5883a 	add	r2,r2,r3
 180bea4:	10800f04 	addi	r2,r2,60
 180bea8:	10800017 	ldw	r2,0(r2)
 180beac:	11000044 	addi	r4,r2,1
 180beb0:	e0ffff17 	ldw	r3,-4(fp)
 180beb4:	2804913a 	slli	r2,r5,4
 180beb8:	10c5883a 	add	r2,r2,r3
 180bebc:	10800f04 	addi	r2,r2,60
 180bec0:	11000015 	stw	r4,0(r2)
        flash->dev.region_info[i].block_size =  alt_read_16bit_query_entry( flash, 
 180bec4:	e43ffe17 	ldw	r16,-8(fp)
 180bec8:	e0bffe17 	ldw	r2,-8(fp)
 180becc:	1085883a 	add	r2,r2,r2
 180bed0:	1085883a 	add	r2,r2,r2
 180bed4:	11400bc4 	addi	r5,r2,47
 180bed8:	e13fff17 	ldw	r4,-4(fp)
 180bedc:	180bc1c0 	call	180bc1c <alt_read_16bit_query_entry>
 180bee0:	113fffcc 	andi	r4,r2,65535
 180bee4:	e0ffff17 	ldw	r3,-4(fp)
 180bee8:	8004913a 	slli	r2,r16,4
 180beec:	10c5883a 	add	r2,r2,r3
 180bef0:	10801004 	addi	r2,r2,64
 180bef4:	11000015 	stw	r4,0(r2)
                                                              (0x2F+i*4));
        flash->dev.region_info[i].block_size *= 256;
 180bef8:	e17ffe17 	ldw	r5,-8(fp)
 180befc:	e0bffe17 	ldw	r2,-8(fp)
 180bf00:	e0ffff17 	ldw	r3,-4(fp)
 180bf04:	1004913a 	slli	r2,r2,4
 180bf08:	10c5883a 	add	r2,r2,r3
 180bf0c:	10801004 	addi	r2,r2,64
 180bf10:	10800017 	ldw	r2,0(r2)
 180bf14:	1008923a 	slli	r4,r2,8
 180bf18:	e0ffff17 	ldw	r3,-4(fp)
 180bf1c:	2804913a 	slli	r2,r5,4
 180bf20:	10c5883a 	add	r2,r2,r3
 180bf24:	10801004 	addi	r2,r2,64
 180bf28:	11000015 	stw	r4,0(r2)
        flash->dev.region_info[i].region_size = 
 180bf2c:	e17ffe17 	ldw	r5,-8(fp)
 180bf30:	e0bffe17 	ldw	r2,-8(fp)
 180bf34:	e0ffff17 	ldw	r3,-4(fp)
 180bf38:	1004913a 	slli	r2,r2,4
 180bf3c:	10c5883a 	add	r2,r2,r3
 180bf40:	10800f04 	addi	r2,r2,60
 180bf44:	11000017 	ldw	r4,0(r2)
 180bf48:	e0bffe17 	ldw	r2,-8(fp)
 180bf4c:	e0ffff17 	ldw	r3,-4(fp)
 180bf50:	1004913a 	slli	r2,r2,4
 180bf54:	10c5883a 	add	r2,r2,r3
 180bf58:	10801004 	addi	r2,r2,64
 180bf5c:	10800017 	ldw	r2,0(r2)
 180bf60:	2089383a 	mul	r4,r4,r2
 180bf64:	e0ffff17 	ldw	r3,-4(fp)
 180bf68:	2804913a 	slli	r2,r5,4
 180bf6c:	10c5883a 	add	r2,r2,r3
 180bf70:	10800e04 	addi	r2,r2,56
 180bf74:	11000015 	stw	r4,0(r2)
                                    flash->dev.region_info[i].number_of_blocks 
                                    * flash->dev.region_info[i].block_size;
        size += flash->dev.region_info[i].region_size;
 180bf78:	e0bffe17 	ldw	r2,-8(fp)
 180bf7c:	e0ffff17 	ldw	r3,-4(fp)
 180bf80:	1004913a 	slli	r2,r2,4
 180bf84:	10c5883a 	add	r2,r2,r3
 180bf88:	10800e04 	addi	r2,r2,56
 180bf8c:	10c00017 	ldw	r3,0(r2)
 180bf90:	e0bffa17 	ldw	r2,-24(fp)
 180bf94:	10c5883a 	add	r2,r2,r3
 180bf98:	e0bffa15 	stw	r2,-24(fp)
    {
      ret_code = -ENOMEM;
    }
    else
    {
      for(i=0;i<flash->dev.number_of_regions;i++)
 180bf9c:	e0bffe17 	ldw	r2,-8(fp)
 180bfa0:	10800044 	addi	r2,r2,1
 180bfa4:	e0bffe15 	stw	r2,-8(fp)
 180bfa8:	e0bfff17 	ldw	r2,-4(fp)
 180bfac:	10c00c17 	ldw	r3,48(r2)
 180bfb0:	e0bffe17 	ldw	r2,-8(fp)
 180bfb4:	10ffa916 	blt	r2,r3,180be5c <alt_read_cfi_table+0x1c4>
                                    flash->dev.region_info[i].number_of_blocks 
                                    * flash->dev.region_info[i].block_size;
        size += flash->dev.region_info[i].region_size;
      }
       
      if (size != device_size)
 180bfb8:	e0fffa17 	ldw	r3,-24(fp)
 180bfbc:	e0bffc17 	ldw	r2,-16(fp)
 180bfc0:	18800226 	beq	r3,r2,180bfcc <alt_read_cfi_table+0x334>
      {
        ret_code = -ENODEV;
 180bfc4:	00bffb44 	movi	r2,-19
 180bfc8:	e0bffb15 	stw	r2,-20(fp)
      }
    }
    
    boot_mode = (*flash->read_query)( flash, flash->primary_address + 0xf);
 180bfcc:	e0bfff17 	ldw	r2,-4(fp)
 180bfd0:	10c03417 	ldw	r3,208(r2)
 180bfd4:	e0bfff17 	ldw	r2,-4(fp)
 180bfd8:	10803217 	ldw	r2,200(r2)
 180bfdc:	114003c4 	addi	r5,r2,15
 180bfe0:	e13fff17 	ldw	r4,-4(fp)
 180bfe4:	183ee83a 	callr	r3
 180bfe8:	e0bff505 	stb	r2,-44(fp)
     * Intel Flash parts describe the sections in the order they appear
     * for AMD they just put all the small ones first then the bigger ones
     * So if it's a top boot part we have to reverse the order of the sectors
     * so they're in the correct order
     */
    if ((flash->algorithm == CFI_ALG_AMD) && (boot_mode == TOP_BOOT_DEVICE))
 180bfec:	e0bfff17 	ldw	r2,-4(fp)
 180bff0:	10802d17 	ldw	r2,180(r2)
 180bff4:	10800098 	cmpnei	r2,r2,2
 180bff8:	1000601e 	bne	r2,zero,180c17c <alt_read_cfi_table+0x4e4>
 180bffc:	e0bff503 	ldbu	r2,-44(fp)
 180c000:	108000d8 	cmpnei	r2,r2,3
 180c004:	10005d1e 	bne	r2,zero,180c17c <alt_read_cfi_table+0x4e4>
    {
      for(i=flash->dev.number_of_regions-1, j=0;
 180c008:	e0bfff17 	ldw	r2,-4(fp)
 180c00c:	10800c17 	ldw	r2,48(r2)
 180c010:	10bfffc4 	addi	r2,r2,-1
 180c014:	e0bffe15 	stw	r2,-8(fp)
 180c018:	e03ffd15 	stw	zero,-12(fp)
          j<=i;i--,j++)
 180c01c:	00005406 	br	180c170 <alt_read_cfi_table+0x4d8>
      {
        swap = flash->dev.region_info[i].region_size;
 180c020:	e0bffe17 	ldw	r2,-8(fp)
 180c024:	e0ffff17 	ldw	r3,-4(fp)
 180c028:	1004913a 	slli	r2,r2,4
 180c02c:	10c5883a 	add	r2,r2,r3
 180c030:	10800e04 	addi	r2,r2,56
 180c034:	10800017 	ldw	r2,0(r2)
 180c038:	e0bff915 	stw	r2,-28(fp)
        flash->dev.region_info[i].region_size =  
 180c03c:	e17ffe17 	ldw	r5,-8(fp)
 180c040:	e0bffd17 	ldw	r2,-12(fp)
 180c044:	e0ffff17 	ldw	r3,-4(fp)
 180c048:	1004913a 	slli	r2,r2,4
 180c04c:	10c5883a 	add	r2,r2,r3
 180c050:	10800e04 	addi	r2,r2,56
 180c054:	11000017 	ldw	r4,0(r2)
 180c058:	e0ffff17 	ldw	r3,-4(fp)
 180c05c:	2804913a 	slli	r2,r5,4
 180c060:	10c5883a 	add	r2,r2,r3
 180c064:	10800e04 	addi	r2,r2,56
 180c068:	11000015 	stw	r4,0(r2)
                                flash->dev.region_info[j].region_size;
        flash->dev.region_info[j].region_size = swap;
 180c06c:	e0bffd17 	ldw	r2,-12(fp)
 180c070:	e0ffff17 	ldw	r3,-4(fp)
 180c074:	1004913a 	slli	r2,r2,4
 180c078:	10c5883a 	add	r2,r2,r3
 180c07c:	10c00e04 	addi	r3,r2,56
 180c080:	e0bff917 	ldw	r2,-28(fp)
 180c084:	18800015 	stw	r2,0(r3)

        swap = flash->dev.region_info[i].block_size;
 180c088:	e0bffe17 	ldw	r2,-8(fp)
 180c08c:	e0ffff17 	ldw	r3,-4(fp)
 180c090:	1004913a 	slli	r2,r2,4
 180c094:	10c5883a 	add	r2,r2,r3
 180c098:	10801004 	addi	r2,r2,64
 180c09c:	10800017 	ldw	r2,0(r2)
 180c0a0:	e0bff915 	stw	r2,-28(fp)
        flash->dev.region_info[i].block_size =  
 180c0a4:	e17ffe17 	ldw	r5,-8(fp)
 180c0a8:	e0bffd17 	ldw	r2,-12(fp)
 180c0ac:	e0ffff17 	ldw	r3,-4(fp)
 180c0b0:	1004913a 	slli	r2,r2,4
 180c0b4:	10c5883a 	add	r2,r2,r3
 180c0b8:	10801004 	addi	r2,r2,64
 180c0bc:	11000017 	ldw	r4,0(r2)
 180c0c0:	e0ffff17 	ldw	r3,-4(fp)
 180c0c4:	2804913a 	slli	r2,r5,4
 180c0c8:	10c5883a 	add	r2,r2,r3
 180c0cc:	10801004 	addi	r2,r2,64
 180c0d0:	11000015 	stw	r4,0(r2)
                                flash->dev.region_info[j].block_size;
        flash->dev.region_info[j].block_size = swap;
 180c0d4:	e0bffd17 	ldw	r2,-12(fp)
 180c0d8:	e0ffff17 	ldw	r3,-4(fp)
 180c0dc:	1004913a 	slli	r2,r2,4
 180c0e0:	10c5883a 	add	r2,r2,r3
 180c0e4:	10c01004 	addi	r3,r2,64
 180c0e8:	e0bff917 	ldw	r2,-28(fp)
 180c0ec:	18800015 	stw	r2,0(r3)
 
        swap = flash->dev.region_info[i].number_of_blocks;
 180c0f0:	e0bffe17 	ldw	r2,-8(fp)
 180c0f4:	e0ffff17 	ldw	r3,-4(fp)
 180c0f8:	1004913a 	slli	r2,r2,4
 180c0fc:	10c5883a 	add	r2,r2,r3
 180c100:	10800f04 	addi	r2,r2,60
 180c104:	10800017 	ldw	r2,0(r2)
 180c108:	e0bff915 	stw	r2,-28(fp)
        flash->dev.region_info[i].number_of_blocks =  
 180c10c:	e17ffe17 	ldw	r5,-8(fp)
 180c110:	e0bffd17 	ldw	r2,-12(fp)
 180c114:	e0ffff17 	ldw	r3,-4(fp)
 180c118:	1004913a 	slli	r2,r2,4
 180c11c:	10c5883a 	add	r2,r2,r3
 180c120:	10800f04 	addi	r2,r2,60
 180c124:	11000017 	ldw	r4,0(r2)
 180c128:	e0ffff17 	ldw	r3,-4(fp)
 180c12c:	2804913a 	slli	r2,r5,4
 180c130:	10c5883a 	add	r2,r2,r3
 180c134:	10800f04 	addi	r2,r2,60
 180c138:	11000015 	stw	r4,0(r2)
                                flash->dev.region_info[j].number_of_blocks;
        flash->dev.region_info[j].number_of_blocks = swap;
 180c13c:	e0bffd17 	ldw	r2,-12(fp)
 180c140:	e0ffff17 	ldw	r3,-4(fp)
 180c144:	1004913a 	slli	r2,r2,4
 180c148:	10c5883a 	add	r2,r2,r3
 180c14c:	10c00f04 	addi	r3,r2,60
 180c150:	e0bff917 	ldw	r2,-28(fp)
 180c154:	18800015 	stw	r2,0(r3)
     * so they're in the correct order
     */
    if ((flash->algorithm == CFI_ALG_AMD) && (boot_mode == TOP_BOOT_DEVICE))
    {
      for(i=flash->dev.number_of_regions-1, j=0;
          j<=i;i--,j++)
 180c158:	e0bffe17 	ldw	r2,-8(fp)
 180c15c:	10bfffc4 	addi	r2,r2,-1
 180c160:	e0bffe15 	stw	r2,-8(fp)
 180c164:	e0bffd17 	ldw	r2,-12(fp)
 180c168:	10800044 	addi	r2,r2,1
 180c16c:	e0bffd15 	stw	r2,-12(fp)
 180c170:	e0fffd17 	ldw	r3,-12(fp)
 180c174:	e0bffe17 	ldw	r2,-8(fp)
 180c178:	10ffa90e 	bge	r2,r3,180c020 <alt_read_cfi_table+0x388>
        flash->dev.region_info[j].number_of_blocks = swap;

      } 
    }
    
    for(i=0;i<flash->dev.number_of_regions;i++)
 180c17c:	e03ffe15 	stw	zero,-8(fp)
 180c180:	00001306 	br	180c1d0 <alt_read_cfi_table+0x538>
    {
      flash->dev.region_info[i].offset = offset;
 180c184:	e0bffe17 	ldw	r2,-8(fp)
 180c188:	e0ffff17 	ldw	r3,-4(fp)
 180c18c:	1004913a 	slli	r2,r2,4
 180c190:	10c5883a 	add	r2,r2,r3
 180c194:	10c00d04 	addi	r3,r2,52
 180c198:	e0bff617 	ldw	r2,-40(fp)
 180c19c:	18800015 	stw	r2,0(r3)
      offset += flash->dev.region_info[i].region_size;
 180c1a0:	e0bffe17 	ldw	r2,-8(fp)
 180c1a4:	e0ffff17 	ldw	r3,-4(fp)
 180c1a8:	1004913a 	slli	r2,r2,4
 180c1ac:	10c5883a 	add	r2,r2,r3
 180c1b0:	10800e04 	addi	r2,r2,56
 180c1b4:	10c00017 	ldw	r3,0(r2)
 180c1b8:	e0bff617 	ldw	r2,-40(fp)
 180c1bc:	10c5883a 	add	r2,r2,r3
 180c1c0:	e0bff615 	stw	r2,-40(fp)
        flash->dev.region_info[j].number_of_blocks = swap;

      } 
    }
    
    for(i=0;i<flash->dev.number_of_regions;i++)
 180c1c4:	e0bffe17 	ldw	r2,-8(fp)
 180c1c8:	10800044 	addi	r2,r2,1
 180c1cc:	e0bffe15 	stw	r2,-8(fp)
 180c1d0:	e0bfff17 	ldw	r2,-4(fp)
 180c1d4:	10c00c17 	ldw	r3,48(r2)
 180c1d8:	e0bffe17 	ldw	r2,-8(fp)
 180c1dc:	10ffe916 	blt	r2,r3,180c184 <alt_read_cfi_table+0x4ec>
    {
      flash->dev.region_info[i].offset = offset;
      offset += flash->dev.region_info[i].region_size;
    }
    
    (*flash->write_command)(flash->dev.base_addr, 
 180c1e0:	e0bfff17 	ldw	r2,-4(fp)
 180c1e4:	10c03317 	ldw	r3,204(r2)
 180c1e8:	e0bfff17 	ldw	r2,-4(fp)
 180c1ec:	11000a17 	ldw	r4,40(r2)
 180c1f0:	01401544 	movi	r5,85
 180c1f4:	01803fc4 	movi	r6,255
 180c1f8:	183ee83a 	callr	r3
                            0x55, 
                            READ_ARRAY_MODE);
  }  

  return ret_code;
 180c1fc:	e0bffb17 	ldw	r2,-20(fp)
}
 180c200:	e037883a 	mov	sp,fp
 180c204:	dfc00217 	ldw	ra,8(sp)
 180c208:	df000117 	ldw	fp,4(sp)
 180c20c:	dc000017 	ldw	r16,0(sp)
 180c210:	dec00304 	addi	sp,sp,12
 180c214:	f800283a 	ret

0180c218 <alt_read_cfi_width>:
 * 
 * Work out the width of the device we're talking to and sanity check that we  
 * can read the CFI and the Primary Vendor specific Table
 */
int alt_read_cfi_width(alt_flash_cfi_dev* flash)
{
 180c218:	defff704 	addi	sp,sp,-36
 180c21c:	dfc00815 	stw	ra,32(sp)
 180c220:	df000715 	stw	fp,28(sp)
 180c224:	df000704 	addi	fp,sp,28
 180c228:	e13fff15 	stw	r4,-4(fp)
  int i;
  alt_u8 byte_id[12];
  alt_u16 iface;
  int ret_code = 0;
 180c22c:	e03ff915 	stw	zero,-28(fp)

  /*
  * Check for 8 bit wide flash
  */
  alt_write_flash_command_8bit_device_8bit_mode(flash->dev.base_addr, 0x55, QUERY_MODE);
 180c230:	e0bfff17 	ldw	r2,-4(fp)
 180c234:	11000a17 	ldw	r4,40(r2)
 180c238:	01401544 	movi	r5,85
 180c23c:	01802604 	movi	r6,152
 180c240:	180b7240 	call	180b724 <alt_write_flash_command_8bit_device_8bit_mode>

  for(i=0;i<3;i++)
 180c244:	e03ffb15 	stw	zero,-20(fp)
 180c248:	00000f06 	br	180c288 <alt_read_cfi_width+0x70>
  {
    byte_id[i] = IORD_8DIRECT(flash->dev.base_addr, QUERY_ADDR+i);
 180c24c:	e13ffb17 	ldw	r4,-20(fp)
 180c250:	e0bfff17 	ldw	r2,-4(fp)
 180c254:	10800a17 	ldw	r2,40(r2)
 180c258:	1007883a 	mov	r3,r2
 180c25c:	e0bffb17 	ldw	r2,-20(fp)
 180c260:	1885883a 	add	r2,r3,r2
 180c264:	10800404 	addi	r2,r2,16
 180c268:	10800023 	ldbuio	r2,0(r2)
 180c26c:	1007883a 	mov	r3,r2
 180c270:	e0bffc04 	addi	r2,fp,-16
 180c274:	1105883a 	add	r2,r2,r4
 180c278:	10c00005 	stb	r3,0(r2)
  /*
  * Check for 8 bit wide flash
  */
  alt_write_flash_command_8bit_device_8bit_mode(flash->dev.base_addr, 0x55, QUERY_MODE);

  for(i=0;i<3;i++)
 180c27c:	e0bffb17 	ldw	r2,-20(fp)
 180c280:	10800044 	addi	r2,r2,1
 180c284:	e0bffb15 	stw	r2,-20(fp)
 180c288:	e0bffb17 	ldw	r2,-20(fp)
 180c28c:	108000d0 	cmplti	r2,r2,3
 180c290:	103fee1e 	bne	r2,zero,180c24c <alt_read_cfi_width+0x34>
  {
    byte_id[i] = IORD_8DIRECT(flash->dev.base_addr, QUERY_ADDR+i);
  }

  if ((byte_id[0] == 'Q') &&
 180c294:	e0bffc03 	ldbu	r2,-16(fp)
 180c298:	10803fcc 	andi	r2,r2,255
 180c29c:	10801458 	cmpnei	r2,r2,81
 180c2a0:	10001d1e 	bne	r2,zero,180c318 <alt_read_cfi_width+0x100>
 180c2a4:	e0bffc43 	ldbu	r2,-15(fp)
 180c2a8:	10803fcc 	andi	r2,r2,255
 180c2ac:	10801498 	cmpnei	r2,r2,82
 180c2b0:	1000191e 	bne	r2,zero,180c318 <alt_read_cfi_width+0x100>
 180c2b4:	e0bffc83 	ldbu	r2,-14(fp)
 180c2b8:	10803fcc 	andi	r2,r2,255
 180c2bc:	10801658 	cmpnei	r2,r2,89
 180c2c0:	1000151e 	bne	r2,zero,180c318 <alt_read_cfi_width+0x100>
      (byte_id[1] == 'R') &&
      (byte_id[2] == 'Y'))
  {
    flash->mode_width = 1;
 180c2c4:	e0ffff17 	ldw	r3,-4(fp)
 180c2c8:	00800044 	movi	r2,1
 180c2cc:	18802e15 	stw	r2,184(r3)
    flash->device_width = 1; 
 180c2d0:	e0ffff17 	ldw	r3,-4(fp)
 180c2d4:	00800044 	movi	r2,1
 180c2d8:	18802f15 	stw	r2,188(r3)
    iface = IORD_16DIRECT(flash->dev.base_addr, INTERFACE_ADDR);
 180c2dc:	e0bfff17 	ldw	r2,-4(fp)
 180c2e0:	10800a17 	ldw	r2,40(r2)
 180c2e4:	10800a04 	addi	r2,r2,40
 180c2e8:	1080002b 	ldhuio	r2,0(r2)
 180c2ec:	e0bffa0d 	sth	r2,-24(fp)
    iface += 1;
 180c2f0:	e0bffa0b 	ldhu	r2,-24(fp)
 180c2f4:	10800044 	addi	r2,r2,1
 180c2f8:	e0bffa0d 	sth	r2,-24(fp)
    if (!(iface & 0x1))
 180c2fc:	e0bffa0b 	ldhu	r2,-24(fp)
 180c300:	1080004c 	andi	r2,r2,1
 180c304:	1004c03a 	cmpne	r2,r2,zero
 180c308:	1001a81e 	bne	r2,zero,180c9ac <alt_read_cfi_width+0x794>
    {
      ret_code = -ENODEV;
 180c30c:	00bffb44 	movi	r2,-19
 180c310:	e0bff915 	stw	r2,-28(fp)
  for(i=0;i<3;i++)
  {
    byte_id[i] = IORD_8DIRECT(flash->dev.base_addr, QUERY_ADDR+i);
  }

  if ((byte_id[0] == 'Q') &&
 180c314:	0001a506 	br	180c9ac <alt_read_cfi_width+0x794>
  else
  {
    /*
    * Check for 8/16 bit in byte wide mode
    */
    alt_write_flash_command_16bit_device_8bit_mode(flash->dev.base_addr, 0x55, QUERY_MODE);
 180c318:	e0bfff17 	ldw	r2,-4(fp)
 180c31c:	11000a17 	ldw	r4,40(r2)
 180c320:	01401544 	movi	r5,85
 180c324:	01802604 	movi	r6,152
 180c328:	180b7600 	call	180b760 <alt_write_flash_command_16bit_device_8bit_mode>
    for(i=0;i<6;i++)
 180c32c:	e03ffb15 	stw	zero,-20(fp)
 180c330:	00000f06 	br	180c370 <alt_read_cfi_width+0x158>
    {
      byte_id[i] = IORD_8DIRECT(flash->dev.base_addr, (QUERY_ADDR*2)+i);
 180c334:	e13ffb17 	ldw	r4,-20(fp)
 180c338:	e0bfff17 	ldw	r2,-4(fp)
 180c33c:	10800a17 	ldw	r2,40(r2)
 180c340:	1007883a 	mov	r3,r2
 180c344:	e0bffb17 	ldw	r2,-20(fp)
 180c348:	1885883a 	add	r2,r3,r2
 180c34c:	10800804 	addi	r2,r2,32
 180c350:	10800023 	ldbuio	r2,0(r2)
 180c354:	1007883a 	mov	r3,r2
 180c358:	e0bffc04 	addi	r2,fp,-16
 180c35c:	1105883a 	add	r2,r2,r4
 180c360:	10c00005 	stb	r3,0(r2)
  {
    /*
    * Check for 8/16 bit in byte wide mode
    */
    alt_write_flash_command_16bit_device_8bit_mode(flash->dev.base_addr, 0x55, QUERY_MODE);
    for(i=0;i<6;i++)
 180c364:	e0bffb17 	ldw	r2,-20(fp)
 180c368:	10800044 	addi	r2,r2,1
 180c36c:	e0bffb15 	stw	r2,-20(fp)
 180c370:	e0bffb17 	ldw	r2,-20(fp)
 180c374:	10800190 	cmplti	r2,r2,6
 180c378:	103fee1e 	bne	r2,zero,180c334 <alt_read_cfi_width+0x11c>
    {
      byte_id[i] = IORD_8DIRECT(flash->dev.base_addr, (QUERY_ADDR*2)+i);
    }

    if ((byte_id[0] == 'Q') && 
 180c37c:	e0bffc03 	ldbu	r2,-16(fp)
 180c380:	10803fcc 	andi	r2,r2,255
 180c384:	10801458 	cmpnei	r2,r2,81
 180c388:	1000291e 	bne	r2,zero,180c430 <alt_read_cfi_width+0x218>
 180c38c:	e0bffc43 	ldbu	r2,-15(fp)
 180c390:	10803fcc 	andi	r2,r2,255
 180c394:	10801458 	cmpnei	r2,r2,81
 180c398:	1000251e 	bne	r2,zero,180c430 <alt_read_cfi_width+0x218>
 180c39c:	e0bffc83 	ldbu	r2,-14(fp)
 180c3a0:	10803fcc 	andi	r2,r2,255
 180c3a4:	10801498 	cmpnei	r2,r2,82
 180c3a8:	1000211e 	bne	r2,zero,180c430 <alt_read_cfi_width+0x218>
 180c3ac:	e0bffcc3 	ldbu	r2,-13(fp)
 180c3b0:	10803fcc 	andi	r2,r2,255
 180c3b4:	10801498 	cmpnei	r2,r2,82
 180c3b8:	10001d1e 	bne	r2,zero,180c430 <alt_read_cfi_width+0x218>
 180c3bc:	e0bffd03 	ldbu	r2,-12(fp)
 180c3c0:	10803fcc 	andi	r2,r2,255
 180c3c4:	10801658 	cmpnei	r2,r2,89
 180c3c8:	1000191e 	bne	r2,zero,180c430 <alt_read_cfi_width+0x218>
 180c3cc:	e0bffd43 	ldbu	r2,-11(fp)
 180c3d0:	10803fcc 	andi	r2,r2,255
 180c3d4:	10801658 	cmpnei	r2,r2,89
 180c3d8:	1000151e 	bne	r2,zero,180c430 <alt_read_cfi_width+0x218>
        (byte_id[2] == 'R') &&
        (byte_id[3] == 'R') && 
        (byte_id[4] == 'Y') && 
        (byte_id[5] == 'Y'))
    {
      flash->mode_width = 1;
 180c3dc:	e0ffff17 	ldw	r3,-4(fp)
 180c3e0:	00800044 	movi	r2,1
 180c3e4:	18802e15 	stw	r2,184(r3)
      flash->device_width = 2; 
 180c3e8:	e0ffff17 	ldw	r3,-4(fp)
 180c3ec:	00800084 	movi	r2,2
 180c3f0:	18802f15 	stw	r2,188(r3)
      iface = IORD_16DIRECT(flash->dev.base_addr, INTERFACE_ADDR*2);
 180c3f4:	e0bfff17 	ldw	r2,-4(fp)
 180c3f8:	10800a17 	ldw	r2,40(r2)
 180c3fc:	10801404 	addi	r2,r2,80
 180c400:	1080002b 	ldhuio	r2,0(r2)
 180c404:	e0bffa0d 	sth	r2,-24(fp)
      iface += 1;
 180c408:	e0bffa0b 	ldhu	r2,-24(fp)
 180c40c:	10800044 	addi	r2,r2,1
 180c410:	e0bffa0d 	sth	r2,-24(fp)
      if (!(iface & 0x1))
 180c414:	e0bffa0b 	ldhu	r2,-24(fp)
 180c418:	1080004c 	andi	r2,r2,1
 180c41c:	1004c03a 	cmpne	r2,r2,zero
 180c420:	1001621e 	bne	r2,zero,180c9ac <alt_read_cfi_width+0x794>
      {
        ret_code = -ENODEV;
 180c424:	00bffb44 	movi	r2,-19
 180c428:	e0bff915 	stw	r2,-28(fp)
    for(i=0;i<6;i++)
    {
      byte_id[i] = IORD_8DIRECT(flash->dev.base_addr, (QUERY_ADDR*2)+i);
    }

    if ((byte_id[0] == 'Q') && 
 180c42c:	00015f06 	br	180c9ac <alt_read_cfi_width+0x794>
    else
    {
      /*
      * Check for 16 bit flash in word mode
      */
      alt_write_flash_command_16bit_device_16bit_mode(flash->dev.base_addr, 0x55, QUERY_MODE);
 180c430:	e0bfff17 	ldw	r2,-4(fp)
 180c434:	11000a17 	ldw	r4,40(r2)
 180c438:	01401544 	movi	r5,85
 180c43c:	01802604 	movi	r6,152
 180c440:	180b8240 	call	180b824 <alt_write_flash_command_16bit_device_16bit_mode>
      for(i=0;i<6;i++)
 180c444:	e03ffb15 	stw	zero,-20(fp)
 180c448:	00000f06 	br	180c488 <alt_read_cfi_width+0x270>
      {
        byte_id[i] = IORD_8DIRECT(flash->dev.base_addr, (QUERY_ADDR*2)+i);
 180c44c:	e13ffb17 	ldw	r4,-20(fp)
 180c450:	e0bfff17 	ldw	r2,-4(fp)
 180c454:	10800a17 	ldw	r2,40(r2)
 180c458:	1007883a 	mov	r3,r2
 180c45c:	e0bffb17 	ldw	r2,-20(fp)
 180c460:	1885883a 	add	r2,r3,r2
 180c464:	10800804 	addi	r2,r2,32
 180c468:	10800023 	ldbuio	r2,0(r2)
 180c46c:	1007883a 	mov	r3,r2
 180c470:	e0bffc04 	addi	r2,fp,-16
 180c474:	1105883a 	add	r2,r2,r4
 180c478:	10c00005 	stb	r3,0(r2)
    {
      /*
      * Check for 16 bit flash in word mode
      */
      alt_write_flash_command_16bit_device_16bit_mode(flash->dev.base_addr, 0x55, QUERY_MODE);
      for(i=0;i<6;i++)
 180c47c:	e0bffb17 	ldw	r2,-20(fp)
 180c480:	10800044 	addi	r2,r2,1
 180c484:	e0bffb15 	stw	r2,-20(fp)
 180c488:	e0bffb17 	ldw	r2,-20(fp)
 180c48c:	10800190 	cmplti	r2,r2,6
 180c490:	103fee1e 	bne	r2,zero,180c44c <alt_read_cfi_width+0x234>
      {
        byte_id[i] = IORD_8DIRECT(flash->dev.base_addr, (QUERY_ADDR*2)+i);
      }

      if ((byte_id[0] == 'Q') && 
 180c494:	e0bffc03 	ldbu	r2,-16(fp)
 180c498:	10803fcc 	andi	r2,r2,255
 180c49c:	10801458 	cmpnei	r2,r2,81
 180c4a0:	1000291e 	bne	r2,zero,180c548 <alt_read_cfi_width+0x330>
 180c4a4:	e0bffc43 	ldbu	r2,-15(fp)
 180c4a8:	10803fcc 	andi	r2,r2,255
 180c4ac:	1004c03a 	cmpne	r2,r2,zero
 180c4b0:	1000251e 	bne	r2,zero,180c548 <alt_read_cfi_width+0x330>
 180c4b4:	e0bffc83 	ldbu	r2,-14(fp)
 180c4b8:	10803fcc 	andi	r2,r2,255
 180c4bc:	10801498 	cmpnei	r2,r2,82
 180c4c0:	1000211e 	bne	r2,zero,180c548 <alt_read_cfi_width+0x330>
 180c4c4:	e0bffcc3 	ldbu	r2,-13(fp)
 180c4c8:	10803fcc 	andi	r2,r2,255
 180c4cc:	1004c03a 	cmpne	r2,r2,zero
 180c4d0:	10001d1e 	bne	r2,zero,180c548 <alt_read_cfi_width+0x330>
 180c4d4:	e0bffd03 	ldbu	r2,-12(fp)
 180c4d8:	10803fcc 	andi	r2,r2,255
 180c4dc:	10801658 	cmpnei	r2,r2,89
 180c4e0:	1000191e 	bne	r2,zero,180c548 <alt_read_cfi_width+0x330>
 180c4e4:	e0bffd43 	ldbu	r2,-11(fp)
 180c4e8:	10803fcc 	andi	r2,r2,255
 180c4ec:	1004c03a 	cmpne	r2,r2,zero
 180c4f0:	1000151e 	bne	r2,zero,180c548 <alt_read_cfi_width+0x330>
          (byte_id[2] == 'R') && 
          (byte_id[3] == '\0') && 
          (byte_id[4] == 'Y') && 
          (byte_id[5] == '\0'))
      {
        flash->mode_width = 2;
 180c4f4:	e0ffff17 	ldw	r3,-4(fp)
 180c4f8:	00800084 	movi	r2,2
 180c4fc:	18802e15 	stw	r2,184(r3)
        flash->device_width = 2; 
 180c500:	e0ffff17 	ldw	r3,-4(fp)
 180c504:	00800084 	movi	r2,2
 180c508:	18802f15 	stw	r2,188(r3)
        iface = IORD_16DIRECT(flash->dev.base_addr, INTERFACE_ADDR*2);
 180c50c:	e0bfff17 	ldw	r2,-4(fp)
 180c510:	10800a17 	ldw	r2,40(r2)
 180c514:	10801404 	addi	r2,r2,80
 180c518:	1080002b 	ldhuio	r2,0(r2)
 180c51c:	e0bffa0d 	sth	r2,-24(fp)
        iface += 1;
 180c520:	e0bffa0b 	ldhu	r2,-24(fp)
 180c524:	10800044 	addi	r2,r2,1
 180c528:	e0bffa0d 	sth	r2,-24(fp)
        if (!(iface & 0x2))
 180c52c:	e0bffa0b 	ldhu	r2,-24(fp)
 180c530:	1080008c 	andi	r2,r2,2
 180c534:	1004c03a 	cmpne	r2,r2,zero
 180c538:	10011c1e 	bne	r2,zero,180c9ac <alt_read_cfi_width+0x794>
        {
          ret_code = -ENODEV;
 180c53c:	00bffb44 	movi	r2,-19
 180c540:	e0bff915 	stw	r2,-28(fp)
      for(i=0;i<6;i++)
      {
        byte_id[i] = IORD_8DIRECT(flash->dev.base_addr, (QUERY_ADDR*2)+i);
      }

      if ((byte_id[0] == 'Q') && 
 180c544:	00011906 	br	180c9ac <alt_read_cfi_width+0x794>
      else
      {
        /*
        * Check for 32bit wide flash in 32 bit mode
        */
        alt_write_flash_command_32bit_device_32bit_mode(flash->dev.base_addr, 0x55, QUERY_MODE);
 180c548:	e0bfff17 	ldw	r2,-4(fp)
 180c54c:	11000a17 	ldw	r4,40(r2)
 180c550:	01401544 	movi	r5,85
 180c554:	01802604 	movi	r6,152
 180c558:	180b8b00 	call	180b8b0 <alt_write_flash_command_32bit_device_32bit_mode>
        for(i=0;i<12;i++)
 180c55c:	e03ffb15 	stw	zero,-20(fp)
 180c560:	00000f06 	br	180c5a0 <alt_read_cfi_width+0x388>
        {
          byte_id[i] = IORD_8DIRECT(flash->dev.base_addr, (QUERY_ADDR*4)+i);
 180c564:	e13ffb17 	ldw	r4,-20(fp)
 180c568:	e0bfff17 	ldw	r2,-4(fp)
 180c56c:	10800a17 	ldw	r2,40(r2)
 180c570:	1007883a 	mov	r3,r2
 180c574:	e0bffb17 	ldw	r2,-20(fp)
 180c578:	1885883a 	add	r2,r3,r2
 180c57c:	10801004 	addi	r2,r2,64
 180c580:	10800023 	ldbuio	r2,0(r2)
 180c584:	1007883a 	mov	r3,r2
 180c588:	e0bffc04 	addi	r2,fp,-16
 180c58c:	1105883a 	add	r2,r2,r4
 180c590:	10c00005 	stb	r3,0(r2)
      {
        /*
        * Check for 32bit wide flash in 32 bit mode
        */
        alt_write_flash_command_32bit_device_32bit_mode(flash->dev.base_addr, 0x55, QUERY_MODE);
        for(i=0;i<12;i++)
 180c594:	e0bffb17 	ldw	r2,-20(fp)
 180c598:	10800044 	addi	r2,r2,1
 180c59c:	e0bffb15 	stw	r2,-20(fp)
 180c5a0:	e0bffb17 	ldw	r2,-20(fp)
 180c5a4:	10800310 	cmplti	r2,r2,12
 180c5a8:	103fee1e 	bne	r2,zero,180c564 <alt_read_cfi_width+0x34c>
        {
          byte_id[i] = IORD_8DIRECT(flash->dev.base_addr, (QUERY_ADDR*4)+i);
        }

        if ((byte_id[0] == 'Q') &&
 180c5ac:	e0bffc03 	ldbu	r2,-16(fp)
 180c5b0:	10803fcc 	andi	r2,r2,255
 180c5b4:	10801458 	cmpnei	r2,r2,81
 180c5b8:	1000411e 	bne	r2,zero,180c6c0 <alt_read_cfi_width+0x4a8>
 180c5bc:	e0bffc43 	ldbu	r2,-15(fp)
 180c5c0:	10803fcc 	andi	r2,r2,255
 180c5c4:	1004c03a 	cmpne	r2,r2,zero
 180c5c8:	10003d1e 	bne	r2,zero,180c6c0 <alt_read_cfi_width+0x4a8>
 180c5cc:	e0bffc83 	ldbu	r2,-14(fp)
 180c5d0:	10803fcc 	andi	r2,r2,255
 180c5d4:	1004c03a 	cmpne	r2,r2,zero
 180c5d8:	1000391e 	bne	r2,zero,180c6c0 <alt_read_cfi_width+0x4a8>
 180c5dc:	e0bffcc3 	ldbu	r2,-13(fp)
 180c5e0:	10803fcc 	andi	r2,r2,255
 180c5e4:	1004c03a 	cmpne	r2,r2,zero
 180c5e8:	1000351e 	bne	r2,zero,180c6c0 <alt_read_cfi_width+0x4a8>
 180c5ec:	e0bffd03 	ldbu	r2,-12(fp)
 180c5f0:	10803fcc 	andi	r2,r2,255
 180c5f4:	10801498 	cmpnei	r2,r2,82
 180c5f8:	1000311e 	bne	r2,zero,180c6c0 <alt_read_cfi_width+0x4a8>
 180c5fc:	e0bffd43 	ldbu	r2,-11(fp)
 180c600:	10803fcc 	andi	r2,r2,255
 180c604:	1004c03a 	cmpne	r2,r2,zero
 180c608:	10002d1e 	bne	r2,zero,180c6c0 <alt_read_cfi_width+0x4a8>
 180c60c:	e0bffd83 	ldbu	r2,-10(fp)
 180c610:	10803fcc 	andi	r2,r2,255
 180c614:	1004c03a 	cmpne	r2,r2,zero
 180c618:	1000291e 	bne	r2,zero,180c6c0 <alt_read_cfi_width+0x4a8>
 180c61c:	e0bffdc3 	ldbu	r2,-9(fp)
 180c620:	10803fcc 	andi	r2,r2,255
 180c624:	1004c03a 	cmpne	r2,r2,zero
 180c628:	1000251e 	bne	r2,zero,180c6c0 <alt_read_cfi_width+0x4a8>
 180c62c:	e0bffe03 	ldbu	r2,-8(fp)
 180c630:	10803fcc 	andi	r2,r2,255
 180c634:	10801658 	cmpnei	r2,r2,89
 180c638:	1000211e 	bne	r2,zero,180c6c0 <alt_read_cfi_width+0x4a8>
 180c63c:	e0bffe43 	ldbu	r2,-7(fp)
 180c640:	10803fcc 	andi	r2,r2,255
 180c644:	1004c03a 	cmpne	r2,r2,zero
 180c648:	10001d1e 	bne	r2,zero,180c6c0 <alt_read_cfi_width+0x4a8>
 180c64c:	e0bffe83 	ldbu	r2,-6(fp)
 180c650:	10803fcc 	andi	r2,r2,255
 180c654:	1004c03a 	cmpne	r2,r2,zero
 180c658:	1000191e 	bne	r2,zero,180c6c0 <alt_read_cfi_width+0x4a8>
 180c65c:	e0bffec3 	ldbu	r2,-5(fp)
 180c660:	10803fcc 	andi	r2,r2,255
 180c664:	1004c03a 	cmpne	r2,r2,zero
 180c668:	1000151e 	bne	r2,zero,180c6c0 <alt_read_cfi_width+0x4a8>
          (byte_id[8] == 'Y') && 
          (byte_id[9] == '\0') && 
          (byte_id[10] == '\0') && 
          (byte_id[11] == '\0'))
        {
          flash->mode_width = 4;
 180c66c:	e0ffff17 	ldw	r3,-4(fp)
 180c670:	00800104 	movi	r2,4
 180c674:	18802e15 	stw	r2,184(r3)
          flash->device_width = 4; 
 180c678:	e0ffff17 	ldw	r3,-4(fp)
 180c67c:	00800104 	movi	r2,4
 180c680:	18802f15 	stw	r2,188(r3)
          iface = IORD_32DIRECT(flash->dev.base_addr, INTERFACE_ADDR*4);
 180c684:	e0bfff17 	ldw	r2,-4(fp)
 180c688:	10800a17 	ldw	r2,40(r2)
 180c68c:	10802804 	addi	r2,r2,160
 180c690:	10800037 	ldwio	r2,0(r2)
 180c694:	e0bffa0d 	sth	r2,-24(fp)
          iface += 1;
 180c698:	e0bffa0b 	ldhu	r2,-24(fp)
 180c69c:	10800044 	addi	r2,r2,1
 180c6a0:	e0bffa0d 	sth	r2,-24(fp)
          if (!(iface & 0x4))
 180c6a4:	e0bffa0b 	ldhu	r2,-24(fp)
 180c6a8:	1080010c 	andi	r2,r2,4
 180c6ac:	1004c03a 	cmpne	r2,r2,zero
 180c6b0:	1000be1e 	bne	r2,zero,180c9ac <alt_read_cfi_width+0x794>
          {
            ret_code = -ENODEV;
 180c6b4:	00bffb44 	movi	r2,-19
 180c6b8:	e0bff915 	stw	r2,-28(fp)
        for(i=0;i<12;i++)
        {
          byte_id[i] = IORD_8DIRECT(flash->dev.base_addr, (QUERY_ADDR*4)+i);
        }

        if ((byte_id[0] == 'Q') &&
 180c6bc:	0000bb06 	br	180c9ac <alt_read_cfi_width+0x794>
        else
        {
          /*
          * Check for 32 bit wide in 16 bit mode
          */
          alt_write_flash_command_32bit_device_16bit_mode(flash->dev.base_addr, 0x55, QUERY_MODE);
 180c6c0:	e0bfff17 	ldw	r2,-4(fp)
 180c6c4:	11000a17 	ldw	r4,40(r2)
 180c6c8:	01401544 	movi	r5,85
 180c6cc:	01802604 	movi	r6,152
 180c6d0:	180b8680 	call	180b868 <alt_write_flash_command_32bit_device_16bit_mode>
          for(i=0;i<12;i++)
 180c6d4:	e03ffb15 	stw	zero,-20(fp)
 180c6d8:	00000f06 	br	180c718 <alt_read_cfi_width+0x500>
          {
            byte_id[i] = IORD_8DIRECT(flash->dev.base_addr, (QUERY_ADDR*4)+i);
 180c6dc:	e13ffb17 	ldw	r4,-20(fp)
 180c6e0:	e0bfff17 	ldw	r2,-4(fp)
 180c6e4:	10800a17 	ldw	r2,40(r2)
 180c6e8:	1007883a 	mov	r3,r2
 180c6ec:	e0bffb17 	ldw	r2,-20(fp)
 180c6f0:	1885883a 	add	r2,r3,r2
 180c6f4:	10801004 	addi	r2,r2,64
 180c6f8:	10800023 	ldbuio	r2,0(r2)
 180c6fc:	1007883a 	mov	r3,r2
 180c700:	e0bffc04 	addi	r2,fp,-16
 180c704:	1105883a 	add	r2,r2,r4
 180c708:	10c00005 	stb	r3,0(r2)
        {
          /*
          * Check for 32 bit wide in 16 bit mode
          */
          alt_write_flash_command_32bit_device_16bit_mode(flash->dev.base_addr, 0x55, QUERY_MODE);
          for(i=0;i<12;i++)
 180c70c:	e0bffb17 	ldw	r2,-20(fp)
 180c710:	10800044 	addi	r2,r2,1
 180c714:	e0bffb15 	stw	r2,-20(fp)
 180c718:	e0bffb17 	ldw	r2,-20(fp)
 180c71c:	10800310 	cmplti	r2,r2,12
 180c720:	103fee1e 	bne	r2,zero,180c6dc <alt_read_cfi_width+0x4c4>
          {
            byte_id[i] = IORD_8DIRECT(flash->dev.base_addr, (QUERY_ADDR*4)+i);
          }

          if ((byte_id[0] == 'Q') &&
 180c724:	e0bffc03 	ldbu	r2,-16(fp)
 180c728:	10803fcc 	andi	r2,r2,255
 180c72c:	10801458 	cmpnei	r2,r2,81
 180c730:	1000411e 	bne	r2,zero,180c838 <alt_read_cfi_width+0x620>
 180c734:	e0bffc43 	ldbu	r2,-15(fp)
 180c738:	10803fcc 	andi	r2,r2,255
 180c73c:	1004c03a 	cmpne	r2,r2,zero
 180c740:	10003d1e 	bne	r2,zero,180c838 <alt_read_cfi_width+0x620>
 180c744:	e0bffc83 	ldbu	r2,-14(fp)
 180c748:	10803fcc 	andi	r2,r2,255
 180c74c:	10801458 	cmpnei	r2,r2,81
 180c750:	1000391e 	bne	r2,zero,180c838 <alt_read_cfi_width+0x620>
 180c754:	e0bffcc3 	ldbu	r2,-13(fp)
 180c758:	10803fcc 	andi	r2,r2,255
 180c75c:	1004c03a 	cmpne	r2,r2,zero
 180c760:	1000351e 	bne	r2,zero,180c838 <alt_read_cfi_width+0x620>
 180c764:	e0bffd03 	ldbu	r2,-12(fp)
 180c768:	10803fcc 	andi	r2,r2,255
 180c76c:	10801498 	cmpnei	r2,r2,82
 180c770:	1000311e 	bne	r2,zero,180c838 <alt_read_cfi_width+0x620>
 180c774:	e0bffd43 	ldbu	r2,-11(fp)
 180c778:	10803fcc 	andi	r2,r2,255
 180c77c:	1004c03a 	cmpne	r2,r2,zero
 180c780:	10002d1e 	bne	r2,zero,180c838 <alt_read_cfi_width+0x620>
 180c784:	e0bffd83 	ldbu	r2,-10(fp)
 180c788:	10803fcc 	andi	r2,r2,255
 180c78c:	10801498 	cmpnei	r2,r2,82
 180c790:	1000291e 	bne	r2,zero,180c838 <alt_read_cfi_width+0x620>
 180c794:	e0bffdc3 	ldbu	r2,-9(fp)
 180c798:	10803fcc 	andi	r2,r2,255
 180c79c:	1004c03a 	cmpne	r2,r2,zero
 180c7a0:	1000251e 	bne	r2,zero,180c838 <alt_read_cfi_width+0x620>
 180c7a4:	e0bffe03 	ldbu	r2,-8(fp)
 180c7a8:	10803fcc 	andi	r2,r2,255
 180c7ac:	10801658 	cmpnei	r2,r2,89
 180c7b0:	1000211e 	bne	r2,zero,180c838 <alt_read_cfi_width+0x620>
 180c7b4:	e0bffe43 	ldbu	r2,-7(fp)
 180c7b8:	10803fcc 	andi	r2,r2,255
 180c7bc:	1004c03a 	cmpne	r2,r2,zero
 180c7c0:	10001d1e 	bne	r2,zero,180c838 <alt_read_cfi_width+0x620>
 180c7c4:	e0bffe83 	ldbu	r2,-6(fp)
 180c7c8:	10803fcc 	andi	r2,r2,255
 180c7cc:	10801658 	cmpnei	r2,r2,89
 180c7d0:	1000191e 	bne	r2,zero,180c838 <alt_read_cfi_width+0x620>
 180c7d4:	e0bffec3 	ldbu	r2,-5(fp)
 180c7d8:	10803fcc 	andi	r2,r2,255
 180c7dc:	1004c03a 	cmpne	r2,r2,zero
 180c7e0:	1000151e 	bne	r2,zero,180c838 <alt_read_cfi_width+0x620>
              (byte_id[8] == 'Y') &&
              (byte_id[9] == '\0') &&
              (byte_id[10] == 'Y') &&
              (byte_id[11] == '\0'))
          {
            flash->mode_width = 2;
 180c7e4:	e0ffff17 	ldw	r3,-4(fp)
 180c7e8:	00800084 	movi	r2,2
 180c7ec:	18802e15 	stw	r2,184(r3)
            flash->device_width = 4; 
 180c7f0:	e0ffff17 	ldw	r3,-4(fp)
 180c7f4:	00800104 	movi	r2,4
 180c7f8:	18802f15 	stw	r2,188(r3)
            iface = IORD_32DIRECT(flash->dev.base_addr, INTERFACE_ADDR*4);
 180c7fc:	e0bfff17 	ldw	r2,-4(fp)
 180c800:	10800a17 	ldw	r2,40(r2)
 180c804:	10802804 	addi	r2,r2,160
 180c808:	10800037 	ldwio	r2,0(r2)
 180c80c:	e0bffa0d 	sth	r2,-24(fp)
            iface += 1;
 180c810:	e0bffa0b 	ldhu	r2,-24(fp)
 180c814:	10800044 	addi	r2,r2,1
 180c818:	e0bffa0d 	sth	r2,-24(fp)
            if (!(iface & 0x4))
 180c81c:	e0bffa0b 	ldhu	r2,-24(fp)
 180c820:	1080010c 	andi	r2,r2,4
 180c824:	1004c03a 	cmpne	r2,r2,zero
 180c828:	1000601e 	bne	r2,zero,180c9ac <alt_read_cfi_width+0x794>
            {
              ret_code = -ENODEV;
 180c82c:	00bffb44 	movi	r2,-19
 180c830:	e0bff915 	stw	r2,-28(fp)
          for(i=0;i<12;i++)
          {
            byte_id[i] = IORD_8DIRECT(flash->dev.base_addr, (QUERY_ADDR*4)+i);
          }

          if ((byte_id[0] == 'Q') &&
 180c834:	00005d06 	br	180c9ac <alt_read_cfi_width+0x794>
          else
          {
            /*
            * 32 Bit wide flash in byte mode
            */
            alt_write_flash_command_32bit_device_8bit_mode(flash->dev.base_addr, 0x55, QUERY_MODE);
 180c838:	e0bfff17 	ldw	r2,-4(fp)
 180c83c:	11000a17 	ldw	r4,40(r2)
 180c840:	01401544 	movi	r5,85
 180c844:	01802604 	movi	r6,152
 180c848:	180b7dc0 	call	180b7dc <alt_write_flash_command_32bit_device_8bit_mode>
            for(i=0;i<12;i++)
 180c84c:	e03ffb15 	stw	zero,-20(fp)
 180c850:	00000f06 	br	180c890 <alt_read_cfi_width+0x678>
            {
              byte_id[i] = IORD_8DIRECT(flash->dev.base_addr, (QUERY_ADDR*4)+i);
 180c854:	e13ffb17 	ldw	r4,-20(fp)
 180c858:	e0bfff17 	ldw	r2,-4(fp)
 180c85c:	10800a17 	ldw	r2,40(r2)
 180c860:	1007883a 	mov	r3,r2
 180c864:	e0bffb17 	ldw	r2,-20(fp)
 180c868:	1885883a 	add	r2,r3,r2
 180c86c:	10801004 	addi	r2,r2,64
 180c870:	10800023 	ldbuio	r2,0(r2)
 180c874:	1007883a 	mov	r3,r2
 180c878:	e0bffc04 	addi	r2,fp,-16
 180c87c:	1105883a 	add	r2,r2,r4
 180c880:	10c00005 	stb	r3,0(r2)
          {
            /*
            * 32 Bit wide flash in byte mode
            */
            alt_write_flash_command_32bit_device_8bit_mode(flash->dev.base_addr, 0x55, QUERY_MODE);
            for(i=0;i<12;i++)
 180c884:	e0bffb17 	ldw	r2,-20(fp)
 180c888:	10800044 	addi	r2,r2,1
 180c88c:	e0bffb15 	stw	r2,-20(fp)
 180c890:	e0bffb17 	ldw	r2,-20(fp)
 180c894:	10800310 	cmplti	r2,r2,12
 180c898:	103fee1e 	bne	r2,zero,180c854 <alt_read_cfi_width+0x63c>
            {
              byte_id[i] = IORD_8DIRECT(flash->dev.base_addr, (QUERY_ADDR*4)+i);
            }

            if ((byte_id[0] == 'Q') &&
 180c89c:	e0bffc03 	ldbu	r2,-16(fp)
 180c8a0:	10803fcc 	andi	r2,r2,255
 180c8a4:	10801458 	cmpnei	r2,r2,81
 180c8a8:	1000401e 	bne	r2,zero,180c9ac <alt_read_cfi_width+0x794>
 180c8ac:	e0bffc43 	ldbu	r2,-15(fp)
 180c8b0:	10803fcc 	andi	r2,r2,255
 180c8b4:	10801458 	cmpnei	r2,r2,81
 180c8b8:	10003c1e 	bne	r2,zero,180c9ac <alt_read_cfi_width+0x794>
 180c8bc:	e0bffc83 	ldbu	r2,-14(fp)
 180c8c0:	10803fcc 	andi	r2,r2,255
 180c8c4:	10801458 	cmpnei	r2,r2,81
 180c8c8:	1000381e 	bne	r2,zero,180c9ac <alt_read_cfi_width+0x794>
 180c8cc:	e0bffcc3 	ldbu	r2,-13(fp)
 180c8d0:	10803fcc 	andi	r2,r2,255
 180c8d4:	10801458 	cmpnei	r2,r2,81
 180c8d8:	1000341e 	bne	r2,zero,180c9ac <alt_read_cfi_width+0x794>
 180c8dc:	e0bffd03 	ldbu	r2,-12(fp)
 180c8e0:	10803fcc 	andi	r2,r2,255
 180c8e4:	10801498 	cmpnei	r2,r2,82
 180c8e8:	1000301e 	bne	r2,zero,180c9ac <alt_read_cfi_width+0x794>
 180c8ec:	e0bffd43 	ldbu	r2,-11(fp)
 180c8f0:	10803fcc 	andi	r2,r2,255
 180c8f4:	10801498 	cmpnei	r2,r2,82
 180c8f8:	10002c1e 	bne	r2,zero,180c9ac <alt_read_cfi_width+0x794>
 180c8fc:	e0bffd83 	ldbu	r2,-10(fp)
 180c900:	10803fcc 	andi	r2,r2,255
 180c904:	10801498 	cmpnei	r2,r2,82
 180c908:	1000281e 	bne	r2,zero,180c9ac <alt_read_cfi_width+0x794>
 180c90c:	e0bffdc3 	ldbu	r2,-9(fp)
 180c910:	10803fcc 	andi	r2,r2,255
 180c914:	10801498 	cmpnei	r2,r2,82
 180c918:	1000241e 	bne	r2,zero,180c9ac <alt_read_cfi_width+0x794>
 180c91c:	e0bffe03 	ldbu	r2,-8(fp)
 180c920:	10803fcc 	andi	r2,r2,255
 180c924:	10801658 	cmpnei	r2,r2,89
 180c928:	1000201e 	bne	r2,zero,180c9ac <alt_read_cfi_width+0x794>
 180c92c:	e0bffe43 	ldbu	r2,-7(fp)
 180c930:	10803fcc 	andi	r2,r2,255
 180c934:	10801658 	cmpnei	r2,r2,89
 180c938:	10001c1e 	bne	r2,zero,180c9ac <alt_read_cfi_width+0x794>
 180c93c:	e0bffe83 	ldbu	r2,-6(fp)
 180c940:	10803fcc 	andi	r2,r2,255
 180c944:	10801658 	cmpnei	r2,r2,89
 180c948:	1000181e 	bne	r2,zero,180c9ac <alt_read_cfi_width+0x794>
 180c94c:	e0bffec3 	ldbu	r2,-5(fp)
 180c950:	10803fcc 	andi	r2,r2,255
 180c954:	10801658 	cmpnei	r2,r2,89
 180c958:	1000141e 	bne	r2,zero,180c9ac <alt_read_cfi_width+0x794>
                (byte_id[8] == 'Y') && 
                (byte_id[9] == 'Y') && 
                (byte_id[10] == 'Y') && 
                (byte_id[11] == 'Y'))
            {
              flash->mode_width = 1;
 180c95c:	e0ffff17 	ldw	r3,-4(fp)
 180c960:	00800044 	movi	r2,1
 180c964:	18802e15 	stw	r2,184(r3)
              flash->device_width = 4; 
 180c968:	e0ffff17 	ldw	r3,-4(fp)
 180c96c:	00800104 	movi	r2,4
 180c970:	18802f15 	stw	r2,188(r3)
              iface = IORD_32DIRECT(flash->dev.base_addr, INTERFACE_ADDR*4);
 180c974:	e0bfff17 	ldw	r2,-4(fp)
 180c978:	10800a17 	ldw	r2,40(r2)
 180c97c:	10802804 	addi	r2,r2,160
 180c980:	10800037 	ldwio	r2,0(r2)
 180c984:	e0bffa0d 	sth	r2,-24(fp)
              iface += 1;
 180c988:	e0bffa0b 	ldhu	r2,-24(fp)
 180c98c:	10800044 	addi	r2,r2,1
 180c990:	e0bffa0d 	sth	r2,-24(fp)
              if (!(iface & 0x4))
 180c994:	e0bffa0b 	ldhu	r2,-24(fp)
 180c998:	1080010c 	andi	r2,r2,4
 180c99c:	1004c03a 	cmpne	r2,r2,zero
 180c9a0:	1000021e 	bne	r2,zero,180c9ac <alt_read_cfi_width+0x794>
              {
                ret_code = -ENODEV;
 180c9a4:	00bffb44 	movi	r2,-19
 180c9a8:	e0bff915 	stw	r2,-28(fp)
        }
      }
    }
  }
  
  return ret_code;
 180c9ac:	e0bff917 	ldw	r2,-28(fp)
}
 180c9b0:	e037883a 	mov	sp,fp
 180c9b4:	dfc00117 	ldw	ra,4(sp)
 180c9b8:	df000017 	ldw	fp,0(sp)
 180c9bc:	dec00204 	addi	sp,sp,8
 180c9c0:	f800283a 	ret

0180c9c4 <alt_check_primary_table>:
 * 
 * Check that the primary Vendor table starts with the 
 * correct pattern
 */
int alt_check_primary_table(alt_flash_cfi_dev* flash)
{
 180c9c4:	defff904 	addi	sp,sp,-28
 180c9c8:	dfc00615 	stw	ra,24(sp)
 180c9cc:	df000515 	stw	fp,20(sp)
 180c9d0:	dc000415 	stw	r16,16(sp)
 180c9d4:	df000404 	addi	fp,sp,16
 180c9d8:	e13fff15 	stw	r4,-4(fp)
  int i;
  int ret_code = 0;
 180c9dc:	e03ffc15 	stw	zero,-16(fp)
  alt_u8 primary_query_string[3];
  
  flash->primary_address = alt_read_16bit_query_entry( flash, 
 180c9e0:	e13fff17 	ldw	r4,-4(fp)
 180c9e4:	01400544 	movi	r5,21
 180c9e8:	180bc1c0 	call	180bc1c <alt_read_16bit_query_entry>
 180c9ec:	10ffffcc 	andi	r3,r2,65535
 180c9f0:	e0bfff17 	ldw	r2,-4(fp)
 180c9f4:	10c03215 	stw	r3,200(r2)
                            PRIMARY_ADDR);
  
  for(i=0;i<3;i++)
 180c9f8:	e03ffd15 	stw	zero,-12(fp)
 180c9fc:	00001006 	br	180ca40 <alt_check_primary_table+0x7c>
  {
    primary_query_string[i] = 
 180ca00:	e43ffd17 	ldw	r16,-12(fp)
 180ca04:	e0bfff17 	ldw	r2,-4(fp)
 180ca08:	11803417 	ldw	r6,208(r2)
 180ca0c:	e0bfff17 	ldw	r2,-4(fp)
 180ca10:	10c03217 	ldw	r3,200(r2)
 180ca14:	e0bffd17 	ldw	r2,-12(fp)
 180ca18:	188b883a 	add	r5,r3,r2
 180ca1c:	e13fff17 	ldw	r4,-4(fp)
 180ca20:	303ee83a 	callr	r6
 180ca24:	1007883a 	mov	r3,r2
 180ca28:	e0bffe04 	addi	r2,fp,-8
 180ca2c:	1405883a 	add	r2,r2,r16
 180ca30:	10c00005 	stb	r3,0(r2)
  alt_u8 primary_query_string[3];
  
  flash->primary_address = alt_read_16bit_query_entry( flash, 
                            PRIMARY_ADDR);
  
  for(i=0;i<3;i++)
 180ca34:	e0bffd17 	ldw	r2,-12(fp)
 180ca38:	10800044 	addi	r2,r2,1
 180ca3c:	e0bffd15 	stw	r2,-12(fp)
 180ca40:	e0bffd17 	ldw	r2,-12(fp)
 180ca44:	108000d0 	cmplti	r2,r2,3
 180ca48:	103fed1e 	bne	r2,zero,180ca00 <alt_check_primary_table+0x3c>
  {
    primary_query_string[i] = 
          (*flash->read_query)( flash,(flash->primary_address + i));
  }
    
  if ((primary_query_string[0] != 'P') ||
 180ca4c:	e0bffe03 	ldbu	r2,-8(fp)
 180ca50:	10803fcc 	andi	r2,r2,255
 180ca54:	10801418 	cmpnei	r2,r2,80
 180ca58:	1000081e 	bne	r2,zero,180ca7c <alt_check_primary_table+0xb8>
 180ca5c:	e0bffe43 	ldbu	r2,-7(fp)
 180ca60:	10803fcc 	andi	r2,r2,255
 180ca64:	10801498 	cmpnei	r2,r2,82
 180ca68:	1000041e 	bne	r2,zero,180ca7c <alt_check_primary_table+0xb8>
 180ca6c:	e0bffe83 	ldbu	r2,-6(fp)
 180ca70:	10803fcc 	andi	r2,r2,255
 180ca74:	10801260 	cmpeqi	r2,r2,73
 180ca78:	1000021e 	bne	r2,zero,180ca84 <alt_check_primary_table+0xc0>
      (primary_query_string[1] != 'R') ||
      (primary_query_string[2] != 'I'))
  {
    ret_code = -ENODEV;
 180ca7c:	00bffb44 	movi	r2,-19
 180ca80:	e0bffc15 	stw	r2,-16(fp)
  }
  
  return ret_code;
 180ca84:	e0bffc17 	ldw	r2,-16(fp)
}
 180ca88:	e037883a 	mov	sp,fp
 180ca8c:	dfc00217 	ldw	ra,8(sp)
 180ca90:	df000117 	ldw	fp,4(sp)
 180ca94:	dc000017 	ldw	r16,0(sp)
 180ca98:	dec00304 	addi	sp,sp,12
 180ca9c:	f800283a 	ret

0180caa0 <altera_avalon_jtag_uart_read_fd>:
 *
 */

int 
altera_avalon_jtag_uart_read_fd(alt_fd* fd, char* buffer, int space)
{
 180caa0:	defffa04 	addi	sp,sp,-24
 180caa4:	dfc00515 	stw	ra,20(sp)
 180caa8:	df000415 	stw	fp,16(sp)
 180caac:	df000404 	addi	fp,sp,16
 180cab0:	e13ffd15 	stw	r4,-12(fp)
 180cab4:	e17ffe15 	stw	r5,-8(fp)
 180cab8:	e1bfff15 	stw	r6,-4(fp)
    altera_avalon_jtag_uart_dev* dev = (altera_avalon_jtag_uart_dev*) fd->dev; 
 180cabc:	e0bffd17 	ldw	r2,-12(fp)
 180cac0:	10800017 	ldw	r2,0(r2)
 180cac4:	e0bffc15 	stw	r2,-16(fp)

    return altera_avalon_jtag_uart_read(&dev->state, buffer, space,
 180cac8:	e0bffc17 	ldw	r2,-16(fp)
 180cacc:	11000a04 	addi	r4,r2,40
 180cad0:	e0bffd17 	ldw	r2,-12(fp)
 180cad4:	11c00217 	ldw	r7,8(r2)
 180cad8:	e17ffe17 	ldw	r5,-8(fp)
 180cadc:	e1bfff17 	ldw	r6,-4(fp)
 180cae0:	180d0e80 	call	180d0e8 <altera_avalon_jtag_uart_read>
      fd->fd_flags);
}
 180cae4:	e037883a 	mov	sp,fp
 180cae8:	dfc00117 	ldw	ra,4(sp)
 180caec:	df000017 	ldw	fp,0(sp)
 180caf0:	dec00204 	addi	sp,sp,8
 180caf4:	f800283a 	ret

0180caf8 <altera_avalon_jtag_uart_write_fd>:

int 
altera_avalon_jtag_uart_write_fd(alt_fd* fd, const char* buffer, int space)
{
 180caf8:	defffa04 	addi	sp,sp,-24
 180cafc:	dfc00515 	stw	ra,20(sp)
 180cb00:	df000415 	stw	fp,16(sp)
 180cb04:	df000404 	addi	fp,sp,16
 180cb08:	e13ffd15 	stw	r4,-12(fp)
 180cb0c:	e17ffe15 	stw	r5,-8(fp)
 180cb10:	e1bfff15 	stw	r6,-4(fp)
    altera_avalon_jtag_uart_dev* dev = (altera_avalon_jtag_uart_dev*) fd->dev; 
 180cb14:	e0bffd17 	ldw	r2,-12(fp)
 180cb18:	10800017 	ldw	r2,0(r2)
 180cb1c:	e0bffc15 	stw	r2,-16(fp)

    return altera_avalon_jtag_uart_write(&dev->state, buffer, space,
 180cb20:	e0bffc17 	ldw	r2,-16(fp)
 180cb24:	11000a04 	addi	r4,r2,40
 180cb28:	e0bffd17 	ldw	r2,-12(fp)
 180cb2c:	11c00217 	ldw	r7,8(r2)
 180cb30:	e17ffe17 	ldw	r5,-8(fp)
 180cb34:	e1bfff17 	ldw	r6,-4(fp)
 180cb38:	180d30c0 	call	180d30c <altera_avalon_jtag_uart_write>
      fd->fd_flags);
}
 180cb3c:	e037883a 	mov	sp,fp
 180cb40:	dfc00117 	ldw	ra,4(sp)
 180cb44:	df000017 	ldw	fp,0(sp)
 180cb48:	dec00204 	addi	sp,sp,8
 180cb4c:	f800283a 	ret

0180cb50 <altera_avalon_jtag_uart_close_fd>:

#ifndef ALTERA_AVALON_JTAG_UART_SMALL

int 
altera_avalon_jtag_uart_close_fd(alt_fd* fd)
{
 180cb50:	defffc04 	addi	sp,sp,-16
 180cb54:	dfc00315 	stw	ra,12(sp)
 180cb58:	df000215 	stw	fp,8(sp)
 180cb5c:	df000204 	addi	fp,sp,8
 180cb60:	e13fff15 	stw	r4,-4(fp)
    altera_avalon_jtag_uart_dev* dev = (altera_avalon_jtag_uart_dev*) fd->dev; 
 180cb64:	e0bfff17 	ldw	r2,-4(fp)
 180cb68:	10800017 	ldw	r2,0(r2)
 180cb6c:	e0bffe15 	stw	r2,-8(fp)

    return altera_avalon_jtag_uart_close(&dev->state, fd->fd_flags);
 180cb70:	e0bffe17 	ldw	r2,-8(fp)
 180cb74:	11000a04 	addi	r4,r2,40
 180cb78:	e0bfff17 	ldw	r2,-4(fp)
 180cb7c:	11400217 	ldw	r5,8(r2)
 180cb80:	180cf800 	call	180cf80 <altera_avalon_jtag_uart_close>
}
 180cb84:	e037883a 	mov	sp,fp
 180cb88:	dfc00117 	ldw	ra,4(sp)
 180cb8c:	df000017 	ldw	fp,0(sp)
 180cb90:	dec00204 	addi	sp,sp,8
 180cb94:	f800283a 	ret

0180cb98 <altera_avalon_jtag_uart_ioctl_fd>:

int 
altera_avalon_jtag_uart_ioctl_fd(alt_fd* fd, int req, void* arg)
{
 180cb98:	defffa04 	addi	sp,sp,-24
 180cb9c:	dfc00515 	stw	ra,20(sp)
 180cba0:	df000415 	stw	fp,16(sp)
 180cba4:	df000404 	addi	fp,sp,16
 180cba8:	e13ffd15 	stw	r4,-12(fp)
 180cbac:	e17ffe15 	stw	r5,-8(fp)
 180cbb0:	e1bfff15 	stw	r6,-4(fp)
    altera_avalon_jtag_uart_dev* dev = (altera_avalon_jtag_uart_dev*) fd->dev;
 180cbb4:	e0bffd17 	ldw	r2,-12(fp)
 180cbb8:	10800017 	ldw	r2,0(r2)
 180cbbc:	e0bffc15 	stw	r2,-16(fp)

    return altera_avalon_jtag_uart_ioctl(&dev->state, req, arg);
 180cbc0:	e0bffc17 	ldw	r2,-16(fp)
 180cbc4:	11000a04 	addi	r4,r2,40
 180cbc8:	e17ffe17 	ldw	r5,-8(fp)
 180cbcc:	e1bfff17 	ldw	r6,-4(fp)
 180cbd0:	180cff40 	call	180cff4 <altera_avalon_jtag_uart_ioctl>
}
 180cbd4:	e037883a 	mov	sp,fp
 180cbd8:	dfc00117 	ldw	ra,4(sp)
 180cbdc:	df000017 	ldw	fp,0(sp)
 180cbe0:	dec00204 	addi	sp,sp,8
 180cbe4:	f800283a 	ret

0180cbe8 <altera_avalon_jtag_uart_init>:
 * Return 1 on sucessful IRQ register and 0 on failure.
 */

void altera_avalon_jtag_uart_init(altera_avalon_jtag_uart_state* sp, 
                                  int irq_controller_id, int irq)
{
 180cbe8:	defffa04 	addi	sp,sp,-24
 180cbec:	dfc00515 	stw	ra,20(sp)
 180cbf0:	df000415 	stw	fp,16(sp)
 180cbf4:	df000404 	addi	fp,sp,16
 180cbf8:	e13ffd15 	stw	r4,-12(fp)
 180cbfc:	e17ffe15 	stw	r5,-8(fp)
 180cc00:	e1bfff15 	stw	r6,-4(fp)
  ALT_FLAG_CREATE(&sp->events, 0);
  ALT_SEM_CREATE(&sp->read_lock, 1);
  ALT_SEM_CREATE(&sp->write_lock, 1);

  /* enable read interrupts at the device */
  sp->irq_enable = ALTERA_AVALON_JTAG_UART_CONTROL_RE_MSK;
 180cc04:	e0fffd17 	ldw	r3,-12(fp)
 180cc08:	00800044 	movi	r2,1
 180cc0c:	18800815 	stw	r2,32(r3)

  IOWR_ALTERA_AVALON_JTAG_UART_CONTROL(sp->base, sp->irq_enable); 
 180cc10:	e0bffd17 	ldw	r2,-12(fp)
 180cc14:	10800017 	ldw	r2,0(r2)
 180cc18:	11000104 	addi	r4,r2,4
 180cc1c:	e0bffd17 	ldw	r2,-12(fp)
 180cc20:	10800817 	ldw	r2,32(r2)
 180cc24:	1007883a 	mov	r3,r2
 180cc28:	2005883a 	mov	r2,r4
 180cc2c:	10c00035 	stwio	r3,0(r2)
  
  /* register the interrupt handler */
#ifdef ALT_ENHANCED_INTERRUPT_API_PRESENT
  alt_ic_isr_register(irq_controller_id, irq, altera_avalon_jtag_uart_irq, 
 180cc30:	e13ffe17 	ldw	r4,-8(fp)
 180cc34:	e17fff17 	ldw	r5,-4(fp)
 180cc38:	d8000015 	stw	zero,0(sp)
 180cc3c:	01806074 	movhi	r6,385
 180cc40:	31b32a04 	addi	r6,r6,-13144
 180cc44:	e1fffd17 	ldw	r7,-12(fp)
 180cc48:	180f4d80 	call	180f4d8 <alt_ic_isr_register>
#else
  alt_irq_register(irq, sp, altera_avalon_jtag_uart_irq);
#endif  

  /* Register an alarm to go off every second to check for presence of host */
  sp->host_inactive = 0;
 180cc4c:	e0bffd17 	ldw	r2,-12(fp)
 180cc50:	10000915 	stw	zero,36(r2)

  if (alt_alarm_start(&sp->alarm, alt_ticks_per_second(), 
 180cc54:	e0bffd17 	ldw	r2,-12(fp)
 180cc58:	11000204 	addi	r4,r2,8
 * Obtain the system clock rate in ticks/s. 
 */

static ALT_INLINE alt_u32 ALT_ALWAYS_INLINE alt_ticks_per_second (void)
{
  return _alt_tick_rate;
 180cc5c:	00806074 	movhi	r2,385
 180cc60:	108c5604 	addi	r2,r2,12632
 180cc64:	10800017 	ldw	r2,0(r2)
 180cc68:	100b883a 	mov	r5,r2
 180cc6c:	01806074 	movhi	r6,385
 180cc70:	31b3b404 	addi	r6,r6,-12592
 180cc74:	e1fffd17 	ldw	r7,-12(fp)
 180cc78:	180ef340 	call	180ef34 <alt_alarm_start>
 180cc7c:	1004403a 	cmpge	r2,r2,zero
 180cc80:	1000041e 	bne	r2,zero,180cc94 <altera_avalon_jtag_uart_init+0xac>
    &altera_avalon_jtag_uart_timeout, sp) < 0)
  {
    /* If we can't set the alarm then record "don't know if host present" 
     * and behave as though the host is present.
     */
    sp->timeout = INT_MAX;
 180cc84:	e0fffd17 	ldw	r3,-12(fp)
 180cc88:	00a00034 	movhi	r2,32768
 180cc8c:	10bfffc4 	addi	r2,r2,-1
 180cc90:	18800115 	stw	r2,4(r3)
  }

  /* ALT_LOG - see altera_hal/HAL/inc/sys/alt_log_printf.h */ 
  ALT_LOG_JTAG_UART_ALARM_REGISTER(sp, sp->base);
}
 180cc94:	e037883a 	mov	sp,fp
 180cc98:	dfc00117 	ldw	ra,4(sp)
 180cc9c:	df000017 	ldw	fp,0(sp)
 180cca0:	dec00204 	addi	sp,sp,8
 180cca4:	f800283a 	ret

0180cca8 <altera_avalon_jtag_uart_irq>:
#ifdef ALT_ENHANCED_INTERRUPT_API_PRESENT
static void altera_avalon_jtag_uart_irq(void* context)
#else
static void altera_avalon_jtag_uart_irq(void* context, alt_u32 id)
#endif
{
 180cca8:	defff804 	addi	sp,sp,-32
 180ccac:	df000715 	stw	fp,28(sp)
 180ccb0:	df000704 	addi	fp,sp,28
 180ccb4:	e13fff15 	stw	r4,-4(fp)
  altera_avalon_jtag_uart_state* sp = (altera_avalon_jtag_uart_state*) context;
 180ccb8:	e0bfff17 	ldw	r2,-4(fp)
 180ccbc:	e0bffe15 	stw	r2,-8(fp)
  unsigned int base = sp->base;
 180ccc0:	e0bffe17 	ldw	r2,-8(fp)
 180ccc4:	10800017 	ldw	r2,0(r2)
 180ccc8:	e0bffd15 	stw	r2,-12(fp)
 180cccc:	00000006 	br	180ccd0 <altera_avalon_jtag_uart_irq+0x28>
  /* ALT_LOG - see altera_hal/HAL/inc/sys/alt_log_printf.h */ 
  ALT_LOG_JTAG_UART_ISR_FUNCTION(base, sp);

  for ( ; ; )
  {
    unsigned int control = IORD_ALTERA_AVALON_JTAG_UART_CONTROL(base);
 180ccd0:	e0bffd17 	ldw	r2,-12(fp)
 180ccd4:	10800104 	addi	r2,r2,4
 180ccd8:	10800037 	ldwio	r2,0(r2)
 180ccdc:	e0bffc15 	stw	r2,-16(fp)

    /* Return once nothing more to do */
    if ((control & (ALTERA_AVALON_JTAG_UART_CONTROL_RI_MSK | ALTERA_AVALON_JTAG_UART_CONTROL_WI_MSK)) == 0)
 180cce0:	e0bffc17 	ldw	r2,-16(fp)
 180cce4:	1080c00c 	andi	r2,r2,768
 180cce8:	1005003a 	cmpeq	r2,r2,zero
 180ccec:	1000741e 	bne	r2,zero,180cec0 <altera_avalon_jtag_uart_irq+0x218>
      break;

    if (control & ALTERA_AVALON_JTAG_UART_CONTROL_RI_MSK)
 180ccf0:	e0bffc17 	ldw	r2,-16(fp)
 180ccf4:	1080400c 	andi	r2,r2,256
 180ccf8:	1005003a 	cmpeq	r2,r2,zero
 180ccfc:	1000351e 	bne	r2,zero,180cdd4 <altera_avalon_jtag_uart_irq+0x12c>
    {
      /* process a read irq.  Start by assuming that there is data in the
       * receive FIFO (otherwise why would we have been interrupted?)
       */
      unsigned int data = 1 << ALTERA_AVALON_JTAG_UART_DATA_RAVAIL_OFST;
 180cd00:	00800074 	movhi	r2,1
 180cd04:	e0bffb15 	stw	r2,-20(fp)
      for ( ; ; )
      {
        /* Check whether there is space in the buffer.  If not then we must not
         * read any characters from the buffer as they will be lost.
         */
        unsigned int next = (sp->rx_in + 1) % ALTERA_AVALON_JTAG_UART_BUF_LEN;
 180cd08:	e0bffe17 	ldw	r2,-8(fp)
 180cd0c:	10800a17 	ldw	r2,40(r2)
 180cd10:	10800044 	addi	r2,r2,1
 180cd14:	1081ffcc 	andi	r2,r2,2047
 180cd18:	e0bffa15 	stw	r2,-24(fp)
        if (next == sp->rx_out)
 180cd1c:	e0bffe17 	ldw	r2,-8(fp)
 180cd20:	10c00b17 	ldw	r3,44(r2)
 180cd24:	e0bffa17 	ldw	r2,-24(fp)
 180cd28:	18801626 	beq	r3,r2,180cd84 <altera_avalon_jtag_uart_irq+0xdc>
          break;

        /* Try to remove a character from the FIFO and find out whether there
         * are any more characters remaining.
         */
        data = IORD_ALTERA_AVALON_JTAG_UART_DATA(base);
 180cd2c:	e0bffd17 	ldw	r2,-12(fp)
 180cd30:	10800037 	ldwio	r2,0(r2)
 180cd34:	e0bffb15 	stw	r2,-20(fp)
        
        if ((data & ALTERA_AVALON_JTAG_UART_DATA_RVALID_MSK) == 0)
 180cd38:	e0bffb17 	ldw	r2,-20(fp)
 180cd3c:	10a0000c 	andi	r2,r2,32768
 180cd40:	1005003a 	cmpeq	r2,r2,zero
 180cd44:	10000f1e 	bne	r2,zero,180cd84 <altera_avalon_jtag_uart_irq+0xdc>
          break;

        sp->rx_buf[sp->rx_in] = (data & ALTERA_AVALON_JTAG_UART_DATA_DATA_MSK) >> ALTERA_AVALON_JTAG_UART_DATA_DATA_OFST;
 180cd48:	e0bffe17 	ldw	r2,-8(fp)
 180cd4c:	10c00a17 	ldw	r3,40(r2)
 180cd50:	e0bffb17 	ldw	r2,-20(fp)
 180cd54:	1009883a 	mov	r4,r2
 180cd58:	e0bffe17 	ldw	r2,-8(fp)
 180cd5c:	1885883a 	add	r2,r3,r2
 180cd60:	10800e04 	addi	r2,r2,56
 180cd64:	11000005 	stb	r4,0(r2)
        sp->rx_in = (sp->rx_in + 1) % ALTERA_AVALON_JTAG_UART_BUF_LEN;
 180cd68:	e0bffe17 	ldw	r2,-8(fp)
 180cd6c:	10800a17 	ldw	r2,40(r2)
 180cd70:	10800044 	addi	r2,r2,1
 180cd74:	10c1ffcc 	andi	r3,r2,2047
 180cd78:	e0bffe17 	ldw	r2,-8(fp)
 180cd7c:	10c00a15 	stw	r3,40(r2)

        /* Post an event to notify jtag_uart_read that a character has been read */
        ALT_FLAG_POST (sp->events, ALT_JTAG_UART_READ_RDY, OS_FLAG_SET);
      }
 180cd80:	003fe106 	br	180cd08 <altera_avalon_jtag_uart_irq+0x60>

      if (data & ALTERA_AVALON_JTAG_UART_DATA_RAVAIL_MSK)
 180cd84:	e0bffb17 	ldw	r2,-20(fp)
 180cd88:	10bfffec 	andhi	r2,r2,65535
 180cd8c:	1005003a 	cmpeq	r2,r2,zero
 180cd90:	1000101e 	bne	r2,zero,180cdd4 <altera_avalon_jtag_uart_irq+0x12c>
      {
        /* If there is still data available here then the buffer is full 
         * so turn off receive interrupts until some space becomes available.
         */
        sp->irq_enable &= ~ALTERA_AVALON_JTAG_UART_CONTROL_RE_MSK;
 180cd94:	e0bffe17 	ldw	r2,-8(fp)
 180cd98:	10c00817 	ldw	r3,32(r2)
 180cd9c:	00bfff84 	movi	r2,-2
 180cda0:	1886703a 	and	r3,r3,r2
 180cda4:	e0bffe17 	ldw	r2,-8(fp)
 180cda8:	10c00815 	stw	r3,32(r2)
        IOWR_ALTERA_AVALON_JTAG_UART_CONTROL(base, sp->irq_enable);
 180cdac:	e0bffd17 	ldw	r2,-12(fp)
 180cdb0:	11000104 	addi	r4,r2,4
 180cdb4:	e0bffe17 	ldw	r2,-8(fp)
 180cdb8:	10800817 	ldw	r2,32(r2)
 180cdbc:	1007883a 	mov	r3,r2
 180cdc0:	2005883a 	mov	r2,r4
 180cdc4:	10c00035 	stwio	r3,0(r2)
        
        /* Dummy read to ensure IRQ is cleared prior to ISR completion */
        IORD_ALTERA_AVALON_JTAG_UART_CONTROL(base);
 180cdc8:	e0bffd17 	ldw	r2,-12(fp)
 180cdcc:	10800104 	addi	r2,r2,4
 180cdd0:	10800037 	ldwio	r2,0(r2)
      }
    }

    if (control & ALTERA_AVALON_JTAG_UART_CONTROL_WI_MSK)
 180cdd4:	e0bffc17 	ldw	r2,-16(fp)
 180cdd8:	1080800c 	andi	r2,r2,512
 180cddc:	1005003a 	cmpeq	r2,r2,zero
 180cde0:	103fbb1e 	bne	r2,zero,180ccd0 <altera_avalon_jtag_uart_irq+0x28>
    {
      /* process a write irq */
      unsigned int space = (control & ALTERA_AVALON_JTAG_UART_CONTROL_WSPACE_MSK) >> ALTERA_AVALON_JTAG_UART_CONTROL_WSPACE_OFST;
 180cde4:	e0bffc17 	ldw	r2,-16(fp)
 180cde8:	10bfffec 	andhi	r2,r2,65535
 180cdec:	1004d43a 	srli	r2,r2,16
 180cdf0:	e0bff915 	stw	r2,-28(fp)

      while (space > 0 && sp->tx_out != sp->tx_in)
 180cdf4:	00001506 	br	180ce4c <altera_avalon_jtag_uart_irq+0x1a4>
      {
        IOWR_ALTERA_AVALON_JTAG_UART_DATA(base, sp->tx_buf[sp->tx_out]);
 180cdf8:	e13ffd17 	ldw	r4,-12(fp)
 180cdfc:	e0bffe17 	ldw	r2,-8(fp)
 180ce00:	10c00d17 	ldw	r3,52(r2)
 180ce04:	e0bffe17 	ldw	r2,-8(fp)
 180ce08:	1885883a 	add	r2,r3,r2
 180ce0c:	10820e04 	addi	r2,r2,2104
 180ce10:	10800003 	ldbu	r2,0(r2)
 180ce14:	10c03fcc 	andi	r3,r2,255
 180ce18:	18c0201c 	xori	r3,r3,128
 180ce1c:	18ffe004 	addi	r3,r3,-128
 180ce20:	2005883a 	mov	r2,r4
 180ce24:	10c00035 	stwio	r3,0(r2)

        sp->tx_out = (sp->tx_out + 1) % ALTERA_AVALON_JTAG_UART_BUF_LEN;
 180ce28:	e0bffe17 	ldw	r2,-8(fp)
 180ce2c:	10800d17 	ldw	r2,52(r2)
 180ce30:	10800044 	addi	r2,r2,1
 180ce34:	10c1ffcc 	andi	r3,r2,2047
 180ce38:	e0bffe17 	ldw	r2,-8(fp)
 180ce3c:	10c00d15 	stw	r3,52(r2)

        /* Post an event to notify jtag_uart_write that a character has been written */
        ALT_FLAG_POST (sp->events, ALT_JTAG_UART_WRITE_RDY, OS_FLAG_SET);

        space--;
 180ce40:	e0bff917 	ldw	r2,-28(fp)
 180ce44:	10bfffc4 	addi	r2,r2,-1
 180ce48:	e0bff915 	stw	r2,-28(fp)
    if (control & ALTERA_AVALON_JTAG_UART_CONTROL_WI_MSK)
    {
      /* process a write irq */
      unsigned int space = (control & ALTERA_AVALON_JTAG_UART_CONTROL_WSPACE_MSK) >> ALTERA_AVALON_JTAG_UART_CONTROL_WSPACE_OFST;

      while (space > 0 && sp->tx_out != sp->tx_in)
 180ce4c:	e0bff917 	ldw	r2,-28(fp)
 180ce50:	1005003a 	cmpeq	r2,r2,zero
 180ce54:	1000051e 	bne	r2,zero,180ce6c <altera_avalon_jtag_uart_irq+0x1c4>
 180ce58:	e0bffe17 	ldw	r2,-8(fp)
 180ce5c:	10c00d17 	ldw	r3,52(r2)
 180ce60:	e0bffe17 	ldw	r2,-8(fp)
 180ce64:	10800c17 	ldw	r2,48(r2)
 180ce68:	18bfe31e 	bne	r3,r2,180cdf8 <altera_avalon_jtag_uart_irq+0x150>
        ALT_FLAG_POST (sp->events, ALT_JTAG_UART_WRITE_RDY, OS_FLAG_SET);

        space--;
      }

      if (space > 0)
 180ce6c:	e0bff917 	ldw	r2,-28(fp)
 180ce70:	1005003a 	cmpeq	r2,r2,zero
 180ce74:	103f961e 	bne	r2,zero,180ccd0 <altera_avalon_jtag_uart_irq+0x28>
      {
        /* If we don't have any more data available then turn off the TX interrupt */
        sp->irq_enable &= ~ALTERA_AVALON_JTAG_UART_CONTROL_WE_MSK;
 180ce78:	e0bffe17 	ldw	r2,-8(fp)
 180ce7c:	10c00817 	ldw	r3,32(r2)
 180ce80:	00bfff44 	movi	r2,-3
 180ce84:	1886703a 	and	r3,r3,r2
 180ce88:	e0bffe17 	ldw	r2,-8(fp)
 180ce8c:	10c00815 	stw	r3,32(r2)
        IOWR_ALTERA_AVALON_JTAG_UART_CONTROL(sp->base, sp->irq_enable);
 180ce90:	e0bffe17 	ldw	r2,-8(fp)
 180ce94:	10800017 	ldw	r2,0(r2)
 180ce98:	11000104 	addi	r4,r2,4
 180ce9c:	e0bffe17 	ldw	r2,-8(fp)
 180cea0:	10800817 	ldw	r2,32(r2)
 180cea4:	1007883a 	mov	r3,r2
 180cea8:	2005883a 	mov	r2,r4
 180ceac:	10c00035 	stwio	r3,0(r2)
        
        /* Dummy read to ensure IRQ is cleared prior to ISR completion */
        IORD_ALTERA_AVALON_JTAG_UART_CONTROL(base);
 180ceb0:	e0bffd17 	ldw	r2,-12(fp)
 180ceb4:	10800104 	addi	r2,r2,4
 180ceb8:	10800037 	ldwio	r2,0(r2)
      }
    }
  }
 180cebc:	003f8406 	br	180ccd0 <altera_avalon_jtag_uart_irq+0x28>
}
 180cec0:	e037883a 	mov	sp,fp
 180cec4:	df000017 	ldw	fp,0(sp)
 180cec8:	dec00104 	addi	sp,sp,4
 180cecc:	f800283a 	ret

0180ced0 <altera_avalon_jtag_uart_timeout>:
 * Timeout routine is called every second
 */

static alt_u32 
altera_avalon_jtag_uart_timeout(void* context) 
{
 180ced0:	defffc04 	addi	sp,sp,-16
 180ced4:	df000315 	stw	fp,12(sp)
 180ced8:	df000304 	addi	fp,sp,12
 180cedc:	e13fff15 	stw	r4,-4(fp)
  altera_avalon_jtag_uart_state* sp = (altera_avalon_jtag_uart_state *) context;
 180cee0:	e0bfff17 	ldw	r2,-4(fp)
 180cee4:	e0bffe15 	stw	r2,-8(fp)

  unsigned int control = IORD_ALTERA_AVALON_JTAG_UART_CONTROL(sp->base);
 180cee8:	e0bffe17 	ldw	r2,-8(fp)
 180ceec:	10800017 	ldw	r2,0(r2)
 180cef0:	10800104 	addi	r2,r2,4
 180cef4:	10800037 	ldwio	r2,0(r2)
 180cef8:	e0bffd15 	stw	r2,-12(fp)

  if (control & ALTERA_AVALON_JTAG_UART_CONTROL_AC_MSK)
 180cefc:	e0bffd17 	ldw	r2,-12(fp)
 180cf00:	1081000c 	andi	r2,r2,1024
 180cf04:	1005003a 	cmpeq	r2,r2,zero
 180cf08:	10000c1e 	bne	r2,zero,180cf3c <altera_avalon_jtag_uart_timeout+0x6c>
  {
    IOWR_ALTERA_AVALON_JTAG_UART_CONTROL(sp->base, sp->irq_enable | ALTERA_AVALON_JTAG_UART_CONTROL_AC_MSK);
 180cf0c:	e0bffe17 	ldw	r2,-8(fp)
 180cf10:	10800017 	ldw	r2,0(r2)
 180cf14:	11000104 	addi	r4,r2,4
 180cf18:	e0bffe17 	ldw	r2,-8(fp)
 180cf1c:	10800817 	ldw	r2,32(r2)
 180cf20:	10810014 	ori	r2,r2,1024
 180cf24:	1007883a 	mov	r3,r2
 180cf28:	2005883a 	mov	r2,r4
 180cf2c:	10c00035 	stwio	r3,0(r2)
    sp->host_inactive = 0;
 180cf30:	e0bffe17 	ldw	r2,-8(fp)
 180cf34:	10000915 	stw	zero,36(r2)
 180cf38:	00000a06 	br	180cf64 <altera_avalon_jtag_uart_timeout+0x94>
  }
  else if (sp->host_inactive < INT_MAX - 2) {
 180cf3c:	e0bffe17 	ldw	r2,-8(fp)
 180cf40:	10c00917 	ldw	r3,36(r2)
 180cf44:	00a00034 	movhi	r2,32768
 180cf48:	10bfff04 	addi	r2,r2,-4
 180cf4c:	10c00536 	bltu	r2,r3,180cf64 <altera_avalon_jtag_uart_timeout+0x94>
    sp->host_inactive++;
 180cf50:	e0bffe17 	ldw	r2,-8(fp)
 180cf54:	10800917 	ldw	r2,36(r2)
 180cf58:	10c00044 	addi	r3,r2,1
 180cf5c:	e0bffe17 	ldw	r2,-8(fp)
 180cf60:	10c00915 	stw	r3,36(r2)
 180cf64:	00806074 	movhi	r2,385
 180cf68:	108c5604 	addi	r2,r2,12632
 180cf6c:	10800017 	ldw	r2,0(r2)
      ALT_FLAG_POST (sp->events, ALT_JTAG_UART_TIMEOUT, OS_FLAG_SET);
    }
  }

  return alt_ticks_per_second();
}
 180cf70:	e037883a 	mov	sp,fp
 180cf74:	df000017 	ldw	fp,0(sp)
 180cf78:	dec00104 	addi	sp,sp,4
 180cf7c:	f800283a 	ret

0180cf80 <altera_avalon_jtag_uart_close>:
 * The close routine is not implemented for the small driver; instead it will
 * map to null. This is because the small driver simply waits while characters
 * are transmitted; there is no interrupt-serviced buffer to empty 
 */
int altera_avalon_jtag_uart_close(altera_avalon_jtag_uart_state* sp, int flags)
{
 180cf80:	defffc04 	addi	sp,sp,-16
 180cf84:	df000315 	stw	fp,12(sp)
 180cf88:	df000304 	addi	fp,sp,12
 180cf8c:	e13ffd15 	stw	r4,-12(fp)
 180cf90:	e17ffe15 	stw	r5,-8(fp)
  /* 
   * Wait for all transmit data to be emptied by the JTAG UART ISR, or
   * for a host-inactivity timeout, in which case transmit data will be lost
   */
  while ( (sp->tx_out != sp->tx_in) && (sp->host_inactive < sp->timeout) ) {
 180cf94:	00000706 	br	180cfb4 <altera_avalon_jtag_uart_close+0x34>
    if (flags & O_NONBLOCK) {
 180cf98:	e0bffe17 	ldw	r2,-8(fp)
 180cf9c:	1090000c 	andi	r2,r2,16384
 180cfa0:	1005003a 	cmpeq	r2,r2,zero
 180cfa4:	1000031e 	bne	r2,zero,180cfb4 <altera_avalon_jtag_uart_close+0x34>
      return -EWOULDBLOCK; 
 180cfa8:	00bffd44 	movi	r2,-11
 180cfac:	e0bfff15 	stw	r2,-4(fp)
 180cfb0:	00000b06 	br	180cfe0 <altera_avalon_jtag_uart_close+0x60>
{
  /* 
   * Wait for all transmit data to be emptied by the JTAG UART ISR, or
   * for a host-inactivity timeout, in which case transmit data will be lost
   */
  while ( (sp->tx_out != sp->tx_in) && (sp->host_inactive < sp->timeout) ) {
 180cfb4:	e0bffd17 	ldw	r2,-12(fp)
 180cfb8:	10c00d17 	ldw	r3,52(r2)
 180cfbc:	e0bffd17 	ldw	r2,-12(fp)
 180cfc0:	10800c17 	ldw	r2,48(r2)
 180cfc4:	18800526 	beq	r3,r2,180cfdc <altera_avalon_jtag_uart_close+0x5c>
 180cfc8:	e0bffd17 	ldw	r2,-12(fp)
 180cfcc:	10c00917 	ldw	r3,36(r2)
 180cfd0:	e0bffd17 	ldw	r2,-12(fp)
 180cfd4:	10800117 	ldw	r2,4(r2)
 180cfd8:	18bfef36 	bltu	r3,r2,180cf98 <altera_avalon_jtag_uart_close+0x18>
    if (flags & O_NONBLOCK) {
      return -EWOULDBLOCK; 
    }
  }

  return 0;
 180cfdc:	e03fff15 	stw	zero,-4(fp)
 180cfe0:	e0bfff17 	ldw	r2,-4(fp)
}
 180cfe4:	e037883a 	mov	sp,fp
 180cfe8:	df000017 	ldw	fp,0(sp)
 180cfec:	dec00104 	addi	sp,sp,4
 180cff0:	f800283a 	ret

0180cff4 <altera_avalon_jtag_uart_ioctl>:
/* ----------------------------------------------------------- */

int 
altera_avalon_jtag_uart_ioctl(altera_avalon_jtag_uart_state* sp, int req,
  void* arg)
{
 180cff4:	defff804 	addi	sp,sp,-32
 180cff8:	df000715 	stw	fp,28(sp)
 180cffc:	df000704 	addi	fp,sp,28
 180d000:	e13ffb15 	stw	r4,-20(fp)
 180d004:	e17ffc15 	stw	r5,-16(fp)
 180d008:	e1bffd15 	stw	r6,-12(fp)
  int rc = -ENOTTY;
 180d00c:	00bff9c4 	movi	r2,-25
 180d010:	e0bffa15 	stw	r2,-24(fp)

  switch (req)
 180d014:	e0bffc17 	ldw	r2,-16(fp)
 180d018:	e0bfff15 	stw	r2,-4(fp)
 180d01c:	e0ffff17 	ldw	r3,-4(fp)
 180d020:	189a8060 	cmpeqi	r2,r3,27137
 180d024:	1000041e 	bne	r2,zero,180d038 <altera_avalon_jtag_uart_ioctl+0x44>
 180d028:	e0ffff17 	ldw	r3,-4(fp)
 180d02c:	189a80a0 	cmpeqi	r2,r3,27138
 180d030:	10001b1e 	bne	r2,zero,180d0a0 <altera_avalon_jtag_uart_ioctl+0xac>
 180d034:	00002706 	br	180d0d4 <altera_avalon_jtag_uart_ioctl+0xe0>
  {
  case TIOCSTIMEOUT:
    /* Set the time to wait until assuming host is not connected */
    if (sp->timeout != INT_MAX)
 180d038:	e0bffb17 	ldw	r2,-20(fp)
 180d03c:	10c00117 	ldw	r3,4(r2)
 180d040:	00a00034 	movhi	r2,32768
 180d044:	10bfffc4 	addi	r2,r2,-1
 180d048:	18802226 	beq	r3,r2,180d0d4 <altera_avalon_jtag_uart_ioctl+0xe0>
    {
      int timeout = *((int *)arg);
 180d04c:	e0bffd17 	ldw	r2,-12(fp)
 180d050:	10800017 	ldw	r2,0(r2)
 180d054:	e0bff915 	stw	r2,-28(fp)
      sp->timeout = (timeout >= 2 && timeout < INT_MAX) ? timeout : INT_MAX - 1;
 180d058:	e0bff917 	ldw	r2,-28(fp)
 180d05c:	10800090 	cmplti	r2,r2,2
 180d060:	1000071e 	bne	r2,zero,180d080 <altera_avalon_jtag_uart_ioctl+0x8c>
 180d064:	e0fff917 	ldw	r3,-28(fp)
 180d068:	00a00034 	movhi	r2,32768
 180d06c:	10bfffc4 	addi	r2,r2,-1
 180d070:	18800326 	beq	r3,r2,180d080 <altera_avalon_jtag_uart_ioctl+0x8c>
 180d074:	e0bff917 	ldw	r2,-28(fp)
 180d078:	e0bffe15 	stw	r2,-8(fp)
 180d07c:	00000306 	br	180d08c <altera_avalon_jtag_uart_ioctl+0x98>
 180d080:	00e00034 	movhi	r3,32768
 180d084:	18ffff84 	addi	r3,r3,-2
 180d088:	e0fffe15 	stw	r3,-8(fp)
 180d08c:	e0bffb17 	ldw	r2,-20(fp)
 180d090:	e0fffe17 	ldw	r3,-8(fp)
 180d094:	10c00115 	stw	r3,4(r2)
      rc = 0;
 180d098:	e03ffa15 	stw	zero,-24(fp)
    }
    break;
 180d09c:	00000d06 	br	180d0d4 <altera_avalon_jtag_uart_ioctl+0xe0>

  case TIOCGCONNECTED:
    /* Find out whether host is connected */
    if (sp->timeout != INT_MAX)
 180d0a0:	e0bffb17 	ldw	r2,-20(fp)
 180d0a4:	10c00117 	ldw	r3,4(r2)
 180d0a8:	00a00034 	movhi	r2,32768
 180d0ac:	10bfffc4 	addi	r2,r2,-1
 180d0b0:	18800826 	beq	r3,r2,180d0d4 <altera_avalon_jtag_uart_ioctl+0xe0>
    {
      *((int *)arg) = (sp->host_inactive < sp->timeout) ? 1 : 0;
 180d0b4:	e13ffd17 	ldw	r4,-12(fp)
 180d0b8:	e0bffb17 	ldw	r2,-20(fp)
 180d0bc:	10c00917 	ldw	r3,36(r2)
 180d0c0:	e0bffb17 	ldw	r2,-20(fp)
 180d0c4:	10800117 	ldw	r2,4(r2)
 180d0c8:	1885803a 	cmpltu	r2,r3,r2
 180d0cc:	20800015 	stw	r2,0(r4)
      rc = 0;
 180d0d0:	e03ffa15 	stw	zero,-24(fp)

  default:
    break;
  }

  return rc;
 180d0d4:	e0bffa17 	ldw	r2,-24(fp)
}
 180d0d8:	e037883a 	mov	sp,fp
 180d0dc:	df000017 	ldw	fp,0(sp)
 180d0e0:	dec00104 	addi	sp,sp,4
 180d0e4:	f800283a 	ret

0180d0e8 <altera_avalon_jtag_uart_read>:
/* ----------------------------------------------------------- */

int 
altera_avalon_jtag_uart_read(altera_avalon_jtag_uart_state* sp, 
  char * buffer, int space, int flags)
{
 180d0e8:	defff204 	addi	sp,sp,-56
 180d0ec:	dfc00d15 	stw	ra,52(sp)
 180d0f0:	df000c15 	stw	fp,48(sp)
 180d0f4:	df000c04 	addi	fp,sp,48
 180d0f8:	e13ffb15 	stw	r4,-20(fp)
 180d0fc:	e17ffc15 	stw	r5,-16(fp)
 180d100:	e1bffd15 	stw	r6,-12(fp)
 180d104:	e1fffe15 	stw	r7,-8(fp)
  char * ptr = buffer;
 180d108:	e0bffc17 	ldw	r2,-16(fp)
 180d10c:	e0bffa15 	stw	r2,-24(fp)
   * When running in a multi threaded environment, obtain the "read_lock"
   * semaphore. This ensures that reading from the device is thread-safe.
   */
  ALT_SEM_PEND (sp->read_lock, 0);

  while (space > 0)
 180d110:	00004806 	br	180d234 <altera_avalon_jtag_uart_read+0x14c>
    unsigned int in, out;

    /* Read as much data as possible */
    do
    {
      in  = sp->rx_in;
 180d114:	e0bffb17 	ldw	r2,-20(fp)
 180d118:	10800a17 	ldw	r2,40(r2)
 180d11c:	e0bff715 	stw	r2,-36(fp)
      out = sp->rx_out;
 180d120:	e0bffb17 	ldw	r2,-20(fp)
 180d124:	10800b17 	ldw	r2,44(r2)
 180d128:	e0bff615 	stw	r2,-40(fp)

      if (in >= out)
 180d12c:	e0fff717 	ldw	r3,-36(fp)
 180d130:	e0bff617 	ldw	r2,-40(fp)
 180d134:	18800536 	bltu	r3,r2,180d14c <altera_avalon_jtag_uart_read+0x64>
        n = in - out;
 180d138:	e0bff717 	ldw	r2,-36(fp)
 180d13c:	e0fff617 	ldw	r3,-40(fp)
 180d140:	10c5c83a 	sub	r2,r2,r3
 180d144:	e0bff815 	stw	r2,-32(fp)
 180d148:	00000406 	br	180d15c <altera_avalon_jtag_uart_read+0x74>
      else
        n = ALTERA_AVALON_JTAG_UART_BUF_LEN - out;
 180d14c:	00820004 	movi	r2,2048
 180d150:	e0fff617 	ldw	r3,-40(fp)
 180d154:	10c5c83a 	sub	r2,r2,r3
 180d158:	e0bff815 	stw	r2,-32(fp)

      if (n == 0)
 180d15c:	e0bff817 	ldw	r2,-32(fp)
 180d160:	1005003a 	cmpeq	r2,r2,zero
 180d164:	10001f1e 	bne	r2,zero,180d1e4 <altera_avalon_jtag_uart_read+0xfc>
        break; /* No more data available */

      if (n > space)
 180d168:	e0fffd17 	ldw	r3,-12(fp)
 180d16c:	e0bff817 	ldw	r2,-32(fp)
 180d170:	1880022e 	bgeu	r3,r2,180d17c <altera_avalon_jtag_uart_read+0x94>
        n = space;
 180d174:	e0bffd17 	ldw	r2,-12(fp)
 180d178:	e0bff815 	stw	r2,-32(fp)

      memcpy(ptr, sp->rx_buf + out, n);
 180d17c:	e0bffb17 	ldw	r2,-20(fp)
 180d180:	10c00e04 	addi	r3,r2,56
 180d184:	e0bff617 	ldw	r2,-40(fp)
 180d188:	1887883a 	add	r3,r3,r2
 180d18c:	e0bffa17 	ldw	r2,-24(fp)
 180d190:	1009883a 	mov	r4,r2
 180d194:	180b883a 	mov	r5,r3
 180d198:	e1bff817 	ldw	r6,-32(fp)
 180d19c:	1805f280 	call	1805f28 <memcpy>
      ptr   += n;
 180d1a0:	e0fff817 	ldw	r3,-32(fp)
 180d1a4:	e0bffa17 	ldw	r2,-24(fp)
 180d1a8:	10c5883a 	add	r2,r2,r3
 180d1ac:	e0bffa15 	stw	r2,-24(fp)
      space -= n;
 180d1b0:	e0fffd17 	ldw	r3,-12(fp)
 180d1b4:	e0bff817 	ldw	r2,-32(fp)
 180d1b8:	1885c83a 	sub	r2,r3,r2
 180d1bc:	e0bffd15 	stw	r2,-12(fp)

      sp->rx_out = (out + n) % ALTERA_AVALON_JTAG_UART_BUF_LEN;
 180d1c0:	e0fff617 	ldw	r3,-40(fp)
 180d1c4:	e0bff817 	ldw	r2,-32(fp)
 180d1c8:	1885883a 	add	r2,r3,r2
 180d1cc:	10c1ffcc 	andi	r3,r2,2047
 180d1d0:	e0bffb17 	ldw	r2,-20(fp)
 180d1d4:	10c00b15 	stw	r3,44(r2)
    }
    while (space > 0);
 180d1d8:	e0bffd17 	ldw	r2,-12(fp)
 180d1dc:	10800048 	cmpgei	r2,r2,1
 180d1e0:	103fcc1e 	bne	r2,zero,180d114 <altera_avalon_jtag_uart_read+0x2c>

    /* If we read any data then return it */
    if (ptr != buffer)
 180d1e4:	e0fffa17 	ldw	r3,-24(fp)
 180d1e8:	e0bffc17 	ldw	r2,-16(fp)
 180d1ec:	1880141e 	bne	r3,r2,180d240 <altera_avalon_jtag_uart_read+0x158>
      break;

    /* If in non-blocking mode then return error */
    if (flags & O_NONBLOCK)
 180d1f0:	e0bffe17 	ldw	r2,-8(fp)
 180d1f4:	1090000c 	andi	r2,r2,16384
 180d1f8:	1004c03a 	cmpne	r2,r2,zero
 180d1fc:	1000101e 	bne	r2,zero,180d240 <altera_avalon_jtag_uart_read+0x158>
      while (in == sp->rx_in && sp->host_inactive < sp->timeout)
        ;
    }
#else
    /* No OS: Always spin */
    while (in == sp->rx_in && sp->host_inactive < sp->timeout)
 180d200:	e0bffb17 	ldw	r2,-20(fp)
 180d204:	10c00a17 	ldw	r3,40(r2)
 180d208:	e0bff717 	ldw	r2,-36(fp)
 180d20c:	1880051e 	bne	r3,r2,180d224 <altera_avalon_jtag_uart_read+0x13c>
 180d210:	e0bffb17 	ldw	r2,-20(fp)
 180d214:	10c00917 	ldw	r3,36(r2)
 180d218:	e0bffb17 	ldw	r2,-20(fp)
 180d21c:	10800117 	ldw	r2,4(r2)
 180d220:	18bff736 	bltu	r3,r2,180d200 <altera_avalon_jtag_uart_read+0x118>
      ;
#endif /* __ucosii__ */

    if (in == sp->rx_in)
 180d224:	e0bffb17 	ldw	r2,-20(fp)
 180d228:	10c00a17 	ldw	r3,40(r2)
 180d22c:	e0bff717 	ldw	r2,-36(fp)
 180d230:	18800326 	beq	r3,r2,180d240 <altera_avalon_jtag_uart_read+0x158>
   * When running in a multi threaded environment, obtain the "read_lock"
   * semaphore. This ensures that reading from the device is thread-safe.
   */
  ALT_SEM_PEND (sp->read_lock, 0);

  while (space > 0)
 180d234:	e0bffd17 	ldw	r2,-12(fp)
 180d238:	10800048 	cmpgei	r2,r2,1
 180d23c:	103fb51e 	bne	r2,zero,180d114 <altera_avalon_jtag_uart_read+0x2c>
   * semaphore so that other threads can access the buffer.
   */

  ALT_SEM_POST (sp->read_lock);

  if (ptr != buffer)
 180d240:	e0fffa17 	ldw	r3,-24(fp)
 180d244:	e0bffc17 	ldw	r2,-16(fp)
 180d248:	18801926 	beq	r3,r2,180d2b0 <altera_avalon_jtag_uart_read+0x1c8>
static ALT_INLINE alt_irq_context ALT_ALWAYS_INLINE 
       alt_irq_disable_all (void)
{
  alt_irq_context context;

  NIOS2_READ_STATUS (context);
 180d24c:	0005303a 	rdctl	r2,status
 180d250:	e0bff515 	stw	r2,-44(fp)

  NIOS2_WRITE_STATUS (context & ~NIOS2_STATUS_PIE_MSK);
 180d254:	e0fff517 	ldw	r3,-44(fp)
 180d258:	00bfff84 	movi	r2,-2
 180d25c:	1884703a 	and	r2,r3,r2
 180d260:	1001703a 	wrctl	status,r2
  
  return context;
 180d264:	e0bff517 	ldw	r2,-44(fp)
  {
    /* If we read any data then there is space in the buffer so enable interrupts */
    context = alt_irq_disable_all();
 180d268:	e0bff915 	stw	r2,-28(fp)
    sp->irq_enable |= ALTERA_AVALON_JTAG_UART_CONTROL_RE_MSK;
 180d26c:	e0bffb17 	ldw	r2,-20(fp)
 180d270:	10800817 	ldw	r2,32(r2)
 180d274:	10c00054 	ori	r3,r2,1
 180d278:	e0bffb17 	ldw	r2,-20(fp)
 180d27c:	10c00815 	stw	r3,32(r2)
    IOWR_ALTERA_AVALON_JTAG_UART_CONTROL(sp->base, sp->irq_enable);
 180d280:	e0bffb17 	ldw	r2,-20(fp)
 180d284:	10800017 	ldw	r2,0(r2)
 180d288:	11000104 	addi	r4,r2,4
 180d28c:	e0bffb17 	ldw	r2,-20(fp)
 180d290:	10800817 	ldw	r2,32(r2)
 180d294:	1007883a 	mov	r3,r2
 180d298:	2005883a 	mov	r2,r4
 180d29c:	10c00035 	stwio	r3,0(r2)
 180d2a0:	e0bff917 	ldw	r2,-28(fp)
 180d2a4:	e0bff415 	stw	r2,-48(fp)
  status &= ~NIOS2_STATUS_PIE_MSK;
  status |= (context & NIOS2_STATUS_PIE_MSK);
  
  NIOS2_WRITE_STATUS (status);
#else
  NIOS2_WRITE_STATUS (context);
 180d2a8:	e0bff417 	ldw	r2,-48(fp)
 180d2ac:	1001703a 	wrctl	status,r2
    alt_irq_enable_all(context);
  }

  if (ptr != buffer)
 180d2b0:	e0fffa17 	ldw	r3,-24(fp)
 180d2b4:	e0bffc17 	ldw	r2,-16(fp)
 180d2b8:	18800526 	beq	r3,r2,180d2d0 <altera_avalon_jtag_uart_read+0x1e8>
    return ptr - buffer;
 180d2bc:	e0fffa17 	ldw	r3,-24(fp)
 180d2c0:	e0bffc17 	ldw	r2,-16(fp)
 180d2c4:	1887c83a 	sub	r3,r3,r2
 180d2c8:	e0ffff15 	stw	r3,-4(fp)
 180d2cc:	00000906 	br	180d2f4 <altera_avalon_jtag_uart_read+0x20c>
  else if (flags & O_NONBLOCK)
 180d2d0:	e0bffe17 	ldw	r2,-8(fp)
 180d2d4:	1090000c 	andi	r2,r2,16384
 180d2d8:	1005003a 	cmpeq	r2,r2,zero
 180d2dc:	1000031e 	bne	r2,zero,180d2ec <altera_avalon_jtag_uart_read+0x204>
    return -EWOULDBLOCK;
 180d2e0:	00bffd44 	movi	r2,-11
 180d2e4:	e0bfff15 	stw	r2,-4(fp)
 180d2e8:	00000206 	br	180d2f4 <altera_avalon_jtag_uart_read+0x20c>
  else
    return -EIO;
 180d2ec:	00bffec4 	movi	r2,-5
 180d2f0:	e0bfff15 	stw	r2,-4(fp)
 180d2f4:	e0bfff17 	ldw	r2,-4(fp)
}
 180d2f8:	e037883a 	mov	sp,fp
 180d2fc:	dfc00117 	ldw	ra,4(sp)
 180d300:	df000017 	ldw	fp,0(sp)
 180d304:	dec00204 	addi	sp,sp,8
 180d308:	f800283a 	ret

0180d30c <altera_avalon_jtag_uart_write>:
/* ----------------------------------------------------------- */

int 
altera_avalon_jtag_uart_write(altera_avalon_jtag_uart_state* sp, 
  const char * ptr, int count, int flags)
{
 180d30c:	defff204 	addi	sp,sp,-56
 180d310:	dfc00d15 	stw	ra,52(sp)
 180d314:	df000c15 	stw	fp,48(sp)
 180d318:	df000c04 	addi	fp,sp,48
 180d31c:	e13ffb15 	stw	r4,-20(fp)
 180d320:	e17ffc15 	stw	r5,-16(fp)
 180d324:	e1bffd15 	stw	r6,-12(fp)
 180d328:	e1fffe15 	stw	r7,-8(fp)
  /* Remove warning at optimisation level 03 by seting out to 0 */
  unsigned int in, out=0;
 180d32c:	e03ff915 	stw	zero,-28(fp)
  unsigned int n;
  alt_irq_context context;

  const char * start = ptr;
 180d330:	e0bffc17 	ldw	r2,-16(fp)
 180d334:	e0bff615 	stw	r2,-40(fp)
  ALT_SEM_PEND (sp->write_lock, 0);

  do
  {
    /* Copy as much as we can into the transmit buffer */
    while (count > 0)
 180d338:	00003a06 	br	180d424 <altera_avalon_jtag_uart_write+0x118>
    {
      /* We need a stable value of the out pointer to calculate the space available */
      in  = sp->tx_in;
 180d33c:	e0bffb17 	ldw	r2,-20(fp)
 180d340:	10800c17 	ldw	r2,48(r2)
 180d344:	e0bffa15 	stw	r2,-24(fp)
      out = sp->tx_out;
 180d348:	e0bffb17 	ldw	r2,-20(fp)
 180d34c:	10800d17 	ldw	r2,52(r2)
 180d350:	e0bff915 	stw	r2,-28(fp)

      if (in < out)
 180d354:	e0fffa17 	ldw	r3,-24(fp)
 180d358:	e0bff917 	ldw	r2,-28(fp)
 180d35c:	1880062e 	bgeu	r3,r2,180d378 <altera_avalon_jtag_uart_write+0x6c>
        n = out - 1 - in;
 180d360:	e0fff917 	ldw	r3,-28(fp)
 180d364:	e0bffa17 	ldw	r2,-24(fp)
 180d368:	1885c83a 	sub	r2,r3,r2
 180d36c:	10bfffc4 	addi	r2,r2,-1
 180d370:	e0bff815 	stw	r2,-32(fp)
 180d374:	00000c06 	br	180d3a8 <altera_avalon_jtag_uart_write+0x9c>
      else if (out > 0)
 180d378:	e0bff917 	ldw	r2,-28(fp)
 180d37c:	1005003a 	cmpeq	r2,r2,zero
 180d380:	1000051e 	bne	r2,zero,180d398 <altera_avalon_jtag_uart_write+0x8c>
        n = ALTERA_AVALON_JTAG_UART_BUF_LEN - in;
 180d384:	00820004 	movi	r2,2048
 180d388:	e0fffa17 	ldw	r3,-24(fp)
 180d38c:	10c5c83a 	sub	r2,r2,r3
 180d390:	e0bff815 	stw	r2,-32(fp)
 180d394:	00000406 	br	180d3a8 <altera_avalon_jtag_uart_write+0x9c>
      else
        n = ALTERA_AVALON_JTAG_UART_BUF_LEN - 1 - in;
 180d398:	0081ffc4 	movi	r2,2047
 180d39c:	e0fffa17 	ldw	r3,-24(fp)
 180d3a0:	10c5c83a 	sub	r2,r2,r3
 180d3a4:	e0bff815 	stw	r2,-32(fp)

      if (n == 0)
 180d3a8:	e0bff817 	ldw	r2,-32(fp)
 180d3ac:	1005003a 	cmpeq	r2,r2,zero
 180d3b0:	10001f1e 	bne	r2,zero,180d430 <altera_avalon_jtag_uart_write+0x124>
        break;

      if (n > count)
 180d3b4:	e0fffd17 	ldw	r3,-12(fp)
 180d3b8:	e0bff817 	ldw	r2,-32(fp)
 180d3bc:	1880022e 	bgeu	r3,r2,180d3c8 <altera_avalon_jtag_uart_write+0xbc>
        n = count;
 180d3c0:	e0bffd17 	ldw	r2,-12(fp)
 180d3c4:	e0bff815 	stw	r2,-32(fp)

      memcpy(sp->tx_buf + in, ptr, n);
 180d3c8:	e0bffb17 	ldw	r2,-20(fp)
 180d3cc:	10c20e04 	addi	r3,r2,2104
 180d3d0:	e0bffa17 	ldw	r2,-24(fp)
 180d3d4:	1885883a 	add	r2,r3,r2
 180d3d8:	e0fffc17 	ldw	r3,-16(fp)
 180d3dc:	1009883a 	mov	r4,r2
 180d3e0:	180b883a 	mov	r5,r3
 180d3e4:	e1bff817 	ldw	r6,-32(fp)
 180d3e8:	1805f280 	call	1805f28 <memcpy>
      ptr   += n;
 180d3ec:	e0fff817 	ldw	r3,-32(fp)
 180d3f0:	e0bffc17 	ldw	r2,-16(fp)
 180d3f4:	10c5883a 	add	r2,r2,r3
 180d3f8:	e0bffc15 	stw	r2,-16(fp)
      count -= n;
 180d3fc:	e0fffd17 	ldw	r3,-12(fp)
 180d400:	e0bff817 	ldw	r2,-32(fp)
 180d404:	1885c83a 	sub	r2,r3,r2
 180d408:	e0bffd15 	stw	r2,-12(fp)

      sp->tx_in = (in + n) % ALTERA_AVALON_JTAG_UART_BUF_LEN;
 180d40c:	e0fffa17 	ldw	r3,-24(fp)
 180d410:	e0bff817 	ldw	r2,-32(fp)
 180d414:	1885883a 	add	r2,r3,r2
 180d418:	10c1ffcc 	andi	r3,r2,2047
 180d41c:	e0bffb17 	ldw	r2,-20(fp)
 180d420:	10c00c15 	stw	r3,48(r2)
  ALT_SEM_PEND (sp->write_lock, 0);

  do
  {
    /* Copy as much as we can into the transmit buffer */
    while (count > 0)
 180d424:	e0bffd17 	ldw	r2,-12(fp)
 180d428:	10800048 	cmpgei	r2,r2,1
 180d42c:	103fc31e 	bne	r2,zero,180d33c <altera_avalon_jtag_uart_write+0x30>
static ALT_INLINE alt_irq_context ALT_ALWAYS_INLINE 
       alt_irq_disable_all (void)
{
  alt_irq_context context;

  NIOS2_READ_STATUS (context);
 180d430:	0005303a 	rdctl	r2,status
 180d434:	e0bff515 	stw	r2,-44(fp)

  NIOS2_WRITE_STATUS (context & ~NIOS2_STATUS_PIE_MSK);
 180d438:	e0fff517 	ldw	r3,-44(fp)
 180d43c:	00bfff84 	movi	r2,-2
 180d440:	1884703a 	and	r2,r3,r2
 180d444:	1001703a 	wrctl	status,r2
  
  return context;
 180d448:	e0bff517 	ldw	r2,-44(fp)
     * to enable interrupts if there is no space left in the FIFO
     *
     * For now kick the interrupt routine every time to make it transmit 
     * the data 
     */
    context = alt_irq_disable_all();
 180d44c:	e0bff715 	stw	r2,-36(fp)
    sp->irq_enable |= ALTERA_AVALON_JTAG_UART_CONTROL_WE_MSK;
 180d450:	e0bffb17 	ldw	r2,-20(fp)
 180d454:	10800817 	ldw	r2,32(r2)
 180d458:	10c00094 	ori	r3,r2,2
 180d45c:	e0bffb17 	ldw	r2,-20(fp)
 180d460:	10c00815 	stw	r3,32(r2)
    IOWR_ALTERA_AVALON_JTAG_UART_CONTROL(sp->base, sp->irq_enable);
 180d464:	e0bffb17 	ldw	r2,-20(fp)
 180d468:	10800017 	ldw	r2,0(r2)
 180d46c:	11000104 	addi	r4,r2,4
 180d470:	e0bffb17 	ldw	r2,-20(fp)
 180d474:	10800817 	ldw	r2,32(r2)
 180d478:	1007883a 	mov	r3,r2
 180d47c:	2005883a 	mov	r2,r4
 180d480:	10c00035 	stwio	r3,0(r2)
 180d484:	e0bff717 	ldw	r2,-36(fp)
 180d488:	e0bff415 	stw	r2,-48(fp)
  status &= ~NIOS2_STATUS_PIE_MSK;
  status |= (context & NIOS2_STATUS_PIE_MSK);
  
  NIOS2_WRITE_STATUS (status);
#else
  NIOS2_WRITE_STATUS (context);
 180d48c:	e0bff417 	ldw	r2,-48(fp)
 180d490:	1001703a 	wrctl	status,r2
    /* 
     * If there is any data left then either return now or block until 
     * some has been sent 
     */
    /* consider: test whether there is anything there while doing this and delay for at most 2s. */
    if (count > 0)
 180d494:	e0bffd17 	ldw	r2,-12(fp)
 180d498:	10800050 	cmplti	r2,r2,1
 180d49c:	1000111e 	bne	r2,zero,180d4e4 <altera_avalon_jtag_uart_write+0x1d8>
    {
      if (flags & O_NONBLOCK)
 180d4a0:	e0bffe17 	ldw	r2,-8(fp)
 180d4a4:	1090000c 	andi	r2,r2,16384
 180d4a8:	1004c03a 	cmpne	r2,r2,zero
 180d4ac:	1000101e 	bne	r2,zero,180d4f0 <altera_avalon_jtag_uart_write+0x1e4>
      /*
       * No OS present: Always wait for data to be removed from buffer.  Once
       * the interrupt routine has removed some data then we will be able to
       * insert some more.
       */
      while (out == sp->tx_out && sp->host_inactive < sp->timeout)
 180d4b0:	e0bffb17 	ldw	r2,-20(fp)
 180d4b4:	10c00d17 	ldw	r3,52(r2)
 180d4b8:	e0bff917 	ldw	r2,-28(fp)
 180d4bc:	1880051e 	bne	r3,r2,180d4d4 <altera_avalon_jtag_uart_write+0x1c8>
 180d4c0:	e0bffb17 	ldw	r2,-20(fp)
 180d4c4:	10c00917 	ldw	r3,36(r2)
 180d4c8:	e0bffb17 	ldw	r2,-20(fp)
 180d4cc:	10800117 	ldw	r2,4(r2)
 180d4d0:	18bff736 	bltu	r3,r2,180d4b0 <altera_avalon_jtag_uart_write+0x1a4>
        ;
#endif /* __ucosii__ */

      if (out == sp->tx_out)
 180d4d4:	e0bffb17 	ldw	r2,-20(fp)
 180d4d8:	10c00d17 	ldw	r3,52(r2)
 180d4dc:	e0bff917 	ldw	r2,-28(fp)
 180d4e0:	18800326 	beq	r3,r2,180d4f0 <altera_avalon_jtag_uart_write+0x1e4>
        break;
    }
  }
  while (count > 0);
 180d4e4:	e0bffd17 	ldw	r2,-12(fp)
 180d4e8:	10800048 	cmpgei	r2,r2,1
 180d4ec:	103fcd1e 	bne	r2,zero,180d424 <altera_avalon_jtag_uart_write+0x118>
   * Now that access to the circular buffer is complete, release the write
   * semaphore so that other threads can access the buffer.
   */
  ALT_SEM_POST (sp->write_lock);

  if (ptr != start)
 180d4f0:	e0fffc17 	ldw	r3,-16(fp)
 180d4f4:	e0bff617 	ldw	r2,-40(fp)
 180d4f8:	18800526 	beq	r3,r2,180d510 <altera_avalon_jtag_uart_write+0x204>
    return ptr - start;
 180d4fc:	e0fffc17 	ldw	r3,-16(fp)
 180d500:	e0bff617 	ldw	r2,-40(fp)
 180d504:	1887c83a 	sub	r3,r3,r2
 180d508:	e0ffff15 	stw	r3,-4(fp)
 180d50c:	00000906 	br	180d534 <altera_avalon_jtag_uart_write+0x228>
  else if (flags & O_NONBLOCK)
 180d510:	e0bffe17 	ldw	r2,-8(fp)
 180d514:	1090000c 	andi	r2,r2,16384
 180d518:	1005003a 	cmpeq	r2,r2,zero
 180d51c:	1000031e 	bne	r2,zero,180d52c <altera_avalon_jtag_uart_write+0x220>
    return -EWOULDBLOCK;
 180d520:	00bffd44 	movi	r2,-11
 180d524:	e0bfff15 	stw	r2,-4(fp)
 180d528:	00000206 	br	180d534 <altera_avalon_jtag_uart_write+0x228>
  else
    return -EIO; /* Host not connected */
 180d52c:	00bffec4 	movi	r2,-5
 180d530:	e0bfff15 	stw	r2,-4(fp)
 180d534:	e0bfff17 	ldw	r2,-4(fp)
}
 180d538:	e037883a 	mov	sp,fp
 180d53c:	dfc00117 	ldw	ra,4(sp)
 180d540:	df000017 	ldw	fp,0(sp)
 180d544:	dec00204 	addi	sp,sp,8
 180d548:	f800283a 	ret

0180d54c <lcd_write_command>:

/* --------------------------------------------------------------------- */

static void lcd_write_command(altera_avalon_lcd_16207_state* sp, 
  unsigned char command)
{
 180d54c:	defffa04 	addi	sp,sp,-24
 180d550:	dfc00515 	stw	ra,20(sp)
 180d554:	df000415 	stw	fp,16(sp)
 180d558:	df000404 	addi	fp,sp,16
 180d55c:	e13ffe15 	stw	r4,-8(fp)
 180d560:	e17fff05 	stb	r5,-4(fp)
  unsigned int base = sp->base;
 180d564:	e0bffe17 	ldw	r2,-8(fp)
 180d568:	10800017 	ldw	r2,0(r2)
 180d56c:	e0bffd15 	stw	r2,-12(fp)
  /* We impose a timeout on the driver in case the LCD panel isn't connected.
   * The first time we call this function the timeout is approx 25ms 
   * (assuming 5 cycles per loop and a 200MHz clock).  Obviously systems
   * with slower clocks, or debug builds, or slower memory will take longer.
   */
  int i = 1000000;
 180d570:	008003f4 	movhi	r2,15
 180d574:	10909004 	addi	r2,r2,16960
 180d578:	e0bffc15 	stw	r2,-16(fp)

  /* Don't bother if the LCD panel didn't work before */
  if (sp->broken)
 180d57c:	e0bffe17 	ldw	r2,-8(fp)
 180d580:	10800803 	ldbu	r2,32(r2)
 180d584:	10803fcc 	andi	r2,r2,255
 180d588:	1080201c 	xori	r2,r2,128
 180d58c:	10bfe004 	addi	r2,r2,-128
 180d590:	1004c03a 	cmpne	r2,r2,zero
 180d594:	1000161e 	bne	r2,zero,180d5f0 <lcd_write_command+0xa4>
    return;

  /* Wait until LCD isn't busy. */
  while (IORD_ALTERA_AVALON_LCD_16207_STATUS(base) & ALTERA_AVALON_LCD_16207_STATUS_BUSY_MSK)
 180d598:	00000a06 	br	180d5c4 <lcd_write_command+0x78>
    if (--i == 0)
 180d59c:	e0bffc17 	ldw	r2,-16(fp)
 180d5a0:	10bfffc4 	addi	r2,r2,-1
 180d5a4:	e0bffc15 	stw	r2,-16(fp)
 180d5a8:	e0bffc17 	ldw	r2,-16(fp)
 180d5ac:	1004c03a 	cmpne	r2,r2,zero
 180d5b0:	1000041e 	bne	r2,zero,180d5c4 <lcd_write_command+0x78>
    {
      sp->broken = 1;
 180d5b4:	e0fffe17 	ldw	r3,-8(fp)
 180d5b8:	00800044 	movi	r2,1
 180d5bc:	18800805 	stb	r2,32(r3)
      return;
 180d5c0:	00000b06 	br	180d5f0 <lcd_write_command+0xa4>
  /* Don't bother if the LCD panel didn't work before */
  if (sp->broken)
    return;

  /* Wait until LCD isn't busy. */
  while (IORD_ALTERA_AVALON_LCD_16207_STATUS(base) & ALTERA_AVALON_LCD_16207_STATUS_BUSY_MSK)
 180d5c4:	e0bffd17 	ldw	r2,-12(fp)
 180d5c8:	10800104 	addi	r2,r2,4
 180d5cc:	10800037 	ldwio	r2,0(r2)
 180d5d0:	1080200c 	andi	r2,r2,128
 180d5d4:	1004c03a 	cmpne	r2,r2,zero
 180d5d8:	103ff01e 	bne	r2,zero,180d59c <lcd_write_command+0x50>
    }

  /* Despite what it says in the datasheet, the LCD isn't ready to accept
   * a write immediately after it returns BUSY=0.  Wait for 100us more.
   */
  usleep(100);
 180d5dc:	01001904 	movi	r4,100
 180d5e0:	180aac80 	call	180aac8 <usleep>

  IOWR_ALTERA_AVALON_LCD_16207_COMMAND(base, command);
 180d5e4:	e0bffd17 	ldw	r2,-12(fp)
 180d5e8:	e0ffff03 	ldbu	r3,-4(fp)
 180d5ec:	10c00035 	stwio	r3,0(r2)
}
 180d5f0:	e037883a 	mov	sp,fp
 180d5f4:	dfc00117 	ldw	ra,4(sp)
 180d5f8:	df000017 	ldw	fp,0(sp)
 180d5fc:	dec00204 	addi	sp,sp,8
 180d600:	f800283a 	ret

0180d604 <lcd_write_data>:

/* --------------------------------------------------------------------- */

static void lcd_write_data(altera_avalon_lcd_16207_state* sp, 
  unsigned char data)
{
 180d604:	defffa04 	addi	sp,sp,-24
 180d608:	dfc00515 	stw	ra,20(sp)
 180d60c:	df000415 	stw	fp,16(sp)
 180d610:	df000404 	addi	fp,sp,16
 180d614:	e13ffe15 	stw	r4,-8(fp)
 180d618:	e17fff05 	stb	r5,-4(fp)
  unsigned int base = sp->base;
 180d61c:	e0bffe17 	ldw	r2,-8(fp)
 180d620:	10800017 	ldw	r2,0(r2)
 180d624:	e0bffd15 	stw	r2,-12(fp)
  /* We impose a timeout on the driver in case the LCD panel isn't connected.
   * The first time we call this function the timeout is approx 25ms 
   * (assuming 5 cycles per loop and a 200MHz clock).  Obviously systems
   * with slower clocks, or debug builds, or slower memory will take longer.
   */
  int i = 1000000;
 180d628:	008003f4 	movhi	r2,15
 180d62c:	10909004 	addi	r2,r2,16960
 180d630:	e0bffc15 	stw	r2,-16(fp)

  /* Don't bother if the LCD panel didn't work before */
  if (sp->broken)
 180d634:	e0bffe17 	ldw	r2,-8(fp)
 180d638:	10800803 	ldbu	r2,32(r2)
 180d63c:	10803fcc 	andi	r2,r2,255
 180d640:	1080201c 	xori	r2,r2,128
 180d644:	10bfe004 	addi	r2,r2,-128
 180d648:	1004c03a 	cmpne	r2,r2,zero
 180d64c:	10001d1e 	bne	r2,zero,180d6c4 <lcd_write_data+0xc0>
    return;

  /* Wait until LCD isn't busy. */
  while (IORD_ALTERA_AVALON_LCD_16207_STATUS(base) & ALTERA_AVALON_LCD_16207_STATUS_BUSY_MSK)
 180d650:	00000a06 	br	180d67c <lcd_write_data+0x78>
    if (--i == 0)
 180d654:	e0bffc17 	ldw	r2,-16(fp)
 180d658:	10bfffc4 	addi	r2,r2,-1
 180d65c:	e0bffc15 	stw	r2,-16(fp)
 180d660:	e0bffc17 	ldw	r2,-16(fp)
 180d664:	1004c03a 	cmpne	r2,r2,zero
 180d668:	1000041e 	bne	r2,zero,180d67c <lcd_write_data+0x78>
    {
      sp->broken = 1;
 180d66c:	e0fffe17 	ldw	r3,-8(fp)
 180d670:	00800044 	movi	r2,1
 180d674:	18800805 	stb	r2,32(r3)
      return;
 180d678:	00001206 	br	180d6c4 <lcd_write_data+0xc0>
  /* Don't bother if the LCD panel didn't work before */
  if (sp->broken)
    return;

  /* Wait until LCD isn't busy. */
  while (IORD_ALTERA_AVALON_LCD_16207_STATUS(base) & ALTERA_AVALON_LCD_16207_STATUS_BUSY_MSK)
 180d67c:	e0bffd17 	ldw	r2,-12(fp)
 180d680:	10800104 	addi	r2,r2,4
 180d684:	10800037 	ldwio	r2,0(r2)
 180d688:	1080200c 	andi	r2,r2,128
 180d68c:	1004c03a 	cmpne	r2,r2,zero
 180d690:	103ff01e 	bne	r2,zero,180d654 <lcd_write_data+0x50>
    }

  /* Despite what it says in the datasheet, the LCD isn't ready to accept
   * a write immediately after it returns BUSY=0.  Wait for 100us more.
   */
  usleep(100);
 180d694:	01001904 	movi	r4,100
 180d698:	180aac80 	call	180aac8 <usleep>

  IOWR_ALTERA_AVALON_LCD_16207_DATA(base, data);
 180d69c:	e0bffd17 	ldw	r2,-12(fp)
 180d6a0:	10800204 	addi	r2,r2,8
 180d6a4:	e0ffff03 	ldbu	r3,-4(fp)
 180d6a8:	10c00035 	stwio	r3,0(r2)

  sp->address++;
 180d6ac:	e0bffe17 	ldw	r2,-8(fp)
 180d6b0:	108008c3 	ldbu	r2,35(r2)
 180d6b4:	10800044 	addi	r2,r2,1
 180d6b8:	1007883a 	mov	r3,r2
 180d6bc:	e0bffe17 	ldw	r2,-8(fp)
 180d6c0:	10c008c5 	stb	r3,35(r2)
}
 180d6c4:	e037883a 	mov	sp,fp
 180d6c8:	dfc00117 	ldw	ra,4(sp)
 180d6cc:	df000017 	ldw	fp,0(sp)
 180d6d0:	dec00204 	addi	sp,sp,8
 180d6d4:	f800283a 	ret

0180d6d8 <lcd_clear_screen>:

/* --------------------------------------------------------------------- */

static void lcd_clear_screen(altera_avalon_lcd_16207_state* sp)
{
 180d6d8:	defffc04 	addi	sp,sp,-16
 180d6dc:	dfc00315 	stw	ra,12(sp)
 180d6e0:	df000215 	stw	fp,8(sp)
 180d6e4:	df000204 	addi	fp,sp,8
 180d6e8:	e13fff15 	stw	r4,-4(fp)
  int y;

  lcd_write_command(sp, LCD_CMD_CLEAR);
 180d6ec:	e13fff17 	ldw	r4,-4(fp)
 180d6f0:	01400044 	movi	r5,1
 180d6f4:	180d54c0 	call	180d54c <lcd_write_command>

  sp->x = 0;
 180d6f8:	e0bfff17 	ldw	r2,-4(fp)
 180d6fc:	10000845 	stb	zero,33(r2)
  sp->y = 0;
 180d700:	e0bfff17 	ldw	r2,-4(fp)
 180d704:	10000885 	stb	zero,34(r2)
  sp->address = 0;
 180d708:	e0bfff17 	ldw	r2,-4(fp)
 180d70c:	100008c5 	stb	zero,35(r2)

  for (y = 0 ; y < ALT_LCD_HEIGHT ; y++)
 180d710:	e03ffe15 	stw	zero,-8(fp)
 180d714:	00001906 	br	180d77c <lcd_clear_screen+0xa4>
  {
    memset(sp->line[y].data, ' ', sizeof(sp->line[0].data));
 180d718:	e0bffe17 	ldw	r2,-8(fp)
 180d71c:	108018e4 	muli	r2,r2,99
 180d720:	10c01004 	addi	r3,r2,64
 180d724:	e0bfff17 	ldw	r2,-4(fp)
 180d728:	1889883a 	add	r4,r3,r2
 180d72c:	01400804 	movi	r5,32
 180d730:	01801444 	movi	r6,81
 180d734:	18060a80 	call	18060a8 <memset>
    memset(sp->line[y].visible, ' ', sizeof(sp->line[0].visible));
 180d738:	e0bffe17 	ldw	r2,-8(fp)
 180d73c:	108018e4 	muli	r2,r2,99
 180d740:	10c00c04 	addi	r3,r2,48
 180d744:	e0bfff17 	ldw	r2,-4(fp)
 180d748:	1889883a 	add	r4,r3,r2
 180d74c:	01400804 	movi	r5,32
 180d750:	01800404 	movi	r6,16
 180d754:	18060a80 	call	18060a8 <memset>
    sp->line[y].width = 0;
 180d758:	e0bffe17 	ldw	r2,-8(fp)
 180d75c:	e0ffff17 	ldw	r3,-4(fp)
 180d760:	108018e4 	muli	r2,r2,99
 180d764:	10c5883a 	add	r2,r2,r3
 180d768:	10802404 	addi	r2,r2,144
 180d76c:	10000045 	stb	zero,1(r2)

  sp->x = 0;
  sp->y = 0;
  sp->address = 0;

  for (y = 0 ; y < ALT_LCD_HEIGHT ; y++)
 180d770:	e0bffe17 	ldw	r2,-8(fp)
 180d774:	10800044 	addi	r2,r2,1
 180d778:	e0bffe15 	stw	r2,-8(fp)
 180d77c:	e0bffe17 	ldw	r2,-8(fp)
 180d780:	10800090 	cmplti	r2,r2,2
 180d784:	103fe41e 	bne	r2,zero,180d718 <lcd_clear_screen+0x40>
  {
    memset(sp->line[y].data, ' ', sizeof(sp->line[0].data));
    memset(sp->line[y].visible, ' ', sizeof(sp->line[0].visible));
    sp->line[y].width = 0;
  }
}
 180d788:	e037883a 	mov	sp,fp
 180d78c:	dfc00117 	ldw	ra,4(sp)
 180d790:	df000017 	ldw	fp,0(sp)
 180d794:	dec00204 	addi	sp,sp,8
 180d798:	f800283a 	ret

0180d79c <lcd_repaint_screen>:

/* --------------------------------------------------------------------- */

static void lcd_repaint_screen(altera_avalon_lcd_16207_state* sp)
{
 180d79c:	defff704 	addi	sp,sp,-36
 180d7a0:	dfc00815 	stw	ra,32(sp)
 180d7a4:	df000715 	stw	fp,28(sp)
 180d7a8:	df000704 	addi	fp,sp,28
 180d7ac:	e13fff15 	stw	r4,-4(fp)
  /* scrollpos controls how much the lines have scrolled round.  The speed
   * each line scrolls at is controlled by its speed variable - while
   * scrolline lines will wrap at the position set by width
   */

  int scrollpos = sp->scrollpos;
 180d7b0:	e0bfff17 	ldw	r2,-4(fp)
 180d7b4:	10800943 	ldbu	r2,37(r2)
 180d7b8:	10803fcc 	andi	r2,r2,255
 180d7bc:	1080201c 	xori	r2,r2,128
 180d7c0:	10bfe004 	addi	r2,r2,-128
 180d7c4:	e0bffc15 	stw	r2,-16(fp)

  for (y = 0 ; y < ALT_LCD_HEIGHT ; y++)
 180d7c8:	e03ffe15 	stw	zero,-8(fp)
 180d7cc:	00006606 	br	180d968 <lcd_repaint_screen+0x1cc>
  {
    int width  = sp->line[y].width;
 180d7d0:	e0bffe17 	ldw	r2,-8(fp)
 180d7d4:	e0ffff17 	ldw	r3,-4(fp)
 180d7d8:	108018e4 	muli	r2,r2,99
 180d7dc:	10c5883a 	add	r2,r2,r3
 180d7e0:	10802404 	addi	r2,r2,144
 180d7e4:	10800043 	ldbu	r2,1(r2)
 180d7e8:	10803fcc 	andi	r2,r2,255
 180d7ec:	1080201c 	xori	r2,r2,128
 180d7f0:	10bfe004 	addi	r2,r2,-128
 180d7f4:	e0bffb15 	stw	r2,-20(fp)
    int offset = (scrollpos * sp->line[y].speed) >> 8;
 180d7f8:	e0bffe17 	ldw	r2,-8(fp)
 180d7fc:	e0ffff17 	ldw	r3,-4(fp)
 180d800:	108018e4 	muli	r2,r2,99
 180d804:	10c5883a 	add	r2,r2,r3
 180d808:	10802404 	addi	r2,r2,144
 180d80c:	10800083 	ldbu	r2,2(r2)
 180d810:	10c03fcc 	andi	r3,r2,255
 180d814:	e0bffc17 	ldw	r2,-16(fp)
 180d818:	1885383a 	mul	r2,r3,r2
 180d81c:	1005d23a 	srai	r2,r2,8
 180d820:	e0bffa15 	stw	r2,-24(fp)
    if (offset >= width)
 180d824:	e0fffa17 	ldw	r3,-24(fp)
 180d828:	e0bffb17 	ldw	r2,-20(fp)
 180d82c:	18800116 	blt	r3,r2,180d834 <lcd_repaint_screen+0x98>
      offset = 0;
 180d830:	e03ffa15 	stw	zero,-24(fp)

    for (x = 0 ; x < ALT_LCD_WIDTH ; x++)
 180d834:	e03ffd15 	stw	zero,-12(fp)
 180d838:	00004506 	br	180d950 <lcd_repaint_screen+0x1b4>
    {
      char c = sp->line[y].data[(x + offset) % width];
 180d83c:	e17ffe17 	ldw	r5,-8(fp)
 180d840:	e0fffd17 	ldw	r3,-12(fp)
 180d844:	e0bffa17 	ldw	r2,-24(fp)
 180d848:	1889883a 	add	r4,r3,r2
 180d84c:	e0bffb17 	ldw	r2,-20(fp)
 180d850:	2087283a 	div	r3,r4,r2
 180d854:	e0bffb17 	ldw	r2,-20(fp)
 180d858:	1885383a 	mul	r2,r3,r2
 180d85c:	2089c83a 	sub	r4,r4,r2
 180d860:	e0ffff17 	ldw	r3,-4(fp)
 180d864:	288018e4 	muli	r2,r5,99
 180d868:	10c5883a 	add	r2,r2,r3
 180d86c:	1105883a 	add	r2,r2,r4
 180d870:	10801004 	addi	r2,r2,64
 180d874:	10800003 	ldbu	r2,0(r2)
 180d878:	e0bff945 	stb	r2,-27(fp)

      /* Writing data takes 40us, so don't do it unless required */
      if (sp->line[y].visible[x] != c)
 180d87c:	e0bffe17 	ldw	r2,-8(fp)
 180d880:	e13ffd17 	ldw	r4,-12(fp)
 180d884:	e0ffff17 	ldw	r3,-4(fp)
 180d888:	108018e4 	muli	r2,r2,99
 180d88c:	10c5883a 	add	r2,r2,r3
 180d890:	1105883a 	add	r2,r2,r4
 180d894:	10800c04 	addi	r2,r2,48
 180d898:	10800003 	ldbu	r2,0(r2)
 180d89c:	10c03fcc 	andi	r3,r2,255
 180d8a0:	18c0201c 	xori	r3,r3,128
 180d8a4:	18ffe004 	addi	r3,r3,-128
 180d8a8:	e0bff947 	ldb	r2,-27(fp)
 180d8ac:	18802526 	beq	r3,r2,180d944 <lcd_repaint_screen+0x1a8>
      {
        unsigned char address = x + colstart[y];
 180d8b0:	e0fffe17 	ldw	r3,-8(fp)
 180d8b4:	d0a00d04 	addi	r2,gp,-32716
 180d8b8:	1885883a 	add	r2,r3,r2
 180d8bc:	10800003 	ldbu	r2,0(r2)
 180d8c0:	1007883a 	mov	r3,r2
 180d8c4:	e0bffd17 	ldw	r2,-12(fp)
 180d8c8:	1885883a 	add	r2,r3,r2
 180d8cc:	e0bff905 	stb	r2,-28(fp)

        if (address != sp->address)
 180d8d0:	e0fff903 	ldbu	r3,-28(fp)
 180d8d4:	e0bfff17 	ldw	r2,-4(fp)
 180d8d8:	108008c3 	ldbu	r2,35(r2)
 180d8dc:	10803fcc 	andi	r2,r2,255
 180d8e0:	1080201c 	xori	r2,r2,128
 180d8e4:	10bfe004 	addi	r2,r2,-128
 180d8e8:	18800926 	beq	r3,r2,180d910 <lcd_repaint_screen+0x174>
        {
          lcd_write_command(sp, LCD_CMD_WRITE_DATA | address);
 180d8ec:	e0fff903 	ldbu	r3,-28(fp)
 180d8f0:	00bfe004 	movi	r2,-128
 180d8f4:	1884b03a 	or	r2,r3,r2
 180d8f8:	11403fcc 	andi	r5,r2,255
 180d8fc:	e13fff17 	ldw	r4,-4(fp)
 180d900:	180d54c0 	call	180d54c <lcd_write_command>
          sp->address = address;
 180d904:	e0fff903 	ldbu	r3,-28(fp)
 180d908:	e0bfff17 	ldw	r2,-4(fp)
 180d90c:	10c008c5 	stb	r3,35(r2)
        }

        lcd_write_data(sp, c);
 180d910:	e0bff943 	ldbu	r2,-27(fp)
 180d914:	11403fcc 	andi	r5,r2,255
 180d918:	e13fff17 	ldw	r4,-4(fp)
 180d91c:	180d6040 	call	180d604 <lcd_write_data>
        sp->line[y].visible[x] = c;
 180d920:	e0bffe17 	ldw	r2,-8(fp)
 180d924:	e13ffd17 	ldw	r4,-12(fp)
 180d928:	e0ffff17 	ldw	r3,-4(fp)
 180d92c:	108018e4 	muli	r2,r2,99
 180d930:	10c5883a 	add	r2,r2,r3
 180d934:	1105883a 	add	r2,r2,r4
 180d938:	10c00c04 	addi	r3,r2,48
 180d93c:	e0bff943 	ldbu	r2,-27(fp)
 180d940:	18800005 	stb	r2,0(r3)
    int width  = sp->line[y].width;
    int offset = (scrollpos * sp->line[y].speed) >> 8;
    if (offset >= width)
      offset = 0;

    for (x = 0 ; x < ALT_LCD_WIDTH ; x++)
 180d944:	e0bffd17 	ldw	r2,-12(fp)
 180d948:	10800044 	addi	r2,r2,1
 180d94c:	e0bffd15 	stw	r2,-12(fp)
 180d950:	e0bffd17 	ldw	r2,-12(fp)
 180d954:	10800410 	cmplti	r2,r2,16
 180d958:	103fb81e 	bne	r2,zero,180d83c <lcd_repaint_screen+0xa0>
   * scrolline lines will wrap at the position set by width
   */

  int scrollpos = sp->scrollpos;

  for (y = 0 ; y < ALT_LCD_HEIGHT ; y++)
 180d95c:	e0bffe17 	ldw	r2,-8(fp)
 180d960:	10800044 	addi	r2,r2,1
 180d964:	e0bffe15 	stw	r2,-8(fp)
 180d968:	e0bffe17 	ldw	r2,-8(fp)
 180d96c:	10800090 	cmplti	r2,r2,2
 180d970:	103f971e 	bne	r2,zero,180d7d0 <lcd_repaint_screen+0x34>
        lcd_write_data(sp, c);
        sp->line[y].visible[x] = c;
      }
    }
  }
}
 180d974:	e037883a 	mov	sp,fp
 180d978:	dfc00117 	ldw	ra,4(sp)
 180d97c:	df000017 	ldw	fp,0(sp)
 180d980:	dec00204 	addi	sp,sp,8
 180d984:	f800283a 	ret

0180d988 <lcd_scroll_up>:

/* --------------------------------------------------------------------- */

static void lcd_scroll_up(altera_avalon_lcd_16207_state* sp)
{
 180d988:	defffc04 	addi	sp,sp,-16
 180d98c:	dfc00315 	stw	ra,12(sp)
 180d990:	df000215 	stw	fp,8(sp)
 180d994:	df000204 	addi	fp,sp,8
 180d998:	e13fff15 	stw	r4,-4(fp)
  int y;

  for (y = 0 ; y < ALT_LCD_HEIGHT ; y++)
 180d99c:	e03ffe15 	stw	zero,-8(fp)
 180d9a0:	00001d06 	br	180da18 <lcd_scroll_up+0x90>
  {
    if (y < ALT_LCD_HEIGHT-1)
 180d9a4:	e0bffe17 	ldw	r2,-8(fp)
 180d9a8:	10800048 	cmpgei	r2,r2,1
 180d9ac:	10000f1e 	bne	r2,zero,180d9ec <lcd_scroll_up+0x64>
      memcpy(sp->line[y].data, sp->line[y+1].data, ALT_LCD_VIRTUAL_WIDTH);
 180d9b0:	e0bffe17 	ldw	r2,-8(fp)
 180d9b4:	108018e4 	muli	r2,r2,99
 180d9b8:	10c01004 	addi	r3,r2,64
 180d9bc:	e0bfff17 	ldw	r2,-4(fp)
 180d9c0:	1889883a 	add	r4,r3,r2
 180d9c4:	e0bffe17 	ldw	r2,-8(fp)
 180d9c8:	10800044 	addi	r2,r2,1
 180d9cc:	108018e4 	muli	r2,r2,99
 180d9d0:	10c01004 	addi	r3,r2,64
 180d9d4:	e0bfff17 	ldw	r2,-4(fp)
 180d9d8:	1885883a 	add	r2,r3,r2
 180d9dc:	100b883a 	mov	r5,r2
 180d9e0:	01801404 	movi	r6,80
 180d9e4:	1805f280 	call	1805f28 <memcpy>
 180d9e8:	00000806 	br	180da0c <lcd_scroll_up+0x84>
    else
      memset(sp->line[y].data, ' ', ALT_LCD_VIRTUAL_WIDTH);
 180d9ec:	e0bffe17 	ldw	r2,-8(fp)
 180d9f0:	108018e4 	muli	r2,r2,99
 180d9f4:	10c01004 	addi	r3,r2,64
 180d9f8:	e0bfff17 	ldw	r2,-4(fp)
 180d9fc:	1889883a 	add	r4,r3,r2
 180da00:	01400804 	movi	r5,32
 180da04:	01801404 	movi	r6,80
 180da08:	18060a80 	call	18060a8 <memset>

static void lcd_scroll_up(altera_avalon_lcd_16207_state* sp)
{
  int y;

  for (y = 0 ; y < ALT_LCD_HEIGHT ; y++)
 180da0c:	e0bffe17 	ldw	r2,-8(fp)
 180da10:	10800044 	addi	r2,r2,1
 180da14:	e0bffe15 	stw	r2,-8(fp)
 180da18:	e0bffe17 	ldw	r2,-8(fp)
 180da1c:	10800090 	cmplti	r2,r2,2
 180da20:	103fe01e 	bne	r2,zero,180d9a4 <lcd_scroll_up+0x1c>
      memcpy(sp->line[y].data, sp->line[y+1].data, ALT_LCD_VIRTUAL_WIDTH);
    else
      memset(sp->line[y].data, ' ', ALT_LCD_VIRTUAL_WIDTH);
  }

  sp->y--;
 180da24:	e0bfff17 	ldw	r2,-4(fp)
 180da28:	10800883 	ldbu	r2,34(r2)
 180da2c:	10bfffc4 	addi	r2,r2,-1
 180da30:	1007883a 	mov	r3,r2
 180da34:	e0bfff17 	ldw	r2,-4(fp)
 180da38:	10c00885 	stb	r3,34(r2)
}
 180da3c:	e037883a 	mov	sp,fp
 180da40:	dfc00117 	ldw	ra,4(sp)
 180da44:	df000017 	ldw	fp,0(sp)
 180da48:	dec00204 	addi	sp,sp,8
 180da4c:	f800283a 	ret

0180da50 <lcd_handle_escape>:

/* --------------------------------------------------------------------- */

static void lcd_handle_escape(altera_avalon_lcd_16207_state* sp, char c)
{
 180da50:	defff804 	addi	sp,sp,-32
 180da54:	dfc00715 	stw	ra,28(sp)
 180da58:	df000615 	stw	fp,24(sp)
 180da5c:	df000604 	addi	fp,sp,24
 180da60:	e13ffd15 	stw	r4,-12(fp)
 180da64:	e17ffe05 	stb	r5,-8(fp)
  int parm1 = 0, parm2 = 0;
 180da68:	e03ffc15 	stw	zero,-16(fp)
 180da6c:	e03ffb15 	stw	zero,-20(fp)

  if (sp->escape[0] == '[')
 180da70:	e0bffd17 	ldw	r2,-12(fp)
 180da74:	10800a03 	ldbu	r2,40(r2)
 180da78:	10803fcc 	andi	r2,r2,255
 180da7c:	1080201c 	xori	r2,r2,128
 180da80:	10bfe004 	addi	r2,r2,-128
 180da84:	108016d8 	cmpnei	r2,r2,91
 180da88:	1000491e 	bne	r2,zero,180dbb0 <lcd_handle_escape+0x160>
  {
    char * ptr = sp->escape+1;
 180da8c:	e0bffd17 	ldw	r2,-12(fp)
 180da90:	10800a04 	addi	r2,r2,40
 180da94:	10800044 	addi	r2,r2,1
 180da98:	e0bffa15 	stw	r2,-24(fp)
    while (isdigit(*ptr))
 180da9c:	00000d06 	br	180dad4 <lcd_handle_escape+0x84>
      parm1 = (parm1 * 10) + (*ptr++ - '0');
 180daa0:	e0bffc17 	ldw	r2,-16(fp)
 180daa4:	10c002a4 	muli	r3,r2,10
 180daa8:	e0bffa17 	ldw	r2,-24(fp)
 180daac:	10800003 	ldbu	r2,0(r2)
 180dab0:	10803fcc 	andi	r2,r2,255
 180dab4:	1080201c 	xori	r2,r2,128
 180dab8:	10bfe004 	addi	r2,r2,-128
 180dabc:	1885883a 	add	r2,r3,r2
 180dac0:	10bff404 	addi	r2,r2,-48
 180dac4:	e0bffc15 	stw	r2,-16(fp)
 180dac8:	e0bffa17 	ldw	r2,-24(fp)
 180dacc:	10800044 	addi	r2,r2,1
 180dad0:	e0bffa15 	stw	r2,-24(fp)
  int parm1 = 0, parm2 = 0;

  if (sp->escape[0] == '[')
  {
    char * ptr = sp->escape+1;
    while (isdigit(*ptr))
 180dad4:	e0bffa17 	ldw	r2,-24(fp)
 180dad8:	10800003 	ldbu	r2,0(r2)
 180dadc:	10803fcc 	andi	r2,r2,255
 180dae0:	1080201c 	xori	r2,r2,128
 180dae4:	10bfe004 	addi	r2,r2,-128
 180dae8:	1007883a 	mov	r3,r2
 180daec:	00806074 	movhi	r2,385
 180daf0:	108c4a04 	addi	r2,r2,12584
 180daf4:	10800017 	ldw	r2,0(r2)
 180daf8:	1885883a 	add	r2,r3,r2
 180dafc:	10800003 	ldbu	r2,0(r2)
 180db00:	10803fcc 	andi	r2,r2,255
 180db04:	1080010c 	andi	r2,r2,4
 180db08:	1004c03a 	cmpne	r2,r2,zero
 180db0c:	103fe41e 	bne	r2,zero,180daa0 <lcd_handle_escape+0x50>
      parm1 = (parm1 * 10) + (*ptr++ - '0');

    if (*ptr == ';')
 180db10:	e0bffa17 	ldw	r2,-24(fp)
 180db14:	10800003 	ldbu	r2,0(r2)
 180db18:	10803fcc 	andi	r2,r2,255
 180db1c:	1080201c 	xori	r2,r2,128
 180db20:	10bfe004 	addi	r2,r2,-128
 180db24:	10800ed8 	cmpnei	r2,r2,59
 180db28:	1000231e 	bne	r2,zero,180dbb8 <lcd_handle_escape+0x168>
    {
      ptr++;
 180db2c:	e0bffa17 	ldw	r2,-24(fp)
 180db30:	10800044 	addi	r2,r2,1
 180db34:	e0bffa15 	stw	r2,-24(fp)
      while (isdigit(*ptr))
 180db38:	00000d06 	br	180db70 <lcd_handle_escape+0x120>
        parm2 = (parm2 * 10) + (*ptr++ - '0');
 180db3c:	e0bffb17 	ldw	r2,-20(fp)
 180db40:	10c002a4 	muli	r3,r2,10
 180db44:	e0bffa17 	ldw	r2,-24(fp)
 180db48:	10800003 	ldbu	r2,0(r2)
 180db4c:	10803fcc 	andi	r2,r2,255
 180db50:	1080201c 	xori	r2,r2,128
 180db54:	10bfe004 	addi	r2,r2,-128
 180db58:	1885883a 	add	r2,r3,r2
 180db5c:	10bff404 	addi	r2,r2,-48
 180db60:	e0bffb15 	stw	r2,-20(fp)
 180db64:	e0bffa17 	ldw	r2,-24(fp)
 180db68:	10800044 	addi	r2,r2,1
 180db6c:	e0bffa15 	stw	r2,-24(fp)
      parm1 = (parm1 * 10) + (*ptr++ - '0');

    if (*ptr == ';')
    {
      ptr++;
      while (isdigit(*ptr))
 180db70:	e0bffa17 	ldw	r2,-24(fp)
 180db74:	10800003 	ldbu	r2,0(r2)
 180db78:	10803fcc 	andi	r2,r2,255
 180db7c:	1080201c 	xori	r2,r2,128
 180db80:	10bfe004 	addi	r2,r2,-128
 180db84:	1007883a 	mov	r3,r2
 180db88:	00806074 	movhi	r2,385
 180db8c:	108c4a04 	addi	r2,r2,12584
 180db90:	10800017 	ldw	r2,0(r2)
 180db94:	1885883a 	add	r2,r3,r2
 180db98:	10800003 	ldbu	r2,0(r2)
 180db9c:	10803fcc 	andi	r2,r2,255
 180dba0:	1080010c 	andi	r2,r2,4
 180dba4:	1004c03a 	cmpne	r2,r2,zero
 180dba8:	103fe41e 	bne	r2,zero,180db3c <lcd_handle_escape+0xec>
 180dbac:	00000206 	br	180dbb8 <lcd_handle_escape+0x168>
        parm2 = (parm2 * 10) + (*ptr++ - '0');
    }
  }
  else
    parm1 = -1;
 180dbb0:	00bfffc4 	movi	r2,-1
 180dbb4:	e0bffc15 	stw	r2,-16(fp)

  switch (c)
 180dbb8:	e0bffe07 	ldb	r2,-8(fp)
 180dbbc:	e0bfff15 	stw	r2,-4(fp)
 180dbc0:	e0ffff17 	ldw	r3,-4(fp)
 180dbc4:	188012a0 	cmpeqi	r2,r3,74
 180dbc8:	10002f1e 	bne	r2,zero,180dc88 <lcd_handle_escape+0x238>
 180dbcc:	e0ffff17 	ldw	r3,-4(fp)
 180dbd0:	188012c8 	cmpgei	r2,r3,75
 180dbd4:	1000041e 	bne	r2,zero,180dbe8 <lcd_handle_escape+0x198>
 180dbd8:	e0ffff17 	ldw	r3,-4(fp)
 180dbdc:	18801220 	cmpeqi	r2,r3,72
 180dbe0:	1000081e 	bne	r2,zero,180dc04 <lcd_handle_escape+0x1b4>
 180dbe4:	00004906 	br	180dd0c <lcd_handle_escape+0x2bc>
 180dbe8:	e0ffff17 	ldw	r3,-4(fp)
 180dbec:	188012e0 	cmpeqi	r2,r3,75
 180dbf0:	10002b1e 	bne	r2,zero,180dca0 <lcd_handle_escape+0x250>
 180dbf4:	e0ffff17 	ldw	r3,-4(fp)
 180dbf8:	188019a0 	cmpeqi	r2,r3,102
 180dbfc:	1000011e 	bne	r2,zero,180dc04 <lcd_handle_escape+0x1b4>
 180dc00:	00004206 	br	180dd0c <lcd_handle_escape+0x2bc>
  {
  case 'H': /* ESC '[' <y> ';' <x> 'H'  : Move cursor to location */
  case 'f': /* Same as above */
    if (parm2 > 0)
 180dc04:	e0bffb17 	ldw	r2,-20(fp)
 180dc08:	10800050 	cmplti	r2,r2,1
 180dc0c:	1000051e 	bne	r2,zero,180dc24 <lcd_handle_escape+0x1d4>
      sp->x = parm2 - 1;
 180dc10:	e0bffb17 	ldw	r2,-20(fp)
 180dc14:	10bfffc4 	addi	r2,r2,-1
 180dc18:	1007883a 	mov	r3,r2
 180dc1c:	e0bffd17 	ldw	r2,-12(fp)
 180dc20:	10c00845 	stb	r3,33(r2)
    if (parm1 > 0)
 180dc24:	e0bffc17 	ldw	r2,-16(fp)
 180dc28:	10800050 	cmplti	r2,r2,1
 180dc2c:	1000371e 	bne	r2,zero,180dd0c <lcd_handle_escape+0x2bc>
    {
      sp->y = parm1 - 1;
 180dc30:	e0bffc17 	ldw	r2,-16(fp)
 180dc34:	10bfffc4 	addi	r2,r2,-1
 180dc38:	1007883a 	mov	r3,r2
 180dc3c:	e0bffd17 	ldw	r2,-12(fp)
 180dc40:	10c00885 	stb	r3,34(r2)
      if (sp->y > ALT_LCD_HEIGHT * 2)
 180dc44:	e0bffd17 	ldw	r2,-12(fp)
 180dc48:	10800883 	ldbu	r2,34(r2)
 180dc4c:	10803fcc 	andi	r2,r2,255
 180dc50:	10800170 	cmpltui	r2,r2,5
 180dc54:	1000061e 	bne	r2,zero,180dc70 <lcd_handle_escape+0x220>
        sp->y = ALT_LCD_HEIGHT * 2;
 180dc58:	e0fffd17 	ldw	r3,-12(fp)
 180dc5c:	00800104 	movi	r2,4
 180dc60:	18800885 	stb	r2,34(r3)
      while (sp->y > ALT_LCD_HEIGHT)
 180dc64:	00000206 	br	180dc70 <lcd_handle_escape+0x220>
        lcd_scroll_up(sp);
 180dc68:	e13ffd17 	ldw	r4,-12(fp)
 180dc6c:	180d9880 	call	180d988 <lcd_scroll_up>
    if (parm1 > 0)
    {
      sp->y = parm1 - 1;
      if (sp->y > ALT_LCD_HEIGHT * 2)
        sp->y = ALT_LCD_HEIGHT * 2;
      while (sp->y > ALT_LCD_HEIGHT)
 180dc70:	e0bffd17 	ldw	r2,-12(fp)
 180dc74:	10800883 	ldbu	r2,34(r2)
 180dc78:	10803fcc 	andi	r2,r2,255
 180dc7c:	108000e8 	cmpgeui	r2,r2,3
 180dc80:	103ff91e 	bne	r2,zero,180dc68 <lcd_handle_escape+0x218>
        lcd_scroll_up(sp);
    }
    break;
 180dc84:	00002106 	br	180dd0c <lcd_handle_escape+0x2bc>
    /*   ESC J      is clear to beginning of line    [unimplemented]
     *   ESC [ 0 J  is clear to bottom of screen     [unimplemented]
     *   ESC [ 1 J  is clear to beginning of screen  [unimplemented]
     *   ESC [ 2 J  is clear screen
     */
    if (parm1 == 2)
 180dc88:	e0bffc17 	ldw	r2,-16(fp)
 180dc8c:	10800098 	cmpnei	r2,r2,2
 180dc90:	10001e1e 	bne	r2,zero,180dd0c <lcd_handle_escape+0x2bc>
      lcd_clear_screen(sp);
 180dc94:	e13ffd17 	ldw	r4,-12(fp)
 180dc98:	180d6d80 	call	180d6d8 <lcd_clear_screen>
    break;
 180dc9c:	00001b06 	br	180dd0c <lcd_handle_escape+0x2bc>
    /*   ESC K      is clear to end of line
     *   ESC [ 0 K  is clear to end of line
     *   ESC [ 1 K  is clear to beginning of line    [unimplemented]
     *   ESC [ 2 K  is clear line                    [unimplemented]
     */
    if (parm1 < 1)
 180dca0:	e0bffc17 	ldw	r2,-16(fp)
 180dca4:	10800048 	cmpgei	r2,r2,1
 180dca8:	1000181e 	bne	r2,zero,180dd0c <lcd_handle_escape+0x2bc>
    {
      if (sp->x < ALT_LCD_VIRTUAL_WIDTH)
 180dcac:	e0bffd17 	ldw	r2,-12(fp)
 180dcb0:	10800843 	ldbu	r2,33(r2)
 180dcb4:	10803fcc 	andi	r2,r2,255
 180dcb8:	10801428 	cmpgeui	r2,r2,80
 180dcbc:	1000131e 	bne	r2,zero,180dd0c <lcd_handle_escape+0x2bc>
        memset(sp->line[sp->y].data + sp->x, ' ', ALT_LCD_VIRTUAL_WIDTH - sp->x);
 180dcc0:	e0bffd17 	ldw	r2,-12(fp)
 180dcc4:	10800883 	ldbu	r2,34(r2)
 180dcc8:	10803fcc 	andi	r2,r2,255
 180dccc:	108018e4 	muli	r2,r2,99
 180dcd0:	10c01004 	addi	r3,r2,64
 180dcd4:	e0bffd17 	ldw	r2,-12(fp)
 180dcd8:	1887883a 	add	r3,r3,r2
 180dcdc:	e0bffd17 	ldw	r2,-12(fp)
 180dce0:	10800843 	ldbu	r2,33(r2)
 180dce4:	10803fcc 	andi	r2,r2,255
 180dce8:	1889883a 	add	r4,r3,r2
 180dcec:	e0bffd17 	ldw	r2,-12(fp)
 180dcf0:	10800843 	ldbu	r2,33(r2)
 180dcf4:	10c03fcc 	andi	r3,r2,255
 180dcf8:	00801404 	movi	r2,80
 180dcfc:	10c5c83a 	sub	r2,r2,r3
 180dd00:	100d883a 	mov	r6,r2
 180dd04:	01400804 	movi	r5,32
 180dd08:	18060a80 	call	18060a8 <memset>
    }
    break;
  }
}
 180dd0c:	e037883a 	mov	sp,fp
 180dd10:	dfc00117 	ldw	ra,4(sp)
 180dd14:	df000017 	ldw	fp,0(sp)
 180dd18:	dec00204 	addi	sp,sp,8
 180dd1c:	f800283a 	ret

0180dd20 <altera_avalon_lcd_16207_write>:

/* --------------------------------------------------------------------- */

int altera_avalon_lcd_16207_write(altera_avalon_lcd_16207_state* sp, 
  const char* ptr, int len, int flags)
{
 180dd20:	defff304 	addi	sp,sp,-52
 180dd24:	dfc00c15 	stw	ra,48(sp)
 180dd28:	df000b15 	stw	fp,44(sp)
 180dd2c:	df000b04 	addi	fp,sp,44
 180dd30:	e13ffc15 	stw	r4,-16(fp)
 180dd34:	e17ffd15 	stw	r5,-12(fp)
 180dd38:	e1bffe15 	stw	r6,-8(fp)
 180dd3c:	e1ffff15 	stw	r7,-4(fp)
  const char* end = ptr + len;
 180dd40:	e0bffe17 	ldw	r2,-8(fp)
 180dd44:	1007883a 	mov	r3,r2
 180dd48:	e0bffd17 	ldw	r2,-12(fp)
 180dd4c:	10c5883a 	add	r2,r2,r3
 180dd50:	e0bffb15 	stw	r2,-20(fp)

  ALT_SEM_PEND (sp->write_lock, 0);

  /* Tell the routine which is called off the timer interrupt that the
   * foreground routines are active so it must not repaint the display. */
  sp->active = 1;
 180dd54:	e0fffc17 	ldw	r3,-16(fp)
 180dd58:	00800044 	movi	r2,1
 180dd5c:	188009c5 	stb	r2,39(r3)

  for ( ; ptr < end ; ptr++)
 180dd60:	0000a206 	br	180dfec <altera_avalon_lcd_16207_write+0x2cc>
  {
    char c = *ptr;
 180dd64:	e0bffd17 	ldw	r2,-12(fp)
 180dd68:	10800003 	ldbu	r2,0(r2)
 180dd6c:	e0bff805 	stb	r2,-32(fp)

    if (sp->esccount >= 0)
 180dd70:	e0bffc17 	ldw	r2,-16(fp)
 180dd74:	10800903 	ldbu	r2,36(r2)
 180dd78:	10803fcc 	andi	r2,r2,255
 180dd7c:	1080201c 	xori	r2,r2,128
 180dd80:	10bfe004 	addi	r2,r2,-128
 180dd84:	1004803a 	cmplt	r2,r2,zero
 180dd88:	10003b1e 	bne	r2,zero,180de78 <altera_avalon_lcd_16207_write+0x158>
    {
      unsigned int esccount = sp->esccount;
 180dd8c:	e0bffc17 	ldw	r2,-16(fp)
 180dd90:	10800903 	ldbu	r2,36(r2)
 180dd94:	10803fcc 	andi	r2,r2,255
 180dd98:	1080201c 	xori	r2,r2,128
 180dd9c:	10bfe004 	addi	r2,r2,-128
 180dda0:	e0bff715 	stw	r2,-36(fp)

      /* Single character escape sequences can end with any character
       * Multi character escape sequences start with '[' and contain
       * digits and semicolons before terminating
       */
      if ((esccount == 0 && c != '[') ||
 180dda4:	e0bff717 	ldw	r2,-36(fp)
 180dda8:	1004c03a 	cmpne	r2,r2,zero
 180ddac:	1000031e 	bne	r2,zero,180ddbc <altera_avalon_lcd_16207_write+0x9c>
 180ddb0:	e0bff807 	ldb	r2,-32(fp)
 180ddb4:	108016d8 	cmpnei	r2,r2,91
 180ddb8:	1000111e 	bne	r2,zero,180de00 <altera_avalon_lcd_16207_write+0xe0>
 180ddbc:	e0bff717 	ldw	r2,-36(fp)
 180ddc0:	1005003a 	cmpeq	r2,r2,zero
 180ddc4:	10001a1e 	bne	r2,zero,180de30 <altera_avalon_lcd_16207_write+0x110>
 180ddc8:	e0bff807 	ldb	r2,-32(fp)
 180ddcc:	1007883a 	mov	r3,r2
 180ddd0:	00806074 	movhi	r2,385
 180ddd4:	108c4a04 	addi	r2,r2,12584
 180ddd8:	10800017 	ldw	r2,0(r2)
 180dddc:	1885883a 	add	r2,r3,r2
 180dde0:	10800003 	ldbu	r2,0(r2)
 180dde4:	10803fcc 	andi	r2,r2,255
 180dde8:	1080010c 	andi	r2,r2,4
 180ddec:	1004c03a 	cmpne	r2,r2,zero
 180ddf0:	10000f1e 	bne	r2,zero,180de30 <altera_avalon_lcd_16207_write+0x110>
 180ddf4:	e0bff807 	ldb	r2,-32(fp)
 180ddf8:	10800ee0 	cmpeqi	r2,r2,59
 180ddfc:	10000c1e 	bne	r2,zero,180de30 <altera_avalon_lcd_16207_write+0x110>
          (esccount > 0 && !isdigit(c) && c != ';'))
      {
        sp->escape[esccount] = 0;
 180de00:	e0fff717 	ldw	r3,-36(fp)
 180de04:	e0bffc17 	ldw	r2,-16(fp)
 180de08:	1885883a 	add	r2,r3,r2
 180de0c:	10800a04 	addi	r2,r2,40
 180de10:	10000005 	stb	zero,0(r2)

        lcd_handle_escape(sp, c);
 180de14:	e17ff807 	ldb	r5,-32(fp)
 180de18:	e13ffc17 	ldw	r4,-16(fp)
 180de1c:	180da500 	call	180da50 <lcd_handle_escape>

        sp->esccount = -1;
 180de20:	e0fffc17 	ldw	r3,-16(fp)
 180de24:	00bfffc4 	movi	r2,-1
 180de28:	18800905 	stb	r2,36(r3)

      /* Single character escape sequences can end with any character
       * Multi character escape sequences start with '[' and contain
       * digits and semicolons before terminating
       */
      if ((esccount == 0 && c != '[') ||
 180de2c:	00006c06 	br	180dfe0 <altera_avalon_lcd_16207_write+0x2c0>

        lcd_handle_escape(sp, c);

        sp->esccount = -1;
      }
      else if (sp->esccount < sizeof(sp->escape)-1)
 180de30:	e0bffc17 	ldw	r2,-16(fp)
 180de34:	10800903 	ldbu	r2,36(r2)
 180de38:	10803fcc 	andi	r2,r2,255
 180de3c:	108001e8 	cmpgeui	r2,r2,7
 180de40:	1000671e 	bne	r2,zero,180dfe0 <altera_avalon_lcd_16207_write+0x2c0>
      {
        sp->escape[esccount] = c;
 180de44:	e0fff717 	ldw	r3,-36(fp)
 180de48:	e0bffc17 	ldw	r2,-16(fp)
 180de4c:	1885883a 	add	r2,r3,r2
 180de50:	10c00a04 	addi	r3,r2,40
 180de54:	e0bff803 	ldbu	r2,-32(fp)
 180de58:	18800005 	stb	r2,0(r3)
        sp->esccount++;
 180de5c:	e0bffc17 	ldw	r2,-16(fp)
 180de60:	10800903 	ldbu	r2,36(r2)
 180de64:	10800044 	addi	r2,r2,1
 180de68:	1007883a 	mov	r3,r2
 180de6c:	e0bffc17 	ldw	r2,-16(fp)
 180de70:	10c00905 	stb	r3,36(r2)
 180de74:	00005a06 	br	180dfe0 <altera_avalon_lcd_16207_write+0x2c0>
      }
    }
    else if (c == 27) /* ESC */
 180de78:	e0bff807 	ldb	r2,-32(fp)
 180de7c:	108006d8 	cmpnei	r2,r2,27
 180de80:	1000031e 	bne	r2,zero,180de90 <altera_avalon_lcd_16207_write+0x170>
    {
      sp->esccount = 0;
 180de84:	e0bffc17 	ldw	r2,-16(fp)
 180de88:	10000905 	stb	zero,36(r2)
 180de8c:	00005406 	br	180dfe0 <altera_avalon_lcd_16207_write+0x2c0>
    }
    else if (c == '\r')
 180de90:	e0bff807 	ldb	r2,-32(fp)
 180de94:	10800358 	cmpnei	r2,r2,13
 180de98:	1000031e 	bne	r2,zero,180dea8 <altera_avalon_lcd_16207_write+0x188>
    {
      sp->x = 0;
 180de9c:	e0bffc17 	ldw	r2,-16(fp)
 180dea0:	10000845 	stb	zero,33(r2)
 180dea4:	00004e06 	br	180dfe0 <altera_avalon_lcd_16207_write+0x2c0>
    }
    else if (c == '\n')
 180dea8:	e0bff807 	ldb	r2,-32(fp)
 180deac:	10800298 	cmpnei	r2,r2,10
 180deb0:	1000101e 	bne	r2,zero,180def4 <altera_avalon_lcd_16207_write+0x1d4>
    {
      sp->x = 0;
 180deb4:	e0bffc17 	ldw	r2,-16(fp)
 180deb8:	10000845 	stb	zero,33(r2)
      sp->y++;
 180debc:	e0bffc17 	ldw	r2,-16(fp)
 180dec0:	10800883 	ldbu	r2,34(r2)
 180dec4:	10800044 	addi	r2,r2,1
 180dec8:	1007883a 	mov	r3,r2
 180decc:	e0bffc17 	ldw	r2,-16(fp)
 180ded0:	10c00885 	stb	r3,34(r2)

      /* Let the cursor sit at X=0, Y=HEIGHT without scrolling so the user
       * can print two lines of data without losing one.
       */
      if (sp->y > ALT_LCD_HEIGHT)
 180ded4:	e0bffc17 	ldw	r2,-16(fp)
 180ded8:	10800883 	ldbu	r2,34(r2)
 180dedc:	10803fcc 	andi	r2,r2,255
 180dee0:	108000f0 	cmpltui	r2,r2,3
 180dee4:	10003e1e 	bne	r2,zero,180dfe0 <altera_avalon_lcd_16207_write+0x2c0>
        lcd_scroll_up(sp);
 180dee8:	e13ffc17 	ldw	r4,-16(fp)
 180deec:	180d9880 	call	180d988 <lcd_scroll_up>
 180def0:	00003b06 	br	180dfe0 <altera_avalon_lcd_16207_write+0x2c0>
    }
    else if (c == '\b')
 180def4:	e0bff807 	ldb	r2,-32(fp)
 180def8:	10800218 	cmpnei	r2,r2,8
 180defc:	10000c1e 	bne	r2,zero,180df30 <altera_avalon_lcd_16207_write+0x210>
    {
      if (sp->x > 0)
 180df00:	e0bffc17 	ldw	r2,-16(fp)
 180df04:	10800843 	ldbu	r2,33(r2)
 180df08:	10803fcc 	andi	r2,r2,255
 180df0c:	1005003a 	cmpeq	r2,r2,zero
 180df10:	1000331e 	bne	r2,zero,180dfe0 <altera_avalon_lcd_16207_write+0x2c0>
        sp->x--;
 180df14:	e0bffc17 	ldw	r2,-16(fp)
 180df18:	10800843 	ldbu	r2,33(r2)
 180df1c:	10bfffc4 	addi	r2,r2,-1
 180df20:	1007883a 	mov	r3,r2
 180df24:	e0bffc17 	ldw	r2,-16(fp)
 180df28:	10c00845 	stb	r3,33(r2)
 180df2c:	00002c06 	br	180dfe0 <altera_avalon_lcd_16207_write+0x2c0>
    }
    else if (isprint(c))
 180df30:	e0bff807 	ldb	r2,-32(fp)
 180df34:	1007883a 	mov	r3,r2
 180df38:	00806074 	movhi	r2,385
 180df3c:	108c4a04 	addi	r2,r2,12584
 180df40:	10800017 	ldw	r2,0(r2)
 180df44:	1885883a 	add	r2,r3,r2
 180df48:	10800003 	ldbu	r2,0(r2)
 180df4c:	10803fcc 	andi	r2,r2,255
 180df50:	1080201c 	xori	r2,r2,128
 180df54:	10bfe004 	addi	r2,r2,-128
 180df58:	108025cc 	andi	r2,r2,151
 180df5c:	1005003a 	cmpeq	r2,r2,zero
 180df60:	10001f1e 	bne	r2,zero,180dfe0 <altera_avalon_lcd_16207_write+0x2c0>
    {
      /* If we didn't scroll on the last linefeed then we might need to do
       * it now. */
      if (sp->y >= ALT_LCD_HEIGHT)
 180df64:	e0bffc17 	ldw	r2,-16(fp)
 180df68:	10800883 	ldbu	r2,34(r2)
 180df6c:	10803fcc 	andi	r2,r2,255
 180df70:	108000b0 	cmpltui	r2,r2,2
 180df74:	1000021e 	bne	r2,zero,180df80 <altera_avalon_lcd_16207_write+0x260>
        lcd_scroll_up(sp);
 180df78:	e13ffc17 	ldw	r4,-16(fp)
 180df7c:	180d9880 	call	180d988 <lcd_scroll_up>

      if (sp->x < ALT_LCD_VIRTUAL_WIDTH)
 180df80:	e0bffc17 	ldw	r2,-16(fp)
 180df84:	10800843 	ldbu	r2,33(r2)
 180df88:	10803fcc 	andi	r2,r2,255
 180df8c:	10801428 	cmpgeui	r2,r2,80
 180df90:	10000d1e 	bne	r2,zero,180dfc8 <altera_avalon_lcd_16207_write+0x2a8>
        sp->line[sp->y].data[sp->x] = c;
 180df94:	e0bffc17 	ldw	r2,-16(fp)
 180df98:	10800883 	ldbu	r2,34(r2)
 180df9c:	11003fcc 	andi	r4,r2,255
 180dfa0:	e0bffc17 	ldw	r2,-16(fp)
 180dfa4:	10800843 	ldbu	r2,33(r2)
 180dfa8:	11403fcc 	andi	r5,r2,255
 180dfac:	e0fffc17 	ldw	r3,-16(fp)
 180dfb0:	208018e4 	muli	r2,r4,99
 180dfb4:	10c5883a 	add	r2,r2,r3
 180dfb8:	1145883a 	add	r2,r2,r5
 180dfbc:	10c01004 	addi	r3,r2,64
 180dfc0:	e0bff803 	ldbu	r2,-32(fp)
 180dfc4:	18800005 	stb	r2,0(r3)

      sp->x++;
 180dfc8:	e0bffc17 	ldw	r2,-16(fp)
 180dfcc:	10800843 	ldbu	r2,33(r2)
 180dfd0:	10800044 	addi	r2,r2,1
 180dfd4:	1007883a 	mov	r3,r2
 180dfd8:	e0bffc17 	ldw	r2,-16(fp)
 180dfdc:	10c00845 	stb	r3,33(r2)

  /* Tell the routine which is called off the timer interrupt that the
   * foreground routines are active so it must not repaint the display. */
  sp->active = 1;

  for ( ; ptr < end ; ptr++)
 180dfe0:	e0bffd17 	ldw	r2,-12(fp)
 180dfe4:	10800044 	addi	r2,r2,1
 180dfe8:	e0bffd15 	stw	r2,-12(fp)
 180dfec:	e0fffd17 	ldw	r3,-12(fp)
 180dff0:	e0bffb17 	ldw	r2,-20(fp)
 180dff4:	18bf5b36 	bltu	r3,r2,180dd64 <altera_avalon_lcd_16207_write+0x44>
      sp->x++;
    }
  }

  /* Recalculate the scrolling parameters */
  widthmax = ALT_LCD_WIDTH;
 180dff8:	00800404 	movi	r2,16
 180dffc:	e0bff915 	stw	r2,-28(fp)
  for (y = 0 ; y < ALT_LCD_HEIGHT ; y++)
 180e000:	e03ffa15 	stw	zero,-24(fp)
 180e004:	00003606 	br	180e0e0 <altera_avalon_lcd_16207_write+0x3c0>
  {
    int width;
    for (width = ALT_LCD_VIRTUAL_WIDTH ; width > 0 ; width--)
 180e008:	00801404 	movi	r2,80
 180e00c:	e0bff615 	stw	r2,-40(fp)
 180e010:	00001106 	br	180e058 <altera_avalon_lcd_16207_write+0x338>
      if (sp->line[y].data[width-1] != ' ')
 180e014:	e13ffa17 	ldw	r4,-24(fp)
 180e018:	e0bff617 	ldw	r2,-40(fp)
 180e01c:	117fffc4 	addi	r5,r2,-1
 180e020:	e0fffc17 	ldw	r3,-16(fp)
 180e024:	208018e4 	muli	r2,r4,99
 180e028:	10c5883a 	add	r2,r2,r3
 180e02c:	1145883a 	add	r2,r2,r5
 180e030:	10801004 	addi	r2,r2,64
 180e034:	10800003 	ldbu	r2,0(r2)
 180e038:	10803fcc 	andi	r2,r2,255
 180e03c:	1080201c 	xori	r2,r2,128
 180e040:	10bfe004 	addi	r2,r2,-128
 180e044:	10800818 	cmpnei	r2,r2,32
 180e048:	1000061e 	bne	r2,zero,180e064 <altera_avalon_lcd_16207_write+0x344>
  /* Recalculate the scrolling parameters */
  widthmax = ALT_LCD_WIDTH;
  for (y = 0 ; y < ALT_LCD_HEIGHT ; y++)
  {
    int width;
    for (width = ALT_LCD_VIRTUAL_WIDTH ; width > 0 ; width--)
 180e04c:	e0bff617 	ldw	r2,-40(fp)
 180e050:	10bfffc4 	addi	r2,r2,-1
 180e054:	e0bff615 	stw	r2,-40(fp)
 180e058:	e0bff617 	ldw	r2,-40(fp)
 180e05c:	10800048 	cmpgei	r2,r2,1
 180e060:	103fec1e 	bne	r2,zero,180e014 <altera_avalon_lcd_16207_write+0x2f4>

    /* The minimum width is the size of the LCD panel.  If the real width
     * is long enough to require scrolling then add an extra space so the
     * end of the message doesn't run into the beginning of it.
     */
    if (width <= ALT_LCD_WIDTH)
 180e064:	e0bff617 	ldw	r2,-40(fp)
 180e068:	10800448 	cmpgei	r2,r2,17
 180e06c:	1000031e 	bne	r2,zero,180e07c <altera_avalon_lcd_16207_write+0x35c>
      width = ALT_LCD_WIDTH;
 180e070:	00800404 	movi	r2,16
 180e074:	e0bff615 	stw	r2,-40(fp)
 180e078:	00000306 	br	180e088 <altera_avalon_lcd_16207_write+0x368>
    else
      width++;
 180e07c:	e0bff617 	ldw	r2,-40(fp)
 180e080:	10800044 	addi	r2,r2,1
 180e084:	e0bff615 	stw	r2,-40(fp)

    sp->line[y].width = width;
 180e088:	e13ffa17 	ldw	r4,-24(fp)
 180e08c:	e0bff617 	ldw	r2,-40(fp)
 180e090:	100b883a 	mov	r5,r2
 180e094:	e0fffc17 	ldw	r3,-16(fp)
 180e098:	208018e4 	muli	r2,r4,99
 180e09c:	10c5883a 	add	r2,r2,r3
 180e0a0:	10802404 	addi	r2,r2,144
 180e0a4:	11400045 	stb	r5,1(r2)
    if (widthmax < width)
 180e0a8:	e0fff917 	ldw	r3,-28(fp)
 180e0ac:	e0bff617 	ldw	r2,-40(fp)
 180e0b0:	1880020e 	bge	r3,r2,180e0bc <altera_avalon_lcd_16207_write+0x39c>
      widthmax = width;
 180e0b4:	e0bff617 	ldw	r2,-40(fp)
 180e0b8:	e0bff915 	stw	r2,-28(fp)
    sp->line[y].speed = 0; /* By default lines don't scroll */
 180e0bc:	e0bffa17 	ldw	r2,-24(fp)
 180e0c0:	e0fffc17 	ldw	r3,-16(fp)
 180e0c4:	108018e4 	muli	r2,r2,99
 180e0c8:	10c5883a 	add	r2,r2,r3
 180e0cc:	10802404 	addi	r2,r2,144
 180e0d0:	10000085 	stb	zero,2(r2)
    }
  }

  /* Recalculate the scrolling parameters */
  widthmax = ALT_LCD_WIDTH;
  for (y = 0 ; y < ALT_LCD_HEIGHT ; y++)
 180e0d4:	e0bffa17 	ldw	r2,-24(fp)
 180e0d8:	10800044 	addi	r2,r2,1
 180e0dc:	e0bffa15 	stw	r2,-24(fp)
 180e0e0:	e0bffa17 	ldw	r2,-24(fp)
 180e0e4:	10800090 	cmplti	r2,r2,2
 180e0e8:	103fc71e 	bne	r2,zero,180e008 <altera_avalon_lcd_16207_write+0x2e8>
    if (widthmax < width)
      widthmax = width;
    sp->line[y].speed = 0; /* By default lines don't scroll */
  }

  if (widthmax <= ALT_LCD_WIDTH)
 180e0ec:	e0bff917 	ldw	r2,-28(fp)
 180e0f0:	10800448 	cmpgei	r2,r2,17
 180e0f4:	1000031e 	bne	r2,zero,180e104 <altera_avalon_lcd_16207_write+0x3e4>
    sp->scrollmax = 0;
 180e0f8:	e0bffc17 	ldw	r2,-16(fp)
 180e0fc:	10000985 	stb	zero,38(r2)
 180e100:	00002d06 	br	180e1b8 <altera_avalon_lcd_16207_write+0x498>
  else
  {
    widthmax *= 2;
 180e104:	e0bff917 	ldw	r2,-28(fp)
 180e108:	1085883a 	add	r2,r2,r2
 180e10c:	e0bff915 	stw	r2,-28(fp)
    sp->scrollmax = widthmax;
 180e110:	e0bff917 	ldw	r2,-28(fp)
 180e114:	1007883a 	mov	r3,r2
 180e118:	e0bffc17 	ldw	r2,-16(fp)
 180e11c:	10c00985 	stb	r3,38(r2)

    /* Now calculate how fast each of the other lines should go */
    for (y = 0 ; y < ALT_LCD_HEIGHT ; y++)
 180e120:	e03ffa15 	stw	zero,-24(fp)
 180e124:	00002106 	br	180e1ac <altera_avalon_lcd_16207_write+0x48c>
      if (sp->line[y].width > ALT_LCD_WIDTH)
 180e128:	e0bffa17 	ldw	r2,-24(fp)
 180e12c:	e0fffc17 	ldw	r3,-16(fp)
 180e130:	108018e4 	muli	r2,r2,99
 180e134:	10c5883a 	add	r2,r2,r3
 180e138:	10802404 	addi	r2,r2,144
 180e13c:	10800043 	ldbu	r2,1(r2)
 180e140:	10803fcc 	andi	r2,r2,255
 180e144:	1080201c 	xori	r2,r2,128
 180e148:	10bfe004 	addi	r2,r2,-128
 180e14c:	10800450 	cmplti	r2,r2,17
 180e150:	1000131e 	bne	r2,zero,180e1a0 <altera_avalon_lcd_16207_write+0x480>
         */
#if 1
        /* This option makes all the lines scroll round at different speeds
         * which are chosen so that all the scrolls finish at the same time.
         */
        sp->line[y].speed = 256 * sp->line[y].width / widthmax;
 180e154:	e17ffa17 	ldw	r5,-24(fp)
 180e158:	e0bffa17 	ldw	r2,-24(fp)
 180e15c:	e0fffc17 	ldw	r3,-16(fp)
 180e160:	108018e4 	muli	r2,r2,99
 180e164:	10c5883a 	add	r2,r2,r3
 180e168:	10802404 	addi	r2,r2,144
 180e16c:	10800043 	ldbu	r2,1(r2)
 180e170:	10803fcc 	andi	r2,r2,255
 180e174:	1080201c 	xori	r2,r2,128
 180e178:	10bfe004 	addi	r2,r2,-128
 180e17c:	1006923a 	slli	r3,r2,8
 180e180:	e0bff917 	ldw	r2,-28(fp)
 180e184:	1885283a 	div	r2,r3,r2
 180e188:	1009883a 	mov	r4,r2
 180e18c:	e0fffc17 	ldw	r3,-16(fp)
 180e190:	288018e4 	muli	r2,r5,99
 180e194:	10c5883a 	add	r2,r2,r3
 180e198:	10802404 	addi	r2,r2,144
 180e19c:	11000085 	stb	r4,2(r2)
  {
    widthmax *= 2;
    sp->scrollmax = widthmax;

    /* Now calculate how fast each of the other lines should go */
    for (y = 0 ; y < ALT_LCD_HEIGHT ; y++)
 180e1a0:	e0bffa17 	ldw	r2,-24(fp)
 180e1a4:	10800044 	addi	r2,r2,1
 180e1a8:	e0bffa15 	stw	r2,-24(fp)
 180e1ac:	e0bffa17 	ldw	r2,-24(fp)
 180e1b0:	10800090 	cmplti	r2,r2,2
 180e1b4:	103fdc1e 	bne	r2,zero,180e128 <altera_avalon_lcd_16207_write+0x408>
   * (because active was set when the timer interrupt occurred).  If there
   * has been a missed repaint then paint again.  And again.  etc.
   */
  for ( ; ; )
  {
    int old_scrollpos = sp->scrollpos;
 180e1b8:	e0bffc17 	ldw	r2,-16(fp)
 180e1bc:	10800943 	ldbu	r2,37(r2)
 180e1c0:	10803fcc 	andi	r2,r2,255
 180e1c4:	1080201c 	xori	r2,r2,128
 180e1c8:	10bfe004 	addi	r2,r2,-128
 180e1cc:	e0bff515 	stw	r2,-44(fp)

    lcd_repaint_screen(sp);
 180e1d0:	e13ffc17 	ldw	r4,-16(fp)
 180e1d4:	180d79c0 	call	180d79c <lcd_repaint_screen>

    /* Let the timer routines repaint the display again */
    sp->active = 0;
 180e1d8:	e0bffc17 	ldw	r2,-16(fp)
 180e1dc:	100009c5 	stb	zero,39(r2)

    /* Have the timer routines tried to scroll while we were painting?
     * If not then we can exit */
    if (sp->scrollpos == old_scrollpos)
 180e1e0:	e0bffc17 	ldw	r2,-16(fp)
 180e1e4:	10800943 	ldbu	r2,37(r2)
 180e1e8:	10c03fcc 	andi	r3,r2,255
 180e1ec:	18c0201c 	xori	r3,r3,128
 180e1f0:	18ffe004 	addi	r3,r3,-128
 180e1f4:	e0bff517 	ldw	r2,-44(fp)
 180e1f8:	18800426 	beq	r3,r2,180e20c <altera_avalon_lcd_16207_write+0x4ec>
      break;

    /* We need to repaint again since the display scrolled while we were
     * painting last time */
    sp->active = 1;
 180e1fc:	e0fffc17 	ldw	r3,-16(fp)
 180e200:	00800044 	movi	r2,1
 180e204:	188009c5 	stb	r2,39(r3)
  }
 180e208:	003feb06 	br	180e1b8 <altera_avalon_lcd_16207_write+0x498>
   * semaphore so that other threads can access the buffer.
   */

  ALT_SEM_POST (sp->write_lock);

  return len;
 180e20c:	e0bffe17 	ldw	r2,-8(fp)
}
 180e210:	e037883a 	mov	sp,fp
 180e214:	dfc00117 	ldw	ra,4(sp)
 180e218:	df000017 	ldw	fp,0(sp)
 180e21c:	dec00204 	addi	sp,sp,8
 180e220:	f800283a 	ret

0180e224 <alt_lcd_16207_timeout>:
/*
 * Timeout routine is called every second
 */

static alt_u32 alt_lcd_16207_timeout(void* context) 
{
 180e224:	defffc04 	addi	sp,sp,-16
 180e228:	dfc00315 	stw	ra,12(sp)
 180e22c:	df000215 	stw	fp,8(sp)
 180e230:	df000204 	addi	fp,sp,8
 180e234:	e13fff15 	stw	r4,-4(fp)
  altera_avalon_lcd_16207_state* sp = (altera_avalon_lcd_16207_state*)context;
 180e238:	e0bfff17 	ldw	r2,-4(fp)
 180e23c:	e0bffe15 	stw	r2,-8(fp)

  /* Update the scrolling position */
  if (sp->scrollpos + 1 >= sp->scrollmax)
 180e240:	e0bffe17 	ldw	r2,-8(fp)
 180e244:	10800943 	ldbu	r2,37(r2)
 180e248:	10803fcc 	andi	r2,r2,255
 180e24c:	1080201c 	xori	r2,r2,128
 180e250:	10bfe004 	addi	r2,r2,-128
 180e254:	10c00044 	addi	r3,r2,1
 180e258:	e0bffe17 	ldw	r2,-8(fp)
 180e25c:	10800983 	ldbu	r2,38(r2)
 180e260:	10803fcc 	andi	r2,r2,255
 180e264:	1080201c 	xori	r2,r2,128
 180e268:	10bfe004 	addi	r2,r2,-128
 180e26c:	18800316 	blt	r3,r2,180e27c <alt_lcd_16207_timeout+0x58>
    sp->scrollpos = 0;
 180e270:	e0bffe17 	ldw	r2,-8(fp)
 180e274:	10000945 	stb	zero,37(r2)
 180e278:	00000606 	br	180e294 <alt_lcd_16207_timeout+0x70>
  else
    sp->scrollpos = sp->scrollpos + 1;
 180e27c:	e0bffe17 	ldw	r2,-8(fp)
 180e280:	10800943 	ldbu	r2,37(r2)
 180e284:	10800044 	addi	r2,r2,1
 180e288:	1007883a 	mov	r3,r2
 180e28c:	e0bffe17 	ldw	r2,-8(fp)
 180e290:	10c00945 	stb	r3,37(r2)

  /* Repaint the panel unless the foreground will do it again soon */
  if (sp->scrollmax > 0 && !sp->active)
 180e294:	e0bffe17 	ldw	r2,-8(fp)
 180e298:	10800983 	ldbu	r2,38(r2)
 180e29c:	10803fcc 	andi	r2,r2,255
 180e2a0:	1080201c 	xori	r2,r2,128
 180e2a4:	10bfe004 	addi	r2,r2,-128
 180e2a8:	10800050 	cmplti	r2,r2,1
 180e2ac:	1000091e 	bne	r2,zero,180e2d4 <alt_lcd_16207_timeout+0xb0>
 180e2b0:	e0bffe17 	ldw	r2,-8(fp)
 180e2b4:	108009c3 	ldbu	r2,39(r2)
 180e2b8:	10803fcc 	andi	r2,r2,255
 180e2bc:	1080201c 	xori	r2,r2,128
 180e2c0:	10bfe004 	addi	r2,r2,-128
 180e2c4:	1004c03a 	cmpne	r2,r2,zero
 180e2c8:	1000021e 	bne	r2,zero,180e2d4 <alt_lcd_16207_timeout+0xb0>
    lcd_repaint_screen(sp);
 180e2cc:	e13ffe17 	ldw	r4,-8(fp)
 180e2d0:	180d79c0 	call	180d79c <lcd_repaint_screen>

  return sp->period;
 180e2d4:	e0bffe17 	ldw	r2,-8(fp)
 180e2d8:	10800717 	ldw	r2,28(r2)
}
 180e2dc:	e037883a 	mov	sp,fp
 180e2e0:	dfc00117 	ldw	ra,4(sp)
 180e2e4:	df000017 	ldw	fp,0(sp)
 180e2e8:	dec00204 	addi	sp,sp,8
 180e2ec:	f800283a 	ret

0180e2f0 <altera_avalon_lcd_16207_init>:

/*
 * Called at boot time to initialise the LCD driver
 */
void altera_avalon_lcd_16207_init(altera_avalon_lcd_16207_state* sp)
{
 180e2f0:	defffc04 	addi	sp,sp,-16
 180e2f4:	dfc00315 	stw	ra,12(sp)
 180e2f8:	df000215 	stw	fp,8(sp)
 180e2fc:	df000204 	addi	fp,sp,8
 180e300:	e13fff15 	stw	r4,-4(fp)
  unsigned int base = sp->base;
 180e304:	e0bfff17 	ldw	r2,-4(fp)
 180e308:	10800017 	ldw	r2,0(r2)
 180e30c:	e0bffe15 	stw	r2,-8(fp)

  /* Mark the device as functional */
  sp->broken = 0;
 180e310:	e0bfff17 	ldw	r2,-4(fp)
 180e314:	10000805 	stb	zero,32(r2)
   * the BUSY bit in the status register doesn't work until the display
   * has been reset three times.
   */

  /* Wait for 15 ms then reset */
  usleep(15000);
 180e318:	010ea604 	movi	r4,15000
 180e31c:	180aac80 	call	180aac8 <usleep>
  IOWR_ALTERA_AVALON_LCD_16207_COMMAND(base, LCD_CMD_FUNCTION_SET | LCD_CMD_8BIT);
 180e320:	e0bffe17 	ldw	r2,-8(fp)
 180e324:	1007883a 	mov	r3,r2
 180e328:	00800c04 	movi	r2,48
 180e32c:	18800035 	stwio	r2,0(r3)

  /* Wait for another 4.1ms and reset again */
  usleep(4100);  
 180e330:	01040104 	movi	r4,4100
 180e334:	180aac80 	call	180aac8 <usleep>
  IOWR_ALTERA_AVALON_LCD_16207_COMMAND(base, LCD_CMD_FUNCTION_SET | LCD_CMD_8BIT);
 180e338:	e0bffe17 	ldw	r2,-8(fp)
 180e33c:	1007883a 	mov	r3,r2
 180e340:	00800c04 	movi	r2,48
 180e344:	18800035 	stwio	r2,0(r3)

  /* Wait a further 1 ms and reset a third time */
  usleep(1000);
 180e348:	0100fa04 	movi	r4,1000
 180e34c:	180aac80 	call	180aac8 <usleep>
  IOWR_ALTERA_AVALON_LCD_16207_COMMAND(base, LCD_CMD_FUNCTION_SET | LCD_CMD_8BIT);
 180e350:	e0bffe17 	ldw	r2,-8(fp)
 180e354:	1007883a 	mov	r3,r2
 180e358:	00800c04 	movi	r2,48
 180e35c:	18800035 	stwio	r2,0(r3)

  /* Setup interface parameters: 8 bit bus, 2 rows, 5x7 font */
  lcd_write_command(sp, LCD_CMD_FUNCTION_SET | LCD_CMD_8BIT | LCD_CMD_TWO_LINE);
 180e360:	e13fff17 	ldw	r4,-4(fp)
 180e364:	01400e04 	movi	r5,56
 180e368:	180d54c0 	call	180d54c <lcd_write_command>
  
  /* Turn display off */
  lcd_write_command(sp, LCD_CMD_ONOFF);
 180e36c:	e13fff17 	ldw	r4,-4(fp)
 180e370:	01400204 	movi	r5,8
 180e374:	180d54c0 	call	180d54c <lcd_write_command>

  /* Clear display */
  lcd_clear_screen(sp);
 180e378:	e13fff17 	ldw	r4,-4(fp)
 180e37c:	180d6d80 	call	180d6d8 <lcd_clear_screen>
  
  /* Set mode: increment after writing, don't shift display */
  lcd_write_command(sp, LCD_CMD_MODES | LCD_CMD_MODE_INC);
 180e380:	e13fff17 	ldw	r4,-4(fp)
 180e384:	01400184 	movi	r5,6
 180e388:	180d54c0 	call	180d54c <lcd_write_command>

  /* Turn display on */
  lcd_write_command(sp, LCD_CMD_ONOFF | LCD_CMD_ENABLE_DISP);
 180e38c:	e13fff17 	ldw	r4,-4(fp)
 180e390:	01400304 	movi	r5,12
 180e394:	180d54c0 	call	180d54c <lcd_write_command>

  sp->esccount = -1;
 180e398:	e0ffff17 	ldw	r3,-4(fp)
 180e39c:	00bfffc4 	movi	r2,-1
 180e3a0:	18800905 	stb	r2,36(r3)
  memset(sp->escape, 0, sizeof(sp->escape));
 180e3a4:	e0bfff17 	ldw	r2,-4(fp)
 180e3a8:	11000a04 	addi	r4,r2,40
 180e3ac:	000b883a 	mov	r5,zero
 180e3b0:	01800204 	movi	r6,8
 180e3b4:	18060a80 	call	18060a8 <memset>

  sp->scrollpos = 0;
 180e3b8:	e0bfff17 	ldw	r2,-4(fp)
 180e3bc:	10000945 	stb	zero,37(r2)
  sp->scrollmax = 0;
 180e3c0:	e0bfff17 	ldw	r2,-4(fp)
 180e3c4:	10000985 	stb	zero,38(r2)
  sp->active = 0;
 180e3c8:	e0bfff17 	ldw	r2,-4(fp)
 180e3cc:	100009c5 	stb	zero,39(r2)
 180e3d0:	00806074 	movhi	r2,385
 180e3d4:	108c5604 	addi	r2,r2,12632
 180e3d8:	10800017 	ldw	r2,0(r2)
 180e3dc:	1007883a 	mov	r3,r2

  sp->period = alt_ticks_per_second() / 10; /* Call every 100ms */
 180e3e0:	00800284 	movi	r2,10
 180e3e4:	1885203a 	divu	r2,r3,r2
 180e3e8:	1007883a 	mov	r3,r2
 180e3ec:	e0bfff17 	ldw	r2,-4(fp)
 180e3f0:	10c00715 	stw	r3,28(r2)

  alt_alarm_start(&sp->alarm, sp->period, &alt_lcd_16207_timeout, sp);
 180e3f4:	e0bfff17 	ldw	r2,-4(fp)
 180e3f8:	11000104 	addi	r4,r2,4
 180e3fc:	e0bfff17 	ldw	r2,-4(fp)
 180e400:	10800717 	ldw	r2,28(r2)
 180e404:	100b883a 	mov	r5,r2
 180e408:	01806074 	movhi	r6,385
 180e40c:	31b88904 	addi	r6,r6,-7644
 180e410:	e1ffff17 	ldw	r7,-4(fp)
 180e414:	180ef340 	call	180ef34 <alt_alarm_start>
}
 180e418:	e037883a 	mov	sp,fp
 180e41c:	dfc00117 	ldw	ra,4(sp)
 180e420:	df000017 	ldw	fp,0(sp)
 180e424:	dec00204 	addi	sp,sp,8
 180e428:	f800283a 	ret

0180e42c <altera_avalon_lcd_16207_write_fd>:
extern int altera_avalon_lcd_16207_write(altera_avalon_lcd_16207_state* sp,
  const char* ptr, int count, int flags);

int 
altera_avalon_lcd_16207_write_fd(alt_fd* fd, const char* buffer, int space)
{
 180e42c:	defffa04 	addi	sp,sp,-24
 180e430:	dfc00515 	stw	ra,20(sp)
 180e434:	df000415 	stw	fp,16(sp)
 180e438:	df000404 	addi	fp,sp,16
 180e43c:	e13ffd15 	stw	r4,-12(fp)
 180e440:	e17ffe15 	stw	r5,-8(fp)
 180e444:	e1bfff15 	stw	r6,-4(fp)
    altera_avalon_lcd_16207_dev* dev = (altera_avalon_lcd_16207_dev*) fd->dev; 
 180e448:	e0bffd17 	ldw	r2,-12(fp)
 180e44c:	10800017 	ldw	r2,0(r2)
 180e450:	e0bffc15 	stw	r2,-16(fp)

    return altera_avalon_lcd_16207_write(&dev->state, buffer, space,
 180e454:	e0bffc17 	ldw	r2,-16(fp)
 180e458:	11000a04 	addi	r4,r2,40
 180e45c:	e0bffd17 	ldw	r2,-12(fp)
 180e460:	11c00217 	ldw	r7,8(r2)
 180e464:	e17ffe17 	ldw	r5,-8(fp)
 180e468:	e1bfff17 	ldw	r6,-4(fp)
 180e46c:	180dd200 	call	180dd20 <altera_avalon_lcd_16207_write>
      fd->fd_flags);
}
 180e470:	e037883a 	mov	sp,fp
 180e474:	dfc00117 	ldw	ra,4(sp)
 180e478:	df000017 	ldw	fp,0(sp)
 180e47c:	dec00204 	addi	sp,sp,8
 180e480:	f800283a 	ret

0180e484 <alt_avalon_timer_sc_irq>:
#ifdef ALT_ENHANCED_INTERRUPT_API_PRESENT
static void alt_avalon_timer_sc_irq (void* base)
#else
static void alt_avalon_timer_sc_irq (void* base, alt_u32 id)
#endif
{
 180e484:	defffa04 	addi	sp,sp,-24
 180e488:	dfc00515 	stw	ra,20(sp)
 180e48c:	df000415 	stw	fp,16(sp)
 180e490:	df000404 	addi	fp,sp,16
 180e494:	e13fff15 	stw	r4,-4(fp)
  alt_irq_context cpu_sr;
  
  /* clear the interrupt */
  IOWR_ALTERA_AVALON_TIMER_STATUS (base, 0);
 180e498:	e0bfff17 	ldw	r2,-4(fp)
 180e49c:	10000035 	stwio	zero,0(r2)
  /* 
   * Dummy read to ensure IRQ is negated before the ISR returns.
   * The control register is read because reading the status
   * register has side-effects per the register map documentation.
   */
  IORD_ALTERA_AVALON_TIMER_CONTROL (base);
 180e4a0:	e0bfff17 	ldw	r2,-4(fp)
 180e4a4:	10800104 	addi	r2,r2,4
 180e4a8:	10800037 	ldwio	r2,0(r2)
static ALT_INLINE alt_irq_context ALT_ALWAYS_INLINE 
       alt_irq_disable_all (void)
{
  alt_irq_context context;

  NIOS2_READ_STATUS (context);
 180e4ac:	0005303a 	rdctl	r2,status
 180e4b0:	e0bffd15 	stw	r2,-12(fp)

  NIOS2_WRITE_STATUS (context & ~NIOS2_STATUS_PIE_MSK);
 180e4b4:	e0fffd17 	ldw	r3,-12(fp)
 180e4b8:	00bfff84 	movi	r2,-2
 180e4bc:	1884703a 	and	r2,r3,r2
 180e4c0:	1001703a 	wrctl	status,r2
  
  return context;
 180e4c4:	e0bffd17 	ldw	r2,-12(fp)

  /* 
   * Notify the system of a clock tick. disable interrupts 
   * during this time to safely support ISR preemption
   */
  cpu_sr = alt_irq_disable_all();
 180e4c8:	e0bffe15 	stw	r2,-8(fp)
  alt_tick ();
 180e4cc:	180fc3c0 	call	180fc3c <alt_tick>
 180e4d0:	e0bffe17 	ldw	r2,-8(fp)
 180e4d4:	e0bffc15 	stw	r2,-16(fp)
  status &= ~NIOS2_STATUS_PIE_MSK;
  status |= (context & NIOS2_STATUS_PIE_MSK);
  
  NIOS2_WRITE_STATUS (status);
#else
  NIOS2_WRITE_STATUS (context);
 180e4d8:	e0bffc17 	ldw	r2,-16(fp)
 180e4dc:	1001703a 	wrctl	status,r2
  alt_irq_enable_all(cpu_sr);
}
 180e4e0:	e037883a 	mov	sp,fp
 180e4e4:	dfc00117 	ldw	ra,4(sp)
 180e4e8:	df000017 	ldw	fp,0(sp)
 180e4ec:	dec00204 	addi	sp,sp,8
 180e4f0:	f800283a 	ret

0180e4f4 <alt_avalon_timer_sc_init>:
 * auto-generated alt_sys_init() function.
 */

void alt_avalon_timer_sc_init (void* base, alt_u32 irq_controller_id, 
                                alt_u32 irq, alt_u32 freq)
{
 180e4f4:	defff804 	addi	sp,sp,-32
 180e4f8:	dfc00715 	stw	ra,28(sp)
 180e4fc:	df000615 	stw	fp,24(sp)
 180e500:	df000604 	addi	fp,sp,24
 180e504:	e13ffc15 	stw	r4,-16(fp)
 180e508:	e17ffd15 	stw	r5,-12(fp)
 180e50c:	e1bffe15 	stw	r6,-8(fp)
 180e510:	e1ffff15 	stw	r7,-4(fp)
 180e514:	e0bfff17 	ldw	r2,-4(fp)
 180e518:	e0bffb15 	stw	r2,-20(fp)
 * in order to initialise the value of the clock frequency.
 */

static ALT_INLINE int ALT_ALWAYS_INLINE alt_sysclk_init (alt_u32 nticks)
{
  if (! _alt_tick_rate)
 180e51c:	00806074 	movhi	r2,385
 180e520:	108c5604 	addi	r2,r2,12632
 180e524:	10800017 	ldw	r2,0(r2)
 180e528:	1004c03a 	cmpne	r2,r2,zero
 180e52c:	1000041e 	bne	r2,zero,180e540 <alt_avalon_timer_sc_init+0x4c>
  {
    _alt_tick_rate = nticks;
 180e530:	00c06074 	movhi	r3,385
 180e534:	18cc5604 	addi	r3,r3,12632
 180e538:	e0bffb17 	ldw	r2,-20(fp)
 180e53c:	18800015 	stw	r2,0(r3)
  
  alt_sysclk_init (freq);
  
  /* set to free running mode */
  
  IOWR_ALTERA_AVALON_TIMER_CONTROL (base, 
 180e540:	e0bffc17 	ldw	r2,-16(fp)
 180e544:	10800104 	addi	r2,r2,4
 180e548:	1007883a 	mov	r3,r2
 180e54c:	008001c4 	movi	r2,7
 180e550:	18800035 	stwio	r2,0(r3)
            ALTERA_AVALON_TIMER_CONTROL_CONT_MSK |
            ALTERA_AVALON_TIMER_CONTROL_START_MSK);

  /* register the interrupt handler, and enable the interrupt */
#ifdef ALT_ENHANCED_INTERRUPT_API_PRESENT
  alt_ic_isr_register(irq_controller_id, irq, alt_avalon_timer_sc_irq, 
 180e554:	d8000015 	stw	zero,0(sp)
 180e558:	e13ffd17 	ldw	r4,-12(fp)
 180e55c:	e17ffe17 	ldw	r5,-8(fp)
 180e560:	01806074 	movhi	r6,385
 180e564:	31b92104 	addi	r6,r6,-7036
 180e568:	e1fffc17 	ldw	r7,-16(fp)
 180e56c:	180f4d80 	call	180f4d8 <alt_ic_isr_register>
                      base, NULL);
#else
  alt_irq_register (irq, base, alt_avalon_timer_sc_irq);
#endif  
}
 180e570:	e037883a 	mov	sp,fp
 180e574:	dfc00117 	ldw	ra,4(sp)
 180e578:	df000017 	ldw	fp,0(sp)
 180e57c:	dec00204 	addi	sp,sp,8
 180e580:	f800283a 	ret

0180e584 <altera_avalon_uart_read_fd>:
 *
 */

int 
altera_avalon_uart_read_fd(alt_fd* fd, char* buffer, int space)
{
 180e584:	defffa04 	addi	sp,sp,-24
 180e588:	dfc00515 	stw	ra,20(sp)
 180e58c:	df000415 	stw	fp,16(sp)
 180e590:	df000404 	addi	fp,sp,16
 180e594:	e13ffd15 	stw	r4,-12(fp)
 180e598:	e17ffe15 	stw	r5,-8(fp)
 180e59c:	e1bfff15 	stw	r6,-4(fp)
    altera_avalon_uart_dev* dev = (altera_avalon_uart_dev*) fd->dev; 
 180e5a0:	e0bffd17 	ldw	r2,-12(fp)
 180e5a4:	10800017 	ldw	r2,0(r2)
 180e5a8:	e0bffc15 	stw	r2,-16(fp)

    return altera_avalon_uart_read(&dev->state, buffer, space,
 180e5ac:	e0bffc17 	ldw	r2,-16(fp)
 180e5b0:	11000a04 	addi	r4,r2,40
 180e5b4:	e0bffd17 	ldw	r2,-12(fp)
 180e5b8:	11c00217 	ldw	r7,8(r2)
 180e5bc:	e17ffe17 	ldw	r5,-8(fp)
 180e5c0:	e1bfff17 	ldw	r6,-4(fp)
 180e5c4:	180ea7c0 	call	180ea7c <altera_avalon_uart_read>
      fd->fd_flags);
}
 180e5c8:	e037883a 	mov	sp,fp
 180e5cc:	dfc00117 	ldw	ra,4(sp)
 180e5d0:	df000017 	ldw	fp,0(sp)
 180e5d4:	dec00204 	addi	sp,sp,8
 180e5d8:	f800283a 	ret

0180e5dc <altera_avalon_uart_write_fd>:

int 
altera_avalon_uart_write_fd(alt_fd* fd, const char* buffer, int space)
{
 180e5dc:	defffa04 	addi	sp,sp,-24
 180e5e0:	dfc00515 	stw	ra,20(sp)
 180e5e4:	df000415 	stw	fp,16(sp)
 180e5e8:	df000404 	addi	fp,sp,16
 180e5ec:	e13ffd15 	stw	r4,-12(fp)
 180e5f0:	e17ffe15 	stw	r5,-8(fp)
 180e5f4:	e1bfff15 	stw	r6,-4(fp)
    altera_avalon_uart_dev* dev = (altera_avalon_uart_dev*) fd->dev; 
 180e5f8:	e0bffd17 	ldw	r2,-12(fp)
 180e5fc:	10800017 	ldw	r2,0(r2)
 180e600:	e0bffc15 	stw	r2,-16(fp)

    return altera_avalon_uart_write(&dev->state, buffer, space,
 180e604:	e0bffc17 	ldw	r2,-16(fp)
 180e608:	11000a04 	addi	r4,r2,40
 180e60c:	e0bffd17 	ldw	r2,-12(fp)
 180e610:	11c00217 	ldw	r7,8(r2)
 180e614:	e17ffe17 	ldw	r5,-8(fp)
 180e618:	e1bfff17 	ldw	r6,-4(fp)
 180e61c:	180ed0c0 	call	180ed0c <altera_avalon_uart_write>
      fd->fd_flags);
}
 180e620:	e037883a 	mov	sp,fp
 180e624:	dfc00117 	ldw	ra,4(sp)
 180e628:	df000017 	ldw	fp,0(sp)
 180e62c:	dec00204 	addi	sp,sp,8
 180e630:	f800283a 	ret

0180e634 <altera_avalon_uart_close_fd>:

#endif /* ALTERA_AVALON_UART_USE_IOCTL */

int 
altera_avalon_uart_close_fd(alt_fd* fd)
{
 180e634:	defffc04 	addi	sp,sp,-16
 180e638:	dfc00315 	stw	ra,12(sp)
 180e63c:	df000215 	stw	fp,8(sp)
 180e640:	df000204 	addi	fp,sp,8
 180e644:	e13fff15 	stw	r4,-4(fp)
    altera_avalon_uart_dev* dev = (altera_avalon_uart_dev*) fd->dev; 
 180e648:	e0bfff17 	ldw	r2,-4(fp)
 180e64c:	10800017 	ldw	r2,0(r2)
 180e650:	e0bffe15 	stw	r2,-8(fp)

    return altera_avalon_uart_close(&dev->state, fd->fd_flags);
 180e654:	e0bffe17 	ldw	r2,-8(fp)
 180e658:	11000a04 	addi	r4,r2,40
 180e65c:	e0bfff17 	ldw	r2,-4(fp)
 180e660:	11400217 	ldw	r5,8(r2)
 180e664:	180ea1c0 	call	180ea1c <altera_avalon_uart_close>
}
 180e668:	e037883a 	mov	sp,fp
 180e66c:	dfc00117 	ldw	ra,4(sp)
 180e670:	df000017 	ldw	fp,0(sp)
 180e674:	dec00204 	addi	sp,sp,8
 180e678:	f800283a 	ret

0180e67c <altera_avalon_uart_init>:
  alt_u32 status);

void 
altera_avalon_uart_init(altera_avalon_uart_state* sp, 
  alt_u32 irq_controller_id,  alt_u32 irq)
{
 180e67c:	defff704 	addi	sp,sp,-36
 180e680:	dfc00815 	stw	ra,32(sp)
 180e684:	df000715 	stw	fp,28(sp)
 180e688:	df000704 	addi	fp,sp,28
 180e68c:	e13ffc15 	stw	r4,-16(fp)
 180e690:	e17ffd15 	stw	r5,-12(fp)
 180e694:	e1bffe15 	stw	r6,-8(fp)
  void* base = sp->base;
 180e698:	e0bffc17 	ldw	r2,-16(fp)
 180e69c:	10800017 	ldw	r2,0(r2)
 180e6a0:	e0bffb15 	stw	r2,-20(fp)
 * HAL.
 */

static ALT_INLINE int ALT_ALWAYS_INLINE alt_no_error (void)
{
  return 0;
 180e6a4:	0005883a 	mov	r2,zero
  /* 
   * Initialise the read and write flags and the semaphores used to 
   * protect access to the circular buffers when running in a multi-threaded
   * environment.
   */
  error = ALT_FLAG_CREATE (&sp->events, 0)    || 
 180e6a8:	1004c03a 	cmpne	r2,r2,zero
 180e6ac:	1000061e 	bne	r2,zero,180e6c8 <altera_avalon_uart_init+0x4c>
 180e6b0:	0005883a 	mov	r2,zero
 180e6b4:	1004c03a 	cmpne	r2,r2,zero
 180e6b8:	1000031e 	bne	r2,zero,180e6c8 <altera_avalon_uart_init+0x4c>
 180e6bc:	0005883a 	mov	r2,zero
 180e6c0:	1005003a 	cmpeq	r2,r2,zero
 180e6c4:	1000031e 	bne	r2,zero,180e6d4 <altera_avalon_uart_init+0x58>
 180e6c8:	00800044 	movi	r2,1
 180e6cc:	e0bfff15 	stw	r2,-4(fp)
 180e6d0:	00000106 	br	180e6d8 <altera_avalon_uart_init+0x5c>
 180e6d4:	e03fff15 	stw	zero,-4(fp)
 180e6d8:	e0bfff17 	ldw	r2,-4(fp)
 180e6dc:	e0bffa15 	stw	r2,-24(fp)
          ALT_SEM_CREATE (&sp->read_lock, 1)  ||
          ALT_SEM_CREATE (&sp->write_lock, 1);

  if (!error)
 180e6e0:	e0bffa17 	ldw	r2,-24(fp)
 180e6e4:	1004c03a 	cmpne	r2,r2,zero
 180e6e8:	1000111e 	bne	r2,zero,180e730 <altera_avalon_uart_init+0xb4>
  {
    /* enable interrupts at the device */
    sp->ctrl = ALTERA_AVALON_UART_CONTROL_RTS_MSK  |
 180e6ec:	e0fffc17 	ldw	r3,-16(fp)
 180e6f0:	00832004 	movi	r2,3200
 180e6f4:	18800115 	stw	r2,4(r3)
                ALTERA_AVALON_UART_CONTROL_RRDY_MSK |
                ALTERA_AVALON_UART_CONTROL_DCTS_MSK;

    IOWR_ALTERA_AVALON_UART_CONTROL(base, sp->ctrl); 
 180e6f8:	e0bffb17 	ldw	r2,-20(fp)
 180e6fc:	11000304 	addi	r4,r2,12
 180e700:	e0bffc17 	ldw	r2,-16(fp)
 180e704:	10800117 	ldw	r2,4(r2)
 180e708:	1007883a 	mov	r3,r2
 180e70c:	2005883a 	mov	r2,r4
 180e710:	10c00035 	stwio	r3,0(r2)
  
    /* register the interrupt handler */
#ifdef ALT_ENHANCED_INTERRUPT_API_PRESENT
    alt_ic_isr_register(irq_controller_id, irq, altera_avalon_uart_irq, sp, 
 180e714:	d8000015 	stw	zero,0(sp)
 180e718:	e13ffd17 	ldw	r4,-12(fp)
 180e71c:	e17ffe17 	ldw	r5,-8(fp)
 180e720:	01806074 	movhi	r6,385
 180e724:	31b9d104 	addi	r6,r6,-6332
 180e728:	e1fffc17 	ldw	r7,-16(fp)
 180e72c:	180f4d80 	call	180f4d8 <alt_ic_isr_register>
      0x0);
#else
    alt_irq_register (irq, sp, altera_avalon_uart_irq);
#endif  
  }
}
 180e730:	e037883a 	mov	sp,fp
 180e734:	dfc00117 	ldw	ra,4(sp)
 180e738:	df000017 	ldw	fp,0(sp)
 180e73c:	dec00204 	addi	sp,sp,8
 180e740:	f800283a 	ret

0180e744 <altera_avalon_uart_irq>:
#ifdef ALT_ENHANCED_INTERRUPT_API_PRESENT
static void altera_avalon_uart_irq(void* context)
#else
static void altera_avalon_uart_irq(void* context, alt_u32 id)
#endif
{
 180e744:	defffa04 	addi	sp,sp,-24
 180e748:	dfc00515 	stw	ra,20(sp)
 180e74c:	df000415 	stw	fp,16(sp)
 180e750:	df000404 	addi	fp,sp,16
 180e754:	e13fff15 	stw	r4,-4(fp)
  alt_u32 status;

  altera_avalon_uart_state* sp = (altera_avalon_uart_state*) context;
 180e758:	e0bfff17 	ldw	r2,-4(fp)
 180e75c:	e0bffd15 	stw	r2,-12(fp)
  void* base               = sp->base;
 180e760:	e0bffd17 	ldw	r2,-12(fp)
 180e764:	10800017 	ldw	r2,0(r2)
 180e768:	e0bffc15 	stw	r2,-16(fp)
  /*
   * Read the status register in order to determine the cause of the
   * interrupt.
   */

  status = IORD_ALTERA_AVALON_UART_STATUS(base);
 180e76c:	e0bffc17 	ldw	r2,-16(fp)
 180e770:	10800204 	addi	r2,r2,8
 180e774:	10800037 	ldwio	r2,0(r2)
 180e778:	e0bffe15 	stw	r2,-8(fp)

  /* Clear any error flags set at the device */
  IOWR_ALTERA_AVALON_UART_STATUS(base, 0);
 180e77c:	e0bffc17 	ldw	r2,-16(fp)
 180e780:	10800204 	addi	r2,r2,8
 180e784:	10000035 	stwio	zero,0(r2)

  /* Dummy read to ensure IRQ is negated before ISR returns */
  IORD_ALTERA_AVALON_UART_STATUS(base);
 180e788:	e0bffc17 	ldw	r2,-16(fp)
 180e78c:	10800204 	addi	r2,r2,8
 180e790:	10800037 	ldwio	r2,0(r2)
  
  /* process a read irq */
  if (status & ALTERA_AVALON_UART_STATUS_RRDY_MSK)
 180e794:	e0bffe17 	ldw	r2,-8(fp)
 180e798:	1080200c 	andi	r2,r2,128
 180e79c:	1005003a 	cmpeq	r2,r2,zero
 180e7a0:	1000031e 	bne	r2,zero,180e7b0 <altera_avalon_uart_irq+0x6c>
  {
    altera_avalon_uart_rxirq(sp, status);
 180e7a4:	e13ffd17 	ldw	r4,-12(fp)
 180e7a8:	e17ffe17 	ldw	r5,-8(fp)
 180e7ac:	180e7e00 	call	180e7e0 <altera_avalon_uart_rxirq>
  }

  /* process a write irq */
  if (status & (ALTERA_AVALON_UART_STATUS_TRDY_MSK | 
 180e7b0:	e0bffe17 	ldw	r2,-8(fp)
 180e7b4:	1081100c 	andi	r2,r2,1088
 180e7b8:	1005003a 	cmpeq	r2,r2,zero
 180e7bc:	1000031e 	bne	r2,zero,180e7cc <altera_avalon_uart_irq+0x88>
                  ALTERA_AVALON_UART_STATUS_DCTS_MSK))
  {
    altera_avalon_uart_txirq(sp, status);
 180e7c0:	e13ffd17 	ldw	r4,-12(fp)
 180e7c4:	e17ffe17 	ldw	r5,-8(fp)
 180e7c8:	180e8c00 	call	180e8c0 <altera_avalon_uart_txirq>
  }
  

}
 180e7cc:	e037883a 	mov	sp,fp
 180e7d0:	dfc00117 	ldw	ra,4(sp)
 180e7d4:	df000017 	ldw	fp,0(sp)
 180e7d8:	dec00204 	addi	sp,sp,8
 180e7dc:	f800283a 	ret

0180e7e0 <altera_avalon_uart_rxirq>:
 * the receive circular buffer, and sets the apropriate flags to indicate 
 * that there is data ready to be processed.
 */
static void 
altera_avalon_uart_rxirq(altera_avalon_uart_state* sp, alt_u32 status)
{
 180e7e0:	defffc04 	addi	sp,sp,-16
 180e7e4:	df000315 	stw	fp,12(sp)
 180e7e8:	df000304 	addi	fp,sp,12
 180e7ec:	e13ffe15 	stw	r4,-8(fp)
 180e7f0:	e17fff15 	stw	r5,-4(fp)
  alt_u32 next;
  
  /* If there was an error, discard the data */

  if (status & (ALTERA_AVALON_UART_STATUS_PE_MSK | 
 180e7f4:	e0bfff17 	ldw	r2,-4(fp)
 180e7f8:	108000cc 	andi	r2,r2,3
 180e7fc:	1004c03a 	cmpne	r2,r2,zero
 180e800:	10002b1e 	bne	r2,zero,180e8b0 <altera_avalon_uart_rxirq+0xd0>
   * In a multi-threaded environment, set the read event flag to indicate
   * that there is data ready. This is only done if the circular buffer was
   * previously empty.
   */

  if (sp->rx_end == sp->rx_start)
 180e804:	e0bffe17 	ldw	r2,-8(fp)
 180e808:	10800317 	ldw	r2,12(r2)
    ALT_FLAG_POST (sp->events, ALT_UART_READ_RDY, OS_FLAG_SET);
  }

  /* Determine which slot to use next in the circular buffer */

  next = (sp->rx_end + 1) & ALT_AVALON_UART_BUF_MSK;
 180e80c:	e0bffe17 	ldw	r2,-8(fp)
 180e810:	10800317 	ldw	r2,12(r2)
 180e814:	10800044 	addi	r2,r2,1
 180e818:	10800fcc 	andi	r2,r2,63
 180e81c:	e0bffd15 	stw	r2,-12(fp)

  /* Transfer data from the device to the circular buffer */

  sp->rx_buf[sp->rx_end] = IORD_ALTERA_AVALON_UART_RXDATA(sp->base);
 180e820:	e0bffe17 	ldw	r2,-8(fp)
 180e824:	11000317 	ldw	r4,12(r2)
 180e828:	e0bffe17 	ldw	r2,-8(fp)
 180e82c:	10800017 	ldw	r2,0(r2)
 180e830:	10800037 	ldwio	r2,0(r2)
 180e834:	1007883a 	mov	r3,r2
 180e838:	e0bffe17 	ldw	r2,-8(fp)
 180e83c:	2085883a 	add	r2,r4,r2
 180e840:	10800704 	addi	r2,r2,28
 180e844:	10c00005 	stb	r3,0(r2)

  sp->rx_end = next;
 180e848:	e0fffe17 	ldw	r3,-8(fp)
 180e84c:	e0bffd17 	ldw	r2,-12(fp)
 180e850:	18800315 	stw	r2,12(r3)

  next = (sp->rx_end + 1) & ALT_AVALON_UART_BUF_MSK;
 180e854:	e0bffe17 	ldw	r2,-8(fp)
 180e858:	10800317 	ldw	r2,12(r2)
 180e85c:	10800044 	addi	r2,r2,1
 180e860:	10800fcc 	andi	r2,r2,63
 180e864:	e0bffd15 	stw	r2,-12(fp)
  /*
   * If the cicular buffer was full, disable interrupts. Interrupts will be
   * re-enabled when data is removed from the buffer.
   */

  if (next == sp->rx_start)
 180e868:	e0bffe17 	ldw	r2,-8(fp)
 180e86c:	10c00217 	ldw	r3,8(r2)
 180e870:	e0bffd17 	ldw	r2,-12(fp)
 180e874:	18800e1e 	bne	r3,r2,180e8b0 <altera_avalon_uart_rxirq+0xd0>
  {
    sp->ctrl &= ~ALTERA_AVALON_UART_CONTROL_RRDY_MSK;
 180e878:	e0bffe17 	ldw	r2,-8(fp)
 180e87c:	10c00117 	ldw	r3,4(r2)
 180e880:	00bfdfc4 	movi	r2,-129
 180e884:	1886703a 	and	r3,r3,r2
 180e888:	e0bffe17 	ldw	r2,-8(fp)
 180e88c:	10c00115 	stw	r3,4(r2)
    IOWR_ALTERA_AVALON_UART_CONTROL(sp->base, sp->ctrl); 
 180e890:	e0bffe17 	ldw	r2,-8(fp)
 180e894:	10800017 	ldw	r2,0(r2)
 180e898:	11000304 	addi	r4,r2,12
 180e89c:	e0bffe17 	ldw	r2,-8(fp)
 180e8a0:	10800117 	ldw	r2,4(r2)
 180e8a4:	1007883a 	mov	r3,r2
 180e8a8:	2005883a 	mov	r2,r4
 180e8ac:	10c00035 	stwio	r3,0(r2)
  }   
}
 180e8b0:	e037883a 	mov	sp,fp
 180e8b4:	df000017 	ldw	fp,0(sp)
 180e8b8:	dec00104 	addi	sp,sp,4
 180e8bc:	f800283a 	ret

0180e8c0 <altera_avalon_uart_txirq>:
 * buffer to the device, and sets the apropriate flags to indicate that 
 * there is data ready to be processed.
 */
static void 
altera_avalon_uart_txirq(altera_avalon_uart_state* sp, alt_u32 status)
{
 180e8c0:	defffd04 	addi	sp,sp,-12
 180e8c4:	df000215 	stw	fp,8(sp)
 180e8c8:	df000204 	addi	fp,sp,8
 180e8cc:	e13ffe15 	stw	r4,-8(fp)
 180e8d0:	e17fff15 	stw	r5,-4(fp)
  /* Transfer data if there is some ready to be transfered */

  if (sp->tx_start != sp->tx_end)
 180e8d4:	e0bffe17 	ldw	r2,-8(fp)
 180e8d8:	10c00417 	ldw	r3,16(r2)
 180e8dc:	e0bffe17 	ldw	r2,-8(fp)
 180e8e0:	10800517 	ldw	r2,20(r2)
 180e8e4:	18803626 	beq	r3,r2,180e9c0 <altera_avalon_uart_txirq+0x100>
    /* 
     * If the device is using flow control (i.e. RTS/CTS), then the
     * transmitter is required to throttle if CTS is high.
     */

    if (!(sp->flags & ALT_AVALON_UART_FC) ||
 180e8e8:	e0bffe17 	ldw	r2,-8(fp)
 180e8ec:	10800617 	ldw	r2,24(r2)
 180e8f0:	1080008c 	andi	r2,r2,2
 180e8f4:	1005003a 	cmpeq	r2,r2,zero
 180e8f8:	1000041e 	bne	r2,zero,180e90c <altera_avalon_uart_txirq+0x4c>
 180e8fc:	e0bfff17 	ldw	r2,-4(fp)
 180e900:	1082000c 	andi	r2,r2,2048
 180e904:	1005003a 	cmpeq	r2,r2,zero
 180e908:	10001e1e 	bne	r2,zero,180e984 <altera_avalon_uart_txirq+0xc4>
       * In a multi-threaded environment, set the write event flag to indicate
       * that there is space in the circular buffer. This is only done if the
       * buffer was previously empty.
       */

      if (sp->tx_start == ((sp->tx_end + 1) & ALT_AVALON_UART_BUF_MSK))
 180e90c:	e0bffe17 	ldw	r2,-8(fp)
 180e910:	10800417 	ldw	r2,16(r2)
                       OS_FLAG_SET);
      }

      /* Write the data to the device */

      IOWR_ALTERA_AVALON_UART_TXDATA(sp->base, sp->tx_buf[sp->tx_start]);
 180e914:	e0bffe17 	ldw	r2,-8(fp)
 180e918:	10800017 	ldw	r2,0(r2)
 180e91c:	11000104 	addi	r4,r2,4
 180e920:	e0bffe17 	ldw	r2,-8(fp)
 180e924:	10c00417 	ldw	r3,16(r2)
 180e928:	e0bffe17 	ldw	r2,-8(fp)
 180e92c:	1885883a 	add	r2,r3,r2
 180e930:	10801704 	addi	r2,r2,92
 180e934:	10800003 	ldbu	r2,0(r2)
 180e938:	10c03fcc 	andi	r3,r2,255
 180e93c:	2005883a 	mov	r2,r4
 180e940:	10c00035 	stwio	r3,0(r2)

      sp->tx_start = (++sp->tx_start) & ALT_AVALON_UART_BUF_MSK;
 180e944:	e0bffe17 	ldw	r2,-8(fp)
 180e948:	10800417 	ldw	r2,16(r2)
 180e94c:	10c00044 	addi	r3,r2,1
 180e950:	e0bffe17 	ldw	r2,-8(fp)
 180e954:	10c00415 	stw	r3,16(r2)
 180e958:	e0bffe17 	ldw	r2,-8(fp)
 180e95c:	10800417 	ldw	r2,16(r2)
 180e960:	10c00fcc 	andi	r3,r2,63
 180e964:	e0bffe17 	ldw	r2,-8(fp)
 180e968:	10c00415 	stw	r3,16(r2)
      /*
       * In case the tranmit interrupt had previously been disabled by 
       * detecting a low value on CTS, it is reenabled here.
       */ 

      sp->ctrl |= ALTERA_AVALON_UART_CONTROL_TRDY_MSK;
 180e96c:	e0bffe17 	ldw	r2,-8(fp)
 180e970:	10800117 	ldw	r2,4(r2)
 180e974:	10c01014 	ori	r3,r2,64
 180e978:	e0bffe17 	ldw	r2,-8(fp)
 180e97c:	10c00115 	stw	r3,4(r2)
    /* 
     * If the device is using flow control (i.e. RTS/CTS), then the
     * transmitter is required to throttle if CTS is high.
     */

    if (!(sp->flags & ALT_AVALON_UART_FC) ||
 180e980:	00000f06 	br	180e9c0 <altera_avalon_uart_txirq+0x100>
       * the last write to the status register. To avoid this resulting in
       * deadlock, it's necessary to re-check the status register here
       * before throttling.
       */
 
      status = IORD_ALTERA_AVALON_UART_STATUS(sp->base); 
 180e984:	e0bffe17 	ldw	r2,-8(fp)
 180e988:	10800017 	ldw	r2,0(r2)
 180e98c:	10800204 	addi	r2,r2,8
 180e990:	10800037 	ldwio	r2,0(r2)
 180e994:	e0bfff15 	stw	r2,-4(fp)

      if (!(status & ALTERA_AVALON_UART_STATUS_CTS_MSK))
 180e998:	e0bfff17 	ldw	r2,-4(fp)
 180e99c:	1082000c 	andi	r2,r2,2048
 180e9a0:	1004c03a 	cmpne	r2,r2,zero
 180e9a4:	1000061e 	bne	r2,zero,180e9c0 <altera_avalon_uart_txirq+0x100>
      {
        sp->ctrl &= ~ALTERA_AVALON_UART_CONTROL_TRDY_MSK;
 180e9a8:	e0bffe17 	ldw	r2,-8(fp)
 180e9ac:	10c00117 	ldw	r3,4(r2)
 180e9b0:	00bfefc4 	movi	r2,-65
 180e9b4:	1886703a 	and	r3,r3,r2
 180e9b8:	e0bffe17 	ldw	r2,-8(fp)
 180e9bc:	10c00115 	stw	r3,4(r2)
  /*
   * If the circular buffer is empty, disable the interrupt. This will be
   * re-enabled when new data is placed in the buffer.
   */

  if (sp->tx_start == sp->tx_end)
 180e9c0:	e0bffe17 	ldw	r2,-8(fp)
 180e9c4:	10c00417 	ldw	r3,16(r2)
 180e9c8:	e0bffe17 	ldw	r2,-8(fp)
 180e9cc:	10800517 	ldw	r2,20(r2)
 180e9d0:	1880061e 	bne	r3,r2,180e9ec <altera_avalon_uart_txirq+0x12c>
  {
    sp->ctrl &= ~(ALTERA_AVALON_UART_CONTROL_TRDY_MSK |
 180e9d4:	e0bffe17 	ldw	r2,-8(fp)
 180e9d8:	10c00117 	ldw	r3,4(r2)
 180e9dc:	00beefc4 	movi	r2,-1089
 180e9e0:	1886703a 	and	r3,r3,r2
 180e9e4:	e0bffe17 	ldw	r2,-8(fp)
 180e9e8:	10c00115 	stw	r3,4(r2)
                    ALTERA_AVALON_UART_CONTROL_DCTS_MSK);
  }

  IOWR_ALTERA_AVALON_UART_CONTROL(sp->base, sp->ctrl);
 180e9ec:	e0bffe17 	ldw	r2,-8(fp)
 180e9f0:	10800017 	ldw	r2,0(r2)
 180e9f4:	11000304 	addi	r4,r2,12
 180e9f8:	e0bffe17 	ldw	r2,-8(fp)
 180e9fc:	10800117 	ldw	r2,4(r2)
 180ea00:	1007883a 	mov	r3,r2
 180ea04:	2005883a 	mov	r2,r4
 180ea08:	10c00035 	stwio	r3,0(r2)
}
 180ea0c:	e037883a 	mov	sp,fp
 180ea10:	df000017 	ldw	fp,0(sp)
 180ea14:	dec00104 	addi	sp,sp,4
 180ea18:	f800283a 	ret

0180ea1c <altera_avalon_uart_close>:
 * The close routine is not implemented for the small driver; instead it will
 * map to null. This is because the small driver simply waits while characters
 * are transmitted; there is no interrupt-serviced buffer to empty 
 */
int altera_avalon_uart_close(altera_avalon_uart_state* sp, int flags)
{
 180ea1c:	defffc04 	addi	sp,sp,-16
 180ea20:	df000315 	stw	fp,12(sp)
 180ea24:	df000304 	addi	fp,sp,12
 180ea28:	e13ffd15 	stw	r4,-12(fp)
 180ea2c:	e17ffe15 	stw	r5,-8(fp)
  /* 
   * Wait for all transmit data to be emptied by the UART ISR.
   */
  while (sp->tx_start != sp->tx_end) {
 180ea30:	00000706 	br	180ea50 <altera_avalon_uart_close+0x34>
    if (flags & O_NONBLOCK) {
 180ea34:	e0bffe17 	ldw	r2,-8(fp)
 180ea38:	1090000c 	andi	r2,r2,16384
 180ea3c:	1005003a 	cmpeq	r2,r2,zero
 180ea40:	1000031e 	bne	r2,zero,180ea50 <altera_avalon_uart_close+0x34>
      return -EWOULDBLOCK; 
 180ea44:	00bffd44 	movi	r2,-11
 180ea48:	e0bfff15 	stw	r2,-4(fp)
 180ea4c:	00000606 	br	180ea68 <altera_avalon_uart_close+0x4c>
int altera_avalon_uart_close(altera_avalon_uart_state* sp, int flags)
{
  /* 
   * Wait for all transmit data to be emptied by the UART ISR.
   */
  while (sp->tx_start != sp->tx_end) {
 180ea50:	e0bffd17 	ldw	r2,-12(fp)
 180ea54:	10c00417 	ldw	r3,16(r2)
 180ea58:	e0bffd17 	ldw	r2,-12(fp)
 180ea5c:	10800517 	ldw	r2,20(r2)
 180ea60:	18bff41e 	bne	r3,r2,180ea34 <altera_avalon_uart_close+0x18>
    if (flags & O_NONBLOCK) {
      return -EWOULDBLOCK; 
    }
  }

  return 0;
 180ea64:	e03fff15 	stw	zero,-4(fp)
 180ea68:	e0bfff17 	ldw	r2,-4(fp)
}
 180ea6c:	e037883a 	mov	sp,fp
 180ea70:	df000017 	ldw	fp,0(sp)
 180ea74:	dec00104 	addi	sp,sp,4
 180ea78:	f800283a 	ret

0180ea7c <altera_avalon_uart_read>:
 */

int 
altera_avalon_uart_read(altera_avalon_uart_state* sp, char* ptr, int len,
  int flags)
{
 180ea7c:	defff004 	addi	sp,sp,-64
 180ea80:	dfc00f15 	stw	ra,60(sp)
 180ea84:	df000e15 	stw	fp,56(sp)
 180ea88:	df000e04 	addi	fp,sp,56
 180ea8c:	e13ffb15 	stw	r4,-20(fp)
 180ea90:	e17ffc15 	stw	r5,-16(fp)
 180ea94:	e1bffd15 	stw	r6,-12(fp)
 180ea98:	e1fffe15 	stw	r7,-8(fp)
  alt_irq_context context;
  int             block;
  alt_u32         next;
  alt_u8          read_would_block = 0;
 180ea9c:	e03ff705 	stb	zero,-36(fp)
  int             count = 0;
 180eaa0:	e03ff615 	stw	zero,-40(fp)
  /* 
   * Construct a flag to indicate whether the device is being accessed in
   * blocking or non-blocking mode.
   */

  block = !(flags & O_NONBLOCK);
 180eaa4:	e0bffe17 	ldw	r2,-8(fp)
 180eaa8:	1090000c 	andi	r2,r2,16384
 180eaac:	1005003a 	cmpeq	r2,r2,zero
 180eab0:	e0bff915 	stw	r2,-28(fp)
  /*
   * Calculate which slot in the circular buffer is the next one to read
   * data from.
   */

  next = (sp->rx_start + 1) & ALT_AVALON_UART_BUF_MSK;
 180eab4:	e0bffb17 	ldw	r2,-20(fp)
 180eab8:	10800217 	ldw	r2,8(r2)
 180eabc:	10800044 	addi	r2,r2,1
 180eac0:	10800fcc 	andi	r2,r2,63
 180eac4:	e0bff815 	stw	r2,-32(fp)
    /*
     * Read the required amount of data, until the circular buffer runs
     * empty
     */

    while ((count < len) && (sp->rx_start != sp->rx_end))
 180eac8:	00001906 	br	180eb30 <altera_avalon_uart_read+0xb4>
    {
      count++;
 180eacc:	e0bff617 	ldw	r2,-40(fp)
 180ead0:	10800044 	addi	r2,r2,1
 180ead4:	e0bff615 	stw	r2,-40(fp)
      *ptr++ = sp->rx_buf[sp->rx_start];
 180ead8:	e0bffb17 	ldw	r2,-20(fp)
 180eadc:	10c00217 	ldw	r3,8(r2)
 180eae0:	e0bffb17 	ldw	r2,-20(fp)
 180eae4:	1885883a 	add	r2,r3,r2
 180eae8:	10800704 	addi	r2,r2,28
 180eaec:	10800003 	ldbu	r2,0(r2)
 180eaf0:	1007883a 	mov	r3,r2
 180eaf4:	e0bffc17 	ldw	r2,-16(fp)
 180eaf8:	10c00005 	stb	r3,0(r2)
 180eafc:	e0bffc17 	ldw	r2,-16(fp)
 180eb00:	10800044 	addi	r2,r2,1
 180eb04:	e0bffc15 	stw	r2,-16(fp)
      
      sp->rx_start = (++sp->rx_start) & ALT_AVALON_UART_BUF_MSK;
 180eb08:	e0bffb17 	ldw	r2,-20(fp)
 180eb0c:	10800217 	ldw	r2,8(r2)
 180eb10:	10c00044 	addi	r3,r2,1
 180eb14:	e0bffb17 	ldw	r2,-20(fp)
 180eb18:	10c00215 	stw	r3,8(r2)
 180eb1c:	e0bffb17 	ldw	r2,-20(fp)
 180eb20:	10800217 	ldw	r2,8(r2)
 180eb24:	10c00fcc 	andi	r3,r2,63
 180eb28:	e0bffb17 	ldw	r2,-20(fp)
 180eb2c:	10c00215 	stw	r3,8(r2)
    /*
     * Read the required amount of data, until the circular buffer runs
     * empty
     */

    while ((count < len) && (sp->rx_start != sp->rx_end))
 180eb30:	e0fff617 	ldw	r3,-40(fp)
 180eb34:	e0bffd17 	ldw	r2,-12(fp)
 180eb38:	1880050e 	bge	r3,r2,180eb50 <altera_avalon_uart_read+0xd4>
 180eb3c:	e0bffb17 	ldw	r2,-20(fp)
 180eb40:	10c00217 	ldw	r3,8(r2)
 180eb44:	e0bffb17 	ldw	r2,-20(fp)
 180eb48:	10800317 	ldw	r2,12(r2)
 180eb4c:	18bfdf1e 	bne	r3,r2,180eacc <altera_avalon_uart_read+0x50>
    /*
     * If no data has been transferred, the circular buffer is empty, and
     * this is not a non-blocking access, block waiting for data to arrive.
     */

    if (!count && (sp->rx_start == sp->rx_end))
 180eb50:	e0bff617 	ldw	r2,-40(fp)
 180eb54:	1004c03a 	cmpne	r2,r2,zero
 180eb58:	1000271e 	bne	r2,zero,180ebf8 <altera_avalon_uart_read+0x17c>
 180eb5c:	e0bffb17 	ldw	r2,-20(fp)
 180eb60:	10c00217 	ldw	r3,8(r2)
 180eb64:	e0bffb17 	ldw	r2,-20(fp)
 180eb68:	10800317 	ldw	r2,12(r2)
 180eb6c:	1880221e 	bne	r3,r2,180ebf8 <altera_avalon_uart_read+0x17c>
    {
      if (!block)
 180eb70:	e0bff917 	ldw	r2,-28(fp)
 180eb74:	1004c03a 	cmpne	r2,r2,zero
 180eb78:	1000061e 	bne	r2,zero,180eb94 <altera_avalon_uart_read+0x118>
      {
        /* Set errno to indicate the reason we're not returning any data */

        ALT_ERRNO = EWOULDBLOCK;
 180eb7c:	180ecac0 	call	180ecac <alt_get_errno>
 180eb80:	00c002c4 	movi	r3,11
 180eb84:	10c00015 	stw	r3,0(r2)
        read_would_block = 1;
 180eb88:	00800044 	movi	r2,1
 180eb8c:	e0bff705 	stb	r2,-36(fp)
        break;
 180eb90:	00001f06 	br	180ec10 <altera_avalon_uart_read+0x194>
static ALT_INLINE alt_irq_context ALT_ALWAYS_INLINE 
       alt_irq_disable_all (void)
{
  alt_irq_context context;

  NIOS2_READ_STATUS (context);
 180eb94:	0005303a 	rdctl	r2,status
 180eb98:	e0bff515 	stw	r2,-44(fp)

  NIOS2_WRITE_STATUS (context & ~NIOS2_STATUS_PIE_MSK);
 180eb9c:	e0fff517 	ldw	r3,-44(fp)
 180eba0:	00bfff84 	movi	r2,-2
 180eba4:	1884703a 	and	r2,r3,r2
 180eba8:	1001703a 	wrctl	status,r2
  
  return context;
 180ebac:	e0bff517 	ldw	r2,-44(fp)
      {
       /* Block waiting for some data to arrive */

       /* First, ensure read interrupts are enabled to avoid deadlock */

       context = alt_irq_disable_all ();
 180ebb0:	e0bffa15 	stw	r2,-24(fp)
       sp->ctrl |= ALTERA_AVALON_UART_CONTROL_RRDY_MSK;
 180ebb4:	e0bffb17 	ldw	r2,-20(fp)
 180ebb8:	10800117 	ldw	r2,4(r2)
 180ebbc:	10c02014 	ori	r3,r2,128
 180ebc0:	e0bffb17 	ldw	r2,-20(fp)
 180ebc4:	10c00115 	stw	r3,4(r2)
       IOWR_ALTERA_AVALON_UART_CONTROL(sp->base, sp->ctrl);
 180ebc8:	e0bffb17 	ldw	r2,-20(fp)
 180ebcc:	10800017 	ldw	r2,0(r2)
 180ebd0:	11000304 	addi	r4,r2,12
 180ebd4:	e0bffb17 	ldw	r2,-20(fp)
 180ebd8:	10800117 	ldw	r2,4(r2)
 180ebdc:	1007883a 	mov	r3,r2
 180ebe0:	2005883a 	mov	r2,r4
 180ebe4:	10c00035 	stwio	r3,0(r2)
 180ebe8:	e0bffa17 	ldw	r2,-24(fp)
 180ebec:	e0bff415 	stw	r2,-48(fp)
  status &= ~NIOS2_STATUS_PIE_MSK;
  status |= (context & NIOS2_STATUS_PIE_MSK);
  
  NIOS2_WRITE_STATUS (status);
#else
  NIOS2_WRITE_STATUS (context);
 180ebf0:	e0bff417 	ldw	r2,-48(fp)
 180ebf4:	1001703a 	wrctl	status,r2
                      OS_FLAG_WAIT_SET_ANY + OS_FLAG_CONSUME,
                      0);
      }
    }
  }
  while (!count && len);
 180ebf8:	e0bff617 	ldw	r2,-40(fp)
 180ebfc:	1004c03a 	cmpne	r2,r2,zero
 180ec00:	1000031e 	bne	r2,zero,180ec10 <altera_avalon_uart_read+0x194>
 180ec04:	e0bffd17 	ldw	r2,-12(fp)
 180ec08:	1004c03a 	cmpne	r2,r2,zero
 180ec0c:	103fc81e 	bne	r2,zero,180eb30 <altera_avalon_uart_read+0xb4>
static ALT_INLINE alt_irq_context ALT_ALWAYS_INLINE 
       alt_irq_disable_all (void)
{
  alt_irq_context context;

  NIOS2_READ_STATUS (context);
 180ec10:	0005303a 	rdctl	r2,status
 180ec14:	e0bff315 	stw	r2,-52(fp)

  NIOS2_WRITE_STATUS (context & ~NIOS2_STATUS_PIE_MSK);
 180ec18:	e0fff317 	ldw	r3,-52(fp)
 180ec1c:	00bfff84 	movi	r2,-2
 180ec20:	1884703a 	and	r2,r3,r2
 180ec24:	1001703a 	wrctl	status,r2
  
  return context;
 180ec28:	e0bff317 	ldw	r2,-52(fp)
  /*
   * Ensure that interrupts are enabled, so that the circular buffer can
   * re-fill.
   */

  context = alt_irq_disable_all ();
 180ec2c:	e0bffa15 	stw	r2,-24(fp)
  sp->ctrl |= ALTERA_AVALON_UART_CONTROL_RRDY_MSK;
 180ec30:	e0bffb17 	ldw	r2,-20(fp)
 180ec34:	10800117 	ldw	r2,4(r2)
 180ec38:	10c02014 	ori	r3,r2,128
 180ec3c:	e0bffb17 	ldw	r2,-20(fp)
 180ec40:	10c00115 	stw	r3,4(r2)
  IOWR_ALTERA_AVALON_UART_CONTROL(sp->base, sp->ctrl);
 180ec44:	e0bffb17 	ldw	r2,-20(fp)
 180ec48:	10800017 	ldw	r2,0(r2)
 180ec4c:	11000304 	addi	r4,r2,12
 180ec50:	e0bffb17 	ldw	r2,-20(fp)
 180ec54:	10800117 	ldw	r2,4(r2)
 180ec58:	1007883a 	mov	r3,r2
 180ec5c:	2005883a 	mov	r2,r4
 180ec60:	10c00035 	stwio	r3,0(r2)
 180ec64:	e0bffa17 	ldw	r2,-24(fp)
 180ec68:	e0bff215 	stw	r2,-56(fp)
  status &= ~NIOS2_STATUS_PIE_MSK;
  status |= (context & NIOS2_STATUS_PIE_MSK);
  
  NIOS2_WRITE_STATUS (status);
#else
  NIOS2_WRITE_STATUS (context);
 180ec6c:	e0bff217 	ldw	r2,-56(fp)
 180ec70:	1001703a 	wrctl	status,r2
  alt_irq_enable_all (context);

  /* Return the number of bytes read */
  if(read_would_block) {
 180ec74:	e0bff703 	ldbu	r2,-36(fp)
 180ec78:	1005003a 	cmpeq	r2,r2,zero
 180ec7c:	1000031e 	bne	r2,zero,180ec8c <altera_avalon_uart_read+0x210>
    return ~EWOULDBLOCK;
 180ec80:	00bffd04 	movi	r2,-12
 180ec84:	e0bfff15 	stw	r2,-4(fp)
 180ec88:	00000206 	br	180ec94 <altera_avalon_uart_read+0x218>
  }
  else {
    return count;
 180ec8c:	e0bff617 	ldw	r2,-40(fp)
 180ec90:	e0bfff15 	stw	r2,-4(fp)
 180ec94:	e0bfff17 	ldw	r2,-4(fp)
  }
}
 180ec98:	e037883a 	mov	sp,fp
 180ec9c:	dfc00117 	ldw	ra,4(sp)
 180eca0:	df000017 	ldw	fp,0(sp)
 180eca4:	dec00204 	addi	sp,sp,8
 180eca8:	f800283a 	ret

0180ecac <alt_get_errno>:
#undef errno

extern int errno;

static ALT_INLINE int* alt_get_errno(void)
{
 180ecac:	defffd04 	addi	sp,sp,-12
 180ecb0:	dfc00215 	stw	ra,8(sp)
 180ecb4:	df000115 	stw	fp,4(sp)
 180ecb8:	df000104 	addi	fp,sp,4
  return ((alt_errno) ? alt_errno() : &errno);
 180ecbc:	00806074 	movhi	r2,385
 180ecc0:	108c4204 	addi	r2,r2,12552
 180ecc4:	10800017 	ldw	r2,0(r2)
 180ecc8:	1005003a 	cmpeq	r2,r2,zero
 180eccc:	1000061e 	bne	r2,zero,180ece8 <alt_get_errno+0x3c>
 180ecd0:	00806074 	movhi	r2,385
 180ecd4:	108c4204 	addi	r2,r2,12552
 180ecd8:	10800017 	ldw	r2,0(r2)
 180ecdc:	103ee83a 	callr	r2
 180ece0:	e0bfff15 	stw	r2,-4(fp)
 180ece4:	00000306 	br	180ecf4 <alt_get_errno+0x48>
 180ece8:	00806074 	movhi	r2,385
 180ecec:	108c5104 	addi	r2,r2,12612
 180ecf0:	e0bfff15 	stw	r2,-4(fp)
 180ecf4:	e0bfff17 	ldw	r2,-4(fp)
}
 180ecf8:	e037883a 	mov	sp,fp
 180ecfc:	dfc00117 	ldw	ra,4(sp)
 180ed00:	df000017 	ldw	fp,0(sp)
 180ed04:	dec00204 	addi	sp,sp,8
 180ed08:	f800283a 	ret

0180ed0c <altera_avalon_uart_write>:
 */

int
altera_avalon_uart_write(altera_avalon_uart_state* sp, const char* ptr, int len,
  int flags)
{
 180ed0c:	defff204 	addi	sp,sp,-56
 180ed10:	dfc00d15 	stw	ra,52(sp)
 180ed14:	df000c15 	stw	fp,48(sp)
 180ed18:	df000c04 	addi	fp,sp,48
 180ed1c:	e13ffc15 	stw	r4,-16(fp)
 180ed20:	e17ffd15 	stw	r5,-12(fp)
 180ed24:	e1bffe15 	stw	r6,-8(fp)
 180ed28:	e1ffff15 	stw	r7,-4(fp)
  alt_irq_context context;
  int             no_block;
  alt_u32         next;
  int             count = len;
 180ed2c:	e0bffe17 	ldw	r2,-8(fp)
 180ed30:	e0bff815 	stw	r2,-32(fp)
  /* 
   * Construct a flag to indicate whether the device is being accessed in
   * blocking or non-blocking mode.
   */

  no_block = (flags & O_NONBLOCK);
 180ed34:	e0bfff17 	ldw	r2,-4(fp)
 180ed38:	1090000c 	andi	r2,r2,16384
 180ed3c:	e0bffa15 	stw	r2,-24(fp)
   * Loop transferring data from the input buffer to the transmit circular
   * buffer. The loop is terminated once all the data has been transferred,
   * or, (if in non-blocking mode) the buffer becomes full.
   */

  while (count)
 180ed40:	00004006 	br	180ee44 <altera_avalon_uart_write+0x138>
  {
    /* Determine the next slot in the buffer to access */

    next = (sp->tx_end + 1) & ALT_AVALON_UART_BUF_MSK;
 180ed44:	e0bffc17 	ldw	r2,-16(fp)
 180ed48:	10800517 	ldw	r2,20(r2)
 180ed4c:	10800044 	addi	r2,r2,1
 180ed50:	10800fcc 	andi	r2,r2,63
 180ed54:	e0bff915 	stw	r2,-28(fp)

    /* block waiting for space if necessary */

    if (next == sp->tx_start)
 180ed58:	e0bffc17 	ldw	r2,-16(fp)
 180ed5c:	10c00417 	ldw	r3,16(r2)
 180ed60:	e0bff917 	ldw	r2,-28(fp)
 180ed64:	1880251e 	bne	r3,r2,180edfc <altera_avalon_uart_write+0xf0>
    {
      if (no_block)
 180ed68:	e0bffa17 	ldw	r2,-24(fp)
 180ed6c:	1005003a 	cmpeq	r2,r2,zero
 180ed70:	1000051e 	bne	r2,zero,180ed88 <altera_avalon_uart_write+0x7c>
      {
        /* Set errno to indicate why this function returned early */
 
        ALT_ERRNO = EWOULDBLOCK;
 180ed74:	180eed40 	call	180eed4 <alt_get_errno>
 180ed78:	1007883a 	mov	r3,r2
 180ed7c:	008002c4 	movi	r2,11
 180ed80:	18800015 	stw	r2,0(r3)
        break;
 180ed84:	00003206 	br	180ee50 <altera_avalon_uart_write+0x144>
static ALT_INLINE alt_irq_context ALT_ALWAYS_INLINE 
       alt_irq_disable_all (void)
{
  alt_irq_context context;

  NIOS2_READ_STATUS (context);
 180ed88:	0005303a 	rdctl	r2,status
 180ed8c:	e0bff715 	stw	r2,-36(fp)

  NIOS2_WRITE_STATUS (context & ~NIOS2_STATUS_PIE_MSK);
 180ed90:	e0fff717 	ldw	r3,-36(fp)
 180ed94:	00bfff84 	movi	r2,-2
 180ed98:	1884703a 	and	r2,r3,r2
 180ed9c:	1001703a 	wrctl	status,r2
  
  return context;
 180eda0:	e0bff717 	ldw	r2,-36(fp)
      {
        /* Block waiting for space in the circular buffer */

        /* First, ensure transmit interrupts are enabled to avoid deadlock */

        context = alt_irq_disable_all ();
 180eda4:	e0bffb15 	stw	r2,-20(fp)
        sp->ctrl |= (ALTERA_AVALON_UART_CONTROL_TRDY_MSK |
 180eda8:	e0bffc17 	ldw	r2,-16(fp)
 180edac:	10800117 	ldw	r2,4(r2)
 180edb0:	10c11014 	ori	r3,r2,1088
 180edb4:	e0bffc17 	ldw	r2,-16(fp)
 180edb8:	10c00115 	stw	r3,4(r2)
                        ALTERA_AVALON_UART_CONTROL_DCTS_MSK);
        IOWR_ALTERA_AVALON_UART_CONTROL(sp->base, sp->ctrl);
 180edbc:	e0bffc17 	ldw	r2,-16(fp)
 180edc0:	10800017 	ldw	r2,0(r2)
 180edc4:	11000304 	addi	r4,r2,12
 180edc8:	e0bffc17 	ldw	r2,-16(fp)
 180edcc:	10800117 	ldw	r2,4(r2)
 180edd0:	1007883a 	mov	r3,r2
 180edd4:	2005883a 	mov	r2,r4
 180edd8:	10c00035 	stwio	r3,0(r2)
 180eddc:	e0bffb17 	ldw	r2,-20(fp)
 180ede0:	e0bff615 	stw	r2,-40(fp)
  status &= ~NIOS2_STATUS_PIE_MSK;
  status |= (context & NIOS2_STATUS_PIE_MSK);
  
  NIOS2_WRITE_STATUS (status);
#else
  NIOS2_WRITE_STATUS (context);
 180ede4:	e0bff617 	ldw	r2,-40(fp)
 180ede8:	1001703a 	wrctl	status,r2
          ALT_FLAG_PEND (sp->events, 
                         ALT_UART_WRITE_RDY,
                         OS_FLAG_WAIT_SET_ANY + OS_FLAG_CONSUME,
                         0);
        }
        while ((next == sp->tx_start));
 180edec:	e0bffc17 	ldw	r2,-16(fp)
 180edf0:	10c00417 	ldw	r3,16(r2)
 180edf4:	e0bff917 	ldw	r2,-28(fp)
 180edf8:	18bffc26 	beq	r3,r2,180edec <altera_avalon_uart_write+0xe0>
      }
    }

    count--;
 180edfc:	e0bff817 	ldw	r2,-32(fp)
 180ee00:	10bfffc4 	addi	r2,r2,-1
 180ee04:	e0bff815 	stw	r2,-32(fp)

    /* Add the next character to the transmit buffer */

    sp->tx_buf[sp->tx_end] = *ptr++;
 180ee08:	e0bffc17 	ldw	r2,-16(fp)
 180ee0c:	10c00517 	ldw	r3,20(r2)
 180ee10:	e0bffd17 	ldw	r2,-12(fp)
 180ee14:	10800003 	ldbu	r2,0(r2)
 180ee18:	1009883a 	mov	r4,r2
 180ee1c:	e0bffc17 	ldw	r2,-16(fp)
 180ee20:	1885883a 	add	r2,r3,r2
 180ee24:	10801704 	addi	r2,r2,92
 180ee28:	11000005 	stb	r4,0(r2)
 180ee2c:	e0bffd17 	ldw	r2,-12(fp)
 180ee30:	10800044 	addi	r2,r2,1
 180ee34:	e0bffd15 	stw	r2,-12(fp)
    sp->tx_end = next;
 180ee38:	e0fffc17 	ldw	r3,-16(fp)
 180ee3c:	e0bff917 	ldw	r2,-28(fp)
 180ee40:	18800515 	stw	r2,20(r3)
   * Loop transferring data from the input buffer to the transmit circular
   * buffer. The loop is terminated once all the data has been transferred,
   * or, (if in non-blocking mode) the buffer becomes full.
   */

  while (count)
 180ee44:	e0bff817 	ldw	r2,-32(fp)
 180ee48:	1004c03a 	cmpne	r2,r2,zero
 180ee4c:	103fbd1e 	bne	r2,zero,180ed44 <altera_avalon_uart_write+0x38>
static ALT_INLINE alt_irq_context ALT_ALWAYS_INLINE 
       alt_irq_disable_all (void)
{
  alt_irq_context context;

  NIOS2_READ_STATUS (context);
 180ee50:	0005303a 	rdctl	r2,status
 180ee54:	e0bff515 	stw	r2,-44(fp)

  NIOS2_WRITE_STATUS (context & ~NIOS2_STATUS_PIE_MSK);
 180ee58:	e0fff517 	ldw	r3,-44(fp)
 180ee5c:	00bfff84 	movi	r2,-2
 180ee60:	1884703a 	and	r2,r3,r2
 180ee64:	1001703a 	wrctl	status,r2
  
  return context;
 180ee68:	e0bff517 	ldw	r2,-44(fp)
  /* 
   * Ensure that interrupts are enabled, so that the circular buffer can 
   * drain.
   */

  context = alt_irq_disable_all ();
 180ee6c:	e0bffb15 	stw	r2,-20(fp)
  sp->ctrl |= ALTERA_AVALON_UART_CONTROL_TRDY_MSK |
 180ee70:	e0bffc17 	ldw	r2,-16(fp)
 180ee74:	10800117 	ldw	r2,4(r2)
 180ee78:	10c11014 	ori	r3,r2,1088
 180ee7c:	e0bffc17 	ldw	r2,-16(fp)
 180ee80:	10c00115 	stw	r3,4(r2)
                 ALTERA_AVALON_UART_CONTROL_DCTS_MSK;
  IOWR_ALTERA_AVALON_UART_CONTROL(sp->base, sp->ctrl);
 180ee84:	e0bffc17 	ldw	r2,-16(fp)
 180ee88:	10800017 	ldw	r2,0(r2)
 180ee8c:	11000304 	addi	r4,r2,12
 180ee90:	e0bffc17 	ldw	r2,-16(fp)
 180ee94:	10800117 	ldw	r2,4(r2)
 180ee98:	1007883a 	mov	r3,r2
 180ee9c:	2005883a 	mov	r2,r4
 180eea0:	10c00035 	stwio	r3,0(r2)
 180eea4:	e0bffb17 	ldw	r2,-20(fp)
 180eea8:	e0bff415 	stw	r2,-48(fp)
  status &= ~NIOS2_STATUS_PIE_MSK;
  status |= (context & NIOS2_STATUS_PIE_MSK);
  
  NIOS2_WRITE_STATUS (status);
#else
  NIOS2_WRITE_STATUS (context);
 180eeac:	e0bff417 	ldw	r2,-48(fp)
 180eeb0:	1001703a 	wrctl	status,r2
  alt_irq_enable_all (context);

  /* return the number of bytes written */

  return (len - count);
 180eeb4:	e0fffe17 	ldw	r3,-8(fp)
 180eeb8:	e0bff817 	ldw	r2,-32(fp)
 180eebc:	1885c83a 	sub	r2,r3,r2
}
 180eec0:	e037883a 	mov	sp,fp
 180eec4:	dfc00117 	ldw	ra,4(sp)
 180eec8:	df000017 	ldw	fp,0(sp)
 180eecc:	dec00204 	addi	sp,sp,8
 180eed0:	f800283a 	ret

0180eed4 <alt_get_errno>:
#undef errno

extern int errno;

static ALT_INLINE int* alt_get_errno(void)
{
 180eed4:	defffd04 	addi	sp,sp,-12
 180eed8:	dfc00215 	stw	ra,8(sp)
 180eedc:	df000115 	stw	fp,4(sp)
 180eee0:	df000104 	addi	fp,sp,4
  return ((alt_errno) ? alt_errno() : &errno);
 180eee4:	00806074 	movhi	r2,385
 180eee8:	108c4204 	addi	r2,r2,12552
 180eeec:	10800017 	ldw	r2,0(r2)
 180eef0:	1005003a 	cmpeq	r2,r2,zero
 180eef4:	1000061e 	bne	r2,zero,180ef10 <alt_get_errno+0x3c>
 180eef8:	00806074 	movhi	r2,385
 180eefc:	108c4204 	addi	r2,r2,12552
 180ef00:	10800017 	ldw	r2,0(r2)
 180ef04:	103ee83a 	callr	r2
 180ef08:	e0bfff15 	stw	r2,-4(fp)
 180ef0c:	00000306 	br	180ef1c <alt_get_errno+0x48>
 180ef10:	00806074 	movhi	r2,385
 180ef14:	108c5104 	addi	r2,r2,12612
 180ef18:	e0bfff15 	stw	r2,-4(fp)
 180ef1c:	e0bfff17 	ldw	r2,-4(fp)
}
 180ef20:	e037883a 	mov	sp,fp
 180ef24:	dfc00117 	ldw	ra,4(sp)
 180ef28:	df000017 	ldw	fp,0(sp)
 180ef2c:	dec00204 	addi	sp,sp,8
 180ef30:	f800283a 	ret

0180ef34 <alt_alarm_start>:
 */ 

int alt_alarm_start (alt_alarm* alarm, alt_u32 nticks,
                     alt_u32 (*callback) (void* context),
                     void* context)
{
 180ef34:	defff404 	addi	sp,sp,-48
 180ef38:	df000b15 	stw	fp,44(sp)
 180ef3c:	df000b04 	addi	fp,sp,44
 180ef40:	e13ffb15 	stw	r4,-20(fp)
 180ef44:	e17ffc15 	stw	r5,-16(fp)
 180ef48:	e1bffd15 	stw	r6,-12(fp)
 180ef4c:	e1fffe15 	stw	r7,-8(fp)
  alt_irq_context irq_context;
  alt_u32 current_nticks = 0;
 180ef50:	e03ff915 	stw	zero,-28(fp)
 * Obtain the system clock rate in ticks/s. 
 */

static ALT_INLINE alt_u32 ALT_ALWAYS_INLINE alt_ticks_per_second (void)
{
  return _alt_tick_rate;
 180ef54:	00806074 	movhi	r2,385
 180ef58:	108c5604 	addi	r2,r2,12632
 180ef5c:	10800017 	ldw	r2,0(r2)
  
  if (alt_ticks_per_second ())
 180ef60:	1005003a 	cmpeq	r2,r2,zero
 180ef64:	1000411e 	bne	r2,zero,180f06c <alt_alarm_start+0x138>
  {
    if (alarm)
 180ef68:	e0bffb17 	ldw	r2,-20(fp)
 180ef6c:	1005003a 	cmpeq	r2,r2,zero
 180ef70:	10003b1e 	bne	r2,zero,180f060 <alt_alarm_start+0x12c>
    {
      alarm->callback = callback;
 180ef74:	e0fffb17 	ldw	r3,-20(fp)
 180ef78:	e0bffd17 	ldw	r2,-12(fp)
 180ef7c:	18800315 	stw	r2,12(r3)
      alarm->context  = context;
 180ef80:	e0fffb17 	ldw	r3,-20(fp)
 180ef84:	e0bffe17 	ldw	r2,-8(fp)
 180ef88:	18800515 	stw	r2,20(r3)
static ALT_INLINE alt_irq_context ALT_ALWAYS_INLINE 
       alt_irq_disable_all (void)
{
  alt_irq_context context;

  NIOS2_READ_STATUS (context);
 180ef8c:	0005303a 	rdctl	r2,status
 180ef90:	e0bff815 	stw	r2,-32(fp)

  NIOS2_WRITE_STATUS (context & ~NIOS2_STATUS_PIE_MSK);
 180ef94:	e0fff817 	ldw	r3,-32(fp)
 180ef98:	00bfff84 	movi	r2,-2
 180ef9c:	1884703a 	and	r2,r3,r2
 180efa0:	1001703a 	wrctl	status,r2
  
  return context;
 180efa4:	e0bff817 	ldw	r2,-32(fp)
 
      irq_context = alt_irq_disable_all ();
 180efa8:	e0bffa15 	stw	r2,-24(fp)
 * alt_nticks() returns the elapsed number of system clock ticks since reset.
 */

static ALT_INLINE alt_u32 ALT_ALWAYS_INLINE alt_nticks (void)
{
  return _alt_nticks;
 180efac:	00806074 	movhi	r2,385
 180efb0:	108c5704 	addi	r2,r2,12636
 180efb4:	10800017 	ldw	r2,0(r2)
      
      current_nticks = alt_nticks();
 180efb8:	e0bff915 	stw	r2,-28(fp)
      
      alarm->time = nticks + current_nticks + 1; 
 180efbc:	e0fffc17 	ldw	r3,-16(fp)
 180efc0:	e0bff917 	ldw	r2,-28(fp)
 180efc4:	1885883a 	add	r2,r3,r2
 180efc8:	10c00044 	addi	r3,r2,1
 180efcc:	e0bffb17 	ldw	r2,-20(fp)
 180efd0:	10c00215 	stw	r3,8(r2)
      /* 
       * If the desired alarm time causes a roll-over, set the rollover
       * flag. This will prevent the subsequent tick event from causing
       * an alarm too early.
       */
      if(alarm->time < current_nticks)
 180efd4:	e0bffb17 	ldw	r2,-20(fp)
 180efd8:	10c00217 	ldw	r3,8(r2)
 180efdc:	e0bff917 	ldw	r2,-28(fp)
 180efe0:	1880042e 	bgeu	r3,r2,180eff4 <alt_alarm_start+0xc0>
      {
        alarm->rollover = 1;
 180efe4:	e0fffb17 	ldw	r3,-20(fp)
 180efe8:	00800044 	movi	r2,1
 180efec:	18800405 	stb	r2,16(r3)
 180eff0:	00000206 	br	180effc <alt_alarm_start+0xc8>
      }
      else
      {
        alarm->rollover = 0;
 180eff4:	e0bffb17 	ldw	r2,-20(fp)
 180eff8:	10000405 	stb	zero,16(r2)
      }
    
      alt_llist_insert (&alt_alarm_list, &alarm->llist);
 180effc:	e0fffb17 	ldw	r3,-20(fp)
 180f000:	00806074 	movhi	r2,385
 180f004:	108c4804 	addi	r2,r2,12576
 180f008:	e0bff615 	stw	r2,-40(fp)
 180f00c:	e0fff715 	stw	r3,-36(fp)
 */

static ALT_INLINE void ALT_ALWAYS_INLINE alt_llist_insert(alt_llist* list, 
                alt_llist* entry)
{
  entry->previous = list;
 180f010:	e0fff717 	ldw	r3,-36(fp)
 180f014:	e0bff617 	ldw	r2,-40(fp)
 180f018:	18800115 	stw	r2,4(r3)
  entry->next     = list->next;
 180f01c:	e0bff617 	ldw	r2,-40(fp)
 180f020:	10c00017 	ldw	r3,0(r2)
 180f024:	e0bff717 	ldw	r2,-36(fp)
 180f028:	10c00015 	stw	r3,0(r2)

  list->next->previous = entry;
 180f02c:	e0bff617 	ldw	r2,-40(fp)
 180f030:	10c00017 	ldw	r3,0(r2)
 180f034:	e0bff717 	ldw	r2,-36(fp)
 180f038:	18800115 	stw	r2,4(r3)
  list->next           = entry;
 180f03c:	e0fff617 	ldw	r3,-40(fp)
 180f040:	e0bff717 	ldw	r2,-36(fp)
 180f044:	18800015 	stw	r2,0(r3)
 180f048:	e0bffa17 	ldw	r2,-24(fp)
 180f04c:	e0bff515 	stw	r2,-44(fp)
  status &= ~NIOS2_STATUS_PIE_MSK;
  status |= (context & NIOS2_STATUS_PIE_MSK);
  
  NIOS2_WRITE_STATUS (status);
#else
  NIOS2_WRITE_STATUS (context);
 180f050:	e0bff517 	ldw	r2,-44(fp)
 180f054:	1001703a 	wrctl	status,r2
      alt_irq_enable_all (irq_context);

      return 0;
 180f058:	e03fff15 	stw	zero,-4(fp)
 180f05c:	00000506 	br	180f074 <alt_alarm_start+0x140>
    }
    else
    {
      return -EINVAL;
 180f060:	00bffa84 	movi	r2,-22
 180f064:	e0bfff15 	stw	r2,-4(fp)
 180f068:	00000206 	br	180f074 <alt_alarm_start+0x140>
    }
  }
  else
  {
    return -ENOTSUP;
 180f06c:	00bfde84 	movi	r2,-134
 180f070:	e0bfff15 	stw	r2,-4(fp)
 180f074:	e0bfff17 	ldw	r2,-4(fp)
  }
}
 180f078:	e037883a 	mov	sp,fp
 180f07c:	df000017 	ldw	fp,0(sp)
 180f080:	dec00104 	addi	sp,sp,4
 180f084:	f800283a 	ret

0180f088 <alt_busy_sleep>:
#include "alt_types.h"

#include "priv/alt_busy_sleep.h"

unsigned int alt_busy_sleep (unsigned int us)
{
 180f088:	defffb04 	addi	sp,sp,-20
 180f08c:	df000415 	stw	fp,16(sp)
 180f090:	df000404 	addi	fp,sp,16
 180f094:	e13fff15 	stw	r4,-4(fp)
  {
    cycles_per_loop = 9;
  }
  else  
  {
    cycles_per_loop = 3;
 180f098:	008000c4 	movi	r2,3
 180f09c:	e0bffc15 	stw	r2,-16(fp)
  }
  

  big_loops = us / (INT_MAX/
 180f0a0:	e0fffc17 	ldw	r3,-16(fp)
 180f0a4:	008003f4 	movhi	r2,15
 180f0a8:	10909004 	addi	r2,r2,16960
 180f0ac:	1887383a 	mul	r3,r3,r2
 180f0b0:	0080bef4 	movhi	r2,763
 180f0b4:	10bc2004 	addi	r2,r2,-3968
 180f0b8:	10c7203a 	divu	r3,r2,r3
 180f0bc:	00a00034 	movhi	r2,32768
 180f0c0:	10bfffc4 	addi	r2,r2,-1
 180f0c4:	10c7203a 	divu	r3,r2,r3
 180f0c8:	e0bfff17 	ldw	r2,-4(fp)
 180f0cc:	10c5203a 	divu	r2,r2,r3
 180f0d0:	e0bffd15 	stw	r2,-12(fp)
  (ALT_CPU_FREQ/(cycles_per_loop * 1000000)));

  if (big_loops)
 180f0d4:	e0bffd17 	ldw	r2,-12(fp)
 180f0d8:	1005003a 	cmpeq	r2,r2,zero
 180f0dc:	1000251e 	bne	r2,zero,180f174 <alt_busy_sleep+0xec>
  {
    for(i=0;i<big_loops;i++)
 180f0e0:	e03ffe15 	stw	zero,-8(fp)
 180f0e4:	00001406 	br	180f138 <alt_busy_sleep+0xb0>
      /*
      * Do NOT Try to single step the asm statement below 
      * (single step will never return)
      * Step out of this function or set a breakpoint after the asm statements
      */
      __asm__ volatile (
 180f0e8:	00a00034 	movhi	r2,32768
 180f0ec:	10bfffc4 	addi	r2,r2,-1
 180f0f0:	10bfffc4 	addi	r2,r2,-1
 180f0f4:	103ffe1e 	bne	r2,zero,180f0f0 <alt_busy_sleep+0x68>
        "\n1:"
        "\n\t.pushsection .debug_alt_sim_info"
        "\n\t.int 4, 0, 0b, 1b"
        "\n\t.popsection"
        :: "r" (INT_MAX));
      us -= (INT_MAX/(ALT_CPU_FREQ/
 180f0f8:	e0fffc17 	ldw	r3,-16(fp)
 180f0fc:	008003f4 	movhi	r2,15
 180f100:	10909004 	addi	r2,r2,16960
 180f104:	1887383a 	mul	r3,r3,r2
 180f108:	0080bef4 	movhi	r2,763
 180f10c:	10bc2004 	addi	r2,r2,-3968
 180f110:	10c7203a 	divu	r3,r2,r3
 180f114:	00a00034 	movhi	r2,32768
 180f118:	10bfffc4 	addi	r2,r2,-1
 180f11c:	10c7203a 	divu	r3,r2,r3
 180f120:	e0bfff17 	ldw	r2,-4(fp)
 180f124:	10c5c83a 	sub	r2,r2,r3
 180f128:	e0bfff15 	stw	r2,-4(fp)
  big_loops = us / (INT_MAX/
  (ALT_CPU_FREQ/(cycles_per_loop * 1000000)));

  if (big_loops)
  {
    for(i=0;i<big_loops;i++)
 180f12c:	e0bffe17 	ldw	r2,-8(fp)
 180f130:	10800044 	addi	r2,r2,1
 180f134:	e0bffe15 	stw	r2,-8(fp)
 180f138:	e0fffe17 	ldw	r3,-8(fp)
 180f13c:	e0bffd17 	ldw	r2,-12(fp)
 180f140:	18bfe916 	blt	r3,r2,180f0e8 <alt_busy_sleep+0x60>
    /*
    * Do NOT Try to single step the asm statement below 
    * (single step will never return)
    * Step out of this function or set a breakpoint after the asm statements
    */
    __asm__ volatile (
 180f144:	e0fffc17 	ldw	r3,-16(fp)
 180f148:	008003f4 	movhi	r2,15
 180f14c:	10909004 	addi	r2,r2,16960
 180f150:	1887383a 	mul	r3,r3,r2
 180f154:	0080bef4 	movhi	r2,763
 180f158:	10bc2004 	addi	r2,r2,-3968
 180f15c:	10c7203a 	divu	r3,r2,r3
 180f160:	e0bfff17 	ldw	r2,-4(fp)
 180f164:	1885383a 	mul	r2,r3,r2
 180f168:	10bfffc4 	addi	r2,r2,-1
 180f16c:	103ffe1e 	bne	r2,zero,180f168 <alt_busy_sleep+0xe0>
 180f170:	00000b06 	br	180f1a0 <alt_busy_sleep+0x118>
    /*
    * Do NOT Try to single step the asm statement below 
    * (single step will never return)
    * Step out of this function or set a breakpoint after the asm statements
    */
    __asm__ volatile (
 180f174:	e0fffc17 	ldw	r3,-16(fp)
 180f178:	008003f4 	movhi	r2,15
 180f17c:	10909004 	addi	r2,r2,16960
 180f180:	1887383a 	mul	r3,r3,r2
 180f184:	0080bef4 	movhi	r2,763
 180f188:	10bc2004 	addi	r2,r2,-3968
 180f18c:	10c7203a 	divu	r3,r2,r3
 180f190:	e0bfff17 	ldw	r2,-4(fp)
 180f194:	1885383a 	mul	r2,r3,r2
 180f198:	10bfffc4 	addi	r2,r2,-1
 180f19c:	00bffe16 	blt	zero,r2,180f198 <alt_busy_sleep+0x110>
      "\n\t.int 4, 0, 0b, 1b"
      "\n\t.popsection"
      :: "r" (us*(ALT_CPU_FREQ/(cycles_per_loop * 1000000))));
  }
#endif /* #ifndef ALT_SIM_OPTIMIZE */
  return 0;
 180f1a0:	0005883a 	mov	r2,zero
}
 180f1a4:	e037883a 	mov	sp,fp
 180f1a8:	df000017 	ldw	fp,0(sp)
 180f1ac:	dec00104 	addi	sp,sp,4
 180f1b0:	f800283a 	ret

0180f1b4 <alt_dcache_flush>:
 *
 * Any dirty lines in the data cache are written back to memory.
 */

void alt_dcache_flush (void* start, alt_u32 len)
{
 180f1b4:	defffb04 	addi	sp,sp,-20
 180f1b8:	df000415 	stw	fp,16(sp)
 180f1bc:	df000404 	addi	fp,sp,16
 180f1c0:	e13ffe15 	stw	r4,-8(fp)
 180f1c4:	e17fff15 	stw	r5,-4(fp)
  {
    len = NIOS2_DCACHE_SIZE;
  }
  #endif

  end = ((char*) start) + len; 
 180f1c8:	e0fffe17 	ldw	r3,-8(fp)
 180f1cc:	e0bfff17 	ldw	r2,-4(fp)
 180f1d0:	1885883a 	add	r2,r3,r2
 180f1d4:	e0bffc15 	stw	r2,-16(fp)

  for (i = start; i < end; i+= NIOS2_DCACHE_LINE_SIZE)
 180f1d8:	e0bffe17 	ldw	r2,-8(fp)
 180f1dc:	e0bffd15 	stw	r2,-12(fp)
 180f1e0:	00000506 	br	180f1f8 <alt_dcache_flush+0x44>
  { 
    ALT_FLUSH_DATA(i); 
 180f1e4:	e0bffd17 	ldw	r2,-12(fp)
 180f1e8:	1000001b 	flushda	0(r2)
  }
  #endif

  end = ((char*) start) + len; 

  for (i = start; i < end; i+= NIOS2_DCACHE_LINE_SIZE)
 180f1ec:	e0bffd17 	ldw	r2,-12(fp)
 180f1f0:	10800804 	addi	r2,r2,32
 180f1f4:	e0bffd15 	stw	r2,-12(fp)
 180f1f8:	e0fffd17 	ldw	r3,-12(fp)
 180f1fc:	e0bffc17 	ldw	r2,-16(fp)
 180f200:	18bff836 	bltu	r3,r2,180f1e4 <alt_dcache_flush+0x30>
   * For an unaligned flush request, we've got one more line left.
   * Note that this is dependent on NIOS2_DCACHE_LINE_SIZE to be a 
   * multiple of 2 (which it always is).
   */

  if (((alt_u32) start) & (NIOS2_DCACHE_LINE_SIZE - 1))
 180f204:	e0bffe17 	ldw	r2,-8(fp)
 180f208:	108007cc 	andi	r2,r2,31
 180f20c:	1005003a 	cmpeq	r2,r2,zero
 180f210:	1000021e 	bne	r2,zero,180f21c <alt_dcache_flush+0x68>
  {
    ALT_FLUSH_DATA(i);
 180f214:	e0bffd17 	ldw	r2,-12(fp)
 180f218:	1000001b 	flushda	0(r2)
  }

#endif /* NIOS2_DCACHE_SIZE > 0 */
}
 180f21c:	e037883a 	mov	sp,fp
 180f220:	df000017 	ldw	fp,0(sp)
 180f224:	dec00104 	addi	sp,sp,4
 180f228:	f800283a 	ret

0180f22c <alt_dev_llist_insert>:
/*
 *
 */

int alt_dev_llist_insert (alt_dev_llist* dev, alt_llist* list)
{
 180f22c:	defff904 	addi	sp,sp,-28
 180f230:	dfc00615 	stw	ra,24(sp)
 180f234:	df000515 	stw	fp,20(sp)
 180f238:	df000504 	addi	fp,sp,20
 180f23c:	e13ffd15 	stw	r4,-12(fp)
 180f240:	e17ffe15 	stw	r5,-8(fp)
  /*
   * check that the device exists, and that it has a valid name.
   */

  if (!dev || !dev->name)
 180f244:	e0bffd17 	ldw	r2,-12(fp)
 180f248:	1005003a 	cmpeq	r2,r2,zero
 180f24c:	1000041e 	bne	r2,zero,180f260 <alt_dev_llist_insert+0x34>
 180f250:	e0bffd17 	ldw	r2,-12(fp)
 180f254:	10800217 	ldw	r2,8(r2)
 180f258:	1004c03a 	cmpne	r2,r2,zero
 180f25c:	1000071e 	bne	r2,zero,180f27c <alt_dev_llist_insert+0x50>
  {
    ALT_ERRNO = EINVAL;
 180f260:	180f2e00 	call	180f2e0 <alt_get_errno>
 180f264:	1007883a 	mov	r3,r2
 180f268:	00800584 	movi	r2,22
 180f26c:	18800015 	stw	r2,0(r3)
    return -EINVAL;
 180f270:	00bffa84 	movi	r2,-22
 180f274:	e0bfff15 	stw	r2,-4(fp)
 180f278:	00001306 	br	180f2c8 <alt_dev_llist_insert+0x9c>
  
  /*
   * register the device.
   */
  
  alt_llist_insert(list, &dev->llist);
 180f27c:	e0fffd17 	ldw	r3,-12(fp)
 180f280:	e0bffe17 	ldw	r2,-8(fp)
 180f284:	e0bffb15 	stw	r2,-20(fp)
 180f288:	e0fffc15 	stw	r3,-16(fp)
 */

static ALT_INLINE void ALT_ALWAYS_INLINE alt_llist_insert(alt_llist* list, 
                alt_llist* entry)
{
  entry->previous = list;
 180f28c:	e0fffc17 	ldw	r3,-16(fp)
 180f290:	e0bffb17 	ldw	r2,-20(fp)
 180f294:	18800115 	stw	r2,4(r3)
  entry->next     = list->next;
 180f298:	e0bffb17 	ldw	r2,-20(fp)
 180f29c:	10c00017 	ldw	r3,0(r2)
 180f2a0:	e0bffc17 	ldw	r2,-16(fp)
 180f2a4:	10c00015 	stw	r3,0(r2)

  list->next->previous = entry;
 180f2a8:	e0bffb17 	ldw	r2,-20(fp)
 180f2ac:	10c00017 	ldw	r3,0(r2)
 180f2b0:	e0bffc17 	ldw	r2,-16(fp)
 180f2b4:	18800115 	stw	r2,4(r3)
  list->next           = entry;
 180f2b8:	e0fffb17 	ldw	r3,-20(fp)
 180f2bc:	e0bffc17 	ldw	r2,-16(fp)
 180f2c0:	18800015 	stw	r2,0(r3)

  return 0;  
 180f2c4:	e03fff15 	stw	zero,-4(fp)
 180f2c8:	e0bfff17 	ldw	r2,-4(fp)
}
 180f2cc:	e037883a 	mov	sp,fp
 180f2d0:	dfc00117 	ldw	ra,4(sp)
 180f2d4:	df000017 	ldw	fp,0(sp)
 180f2d8:	dec00204 	addi	sp,sp,8
 180f2dc:	f800283a 	ret

0180f2e0 <alt_get_errno>:
#undef errno

extern int errno;

static ALT_INLINE int* alt_get_errno(void)
{
 180f2e0:	defffd04 	addi	sp,sp,-12
 180f2e4:	dfc00215 	stw	ra,8(sp)
 180f2e8:	df000115 	stw	fp,4(sp)
 180f2ec:	df000104 	addi	fp,sp,4
  return ((alt_errno) ? alt_errno() : &errno);
 180f2f0:	00806074 	movhi	r2,385
 180f2f4:	108c4204 	addi	r2,r2,12552
 180f2f8:	10800017 	ldw	r2,0(r2)
 180f2fc:	1005003a 	cmpeq	r2,r2,zero
 180f300:	1000061e 	bne	r2,zero,180f31c <alt_get_errno+0x3c>
 180f304:	00806074 	movhi	r2,385
 180f308:	108c4204 	addi	r2,r2,12552
 180f30c:	10800017 	ldw	r2,0(r2)
 180f310:	103ee83a 	callr	r2
 180f314:	e0bfff15 	stw	r2,-4(fp)
 180f318:	00000306 	br	180f328 <alt_get_errno+0x48>
 180f31c:	00806074 	movhi	r2,385
 180f320:	108c5104 	addi	r2,r2,12612
 180f324:	e0bfff15 	stw	r2,-4(fp)
 180f328:	e0bfff17 	ldw	r2,-4(fp)
}
 180f32c:	e037883a 	mov	sp,fp
 180f330:	dfc00117 	ldw	ra,4(sp)
 180f334:	df000017 	ldw	fp,0(sp)
 180f338:	dec00204 	addi	sp,sp,8
 180f33c:	f800283a 	ret

0180f340 <_do_ctors>:
/*
 * Run the C++ static constructors.
 */

void _do_ctors(void)
{
 180f340:	defffd04 	addi	sp,sp,-12
 180f344:	dfc00215 	stw	ra,8(sp)
 180f348:	df000115 	stw	fp,4(sp)
 180f34c:	df000104 	addi	fp,sp,4
  constructor* ctor;

  for (ctor = &__CTOR_END__[-1]; ctor >= __CTOR_LIST__; ctor--)
 180f350:	00bfff04 	movi	r2,-4
 180f354:	00c06074 	movhi	r3,385
 180f358:	18c37a04 	addi	r3,r3,3560
 180f35c:	1885883a 	add	r2,r3,r2
 180f360:	e0bfff15 	stw	r2,-4(fp)
 180f364:	00000606 	br	180f380 <_do_ctors+0x40>
        (*ctor) (); 
 180f368:	e0bfff17 	ldw	r2,-4(fp)
 180f36c:	10800017 	ldw	r2,0(r2)
 180f370:	103ee83a 	callr	r2

void _do_ctors(void)
{
  constructor* ctor;

  for (ctor = &__CTOR_END__[-1]; ctor >= __CTOR_LIST__; ctor--)
 180f374:	e0bfff17 	ldw	r2,-4(fp)
 180f378:	10bfff04 	addi	r2,r2,-4
 180f37c:	e0bfff15 	stw	r2,-4(fp)
 180f380:	e0ffff17 	ldw	r3,-4(fp)
 180f384:	00806074 	movhi	r2,385
 180f388:	10837904 	addi	r2,r2,3556
 180f38c:	18bff62e 	bgeu	r3,r2,180f368 <_do_ctors+0x28>
        (*ctor) (); 
}
 180f390:	e037883a 	mov	sp,fp
 180f394:	dfc00117 	ldw	ra,4(sp)
 180f398:	df000017 	ldw	fp,0(sp)
 180f39c:	dec00204 	addi	sp,sp,8
 180f3a0:	f800283a 	ret

0180f3a4 <_do_dtors>:
/*
 * Run the C++ static destructors.
 */

void _do_dtors(void)
{
 180f3a4:	defffd04 	addi	sp,sp,-12
 180f3a8:	dfc00215 	stw	ra,8(sp)
 180f3ac:	df000115 	stw	fp,4(sp)
 180f3b0:	df000104 	addi	fp,sp,4
  destructor* dtor;

  for (dtor = &__DTOR_END__[-1]; dtor >= __DTOR_LIST__; dtor--)
 180f3b4:	00bfff04 	movi	r2,-4
 180f3b8:	00c06074 	movhi	r3,385
 180f3bc:	18c37a04 	addi	r3,r3,3560
 180f3c0:	1885883a 	add	r2,r3,r2
 180f3c4:	e0bfff15 	stw	r2,-4(fp)
 180f3c8:	00000606 	br	180f3e4 <_do_dtors+0x40>
        (*dtor) (); 
 180f3cc:	e0bfff17 	ldw	r2,-4(fp)
 180f3d0:	10800017 	ldw	r2,0(r2)
 180f3d4:	103ee83a 	callr	r2

void _do_dtors(void)
{
  destructor* dtor;

  for (dtor = &__DTOR_END__[-1]; dtor >= __DTOR_LIST__; dtor--)
 180f3d8:	e0bfff17 	ldw	r2,-4(fp)
 180f3dc:	10bfff04 	addi	r2,r2,-4
 180f3e0:	e0bfff15 	stw	r2,-4(fp)
 180f3e4:	e0ffff17 	ldw	r3,-4(fp)
 180f3e8:	00806074 	movhi	r2,385
 180f3ec:	10837a04 	addi	r2,r2,3560
 180f3f0:	18bff62e 	bgeu	r3,r2,180f3cc <_do_dtors+0x28>
        (*dtor) (); 
}
 180f3f4:	e037883a 	mov	sp,fp
 180f3f8:	dfc00117 	ldw	ra,4(sp)
 180f3fc:	df000017 	ldw	fp,0(sp)
 180f400:	dec00204 	addi	sp,sp,8
 180f404:	f800283a 	ret

0180f408 <alt_flash_open_dev>:
#include "priv/alt_file.h"

ALT_LLIST_HEAD(alt_flash_dev_list);

alt_flash_fd* alt_flash_open_dev(const char* name)
{
 180f408:	defffb04 	addi	sp,sp,-20
 180f40c:	dfc00415 	stw	ra,16(sp)
 180f410:	df000315 	stw	fp,12(sp)
 180f414:	df000304 	addi	fp,sp,12
 180f418:	e13ffe15 	stw	r4,-8(fp)
  alt_flash_dev* dev = (alt_flash_dev*)alt_find_dev(name, &alt_flash_dev_list);
 180f41c:	e13ffe17 	ldw	r4,-8(fp)
 180f420:	d1600e04 	addi	r5,gp,-32712
 180f424:	18106280 	call	1810628 <alt_find_dev>
 180f428:	e0bffd15 	stw	r2,-12(fp)

  if ((dev) && dev->open)
 180f42c:	e0bffd17 	ldw	r2,-12(fp)
 180f430:	1005003a 	cmpeq	r2,r2,zero
 180f434:	10000b1e 	bne	r2,zero,180f464 <alt_flash_open_dev+0x5c>
 180f438:	e0bffd17 	ldw	r2,-12(fp)
 180f43c:	10800317 	ldw	r2,12(r2)
 180f440:	1005003a 	cmpeq	r2,r2,zero
 180f444:	1000071e 	bne	r2,zero,180f464 <alt_flash_open_dev+0x5c>
  {
    return dev->open(dev, name);
 180f448:	e0bffd17 	ldw	r2,-12(fp)
 180f44c:	10800317 	ldw	r2,12(r2)
 180f450:	e13ffd17 	ldw	r4,-12(fp)
 180f454:	e17ffe17 	ldw	r5,-8(fp)
 180f458:	103ee83a 	callr	r2
 180f45c:	e0bfff15 	stw	r2,-4(fp)
 180f460:	00000206 	br	180f46c <alt_flash_open_dev+0x64>
  }

  return dev;
 180f464:	e0bffd17 	ldw	r2,-12(fp)
 180f468:	e0bfff15 	stw	r2,-4(fp)
 180f46c:	e0bfff17 	ldw	r2,-4(fp)
}
 180f470:	e037883a 	mov	sp,fp
 180f474:	dfc00117 	ldw	ra,4(sp)
 180f478:	df000017 	ldw	fp,0(sp)
 180f47c:	dec00204 	addi	sp,sp,8
 180f480:	f800283a 	ret

0180f484 <alt_flash_close_dev>:

void alt_flash_close_dev(alt_flash_fd* fd)
{
 180f484:	defffd04 	addi	sp,sp,-12
 180f488:	dfc00215 	stw	ra,8(sp)
 180f48c:	df000115 	stw	fp,4(sp)
 180f490:	df000104 	addi	fp,sp,4
 180f494:	e13fff15 	stw	r4,-4(fp)
  if (fd && fd->close)
 180f498:	e0bfff17 	ldw	r2,-4(fp)
 180f49c:	1005003a 	cmpeq	r2,r2,zero
 180f4a0:	1000081e 	bne	r2,zero,180f4c4 <alt_flash_close_dev+0x40>
 180f4a4:	e0bfff17 	ldw	r2,-4(fp)
 180f4a8:	10800417 	ldw	r2,16(r2)
 180f4ac:	1005003a 	cmpeq	r2,r2,zero
 180f4b0:	1000041e 	bne	r2,zero,180f4c4 <alt_flash_close_dev+0x40>
  {
    fd->close(fd);
 180f4b4:	e0bfff17 	ldw	r2,-4(fp)
 180f4b8:	10800417 	ldw	r2,16(r2)
 180f4bc:	e13fff17 	ldw	r4,-4(fp)
 180f4c0:	103ee83a 	callr	r2
  }
  return;
}
 180f4c4:	e037883a 	mov	sp,fp
 180f4c8:	dfc00117 	ldw	ra,4(sp)
 180f4cc:	df000017 	ldw	fp,0(sp)
 180f4d0:	dec00204 	addi	sp,sp,8
 180f4d4:	f800283a 	ret

0180f4d8 <alt_ic_isr_register>:
  * @param irq              IRQ number
  * @return                 0 if successful, else error (-1)
  */
int alt_ic_isr_register(alt_u32 ic_id, alt_u32 irq, alt_isr_func isr, 
  void *isr_context, void *flags)
{
 180f4d8:	defff904 	addi	sp,sp,-28
 180f4dc:	dfc00615 	stw	ra,24(sp)
 180f4e0:	df000515 	stw	fp,20(sp)
 180f4e4:	df000504 	addi	fp,sp,20
 180f4e8:	e13ffc15 	stw	r4,-16(fp)
 180f4ec:	e17ffd15 	stw	r5,-12(fp)
 180f4f0:	e1bffe15 	stw	r6,-8(fp)
 180f4f4:	e1ffff15 	stw	r7,-4(fp)
    return alt_iic_isr_register(ic_id, irq, isr, isr_context, flags);
 180f4f8:	e0800217 	ldw	r2,8(fp)
 180f4fc:	d8800015 	stw	r2,0(sp)
 180f500:	e13ffc17 	ldw	r4,-16(fp)
 180f504:	e17ffd17 	ldw	r5,-12(fp)
 180f508:	e1bffe17 	ldw	r6,-8(fp)
 180f50c:	e1ffff17 	ldw	r7,-4(fp)
 180f510:	180f6ac0 	call	180f6ac <alt_iic_isr_register>
}  
 180f514:	e037883a 	mov	sp,fp
 180f518:	dfc00117 	ldw	ra,4(sp)
 180f51c:	df000017 	ldw	fp,0(sp)
 180f520:	dec00204 	addi	sp,sp,8
 180f524:	f800283a 	ret

0180f528 <alt_ic_irq_enable>:
  * @param ic_id            Ignored.
  * @param irq              IRQ number
  * @return                 0 if successful, else error (-1)
  */
int alt_ic_irq_enable (alt_u32 ic_id, alt_u32 irq)
{
 180f528:	defff904 	addi	sp,sp,-28
 180f52c:	df000615 	stw	fp,24(sp)
 180f530:	df000604 	addi	fp,sp,24
 180f534:	e13ffe15 	stw	r4,-8(fp)
 180f538:	e17fff15 	stw	r5,-4(fp)
 180f53c:	e0bfff17 	ldw	r2,-4(fp)
 180f540:	e0bffc15 	stw	r2,-16(fp)
static ALT_INLINE alt_irq_context ALT_ALWAYS_INLINE 
       alt_irq_disable_all (void)
{
  alt_irq_context context;

  NIOS2_READ_STATUS (context);
 180f544:	0005303a 	rdctl	r2,status
 180f548:	e0bffb15 	stw	r2,-20(fp)

  NIOS2_WRITE_STATUS (context & ~NIOS2_STATUS_PIE_MSK);
 180f54c:	e0fffb17 	ldw	r3,-20(fp)
 180f550:	00bfff84 	movi	r2,-2
 180f554:	1884703a 	and	r2,r3,r2
 180f558:	1001703a 	wrctl	status,r2
  
  return context;
 180f55c:	e0bffb17 	ldw	r2,-20(fp)
static ALT_INLINE int ALT_ALWAYS_INLINE alt_irq_enable (alt_u32 id)
{
  alt_irq_context  status;
  extern volatile alt_u32 alt_irq_active;

  status = alt_irq_disable_all ();
 180f560:	e0bffd15 	stw	r2,-12(fp)

  alt_irq_active |= (1 << id);
 180f564:	e0fffc17 	ldw	r3,-16(fp)
 180f568:	00800044 	movi	r2,1
 180f56c:	10c4983a 	sll	r2,r2,r3
 180f570:	1007883a 	mov	r3,r2
 180f574:	00806074 	movhi	r2,385
 180f578:	108c5504 	addi	r2,r2,12628
 180f57c:	10800017 	ldw	r2,0(r2)
 180f580:	1886b03a 	or	r3,r3,r2
 180f584:	00806074 	movhi	r2,385
 180f588:	108c5504 	addi	r2,r2,12628
 180f58c:	10c00015 	stw	r3,0(r2)
  NIOS2_WRITE_IENABLE (alt_irq_active);
 180f590:	00806074 	movhi	r2,385
 180f594:	108c5504 	addi	r2,r2,12628
 180f598:	10800017 	ldw	r2,0(r2)
 180f59c:	100170fa 	wrctl	ienable,r2
 180f5a0:	e0bffd17 	ldw	r2,-12(fp)
 180f5a4:	e0bffa15 	stw	r2,-24(fp)
  status &= ~NIOS2_STATUS_PIE_MSK;
  status |= (context & NIOS2_STATUS_PIE_MSK);
  
  NIOS2_WRITE_STATUS (status);
#else
  NIOS2_WRITE_STATUS (context);
 180f5a8:	e0bffa17 	ldw	r2,-24(fp)
 180f5ac:	1001703a 	wrctl	status,r2

  alt_irq_enable_all(status);

  return 0;
 180f5b0:	0005883a 	mov	r2,zero
    return alt_irq_enable(irq);
}
 180f5b4:	e037883a 	mov	sp,fp
 180f5b8:	df000017 	ldw	fp,0(sp)
 180f5bc:	dec00104 	addi	sp,sp,4
 180f5c0:	f800283a 	ret

0180f5c4 <alt_ic_irq_disable>:
  * @param ic_id            Ignored.
  * @param irq              IRQ number
  * @return                 0 if successful, else error (-1)
  */
int alt_ic_irq_disable(alt_u32 ic_id, alt_u32 irq)
{
 180f5c4:	defff904 	addi	sp,sp,-28
 180f5c8:	df000615 	stw	fp,24(sp)
 180f5cc:	df000604 	addi	fp,sp,24
 180f5d0:	e13ffe15 	stw	r4,-8(fp)
 180f5d4:	e17fff15 	stw	r5,-4(fp)
 180f5d8:	e0bfff17 	ldw	r2,-4(fp)
 180f5dc:	e0bffc15 	stw	r2,-16(fp)
static ALT_INLINE alt_irq_context ALT_ALWAYS_INLINE 
       alt_irq_disable_all (void)
{
  alt_irq_context context;

  NIOS2_READ_STATUS (context);
 180f5e0:	0005303a 	rdctl	r2,status
 180f5e4:	e0bffb15 	stw	r2,-20(fp)

  NIOS2_WRITE_STATUS (context & ~NIOS2_STATUS_PIE_MSK);
 180f5e8:	e0fffb17 	ldw	r3,-20(fp)
 180f5ec:	00bfff84 	movi	r2,-2
 180f5f0:	1884703a 	and	r2,r3,r2
 180f5f4:	1001703a 	wrctl	status,r2
  
  return context;
 180f5f8:	e0bffb17 	ldw	r2,-20(fp)
static ALT_INLINE int ALT_ALWAYS_INLINE alt_irq_disable (alt_u32 id)
{
  alt_irq_context  status;
  extern volatile alt_u32 alt_irq_active;

  status = alt_irq_disable_all ();
 180f5fc:	e0bffd15 	stw	r2,-12(fp)

  alt_irq_active &= ~(1 << id);
 180f600:	e0fffc17 	ldw	r3,-16(fp)
 180f604:	00800044 	movi	r2,1
 180f608:	10c4983a 	sll	r2,r2,r3
 180f60c:	0084303a 	nor	r2,zero,r2
 180f610:	1007883a 	mov	r3,r2
 180f614:	00806074 	movhi	r2,385
 180f618:	108c5504 	addi	r2,r2,12628
 180f61c:	10800017 	ldw	r2,0(r2)
 180f620:	1886703a 	and	r3,r3,r2
 180f624:	00806074 	movhi	r2,385
 180f628:	108c5504 	addi	r2,r2,12628
 180f62c:	10c00015 	stw	r3,0(r2)
  NIOS2_WRITE_IENABLE (alt_irq_active);
 180f630:	00806074 	movhi	r2,385
 180f634:	108c5504 	addi	r2,r2,12628
 180f638:	10800017 	ldw	r2,0(r2)
 180f63c:	100170fa 	wrctl	ienable,r2
 180f640:	e0bffd17 	ldw	r2,-12(fp)
 180f644:	e0bffa15 	stw	r2,-24(fp)
  status &= ~NIOS2_STATUS_PIE_MSK;
  status |= (context & NIOS2_STATUS_PIE_MSK);
  
  NIOS2_WRITE_STATUS (status);
#else
  NIOS2_WRITE_STATUS (context);
 180f648:	e0bffa17 	ldw	r2,-24(fp)
 180f64c:	1001703a 	wrctl	status,r2

  alt_irq_enable_all(status);

  return 0;
 180f650:	0005883a 	mov	r2,zero
    return alt_irq_disable(irq);
}
 180f654:	e037883a 	mov	sp,fp
 180f658:	df000017 	ldw	fp,0(sp)
 180f65c:	dec00104 	addi	sp,sp,4
 180f660:	f800283a 	ret

0180f664 <alt_ic_irq_enabled>:
  * @param irq              IRQ number
  * @return                 Zero if corresponding interrupt is disabled and
  *                         non-zero otherwise.
  */
alt_u32 alt_ic_irq_enabled(alt_u32 ic_id, alt_u32 irq)
{
 180f664:	defffc04 	addi	sp,sp,-16
 180f668:	df000315 	stw	fp,12(sp)
 180f66c:	df000304 	addi	fp,sp,12
 180f670:	e13ffe15 	stw	r4,-8(fp)
 180f674:	e17fff15 	stw	r5,-4(fp)
    alt_u32 irq_enabled;

    NIOS2_READ_IENABLE(irq_enabled);
 180f678:	000530fa 	rdctl	r2,ienable
 180f67c:	e0bffd15 	stw	r2,-12(fp)

    return (irq_enabled & (1 << irq)) ? 1: 0;
 180f680:	e0ffff17 	ldw	r3,-4(fp)
 180f684:	00800044 	movi	r2,1
 180f688:	10c4983a 	sll	r2,r2,r3
 180f68c:	1007883a 	mov	r3,r2
 180f690:	e0bffd17 	ldw	r2,-12(fp)
 180f694:	1884703a 	and	r2,r3,r2
 180f698:	1004c03a 	cmpne	r2,r2,zero
}
 180f69c:	e037883a 	mov	sp,fp
 180f6a0:	df000017 	ldw	fp,0(sp)
 180f6a4:	dec00104 	addi	sp,sp,4
 180f6a8:	f800283a 	ret

0180f6ac <alt_iic_isr_register>:
  * @param flags            
  * @return                 0 if successful, else error (-1)
  */
int alt_iic_isr_register(alt_u32 ic_id, alt_u32 irq, alt_isr_func isr, 
  void *isr_context, void *flags)
{
 180f6ac:	defff404 	addi	sp,sp,-48
 180f6b0:	dfc00b15 	stw	ra,44(sp)
 180f6b4:	df000a15 	stw	fp,40(sp)
 180f6b8:	df000a04 	addi	fp,sp,40
 180f6bc:	e13ffb15 	stw	r4,-20(fp)
 180f6c0:	e17ffc15 	stw	r5,-16(fp)
 180f6c4:	e1bffd15 	stw	r6,-12(fp)
 180f6c8:	e1fffe15 	stw	r7,-8(fp)
  int rc = -EINVAL;  
 180f6cc:	00bffa84 	movi	r2,-22
 180f6d0:	e0bffa15 	stw	r2,-24(fp)
  int id = irq;             /* IRQ interpreted as the interrupt ID. */
 180f6d4:	e0bffc17 	ldw	r2,-16(fp)
 180f6d8:	e0bff915 	stw	r2,-28(fp)
  alt_irq_context status;

  if (id < ALT_NIRQ)
 180f6dc:	e0bff917 	ldw	r2,-28(fp)
 180f6e0:	10800808 	cmpgei	r2,r2,32
 180f6e4:	1000291e 	bne	r2,zero,180f78c <alt_iic_isr_register+0xe0>
static ALT_INLINE alt_irq_context ALT_ALWAYS_INLINE 
       alt_irq_disable_all (void)
{
  alt_irq_context context;

  NIOS2_READ_STATUS (context);
 180f6e8:	0005303a 	rdctl	r2,status
 180f6ec:	e0bff715 	stw	r2,-36(fp)

  NIOS2_WRITE_STATUS (context & ~NIOS2_STATUS_PIE_MSK);
 180f6f0:	e0fff717 	ldw	r3,-36(fp)
 180f6f4:	00bfff84 	movi	r2,-2
 180f6f8:	1884703a 	and	r2,r3,r2
 180f6fc:	1001703a 	wrctl	status,r2
  
  return context;
 180f700:	e0bff717 	ldw	r2,-36(fp)
     * interrupts are disabled while the handler tables are updated to ensure
     * that an interrupt doesn't occur while the tables are in an inconsistant
     * state.
     */

    status = alt_irq_disable_all();
 180f704:	e0bff815 	stw	r2,-32(fp)

    alt_irq[id].handler = isr;
 180f708:	e0bff917 	ldw	r2,-28(fp)
 180f70c:	00c06074 	movhi	r3,385
 180f710:	18cc6304 	addi	r3,r3,12684
 180f714:	100490fa 	slli	r2,r2,3
 180f718:	10c7883a 	add	r3,r2,r3
 180f71c:	e0bffd17 	ldw	r2,-12(fp)
 180f720:	18800015 	stw	r2,0(r3)
    alt_irq[id].context = isr_context;
 180f724:	e0bff917 	ldw	r2,-28(fp)
 180f728:	00c06074 	movhi	r3,385
 180f72c:	18cc6304 	addi	r3,r3,12684
 180f730:	100490fa 	slli	r2,r2,3
 180f734:	10c5883a 	add	r2,r2,r3
 180f738:	10c00104 	addi	r3,r2,4
 180f73c:	e0bffe17 	ldw	r2,-8(fp)
 180f740:	18800015 	stw	r2,0(r3)

    rc = (isr) ? alt_ic_irq_enable(ic_id, id) : alt_ic_irq_disable(ic_id, id);
 180f744:	e0bffd17 	ldw	r2,-12(fp)
 180f748:	1005003a 	cmpeq	r2,r2,zero
 180f74c:	1000051e 	bne	r2,zero,180f764 <alt_iic_isr_register+0xb8>
 180f750:	e17ff917 	ldw	r5,-28(fp)
 180f754:	e13ffb17 	ldw	r4,-20(fp)
 180f758:	180f5280 	call	180f528 <alt_ic_irq_enable>
 180f75c:	e0bfff15 	stw	r2,-4(fp)
 180f760:	00000406 	br	180f774 <alt_iic_isr_register+0xc8>
 180f764:	e17ff917 	ldw	r5,-28(fp)
 180f768:	e13ffb17 	ldw	r4,-20(fp)
 180f76c:	180f5c40 	call	180f5c4 <alt_ic_irq_disable>
 180f770:	e0bfff15 	stw	r2,-4(fp)
 180f774:	e0bfff17 	ldw	r2,-4(fp)
 180f778:	e0bffa15 	stw	r2,-24(fp)
 180f77c:	e0bff817 	ldw	r2,-32(fp)
 180f780:	e0bff615 	stw	r2,-40(fp)
  status &= ~NIOS2_STATUS_PIE_MSK;
  status |= (context & NIOS2_STATUS_PIE_MSK);
  
  NIOS2_WRITE_STATUS (status);
#else
  NIOS2_WRITE_STATUS (context);
 180f784:	e0bff617 	ldw	r2,-40(fp)
 180f788:	1001703a 	wrctl	status,r2

    alt_irq_enable_all(status);
  }

  return rc; 
 180f78c:	e0bffa17 	ldw	r2,-24(fp)
}
 180f790:	e037883a 	mov	sp,fp
 180f794:	dfc00117 	ldw	ra,4(sp)
 180f798:	df000017 	ldw	fp,0(sp)
 180f79c:	dec00204 	addi	sp,sp,8
 180f7a0:	f800283a 	ret

0180f7a4 <alt_open_fd>:
 * If the device can not be succesfully opened, then the input file descriptor
 * remains unchanged.
 */

static void alt_open_fd(alt_fd* fd, const char* name, int flags, int mode)
{
 180f7a4:	defff904 	addi	sp,sp,-28
 180f7a8:	dfc00615 	stw	ra,24(sp)
 180f7ac:	df000515 	stw	fp,20(sp)
 180f7b0:	df000504 	addi	fp,sp,20
 180f7b4:	e13ffc15 	stw	r4,-16(fp)
 180f7b8:	e17ffd15 	stw	r5,-12(fp)
 180f7bc:	e1bffe15 	stw	r6,-8(fp)
 180f7c0:	e1ffff15 	stw	r7,-4(fp)
  int old;

  old = open (name, flags, mode);
 180f7c4:	e13ffd17 	ldw	r4,-12(fp)
 180f7c8:	e17ffe17 	ldw	r5,-8(fp)
 180f7cc:	e1bfff17 	ldw	r6,-4(fp)
 180f7d0:	180f9bc0 	call	180f9bc <open>
 180f7d4:	e0bffb15 	stw	r2,-20(fp)

  if (old >= 0)
 180f7d8:	e0bffb17 	ldw	r2,-20(fp)
 180f7dc:	1004803a 	cmplt	r2,r2,zero
 180f7e0:	10001c1e 	bne	r2,zero,180f854 <alt_open_fd+0xb0>
  {
    fd->dev      = alt_fd_list[old].dev;
 180f7e4:	e0bffb17 	ldw	r2,-20(fp)
 180f7e8:	00c06074 	movhi	r3,385
 180f7ec:	18c71004 	addi	r3,r3,7232
 180f7f0:	10800324 	muli	r2,r2,12
 180f7f4:	10c5883a 	add	r2,r2,r3
 180f7f8:	10c00017 	ldw	r3,0(r2)
 180f7fc:	e0bffc17 	ldw	r2,-16(fp)
 180f800:	10c00015 	stw	r3,0(r2)
    fd->priv     = alt_fd_list[old].priv;
 180f804:	e0bffb17 	ldw	r2,-20(fp)
 180f808:	00c06074 	movhi	r3,385
 180f80c:	18c71004 	addi	r3,r3,7232
 180f810:	10800324 	muli	r2,r2,12
 180f814:	10c5883a 	add	r2,r2,r3
 180f818:	10800104 	addi	r2,r2,4
 180f81c:	10c00017 	ldw	r3,0(r2)
 180f820:	e0bffc17 	ldw	r2,-16(fp)
 180f824:	10c00115 	stw	r3,4(r2)
    fd->fd_flags = alt_fd_list[old].fd_flags;
 180f828:	e0bffb17 	ldw	r2,-20(fp)
 180f82c:	00c06074 	movhi	r3,385
 180f830:	18c71004 	addi	r3,r3,7232
 180f834:	10800324 	muli	r2,r2,12
 180f838:	10c5883a 	add	r2,r2,r3
 180f83c:	10800204 	addi	r2,r2,8
 180f840:	10c00017 	ldw	r3,0(r2)
 180f844:	e0bffc17 	ldw	r2,-16(fp)
 180f848:	10c00215 	stw	r3,8(r2)

    alt_release_fd (old);
 180f84c:	e13ffb17 	ldw	r4,-20(fp)
 180f850:	180a9ac0 	call	180a9ac <alt_release_fd>
  }
} 
 180f854:	e037883a 	mov	sp,fp
 180f858:	dfc00117 	ldw	ra,4(sp)
 180f85c:	df000017 	ldw	fp,0(sp)
 180f860:	dec00204 	addi	sp,sp,8
 180f864:	f800283a 	ret

0180f868 <alt_io_redirect>:
 */
 
void alt_io_redirect(const char* stdout_dev, 
                     const char* stdin_dev, 
                     const char* stderr_dev)
{
 180f868:	defffb04 	addi	sp,sp,-20
 180f86c:	dfc00415 	stw	ra,16(sp)
 180f870:	df000315 	stw	fp,12(sp)
 180f874:	df000304 	addi	fp,sp,12
 180f878:	e13ffd15 	stw	r4,-12(fp)
 180f87c:	e17ffe15 	stw	r5,-8(fp)
 180f880:	e1bfff15 	stw	r6,-4(fp)
  /* Redirect the channels */

  alt_open_fd (&alt_fd_list[STDOUT_FILENO], stdout_dev, O_WRONLY, 0777);
 180f884:	01006074 	movhi	r4,385
 180f888:	21071304 	addi	r4,r4,7244
 180f88c:	e17ffd17 	ldw	r5,-12(fp)
 180f890:	01800044 	movi	r6,1
 180f894:	01c07fc4 	movi	r7,511
 180f898:	180f7a40 	call	180f7a4 <alt_open_fd>
  alt_open_fd (&alt_fd_list[STDIN_FILENO], stdin_dev, O_RDONLY, 0777);
 180f89c:	01006074 	movhi	r4,385
 180f8a0:	21071004 	addi	r4,r4,7232
 180f8a4:	e17ffe17 	ldw	r5,-8(fp)
 180f8a8:	000d883a 	mov	r6,zero
 180f8ac:	01c07fc4 	movi	r7,511
 180f8b0:	180f7a40 	call	180f7a4 <alt_open_fd>
  alt_open_fd (&alt_fd_list[STDERR_FILENO], stderr_dev, O_WRONLY, 0777);
 180f8b4:	01006074 	movhi	r4,385
 180f8b8:	21071604 	addi	r4,r4,7256
 180f8bc:	e17fff17 	ldw	r5,-4(fp)
 180f8c0:	01800044 	movi	r6,1
 180f8c4:	01c07fc4 	movi	r7,511
 180f8c8:	180f7a40 	call	180f7a4 <alt_open_fd>
}  
 180f8cc:	e037883a 	mov	sp,fp
 180f8d0:	dfc00117 	ldw	ra,4(sp)
 180f8d4:	df000017 	ldw	fp,0(sp)
 180f8d8:	dec00204 	addi	sp,sp,8
 180f8dc:	f800283a 	ret

0180f8e0 <alt_file_locked>:
 * performed for devices. Filesystems are required to handle the ioctl() call
 * themselves, and report the error from the filesystems open() function. 
 */ 

static int alt_file_locked (alt_fd* fd)
{
 180f8e0:	defffc04 	addi	sp,sp,-16
 180f8e4:	df000315 	stw	fp,12(sp)
 180f8e8:	df000304 	addi	fp,sp,12
 180f8ec:	e13ffe15 	stw	r4,-8(fp)

  /*
   * Mark the file descriptor as belonging to a device.
   */

  fd->fd_flags |= ALT_FD_DEV;
 180f8f0:	e0bffe17 	ldw	r2,-8(fp)
 180f8f4:	10800217 	ldw	r2,8(r2)
 180f8f8:	10d00034 	orhi	r3,r2,16384
 180f8fc:	e0bffe17 	ldw	r2,-8(fp)
 180f900:	10c00215 	stw	r3,8(r2)
  /*
   * Loop through all current file descriptors searching for one that's locked
   * for exclusive access. If a match is found, generate an error.
   */

  for (i = 0; i <= alt_max_fd; i++)
 180f904:	e03ffd15 	stw	zero,-12(fp)
 180f908:	00002006 	br	180f98c <alt_file_locked+0xac>
  {
    if ((alt_fd_list[i].dev == fd->dev) &&
 180f90c:	e0bffd17 	ldw	r2,-12(fp)
 180f910:	00c06074 	movhi	r3,385
 180f914:	18c71004 	addi	r3,r3,7232
 180f918:	10800324 	muli	r2,r2,12
 180f91c:	10c5883a 	add	r2,r2,r3
 180f920:	10c00017 	ldw	r3,0(r2)
 180f924:	e0bffe17 	ldw	r2,-8(fp)
 180f928:	10800017 	ldw	r2,0(r2)
 180f92c:	1880141e 	bne	r3,r2,180f980 <alt_file_locked+0xa0>
 180f930:	e0bffd17 	ldw	r2,-12(fp)
 180f934:	00c06074 	movhi	r3,385
 180f938:	18c71004 	addi	r3,r3,7232
 180f93c:	10800324 	muli	r2,r2,12
 180f940:	10c5883a 	add	r2,r2,r3
 180f944:	10800204 	addi	r2,r2,8
 180f948:	10800017 	ldw	r2,0(r2)
 180f94c:	1004403a 	cmpge	r2,r2,zero
 180f950:	10000b1e 	bne	r2,zero,180f980 <alt_file_locked+0xa0>
 180f954:	e0bffd17 	ldw	r2,-12(fp)
 180f958:	10800324 	muli	r2,r2,12
 180f95c:	1007883a 	mov	r3,r2
 180f960:	00806074 	movhi	r2,385
 180f964:	10871004 	addi	r2,r2,7232
 180f968:	1887883a 	add	r3,r3,r2
 180f96c:	e0bffe17 	ldw	r2,-8(fp)
 180f970:	18800326 	beq	r3,r2,180f980 <alt_file_locked+0xa0>
        (alt_fd_list[i].fd_flags & ALT_FD_EXCL) &&
        (&alt_fd_list[i] != fd))
    {
      return -EACCES;
 180f974:	00bffcc4 	movi	r2,-13
 180f978:	e0bfff15 	stw	r2,-4(fp)
 180f97c:	00000a06 	br	180f9a8 <alt_file_locked+0xc8>
  /*
   * Loop through all current file descriptors searching for one that's locked
   * for exclusive access. If a match is found, generate an error.
   */

  for (i = 0; i <= alt_max_fd; i++)
 180f980:	e0bffd17 	ldw	r2,-12(fp)
 180f984:	10800044 	addi	r2,r2,1
 180f988:	e0bffd15 	stw	r2,-12(fp)
 180f98c:	00806074 	movhi	r2,385
 180f990:	108c4104 	addi	r2,r2,12548
 180f994:	10800017 	ldw	r2,0(r2)
 180f998:	1007883a 	mov	r3,r2
 180f99c:	e0bffd17 	ldw	r2,-12(fp)
 180f9a0:	18bfda2e 	bgeu	r3,r2,180f90c <alt_file_locked+0x2c>
    }
  }
  
  /* The device is not locked */
 
  return 0;
 180f9a4:	e03fff15 	stw	zero,-4(fp)
 180f9a8:	e0bfff17 	ldw	r2,-4(fp)
}
 180f9ac:	e037883a 	mov	sp,fp
 180f9b0:	df000017 	ldw	fp,0(sp)
 180f9b4:	dec00104 	addi	sp,sp,4
 180f9b8:	f800283a 	ret

0180f9bc <open>:
 *
 * ALT_OPEN is mapped onto the open() system call in alt_syscall.h
 */
 
int ALT_OPEN (const char* file, int flags, int mode)
{ 
 180f9bc:	defff404 	addi	sp,sp,-48
 180f9c0:	dfc00b15 	stw	ra,44(sp)
 180f9c4:	df000a15 	stw	fp,40(sp)
 180f9c8:	df000a04 	addi	fp,sp,40
 180f9cc:	e13ffb15 	stw	r4,-20(fp)
 180f9d0:	e17ffc15 	stw	r5,-16(fp)
 180f9d4:	e1bffd15 	stw	r6,-12(fp)
  alt_dev* dev;
  alt_fd*  fd;
  int index  = -1;
 180f9d8:	00bfffc4 	movi	r2,-1
 180f9dc:	e0bff815 	stw	r2,-32(fp)
  int status = -ENODEV;
 180f9e0:	00bffb44 	movi	r2,-19
 180f9e4:	e0bff715 	stw	r2,-36(fp)
  int isafs = 0;
 180f9e8:	e03ff615 	stw	zero,-40(fp)
  /* 
   * Check the device list, to see if a device with a matching name is 
   * registered.
   */
  
  if (!(dev = alt_find_dev (file, &alt_dev_list)))
 180f9ec:	e13ffb17 	ldw	r4,-20(fp)
 180f9f0:	01406074 	movhi	r5,385
 180f9f4:	294c3f04 	addi	r5,r5,12540
 180f9f8:	18106280 	call	1810628 <alt_find_dev>
 180f9fc:	e0bffa15 	stw	r2,-24(fp)
 180fa00:	e0bffa17 	ldw	r2,-24(fp)
 180fa04:	1004c03a 	cmpne	r2,r2,zero
 180fa08:	1000051e 	bne	r2,zero,180fa20 <open+0x64>
  {
    /* No matching device, so try the filesystem list */

    dev   = alt_find_file (file);
 180fa0c:	e13ffb17 	ldw	r4,-20(fp)
 180fa10:	18106bc0 	call	18106bc <alt_find_file>
 180fa14:	e0bffa15 	stw	r2,-24(fp)
    isafs = 1;
 180fa18:	00800044 	movi	r2,1
 180fa1c:	e0bff615 	stw	r2,-40(fp)

  /* 
   * If a matching device or filesystem is found, allocate a file descriptor. 
   */

  if (dev)
 180fa20:	e0bffa17 	ldw	r2,-24(fp)
 180fa24:	1005003a 	cmpeq	r2,r2,zero
 180fa28:	1000301e 	bne	r2,zero,180faec <open+0x130>
  {
    if ((index = alt_get_fd (dev)) < 0)
 180fa2c:	e13ffa17 	ldw	r4,-24(fp)
 180fa30:	18107dc0 	call	18107dc <alt_get_fd>
 180fa34:	e0bff815 	stw	r2,-32(fp)
 180fa38:	e0bff817 	ldw	r2,-32(fp)
 180fa3c:	1004403a 	cmpge	r2,r2,zero
 180fa40:	1000031e 	bne	r2,zero,180fa50 <open+0x94>
    {
      status = index;
 180fa44:	e0bff817 	ldw	r2,-32(fp)
 180fa48:	e0bff715 	stw	r2,-36(fp)
 180fa4c:	00002906 	br	180faf4 <open+0x138>
    }
    else
    {
      fd = &alt_fd_list[index];
 180fa50:	e0bff817 	ldw	r2,-32(fp)
 180fa54:	10800324 	muli	r2,r2,12
 180fa58:	1007883a 	mov	r3,r2
 180fa5c:	00806074 	movhi	r2,385
 180fa60:	10871004 	addi	r2,r2,7232
 180fa64:	1885883a 	add	r2,r3,r2
 180fa68:	e0bff915 	stw	r2,-28(fp)
      fd->fd_flags = (flags & ~ALT_FD_FLAGS_MASK);
 180fa6c:	e0fffc17 	ldw	r3,-16(fp)
 180fa70:	00900034 	movhi	r2,16384
 180fa74:	10bfffc4 	addi	r2,r2,-1
 180fa78:	1886703a 	and	r3,r3,r2
 180fa7c:	e0bff917 	ldw	r2,-28(fp)
 180fa80:	10c00215 	stw	r3,8(r2)
      
      /* If this is a device, ensure it isn't already locked */

      if (isafs || ((status = alt_file_locked (fd)) >= 0))
 180fa84:	e0bff617 	ldw	r2,-40(fp)
 180fa88:	1004c03a 	cmpne	r2,r2,zero
 180fa8c:	1000061e 	bne	r2,zero,180faa8 <open+0xec>
 180fa90:	e13ff917 	ldw	r4,-28(fp)
 180fa94:	180f8e00 	call	180f8e0 <alt_file_locked>
 180fa98:	e0bff715 	stw	r2,-36(fp)
 180fa9c:	e0bff717 	ldw	r2,-36(fp)
 180faa0:	1004803a 	cmplt	r2,r2,zero
 180faa4:	1000131e 	bne	r2,zero,180faf4 <open+0x138>
        /* 
         * If the device or filesystem provides an open() callback function,
         * call it now to perform any device/filesystem specific operations.
         */
    
        status = (dev->open) ? dev->open(fd, file, flags, mode): 0;
 180faa8:	e0bffa17 	ldw	r2,-24(fp)
 180faac:	10800317 	ldw	r2,12(r2)
 180fab0:	1005003a 	cmpeq	r2,r2,zero
 180fab4:	1000091e 	bne	r2,zero,180fadc <open+0x120>
 180fab8:	e0bffa17 	ldw	r2,-24(fp)
 180fabc:	10800317 	ldw	r2,12(r2)
 180fac0:	e13ff917 	ldw	r4,-28(fp)
 180fac4:	e17ffb17 	ldw	r5,-20(fp)
 180fac8:	e1bffc17 	ldw	r6,-16(fp)
 180facc:	e1fffd17 	ldw	r7,-12(fp)
 180fad0:	103ee83a 	callr	r2
 180fad4:	e0bfff15 	stw	r2,-4(fp)
 180fad8:	00000106 	br	180fae0 <open+0x124>
 180fadc:	e03fff15 	stw	zero,-4(fp)
 180fae0:	e0bfff17 	ldw	r2,-4(fp)
 180fae4:	e0bff715 	stw	r2,-36(fp)
 180fae8:	00000206 	br	180faf4 <open+0x138>
      }
    }
  }
  else
  {
    status = -ENODEV;
 180faec:	00bffb44 	movi	r2,-19
 180faf0:	e0bff715 	stw	r2,-36(fp)
  }

  /* Allocation failed, so clean up and return an error */ 

  if (status < 0)
 180faf4:	e0bff717 	ldw	r2,-36(fp)
 180faf8:	1004403a 	cmpge	r2,r2,zero
 180fafc:	1000091e 	bne	r2,zero,180fb24 <open+0x168>
  {
    alt_release_fd (index);  
 180fb00:	e13ff817 	ldw	r4,-32(fp)
 180fb04:	180a9ac0 	call	180a9ac <alt_release_fd>
    ALT_ERRNO = -status;
 180fb08:	180fb440 	call	180fb44 <alt_get_errno>
 180fb0c:	e0fff717 	ldw	r3,-36(fp)
 180fb10:	00c7c83a 	sub	r3,zero,r3
 180fb14:	10c00015 	stw	r3,0(r2)
    return -1;
 180fb18:	00bfffc4 	movi	r2,-1
 180fb1c:	e0bffe15 	stw	r2,-8(fp)
 180fb20:	00000206 	br	180fb2c <open+0x170>
  }
  
  /* return the reference upon success */

  return index;
 180fb24:	e0bff817 	ldw	r2,-32(fp)
 180fb28:	e0bffe15 	stw	r2,-8(fp)
 180fb2c:	e0bffe17 	ldw	r2,-8(fp)
}
 180fb30:	e037883a 	mov	sp,fp
 180fb34:	dfc00117 	ldw	ra,4(sp)
 180fb38:	df000017 	ldw	fp,0(sp)
 180fb3c:	dec00204 	addi	sp,sp,8
 180fb40:	f800283a 	ret

0180fb44 <alt_get_errno>:
#undef errno

extern int errno;

static ALT_INLINE int* alt_get_errno(void)
{
 180fb44:	defffd04 	addi	sp,sp,-12
 180fb48:	dfc00215 	stw	ra,8(sp)
 180fb4c:	df000115 	stw	fp,4(sp)
 180fb50:	df000104 	addi	fp,sp,4
  return ((alt_errno) ? alt_errno() : &errno);
 180fb54:	00806074 	movhi	r2,385
 180fb58:	108c4204 	addi	r2,r2,12552
 180fb5c:	10800017 	ldw	r2,0(r2)
 180fb60:	1005003a 	cmpeq	r2,r2,zero
 180fb64:	1000061e 	bne	r2,zero,180fb80 <alt_get_errno+0x3c>
 180fb68:	00806074 	movhi	r2,385
 180fb6c:	108c4204 	addi	r2,r2,12552
 180fb70:	10800017 	ldw	r2,0(r2)
 180fb74:	103ee83a 	callr	r2
 180fb78:	e0bfff15 	stw	r2,-4(fp)
 180fb7c:	00000306 	br	180fb8c <alt_get_errno+0x48>
 180fb80:	00806074 	movhi	r2,385
 180fb84:	108c5104 	addi	r2,r2,12612
 180fb88:	e0bfff15 	stw	r2,-4(fp)
 180fb8c:	e0bfff17 	ldw	r2,-4(fp)
}
 180fb90:	e037883a 	mov	sp,fp
 180fb94:	dfc00117 	ldw	ra,4(sp)
 180fb98:	df000017 	ldw	fp,0(sp)
 180fb9c:	dec00204 	addi	sp,sp,8
 180fba0:	f800283a 	ret

0180fba4 <alt_alarm_stop>:
 * alarms. Alternatively an alarm can unregister itself by returning zero when 
 * the alarm executes.
 */

void alt_alarm_stop (alt_alarm* alarm)
{
 180fba4:	defffa04 	addi	sp,sp,-24
 180fba8:	df000515 	stw	fp,20(sp)
 180fbac:	df000504 	addi	fp,sp,20
 180fbb0:	e13fff15 	stw	r4,-4(fp)
static ALT_INLINE alt_irq_context ALT_ALWAYS_INLINE 
       alt_irq_disable_all (void)
{
  alt_irq_context context;

  NIOS2_READ_STATUS (context);
 180fbb4:	0005303a 	rdctl	r2,status
 180fbb8:	e0bffd15 	stw	r2,-12(fp)

  NIOS2_WRITE_STATUS (context & ~NIOS2_STATUS_PIE_MSK);
 180fbbc:	e0fffd17 	ldw	r3,-12(fp)
 180fbc0:	00bfff84 	movi	r2,-2
 180fbc4:	1884703a 	and	r2,r3,r2
 180fbc8:	1001703a 	wrctl	status,r2
  
  return context;
 180fbcc:	e0bffd17 	ldw	r2,-12(fp)
  alt_irq_context irq_context;

  irq_context = alt_irq_disable_all();
 180fbd0:	e0bffe15 	stw	r2,-8(fp)
  alt_llist_remove (&alarm->llist);
 180fbd4:	e0bfff17 	ldw	r2,-4(fp)
 180fbd8:	e0bffc15 	stw	r2,-16(fp)
 * input argument is the element to remove.
 */
     
static ALT_INLINE void ALT_ALWAYS_INLINE alt_llist_remove(alt_llist* entry)
{
  entry->next->previous = entry->previous;
 180fbdc:	e0bffc17 	ldw	r2,-16(fp)
 180fbe0:	10c00017 	ldw	r3,0(r2)
 180fbe4:	e0bffc17 	ldw	r2,-16(fp)
 180fbe8:	10800117 	ldw	r2,4(r2)
 180fbec:	18800115 	stw	r2,4(r3)
  entry->previous->next = entry->next;
 180fbf0:	e0bffc17 	ldw	r2,-16(fp)
 180fbf4:	10c00117 	ldw	r3,4(r2)
 180fbf8:	e0bffc17 	ldw	r2,-16(fp)
 180fbfc:	10800017 	ldw	r2,0(r2)
 180fc00:	18800015 	stw	r2,0(r3)
  /* 
   * Set the entry to point to itself, so that any further calls to
   * alt_llist_remove() are harmless.
   */

  entry->previous = entry;
 180fc04:	e0fffc17 	ldw	r3,-16(fp)
 180fc08:	e0bffc17 	ldw	r2,-16(fp)
 180fc0c:	18800115 	stw	r2,4(r3)
  entry->next     = entry;
 180fc10:	e0fffc17 	ldw	r3,-16(fp)
 180fc14:	e0bffc17 	ldw	r2,-16(fp)
 180fc18:	18800015 	stw	r2,0(r3)
 180fc1c:	e0bffe17 	ldw	r2,-8(fp)
 180fc20:	e0bffb15 	stw	r2,-20(fp)
  status &= ~NIOS2_STATUS_PIE_MSK;
  status |= (context & NIOS2_STATUS_PIE_MSK);
  
  NIOS2_WRITE_STATUS (status);
#else
  NIOS2_WRITE_STATUS (context);
 180fc24:	e0bffb17 	ldw	r2,-20(fp)
 180fc28:	1001703a 	wrctl	status,r2
  alt_irq_enable_all (irq_context);
}
 180fc2c:	e037883a 	mov	sp,fp
 180fc30:	df000017 	ldw	fp,0(sp)
 180fc34:	dec00104 	addi	sp,sp,4
 180fc38:	f800283a 	ret

0180fc3c <alt_tick>:
 * 
 * alt_tick() is expected to run at interrupt level.
 */

void alt_tick (void)
{
 180fc3c:	defffb04 	addi	sp,sp,-20
 180fc40:	dfc00415 	stw	ra,16(sp)
 180fc44:	df000315 	stw	fp,12(sp)
 180fc48:	df000304 	addi	fp,sp,12
  alt_alarm* next;
  alt_alarm* alarm = (alt_alarm*) alt_alarm_list.next;
 180fc4c:	d0a01117 	ldw	r2,-32700(gp)
 180fc50:	e0bffe15 	stw	r2,-8(fp)

  alt_u32    next_callback;

  /* update the tick counter */

  _alt_nticks++;
 180fc54:	d0a02017 	ldw	r2,-32640(gp)
 180fc58:	10800044 	addi	r2,r2,1
 180fc5c:	d0a02015 	stw	r2,-32640(gp)

  /* process the registered callbacks */

  while (alarm != (alt_alarm*) &alt_alarm_list)
 180fc60:	00003106 	br	180fd28 <alt_tick+0xec>
  {
    next = (alt_alarm*) alarm->llist.next;
 180fc64:	e0bffe17 	ldw	r2,-8(fp)
 180fc68:	10800017 	ldw	r2,0(r2)
 180fc6c:	e0bfff15 	stw	r2,-4(fp)
    /* 
     * Upon the tick-counter rolling over it is safe to clear the 
     * roll-over flag; once the flag is cleared this (or subsequnt)
     * tick events are enabled to generate an alarm event. 
     */
    if ((alarm->rollover) && (_alt_nticks == 0))
 180fc70:	e0bffe17 	ldw	r2,-8(fp)
 180fc74:	10800403 	ldbu	r2,16(r2)
 180fc78:	10803fcc 	andi	r2,r2,255
 180fc7c:	1005003a 	cmpeq	r2,r2,zero
 180fc80:	1000051e 	bne	r2,zero,180fc98 <alt_tick+0x5c>
 180fc84:	d0a02017 	ldw	r2,-32640(gp)
 180fc88:	1004c03a 	cmpne	r2,r2,zero
 180fc8c:	1000021e 	bne	r2,zero,180fc98 <alt_tick+0x5c>
    {
      alarm->rollover = 0;
 180fc90:	e0bffe17 	ldw	r2,-8(fp)
 180fc94:	10000405 	stb	zero,16(r2)
    }
    
    /* if the alarm period has expired, make the callback */    
    if ((alarm->time <= _alt_nticks) && (alarm->rollover == 0))
 180fc98:	e0bffe17 	ldw	r2,-8(fp)
 180fc9c:	10c00217 	ldw	r3,8(r2)
 180fca0:	d0a02017 	ldw	r2,-32640(gp)
 180fca4:	10c01e36 	bltu	r2,r3,180fd20 <alt_tick+0xe4>
 180fca8:	e0bffe17 	ldw	r2,-8(fp)
 180fcac:	10800403 	ldbu	r2,16(r2)
 180fcb0:	10803fcc 	andi	r2,r2,255
 180fcb4:	1004c03a 	cmpne	r2,r2,zero
 180fcb8:	1000191e 	bne	r2,zero,180fd20 <alt_tick+0xe4>
    {
      next_callback = alarm->callback (alarm->context);
 180fcbc:	e0bffe17 	ldw	r2,-8(fp)
 180fcc0:	10c00317 	ldw	r3,12(r2)
 180fcc4:	e0bffe17 	ldw	r2,-8(fp)
 180fcc8:	11000517 	ldw	r4,20(r2)
 180fccc:	183ee83a 	callr	r3
 180fcd0:	e0bffd15 	stw	r2,-12(fp)

      /* deactivate the alarm if the return value is zero */

      if (next_callback == 0)
 180fcd4:	e0bffd17 	ldw	r2,-12(fp)
 180fcd8:	1004c03a 	cmpne	r2,r2,zero
 180fcdc:	1000031e 	bne	r2,zero,180fcec <alt_tick+0xb0>
      {
        alt_alarm_stop (alarm);
 180fce0:	e13ffe17 	ldw	r4,-8(fp)
 180fce4:	180fba40 	call	180fba4 <alt_alarm_stop>
 180fce8:	00000d06 	br	180fd20 <alt_tick+0xe4>
      }
      else
      {
        alarm->time += next_callback;
 180fcec:	e0bffe17 	ldw	r2,-8(fp)
 180fcf0:	10c00217 	ldw	r3,8(r2)
 180fcf4:	e0bffd17 	ldw	r2,-12(fp)
 180fcf8:	1887883a 	add	r3,r3,r2
 180fcfc:	e0bffe17 	ldw	r2,-8(fp)
 180fd00:	10c00215 	stw	r3,8(r2)
        /* 
         * If the desired alarm time causes a roll-over, set the rollover
         * flag. This will prevent the subsequent tick event from causing
         * an alarm too early.
         */
        if(alarm->time < _alt_nticks)
 180fd04:	e0bffe17 	ldw	r2,-8(fp)
 180fd08:	10c00217 	ldw	r3,8(r2)
 180fd0c:	d0a02017 	ldw	r2,-32640(gp)
 180fd10:	1880032e 	bgeu	r3,r2,180fd20 <alt_tick+0xe4>
        {
          alarm->rollover = 1;
 180fd14:	e0fffe17 	ldw	r3,-8(fp)
 180fd18:	00800044 	movi	r2,1
 180fd1c:	18800405 	stb	r2,16(r3)
        }
      }
    }
    alarm = next;
 180fd20:	e0bfff17 	ldw	r2,-4(fp)
 180fd24:	e0bffe15 	stw	r2,-8(fp)

  _alt_nticks++;

  /* process the registered callbacks */

  while (alarm != (alt_alarm*) &alt_alarm_list)
 180fd28:	d0e01104 	addi	r3,gp,-32700
 180fd2c:	e0bffe17 	ldw	r2,-8(fp)
 180fd30:	10ffcc1e 	bne	r2,r3,180fc64 <alt_tick+0x28>
  /* 
   * Update the operating system specific timer facilities.
   */

  ALT_OS_TIME_TICK();
}
 180fd34:	e037883a 	mov	sp,fp
 180fd38:	dfc00117 	ldw	ra,4(sp)
 180fd3c:	df000017 	ldw	fp,0(sp)
 180fd40:	dec00204 	addi	sp,sp,8
 180fd44:	f800283a 	ret

0180fd48 <altera_nios2_irq_init>:
/*
 * To initialize the internal interrupt controller, just clear the IENABLE
 * register so that all possible IRQs are disabled.
 */
void altera_nios2_irq_init(void) 
{
 180fd48:	deffff04 	addi	sp,sp,-4
 180fd4c:	df000015 	stw	fp,0(sp)
 180fd50:	d839883a 	mov	fp,sp
    NIOS2_WRITE_IENABLE(0);
 180fd54:	000170fa 	wrctl	ienable,zero
}
 180fd58:	e037883a 	mov	sp,fp
 180fd5c:	df000017 	ldw	fp,0(sp)
 180fd60:	dec00104 	addi	sp,sp,4
 180fd64:	f800283a 	ret

0180fd68 <alt_program_amd>:
 * then writes Addr, Data Addr, Data etc.
 */
int alt_program_amd(alt_flash_dev* flash_info, int block_offset, 
                int offset, const void* src_addr, 
                int length)
{
 180fd68:	defff704 	addi	sp,sp,-36
 180fd6c:	dfc00815 	stw	ra,32(sp)
 180fd70:	df000715 	stw	fp,28(sp)
 180fd74:	df000704 	addi	fp,sp,28
 180fd78:	e13ffc15 	stw	r4,-16(fp)
 180fd7c:	e17ffd15 	stw	r5,-12(fp)
 180fd80:	e1bffe15 	stw	r6,-8(fp)
 180fd84:	e1ffff15 	stw	r7,-4(fp)
  int ret_code = 0;
 180fd88:	e03ffb15 	stw	zero,-20(fp)
  alt_flash_cfi_dev* flash = (alt_flash_cfi_dev*)flash_info;
 180fd8c:	e0bffc17 	ldw	r2,-16(fp)
 180fd90:	e0bffa15 	stw	r2,-24(fp)
  
  
  ret_code = alt_flash_program_block( flash, offset, src_addr, length, 
 180fd94:	e1bfff17 	ldw	r6,-4(fp)
 180fd98:	00806074 	movhi	r2,385
 180fd9c:	10804304 	addi	r2,r2,268
 180fda0:	d8800015 	stw	r2,0(sp)
 180fda4:	e13ffa17 	ldw	r4,-24(fp)
 180fda8:	e17ffe17 	ldw	r5,-8(fp)
 180fdac:	e1c00217 	ldw	r7,8(fp)
 180fdb0:	180b3700 	call	180b370 <alt_flash_program_block>
 180fdb4:	e0bffb15 	stw	r2,-20(fp)
                                    alt_write_word_amd);
  return ret_code;
 180fdb8:	e0bffb17 	ldw	r2,-20(fp)
}
 180fdbc:	e037883a 	mov	sp,fp
 180fdc0:	dfc00117 	ldw	ra,4(sp)
 180fdc4:	df000017 	ldw	fp,0(sp)
 180fdc8:	dec00204 	addi	sp,sp,8
 180fdcc:	f800283a 	ret

0180fdd0 <alt_erase_block_amd>:
 * alt_erase_block_amd
 * 
 * Erase the selected erase block
 */
int alt_erase_block_amd(alt_flash_dev* flash_info, int block_offset)
{
 180fdd0:	defff804 	addi	sp,sp,-32
 180fdd4:	dfc00715 	stw	ra,28(sp)
 180fdd8:	df000615 	stw	fp,24(sp)
 180fddc:	df000604 	addi	fp,sp,24
 180fde0:	e13ffe15 	stw	r4,-8(fp)
 180fde4:	e17fff15 	stw	r5,-4(fp)
  int   ret_code = 0;
 180fde8:	e03ffc15 	stw	zero,-16(fp)
  int   timeout;
  alt_flash_cfi_dev* flash = (alt_flash_cfi_dev*)flash_info;
 180fdec:	e0bffe17 	ldw	r2,-8(fp)
 180fdf0:	e0bffa15 	stw	r2,-24(fp)
  volatile alt_u8  value;

  (*flash->write_command)(flash->dev.base_addr, 0x555, (alt_u8)0xAA);
 180fdf4:	e0bffa17 	ldw	r2,-24(fp)
 180fdf8:	10c03317 	ldw	r3,204(r2)
 180fdfc:	e0bffa17 	ldw	r2,-24(fp)
 180fe00:	11000a17 	ldw	r4,40(r2)
 180fe04:	01415544 	movi	r5,1365
 180fe08:	01802a84 	movi	r6,170
 180fe0c:	183ee83a 	callr	r3
  (*flash->write_command)(flash->dev.base_addr, 0x2AA, (alt_u8)0x55);
 180fe10:	e0bffa17 	ldw	r2,-24(fp)
 180fe14:	10c03317 	ldw	r3,204(r2)
 180fe18:	e0bffa17 	ldw	r2,-24(fp)
 180fe1c:	11000a17 	ldw	r4,40(r2)
 180fe20:	0140aa84 	movi	r5,682
 180fe24:	01801544 	movi	r6,85
 180fe28:	183ee83a 	callr	r3
  (*flash->write_command)(flash->dev.base_addr, 0x555, (alt_u8)0x80);
 180fe2c:	e0bffa17 	ldw	r2,-24(fp)
 180fe30:	10c03317 	ldw	r3,204(r2)
 180fe34:	e0bffa17 	ldw	r2,-24(fp)
 180fe38:	11000a17 	ldw	r4,40(r2)
 180fe3c:	01415544 	movi	r5,1365
 180fe40:	01802004 	movi	r6,128
 180fe44:	183ee83a 	callr	r3
  (*flash->write_command)(flash->dev.base_addr, 0x555, (alt_u8)0xAA);
 180fe48:	e0bffa17 	ldw	r2,-24(fp)
 180fe4c:	10c03317 	ldw	r3,204(r2)
 180fe50:	e0bffa17 	ldw	r2,-24(fp)
 180fe54:	11000a17 	ldw	r4,40(r2)
 180fe58:	01415544 	movi	r5,1365
 180fe5c:	01802a84 	movi	r6,170
 180fe60:	183ee83a 	callr	r3
  (*flash->write_command)(flash->dev.base_addr, 0x2AA, (alt_u8)0x55);
 180fe64:	e0bffa17 	ldw	r2,-24(fp)
 180fe68:	10c03317 	ldw	r3,204(r2)
 180fe6c:	e0bffa17 	ldw	r2,-24(fp)
 180fe70:	11000a17 	ldw	r4,40(r2)
 180fe74:	0140aa84 	movi	r5,682
 180fe78:	01801544 	movi	r6,85
 180fe7c:	183ee83a 	callr	r3

  (*flash->write_native)((alt_u8*)flash->dev.base_addr+block_offset, 0x30);
 180fe80:	e0bffa17 	ldw	r2,-24(fp)
 180fe84:	11803517 	ldw	r6,212(r2)
 180fe88:	e0bffa17 	ldw	r2,-24(fp)
 180fe8c:	10800a17 	ldw	r2,40(r2)
 180fe90:	1007883a 	mov	r3,r2
 180fe94:	e0bfff17 	ldw	r2,-4(fp)
 180fe98:	1889883a 	add	r4,r3,r2
 180fe9c:	01400c04 	movi	r5,48
 180fea0:	303ee83a 	callr	r6

  /*
   * Delay to meet AM29LV065D timing requirements
   */
  usleep(10000);
 180fea4:	0109c404 	movi	r4,10000
 180fea8:	180aac80 	call	180aac8 <usleep>
  
  /*
   * Bit 3 indicates that the erase command has been accepted
   * this last 50S
   */
  timeout = 50;   
 180feac:	00800c84 	movi	r2,50
 180feb0:	e0bffb15 	stw	r2,-20(fp)
  do 
  {
    value = IORD_8DIRECT((alt_u8*)flash->dev.base_addr + block_offset, 0);
 180feb4:	e0bffa17 	ldw	r2,-24(fp)
 180feb8:	10800a17 	ldw	r2,40(r2)
 180febc:	1007883a 	mov	r3,r2
 180fec0:	e0bfff17 	ldw	r2,-4(fp)
 180fec4:	1885883a 	add	r2,r3,r2
 180fec8:	10800023 	ldbuio	r2,0(r2)
 180fecc:	e0bffd05 	stb	r2,-12(fp)
    usleep(1000);
 180fed0:	0100fa04 	movi	r4,1000
 180fed4:	180aac80 	call	180aac8 <usleep>
    timeout--;
 180fed8:	e0bffb17 	ldw	r2,-20(fp)
 180fedc:	10bfffc4 	addi	r2,r2,-1
 180fee0:	e0bffb15 	stw	r2,-20(fp)
  }while(!(value & 0x8) && (timeout > 0));
 180fee4:	e0bffd03 	ldbu	r2,-12(fp)
 180fee8:	10803fcc 	andi	r2,r2,255
 180feec:	1080020c 	andi	r2,r2,8
 180fef0:	1004c03a 	cmpne	r2,r2,zero
 180fef4:	1000031e 	bne	r2,zero,180ff04 <alt_erase_block_amd+0x134>
 180fef8:	e0bffb17 	ldw	r2,-20(fp)
 180fefc:	10800048 	cmpgei	r2,r2,1
 180ff00:	103fec1e 	bne	r2,zero,180feb4 <alt_erase_block_amd+0xe4>


  timeout = flash->erase_timeout;
 180ff04:	e0bffa17 	ldw	r2,-24(fp)
 180ff08:	10803117 	ldw	r2,196(r2)
 180ff0c:	e0bffb15 	stw	r2,-20(fp)
  
  /*
   *  Bit 7 goes low until the block is erased if bit 5 goes to 
   *  1 it's an error
   */
  while (timeout > 0)
 180ff10:	00001706 	br	180ff70 <alt_erase_block_amd+0x1a0>
  {
    value = IORD_8DIRECT((alt_u8*)flash->dev.base_addr + block_offset, 0);
 180ff14:	e0bffa17 	ldw	r2,-24(fp)
 180ff18:	10800a17 	ldw	r2,40(r2)
 180ff1c:	1007883a 	mov	r3,r2
 180ff20:	e0bfff17 	ldw	r2,-4(fp)
 180ff24:	1885883a 	add	r2,r3,r2
 180ff28:	10800023 	ldbuio	r2,0(r2)
 180ff2c:	e0bffd05 	stb	r2,-12(fp)
    if ((value & 0x80) || (value &0x20))
 180ff30:	e0bffd03 	ldbu	r2,-12(fp)
 180ff34:	10803fcc 	andi	r2,r2,255
 180ff38:	1080201c 	xori	r2,r2,128
 180ff3c:	10bfe004 	addi	r2,r2,-128
 180ff40:	1004803a 	cmplt	r2,r2,zero
 180ff44:	10000d1e 	bne	r2,zero,180ff7c <alt_erase_block_amd+0x1ac>
 180ff48:	e0bffd03 	ldbu	r2,-12(fp)
 180ff4c:	10803fcc 	andi	r2,r2,255
 180ff50:	1080080c 	andi	r2,r2,32
 180ff54:	1004c03a 	cmpne	r2,r2,zero
 180ff58:	1000081e 	bne	r2,zero,180ff7c <alt_erase_block_amd+0x1ac>
    {
      break;
    }
    usleep(1000);
 180ff5c:	0100fa04 	movi	r4,1000
 180ff60:	180aac80 	call	180aac8 <usleep>
    timeout -= 1000;
 180ff64:	e0bffb17 	ldw	r2,-20(fp)
 180ff68:	10bf0604 	addi	r2,r2,-1000
 180ff6c:	e0bffb15 	stw	r2,-20(fp)
  
  /*
   *  Bit 7 goes low until the block is erased if bit 5 goes to 
   *  1 it's an error
   */
  while (timeout > 0)
 180ff70:	e0bffb17 	ldw	r2,-20(fp)
 180ff74:	10800048 	cmpgei	r2,r2,1
 180ff78:	103fe61e 	bne	r2,zero,180ff14 <alt_erase_block_amd+0x144>
    }
    usleep(1000);
    timeout -= 1000;
  }
  
  if (timeout <= 0)
 180ff7c:	e0bffb17 	ldw	r2,-20(fp)
 180ff80:	10800048 	cmpgei	r2,r2,1
 180ff84:	1000031e 	bne	r2,zero,180ff94 <alt_erase_block_amd+0x1c4>
  {
    ret_code = -ETIMEDOUT;
 180ff88:	00bfe304 	movi	r2,-116
 180ff8c:	e0bffc15 	stw	r2,-16(fp)
 180ff90:	00000f06 	br	180ffd0 <alt_erase_block_amd+0x200>
  }
  else
  {
    value = IORD_8DIRECT((alt_u8*)flash->dev.base_addr + block_offset, 0);
 180ff94:	e0bffa17 	ldw	r2,-24(fp)
 180ff98:	10800a17 	ldw	r2,40(r2)
 180ff9c:	1007883a 	mov	r3,r2
 180ffa0:	e0bfff17 	ldw	r2,-4(fp)
 180ffa4:	1885883a 	add	r2,r3,r2
 180ffa8:	10800023 	ldbuio	r2,0(r2)
 180ffac:	e0bffd05 	stb	r2,-12(fp)
    if (!(value & 0x80))
 180ffb0:	e0bffd03 	ldbu	r2,-12(fp)
 180ffb4:	10803fcc 	andi	r2,r2,255
 180ffb8:	1080201c 	xori	r2,r2,128
 180ffbc:	10bfe004 	addi	r2,r2,-128
 180ffc0:	1004803a 	cmplt	r2,r2,zero
 180ffc4:	1000021e 	bne	r2,zero,180ffd0 <alt_erase_block_amd+0x200>
    {
      ret_code = -EIO;
 180ffc8:	00bffec4 	movi	r2,-5
 180ffcc:	e0bffc15 	stw	r2,-16(fp)
    }
  }    
  
  return ret_code;
 180ffd0:	e0bffc17 	ldw	r2,-16(fp)
}
 180ffd4:	e037883a 	mov	sp,fp
 180ffd8:	dfc00117 	ldw	ra,4(sp)
 180ffdc:	df000017 	ldw	fp,0(sp)
 180ffe0:	dec00204 	addi	sp,sp,8
 180ffe4:	f800283a 	ret

0180ffe8 <alt_wait_for_command_to_complete_amd>:
 */
 
int alt_wait_for_command_to_complete_amd(alt_flash_cfi_dev* flash,
                                         int offset, 
                                          alt_u8 data)
{
 180ffe8:	defff804 	addi	sp,sp,-32
 180ffec:	dfc00715 	stw	ra,28(sp)
 180fff0:	df000615 	stw	fp,24(sp)
 180fff4:	df000604 	addi	fp,sp,24
 180fff8:	e13ffd15 	stw	r4,-12(fp)
 180fffc:	e17ffe15 	stw	r5,-8(fp)
 1810000:	e1bfff05 	stb	r6,-4(fp)
  volatile alt_u8  value;
  int timeout = flash->write_timeout * 100;
 1810004:	e0bffd17 	ldw	r2,-12(fp)
 1810008:	10803017 	ldw	r2,192(r2)
 181000c:	10801924 	muli	r2,r2,100
 1810010:	e0bffb15 	stw	r2,-20(fp)
  int ret_code = 0;
 1810014:	e03ffa15 	stw	zero,-24(fp)
  
  value = IORD_8DIRECT(flash->dev.base_addr, offset);
 1810018:	e0bffd17 	ldw	r2,-12(fp)
 181001c:	10800a17 	ldw	r2,40(r2)
 1810020:	1007883a 	mov	r3,r2
 1810024:	e0bffe17 	ldw	r2,-8(fp)
 1810028:	1885883a 	add	r2,r3,r2
 181002c:	10800023 	ldbuio	r2,0(r2)
 1810030:	e0bffc05 	stb	r2,-16(fp)
  while (timeout > 0)
 1810034:	00001706 	br	1810094 <alt_wait_for_command_to_complete_amd+0xac>
  {
    if (((value & 0x80 ) == (data &0x80)) ||
 1810038:	e0bffc03 	ldbu	r2,-16(fp)
 181003c:	10803fcc 	andi	r2,r2,255
 1810040:	10c0200c 	andi	r3,r2,128
 1810044:	e0bfff03 	ldbu	r2,-4(fp)
 1810048:	1080200c 	andi	r2,r2,128
 181004c:	18801426 	beq	r3,r2,18100a0 <alt_wait_for_command_to_complete_amd+0xb8>
 1810050:	e0bffc03 	ldbu	r2,-16(fp)
 1810054:	10803fcc 	andi	r2,r2,255
 1810058:	1080080c 	andi	r2,r2,32
 181005c:	1004c03a 	cmpne	r2,r2,zero
 1810060:	10000f1e 	bne	r2,zero,18100a0 <alt_wait_for_command_to_complete_amd+0xb8>
        (value & 0x20))
    {
      break;
    }
    usleep (1);
 1810064:	01000044 	movi	r4,1
 1810068:	180aac80 	call	180aac8 <usleep>
    timeout--;
 181006c:	e0bffb17 	ldw	r2,-20(fp)
 1810070:	10bfffc4 	addi	r2,r2,-1
 1810074:	e0bffb15 	stw	r2,-20(fp)
    value = IORD_8DIRECT(flash->dev.base_addr, offset);
 1810078:	e0bffd17 	ldw	r2,-12(fp)
 181007c:	10800a17 	ldw	r2,40(r2)
 1810080:	1007883a 	mov	r3,r2
 1810084:	e0bffe17 	ldw	r2,-8(fp)
 1810088:	1885883a 	add	r2,r3,r2
 181008c:	10800023 	ldbuio	r2,0(r2)
 1810090:	e0bffc05 	stb	r2,-16(fp)
  volatile alt_u8  value;
  int timeout = flash->write_timeout * 100;
  int ret_code = 0;
  
  value = IORD_8DIRECT(flash->dev.base_addr, offset);
  while (timeout > 0)
 1810094:	e0bffb17 	ldw	r2,-20(fp)
 1810098:	10800048 	cmpgei	r2,r2,1
 181009c:	103fe61e 	bne	r2,zero,1810038 <alt_wait_for_command_to_complete_amd+0x50>
    usleep (1);
    timeout--;
    value = IORD_8DIRECT(flash->dev.base_addr, offset);
  }
  
  if (timeout == 0)
 18100a0:	e0bffb17 	ldw	r2,-20(fp)
 18100a4:	1004c03a 	cmpne	r2,r2,zero
 18100a8:	1000031e 	bne	r2,zero,18100b8 <alt_wait_for_command_to_complete_amd+0xd0>
  {
    ret_code = -ETIMEDOUT;
 18100ac:	00bfe304 	movi	r2,-116
 18100b0:	e0bffa15 	stw	r2,-24(fp)
 18100b4:	00000f06 	br	18100f4 <alt_wait_for_command_to_complete_amd+0x10c>
  }
  else
  {
    value = IORD_8DIRECT(flash->dev.base_addr, offset);
 18100b8:	e0bffd17 	ldw	r2,-12(fp)
 18100bc:	10800a17 	ldw	r2,40(r2)
 18100c0:	1007883a 	mov	r3,r2
 18100c4:	e0bffe17 	ldw	r2,-8(fp)
 18100c8:	1885883a 	add	r2,r3,r2
 18100cc:	10800023 	ldbuio	r2,0(r2)
 18100d0:	e0bffc05 	stb	r2,-16(fp)
    if ((value & 0x80) != (data&0x80))
 18100d4:	e0bffc03 	ldbu	r2,-16(fp)
 18100d8:	10803fcc 	andi	r2,r2,255
 18100dc:	10c0200c 	andi	r3,r2,128
 18100e0:	e0bfff03 	ldbu	r2,-4(fp)
 18100e4:	1080200c 	andi	r2,r2,128
 18100e8:	18800226 	beq	r3,r2,18100f4 <alt_wait_for_command_to_complete_amd+0x10c>
    {
      ret_code = -EIO;
 18100ec:	00bffec4 	movi	r2,-5
 18100f0:	e0bffa15 	stw	r2,-24(fp)
    }
  }    
  return ret_code;
 18100f4:	e0bffa17 	ldw	r2,-24(fp)
}
 18100f8:	e037883a 	mov	sp,fp
 18100fc:	dfc00117 	ldw	ra,4(sp)
 1810100:	df000017 	ldw	fp,0(sp)
 1810104:	dec00204 	addi	sp,sp,8
 1810108:	f800283a 	ret

0181010c <alt_write_word_amd>:

static int alt_write_word_amd(  alt_flash_cfi_dev* flash, 
                                const int offset, 
                                const alt_u8* src_addr)
{
 181010c:	defff904 	addi	sp,sp,-28
 1810110:	dfc00615 	stw	ra,24(sp)
 1810114:	df000515 	stw	fp,20(sp)
 1810118:	df000504 	addi	fp,sp,20
 181011c:	e13ffd15 	stw	r4,-12(fp)
 1810120:	e17ffe15 	stw	r5,-8(fp)
 1810124:	e1bfff15 	stw	r6,-4(fp)
  int ret_code = 0;
 1810128:	e03ffc15 	stw	zero,-16(fp)
  alt_u8 value;
  (*flash->write_command)(flash->dev.base_addr, 0x555, (alt_u8)0xAA);
 181012c:	e0bffd17 	ldw	r2,-12(fp)
 1810130:	10c03317 	ldw	r3,204(r2)
 1810134:	e0bffd17 	ldw	r2,-12(fp)
 1810138:	11000a17 	ldw	r4,40(r2)
 181013c:	01415544 	movi	r5,1365
 1810140:	01802a84 	movi	r6,170
 1810144:	183ee83a 	callr	r3
  (*flash->write_command)(flash->dev.base_addr, 0x2AA, (alt_u8)0x55);
 1810148:	e0bffd17 	ldw	r2,-12(fp)
 181014c:	10c03317 	ldw	r3,204(r2)
 1810150:	e0bffd17 	ldw	r2,-12(fp)
 1810154:	11000a17 	ldw	r4,40(r2)
 1810158:	0140aa84 	movi	r5,682
 181015c:	01801544 	movi	r6,85
 1810160:	183ee83a 	callr	r3
  (*flash->write_command)(flash->dev.base_addr, 0x555, (alt_u8)0xA0);
 1810164:	e0bffd17 	ldw	r2,-12(fp)
 1810168:	10c03317 	ldw	r3,204(r2)
 181016c:	e0bffd17 	ldw	r2,-12(fp)
 1810170:	11000a17 	ldw	r4,40(r2)
 1810174:	01415544 	movi	r5,1365
 1810178:	01802804 	movi	r6,160
 181017c:	183ee83a 	callr	r3
  
  value = *src_addr;
 1810180:	e0bfff17 	ldw	r2,-4(fp)
 1810184:	10800003 	ldbu	r2,0(r2)
 1810188:	e0bffb05 	stb	r2,-20(fp)

  alt_write_value_to_flash(flash, offset, src_addr);
 181018c:	e13ffd17 	ldw	r4,-12(fp)
 1810190:	e17ffe17 	ldw	r5,-8(fp)
 1810194:	e1bfff17 	ldw	r6,-4(fp)
 1810198:	180b20c0 	call	180b20c <alt_write_value_to_flash>
  
  ret_code = alt_wait_for_command_to_complete_amd(flash, 
 181019c:	e1bffb03 	ldbu	r6,-20(fp)
 18101a0:	e13ffd17 	ldw	r4,-12(fp)
 18101a4:	e17ffe17 	ldw	r5,-8(fp)
 18101a8:	180ffe80 	call	180ffe8 <alt_wait_for_command_to_complete_amd>
 18101ac:	e0bffc15 	stw	r2,-16(fp)
                                                  offset,
                                                  value);
  return ret_code;
 18101b0:	e0bffc17 	ldw	r2,-16(fp)
  
}
 18101b4:	e037883a 	mov	sp,fp
 18101b8:	dfc00117 	ldw	ra,4(sp)
 18101bc:	df000017 	ldw	fp,0(sp)
 18101c0:	dec00204 	addi	sp,sp,8
 18101c4:	f800283a 	ret

018101c8 <alt_program_intel>:
 * Program a block (or part of one)
 */
int alt_program_intel(alt_flash_dev* flash_info, int block_offset, 
                int offset, const void* src_addr, 
                int length)
{
 18101c8:	defff704 	addi	sp,sp,-36
 18101cc:	dfc00815 	stw	ra,32(sp)
 18101d0:	df000715 	stw	fp,28(sp)
 18101d4:	df000704 	addi	fp,sp,28
 18101d8:	e13ffc15 	stw	r4,-16(fp)
 18101dc:	e17ffd15 	stw	r5,-12(fp)
 18101e0:	e1bffe15 	stw	r6,-8(fp)
 18101e4:	e1ffff15 	stw	r7,-4(fp)
  int ret_code = 0;
 18101e8:	e03ffb15 	stw	zero,-20(fp)
  alt_flash_cfi_dev* flash = (alt_flash_cfi_dev*)flash_info;
 18101ec:	e0bffc17 	ldw	r2,-16(fp)
 18101f0:	e0bffa15 	stw	r2,-24(fp)
  
   /*
  * If this block is locked then unlock it
  */
  ret_code = alt_unlock_block_intel(flash, block_offset);
 18101f4:	e13ffa17 	ldw	r4,-24(fp)
 18101f8:	e17ffd17 	ldw	r5,-12(fp)
 18101fc:	18103c00 	call	18103c0 <alt_unlock_block_intel>
 1810200:	e0bffb15 	stw	r2,-20(fp)

  if (!ret_code)
 1810204:	e0bffb17 	ldw	r2,-20(fp)
 1810208:	1004c03a 	cmpne	r2,r2,zero
 181020c:	1000091e 	bne	r2,zero,1810234 <alt_program_intel+0x6c>
  {

    ret_code = alt_flash_program_block( flash, offset, src_addr, length, 
 1810210:	e1bfff17 	ldw	r6,-4(fp)
 1810214:	00806074 	movhi	r2,385
 1810218:	10815304 	addi	r2,r2,1356
 181021c:	d8800015 	stw	r2,0(sp)
 1810220:	e13ffa17 	ldw	r4,-24(fp)
 1810224:	e17ffe17 	ldw	r5,-8(fp)
 1810228:	e1c00217 	ldw	r7,8(fp)
 181022c:	180b3700 	call	180b370 <alt_flash_program_block>
 1810230:	e0bffb15 	stw	r2,-20(fp)
                                        alt_write_word_intel);
  }
  
  return ret_code;
 1810234:	e0bffb17 	ldw	r2,-20(fp)
}
 1810238:	e037883a 	mov	sp,fp
 181023c:	dfc00117 	ldw	ra,4(sp)
 1810240:	df000017 	ldw	fp,0(sp)
 1810244:	dec00204 	addi	sp,sp,8
 1810248:	f800283a 	ret

0181024c <alt_erase_block_intel>:
 * alt_erase_block_intel
 * 
 * Erase the selected erase block
 */
int alt_erase_block_intel(alt_flash_dev* flash_info, int block_offset)
{
 181024c:	defff804 	addi	sp,sp,-32
 1810250:	dfc00715 	stw	ra,28(sp)
 1810254:	df000615 	stw	fp,24(sp)
 1810258:	df000604 	addi	fp,sp,24
 181025c:	e13ffe15 	stw	r4,-8(fp)
 1810260:	e17fff15 	stw	r5,-4(fp)
  int   ret_code = 0;
 1810264:	e03ffc15 	stw	zero,-16(fp)
  alt_flash_cfi_dev* flash = (alt_flash_cfi_dev*)flash_info;
 1810268:	e0bffe17 	ldw	r2,-8(fp)
 181026c:	e0bffb15 	stw	r2,-20(fp)
  volatile alt_u8  status;
  int   timeout = flash->erase_timeout;
 1810270:	e0bffb17 	ldw	r2,-20(fp)
 1810274:	10803117 	ldw	r2,196(r2)
 1810278:	e0bffa15 	stw	r2,-24(fp)

  /*
  * If this block is locked then unlock it
  */
  ret_code = alt_unlock_block_intel(flash, block_offset);
 181027c:	e13ffb17 	ldw	r4,-20(fp)
 1810280:	e17fff17 	ldw	r5,-4(fp)
 1810284:	18103c00 	call	18103c0 <alt_unlock_block_intel>
 1810288:	e0bffc15 	stw	r2,-16(fp)

  if (!ret_code)
 181028c:	e0bffc17 	ldw	r2,-16(fp)
 1810290:	1004c03a 	cmpne	r2,r2,zero
 1810294:	1000441e 	bne	r2,zero,18103a8 <alt_erase_block_intel+0x15c>
  {

    flash->write_native((alt_u8*)flash->dev.base_addr + block_offset, 0x20);
 1810298:	e0bffb17 	ldw	r2,-20(fp)
 181029c:	11803517 	ldw	r6,212(r2)
 18102a0:	e0bffb17 	ldw	r2,-20(fp)
 18102a4:	10800a17 	ldw	r2,40(r2)
 18102a8:	1007883a 	mov	r3,r2
 18102ac:	e0bfff17 	ldw	r2,-4(fp)
 18102b0:	1889883a 	add	r4,r3,r2
 18102b4:	01400804 	movi	r5,32
 18102b8:	303ee83a 	callr	r6
    flash->write_native((alt_u8*)flash->dev.base_addr + block_offset, 0xD0);
 18102bc:	e0bffb17 	ldw	r2,-20(fp)
 18102c0:	11803517 	ldw	r6,212(r2)
 18102c4:	e0bffb17 	ldw	r2,-20(fp)
 18102c8:	10800a17 	ldw	r2,40(r2)
 18102cc:	1007883a 	mov	r3,r2
 18102d0:	e0bfff17 	ldw	r2,-4(fp)
 18102d4:	1889883a 	add	r4,r3,r2
 18102d8:	01403404 	movi	r5,208
 18102dc:	303ee83a 	callr	r6

    do
    {
      status = IORD_8DIRECT(flash->dev.base_addr, block_offset);
 18102e0:	e0bffb17 	ldw	r2,-20(fp)
 18102e4:	10800a17 	ldw	r2,40(r2)
 18102e8:	1007883a 	mov	r3,r2
 18102ec:	e0bfff17 	ldw	r2,-4(fp)
 18102f0:	1885883a 	add	r2,r3,r2
 18102f4:	10800023 	ldbuio	r2,0(r2)
 18102f8:	e0bffd05 	stb	r2,-12(fp)
      if (status & 0x80)
 18102fc:	e0bffd03 	ldbu	r2,-12(fp)
 1810300:	10803fcc 	andi	r2,r2,255
 1810304:	1080201c 	xori	r2,r2,128
 1810308:	10bfe004 	addi	r2,r2,-128
 181030c:	1004803a 	cmplt	r2,r2,zero
 1810310:	1000081e 	bne	r2,zero,1810334 <alt_erase_block_intel+0xe8>
      {
        break;
      }
      usleep(1000);
 1810314:	0100fa04 	movi	r4,1000
 1810318:	180aac80 	call	180aac8 <usleep>
      timeout -= 1000;
 181031c:	e0bffa17 	ldw	r2,-24(fp)
 1810320:	10bf0604 	addi	r2,r2,-1000
 1810324:	e0bffa15 	stw	r2,-24(fp)
    }while(timeout > 0);
 1810328:	e0bffa17 	ldw	r2,-24(fp)
 181032c:	10800048 	cmpgei	r2,r2,1
 1810330:	103feb1e 	bne	r2,zero,18102e0 <alt_erase_block_intel+0x94>
    
    if (timeout <= 0)
 1810334:	e0bffa17 	ldw	r2,-24(fp)
 1810338:	10800048 	cmpgei	r2,r2,1
 181033c:	1000031e 	bne	r2,zero,181034c <alt_erase_block_intel+0x100>
    {
      ret_code = -ETIMEDOUT;
 1810340:	00bfe304 	movi	r2,-116
 1810344:	e0bffc15 	stw	r2,-16(fp)
 1810348:	00000e06 	br	1810384 <alt_erase_block_intel+0x138>
    }
    else if (status & 0x7f)
 181034c:	e0bffd03 	ldbu	r2,-12(fp)
 1810350:	10803fcc 	andi	r2,r2,255
 1810354:	10801fcc 	andi	r2,r2,127
 1810358:	1005003a 	cmpeq	r2,r2,zero
 181035c:	1000091e 	bne	r2,zero,1810384 <alt_erase_block_intel+0x138>
    {
      /* If we have an error of some kind bomb out */
      ret_code = -EIO;
 1810360:	00bffec4 	movi	r2,-5
 1810364:	e0bffc15 	stw	r2,-16(fp)
      status = IORD_8DIRECT(flash->dev.base_addr, block_offset);
 1810368:	e0bffb17 	ldw	r2,-20(fp)
 181036c:	10800a17 	ldw	r2,40(r2)
 1810370:	1007883a 	mov	r3,r2
 1810374:	e0bfff17 	ldw	r2,-4(fp)
 1810378:	1885883a 	add	r2,r3,r2
 181037c:	10800023 	ldbuio	r2,0(r2)
 1810380:	e0bffd05 	stb	r2,-12(fp)
    }

    /* Put the device back into read array mode */
    flash->write_native((alt_u8*)flash->dev.base_addr + block_offset, 0xFF);
 1810384:	e0bffb17 	ldw	r2,-20(fp)
 1810388:	11803517 	ldw	r6,212(r2)
 181038c:	e0bffb17 	ldw	r2,-20(fp)
 1810390:	10800a17 	ldw	r2,40(r2)
 1810394:	1007883a 	mov	r3,r2
 1810398:	e0bfff17 	ldw	r2,-4(fp)
 181039c:	1889883a 	add	r4,r3,r2
 18103a0:	01403fc4 	movi	r5,255
 18103a4:	303ee83a 	callr	r6
  }
  
  return ret_code;
 18103a8:	e0bffc17 	ldw	r2,-16(fp)
}
 18103ac:	e037883a 	mov	sp,fp
 18103b0:	dfc00117 	ldw	ra,4(sp)
 18103b4:	df000017 	ldw	fp,0(sp)
 18103b8:	dec00204 	addi	sp,sp,8
 18103bc:	f800283a 	ret

018103c0 <alt_unlock_block_intel>:
/*
* Private Intel specific functions
*/

static int alt_unlock_block_intel(alt_flash_cfi_dev* flash, int block_offset)
{
 18103c0:	defff904 	addi	sp,sp,-28
 18103c4:	dfc00615 	stw	ra,24(sp)
 18103c8:	df000515 	stw	fp,20(sp)
 18103cc:	df000504 	addi	fp,sp,20
 18103d0:	e13ffe15 	stw	r4,-8(fp)
 18103d4:	e17fff15 	stw	r5,-4(fp)
  alt_u8  locked;
  alt_u8  status;
  int ret_code = 0;
 18103d8:	e03ffc15 	stw	zero,-16(fp)
  int timeout = flash->write_timeout * 100;
 18103dc:	e0bffe17 	ldw	r2,-8(fp)
 18103e0:	10803017 	ldw	r2,192(r2)
 18103e4:	10801924 	muli	r2,r2,100
 18103e8:	e0bffb15 	stw	r2,-20(fp)


  /*
  * Is this block locked?
  */
  flash->write_native((alt_u8*)flash->dev.base_addr + block_offset, 0x90);
 18103ec:	e0bffe17 	ldw	r2,-8(fp)
 18103f0:	11803517 	ldw	r6,212(r2)
 18103f4:	e0bffe17 	ldw	r2,-8(fp)
 18103f8:	10800a17 	ldw	r2,40(r2)
 18103fc:	1007883a 	mov	r3,r2
 1810400:	e0bfff17 	ldw	r2,-4(fp)
 1810404:	1889883a 	add	r4,r3,r2
 1810408:	01402404 	movi	r5,144
 181040c:	303ee83a 	callr	r6
  locked = IORD_8DIRECT(flash->dev.base_addr, block_offset + 4);
 1810410:	e0bffe17 	ldw	r2,-8(fp)
 1810414:	10800a17 	ldw	r2,40(r2)
 1810418:	1007883a 	mov	r3,r2
 181041c:	e0bfff17 	ldw	r2,-4(fp)
 1810420:	1885883a 	add	r2,r3,r2
 1810424:	10800104 	addi	r2,r2,4
 1810428:	10800023 	ldbuio	r2,0(r2)
 181042c:	e0bffd45 	stb	r2,-11(fp)
  if (locked & 0x1)
 1810430:	e0bffd43 	ldbu	r2,-11(fp)
 1810434:	1080004c 	andi	r2,r2,1
 1810438:	10803fcc 	andi	r2,r2,255
 181043c:	1005003a 	cmpeq	r2,r2,zero
 1810440:	1000331e 	bne	r2,zero,1810510 <alt_unlock_block_intel+0x150>
  {
    flash->write_native((alt_u8*)flash->dev.base_addr + block_offset, 0x60);
 1810444:	e0bffe17 	ldw	r2,-8(fp)
 1810448:	11803517 	ldw	r6,212(r2)
 181044c:	e0bffe17 	ldw	r2,-8(fp)
 1810450:	10800a17 	ldw	r2,40(r2)
 1810454:	1007883a 	mov	r3,r2
 1810458:	e0bfff17 	ldw	r2,-4(fp)
 181045c:	1889883a 	add	r4,r3,r2
 1810460:	01401804 	movi	r5,96
 1810464:	303ee83a 	callr	r6
    flash->write_native((alt_u8*)flash->dev.base_addr + block_offset, 0xD0);
 1810468:	e0bffe17 	ldw	r2,-8(fp)
 181046c:	11803517 	ldw	r6,212(r2)
 1810470:	e0bffe17 	ldw	r2,-8(fp)
 1810474:	10800a17 	ldw	r2,40(r2)
 1810478:	1007883a 	mov	r3,r2
 181047c:	e0bfff17 	ldw	r2,-4(fp)
 1810480:	1889883a 	add	r4,r3,r2
 1810484:	01403404 	movi	r5,208
 1810488:	303ee83a 	callr	r6

    do
    {
      status = IORD_8DIRECT(flash->dev.base_addr, block_offset);
 181048c:	e0bffe17 	ldw	r2,-8(fp)
 1810490:	10800a17 	ldw	r2,40(r2)
 1810494:	1007883a 	mov	r3,r2
 1810498:	e0bfff17 	ldw	r2,-4(fp)
 181049c:	1885883a 	add	r2,r3,r2
 18104a0:	10800023 	ldbuio	r2,0(r2)
 18104a4:	e0bffd05 	stb	r2,-12(fp)
      if (status & 0x80)
 18104a8:	e0bffd03 	ldbu	r2,-12(fp)
 18104ac:	10803fcc 	andi	r2,r2,255
 18104b0:	1080201c 	xori	r2,r2,128
 18104b4:	10bfe004 	addi	r2,r2,-128
 18104b8:	1004803a 	cmplt	r2,r2,zero
 18104bc:	1000081e 	bne	r2,zero,18104e0 <alt_unlock_block_intel+0x120>
      {
        break;
      }
      timeout--;
 18104c0:	e0bffb17 	ldw	r2,-20(fp)
 18104c4:	10bfffc4 	addi	r2,r2,-1
 18104c8:	e0bffb15 	stw	r2,-20(fp)
      usleep(1);
 18104cc:	01000044 	movi	r4,1
 18104d0:	180aac80 	call	180aac8 <usleep>
    }while(timeout > 0);
 18104d4:	e0bffb17 	ldw	r2,-20(fp)
 18104d8:	10800048 	cmpgei	r2,r2,1
 18104dc:	103feb1e 	bne	r2,zero,181048c <alt_unlock_block_intel+0xcc>

    if (timeout == 0)
 18104e0:	e0bffb17 	ldw	r2,-20(fp)
 18104e4:	1004c03a 	cmpne	r2,r2,zero
 18104e8:	1000031e 	bne	r2,zero,18104f8 <alt_unlock_block_intel+0x138>
    {
      ret_code = -ETIMEDOUT;
 18104ec:	00bfe304 	movi	r2,-116
 18104f0:	e0bffc15 	stw	r2,-16(fp)
 18104f4:	00000606 	br	1810510 <alt_unlock_block_intel+0x150>
    }
    else if (status & 0x7f)
 18104f8:	e0bffd03 	ldbu	r2,-12(fp)
 18104fc:	10801fcc 	andi	r2,r2,127
 1810500:	1005003a 	cmpeq	r2,r2,zero
 1810504:	1000021e 	bne	r2,zero,1810510 <alt_unlock_block_intel+0x150>
    {
      /* If we have an error of some kind bomb out */
      ret_code = -EIO;
 1810508:	00bffec4 	movi	r2,-5
 181050c:	e0bffc15 	stw	r2,-16(fp)
  }

  /*
  * Back to Read Array mode
  */
  flash->write_native((alt_u8*)flash->dev.base_addr + block_offset, 0xFF);
 1810510:	e0bffe17 	ldw	r2,-8(fp)
 1810514:	11803517 	ldw	r6,212(r2)
 1810518:	e0bffe17 	ldw	r2,-8(fp)
 181051c:	10800a17 	ldw	r2,40(r2)
 1810520:	1007883a 	mov	r3,r2
 1810524:	e0bfff17 	ldw	r2,-4(fp)
 1810528:	1889883a 	add	r4,r3,r2
 181052c:	01403fc4 	movi	r5,255
 1810530:	303ee83a 	callr	r6

  return ret_code;
 1810534:	e0bffc17 	ldw	r2,-16(fp)
}
 1810538:	e037883a 	mov	sp,fp
 181053c:	dfc00117 	ldw	ra,4(sp)
 1810540:	df000017 	ldw	fp,0(sp)
 1810544:	dec00204 	addi	sp,sp,8
 1810548:	f800283a 	ret

0181054c <alt_write_word_intel>:
 * offset bytes into the flash
 */
 
int alt_write_word_intel( alt_flash_cfi_dev* flash, 
                                  const int offset, const alt_u8* src_addr)
{ 
 181054c:	defff904 	addi	sp,sp,-28
 1810550:	dfc00615 	stw	ra,24(sp)
 1810554:	df000515 	stw	fp,20(sp)
 1810558:	df000504 	addi	fp,sp,20
 181055c:	e13ffd15 	stw	r4,-12(fp)
 1810560:	e17ffe15 	stw	r5,-8(fp)
 1810564:	e1bfff15 	stw	r6,-4(fp)
  int ret_code = 0;
 1810568:	e03ffc15 	stw	zero,-16(fp)
  alt_u8 status;
  (*flash->write_native)((alt_u8*)flash->dev.base_addr+offset, 0x40);
 181056c:	e0bffd17 	ldw	r2,-12(fp)
 1810570:	11803517 	ldw	r6,212(r2)
 1810574:	e0bffd17 	ldw	r2,-12(fp)
 1810578:	10800a17 	ldw	r2,40(r2)
 181057c:	1007883a 	mov	r3,r2
 1810580:	e0bffe17 	ldw	r2,-8(fp)
 1810584:	1889883a 	add	r4,r3,r2
 1810588:	01401004 	movi	r5,64
 181058c:	303ee83a 	callr	r6
  alt_write_value_to_flash(flash, offset, src_addr);
 1810590:	e13ffd17 	ldw	r4,-12(fp)
 1810594:	e17ffe17 	ldw	r5,-8(fp)
 1810598:	e1bfff17 	ldw	r6,-4(fp)
 181059c:	180b20c0 	call	180b20c <alt_write_value_to_flash>

  do
  {
    status = IORD_8DIRECT(flash->dev.base_addr, offset);
 18105a0:	e0bffd17 	ldw	r2,-12(fp)
 18105a4:	10800a17 	ldw	r2,40(r2)
 18105a8:	1007883a 	mov	r3,r2
 18105ac:	e0bffe17 	ldw	r2,-8(fp)
 18105b0:	1885883a 	add	r2,r3,r2
 18105b4:	10800023 	ldbuio	r2,0(r2)
 18105b8:	e0bffb05 	stb	r2,-20(fp)
  }while(!(status & 0x80));
 18105bc:	e0bffb03 	ldbu	r2,-20(fp)
 18105c0:	10803fcc 	andi	r2,r2,255
 18105c4:	1080201c 	xori	r2,r2,128
 18105c8:	10bfe004 	addi	r2,r2,-128
 18105cc:	1004403a 	cmpge	r2,r2,zero
 18105d0:	103ff31e 	bne	r2,zero,18105a0 <alt_write_word_intel+0x54>

  /* If we have an error of some kind bomb out */
  if (status & 0x7f)
 18105d4:	e0bffb03 	ldbu	r2,-20(fp)
 18105d8:	10801fcc 	andi	r2,r2,127
 18105dc:	1005003a 	cmpeq	r2,r2,zero
 18105e0:	1000021e 	bne	r2,zero,18105ec <alt_write_word_intel+0xa0>
  {
    ret_code = -EIO;
 18105e4:	00bffec4 	movi	r2,-5
 18105e8:	e0bffc15 	stw	r2,-16(fp)
  }

  /* Put the device back into read array mode */
  flash->write_native((alt_u8*)flash->dev.base_addr + offset, 0xFF);
 18105ec:	e0bffd17 	ldw	r2,-12(fp)
 18105f0:	11803517 	ldw	r6,212(r2)
 18105f4:	e0bffd17 	ldw	r2,-12(fp)
 18105f8:	10800a17 	ldw	r2,40(r2)
 18105fc:	1007883a 	mov	r3,r2
 1810600:	e0bffe17 	ldw	r2,-8(fp)
 1810604:	1889883a 	add	r4,r3,r2
 1810608:	01403fc4 	movi	r5,255
 181060c:	303ee83a 	callr	r6
  
  return ret_code;
 1810610:	e0bffc17 	ldw	r2,-16(fp)
}
 1810614:	e037883a 	mov	sp,fp
 1810618:	dfc00117 	ldw	ra,4(sp)
 181061c:	df000017 	ldw	fp,0(sp)
 1810620:	dec00204 	addi	sp,sp,8
 1810624:	f800283a 	ret

01810628 <alt_find_dev>:
 * "name" must be an exact match for the devices registered name for a match to
 * be found.
 */
 
alt_dev* alt_find_dev(const char* name, alt_llist* llist)
{
 1810628:	defff904 	addi	sp,sp,-28
 181062c:	dfc00615 	stw	ra,24(sp)
 1810630:	df000515 	stw	fp,20(sp)
 1810634:	df000504 	addi	fp,sp,20
 1810638:	e13ffd15 	stw	r4,-12(fp)
 181063c:	e17ffe15 	stw	r5,-8(fp)
  alt_dev* next = (alt_dev*) llist->next;
 1810640:	e0bffe17 	ldw	r2,-8(fp)
 1810644:	10800017 	ldw	r2,0(r2)
 1810648:	e0bffc15 	stw	r2,-16(fp)
  alt_32 len;

  len  = strlen(name) + 1;
 181064c:	e13ffd17 	ldw	r4,-12(fp)
 1810650:	1800cbc0 	call	1800cbc <strlen>
 1810654:	10800044 	addi	r2,r2,1
 1810658:	e0bffb15 	stw	r2,-20(fp)
  /*
   * Check each list entry in turn, until a match is found, or we reach the
   * end of the list (i.e. next winds up pointing back to the list head).
   */ 

  while (next != (alt_dev*) llist)
 181065c:	00000d06 	br	1810694 <alt_find_dev+0x6c>
    /* 
     * memcmp() is used here rather than strcmp() in order to reduce the size
     * of the executable.
     */

    if (!memcmp (next->name, name, len))
 1810660:	e0bffc17 	ldw	r2,-16(fp)
 1810664:	11000217 	ldw	r4,8(r2)
 1810668:	e1bffb17 	ldw	r6,-20(fp)
 181066c:	e17ffd17 	ldw	r5,-12(fp)
 1810670:	18109bc0 	call	18109bc <memcmp>
 1810674:	1004c03a 	cmpne	r2,r2,zero
 1810678:	1000031e 	bne	r2,zero,1810688 <alt_find_dev+0x60>
    {
      /* match found */

      return next;
 181067c:	e0bffc17 	ldw	r2,-16(fp)
 1810680:	e0bfff15 	stw	r2,-4(fp)
 1810684:	00000706 	br	18106a4 <alt_find_dev+0x7c>
    }
    next = (alt_dev*) next->llist.next;
 1810688:	e0bffc17 	ldw	r2,-16(fp)
 181068c:	10800017 	ldw	r2,0(r2)
 1810690:	e0bffc15 	stw	r2,-16(fp)
  /*
   * Check each list entry in turn, until a match is found, or we reach the
   * end of the list (i.e. next winds up pointing back to the list head).
   */ 

  while (next != (alt_dev*) llist)
 1810694:	e0fffe17 	ldw	r3,-8(fp)
 1810698:	e0bffc17 	ldw	r2,-16(fp)
 181069c:	10fff01e 	bne	r2,r3,1810660 <alt_find_dev+0x38>
    next = (alt_dev*) next->llist.next;
  }
  
  /* No match found */
  
  return NULL;
 18106a0:	e03fff15 	stw	zero,-4(fp)
 18106a4:	e0bfff17 	ldw	r2,-4(fp)
}
 18106a8:	e037883a 	mov	sp,fp
 18106ac:	dfc00117 	ldw	ra,4(sp)
 18106b0:	df000017 	ldw	fp,0(sp)
 18106b4:	dec00204 	addi	sp,sp,8
 18106b8:	f800283a 	ret

018106bc <alt_find_file>:
 * either '/' or '\0' is the prefix of the filename. For example the filename:
 * "/myfilesystem/junk.txt" would match: "/myfilesystem", but not: "/myfile". 
 */
 
alt_dev* alt_find_file (const char* name)
{
 18106bc:	defffa04 	addi	sp,sp,-24
 18106c0:	dfc00515 	stw	ra,20(sp)
 18106c4:	df000415 	stw	fp,16(sp)
 18106c8:	df000404 	addi	fp,sp,16
 18106cc:	e13ffe15 	stw	r4,-8(fp)
  alt_dev* next = (alt_dev*) alt_fs_list.next;   
 18106d0:	00806074 	movhi	r2,385
 18106d4:	108c3d04 	addi	r2,r2,12532
 18106d8:	10800017 	ldw	r2,0(r2)
 18106dc:	e0bffd15 	stw	r2,-12(fp)
  /*
   * Check each list entry in turn, until a match is found, or we reach the
   * end of the list (i.e. next winds up pointing back to the list head).
   */ 
 
  while (next != (alt_dev*) &alt_fs_list)
 18106e0:	00003306 	br	18107b0 <alt_find_file+0xf4>
  {
    len = strlen(next->name);
 18106e4:	e0bffd17 	ldw	r2,-12(fp)
 18106e8:	11000217 	ldw	r4,8(r2)
 18106ec:	1800cbc0 	call	1800cbc <strlen>
 18106f0:	e0bffc15 	stw	r2,-16(fp)
    
    if (next->name[len-1] == '/')
 18106f4:	e0bffd17 	ldw	r2,-12(fp)
 18106f8:	10c00217 	ldw	r3,8(r2)
 18106fc:	e0bffc17 	ldw	r2,-16(fp)
 1810700:	1885883a 	add	r2,r3,r2
 1810704:	10bfffc4 	addi	r2,r2,-1
 1810708:	10800003 	ldbu	r2,0(r2)
 181070c:	10803fcc 	andi	r2,r2,255
 1810710:	1080201c 	xori	r2,r2,128
 1810714:	10bfe004 	addi	r2,r2,-128
 1810718:	10800bd8 	cmpnei	r2,r2,47
 181071c:	1000031e 	bne	r2,zero,181072c <alt_find_file+0x70>
    {
      len -= 1;
 1810720:	e0bffc17 	ldw	r2,-16(fp)
 1810724:	10bfffc4 	addi	r2,r2,-1
 1810728:	e0bffc15 	stw	r2,-16(fp)
    }

    if (((name[len] == '/') || (name[len] == '\0')) && 
 181072c:	e0bffc17 	ldw	r2,-16(fp)
 1810730:	1007883a 	mov	r3,r2
 1810734:	e0bffe17 	ldw	r2,-8(fp)
 1810738:	1885883a 	add	r2,r3,r2
 181073c:	10800003 	ldbu	r2,0(r2)
 1810740:	10803fcc 	andi	r2,r2,255
 1810744:	1080201c 	xori	r2,r2,128
 1810748:	10bfe004 	addi	r2,r2,-128
 181074c:	10800be0 	cmpeqi	r2,r2,47
 1810750:	10000a1e 	bne	r2,zero,181077c <alt_find_file+0xc0>
 1810754:	e0bffc17 	ldw	r2,-16(fp)
 1810758:	1007883a 	mov	r3,r2
 181075c:	e0bffe17 	ldw	r2,-8(fp)
 1810760:	1885883a 	add	r2,r3,r2
 1810764:	10800003 	ldbu	r2,0(r2)
 1810768:	10803fcc 	andi	r2,r2,255
 181076c:	1080201c 	xori	r2,r2,128
 1810770:	10bfe004 	addi	r2,r2,-128
 1810774:	1004c03a 	cmpne	r2,r2,zero
 1810778:	10000a1e 	bne	r2,zero,18107a4 <alt_find_file+0xe8>
 181077c:	e0bffd17 	ldw	r2,-12(fp)
 1810780:	11000217 	ldw	r4,8(r2)
 1810784:	e1bffc17 	ldw	r6,-16(fp)
 1810788:	e17ffe17 	ldw	r5,-8(fp)
 181078c:	18109bc0 	call	18109bc <memcmp>
 1810790:	1004c03a 	cmpne	r2,r2,zero
 1810794:	1000031e 	bne	r2,zero,18107a4 <alt_find_file+0xe8>
        !memcmp (next->name, name, len))
    {
      /* match found */

      return next;
 1810798:	e0bffd17 	ldw	r2,-12(fp)
 181079c:	e0bfff15 	stw	r2,-4(fp)
 18107a0:	00000806 	br	18107c4 <alt_find_file+0x108>
    }
    next = (alt_dev*) next->llist.next;
 18107a4:	e0bffd17 	ldw	r2,-12(fp)
 18107a8:	10800017 	ldw	r2,0(r2)
 18107ac:	e0bffd15 	stw	r2,-12(fp)
  /*
   * Check each list entry in turn, until a match is found, or we reach the
   * end of the list (i.e. next winds up pointing back to the list head).
   */ 
 
  while (next != (alt_dev*) &alt_fs_list)
 18107b0:	00c06074 	movhi	r3,385
 18107b4:	18cc3d04 	addi	r3,r3,12532
 18107b8:	e0bffd17 	ldw	r2,-12(fp)
 18107bc:	10ffc91e 	bne	r2,r3,18106e4 <alt_find_file+0x28>
    next = (alt_dev*) next->llist.next;
  }
  
  /* No match found */
  
  return NULL;     
 18107c0:	e03fff15 	stw	zero,-4(fp)
 18107c4:	e0bfff17 	ldw	r2,-4(fp)
}
 18107c8:	e037883a 	mov	sp,fp
 18107cc:	dfc00117 	ldw	ra,4(sp)
 18107d0:	df000017 	ldw	fp,0(sp)
 18107d4:	dec00204 	addi	sp,sp,8
 18107d8:	f800283a 	ret

018107dc <alt_get_fd>:
 * the offset of the file descriptor within the file descriptor array). A
 * negative value indicates failure.
 */

int alt_get_fd (alt_dev* dev)
{
 18107dc:	defffc04 	addi	sp,sp,-16
 18107e0:	df000315 	stw	fp,12(sp)
 18107e4:	df000304 	addi	fp,sp,12
 18107e8:	e13fff15 	stw	r4,-4(fp)
  alt_32 i;
  int rc = -EMFILE;
 18107ec:	00bffa04 	movi	r2,-24
 18107f0:	e0bffd15 	stw	r2,-12(fp)
   * indicates the highest file descriptor ever allocated. This is used to
   * improve efficency when searching the file descriptor list, and 
   * therefore reduce contention on the alt_fd_list_lock semaphore. 
   */

  for (i = 0; i < ALT_MAX_FD; i++)
 18107f4:	e03ffe15 	stw	zero,-8(fp)
 18107f8:	00001e06 	br	1810874 <alt_get_fd+0x98>
  {
    if (!alt_fd_list[i].dev)
 18107fc:	e0bffe17 	ldw	r2,-8(fp)
 1810800:	00c06074 	movhi	r3,385
 1810804:	18c71004 	addi	r3,r3,7232
 1810808:	10800324 	muli	r2,r2,12
 181080c:	10c5883a 	add	r2,r2,r3
 1810810:	10800017 	ldw	r2,0(r2)
 1810814:	1004c03a 	cmpne	r2,r2,zero
 1810818:	1000131e 	bne	r2,zero,1810868 <alt_get_fd+0x8c>
    {
      alt_fd_list[i].dev = dev;
 181081c:	e0bffe17 	ldw	r2,-8(fp)
 1810820:	00c06074 	movhi	r3,385
 1810824:	18c71004 	addi	r3,r3,7232
 1810828:	10800324 	muli	r2,r2,12
 181082c:	10c7883a 	add	r3,r2,r3
 1810830:	e0bfff17 	ldw	r2,-4(fp)
 1810834:	18800015 	stw	r2,0(r3)
      if (i > alt_max_fd)
 1810838:	00806074 	movhi	r2,385
 181083c:	108c4104 	addi	r2,r2,12548
 1810840:	10c00017 	ldw	r3,0(r2)
 1810844:	e0bffe17 	ldw	r2,-8(fp)
 1810848:	1880040e 	bge	r3,r2,181085c <alt_get_fd+0x80>
      {
        alt_max_fd = i;
 181084c:	00c06074 	movhi	r3,385
 1810850:	18cc4104 	addi	r3,r3,12548
 1810854:	e0bffe17 	ldw	r2,-8(fp)
 1810858:	18800015 	stw	r2,0(r3)
      }
      rc = i;
 181085c:	e0bffe17 	ldw	r2,-8(fp)
 1810860:	e0bffd15 	stw	r2,-12(fp)
      goto alt_get_fd_exit;
 1810864:	00000606 	br	1810880 <alt_get_fd+0xa4>
   * indicates the highest file descriptor ever allocated. This is used to
   * improve efficency when searching the file descriptor list, and 
   * therefore reduce contention on the alt_fd_list_lock semaphore. 
   */

  for (i = 0; i < ALT_MAX_FD; i++)
 1810868:	e0bffe17 	ldw	r2,-8(fp)
 181086c:	10800044 	addi	r2,r2,1
 1810870:	e0bffe15 	stw	r2,-8(fp)
 1810874:	e0bffe17 	ldw	r2,-8(fp)
 1810878:	10800810 	cmplti	r2,r2,32
 181087c:	103fdf1e 	bne	r2,zero,18107fc <alt_get_fd+0x20>
   * file descriptor pool.
   */

  ALT_SEM_POST(alt_fd_list_lock);

  return rc;
 1810880:	e0bffd17 	ldw	r2,-12(fp)
}
 1810884:	e037883a 	mov	sp,fp
 1810888:	df000017 	ldw	fp,0(sp)
 181088c:	dec00104 	addi	sp,sp,4
 1810890:	f800283a 	ret

01810894 <alt_exception_cause_generated_bad_addr>:
 *
 * Return: 1: BADADDR (bad_addr argument to handler) is valid
 *         0: BADADDR is not valid
 */
int alt_exception_cause_generated_bad_addr(alt_exception_cause cause)
{
 1810894:	defffc04 	addi	sp,sp,-16
 1810898:	df000315 	stw	fp,12(sp)
 181089c:	df000304 	addi	fp,sp,12
 18108a0:	e13ffd15 	stw	r4,-12(fp)
  switch (cause) {
 18108a4:	e0bffd17 	ldw	r2,-12(fp)
 18108a8:	10bffe84 	addi	r2,r2,-6
 18108ac:	e0bfff15 	stw	r2,-4(fp)
 18108b0:	e0ffff17 	ldw	r3,-4(fp)
 18108b4:	18800328 	cmpgeui	r2,r3,12
 18108b8:	1000271e 	bne	r2,zero,1810958 <alt_exception_cause_generated_bad_addr+0xc4>
 18108bc:	e13fff17 	ldw	r4,-4(fp)
 18108c0:	e13fff17 	ldw	r4,-4(fp)
 18108c4:	2105883a 	add	r2,r4,r4
 18108c8:	1087883a 	add	r3,r2,r2
 18108cc:	00806074 	movhi	r2,385
 18108d0:	10823804 	addi	r2,r2,2272
 18108d4:	1885883a 	add	r2,r3,r2
 18108d8:	10800017 	ldw	r2,0(r2)
 18108dc:	1000683a 	jmp	r2
 18108e0:	0181091c 	xori	r6,zero,1060
 18108e4:	01810928 	cmpgeui	r6,zero,1060
 18108e8:	01810958 	cmpnei	r6,zero,1061
 18108ec:	01810958 	cmpnei	r6,zero,1061
 18108f0:	01810958 	cmpnei	r6,zero,1061
 18108f4:	01810910 	cmplti	r6,zero,1060
 18108f8:	01810958 	cmpnei	r6,zero,1061
 18108fc:	01810958 	cmpnei	r6,zero,1061
 1810900:	01810934 	movhi	r6,1060
 1810904:	01810940 	call	181094 <_start-0x167ef6c>
 1810908:	01810958 	cmpnei	r6,zero,1061
 181090c:	0181094c 	andi	r6,zero,1061
  case NIOS2_EXCEPTION_SUPERVISOR_ONLY_DATA_ADDR:
    return 1;
 1810910:	00800044 	movi	r2,1
 1810914:	e0bffe15 	stw	r2,-8(fp)
 1810918:	00001006 	br	181095c <alt_exception_cause_generated_bad_addr+0xc8>
  case NIOS2_EXCEPTION_MISALIGNED_DATA_ADDR:
    return 1;
 181091c:	00c00044 	movi	r3,1
 1810920:	e0fffe15 	stw	r3,-8(fp)
 1810924:	00000d06 	br	181095c <alt_exception_cause_generated_bad_addr+0xc8>
  case NIOS2_EXCEPTION_MISALIGNED_TARGET_PC:
    return 1;
 1810928:	01000044 	movi	r4,1
 181092c:	e13ffe15 	stw	r4,-8(fp)
 1810930:	00000a06 	br	181095c <alt_exception_cause_generated_bad_addr+0xc8>
  case NIOS2_EXCEPTION_TLB_READ_PERM_VIOLATION:
    return 1;
 1810934:	00800044 	movi	r2,1
 1810938:	e0bffe15 	stw	r2,-8(fp)
 181093c:	00000706 	br	181095c <alt_exception_cause_generated_bad_addr+0xc8>
  case NIOS2_EXCEPTION_TLB_WRITE_PERM_VIOLATION:
    return 1;
 1810940:	00c00044 	movi	r3,1
 1810944:	e0fffe15 	stw	r3,-8(fp)
 1810948:	00000406 	br	181095c <alt_exception_cause_generated_bad_addr+0xc8>
  case NIOS2_EXCEPTION_MPU_DATA_REGION_VIOLATION:
    return 1;
 181094c:	01000044 	movi	r4,1
 1810950:	e13ffe15 	stw	r4,-8(fp)
 1810954:	00000106 	br	181095c <alt_exception_cause_generated_bad_addr+0xc8>
  default:
    return 0;
 1810958:	e03ffe15 	stw	zero,-8(fp)
 181095c:	e0bffe17 	ldw	r2,-8(fp)
  }
}
 1810960:	e037883a 	mov	sp,fp
 1810964:	df000017 	ldw	fp,0(sp)
 1810968:	dec00104 	addi	sp,sp,4
 181096c:	f800283a 	ret

01810970 <atexit>:
 1810970:	200b883a 	mov	r5,r4
 1810974:	000d883a 	mov	r6,zero
 1810978:	0009883a 	mov	r4,zero
 181097c:	000f883a 	mov	r7,zero
 1810980:	1810a301 	jmpi	1810a30 <__register_exitproc>

01810984 <exit>:
 1810984:	defffe04 	addi	sp,sp,-8
 1810988:	000b883a 	mov	r5,zero
 181098c:	dc000015 	stw	r16,0(sp)
 1810990:	dfc00115 	stw	ra,4(sp)
 1810994:	2021883a 	mov	r16,r4
 1810998:	1810b680 	call	1810b68 <__call_exitprocs>
 181099c:	00806074 	movhi	r2,385
 18109a0:	108c3804 	addi	r2,r2,12512
 18109a4:	11000017 	ldw	r4,0(r2)
 18109a8:	20800f17 	ldw	r2,60(r4)
 18109ac:	10000126 	beq	r2,zero,18109b4 <exit+0x30>
 18109b0:	103ee83a 	callr	r2
 18109b4:	8009883a 	mov	r4,r16
 18109b8:	1810d580 	call	1810d58 <_exit>

018109bc <memcmp>:
 18109bc:	00c000c4 	movi	r3,3
 18109c0:	1980032e 	bgeu	r3,r6,18109d0 <memcmp+0x14>
 18109c4:	2144b03a 	or	r2,r4,r5
 18109c8:	10c4703a 	and	r2,r2,r3
 18109cc:	10000f26 	beq	r2,zero,1810a0c <memcmp+0x50>
 18109d0:	31ffffc4 	addi	r7,r6,-1
 18109d4:	3000061e 	bne	r6,zero,18109f0 <memcmp+0x34>
 18109d8:	00000a06 	br	1810a04 <memcmp+0x48>
 18109dc:	39ffffc4 	addi	r7,r7,-1
 18109e0:	00bfffc4 	movi	r2,-1
 18109e4:	21000044 	addi	r4,r4,1
 18109e8:	29400044 	addi	r5,r5,1
 18109ec:	38800526 	beq	r7,r2,1810a04 <memcmp+0x48>
 18109f0:	20c00003 	ldbu	r3,0(r4)
 18109f4:	28800003 	ldbu	r2,0(r5)
 18109f8:	18bff826 	beq	r3,r2,18109dc <memcmp+0x20>
 18109fc:	1885c83a 	sub	r2,r3,r2
 1810a00:	f800283a 	ret
 1810a04:	0005883a 	mov	r2,zero
 1810a08:	f800283a 	ret
 1810a0c:	180f883a 	mov	r7,r3
 1810a10:	20c00017 	ldw	r3,0(r4)
 1810a14:	28800017 	ldw	r2,0(r5)
 1810a18:	18bfed1e 	bne	r3,r2,18109d0 <memcmp+0x14>
 1810a1c:	31bfff04 	addi	r6,r6,-4
 1810a20:	21000104 	addi	r4,r4,4
 1810a24:	29400104 	addi	r5,r5,4
 1810a28:	39bff936 	bltu	r7,r6,1810a10 <memcmp+0x54>
 1810a2c:	003fe806 	br	18109d0 <memcmp+0x14>

01810a30 <__register_exitproc>:
 1810a30:	defffa04 	addi	sp,sp,-24
 1810a34:	00806074 	movhi	r2,385
 1810a38:	108c3804 	addi	r2,r2,12512
 1810a3c:	dc000015 	stw	r16,0(sp)
 1810a40:	14000017 	ldw	r16,0(r2)
 1810a44:	dd000415 	stw	r20,16(sp)
 1810a48:	2829883a 	mov	r20,r5
 1810a4c:	81405217 	ldw	r5,328(r16)
 1810a50:	dcc00315 	stw	r19,12(sp)
 1810a54:	dc800215 	stw	r18,8(sp)
 1810a58:	dc400115 	stw	r17,4(sp)
 1810a5c:	dfc00515 	stw	ra,20(sp)
 1810a60:	2023883a 	mov	r17,r4
 1810a64:	3027883a 	mov	r19,r6
 1810a68:	3825883a 	mov	r18,r7
 1810a6c:	28002526 	beq	r5,zero,1810b04 <__register_exitproc+0xd4>
 1810a70:	29000117 	ldw	r4,4(r5)
 1810a74:	008007c4 	movi	r2,31
 1810a78:	11002716 	blt	r2,r4,1810b18 <__register_exitproc+0xe8>
 1810a7c:	8800101e 	bne	r17,zero,1810ac0 <__register_exitproc+0x90>
 1810a80:	2105883a 	add	r2,r4,r4
 1810a84:	1085883a 	add	r2,r2,r2
 1810a88:	20c00044 	addi	r3,r4,1
 1810a8c:	1145883a 	add	r2,r2,r5
 1810a90:	0009883a 	mov	r4,zero
 1810a94:	15000215 	stw	r20,8(r2)
 1810a98:	28c00115 	stw	r3,4(r5)
 1810a9c:	2005883a 	mov	r2,r4
 1810aa0:	dfc00517 	ldw	ra,20(sp)
 1810aa4:	dd000417 	ldw	r20,16(sp)
 1810aa8:	dcc00317 	ldw	r19,12(sp)
 1810aac:	dc800217 	ldw	r18,8(sp)
 1810ab0:	dc400117 	ldw	r17,4(sp)
 1810ab4:	dc000017 	ldw	r16,0(sp)
 1810ab8:	dec00604 	addi	sp,sp,24
 1810abc:	f800283a 	ret
 1810ac0:	29802204 	addi	r6,r5,136
 1810ac4:	00800044 	movi	r2,1
 1810ac8:	110e983a 	sll	r7,r2,r4
 1810acc:	30c04017 	ldw	r3,256(r6)
 1810ad0:	2105883a 	add	r2,r4,r4
 1810ad4:	1085883a 	add	r2,r2,r2
 1810ad8:	1185883a 	add	r2,r2,r6
 1810adc:	19c6b03a 	or	r3,r3,r7
 1810ae0:	14802015 	stw	r18,128(r2)
 1810ae4:	14c00015 	stw	r19,0(r2)
 1810ae8:	00800084 	movi	r2,2
 1810aec:	30c04015 	stw	r3,256(r6)
 1810af0:	88bfe31e 	bne	r17,r2,1810a80 <__register_exitproc+0x50>
 1810af4:	30804117 	ldw	r2,260(r6)
 1810af8:	11c4b03a 	or	r2,r2,r7
 1810afc:	30804115 	stw	r2,260(r6)
 1810b00:	003fdf06 	br	1810a80 <__register_exitproc+0x50>
 1810b04:	00806074 	movhi	r2,385
 1810b08:	108ca304 	addi	r2,r2,12940
 1810b0c:	100b883a 	mov	r5,r2
 1810b10:	80805215 	stw	r2,328(r16)
 1810b14:	003fd606 	br	1810a70 <__register_exitproc+0x40>
 1810b18:	00800034 	movhi	r2,0
 1810b1c:	10800004 	addi	r2,r2,0
 1810b20:	1000021e 	bne	r2,zero,1810b2c <__register_exitproc+0xfc>
 1810b24:	013fffc4 	movi	r4,-1
 1810b28:	003fdc06 	br	1810a9c <__register_exitproc+0x6c>
 1810b2c:	01006404 	movi	r4,400
 1810b30:	103ee83a 	callr	r2
 1810b34:	1007883a 	mov	r3,r2
 1810b38:	103ffa26 	beq	r2,zero,1810b24 <__register_exitproc+0xf4>
 1810b3c:	80805217 	ldw	r2,328(r16)
 1810b40:	180b883a 	mov	r5,r3
 1810b44:	18000115 	stw	zero,4(r3)
 1810b48:	18800015 	stw	r2,0(r3)
 1810b4c:	80c05215 	stw	r3,328(r16)
 1810b50:	18006215 	stw	zero,392(r3)
 1810b54:	18006315 	stw	zero,396(r3)
 1810b58:	0009883a 	mov	r4,zero
 1810b5c:	883fc826 	beq	r17,zero,1810a80 <__register_exitproc+0x50>
 1810b60:	003fd706 	br	1810ac0 <__register_exitproc+0x90>

01810b64 <register_fini>:
 1810b64:	f800283a 	ret

01810b68 <__call_exitprocs>:
 1810b68:	00806074 	movhi	r2,385
 1810b6c:	108c3804 	addi	r2,r2,12512
 1810b70:	10800017 	ldw	r2,0(r2)
 1810b74:	defff304 	addi	sp,sp,-52
 1810b78:	df000b15 	stw	fp,44(sp)
 1810b7c:	d8800115 	stw	r2,4(sp)
 1810b80:	00800034 	movhi	r2,0
 1810b84:	10800004 	addi	r2,r2,0
 1810b88:	1005003a 	cmpeq	r2,r2,zero
 1810b8c:	d8800215 	stw	r2,8(sp)
 1810b90:	d8800117 	ldw	r2,4(sp)
 1810b94:	dd400815 	stw	r21,32(sp)
 1810b98:	dd000715 	stw	r20,28(sp)
 1810b9c:	10805204 	addi	r2,r2,328
 1810ba0:	dfc00c15 	stw	ra,48(sp)
 1810ba4:	ddc00a15 	stw	r23,40(sp)
 1810ba8:	dd800915 	stw	r22,36(sp)
 1810bac:	dcc00615 	stw	r19,24(sp)
 1810bb0:	dc800515 	stw	r18,20(sp)
 1810bb4:	dc400415 	stw	r17,16(sp)
 1810bb8:	dc000315 	stw	r16,12(sp)
 1810bbc:	282b883a 	mov	r21,r5
 1810bc0:	2039883a 	mov	fp,r4
 1810bc4:	d8800015 	stw	r2,0(sp)
 1810bc8:	2829003a 	cmpeq	r20,r5,zero
 1810bcc:	d8800117 	ldw	r2,4(sp)
 1810bd0:	14405217 	ldw	r17,328(r2)
 1810bd4:	88001026 	beq	r17,zero,1810c18 <__call_exitprocs+0xb0>
 1810bd8:	ddc00017 	ldw	r23,0(sp)
 1810bdc:	88800117 	ldw	r2,4(r17)
 1810be0:	8c802204 	addi	r18,r17,136
 1810be4:	143fffc4 	addi	r16,r2,-1
 1810be8:	80000916 	blt	r16,zero,1810c10 <__call_exitprocs+0xa8>
 1810bec:	05bfffc4 	movi	r22,-1
 1810bf0:	a000151e 	bne	r20,zero,1810c48 <__call_exitprocs+0xe0>
 1810bf4:	8409883a 	add	r4,r16,r16
 1810bf8:	2105883a 	add	r2,r4,r4
 1810bfc:	1485883a 	add	r2,r2,r18
 1810c00:	10c02017 	ldw	r3,128(r2)
 1810c04:	a8c01126 	beq	r21,r3,1810c4c <__call_exitprocs+0xe4>
 1810c08:	843fffc4 	addi	r16,r16,-1
 1810c0c:	85bff81e 	bne	r16,r22,1810bf0 <__call_exitprocs+0x88>
 1810c10:	d8800217 	ldw	r2,8(sp)
 1810c14:	10003126 	beq	r2,zero,1810cdc <__call_exitprocs+0x174>
 1810c18:	dfc00c17 	ldw	ra,48(sp)
 1810c1c:	df000b17 	ldw	fp,44(sp)
 1810c20:	ddc00a17 	ldw	r23,40(sp)
 1810c24:	dd800917 	ldw	r22,36(sp)
 1810c28:	dd400817 	ldw	r21,32(sp)
 1810c2c:	dd000717 	ldw	r20,28(sp)
 1810c30:	dcc00617 	ldw	r19,24(sp)
 1810c34:	dc800517 	ldw	r18,20(sp)
 1810c38:	dc400417 	ldw	r17,16(sp)
 1810c3c:	dc000317 	ldw	r16,12(sp)
 1810c40:	dec00d04 	addi	sp,sp,52
 1810c44:	f800283a 	ret
 1810c48:	8409883a 	add	r4,r16,r16
 1810c4c:	88c00117 	ldw	r3,4(r17)
 1810c50:	2105883a 	add	r2,r4,r4
 1810c54:	1445883a 	add	r2,r2,r17
 1810c58:	18ffffc4 	addi	r3,r3,-1
 1810c5c:	11800217 	ldw	r6,8(r2)
 1810c60:	1c001526 	beq	r3,r16,1810cb8 <__call_exitprocs+0x150>
 1810c64:	10000215 	stw	zero,8(r2)
 1810c68:	303fe726 	beq	r6,zero,1810c08 <__call_exitprocs+0xa0>
 1810c6c:	00c00044 	movi	r3,1
 1810c70:	1c06983a 	sll	r3,r3,r16
 1810c74:	90804017 	ldw	r2,256(r18)
 1810c78:	8cc00117 	ldw	r19,4(r17)
 1810c7c:	1884703a 	and	r2,r3,r2
 1810c80:	10001426 	beq	r2,zero,1810cd4 <__call_exitprocs+0x16c>
 1810c84:	90804117 	ldw	r2,260(r18)
 1810c88:	1884703a 	and	r2,r3,r2
 1810c8c:	10000c1e 	bne	r2,zero,1810cc0 <__call_exitprocs+0x158>
 1810c90:	2105883a 	add	r2,r4,r4
 1810c94:	1485883a 	add	r2,r2,r18
 1810c98:	11400017 	ldw	r5,0(r2)
 1810c9c:	e009883a 	mov	r4,fp
 1810ca0:	303ee83a 	callr	r6
 1810ca4:	88800117 	ldw	r2,4(r17)
 1810ca8:	98bfc81e 	bne	r19,r2,1810bcc <__call_exitprocs+0x64>
 1810cac:	b8800017 	ldw	r2,0(r23)
 1810cb0:	147fd526 	beq	r2,r17,1810c08 <__call_exitprocs+0xa0>
 1810cb4:	003fc506 	br	1810bcc <__call_exitprocs+0x64>
 1810cb8:	8c000115 	stw	r16,4(r17)
 1810cbc:	003fea06 	br	1810c68 <__call_exitprocs+0x100>
 1810cc0:	2105883a 	add	r2,r4,r4
 1810cc4:	1485883a 	add	r2,r2,r18
 1810cc8:	11000017 	ldw	r4,0(r2)
 1810ccc:	303ee83a 	callr	r6
 1810cd0:	003ff406 	br	1810ca4 <__call_exitprocs+0x13c>
 1810cd4:	303ee83a 	callr	r6
 1810cd8:	003ff206 	br	1810ca4 <__call_exitprocs+0x13c>
 1810cdc:	88800117 	ldw	r2,4(r17)
 1810ce0:	1000081e 	bne	r2,zero,1810d04 <__call_exitprocs+0x19c>
 1810ce4:	89000017 	ldw	r4,0(r17)
 1810ce8:	20000726 	beq	r4,zero,1810d08 <__call_exitprocs+0x1a0>
 1810cec:	b9000015 	stw	r4,0(r23)
 1810cf0:	8809883a 	mov	r4,r17
 1810cf4:	00000000 	call	0 <_start-0x1800000>
 1810cf8:	bc400017 	ldw	r17,0(r23)
 1810cfc:	883fb71e 	bne	r17,zero,1810bdc <__call_exitprocs+0x74>
 1810d00:	003fc506 	br	1810c18 <__call_exitprocs+0xb0>
 1810d04:	89000017 	ldw	r4,0(r17)
 1810d08:	882f883a 	mov	r23,r17
 1810d0c:	2023883a 	mov	r17,r4
 1810d10:	883fb21e 	bne	r17,zero,1810bdc <__call_exitprocs+0x74>
 1810d14:	003fc006 	br	1810c18 <__call_exitprocs+0xb0>

01810d18 <alt_sim_halt>:

/*
 * Routine called on exit.
 */
static ALT_ALWAYS_INLINE void alt_sim_halt(int exit_code)
{
 1810d18:	defffd04 	addi	sp,sp,-12
 1810d1c:	df000215 	stw	fp,8(sp)
 1810d20:	df000204 	addi	fp,sp,8
 1810d24:	e13fff15 	stw	r4,-4(fp)
  int r2 = exit_code;
 1810d28:	e0bfff17 	ldw	r2,-4(fp)
 1810d2c:	e0bffe15 	stw	r2,-8(fp)
  __asm__ volatile ("\n0:\n\taddi %0,%0, -1\n\tbgt %0,zero,0b" : : "r" (ALT_CPU_FREQ/100) ); /* Delay for >30ms */

  __asm__ volatile ("break 2" : : "D02"(r2), "D03"(r3) ALT_GMON_DATA );

#else /* !DEBUG_STUB */
  if (r2) {
 1810d30:	e0bffe17 	ldw	r2,-8(fp)
 1810d34:	1005003a 	cmpeq	r2,r2,zero
 1810d38:	1000021e 	bne	r2,zero,1810d44 <alt_sim_halt+0x2c>
    ALT_SIM_FAIL();
 1810d3c:	002af070 	cmpltui	zero,zero,43969
 1810d40:	00000106 	br	1810d48 <alt_sim_halt+0x30>
  } else {
    ALT_SIM_PASS();
 1810d44:	002af0b0 	cmpltui	zero,zero,43970
  }
#endif /* DEBUG_STUB */
}
 1810d48:	e037883a 	mov	sp,fp
 1810d4c:	df000017 	ldw	fp,0(sp)
 1810d50:	dec00104 	addi	sp,sp,4
 1810d54:	f800283a 	ret

01810d58 <_exit>:
 *
 * ALT_EXIT is mapped onto the _exit() system call in alt_syscall.h
 */

void ALT_EXIT (int exit_code)
{
 1810d58:	defffd04 	addi	sp,sp,-12
 1810d5c:	dfc00215 	stw	ra,8(sp)
 1810d60:	df000115 	stw	fp,4(sp)
 1810d64:	df000104 	addi	fp,sp,4
 1810d68:	e13fff15 	stw	r4,-4(fp)
  ALT_OS_STOP();

  /* Provide notification to the simulator that we've stopped */

  ALT_LOG_PRINT_BOOT("[alt_exit.c] Calling ALT_SIM_HALT().\r\n");
  ALT_SIM_HALT(exit_code);
 1810d6c:	e13fff17 	ldw	r4,-4(fp)
 1810d70:	1810d180 	call	1810d18 <alt_sim_halt>

  /* spin forever, since there's no where to go back to */

  ALT_LOG_PRINT_BOOT("[alt_exit.c] Spinning forever.\r\n");
  while (1);
 1810d74:	003fff06 	br	1810d74 <_exit+0x1c>
 1810d78:	00000010 	cmplti	zero,zero,0
 1810d7c:	00000000 	call	0 <_start-0x1800000>
 1810d80:	00527a01 	jmpi	527a0 <_start-0x17ad860>
 1810d84:	011f7c01 	jmpi	11f7c0 <_start-0x16e0840>
 1810d88:	001b0c0b 	ldhu	zero,27696(zero)
 1810d8c:	00000028 	cmpgeui	zero,zero,0
 1810d90:	00000018 	cmpnei	zero,zero,0
 1810d94:	01807ea4 	muli	r6,zero,506
 1810d98:	000005dc 	xori	zero,zero,23
 1810d9c:	400e4400 	call	400e440 <alt_instruction_exception_entry+0x180627c>
 1810da0:	92099170 	cmpltui	r8,r18,9797
 1810da4:	95079308 	cmpgei	r20,r18,7756
 1810da8:	97049605 	stb	fp,4696(r18)
 1810dac:	90019f03 	ldbu	zero,1660(r18)
 1810db0:	9c06940a 	0x9c06940a
 1810db4:	00000002 	0x2
 1810db8:	00000028 	cmpgeui	zero,zero,0
 1810dbc:	00000044 	movi	zero,1
 1810dc0:	01808480 	call	180848 <_start-0x167f7b8>
 1810dc4:	000005b0 	cmpltui	zero,zero,22
 1810dc8:	3c0e4400 	call	3c0e440 <alt_instruction_exception_entry+0x140627c>
 1810dcc:	92099168 	cmpgeui	r8,r18,9797
 1810dd0:	95079308 	cmpgei	r20,r18,7756
 1810dd4:	9c039705 	stb	r16,3676(r19)
 1810dd8:	90019f02 	0x90019f02
 1810ddc:	9606940a 	0x9606940a
 1810de0:	00000004 	movi	zero,0
 1810de4:	01810b64 	muli	r6,zero,1069
