
HelloWorldnew.elf:     file format elf32-littlenios2
HelloWorldnew.elf
architecture: nios2, flags 0x00000112:
EXEC_P, HAS_SYMS, D_PAGED
start address 0x01800000

Program Header:
    LOAD off    0x00001000 vaddr 0x01800000 paddr 0x01800000 align 2**12
         filesz 0x00012b7c memsz 0x00012e6c flags rwx
    LOAD off    0x00014000 vaddr 0x02400000 paddr 0x02400000 align 2**12
         filesz 0x00000000 memsz 0x00000000 flags r-x
    LOAD off    0x00014020 vaddr 0x02808020 paddr 0x02808020 align 2**12
         filesz 0x0000020c memsz 0x0000020c flags r-x

Sections:
Idx Name          Size      VMA       LMA       File off  Algn
  0 .entry        00000000  02400000  02400000  00014000  2**5
                  CONTENTS, ALLOC, LOAD, READONLY, CODE
  1 .exceptions   0000020c  02808020  02808020  00014020  2**2
                  CONTENTS, ALLOC, LOAD, READONLY, CODE
  2 .text         00010844  01800000  01800000  00001000  2**2
                  CONTENTS, ALLOC, LOAD, READONLY, CODE
  3 .rodata       00000610  01810844  01810844  00011844  2**2
                  CONTENTS, ALLOC, LOAD, READONLY, DATA
  4 .rwdata       00001d28  01810e54  01810e54  00011e54  2**2
                  CONTENTS, ALLOC, LOAD, DATA, SMALL_DATA
  5 .bss          000002f0  01812b7c  01812b7c  00013b7c  2**2
                  ALLOC, SMALL_DATA
  6 .comment      00000026  00000000  00000000  0001422c  2**0
                  CONTENTS, READONLY
  7 .debug_aranges 00000df8  00000000  00000000  00014258  2**3
                  CONTENTS, READONLY, DEBUGGING
  8 .debug_pubnames 0000199d  00000000  00000000  00015050  2**0
                  CONTENTS, READONLY, DEBUGGING
  9 .debug_info   000297fb  00000000  00000000  000169ed  2**0
                  CONTENTS, READONLY, DEBUGGING
 10 .debug_abbrev 00008901  00000000  00000000  000401e8  2**0
                  CONTENTS, READONLY, DEBUGGING
 11 .debug_line   00016a97  00000000  00000000  00048ae9  2**0
                  CONTENTS, READONLY, DEBUGGING
 12 .debug_frame  00001f60  00000000  00000000  0005f580  2**2
                  CONTENTS, READONLY, DEBUGGING
 13 .debug_str    000024f9  00000000  00000000  000614e0  2**0
                  CONTENTS, READONLY, DEBUGGING
 14 .debug_loc    0000c760  00000000  00000000  000639d9  2**0
                  CONTENTS, READONLY, DEBUGGING
 15 .debug_alt_sim_info 00000050  00000000  00000000  0007013c  2**2
                  CONTENTS, READONLY, DEBUGGING
 16 .debug_ranges 00000970  00000000  00000000  00070190  2**3
                  CONTENTS, READONLY, DEBUGGING
 17 .thread_model 00000003  00000000  00000000  00074518  2**0
                  CONTENTS, READONLY
 18 .cpu          00000003  00000000  00000000  0007451b  2**0
                  CONTENTS, READONLY
 19 .simulation_enabled 00000001  00000000  00000000  0007451e  2**0
                  CONTENTS, READONLY
 20 .sysid_hash   00000004  00000000  00000000  0007451f  2**0
                  CONTENTS, READONLY
 21 .sysid_base   00000004  00000000  00000000  00074523  2**0
                  CONTENTS, READONLY
 22 .sysid_time   00000004  00000000  00000000  00074527  2**0
                  CONTENTS, READONLY
 23 .stderr_dev   00000009  00000000  00000000  0007452b  2**0
                  CONTENTS, READONLY
 24 .stdin_dev    00000009  00000000  00000000  00074534  2**0
                  CONTENTS, READONLY
 25 .stdout_dev   00000009  00000000  00000000  0007453d  2**0
                  CONTENTS, READONLY
 26 .sopc_system_name 00000008  00000000  00000000  00074546  2**0
                  CONTENTS, READONLY
 27 .quartus_project_dir 00000052  00000000  00000000  0007454e  2**0
                  CONTENTS, READONLY
 28 .jdi          00004101  00000000  00000000  000745a0  2**0
                  CONTENTS, READONLY
 29 .sopcinfo     000b904b  00000000  00000000  000786a1  2**0
                  CONTENTS, READONLY
SYMBOL TABLE:
02400000 l    d  .entry	00000000 .entry
02808020 l    d  .exceptions	00000000 .exceptions
01800000 l    d  .text	00000000 .text
01810844 l    d  .rodata	00000000 .rodata
01810e54 l    d  .rwdata	00000000 .rwdata
01812b7c l    d  .bss	00000000 .bss
00000000 l    d  .comment	00000000 .comment
00000000 l    d  .debug_aranges	00000000 .debug_aranges
00000000 l    d  .debug_pubnames	00000000 .debug_pubnames
00000000 l    d  .debug_info	00000000 .debug_info
00000000 l    d  .debug_abbrev	00000000 .debug_abbrev
00000000 l    d  .debug_line	00000000 .debug_line
00000000 l    d  .debug_frame	00000000 .debug_frame
00000000 l    d  .debug_str	00000000 .debug_str
00000000 l    d  .debug_loc	00000000 .debug_loc
00000000 l    d  .debug_alt_sim_info	00000000 .debug_alt_sim_info
00000000 l    d  .debug_ranges	00000000 .debug_ranges
01800044 l       .text	00000000 alt_after_alt_main
00000000 l    df *ABS*	00000000 alt_irq_handler.c
00000000 l    df *ABS*	00000000 alt_instruction_exception_entry.c
00000000 l    df *ABS*	00000000 hello_world.c
00000000 l    df *ABS*	00000000 pwm.c
00000000 l    df *ABS*	00000000 printf.c
00000000 l    df *ABS*	00000000 puts.c
00000000 l    df *ABS*	00000000 strlen.c
00000000 l    df *ABS*	00000000 vfprintf.c
0180070c l     F .text	00000058 __sprint_r
018108de l     O .rodata	00000010 blanks.3452
018108ce l     O .rodata	00000010 zeroes.3453
00000000 l    df *ABS*	00000000 wsetup.c
00000000 l    df *ABS*	00000000 dtoa.c
01802770 l     F .text	00000218 quorem
00000000 l    df *ABS*	00000000 fflush.c
00000000 l    df *ABS*	00000000 findfp.c
0180416c l     F .text	00000058 std
01804278 l     F .text	00000008 __fp_lock
01804280 l     F .text	00000008 __fp_unlock
00000000 l    df *ABS*	00000000 mallocr.c
00000000 l    df *ABS*	00000000 fvwrite.c
00000000 l    df *ABS*	00000000 fwalk.c
00000000 l    df *ABS*	00000000 impure.c
01810e54 l     O .rwdata	00000400 impure_data
00000000 l    df *ABS*	00000000 locale.c
01812b38 l     O .rwdata	00000004 charset
01810914 l     O .rodata	00000030 lconv
00000000 l    df *ABS*	00000000 makebuf.c
00000000 l    df *ABS*	00000000 mallocr.c
00000000 l    df *ABS*	00000000 memchr.c
00000000 l    df *ABS*	00000000 memcpy.c
00000000 l    df *ABS*	00000000 memmove.c
00000000 l    df *ABS*	00000000 memset.c
00000000 l    df *ABS*	00000000 mprec.c
01810a5c l     O .rodata	0000000c p05.2458
00000000 l    df *ABS*	00000000 mallocr.c
00000000 l    df *ABS*	00000000 s_isinfd.c
00000000 l    df *ABS*	00000000 s_isnand.c
00000000 l    df *ABS*	00000000 sbrkr.c
00000000 l    df *ABS*	00000000 stdio.c
00000000 l    df *ABS*	00000000 strcmp.c
00000000 l    df *ABS*	00000000 writer.c
00000000 l    df *ABS*	00000000 mallocr.c
00000000 l    df *ABS*	00000000 closer.c
00000000 l    df *ABS*	00000000 fclose.c
00000000 l    df *ABS*	00000000 fstatr.c
00000000 l    df *ABS*	00000000 int_errno.c
00000000 l    df *ABS*	00000000 isattyr.c
00000000 l    df *ABS*	00000000 lseekr.c
00000000 l    df *ABS*	00000000 readr.c
00000000 l    df *ABS*	00000000 libgcc2.c
00000000 l    df *ABS*	00000000 libgcc2.c
00000000 l    df *ABS*	00000000 dp-bit.c
0180840c l     F .text	00000410 _fpadd_parts
00000000 l    df *ABS*	00000000 dp-bit.c
00000000 l    df *ABS*	00000000 dp-bit.c
00000000 l    df *ABS*	00000000 dp-bit.c
00000000 l    df *ABS*	00000000 dp-bit.c
00000000 l    df *ABS*	00000000 dp-bit.c
00000000 l    df *ABS*	00000000 dp-bit.c
00000000 l    df *ABS*	00000000 dp-bit.c
00000000 l    df *ABS*	00000000 dp-bit.c
00000000 l    df *ABS*	00000000 dp-bit.c
00000000 l    df *ABS*	00000000 dp-bit.c
00000000 l    df *ABS*	00000000 dp-bit.c
00000000 l    df *ABS*	00000000 lib2-divmod.c
01809538 l     F .text	0000007c udivmodsi4
00000000 l    df *ABS*	00000000 libgcc2.c
00000000 l    df *ABS*	00000000 libgcc2.c
00000000 l    df *ABS*	00000000 libgcc2.c
00000000 l    df *ABS*	00000000 dp-bit.c
00000000 l    df *ABS*	00000000 dp-bit.c
00000000 l    df *ABS*	00000000 dp-bit.c
00000000 l    df *ABS*	00000000 alt_close.c
01809dac l     F .text	00000060 alt_get_errno
00000000 l    df *ABS*	00000000 alt_dev.c
01809e0c l     F .text	0000002c alt_dev_null_write
00000000 l    df *ABS*	00000000 alt_errno.c
00000000 l    df *ABS*	00000000 alt_fstat.c
01809f0c l     F .text	00000060 alt_get_errno
00000000 l    df *ABS*	00000000 alt_isatty.c
0180a02c l     F .text	00000060 alt_get_errno
00000000 l    df *ABS*	00000000 alt_lseek.c
0180a17c l     F .text	00000060 alt_get_errno
00000000 l    df *ABS*	00000000 alt_main.c
00000000 l    df *ABS*	00000000 alt_malloc_lock.c
00000000 l    df *ABS*	00000000 alt_read.c
0180a3a8 l     F .text	00000060 alt_get_errno
00000000 l    df *ABS*	00000000 alt_release_fd.c
00000000 l    df *ABS*	00000000 alt_sbrk.c
01812b5c l     O .rwdata	00000004 heap_end
00000000 l    df *ABS*	00000000 alt_usleep.c
00000000 l    df *ABS*	00000000 alt_write.c
0180a674 l     F .text	00000060 alt_get_errno
00000000 l    df *ABS*	00000000 alt_sys_init.c
01811810 l     O .rwdata	000000d8 cfi_flash
018118e8 l     O .rwdata	00001060 jtag_uart
01812948 l     O .rwdata	00000120 lcd
01812a68 l     O .rwdata	000000c4 uart
0180a7a4 l     F .text	00000038 alt_dev_reg
00000000 l    df *ABS*	00000000 altera_avalon_cfi_flash.c
0180a878 l     F .text	00000038 alt_flash_device_register
00000000 l    df *ABS*	00000000 altera_avalon_cfi_flash_table.c
0180b678 l     F .text	0000007c alt_read_16bit_query_entry
00000000 l    df *ABS*	00000000 altera_avalon_jtag_uart_fd.c
00000000 l    df *ABS*	00000000 altera_avalon_jtag_uart_init.c
0180c704 l     F .text	00000228 altera_avalon_jtag_uart_irq
0180c92c l     F .text	000000b0 altera_avalon_jtag_uart_timeout
00000000 l    df *ABS*	00000000 altera_avalon_jtag_uart_ioctl.c
00000000 l    df *ABS*	00000000 altera_avalon_jtag_uart_read.c
00000000 l    df *ABS*	00000000 altera_avalon_jtag_uart_write.c
00000000 l    df *ABS*	00000000 altera_avalon_lcd_16207.c
01812b60 l     O .rwdata	00000004 colstart
0180cfa8 l     F .text	000000b8 lcd_write_command
0180d060 l     F .text	000000d4 lcd_write_data
0180d134 l     F .text	000000c4 lcd_clear_screen
0180d1f8 l     F .text	000001ec lcd_repaint_screen
0180d3e4 l     F .text	000000c8 lcd_scroll_up
0180d4ac l     F .text	000002d0 lcd_handle_escape
0180dc80 l     F .text	000000cc alt_lcd_16207_timeout
00000000 l    df *ABS*	00000000 altera_avalon_lcd_16207_fd.c
00000000 l    df *ABS*	00000000 altera_avalon_timer_sc.c
0180dee0 l     F .text	00000070 alt_avalon_timer_sc_irq
00000000 l    df *ABS*	00000000 altera_avalon_uart_fd.c
00000000 l    df *ABS*	00000000 altera_avalon_uart_init.c
0180e1a0 l     F .text	0000009c altera_avalon_uart_irq
0180e23c l     F .text	000000e0 altera_avalon_uart_rxirq
0180e31c l     F .text	0000015c altera_avalon_uart_txirq
00000000 l    df *ABS*	00000000 altera_avalon_uart_read.c
0180e708 l     F .text	00000060 alt_get_errno
00000000 l    df *ABS*	00000000 altera_avalon_uart_write.c
0180e930 l     F .text	00000060 alt_get_errno
00000000 l    df *ABS*	00000000 alt_alarm_start.c
00000000 l    df *ABS*	00000000 alt_busy_sleep.c
00000000 l    df *ABS*	00000000 alt_dcache_flush.c
00000000 l    df *ABS*	00000000 alt_dev_llist_insert.c
0180ed3c l     F .text	00000060 alt_get_errno
00000000 l    df *ABS*	00000000 alt_do_ctors.c
00000000 l    df *ABS*	00000000 alt_do_dtors.c
00000000 l    df *ABS*	00000000 alt_flash_dev.c
00000000 l    df *ABS*	00000000 alt_iic.c
00000000 l    df *ABS*	00000000 alt_iic_isr_register.c
00000000 l    df *ABS*	00000000 alt_io_redirect.c
0180f200 l     F .text	000000c4 alt_open_fd
00000000 l    df *ABS*	00000000 alt_irq_vars.c
00000000 l    df *ABS*	00000000 alt_open.c
0180f33c l     F .text	000000dc alt_file_locked
0180f5a0 l     F .text	00000060 alt_get_errno
00000000 l    df *ABS*	00000000 alt_tick.c
00000000 l    df *ABS*	00000000 altera_nios2_irq.c
00000000 l    df *ABS*	00000000 altera_avalon_cfi_flash_amd.c
0180fb68 l     F .text	000000bc alt_write_word_amd
0180fa44 l     F .text	00000124 alt_wait_for_command_to_complete_amd
00000000 l    df *ABS*	00000000 altera_avalon_cfi_flash_intel.c
0180fe1c l     F .text	0000018c alt_unlock_block_intel
0180ffa8 l     F .text	000000dc alt_write_word_intel
00000000 l    df *ABS*	00000000 alt_find_dev.c
00000000 l    df *ABS*	00000000 alt_find_file.c
00000000 l    df *ABS*	00000000 alt_get_fd.c
00000000 l    df *ABS*	00000000 atexit.c
00000000 l    df *ABS*	00000000 ctype_.c
01810cd1 l     O .rodata	00000180 _ctype_b
00000000 l    df *ABS*	00000000 exit.c
00000000 l    df *ABS*	00000000 memcmp.c
00000000 l    df *ABS*	00000000 __atexit.c
00000000 l    df *ABS*	00000000 __call_atexit.c
018105c0 l     F .text	00000004 register_fini
00000000 l    df *ABS*	00000000 alt_exit.c
01810774 l     F .text	00000040 alt_sim_halt
01812bb0 g     O .bss	00000004 alt_instruction_exception_handler
01805f28 g     F .text	00000094 _mprec_log10
01806014 g     F .text	00000088 __any_on
01807720 g     F .text	00000070 _isatty_r
01810a34 g     O .rodata	00000028 __mprec_tinytens
0180a1dc g     F .text	0000006c alt_main
018005e4 g     F .text	000000a0 _puts_r
0180b138 g     F .text	00000048 alt_read_query_entry_32bit
01812bdc g     O .bss	00000100 alt_irq
01807790 g     F .text	00000078 _lseek_r
0180a8b0 g     F .text	000002c0 alt_flash_cfi_write
01808f2c g     F .text	00000088 __eqdf2
01812e6c g       *ABS*	00000000 __alt_heap_start
0180056c g     F .text	00000044 printf
018071ec g     F .text	00000068 __sseek
018041d4 g     F .text	000000a4 __sinit
01804eac g     F .text	00000084 _setlocale_r
018042d4 g     F .text	00000068 __sfmoreglue
0180a268 g     F .text	00000020 __malloc_unlock
018059a4 g     F .text	000000e0 memmove
018042c4 g     F .text	00000010 _cleanup
0180609c g     F .text	000000bc _Balloc
0180903c g     F .text	00000088 __gtdf2
00000000  w      *UND*	00000000 __errno
0180b2c4 g     F .text	00000048 alt_write_flash_command_32bit_device_16bit_mode
02400000 g     F .entry	00000000 __reset
018076ac g     F .text	00000074 _fstat_r
0180adcc g     F .text	000002e8 alt_flash_program_block
01812b94 g     O .bss	00000004 errno
01812b9c g     O .bss	00000004 alt_argv
0181ab2c g       *ABS*	00000000 _gp
0180a524 g     F .text	00000030 usleep
01811690 g     O .rwdata	00000180 alt_fd_list
01810084 g     F .text	00000094 alt_find_dev
01805904 g     F .text	000000a0 memcpy
018042b8 g     F .text	0000000c _cleanup_r
018091d4 g     F .text	000000f8 __floatsidf
0180f2c4 g     F .text	00000078 alt_io_redirect
0180914c g     F .text	00000088 __ltdf2
01810844 g       *ABS*	00000000 __DTOR_END__
01800684 g     F .text	00000014 puts
018102f0 g     F .text	000000dc alt_exception_cause_generated_bad_addr
0180f7a4 g     F .text	00000020 altera_nios2_irq_init
01805e78 g     F .text	000000b0 __ratio
0180cb44 g     F .text	00000224 altera_avalon_jtag_uart_read
00000000  w      *UND*	00000000 malloc
018005b0 g     F .text	00000034 _printf_r
01809674 g     F .text	00000008 __udivsi3
01809f6c g     F .text	000000c0 isatty
01810944 g     O .rodata	000000c8 __mprec_tens
01804e88 g     F .text	00000008 __locale_charset
01812b88 g     O .bss	00000004 __malloc_top_pad
01812b34 g     O .rwdata	00000004 __mb_cur_max
01804e90 g     F .text	0000000c _localeconv_r
01806794 g     F .text	0000003c __i2b
0180486c g     F .text	0000049c __sfvwrite_r
01807174 g     F .text	00000070 _sbrk_r
0180fc24 g     F .text	00000084 alt_program_intel
01807808 g     F .text	00000078 _read_r
0180ec10 g     F .text	00000078 alt_dcache_flush
01811254 g     O .rwdata	0000000c __lc_ctype
01812b54 g     O .rwdata	00000004 alt_max_fd
0180b0b4 g     F .text	00000040 alt_read_query_entry_8bit
01809ab0 g     F .text	00000138 __unpack_d
01807588 g     F .text	00000110 _fclose_r
0180fca8 g     F .text	00000174 alt_erase_block_intel
01804138 g     F .text	00000034 fflush
01812b8c g     O .bss	00000004 __malloc_max_sbrked_mem
0180889c g     F .text	00000074 __adddf3
01805d58 g     F .text	00000120 __b2d
01807e5c g     F .text	000005b0 __umoddi3
0180a08c g     F .text	000000f0 lseek
01812b30 g     O .rwdata	00000004 _global_impure_ptr
01806b10 g     F .text	000005f4 _realloc_r
01812e6c g       *ABS*	00000000 __bss_end
0180f108 g     F .text	000000f8 alt_iic_isr_register
0180f698 g     F .text	0000010c alt_tick
01807880 g     F .text	000005dc __udivdi3
01810a0c g     O .rodata	00000028 __mprec_bigtens
018069f0 g     F .text	00000120 __s2b
018093a4 g     F .text	00000194 __floatunsidf
01805c78 g     F .text	00000060 __mcmp
0180e0d8 g     F .text	000000c8 altera_avalon_uart_init
01812b78 g     O .rwdata	00000004 __ctype_ptr
018042a0 g     F .text	00000018 __fp_lock_all
0180f0c0 g     F .text	00000048 alt_ic_irq_enabled
0180f600 g     F .text	00000098 alt_alarm_stop
01812ba4 g     O .bss	00000004 alt_irq_active
02808000 g       *ABS*	00000000 __alt_mem_onchip_mem
028080fc g     F .exceptions	000000c8 alt_irq_handler
01811668 g     O .rwdata	00000028 alt_dev_null
0180b5cc g     F .text	000000ac alt_set_flash_algorithm_func
01805b44 g     F .text	00000070 __hi0bits
018092cc g     F .text	000000d8 __fixdfsi
0180043c g     F .text	00000130 Set_Servo_Position
0180b180 g     F .text	0000003c alt_write_flash_command_8bit_device_8bit_mode
01812b4c g     O .rwdata	00000008 alt_dev_list
0180a554 g     F .text	00000120 write
01809e38 g     F .text	000000d4 fstat
0180c420 g     F .text	000000dc alt_check_primary_table
018068d0 g     F .text	00000120 __pow5mult
01812b7c g     O .bss	00000004 __nlocale_changed
0180967c g     F .text	00000008 __umodsi3
0180ac00 g     F .text	00000068 alt_flash_cfi_read
0180b354 g     F .text	00000034 alt_write_native_8bit
01812e6c g       *ABS*	00000000 end
0180b1bc g     F .text	0000007c alt_write_flash_command_16bit_device_8bit_mode
0180d77c g     F .text	00000504 altera_avalon_lcd_16207_write
0180e768 g     F .text	000001c8 altera_avalon_uart_write
0180b6f4 g     F .text	00000580 alt_read_cfi_table
0180c644 g     F .text	000000c0 altera_avalon_jtag_uart_init
028081c4 g     F .exceptions	00000068 alt_instruction_exception_entry
01810840 g       *ABS*	00000000 __CTOR_LIST__
02000000 g       *ABS*	00000000 __alt_stack_pointer
0180df50 g     F .text	00000090 alt_avalon_timer_sc_init
0180e038 g     F .text	00000058 altera_avalon_uart_write_fd
0180971c g     F .text	00000080 __clzsi2
0180e090 g     F .text	00000048 altera_avalon_uart_close_fd
0180cd68 g     F .text	00000240 altera_avalon_jtag_uart_write
0180a7dc g     F .text	0000009c alt_flash_cfi_init
0180015c g     F .text	000001e8 Initilise_PWM
018041c4 g     F .text	00000004 __sfp_lock_acquire
01805820 g     F .text	000000e4 memchr
01800764 g     F .text	00001eac ___vfprintf_internal_r
01804558 g     F .text	00000314 _free_r
018105c4 g     F .text	000001b0 __call_exitprocs
01812b80 g     O .bss	00000004 __mlocale_changed
01812b40 g     O .rwdata	00000004 __malloc_sbrk_base
01800000 g     F .text	00000048 _start
01812ba8 g     O .bss	00000004 _alt_tick_rate
01806460 g     F .text	0000014c __lshift
01812bac g     O .bss	00000004 _alt_nticks
0180a288 g     F .text	00000120 read
0180a708 g     F .text	0000009c alt_sys_init
0181048c g     F .text	00000134 __register_exitproc
0180b0f4 g     F .text	00000044 alt_read_query_entry_16bit
018065ac g     F .text	000001e8 __multiply
0180c9dc g     F .text	00000074 altera_avalon_jtag_uart_close
01812bb4 g     O .bss	00000028 __malloc_current_mallinfo
0180b3ec g     F .text	000001e0 alt_set_flash_width_func
01806158 g     F .text	0000017c __d2b
0180c4fc g     F .text	00000058 altera_avalon_jtag_uart_read_fd
01810238 g     F .text	000000b8 alt_get_fd
0180eae4 g     F .text	0000012c alt_busy_sleep
01809be8 g     F .text	000000c8 __fpcmp_parts_d
01807518 g     F .text	00000070 _close_r
0180f82c g     F .text	00000218 alt_erase_block_amd
01810418 g     F .text	00000074 memcmp
0180c5ac g     F .text	00000048 altera_avalon_jtag_uart_close_fd
01812e6c g       *ABS*	00000000 __alt_stack_base
0180c5f4 g     F .text	00000050 altera_avalon_jtag_uart_ioctl_fd
01802634 g     F .text	0000013c __swsetup_r
0180bc74 g     F .text	000007ac alt_read_cfi_width
01808cd4 g     F .text	00000258 __divdf3
0180433c g     F .text	000000f0 __sfp
01805fbc g     F .text	00000058 __copybits
01811260 g     O .rwdata	00000408 __malloc_av_
018041d0 g     F .text	00000004 __sinit_lock_release
01808910 g     F .text	000003c4 __muldf3
018072d0 g     F .text	00000060 __sread
01810118 g     F .text	00000120 alt_find_file
01800344 g     F .text	000000f8 Set_PWM_Duty_Cycle
0180ec88 g     F .text	000000b4 alt_dev_llist_insert
0180a248 g     F .text	00000020 __malloc_lock
0180a468 g     F .text	000000bc sbrk
01803f3c g     F .text	000001fc _fflush_r
01807464 g     F .text	000000b4 _calloc_r
01812b64 g     O .rwdata	00000008 alt_flash_dev_list
0180b280 g     F .text	00000044 alt_write_flash_command_16bit_device_16bit_mode
01812b7c g       *ABS*	00000000 __bss_start
01805a84 g     F .text	00000098 memset
01800048 g     F .text	00000114 main
01812ba0 g     O .bss	00000004 alt_envp
01812b90 g     O .bss	00000004 __malloc_max_total_mem
0180c554 g     F .text	00000058 altera_avalon_jtag_uart_write_fd
0180dd4c g     F .text	0000013c altera_avalon_lcd_16207_init
018071e4 g     F .text	00000008 __sclose
02000000 g       *ABS*	00000000 __alt_heap_limit
01807698 g     F .text	00000014 fclose
01812cdc g     O .bss	00000190 _atexit0
01802988 g     F .text	000015b4 _dtoa_r
018050e0 g     F .text	00000740 _malloc_r
01812b58 g     O .rwdata	00000004 alt_errno
0180b30c g     F .text	00000048 alt_write_flash_command_32bit_device_32bit_mode
01804dd0 g     F .text	000000b8 _fwalk
0180ac68 g     F .text	00000164 alt_write_value_to_flash
0180b388 g     F .text	00000034 alt_write_native_16bit
018095b4 g     F .text	00000060 __divsi3
02400000 g       *ABS*	00000000 __alt_mem_cfi_flash
01810a68 g     O .rodata	00000014 __thenan_df
0180442c g     F .text	0000012c _malloc_trim_r
01810844 g       *ABS*	00000000 __CTOR_END__
01807330 g     F .text	000000bc strcmp
01810844 g       *ABS*	00000000 __DTOR_LIST__
01808fb4 g     F .text	00000088 __nedf2
0180a6d4 g     F .text	00000034 alt_irq_init
0180a408 g     F .text	00000060 alt_release_fd
01810a7c g     O .rodata	00000100 __clz_tab
01812b84 g     O .bss	00000004 _PathLocale
018103cc g     F .text	00000014 atexit
018073ec g     F .text	00000078 _write_r
01804f30 g     F .text	0000001c setlocale
01812b2c g     O .rwdata	00000004 _impure_ptr
01812b98 g     O .bss	00000004 alt_argc
0180ee00 g     F .text	00000064 _do_dtors
02808020 g       .exceptions	00000000 alt_irq_entry
01805cd8 g     F .text	00000080 __ulp
01807104 g     F .text	00000040 __isinfd
01804288 g     F .text	00000018 __fp_unlock_all
0180de88 g     F .text	00000058 altera_avalon_lcd_16207_write_fd
01812b44 g     O .rwdata	00000008 alt_fs_list
0180b238 g     F .text	00000048 alt_write_flash_command_32bit_device_8bit_mode
01804e9c g     F .text	00000010 localeconv
0180ef34 g     F .text	00000050 alt_ic_isr_register
01812b7c g       *ABS*	00000000 _edata
0180dfe0 g     F .text	00000058 altera_avalon_uart_read_fd
01812e6c g       *ABS*	00000000 _end
0180ee64 g     F .text	0000007c alt_flash_open_dev
0180ca50 g     F .text	000000f4 altera_avalon_jtag_uart_ioctl
0180f020 g     F .text	000000a0 alt_ic_irq_disable
01807254 g     F .text	0000007c __swrite
01812b3c g     O .rwdata	00000004 __malloc_trim_threshold
018103e0 g     F .text	00000038 exit
01804d08 g     F .text	000000c8 _fwalk_reent
018062d4 g     F .text	0000018c __mdiff
0180eee0 g     F .text	00000054 alt_flash_close_dev
01809614 g     F .text	00000060 __modsi3
02000000 g       *ABS*	00000000 __alt_data_end
02808020 g     F .exceptions	00000000 alt_exception
018041c8 g     F .text	00000004 __sfp_lock_release
01800000 g       *ABS*	00000000 __alt_mem_sdram
01810bd0 g     O .rodata	00000101 _ctype_
0180e478 g     F .text	00000060 altera_avalon_uart_close
018107b4 g     F .text	00000020 _exit
01807144 g     F .text	00000030 __isnand
0180e990 g     F .text	00000154 alt_alarm_start
01809684 g     F .text	00000098 __muldi3
01804f4c g     F .text	00000194 __smakebuf_r
0180b3bc g     F .text	00000030 alt_write_native_32bit
01800698 g     F .text	00000074 strlen
0180f418 g     F .text	00000188 open
018090c4 g     F .text	00000088 __gedf2
0180ab70 g     F .text	00000090 alt_flash_cfi_get_info
01812b6c g     O .rwdata	00000004 alt_priority_mask
0180ef84 g     F .text	0000009c alt_ic_irq_enable
01802610 g     F .text	00000024 __vfprintf_internal
0180e4d8 g     F .text	00000230 altera_avalon_uart_read
0180881c g     F .text	00000080 __subdf3
01805bb4 g     F .text	000000c4 __lo0bits
01812b70 g     O .rwdata	00000008 alt_alarm_list
0180ed9c g     F .text	00000064 _do_ctors
01809cb0 g     F .text	000000fc close
0180f7c4 g     F .text	00000068 alt_program_amd
0180979c g     F .text	00000314 __pack_d
00000000  w      *UND*	00000000 free
018041cc g     F .text	00000004 __sinit_lock_acquire
018067d0 g     F .text	00000100 __multadd
01805b1c g     F .text	00000028 _Bfree



Disassembly of section .exceptions:

02808020 <alt_exception>:
         * Process an exception.  For all exceptions we must preserve all
         * caller saved registers on the stack (See the Nios2 ABI
         * documentation for details).
         */

        addi  sp, sp, -76
 2808020:	deffed04 	addi	sp,sp,-76

#endif

#endif

        stw   ra,  0(sp)
 2808024:	dfc00015 	stw	ra,0(sp)
        /*
         * Leave a gap in the stack frame at 4(sp) for the muldiv handler to
         * store zero into.
         */

        stw   r1,   8(sp)
 2808028:	d8400215 	stw	at,8(sp)
        stw   r2,  12(sp)
 280802c:	d8800315 	stw	r2,12(sp)
        stw   r3,  16(sp)
 2808030:	d8c00415 	stw	r3,16(sp)
        stw   r4,  20(sp)
 2808034:	d9000515 	stw	r4,20(sp)
        stw   r5,  24(sp)
 2808038:	d9400615 	stw	r5,24(sp)
        stw   r6,  28(sp)
 280803c:	d9800715 	stw	r6,28(sp)
        stw   r7,  32(sp)
 2808040:	d9c00815 	stw	r7,32(sp)

        rdctl r5, estatus
 2808044:	000b307a 	rdctl	r5,estatus

        stw   r8,  36(sp)
 2808048:	da000915 	stw	r8,36(sp)
        stw   r9,  40(sp)
 280804c:	da400a15 	stw	r9,40(sp)
        stw   r10, 44(sp)
 2808050:	da800b15 	stw	r10,44(sp)
        stw   r11, 48(sp)
 2808054:	dac00c15 	stw	r11,48(sp)
        stw   r12, 52(sp)
 2808058:	db000d15 	stw	r12,52(sp)
        stw   r13, 56(sp)
 280805c:	db400e15 	stw	r13,56(sp)
        stw   r14, 60(sp)
 2808060:	db800f15 	stw	r14,60(sp)
        stw   r15, 64(sp)
 2808064:	dbc01015 	stw	r15,64(sp)
        /*
         * ea-4 contains the address of the instruction being executed
         * when the exception occured. For interrupt exceptions, we will
         * will be re-issue the isntruction. Store it in 72(sp)
         */
        stw   r5,  68(sp)  /* estatus */
 2808068:	d9401115 	stw	r5,68(sp)
        addi  r15, ea, -4  /* instruction that caused exception */
 280806c:	ebffff04 	addi	r15,ea,-4
        stw   r15,  72(sp)
 2808070:	dbc01215 	stw	r15,72(sp)
#else
        /*
         * Test to see if the exception was a software exception or caused 
         * by an external interrupt, and vector accordingly.
         */
        rdctl r4, ipending
 2808074:	0009313a 	rdctl	r4,ipending
        andi  r2, r5, 1
 2808078:	2880004c 	andi	r2,r5,1
        beq   r2, zero, .Lnot_irq
 280807c:	10000326 	beq	r2,zero,280808c <alt_exception+0x6c>
        beq   r4, zero, .Lnot_irq
 2808080:	20000226 	beq	r4,zero,280808c <alt_exception+0x6c>
        /*
         * Now that all necessary registers have been preserved, call 
         * alt_irq_handler() to process the interrupts.
         */

        call alt_irq_handler
 2808084:	28080fc0 	call	28080fc <alt_irq_handler>

        .section .exceptions.irqreturn, "xa"

        br    .Lexception_exit
 2808088:	00000706 	br	28080a8 <alt_exception+0x88>
         * upon completion, so we write ea (address of instruction *after*
         * the one where the exception occured) into 72(sp). The actual
         * instruction that caused the exception is written in r2, which these
         * handlers will utilize.
         */
        stw   ea,  72(sp)  /* Don't re-issue */
 280808c:	df401215 	stw	ea,72(sp)
        ldw   r2, -4(ea)   /* Instruction that caused exception */
 2808090:	e8bfff17 	ldw	r2,-4(ea)
         * debugger is present) or go into an infinite loop since the
         * handling behavior is undefined; in that case we will not return here.
         */

        /* Load exception-causing address as first argument (r4) */
        addi   r4, ea, -4
 2808094:	e93fff04 	addi	r4,ea,-4

        /* Call the instruction-exception entry */
        call   alt_instruction_exception_entry
 2808098:	28081c40 	call	28081c4 <alt_instruction_exception_entry>
         * instruction
         *
         * Return code was 0: Skip. The instruction after the exception is
         * already stored in 72(sp).
         */
        bne   r2, r0, .Lexception_exit
 280809c:	1000021e 	bne	r2,zero,28080a8 <alt_exception+0x88>

        /*
         * Otherwise, modify 72(sp) to re-issue the instruction that caused the
         * exception.
         */
        addi  r15, ea, -4  /* instruction that caused exception */
 28080a0:	ebffff04 	addi	r15,ea,-4
        stw   r15,  72(sp)
 28080a4:	dbc01215 	stw	r15,72(sp)
        /* 
         * Restore the saved registers, so that all general purpose registers 
         * have been restored to their state at the time the interrupt occured.
         */

        ldw   r5,  68(sp)
 28080a8:	d9401117 	ldw	r5,68(sp)
        ldw   ea,  72(sp)  /* This becomes the PC once eret is executed */
 28080ac:	df401217 	ldw	ea,72(sp)
        ldw   ra,   0(sp)
 28080b0:	dfc00017 	ldw	ra,0(sp)

        wrctl estatus, r5
 28080b4:	2801707a 	wrctl	estatus,r5

        ldw   r1,   8(sp)
 28080b8:	d8400217 	ldw	at,8(sp)
        ldw   r2,  12(sp)
 28080bc:	d8800317 	ldw	r2,12(sp)
        ldw   r3,  16(sp)
 28080c0:	d8c00417 	ldw	r3,16(sp)
        ldw   r4,  20(sp)
 28080c4:	d9000517 	ldw	r4,20(sp)
        ldw   r5,  24(sp)
 28080c8:	d9400617 	ldw	r5,24(sp)
        ldw   r6,  28(sp)
 28080cc:	d9800717 	ldw	r6,28(sp)
        ldw   r7,  32(sp)
 28080d0:	d9c00817 	ldw	r7,32(sp)
#ifdef ALT_STACK_CHECK
        ldw   et, %gprel(alt_exception_old_stack_limit)(gp)
#endif
#endif

        ldw   r8,  36(sp)
 28080d4:	da000917 	ldw	r8,36(sp)
        ldw   r9,  40(sp)
 28080d8:	da400a17 	ldw	r9,40(sp)
        ldw   r10, 44(sp)
 28080dc:	da800b17 	ldw	r10,44(sp)
        ldw   r11, 48(sp)
 28080e0:	dac00c17 	ldw	r11,48(sp)
        ldw   r12, 52(sp)
 28080e4:	db000d17 	ldw	r12,52(sp)
        ldw   r13, 56(sp)
 28080e8:	db400e17 	ldw	r13,56(sp)
        ldw   r14, 60(sp)
 28080ec:	db800f17 	ldw	r14,60(sp)
        ldw   r15, 64(sp)
 28080f0:	dbc01017 	ldw	r15,64(sp)
#endif

        ldw   sp,  76(sp)

#else
        addi  sp, sp, 76
 28080f4:	dec01304 	addi	sp,sp,76

        /*
         * Return to the interrupted instruction.
         */

        eret
 28080f8:	ef80083a 	eret

028080fc <alt_irq_handler>:
 * instruction is present if the macro ALT_CI_INTERRUPT_VECTOR defined.
 */

void alt_irq_handler (void) __attribute__ ((section (".exceptions")));
void alt_irq_handler (void)
{
 28080fc:	defff904 	addi	sp,sp,-28
 2808100:	dfc00615 	stw	ra,24(sp)
 2808104:	df000515 	stw	fp,20(sp)
 2808108:	df000504 	addi	fp,sp,20
#ifndef NIOS2_EIC_PRESENT
static ALT_INLINE alt_u32 ALT_ALWAYS_INLINE alt_irq_pending (void)
{
  alt_u32 active;

  NIOS2_READ_IPENDING (active);
 280810c:	0005313a 	rdctl	r2,ipending
 2808110:	e0bffc15 	stw	r2,-16(fp)

  return active;
 2808114:	e0bffc17 	ldw	r2,-16(fp)
   * Consider the case where the high priority interupt is asserted during
   * the interrupt entry sequence for a lower priority interrupt to see why
   * this is the case.
   */

  active = alt_irq_pending ();
 2808118:	e0bfff15 	stw	r2,-4(fp)

  do
  {
    i = 0;
 280811c:	e03ffd15 	stw	zero,-12(fp)
    mask = 1;
 2808120:	00800044 	movi	r2,1
 2808124:	e0bffe15 	stw	r2,-8(fp)
     * called to clear the interrupt condition.
     */

    do
    {
      if (active & mask)
 2808128:	e0ffff17 	ldw	r3,-4(fp)
 280812c:	e0bffe17 	ldw	r2,-8(fp)
 2808130:	1884703a 	and	r2,r3,r2
 2808134:	1005003a 	cmpeq	r2,r2,zero
 2808138:	1000161e 	bne	r2,zero,2808194 <alt_irq_handler+0x98>
      { 
#ifdef ALT_ENHANCED_INTERRUPT_API_PRESENT
        alt_irq[i].handler(alt_irq[i].context); 
 280813c:	e0bffd17 	ldw	r2,-12(fp)
 2808140:	00c06074 	movhi	r3,385
 2808144:	18caf704 	addi	r3,r3,11228
 2808148:	100490fa 	slli	r2,r2,3
 280814c:	10c5883a 	add	r2,r2,r3
 2808150:	11400017 	ldw	r5,0(r2)
 2808154:	e0bffd17 	ldw	r2,-12(fp)
 2808158:	00c06074 	movhi	r3,385
 280815c:	18caf704 	addi	r3,r3,11228
 2808160:	100490fa 	slli	r2,r2,3
 2808164:	10c5883a 	add	r2,r2,r3
 2808168:	10800104 	addi	r2,r2,4
 280816c:	11000017 	ldw	r4,0(r2)
 2808170:	283ee83a 	callr	r5
#ifndef NIOS2_EIC_PRESENT
static ALT_INLINE alt_u32 ALT_ALWAYS_INLINE alt_irq_pending (void)
{
  alt_u32 active;

  NIOS2_READ_IPENDING (active);
 2808174:	0005313a 	rdctl	r2,ipending
 2808178:	e0bffb15 	stw	r2,-20(fp)

  return active;
 280817c:	e0bffb17 	ldw	r2,-20(fp)
      mask <<= 1;
      i++;

    } while (1);

    active = alt_irq_pending ();
 2808180:	e0bfff15 	stw	r2,-4(fp)
    
  } while (active);
 2808184:	e0bfff17 	ldw	r2,-4(fp)
 2808188:	1004c03a 	cmpne	r2,r2,zero
 280818c:	103fe31e 	bne	r2,zero,280811c <alt_irq_handler+0x20>
 2808190:	00000706 	br	28081b0 <alt_irq_handler+0xb4>
#else
        alt_irq[i].handler(alt_irq[i].context, i); 
#endif
        break;
      }
      mask <<= 1;
 2808194:	e0bffe17 	ldw	r2,-8(fp)
 2808198:	1085883a 	add	r2,r2,r2
 280819c:	e0bffe15 	stw	r2,-8(fp)
      i++;
 28081a0:	e0bffd17 	ldw	r2,-12(fp)
 28081a4:	10800044 	addi	r2,r2,1
 28081a8:	e0bffd15 	stw	r2,-12(fp)

    } while (1);
 28081ac:	003fde06 	br	2808128 <alt_irq_handler+0x2c>
  /*
   * Notify the operating system that interrupt processing is complete.
   */ 

  ALT_OS_INT_EXIT();
}
 28081b0:	e037883a 	mov	sp,fp
 28081b4:	dfc00117 	ldw	ra,4(sp)
 28081b8:	df000017 	ldw	fp,0(sp)
 28081bc:	dec00204 	addi	sp,sp,8
 28081c0:	f800283a 	ret

028081c4 <alt_instruction_exception_entry>:
 * using alt_instruction_exception_register(). This routine will call
 * that handler if it has been registered. Absent a handler, it will
 * break break or hang as discussed below.
 */
int alt_instruction_exception_entry (alt_u32 exception_pc)
{
 28081c4:	defffa04 	addi	sp,sp,-24
 28081c8:	dfc00515 	stw	ra,20(sp)
 28081cc:	df000415 	stw	fp,16(sp)
 28081d0:	df000404 	addi	fp,sp,16
 28081d4:	e13ffe15 	stw	r4,-8(fp)
  cause = ( (cause & NIOS2_EXCEPTION_REG_CAUSE_MASK) >>
              NIOS2_EXCEPTION_REG_CAUSE_OFST );

  NIOS2_READ_BADADDR(badaddr);
#else
  cause = NIOS2_EXCEPTION_CAUSE_NOT_PRESENT;
 28081d8:	00bfffc4 	movi	r2,-1
 28081dc:	e0bffd15 	stw	r2,-12(fp)
  badaddr = 0;
 28081e0:	e03ffc15 	stw	zero,-16(fp)
#endif /* NIOS2_HAS_EXTRA_EXCEPTION_INFO */

  if(alt_instruction_exception_handler) {
 28081e4:	d0a02117 	ldw	r2,-32636(gp)
 28081e8:	1005003a 	cmpeq	r2,r2,zero
 28081ec:	1000071e 	bne	r2,zero,280820c <alt_instruction_exception_entry+0x48>
     * Call handler. Its return value indicates whether the exception-causing
     * instruction should be re-issued. The code that called us,
     * alt_eceptions_entry.S, will look at this value and adjust the ea
     * register as necessary
     */
    return alt_instruction_exception_handler(cause, exception_pc, badaddr);
 28081f0:	d0a02117 	ldw	r2,-32636(gp)
 28081f4:	e13ffd17 	ldw	r4,-12(fp)
 28081f8:	e17ffe17 	ldw	r5,-8(fp)
 28081fc:	e1bffc17 	ldw	r6,-16(fp)
 2808200:	103ee83a 	callr	r2
 2808204:	e0bfff15 	stw	r2,-4(fp)
 2808208:	00000206 	br	2808214 <alt_instruction_exception_entry+0x50>
   *    (a peripheral which negates its interrupt output before its
   *    interrupt handler has been executed will cause spurious interrupts)
   */
  else {
#ifdef NIOS2_HAS_DEBUG_STUB
    NIOS2_BREAK();
 280820c:	003da03a 	break	0
      ;
#endif /* NIOS2_HAS_DEBUG_STUB */
  }

  /* // We should not get here. Remove compiler warning. */
  return NIOS2_EXCEPTION_RETURN_REISSUE_INST;
 2808210:	e03fff15 	stw	zero,-4(fp)
 2808214:	e0bfff17 	ldw	r2,-4(fp)
}
 2808218:	e037883a 	mov	sp,fp
 280821c:	dfc00117 	ldw	ra,4(sp)
 2808220:	df000017 	ldw	fp,0(sp)
 2808224:	dec00204 	addi	sp,sp,8
 2808228:	f800283a 	ret

Disassembly of section .text:

01800000 <_start>:

    /* Assume the data cache size is always a power of two. */
#if NIOS2_DCACHE_SIZE > 0x8000
    movhi r2, %hi(NIOS2_DCACHE_SIZE)
#else
    movui r2, NIOS2_DCACHE_SIZE
 1800000:	00840014 	movui	r2,4096
#endif

0:
    initd 0(r2)
 1800004:	10000033 	initd	0(r2)
    addi r2, r2, -NIOS2_DCACHE_LINE_SIZE
 1800008:	10bff804 	addi	r2,r2,-32
    bgt r2, zero, 0b
 180000c:	00bffd16 	blt	zero,r2,1800004 <_start+0x4>
#if (NIOS2_NUM_OF_SHADOW_REG_SETS == 0)    
    /*
     * Now that the caches are initialized, set up the stack pointer.
     * The value provided by the linker is assumed to be correctly aligned.
     */
    movhi sp, %hi(__alt_stack_pointer)
 1800010:	06c08034 	movhi	sp,512
    ori sp, sp, %lo(__alt_stack_pointer)
 1800014:	dec00014 	ori	sp,sp,0

    /* Set up the global pointer. */
    movhi gp, %hi(_gp)
 1800018:	06806074 	movhi	gp,385
    ori gp, gp, %lo(_gp)
 180001c:	d6aacb14 	ori	gp,gp,43820
 */
#ifndef ALT_SIM_OPTIMIZE
    /* Log that the BSS is about to be cleared. */
    ALT_LOG_PUTS(alt_log_msg_bss)

    movhi r2, %hi(__bss_start)
 1800020:	00806074 	movhi	r2,385
    ori r2, r2, %lo(__bss_start)
 1800024:	108adf14 	ori	r2,r2,11132

    movhi r3, %hi(__bss_end)
 1800028:	00c06074 	movhi	r3,385
    ori r3, r3, %lo(__bss_end)
 180002c:	18cb9b14 	ori	r3,r3,11884

    beq r2, r3, 1f
 1800030:	10c00326 	beq	r2,r3,1800040 <_start+0x40>

0:
    stw zero, (r2)
 1800034:	10000015 	stw	zero,0(r2)
    addi r2, r2, 4
 1800038:	10800104 	addi	r2,r2,4
    bltu r2, r3, 0b
 180003c:	10fffd36 	bltu	r2,r3,1800034 <_start+0x34>

    /* Log that alt_main is about to be called. */
    ALT_LOG_PUTS(alt_log_msg_alt_main)

    /* Call the C entry point. It should never return. */
    call alt_main
 1800040:	180a1dc0 	call	180a1dc <alt_main>

01800044 <alt_after_alt_main>:

    /* Wait in infinite loop in case alt_main does return. */
alt_after_alt_main:
    br alt_after_alt_main
 1800044:	003fff06 	br	1800044 <alt_after_alt_main>

01800048 <main>:

#include <stdio.h>
#include "pwm.h"

int main()
{
 1800048:	defffc04 	addi	sp,sp,-16
 180004c:	dfc00315 	stw	ra,12(sp)
 1800050:	df000215 	stw	fp,8(sp)
 1800054:	df000204 	addi	fp,sp,8
	printf("lololol lolol\n");
 1800058:	01006074 	movhi	r4,385
 180005c:	21021104 	addi	r4,r4,2116
 1800060:	18006840 	call	1800684 <puts>
  Initilise_PWM('G');
 1800064:	010011c4 	movi	r4,71
 1800068:	180015c0 	call	180015c <Initilise_PWM>
  Initilise_PWM('W');
 180006c:	010015c4 	movi	r4,87
 1800070:	180015c0 	call	180015c <Initilise_PWM>
  Initilise_PWM('E');
 1800074:	01001144 	movi	r4,69
 1800078:	180015c0 	call	180015c <Initilise_PWM>
  Initilise_PWM('S');
 180007c:	010014c4 	movi	r4,83
 1800080:	180015c0 	call	180015c <Initilise_PWM>
  Initilise_PWM('B');
 1800084:	01001084 	movi	r4,66
 1800088:	180015c0 	call	180015c <Initilise_PWM>
  printf("initialised\n");
 180008c:	01006074 	movhi	r4,385
 1800090:	21021504 	addi	r4,r4,2132
 1800094:	18006840 	call	1800684 <puts>
  int pwm = 75;
 1800098:	008012c4 	movi	r2,75
 180009c:	e0bfff15 	stw	r2,-4(fp)
  int dir = 1;
 18000a0:	00800044 	movi	r2,1
 18000a4:	e0bffe15 	stw	r2,-8(fp)

  while(1)
  {
	  if((pwm == 125) || (pwm == 25))
 18000a8:	e0bfff17 	ldw	r2,-4(fp)
 18000ac:	10801f60 	cmpeqi	r2,r2,125
 18000b0:	1000031e 	bne	r2,zero,18000c0 <main+0x78>
 18000b4:	e0bfff17 	ldw	r2,-4(fp)
 18000b8:	10800658 	cmpnei	r2,r2,25
 18000bc:	1000031e 	bne	r2,zero,18000cc <main+0x84>
		{
			dir = !dir;
 18000c0:	e0bffe17 	ldw	r2,-8(fp)
 18000c4:	1005003a 	cmpeq	r2,r2,zero
 18000c8:	e0bffe15 	stw	r2,-8(fp)
		}

	  if(dir == 1)
 18000cc:	e0bffe17 	ldw	r2,-8(fp)
 18000d0:	10800058 	cmpnei	r2,r2,1
 18000d4:	1000041e 	bne	r2,zero,18000e8 <main+0xa0>
	  {
		  pwm++;
 18000d8:	e0bfff17 	ldw	r2,-4(fp)
 18000dc:	10800044 	addi	r2,r2,1
 18000e0:	e0bfff15 	stw	r2,-4(fp)
 18000e4:	00000606 	br	1800100 <main+0xb8>
	  }
	  else if(dir == 0)
 18000e8:	e0bffe17 	ldw	r2,-8(fp)
 18000ec:	1004c03a 	cmpne	r2,r2,zero
 18000f0:	1000031e 	bne	r2,zero,1800100 <main+0xb8>
	  {
		  pwm--;
 18000f4:	e0bfff17 	ldw	r2,-4(fp)
 18000f8:	10bfffc4 	addi	r2,r2,-1
 18000fc:	e0bfff15 	stw	r2,-4(fp)
	  }
	  //write to the pwm modules
	  Set_Servo_Position('G', pwm);
 1800100:	010011c4 	movi	r4,71
 1800104:	e17fff17 	ldw	r5,-4(fp)
 1800108:	180043c0 	call	180043c <Set_Servo_Position>
	  Set_Servo_Position('W', 60);
 180010c:	010015c4 	movi	r4,87
 1800110:	01400f04 	movi	r5,60
 1800114:	180043c0 	call	180043c <Set_Servo_Position>
	  Set_Servo_Position('E', 70);
 1800118:	01001144 	movi	r4,69
 180011c:	01401184 	movi	r5,70
 1800120:	180043c0 	call	180043c <Set_Servo_Position>
	  Set_Servo_Position('S', 80);
 1800124:	010014c4 	movi	r4,83
 1800128:	01401404 	movi	r5,80
 180012c:	180043c0 	call	180043c <Set_Servo_Position>
	  Set_Servo_Position('B', 90);
 1800130:	01001084 	movi	r4,66
 1800134:	01401684 	movi	r5,90
 1800138:	180043c0 	call	180043c <Set_Servo_Position>
	  usleep(100000);
 180013c:	010000b4 	movhi	r4,2
 1800140:	2121a804 	addi	r4,r4,-31072
 1800144:	180a5240 	call	180a524 <usleep>
	  printf("set to %d\n", pwm);
 1800148:	01006074 	movhi	r4,385
 180014c:	21021804 	addi	r4,r4,2144
 1800150:	e17fff17 	ldw	r5,-4(fp)
 1800154:	180056c0 	call	180056c <printf>
  }
 1800158:	003fd306 	br	18000a8 <main+0x60>

0180015c <Initilise_PWM>:
 *  Description : This module runs the start up sequence for whichever PWM module is specified
 *                by the input variable
 *
 **************************************************************************************************/
int Initilise_PWM(char Module_To_Initilise)
{
 180015c:	defffd04 	addi	sp,sp,-12
 1800160:	df000215 	stw	fp,8(sp)
 1800164:	df000204 	addi	fp,sp,8
 1800168:	e13ffe05 	stb	r4,-8(fp)
    switch (Module_To_Initilise)
 180016c:	e0bffe07 	ldb	r2,-8(fp)
 1800170:	10bfef84 	addi	r2,r2,-66
 1800174:	e0bfff15 	stw	r2,-4(fp)
 1800178:	e0ffff17 	ldw	r3,-4(fp)
 180017c:	188005a8 	cmpgeui	r2,r3,22
 1800180:	10006b1e 	bne	r2,zero,1800330 <Initilise_PWM+0x1d4>
 1800184:	e13fff17 	ldw	r4,-4(fp)
 1800188:	e13fff17 	ldw	r4,-4(fp)
 180018c:	2105883a 	add	r2,r4,r4
 1800190:	1087883a 	add	r3,r2,r2
 1800194:	00806034 	movhi	r2,384
 1800198:	10806a04 	addi	r2,r2,424
 180019c:	1885883a 	add	r2,r3,r2
 18001a0:	10800017 	ldw	r2,0(r2)
 18001a4:	1000683a 	jmp	r2
 18001a8:	01800200 	call	180020 <__alt_mem_sdram-0x167ffe0>
 18001ac:	01800330 	cmpltui	r6,zero,12
 18001b0:	01800330 	cmpltui	r6,zero,12
 18001b4:	01800298 	cmpnei	r6,zero,10
 18001b8:	01800330 	cmpltui	r6,zero,12
 18001bc:	01800300 	call	180030 <__alt_mem_sdram-0x167ffd0>
 18001c0:	01800330 	cmpltui	r6,zero,12
 18001c4:	01800330 	cmpltui	r6,zero,12
 18001c8:	01800330 	cmpltui	r6,zero,12
 18001cc:	01800330 	cmpltui	r6,zero,12
 18001d0:	01800330 	cmpltui	r6,zero,12
 18001d4:	01800330 	cmpltui	r6,zero,12
 18001d8:	01800330 	cmpltui	r6,zero,12
 18001dc:	01800330 	cmpltui	r6,zero,12
 18001e0:	01800330 	cmpltui	r6,zero,12
 18001e4:	01800330 	cmpltui	r6,zero,12
 18001e8:	01800330 	cmpltui	r6,zero,12
 18001ec:	01800234 	movhi	r6,8
 18001f0:	01800330 	cmpltui	r6,zero,12
 18001f4:	01800330 	cmpltui	r6,zero,12
 18001f8:	01800330 	cmpltui	r6,zero,12
 18001fc:	018002cc 	andi	r6,zero,11
    {
        case 'B' :
            IOWR_ALTERA_AVALON_PWM_CLK_DIV(MY_PWM_5_BASE, 100);
 1800200:	00c07104 	movi	r3,452
 1800204:	00801904 	movi	r2,100
 1800208:	18800035 	stwio	r2,0(r3)
            IOWR_ALTERA_AVALON_PWM_DUTY(MY_PWM_5_BASE, 50);
 180020c:	00c07004 	movi	r3,448
 1800210:	00800c84 	movi	r2,50
 1800214:	18800035 	stwio	r2,0(r3)
            IOWR_ALTERA_AVALON_PWM_PERIOD(MY_PWM_5_BASE, 1000);
 1800218:	00c07204 	movi	r3,456
 180021c:	0080fa04 	movi	r2,1000
 1800220:	18800035 	stwio	r2,0(r3)
            IOWR_ALTERA_AVALON_PWM_CONTROL(MY_PWM_5_BASE, 1);
 1800224:	00c07304 	movi	r3,460
 1800228:	00800044 	movi	r2,1
 180022c:	18800035 	stwio	r2,0(r3)
            break;
 1800230:	00003f06 	br	1800330 <Initilise_PWM+0x1d4>

        case 'S' :
            IOWR_ALTERA_AVALON_PWM_CLK_DIV(MY_PWM_3_BASE, 100);
 1800234:	00c06904 	movi	r3,420
 1800238:	00801904 	movi	r2,100
 180023c:	18800035 	stwio	r2,0(r3)
            IOWR_ALTERA_AVALON_PWM_DUTY(MY_PWM_3_BASE, 50);
 1800240:	00c06804 	movi	r3,416
 1800244:	00800c84 	movi	r2,50
 1800248:	18800035 	stwio	r2,0(r3)
            IOWR_ALTERA_AVALON_PWM_PERIOD(MY_PWM_3_BASE, 1000);
 180024c:	00c06a04 	movi	r3,424
 1800250:	0080fa04 	movi	r2,1000
 1800254:	18800035 	stwio	r2,0(r3)
            IOWR_ALTERA_AVALON_PWM_CONTROL(MY_PWM_3_BASE, 1);
 1800258:	00c06b04 	movi	r3,428
 180025c:	00800044 	movi	r2,1
 1800260:	18800035 	stwio	r2,0(r3)

            IOWR_ALTERA_AVALON_PWM_CLK_DIV(MY_PWM_4_BASE, 100);
 1800264:	00c06d04 	movi	r3,436
 1800268:	00801904 	movi	r2,100
 180026c:	18800035 	stwio	r2,0(r3)
            IOWR_ALTERA_AVALON_PWM_DUTY(MY_PWM_4_BASE, 50);
 1800270:	00c06c04 	movi	r3,432
 1800274:	00800c84 	movi	r2,50
 1800278:	18800035 	stwio	r2,0(r3)
            IOWR_ALTERA_AVALON_PWM_PERIOD(MY_PWM_4_BASE, 1000);
 180027c:	00c06e04 	movi	r3,440
 1800280:	0080fa04 	movi	r2,1000
 1800284:	18800035 	stwio	r2,0(r3)
            IOWR_ALTERA_AVALON_PWM_CONTROL(MY_PWM_4_BASE, 1);
 1800288:	00c06f04 	movi	r3,444
 180028c:	00800044 	movi	r2,1
 1800290:	18800035 	stwio	r2,0(r3)
            break;
 1800294:	00002606 	br	1800330 <Initilise_PWM+0x1d4>

        case 'E' :
            IOWR_ALTERA_AVALON_PWM_CLK_DIV(MY_PWM_2_BASE, 100);
 1800298:	00c06504 	movi	r3,404
 180029c:	00801904 	movi	r2,100
 18002a0:	18800035 	stwio	r2,0(r3)
            IOWR_ALTERA_AVALON_PWM_DUTY(MY_PWM_2_BASE, 50);
 18002a4:	00c06404 	movi	r3,400
 18002a8:	00800c84 	movi	r2,50
 18002ac:	18800035 	stwio	r2,0(r3)
            IOWR_ALTERA_AVALON_PWM_PERIOD(MY_PWM_2_BASE, 1000);
 18002b0:	00c06604 	movi	r3,408
 18002b4:	0080fa04 	movi	r2,1000
 18002b8:	18800035 	stwio	r2,0(r3)
            IOWR_ALTERA_AVALON_PWM_CONTROL(MY_PWM_2_BASE, 1);
 18002bc:	00c06704 	movi	r3,412
 18002c0:	00800044 	movi	r2,1
 18002c4:	18800035 	stwio	r2,0(r3)
            break;
 18002c8:	00001906 	br	1800330 <Initilise_PWM+0x1d4>

        case 'W' :
            IOWR_ALTERA_AVALON_PWM_CLK_DIV(MY_PWM_1_BASE, 100);
 18002cc:	00c06104 	movi	r3,388
 18002d0:	00801904 	movi	r2,100
 18002d4:	18800035 	stwio	r2,0(r3)
            IOWR_ALTERA_AVALON_PWM_DUTY(MY_PWM_1_BASE, 50);
 18002d8:	00c06004 	movi	r3,384
 18002dc:	00800c84 	movi	r2,50
 18002e0:	18800035 	stwio	r2,0(r3)
            IOWR_ALTERA_AVALON_PWM_PERIOD(MY_PWM_1_BASE, 1000);
 18002e4:	00c06204 	movi	r3,392
 18002e8:	0080fa04 	movi	r2,1000
 18002ec:	18800035 	stwio	r2,0(r3)
            IOWR_ALTERA_AVALON_PWM_CONTROL(MY_PWM_1_BASE, 1);
 18002f0:	00c06304 	movi	r3,396
 18002f4:	00800044 	movi	r2,1
 18002f8:	18800035 	stwio	r2,0(r3)
            break;
 18002fc:	00000c06 	br	1800330 <Initilise_PWM+0x1d4>

        case 'G' :
            IOWR_ALTERA_AVALON_PWM_CLK_DIV(MY_PWM_0_BASE,100);
 1800300:	00c05d04 	movi	r3,372
 1800304:	00801904 	movi	r2,100
 1800308:	18800035 	stwio	r2,0(r3)
            IOWR_ALTERA_AVALON_PWM_DUTY(MY_PWM_0_BASE, 50);
 180030c:	00c05c04 	movi	r3,368
 1800310:	00800c84 	movi	r2,50
 1800314:	18800035 	stwio	r2,0(r3)
            IOWR_ALTERA_AVALON_PWM_PERIOD(MY_PWM_0_BASE, 1000);
 1800318:	00c05e04 	movi	r3,376
 180031c:	0080fa04 	movi	r2,1000
 1800320:	18800035 	stwio	r2,0(r3)
            IOWR_ALTERA_AVALON_PWM_CONTROL(MY_PWM_0_BASE, 1);
 1800324:	00c05f04 	movi	r3,380
 1800328:	00800044 	movi	r2,1
 180032c:	18800035 	stwio	r2,0(r3)

            default :
            	break;
                return 0;
    }
    return 1;
 1800330:	00800044 	movi	r2,1
}
 1800334:	e037883a 	mov	sp,fp
 1800338:	df000017 	ldw	fp,0(sp)
 180033c:	dec00104 	addi	sp,sp,4
 1800340:	f800283a 	ret

01800344 <Set_PWM_Duty_Cycle>:
 *
 *  Description : This module updates the duty cycle for the selected PWM module
 *
 **************************************************************************************************/
int Set_PWM_Duty_Cycle ( int Channel, int Duty_Cycle)
{
 1800344:	defffb04 	addi	sp,sp,-20
 1800348:	df000415 	stw	fp,16(sp)
 180034c:	df000404 	addi	fp,sp,16
 1800350:	e13ffd15 	stw	r4,-12(fp)
 1800354:	e17ffe15 	stw	r5,-8(fp)
    //get address of PWM Channel

    int Address = 0;
 1800358:	e03ffc15 	stw	zero,-16(fp)

    switch (Channel)
 180035c:	e0bffd17 	ldw	r2,-12(fp)
 1800360:	108001e8 	cmpgeui	r2,r2,7
 1800364:	1000211e 	bne	r2,zero,18003ec <Set_PWM_Duty_Cycle+0xa8>
 1800368:	e0bffd17 	ldw	r2,-12(fp)
 180036c:	1085883a 	add	r2,r2,r2
 1800370:	1087883a 	add	r3,r2,r2
 1800374:	00806034 	movhi	r2,384
 1800378:	1080e204 	addi	r2,r2,904
 180037c:	1885883a 	add	r2,r3,r2
 1800380:	10800017 	ldw	r2,0(r2)
 1800384:	1000683a 	jmp	r2
 1800388:	018003ec 	andhi	r6,zero,15
 180038c:	018003a4 	muli	r6,zero,14
 1800390:	018003b0 	cmpltui	r6,zero,14
 1800394:	018003bc 	xorhi	r6,zero,14
 1800398:	018003c8 	cmpgei	r6,zero,15
 180039c:	018003d4 	movui	r6,15
 18003a0:	018003e0 	cmpeqi	r6,zero,15
    {
        case 1 :
            Address = MY_PWM_0_BASE;
 18003a4:	00805c04 	movi	r2,368
 18003a8:	e0bffc15 	stw	r2,-16(fp)
            break;
 18003ac:	00001106 	br	18003f4 <Set_PWM_Duty_Cycle+0xb0>
        case 2 :
            Address = MY_PWM_1_BASE;
 18003b0:	00806004 	movi	r2,384
 18003b4:	e0bffc15 	stw	r2,-16(fp)
            break;
 18003b8:	00000e06 	br	18003f4 <Set_PWM_Duty_Cycle+0xb0>
        case 3 :
            Address = MY_PWM_2_BASE;
 18003bc:	00806404 	movi	r2,400
 18003c0:	e0bffc15 	stw	r2,-16(fp)
            break;
 18003c4:	00000b06 	br	18003f4 <Set_PWM_Duty_Cycle+0xb0>
        case 4 :
            Address = MY_PWM_3_BASE;
 18003c8:	00806804 	movi	r2,416
 18003cc:	e0bffc15 	stw	r2,-16(fp)
            break;
 18003d0:	00000806 	br	18003f4 <Set_PWM_Duty_Cycle+0xb0>
        case 5 :
            Address = MY_PWM_4_BASE;
 18003d4:	00806c04 	movi	r2,432
 18003d8:	e0bffc15 	stw	r2,-16(fp)
            break;
 18003dc:	00000506 	br	18003f4 <Set_PWM_Duty_Cycle+0xb0>
        case 6 :
            Address = MY_PWM_5_BASE;
 18003e0:	00807004 	movi	r2,448
 18003e4:	e0bffc15 	stw	r2,-16(fp)
            break;
 18003e8:	00000206 	br	18003f4 <Set_PWM_Duty_Cycle+0xb0>
        default :
            //unrecognised channal selected
            return 0;
 18003ec:	e03fff15 	stw	zero,-4(fp)
 18003f0:	00000d06 	br	1800428 <Set_PWM_Duty_Cycle+0xe4>

    }

    //check the desired PWM module is active
    if(IORD_ALTERA_AVALON_PWM_CONTROL(Address) == 0)
 18003f4:	e0bffc17 	ldw	r2,-16(fp)
 18003f8:	10800304 	addi	r2,r2,12
 18003fc:	10800037 	ldwio	r2,0(r2)
 1800400:	1004c03a 	cmpne	r2,r2,zero
 1800404:	1000021e 	bne	r2,zero,1800410 <Set_PWM_Duty_Cycle+0xcc>
    {
        return 0;
 1800408:	e03fff15 	stw	zero,-4(fp)
 180040c:	00000606 	br	1800428 <Set_PWM_Duty_Cycle+0xe4>

    //check duty cycle is within bounds (0-100)
    //if(Duty_Cycle > 125) Duty_Cycle = 125;
    //if(Duty_Cycle < 25) Duty_Cycle = 0;
    //set the channel to the desired Duty Cycle
    IOWR_ALTERA_AVALON_PWM_DUTY(Address, Duty_Cycle);
 1800410:	e0bffc17 	ldw	r2,-16(fp)
 1800414:	1007883a 	mov	r3,r2
 1800418:	e0bffe17 	ldw	r2,-8(fp)
 180041c:	18800035 	stwio	r2,0(r3)

    return 1;
 1800420:	00800044 	movi	r2,1
 1800424:	e0bfff15 	stw	r2,-4(fp)
 1800428:	e0bfff17 	ldw	r2,-4(fp)
}
 180042c:	e037883a 	mov	sp,fp
 1800430:	df000017 	ldw	fp,0(sp)
 1800434:	dec00104 	addi	sp,sp,4
 1800438:	f800283a 	ret

0180043c <Set_Servo_Position>:
 *
 *  Description : This module updates the duty cycle for the selected PWM module
 *
 **************************************************************************************************/
int Set_Servo_Position (char Servo, int Position)
{
 180043c:	defffa04 	addi	sp,sp,-24
 1800440:	dfc00515 	stw	ra,20(sp)
 1800444:	df000415 	stw	fp,16(sp)
 1800448:	df000404 	addi	fp,sp,16
 180044c:	e17ffd15 	stw	r5,-12(fp)
 1800450:	e13ffc05 	stb	r4,-16(fp)
    switch (Servo)
 1800454:	e0bffc07 	ldb	r2,-16(fp)
 1800458:	10bfef84 	addi	r2,r2,-66
 180045c:	e0bfff15 	stw	r2,-4(fp)
 1800460:	e0ffff17 	ldw	r3,-4(fp)
 1800464:	188005a8 	cmpgeui	r2,r3,22
 1800468:	1000361e 	bne	r2,zero,1800544 <Set_Servo_Position+0x108>
 180046c:	e13fff17 	ldw	r4,-4(fp)
 1800470:	e13fff17 	ldw	r4,-4(fp)
 1800474:	2105883a 	add	r2,r4,r4
 1800478:	1087883a 	add	r3,r2,r2
 180047c:	00806034 	movhi	r2,384
 1800480:	10812404 	addi	r2,r2,1168
 1800484:	1885883a 	add	r2,r3,r2
 1800488:	10800017 	ldw	r2,0(r2)
 180048c:	1000683a 	jmp	r2
 1800490:	01800534 	movhi	r6,20
 1800494:	01800544 	movi	r6,21
 1800498:	01800544 	movi	r6,21
 180049c:	01800508 	cmpgei	r6,zero,20
 18004a0:	01800544 	movi	r6,21
 18004a4:	018004e8 	cmpgeui	r6,zero,19
 18004a8:	01800544 	movi	r6,21
 18004ac:	01800544 	movi	r6,21
 18004b0:	01800544 	movi	r6,21
 18004b4:	01800544 	movi	r6,21
 18004b8:	01800544 	movi	r6,21
 18004bc:	01800544 	movi	r6,21
 18004c0:	01800544 	movi	r6,21
 18004c4:	01800544 	movi	r6,21
 18004c8:	01800544 	movi	r6,21
 18004cc:	01800544 	movi	r6,21
 18004d0:	01800544 	movi	r6,21
 18004d4:	01800518 	cmpnei	r6,zero,20
 18004d8:	01800544 	movi	r6,21
 18004dc:	01800544 	movi	r6,21
 18004e0:	01800544 	movi	r6,21
 18004e4:	018004f8 	rdprs	r6,zero,19
    {
        case 'G' :
        	Set_PWM_Duty_Cycle(1, Position);
 18004e8:	01000044 	movi	r4,1
 18004ec:	e17ffd17 	ldw	r5,-12(fp)
 18004f0:	18003440 	call	1800344 <Set_PWM_Duty_Cycle>
            break;
 18004f4:	00001506 	br	180054c <Set_Servo_Position+0x110>
        case 'W' :
        	Set_PWM_Duty_Cycle(2, Position);
 18004f8:	01000084 	movi	r4,2
 18004fc:	e17ffd17 	ldw	r5,-12(fp)
 1800500:	18003440 	call	1800344 <Set_PWM_Duty_Cycle>
            break;
 1800504:	00001106 	br	180054c <Set_Servo_Position+0x110>
        case 'E' :
        	Set_PWM_Duty_Cycle(3, Position);
 1800508:	010000c4 	movi	r4,3
 180050c:	e17ffd17 	ldw	r5,-12(fp)
 1800510:	18003440 	call	1800344 <Set_PWM_Duty_Cycle>
            break;
 1800514:	00000d06 	br	180054c <Set_Servo_Position+0x110>
        case 'S' :
        	Set_PWM_Duty_Cycle(4, Position);
 1800518:	01000104 	movi	r4,4
 180051c:	e17ffd17 	ldw	r5,-12(fp)
 1800520:	18003440 	call	1800344 <Set_PWM_Duty_Cycle>
        	Set_PWM_Duty_Cycle(5, Position);
 1800524:	01000144 	movi	r4,5
 1800528:	e17ffd17 	ldw	r5,-12(fp)
 180052c:	18003440 	call	1800344 <Set_PWM_Duty_Cycle>
            break;
 1800530:	00000606 	br	180054c <Set_Servo_Position+0x110>
        case 'B' :
        	Set_PWM_Duty_Cycle(6, Position);
 1800534:	01000184 	movi	r4,6
 1800538:	e17ffd17 	ldw	r5,-12(fp)
 180053c:	18003440 	call	1800344 <Set_PWM_Duty_Cycle>
            break;
 1800540:	00000206 	br	180054c <Set_Servo_Position+0x110>
        default :
            //unrecognised channal selected
            return 0;
 1800544:	e03ffe15 	stw	zero,-8(fp)
 1800548:	00000206 	br	1800554 <Set_Servo_Position+0x118>
    }
    return 1;
 180054c:	00800044 	movi	r2,1
 1800550:	e0bffe15 	stw	r2,-8(fp)
 1800554:	e0bffe17 	ldw	r2,-8(fp)
}
 1800558:	e037883a 	mov	sp,fp
 180055c:	dfc00117 	ldw	ra,4(sp)
 1800560:	df000017 	ldw	fp,0(sp)
 1800564:	dec00204 	addi	sp,sp,8
 1800568:	f800283a 	ret

0180056c <printf>:
 180056c:	defffb04 	addi	sp,sp,-20
 1800570:	dfc00115 	stw	ra,4(sp)
 1800574:	d9400215 	stw	r5,8(sp)
 1800578:	d9800315 	stw	r6,12(sp)
 180057c:	d9c00415 	stw	r7,16(sp)
 1800580:	00806074 	movhi	r2,385
 1800584:	108acb04 	addi	r2,r2,11052
 1800588:	10c00017 	ldw	r3,0(r2)
 180058c:	200b883a 	mov	r5,r4
 1800590:	d8800204 	addi	r2,sp,8
 1800594:	19000217 	ldw	r4,8(r3)
 1800598:	100d883a 	mov	r6,r2
 180059c:	d8800015 	stw	r2,0(sp)
 18005a0:	18026100 	call	1802610 <__vfprintf_internal>
 18005a4:	dfc00117 	ldw	ra,4(sp)
 18005a8:	dec00504 	addi	sp,sp,20
 18005ac:	f800283a 	ret

018005b0 <_printf_r>:
 18005b0:	defffc04 	addi	sp,sp,-16
 18005b4:	dfc00115 	stw	ra,4(sp)
 18005b8:	d9800215 	stw	r6,8(sp)
 18005bc:	d9c00315 	stw	r7,12(sp)
 18005c0:	280d883a 	mov	r6,r5
 18005c4:	21400217 	ldw	r5,8(r4)
 18005c8:	d8c00204 	addi	r3,sp,8
 18005cc:	180f883a 	mov	r7,r3
 18005d0:	d8c00015 	stw	r3,0(sp)
 18005d4:	18007640 	call	1800764 <___vfprintf_internal_r>
 18005d8:	dfc00117 	ldw	ra,4(sp)
 18005dc:	dec00404 	addi	sp,sp,16
 18005e0:	f800283a 	ret

018005e4 <_puts_r>:
 18005e4:	defff604 	addi	sp,sp,-40
 18005e8:	dc400715 	stw	r17,28(sp)
 18005ec:	2023883a 	mov	r17,r4
 18005f0:	2809883a 	mov	r4,r5
 18005f4:	dfc00915 	stw	ra,36(sp)
 18005f8:	dcc00815 	stw	r19,32(sp)
 18005fc:	2827883a 	mov	r19,r5
 1800600:	18006980 	call	1800698 <strlen>
 1800604:	89400217 	ldw	r5,8(r17)
 1800608:	00c06074 	movhi	r3,385
 180060c:	18c21b04 	addi	r3,r3,2156
 1800610:	01c00044 	movi	r7,1
 1800614:	12000044 	addi	r8,r2,1
 1800618:	d8c00515 	stw	r3,20(sp)
 180061c:	d9c00615 	stw	r7,24(sp)
 1800620:	d8c00304 	addi	r3,sp,12
 1800624:	01c00084 	movi	r7,2
 1800628:	8809883a 	mov	r4,r17
 180062c:	d80d883a 	mov	r6,sp
 1800630:	d8c00015 	stw	r3,0(sp)
 1800634:	dcc00315 	stw	r19,12(sp)
 1800638:	da000215 	stw	r8,8(sp)
 180063c:	d9c00115 	stw	r7,4(sp)
 1800640:	d8800415 	stw	r2,16(sp)
 1800644:	180486c0 	call	180486c <__sfvwrite_r>
 1800648:	00ffffc4 	movi	r3,-1
 180064c:	10000626 	beq	r2,zero,1800668 <_puts_r+0x84>
 1800650:	1805883a 	mov	r2,r3
 1800654:	dfc00917 	ldw	ra,36(sp)
 1800658:	dcc00817 	ldw	r19,32(sp)
 180065c:	dc400717 	ldw	r17,28(sp)
 1800660:	dec00a04 	addi	sp,sp,40
 1800664:	f800283a 	ret
 1800668:	00c00284 	movi	r3,10
 180066c:	1805883a 	mov	r2,r3
 1800670:	dfc00917 	ldw	ra,36(sp)
 1800674:	dcc00817 	ldw	r19,32(sp)
 1800678:	dc400717 	ldw	r17,28(sp)
 180067c:	dec00a04 	addi	sp,sp,40
 1800680:	f800283a 	ret

01800684 <puts>:
 1800684:	00806074 	movhi	r2,385
 1800688:	108acb04 	addi	r2,r2,11052
 180068c:	200b883a 	mov	r5,r4
 1800690:	11000017 	ldw	r4,0(r2)
 1800694:	18005e41 	jmpi	18005e4 <_puts_r>

01800698 <strlen>:
 1800698:	208000cc 	andi	r2,r4,3
 180069c:	2011883a 	mov	r8,r4
 18006a0:	1000161e 	bne	r2,zero,18006fc <strlen+0x64>
 18006a4:	20c00017 	ldw	r3,0(r4)
 18006a8:	017fbff4 	movhi	r5,65279
 18006ac:	297fbfc4 	addi	r5,r5,-257
 18006b0:	01e02074 	movhi	r7,32897
 18006b4:	39e02004 	addi	r7,r7,-32640
 18006b8:	1945883a 	add	r2,r3,r5
 18006bc:	11c4703a 	and	r2,r2,r7
 18006c0:	00c6303a 	nor	r3,zero,r3
 18006c4:	1886703a 	and	r3,r3,r2
 18006c8:	18000c1e 	bne	r3,zero,18006fc <strlen+0x64>
 18006cc:	280d883a 	mov	r6,r5
 18006d0:	380b883a 	mov	r5,r7
 18006d4:	21000104 	addi	r4,r4,4
 18006d8:	20800017 	ldw	r2,0(r4)
 18006dc:	1187883a 	add	r3,r2,r6
 18006e0:	1946703a 	and	r3,r3,r5
 18006e4:	0084303a 	nor	r2,zero,r2
 18006e8:	10c4703a 	and	r2,r2,r3
 18006ec:	103ff926 	beq	r2,zero,18006d4 <strlen+0x3c>
 18006f0:	20800007 	ldb	r2,0(r4)
 18006f4:	10000326 	beq	r2,zero,1800704 <strlen+0x6c>
 18006f8:	21000044 	addi	r4,r4,1
 18006fc:	20800007 	ldb	r2,0(r4)
 1800700:	103ffd1e 	bne	r2,zero,18006f8 <strlen+0x60>
 1800704:	2205c83a 	sub	r2,r4,r8
 1800708:	f800283a 	ret

0180070c <__sprint_r>:
 180070c:	30800217 	ldw	r2,8(r6)
 1800710:	defffe04 	addi	sp,sp,-8
 1800714:	dc000015 	stw	r16,0(sp)
 1800718:	dfc00115 	stw	ra,4(sp)
 180071c:	3021883a 	mov	r16,r6
 1800720:	0007883a 	mov	r3,zero
 1800724:	1000061e 	bne	r2,zero,1800740 <__sprint_r+0x34>
 1800728:	1805883a 	mov	r2,r3
 180072c:	30000115 	stw	zero,4(r6)
 1800730:	dfc00117 	ldw	ra,4(sp)
 1800734:	dc000017 	ldw	r16,0(sp)
 1800738:	dec00204 	addi	sp,sp,8
 180073c:	f800283a 	ret
 1800740:	180486c0 	call	180486c <__sfvwrite_r>
 1800744:	1007883a 	mov	r3,r2
 1800748:	1805883a 	mov	r2,r3
 180074c:	80000115 	stw	zero,4(r16)
 1800750:	80000215 	stw	zero,8(r16)
 1800754:	dfc00117 	ldw	ra,4(sp)
 1800758:	dc000017 	ldw	r16,0(sp)
 180075c:	dec00204 	addi	sp,sp,8
 1800760:	f800283a 	ret

01800764 <___vfprintf_internal_r>:
 1800764:	defea404 	addi	sp,sp,-1392
 1800768:	dd815815 	stw	r22,1376(sp)
 180076c:	dc015215 	stw	r16,1352(sp)
 1800770:	d9c15115 	stw	r7,1348(sp)
 1800774:	dfc15b15 	stw	ra,1388(sp)
 1800778:	df015a15 	stw	fp,1384(sp)
 180077c:	ddc15915 	stw	r23,1380(sp)
 1800780:	dd415715 	stw	r21,1372(sp)
 1800784:	dd015615 	stw	r20,1368(sp)
 1800788:	dcc15515 	stw	r19,1364(sp)
 180078c:	dc815415 	stw	r18,1360(sp)
 1800790:	dc415315 	stw	r17,1356(sp)
 1800794:	282d883a 	mov	r22,r5
 1800798:	3021883a 	mov	r16,r6
 180079c:	d9014f15 	stw	r4,1340(sp)
 18007a0:	1804e900 	call	1804e90 <_localeconv_r>
 18007a4:	10800017 	ldw	r2,0(r2)
 18007a8:	d9c15117 	ldw	r7,1348(sp)
 18007ac:	d8814915 	stw	r2,1316(sp)
 18007b0:	d8814f17 	ldw	r2,1340(sp)
 18007b4:	10000226 	beq	r2,zero,18007c0 <___vfprintf_internal_r+0x5c>
 18007b8:	10800e17 	ldw	r2,56(r2)
 18007bc:	10020d26 	beq	r2,zero,1800ff4 <___vfprintf_internal_r+0x890>
 18007c0:	b080030b 	ldhu	r2,12(r22)
 18007c4:	1080020c 	andi	r2,r2,8
 18007c8:	10020e26 	beq	r2,zero,1801004 <___vfprintf_internal_r+0x8a0>
 18007cc:	b0800417 	ldw	r2,16(r22)
 18007d0:	10020c26 	beq	r2,zero,1801004 <___vfprintf_internal_r+0x8a0>
 18007d4:	b200030b 	ldhu	r8,12(r22)
 18007d8:	00800284 	movi	r2,10
 18007dc:	40c0068c 	andi	r3,r8,26
 18007e0:	18802f1e 	bne	r3,r2,18008a0 <___vfprintf_internal_r+0x13c>
 18007e4:	b080038f 	ldh	r2,14(r22)
 18007e8:	10002d16 	blt	r2,zero,18008a0 <___vfprintf_internal_r+0x13c>
 18007ec:	b240038b 	ldhu	r9,14(r22)
 18007f0:	b2800717 	ldw	r10,28(r22)
 18007f4:	b2c00917 	ldw	r11,36(r22)
 18007f8:	d9014f17 	ldw	r4,1340(sp)
 18007fc:	dc402904 	addi	r17,sp,164
 1800800:	d8804004 	addi	r2,sp,256
 1800804:	00c10004 	movi	r3,1024
 1800808:	423fff4c 	andi	r8,r8,65533
 180080c:	800d883a 	mov	r6,r16
 1800810:	880b883a 	mov	r5,r17
 1800814:	da002c0d 	sth	r8,176(sp)
 1800818:	da402c8d 	sth	r9,178(sp)
 180081c:	da803015 	stw	r10,192(sp)
 1800820:	dac03215 	stw	r11,200(sp)
 1800824:	d8802d15 	stw	r2,180(sp)
 1800828:	d8c02e15 	stw	r3,184(sp)
 180082c:	d8802915 	stw	r2,164(sp)
 1800830:	d8c02b15 	stw	r3,172(sp)
 1800834:	d8002f15 	stw	zero,188(sp)
 1800838:	18007640 	call	1800764 <___vfprintf_internal_r>
 180083c:	d8814b15 	stw	r2,1324(sp)
 1800840:	10000416 	blt	r2,zero,1800854 <___vfprintf_internal_r+0xf0>
 1800844:	d9014f17 	ldw	r4,1340(sp)
 1800848:	880b883a 	mov	r5,r17
 180084c:	1803f3c0 	call	1803f3c <_fflush_r>
 1800850:	1002321e 	bne	r2,zero,180111c <___vfprintf_internal_r+0x9b8>
 1800854:	d8802c0b 	ldhu	r2,176(sp)
 1800858:	1080100c 	andi	r2,r2,64
 180085c:	10000326 	beq	r2,zero,180086c <___vfprintf_internal_r+0x108>
 1800860:	b080030b 	ldhu	r2,12(r22)
 1800864:	10801014 	ori	r2,r2,64
 1800868:	b080030d 	sth	r2,12(r22)
 180086c:	d8814b17 	ldw	r2,1324(sp)
 1800870:	dfc15b17 	ldw	ra,1388(sp)
 1800874:	df015a17 	ldw	fp,1384(sp)
 1800878:	ddc15917 	ldw	r23,1380(sp)
 180087c:	dd815817 	ldw	r22,1376(sp)
 1800880:	dd415717 	ldw	r21,1372(sp)
 1800884:	dd015617 	ldw	r20,1368(sp)
 1800888:	dcc15517 	ldw	r19,1364(sp)
 180088c:	dc815417 	ldw	r18,1360(sp)
 1800890:	dc415317 	ldw	r17,1356(sp)
 1800894:	dc015217 	ldw	r16,1352(sp)
 1800898:	dec15c04 	addi	sp,sp,1392
 180089c:	f800283a 	ret
 18008a0:	0005883a 	mov	r2,zero
 18008a4:	0007883a 	mov	r3,zero
 18008a8:	dd401904 	addi	r21,sp,100
 18008ac:	d8814215 	stw	r2,1288(sp)
 18008b0:	802f883a 	mov	r23,r16
 18008b4:	d8c14315 	stw	r3,1292(sp)
 18008b8:	d8014b15 	stw	zero,1324(sp)
 18008bc:	d8014815 	stw	zero,1312(sp)
 18008c0:	d8014415 	stw	zero,1296(sp)
 18008c4:	d8014715 	stw	zero,1308(sp)
 18008c8:	dd400c15 	stw	r21,48(sp)
 18008cc:	d8000e15 	stw	zero,56(sp)
 18008d0:	d8000d15 	stw	zero,52(sp)
 18008d4:	b8800007 	ldb	r2,0(r23)
 18008d8:	10001926 	beq	r2,zero,1800940 <___vfprintf_internal_r+0x1dc>
 18008dc:	00c00944 	movi	r3,37
 18008e0:	10c01726 	beq	r2,r3,1800940 <___vfprintf_internal_r+0x1dc>
 18008e4:	b821883a 	mov	r16,r23
 18008e8:	00000106 	br	18008f0 <___vfprintf_internal_r+0x18c>
 18008ec:	10c00326 	beq	r2,r3,18008fc <___vfprintf_internal_r+0x198>
 18008f0:	84000044 	addi	r16,r16,1
 18008f4:	80800007 	ldb	r2,0(r16)
 18008f8:	103ffc1e 	bne	r2,zero,18008ec <___vfprintf_internal_r+0x188>
 18008fc:	85e7c83a 	sub	r19,r16,r23
 1800900:	98000e26 	beq	r19,zero,180093c <___vfprintf_internal_r+0x1d8>
 1800904:	dc800e17 	ldw	r18,56(sp)
 1800908:	dc400d17 	ldw	r17,52(sp)
 180090c:	008001c4 	movi	r2,7
 1800910:	94e5883a 	add	r18,r18,r19
 1800914:	8c400044 	addi	r17,r17,1
 1800918:	adc00015 	stw	r23,0(r21)
 180091c:	dc800e15 	stw	r18,56(sp)
 1800920:	acc00115 	stw	r19,4(r21)
 1800924:	dc400d15 	stw	r17,52(sp)
 1800928:	14428b16 	blt	r2,r17,1801358 <___vfprintf_internal_r+0xbf4>
 180092c:	ad400204 	addi	r21,r21,8
 1800930:	d9014b17 	ldw	r4,1324(sp)
 1800934:	24c9883a 	add	r4,r4,r19
 1800938:	d9014b15 	stw	r4,1324(sp)
 180093c:	802f883a 	mov	r23,r16
 1800940:	b8800007 	ldb	r2,0(r23)
 1800944:	10013c26 	beq	r2,zero,1800e38 <___vfprintf_internal_r+0x6d4>
 1800948:	bdc00044 	addi	r23,r23,1
 180094c:	d8000405 	stb	zero,16(sp)
 1800950:	b8c00007 	ldb	r3,0(r23)
 1800954:	04ffffc4 	movi	r19,-1
 1800958:	d8014c15 	stw	zero,1328(sp)
 180095c:	d8014a15 	stw	zero,1320(sp)
 1800960:	d8c14d15 	stw	r3,1332(sp)
 1800964:	bdc00044 	addi	r23,r23,1
 1800968:	d9414d17 	ldw	r5,1332(sp)
 180096c:	00801604 	movi	r2,88
 1800970:	28fff804 	addi	r3,r5,-32
 1800974:	10c06036 	bltu	r2,r3,1800af8 <___vfprintf_internal_r+0x394>
 1800978:	18c5883a 	add	r2,r3,r3
 180097c:	1085883a 	add	r2,r2,r2
 1800980:	00c06034 	movhi	r3,384
 1800984:	18c26504 	addi	r3,r3,2452
 1800988:	10c5883a 	add	r2,r2,r3
 180098c:	11000017 	ldw	r4,0(r2)
 1800990:	2000683a 	jmp	r4
 1800994:	01801908 	cmpgei	r6,zero,100
 1800998:	01800af8 	rdprs	r6,zero,43
 180099c:	01800af8 	rdprs	r6,zero,43
 18009a0:	018018f4 	movhi	r6,99
 18009a4:	01800af8 	rdprs	r6,zero,43
 18009a8:	01800af8 	rdprs	r6,zero,43
 18009ac:	01800af8 	rdprs	r6,zero,43
 18009b0:	01800af8 	rdprs	r6,zero,43
 18009b4:	01800af8 	rdprs	r6,zero,43
 18009b8:	01800af8 	rdprs	r6,zero,43
 18009bc:	018016d4 	movui	r6,91
 18009c0:	018018e4 	muli	r6,zero,99
 18009c4:	01800af8 	rdprs	r6,zero,43
 18009c8:	018016ec 	andhi	r6,zero,91
 18009cc:	01801980 	call	180198 <__alt_mem_sdram-0x167fe68>
 18009d0:	01800af8 	rdprs	r6,zero,43
 18009d4:	0180196c 	andhi	r6,zero,101
 18009d8:	01801934 	movhi	r6,100
 18009dc:	01801934 	movhi	r6,100
 18009e0:	01801934 	movhi	r6,100
 18009e4:	01801934 	movhi	r6,100
 18009e8:	01801934 	movhi	r6,100
 18009ec:	01801934 	movhi	r6,100
 18009f0:	01801934 	movhi	r6,100
 18009f4:	01801934 	movhi	r6,100
 18009f8:	01801934 	movhi	r6,100
 18009fc:	01800af8 	rdprs	r6,zero,43
 1800a00:	01800af8 	rdprs	r6,zero,43
 1800a04:	01800af8 	rdprs	r6,zero,43
 1800a08:	01800af8 	rdprs	r6,zero,43
 1800a0c:	01800af8 	rdprs	r6,zero,43
 1800a10:	01800af8 	rdprs	r6,zero,43
 1800a14:	01800af8 	rdprs	r6,zero,43
 1800a18:	01800af8 	rdprs	r6,zero,43
 1800a1c:	01800af8 	rdprs	r6,zero,43
 1800a20:	01800af8 	rdprs	r6,zero,43
 1800a24:	01801150 	cmplti	r6,zero,69
 1800a28:	018017bc 	xorhi	r6,zero,94
 1800a2c:	01800af8 	rdprs	r6,zero,43
 1800a30:	018017bc 	xorhi	r6,zero,94
 1800a34:	01800af8 	rdprs	r6,zero,43
 1800a38:	01800af8 	rdprs	r6,zero,43
 1800a3c:	01800af8 	rdprs	r6,zero,43
 1800a40:	01800af8 	rdprs	r6,zero,43
 1800a44:	01801920 	cmpeqi	r6,zero,100
 1800a48:	01800af8 	rdprs	r6,zero,43
 1800a4c:	01800af8 	rdprs	r6,zero,43
 1800a50:	01801204 	movi	r6,72
 1800a54:	01800af8 	rdprs	r6,zero,43
 1800a58:	01800af8 	rdprs	r6,zero,43
 1800a5c:	01800af8 	rdprs	r6,zero,43
 1800a60:	01800af8 	rdprs	r6,zero,43
 1800a64:	01800af8 	rdprs	r6,zero,43
 1800a68:	01801250 	cmplti	r6,zero,73
 1800a6c:	01800af8 	rdprs	r6,zero,43
 1800a70:	01800af8 	rdprs	r6,zero,43
 1800a74:	01801870 	cmpltui	r6,zero,97
 1800a78:	01800af8 	rdprs	r6,zero,43
 1800a7c:	01800af8 	rdprs	r6,zero,43
 1800a80:	01800af8 	rdprs	r6,zero,43
 1800a84:	01800af8 	rdprs	r6,zero,43
 1800a88:	01800af8 	rdprs	r6,zero,43
 1800a8c:	01800af8 	rdprs	r6,zero,43
 1800a90:	01800af8 	rdprs	r6,zero,43
 1800a94:	01800af8 	rdprs	r6,zero,43
 1800a98:	01800af8 	rdprs	r6,zero,43
 1800a9c:	01800af8 	rdprs	r6,zero,43
 1800aa0:	01801844 	movi	r6,97
 1800aa4:	0180115c 	xori	r6,zero,69
 1800aa8:	018017bc 	xorhi	r6,zero,94
 1800aac:	018017bc 	xorhi	r6,zero,94
 1800ab0:	018017bc 	xorhi	r6,zero,94
 1800ab4:	018017a8 	cmpgeui	r6,zero,94
 1800ab8:	0180115c 	xori	r6,zero,69
 1800abc:	01800af8 	rdprs	r6,zero,43
 1800ac0:	01800af8 	rdprs	r6,zero,43
 1800ac4:	01801730 	cmpltui	r6,zero,92
 1800ac8:	01800af8 	rdprs	r6,zero,43
 1800acc:	01801700 	call	180170 <__alt_mem_sdram-0x167fe90>
 1800ad0:	01801210 	cmplti	r6,zero,72
 1800ad4:	01801760 	cmpeqi	r6,zero,93
 1800ad8:	0180174c 	andi	r6,zero,93
 1800adc:	01800af8 	rdprs	r6,zero,43
 1800ae0:	018019dc 	xori	r6,zero,103
 1800ae4:	01800af8 	rdprs	r6,zero,43
 1800ae8:	0180125c 	xori	r6,zero,73
 1800aec:	01800af8 	rdprs	r6,zero,43
 1800af0:	01800af8 	rdprs	r6,zero,43
 1800af4:	018018d4 	movui	r6,99
 1800af8:	d9014d17 	ldw	r4,1332(sp)
 1800afc:	2000ce26 	beq	r4,zero,1800e38 <___vfprintf_internal_r+0x6d4>
 1800b00:	01400044 	movi	r5,1
 1800b04:	d9800f04 	addi	r6,sp,60
 1800b08:	d9c14015 	stw	r7,1280(sp)
 1800b0c:	d9414515 	stw	r5,1300(sp)
 1800b10:	d9814115 	stw	r6,1284(sp)
 1800b14:	280f883a 	mov	r7,r5
 1800b18:	d9000f05 	stb	r4,60(sp)
 1800b1c:	d8000405 	stb	zero,16(sp)
 1800b20:	d8014615 	stw	zero,1304(sp)
 1800b24:	d8c14c17 	ldw	r3,1328(sp)
 1800b28:	1880008c 	andi	r2,r3,2
 1800b2c:	1005003a 	cmpeq	r2,r2,zero
 1800b30:	d8815015 	stw	r2,1344(sp)
 1800b34:	1000031e 	bne	r2,zero,1800b44 <___vfprintf_internal_r+0x3e0>
 1800b38:	d9014517 	ldw	r4,1300(sp)
 1800b3c:	21000084 	addi	r4,r4,2
 1800b40:	d9014515 	stw	r4,1300(sp)
 1800b44:	d9414c17 	ldw	r5,1328(sp)
 1800b48:	2940210c 	andi	r5,r5,132
 1800b4c:	d9414e15 	stw	r5,1336(sp)
 1800b50:	28002d1e 	bne	r5,zero,1800c08 <___vfprintf_internal_r+0x4a4>
 1800b54:	d9814a17 	ldw	r6,1320(sp)
 1800b58:	d8814517 	ldw	r2,1300(sp)
 1800b5c:	30a1c83a 	sub	r16,r6,r2
 1800b60:	0400290e 	bge	zero,r16,1800c08 <___vfprintf_internal_r+0x4a4>
 1800b64:	00800404 	movi	r2,16
 1800b68:	1404580e 	bge	r2,r16,1801ccc <___vfprintf_internal_r+0x1568>
 1800b6c:	dc800e17 	ldw	r18,56(sp)
 1800b70:	dc400d17 	ldw	r17,52(sp)
 1800b74:	1027883a 	mov	r19,r2
 1800b78:	07006074 	movhi	fp,385
 1800b7c:	e7023784 	addi	fp,fp,2270
 1800b80:	050001c4 	movi	r20,7
 1800b84:	00000306 	br	1800b94 <___vfprintf_internal_r+0x430>
 1800b88:	843ffc04 	addi	r16,r16,-16
 1800b8c:	ad400204 	addi	r21,r21,8
 1800b90:	9c00130e 	bge	r19,r16,1800be0 <___vfprintf_internal_r+0x47c>
 1800b94:	94800404 	addi	r18,r18,16
 1800b98:	8c400044 	addi	r17,r17,1
 1800b9c:	af000015 	stw	fp,0(r21)
 1800ba0:	acc00115 	stw	r19,4(r21)
 1800ba4:	dc800e15 	stw	r18,56(sp)
 1800ba8:	dc400d15 	stw	r17,52(sp)
 1800bac:	a47ff60e 	bge	r20,r17,1800b88 <___vfprintf_internal_r+0x424>
 1800bb0:	d9014f17 	ldw	r4,1340(sp)
 1800bb4:	b00b883a 	mov	r5,r22
 1800bb8:	d9800c04 	addi	r6,sp,48
 1800bbc:	d9c15115 	stw	r7,1348(sp)
 1800bc0:	180070c0 	call	180070c <__sprint_r>
 1800bc4:	d9c15117 	ldw	r7,1348(sp)
 1800bc8:	10009e1e 	bne	r2,zero,1800e44 <___vfprintf_internal_r+0x6e0>
 1800bcc:	843ffc04 	addi	r16,r16,-16
 1800bd0:	dc800e17 	ldw	r18,56(sp)
 1800bd4:	dc400d17 	ldw	r17,52(sp)
 1800bd8:	dd401904 	addi	r21,sp,100
 1800bdc:	9c3fed16 	blt	r19,r16,1800b94 <___vfprintf_internal_r+0x430>
 1800be0:	9425883a 	add	r18,r18,r16
 1800be4:	8c400044 	addi	r17,r17,1
 1800be8:	008001c4 	movi	r2,7
 1800bec:	af000015 	stw	fp,0(r21)
 1800bf0:	ac000115 	stw	r16,4(r21)
 1800bf4:	dc800e15 	stw	r18,56(sp)
 1800bf8:	dc400d15 	stw	r17,52(sp)
 1800bfc:	1441f516 	blt	r2,r17,18013d4 <___vfprintf_internal_r+0xc70>
 1800c00:	ad400204 	addi	r21,r21,8
 1800c04:	00000206 	br	1800c10 <___vfprintf_internal_r+0x4ac>
 1800c08:	dc800e17 	ldw	r18,56(sp)
 1800c0c:	dc400d17 	ldw	r17,52(sp)
 1800c10:	d8800407 	ldb	r2,16(sp)
 1800c14:	10000b26 	beq	r2,zero,1800c44 <___vfprintf_internal_r+0x4e0>
 1800c18:	00800044 	movi	r2,1
 1800c1c:	94800044 	addi	r18,r18,1
 1800c20:	8c400044 	addi	r17,r17,1
 1800c24:	a8800115 	stw	r2,4(r21)
 1800c28:	d8c00404 	addi	r3,sp,16
 1800c2c:	008001c4 	movi	r2,7
 1800c30:	a8c00015 	stw	r3,0(r21)
 1800c34:	dc800e15 	stw	r18,56(sp)
 1800c38:	dc400d15 	stw	r17,52(sp)
 1800c3c:	1441da16 	blt	r2,r17,18013a8 <___vfprintf_internal_r+0xc44>
 1800c40:	ad400204 	addi	r21,r21,8
 1800c44:	d9015017 	ldw	r4,1344(sp)
 1800c48:	20000b1e 	bne	r4,zero,1800c78 <___vfprintf_internal_r+0x514>
 1800c4c:	d8800444 	addi	r2,sp,17
 1800c50:	94800084 	addi	r18,r18,2
 1800c54:	8c400044 	addi	r17,r17,1
 1800c58:	a8800015 	stw	r2,0(r21)
 1800c5c:	00c00084 	movi	r3,2
 1800c60:	008001c4 	movi	r2,7
 1800c64:	a8c00115 	stw	r3,4(r21)
 1800c68:	dc800e15 	stw	r18,56(sp)
 1800c6c:	dc400d15 	stw	r17,52(sp)
 1800c70:	1441c216 	blt	r2,r17,180137c <___vfprintf_internal_r+0xc18>
 1800c74:	ad400204 	addi	r21,r21,8
 1800c78:	d9414e17 	ldw	r5,1336(sp)
 1800c7c:	00802004 	movi	r2,128
 1800c80:	2880b126 	beq	r5,r2,1800f48 <___vfprintf_internal_r+0x7e4>
 1800c84:	d8c14617 	ldw	r3,1304(sp)
 1800c88:	19e1c83a 	sub	r16,r3,r7
 1800c8c:	0400260e 	bge	zero,r16,1800d28 <___vfprintf_internal_r+0x5c4>
 1800c90:	00800404 	movi	r2,16
 1800c94:	1403c90e 	bge	r2,r16,1801bbc <___vfprintf_internal_r+0x1458>
 1800c98:	1027883a 	mov	r19,r2
 1800c9c:	07006074 	movhi	fp,385
 1800ca0:	e7023384 	addi	fp,fp,2254
 1800ca4:	050001c4 	movi	r20,7
 1800ca8:	00000306 	br	1800cb8 <___vfprintf_internal_r+0x554>
 1800cac:	843ffc04 	addi	r16,r16,-16
 1800cb0:	ad400204 	addi	r21,r21,8
 1800cb4:	9c00130e 	bge	r19,r16,1800d04 <___vfprintf_internal_r+0x5a0>
 1800cb8:	94800404 	addi	r18,r18,16
 1800cbc:	8c400044 	addi	r17,r17,1
 1800cc0:	af000015 	stw	fp,0(r21)
 1800cc4:	acc00115 	stw	r19,4(r21)
 1800cc8:	dc800e15 	stw	r18,56(sp)
 1800ccc:	dc400d15 	stw	r17,52(sp)
 1800cd0:	a47ff60e 	bge	r20,r17,1800cac <___vfprintf_internal_r+0x548>
 1800cd4:	d9014f17 	ldw	r4,1340(sp)
 1800cd8:	b00b883a 	mov	r5,r22
 1800cdc:	d9800c04 	addi	r6,sp,48
 1800ce0:	d9c15115 	stw	r7,1348(sp)
 1800ce4:	180070c0 	call	180070c <__sprint_r>
 1800ce8:	d9c15117 	ldw	r7,1348(sp)
 1800cec:	1000551e 	bne	r2,zero,1800e44 <___vfprintf_internal_r+0x6e0>
 1800cf0:	843ffc04 	addi	r16,r16,-16
 1800cf4:	dc800e17 	ldw	r18,56(sp)
 1800cf8:	dc400d17 	ldw	r17,52(sp)
 1800cfc:	dd401904 	addi	r21,sp,100
 1800d00:	9c3fed16 	blt	r19,r16,1800cb8 <___vfprintf_internal_r+0x554>
 1800d04:	9425883a 	add	r18,r18,r16
 1800d08:	8c400044 	addi	r17,r17,1
 1800d0c:	008001c4 	movi	r2,7
 1800d10:	af000015 	stw	fp,0(r21)
 1800d14:	ac000115 	stw	r16,4(r21)
 1800d18:	dc800e15 	stw	r18,56(sp)
 1800d1c:	dc400d15 	stw	r17,52(sp)
 1800d20:	14418216 	blt	r2,r17,180132c <___vfprintf_internal_r+0xbc8>
 1800d24:	ad400204 	addi	r21,r21,8
 1800d28:	d9014c17 	ldw	r4,1328(sp)
 1800d2c:	2080400c 	andi	r2,r4,256
 1800d30:	10004a1e 	bne	r2,zero,1800e5c <___vfprintf_internal_r+0x6f8>
 1800d34:	d9414117 	ldw	r5,1284(sp)
 1800d38:	91e5883a 	add	r18,r18,r7
 1800d3c:	8c400044 	addi	r17,r17,1
 1800d40:	008001c4 	movi	r2,7
 1800d44:	a9400015 	stw	r5,0(r21)
 1800d48:	a9c00115 	stw	r7,4(r21)
 1800d4c:	dc800e15 	stw	r18,56(sp)
 1800d50:	dc400d15 	stw	r17,52(sp)
 1800d54:	14416716 	blt	r2,r17,18012f4 <___vfprintf_internal_r+0xb90>
 1800d58:	a8c00204 	addi	r3,r21,8
 1800d5c:	d9814c17 	ldw	r6,1328(sp)
 1800d60:	3080010c 	andi	r2,r6,4
 1800d64:	10002826 	beq	r2,zero,1800e08 <___vfprintf_internal_r+0x6a4>
 1800d68:	d8814a17 	ldw	r2,1320(sp)
 1800d6c:	d9014517 	ldw	r4,1300(sp)
 1800d70:	1121c83a 	sub	r16,r2,r4
 1800d74:	0400240e 	bge	zero,r16,1800e08 <___vfprintf_internal_r+0x6a4>
 1800d78:	00800404 	movi	r2,16
 1800d7c:	14044f0e 	bge	r2,r16,1801ebc <___vfprintf_internal_r+0x1758>
 1800d80:	dc400d17 	ldw	r17,52(sp)
 1800d84:	1027883a 	mov	r19,r2
 1800d88:	07006074 	movhi	fp,385
 1800d8c:	e7023784 	addi	fp,fp,2270
 1800d90:	050001c4 	movi	r20,7
 1800d94:	00000306 	br	1800da4 <___vfprintf_internal_r+0x640>
 1800d98:	843ffc04 	addi	r16,r16,-16
 1800d9c:	18c00204 	addi	r3,r3,8
 1800da0:	9c00110e 	bge	r19,r16,1800de8 <___vfprintf_internal_r+0x684>
 1800da4:	94800404 	addi	r18,r18,16
 1800da8:	8c400044 	addi	r17,r17,1
 1800dac:	1f000015 	stw	fp,0(r3)
 1800db0:	1cc00115 	stw	r19,4(r3)
 1800db4:	dc800e15 	stw	r18,56(sp)
 1800db8:	dc400d15 	stw	r17,52(sp)
 1800dbc:	a47ff60e 	bge	r20,r17,1800d98 <___vfprintf_internal_r+0x634>
 1800dc0:	d9014f17 	ldw	r4,1340(sp)
 1800dc4:	b00b883a 	mov	r5,r22
 1800dc8:	d9800c04 	addi	r6,sp,48
 1800dcc:	180070c0 	call	180070c <__sprint_r>
 1800dd0:	10001c1e 	bne	r2,zero,1800e44 <___vfprintf_internal_r+0x6e0>
 1800dd4:	843ffc04 	addi	r16,r16,-16
 1800dd8:	dc800e17 	ldw	r18,56(sp)
 1800ddc:	dc400d17 	ldw	r17,52(sp)
 1800de0:	d8c01904 	addi	r3,sp,100
 1800de4:	9c3fef16 	blt	r19,r16,1800da4 <___vfprintf_internal_r+0x640>
 1800de8:	9425883a 	add	r18,r18,r16
 1800dec:	8c400044 	addi	r17,r17,1
 1800df0:	008001c4 	movi	r2,7
 1800df4:	1f000015 	stw	fp,0(r3)
 1800df8:	1c000115 	stw	r16,4(r3)
 1800dfc:	dc800e15 	stw	r18,56(sp)
 1800e00:	dc400d15 	stw	r17,52(sp)
 1800e04:	1440cb16 	blt	r2,r17,1801134 <___vfprintf_internal_r+0x9d0>
 1800e08:	d8814a17 	ldw	r2,1320(sp)
 1800e0c:	d9414517 	ldw	r5,1300(sp)
 1800e10:	1140010e 	bge	r2,r5,1800e18 <___vfprintf_internal_r+0x6b4>
 1800e14:	2805883a 	mov	r2,r5
 1800e18:	d9814b17 	ldw	r6,1324(sp)
 1800e1c:	308d883a 	add	r6,r6,r2
 1800e20:	d9814b15 	stw	r6,1324(sp)
 1800e24:	90013b1e 	bne	r18,zero,1801314 <___vfprintf_internal_r+0xbb0>
 1800e28:	d9c14017 	ldw	r7,1280(sp)
 1800e2c:	dd401904 	addi	r21,sp,100
 1800e30:	d8000d15 	stw	zero,52(sp)
 1800e34:	003ea706 	br	18008d4 <___vfprintf_internal_r+0x170>
 1800e38:	d8800e17 	ldw	r2,56(sp)
 1800e3c:	10053f1e 	bne	r2,zero,180233c <___vfprintf_internal_r+0x1bd8>
 1800e40:	d8000d15 	stw	zero,52(sp)
 1800e44:	b080030b 	ldhu	r2,12(r22)
 1800e48:	1080100c 	andi	r2,r2,64
 1800e4c:	103e8726 	beq	r2,zero,180086c <___vfprintf_internal_r+0x108>
 1800e50:	00bfffc4 	movi	r2,-1
 1800e54:	d8814b15 	stw	r2,1324(sp)
 1800e58:	003e8406 	br	180086c <___vfprintf_internal_r+0x108>
 1800e5c:	d9814d17 	ldw	r6,1332(sp)
 1800e60:	00801944 	movi	r2,101
 1800e64:	11806e16 	blt	r2,r6,1801020 <___vfprintf_internal_r+0x8bc>
 1800e68:	d9414717 	ldw	r5,1308(sp)
 1800e6c:	00c00044 	movi	r3,1
 1800e70:	1943430e 	bge	r3,r5,1801b80 <___vfprintf_internal_r+0x141c>
 1800e74:	d8814117 	ldw	r2,1284(sp)
 1800e78:	94800044 	addi	r18,r18,1
 1800e7c:	8c400044 	addi	r17,r17,1
 1800e80:	a8800015 	stw	r2,0(r21)
 1800e84:	008001c4 	movi	r2,7
 1800e88:	a8c00115 	stw	r3,4(r21)
 1800e8c:	dc800e15 	stw	r18,56(sp)
 1800e90:	dc400d15 	stw	r17,52(sp)
 1800e94:	1441ca16 	blt	r2,r17,18015c0 <___vfprintf_internal_r+0xe5c>
 1800e98:	a8c00204 	addi	r3,r21,8
 1800e9c:	d9014917 	ldw	r4,1316(sp)
 1800ea0:	00800044 	movi	r2,1
 1800ea4:	94800044 	addi	r18,r18,1
 1800ea8:	8c400044 	addi	r17,r17,1
 1800eac:	18800115 	stw	r2,4(r3)
 1800eb0:	008001c4 	movi	r2,7
 1800eb4:	19000015 	stw	r4,0(r3)
 1800eb8:	dc800e15 	stw	r18,56(sp)
 1800ebc:	dc400d15 	stw	r17,52(sp)
 1800ec0:	1441b616 	blt	r2,r17,180159c <___vfprintf_internal_r+0xe38>
 1800ec4:	1cc00204 	addi	r19,r3,8
 1800ec8:	d9014217 	ldw	r4,1288(sp)
 1800ecc:	d9414317 	ldw	r5,1292(sp)
 1800ed0:	000d883a 	mov	r6,zero
 1800ed4:	000f883a 	mov	r7,zero
 1800ed8:	1808fb40 	call	1808fb4 <__nedf2>
 1800edc:	10017426 	beq	r2,zero,18014b0 <___vfprintf_internal_r+0xd4c>
 1800ee0:	d9414717 	ldw	r5,1308(sp)
 1800ee4:	d9814117 	ldw	r6,1284(sp)
 1800ee8:	8c400044 	addi	r17,r17,1
 1800eec:	2c85883a 	add	r2,r5,r18
 1800ef0:	14bfffc4 	addi	r18,r2,-1
 1800ef4:	28bfffc4 	addi	r2,r5,-1
 1800ef8:	30c00044 	addi	r3,r6,1
 1800efc:	98800115 	stw	r2,4(r19)
 1800f00:	008001c4 	movi	r2,7
 1800f04:	98c00015 	stw	r3,0(r19)
 1800f08:	dc800e15 	stw	r18,56(sp)
 1800f0c:	dc400d15 	stw	r17,52(sp)
 1800f10:	14418e16 	blt	r2,r17,180154c <___vfprintf_internal_r+0xde8>
 1800f14:	9cc00204 	addi	r19,r19,8
 1800f18:	d9414817 	ldw	r5,1312(sp)
 1800f1c:	d8800804 	addi	r2,sp,32
 1800f20:	8c400044 	addi	r17,r17,1
 1800f24:	9165883a 	add	r18,r18,r5
 1800f28:	98800015 	stw	r2,0(r19)
 1800f2c:	008001c4 	movi	r2,7
 1800f30:	99400115 	stw	r5,4(r19)
 1800f34:	dc800e15 	stw	r18,56(sp)
 1800f38:	dc400d15 	stw	r17,52(sp)
 1800f3c:	1440ed16 	blt	r2,r17,18012f4 <___vfprintf_internal_r+0xb90>
 1800f40:	98c00204 	addi	r3,r19,8
 1800f44:	003f8506 	br	1800d5c <___vfprintf_internal_r+0x5f8>
 1800f48:	d9814a17 	ldw	r6,1320(sp)
 1800f4c:	d8814517 	ldw	r2,1300(sp)
 1800f50:	30a1c83a 	sub	r16,r6,r2
 1800f54:	043f4b0e 	bge	zero,r16,1800c84 <___vfprintf_internal_r+0x520>
 1800f58:	00800404 	movi	r2,16
 1800f5c:	1404340e 	bge	r2,r16,1802030 <___vfprintf_internal_r+0x18cc>
 1800f60:	1027883a 	mov	r19,r2
 1800f64:	07006074 	movhi	fp,385
 1800f68:	e7023384 	addi	fp,fp,2254
 1800f6c:	050001c4 	movi	r20,7
 1800f70:	00000306 	br	1800f80 <___vfprintf_internal_r+0x81c>
 1800f74:	843ffc04 	addi	r16,r16,-16
 1800f78:	ad400204 	addi	r21,r21,8
 1800f7c:	9c00130e 	bge	r19,r16,1800fcc <___vfprintf_internal_r+0x868>
 1800f80:	94800404 	addi	r18,r18,16
 1800f84:	8c400044 	addi	r17,r17,1
 1800f88:	af000015 	stw	fp,0(r21)
 1800f8c:	acc00115 	stw	r19,4(r21)
 1800f90:	dc800e15 	stw	r18,56(sp)
 1800f94:	dc400d15 	stw	r17,52(sp)
 1800f98:	a47ff60e 	bge	r20,r17,1800f74 <___vfprintf_internal_r+0x810>
 1800f9c:	d9014f17 	ldw	r4,1340(sp)
 1800fa0:	b00b883a 	mov	r5,r22
 1800fa4:	d9800c04 	addi	r6,sp,48
 1800fa8:	d9c15115 	stw	r7,1348(sp)
 1800fac:	180070c0 	call	180070c <__sprint_r>
 1800fb0:	d9c15117 	ldw	r7,1348(sp)
 1800fb4:	103fa31e 	bne	r2,zero,1800e44 <___vfprintf_internal_r+0x6e0>
 1800fb8:	843ffc04 	addi	r16,r16,-16
 1800fbc:	dc800e17 	ldw	r18,56(sp)
 1800fc0:	dc400d17 	ldw	r17,52(sp)
 1800fc4:	dd401904 	addi	r21,sp,100
 1800fc8:	9c3fed16 	blt	r19,r16,1800f80 <___vfprintf_internal_r+0x81c>
 1800fcc:	9425883a 	add	r18,r18,r16
 1800fd0:	8c400044 	addi	r17,r17,1
 1800fd4:	008001c4 	movi	r2,7
 1800fd8:	af000015 	stw	fp,0(r21)
 1800fdc:	ac000115 	stw	r16,4(r21)
 1800fe0:	dc800e15 	stw	r18,56(sp)
 1800fe4:	dc400d15 	stw	r17,52(sp)
 1800fe8:	14416116 	blt	r2,r17,1801570 <___vfprintf_internal_r+0xe0c>
 1800fec:	ad400204 	addi	r21,r21,8
 1800ff0:	003f2406 	br	1800c84 <___vfprintf_internal_r+0x520>
 1800ff4:	d9014f17 	ldw	r4,1340(sp)
 1800ff8:	18041d40 	call	18041d4 <__sinit>
 1800ffc:	d9c15117 	ldw	r7,1348(sp)
 1801000:	003def06 	br	18007c0 <___vfprintf_internal_r+0x5c>
 1801004:	d9014f17 	ldw	r4,1340(sp)
 1801008:	b00b883a 	mov	r5,r22
 180100c:	d9c15115 	stw	r7,1348(sp)
 1801010:	18026340 	call	1802634 <__swsetup_r>
 1801014:	d9c15117 	ldw	r7,1348(sp)
 1801018:	103dee26 	beq	r2,zero,18007d4 <___vfprintf_internal_r+0x70>
 180101c:	003f8c06 	br	1800e50 <___vfprintf_internal_r+0x6ec>
 1801020:	d9014217 	ldw	r4,1288(sp)
 1801024:	d9414317 	ldw	r5,1292(sp)
 1801028:	000d883a 	mov	r6,zero
 180102c:	000f883a 	mov	r7,zero
 1801030:	1808f2c0 	call	1808f2c <__eqdf2>
 1801034:	1000f21e 	bne	r2,zero,1801400 <___vfprintf_internal_r+0xc9c>
 1801038:	00806074 	movhi	r2,385
 180103c:	10823304 	addi	r2,r2,2252
 1801040:	94800044 	addi	r18,r18,1
 1801044:	8c400044 	addi	r17,r17,1
 1801048:	a8800015 	stw	r2,0(r21)
 180104c:	00c00044 	movi	r3,1
 1801050:	008001c4 	movi	r2,7
 1801054:	a8c00115 	stw	r3,4(r21)
 1801058:	dc800e15 	stw	r18,56(sp)
 180105c:	dc400d15 	stw	r17,52(sp)
 1801060:	1442fa16 	blt	r2,r17,1801c4c <___vfprintf_internal_r+0x14e8>
 1801064:	a8c00204 	addi	r3,r21,8
 1801068:	d8800517 	ldw	r2,20(sp)
 180106c:	d9014717 	ldw	r4,1308(sp)
 1801070:	11015c0e 	bge	r2,r4,18015e4 <___vfprintf_internal_r+0xe80>
 1801074:	dc400d17 	ldw	r17,52(sp)
 1801078:	d9814917 	ldw	r6,1316(sp)
 180107c:	00800044 	movi	r2,1
 1801080:	94800044 	addi	r18,r18,1
 1801084:	8c400044 	addi	r17,r17,1
 1801088:	18800115 	stw	r2,4(r3)
 180108c:	008001c4 	movi	r2,7
 1801090:	19800015 	stw	r6,0(r3)
 1801094:	dc800e15 	stw	r18,56(sp)
 1801098:	dc400d15 	stw	r17,52(sp)
 180109c:	14431016 	blt	r2,r17,1801ce0 <___vfprintf_internal_r+0x157c>
 18010a0:	18c00204 	addi	r3,r3,8
 18010a4:	d8814717 	ldw	r2,1308(sp)
 18010a8:	143fffc4 	addi	r16,r2,-1
 18010ac:	043f2b0e 	bge	zero,r16,1800d5c <___vfprintf_internal_r+0x5f8>
 18010b0:	00800404 	movi	r2,16
 18010b4:	1402a20e 	bge	r2,r16,1801b40 <___vfprintf_internal_r+0x13dc>
 18010b8:	dc400d17 	ldw	r17,52(sp)
 18010bc:	1027883a 	mov	r19,r2
 18010c0:	07006074 	movhi	fp,385
 18010c4:	e7023384 	addi	fp,fp,2254
 18010c8:	050001c4 	movi	r20,7
 18010cc:	00000306 	br	18010dc <___vfprintf_internal_r+0x978>
 18010d0:	18c00204 	addi	r3,r3,8
 18010d4:	843ffc04 	addi	r16,r16,-16
 18010d8:	9c029c0e 	bge	r19,r16,1801b4c <___vfprintf_internal_r+0x13e8>
 18010dc:	94800404 	addi	r18,r18,16
 18010e0:	8c400044 	addi	r17,r17,1
 18010e4:	1f000015 	stw	fp,0(r3)
 18010e8:	1cc00115 	stw	r19,4(r3)
 18010ec:	dc800e15 	stw	r18,56(sp)
 18010f0:	dc400d15 	stw	r17,52(sp)
 18010f4:	a47ff60e 	bge	r20,r17,18010d0 <___vfprintf_internal_r+0x96c>
 18010f8:	d9014f17 	ldw	r4,1340(sp)
 18010fc:	b00b883a 	mov	r5,r22
 1801100:	d9800c04 	addi	r6,sp,48
 1801104:	180070c0 	call	180070c <__sprint_r>
 1801108:	103f4e1e 	bne	r2,zero,1800e44 <___vfprintf_internal_r+0x6e0>
 180110c:	dc800e17 	ldw	r18,56(sp)
 1801110:	dc400d17 	ldw	r17,52(sp)
 1801114:	d8c01904 	addi	r3,sp,100
 1801118:	003fee06 	br	18010d4 <___vfprintf_internal_r+0x970>
 180111c:	d8802c0b 	ldhu	r2,176(sp)
 1801120:	00ffffc4 	movi	r3,-1
 1801124:	d8c14b15 	stw	r3,1324(sp)
 1801128:	1080100c 	andi	r2,r2,64
 180112c:	103dcc1e 	bne	r2,zero,1800860 <___vfprintf_internal_r+0xfc>
 1801130:	003dce06 	br	180086c <___vfprintf_internal_r+0x108>
 1801134:	d9014f17 	ldw	r4,1340(sp)
 1801138:	b00b883a 	mov	r5,r22
 180113c:	d9800c04 	addi	r6,sp,48
 1801140:	180070c0 	call	180070c <__sprint_r>
 1801144:	103f3f1e 	bne	r2,zero,1800e44 <___vfprintf_internal_r+0x6e0>
 1801148:	dc800e17 	ldw	r18,56(sp)
 180114c:	003f2e06 	br	1800e08 <___vfprintf_internal_r+0x6a4>
 1801150:	d9414c17 	ldw	r5,1328(sp)
 1801154:	29400414 	ori	r5,r5,16
 1801158:	d9414c15 	stw	r5,1328(sp)
 180115c:	d9814c17 	ldw	r6,1328(sp)
 1801160:	3080080c 	andi	r2,r6,32
 1801164:	10014f1e 	bne	r2,zero,18016a4 <___vfprintf_internal_r+0xf40>
 1801168:	d8c14c17 	ldw	r3,1328(sp)
 180116c:	1880040c 	andi	r2,r3,16
 1801170:	1002ea1e 	bne	r2,zero,1801d1c <___vfprintf_internal_r+0x15b8>
 1801174:	d9014c17 	ldw	r4,1328(sp)
 1801178:	2080100c 	andi	r2,r4,64
 180117c:	1002e726 	beq	r2,zero,1801d1c <___vfprintf_internal_r+0x15b8>
 1801180:	3880000f 	ldh	r2,0(r7)
 1801184:	39c00104 	addi	r7,r7,4
 1801188:	d9c14015 	stw	r7,1280(sp)
 180118c:	1023d7fa 	srai	r17,r2,31
 1801190:	1021883a 	mov	r16,r2
 1801194:	88037216 	blt	r17,zero,1801f60 <___vfprintf_internal_r+0x17fc>
 1801198:	01000044 	movi	r4,1
 180119c:	98000416 	blt	r19,zero,18011b0 <___vfprintf_internal_r+0xa4c>
 18011a0:	d8c14c17 	ldw	r3,1328(sp)
 18011a4:	00bfdfc4 	movi	r2,-129
 18011a8:	1886703a 	and	r3,r3,r2
 18011ac:	d8c14c15 	stw	r3,1328(sp)
 18011b0:	8444b03a 	or	r2,r16,r17
 18011b4:	1002261e 	bne	r2,zero,1801a50 <___vfprintf_internal_r+0x12ec>
 18011b8:	9802251e 	bne	r19,zero,1801a50 <___vfprintf_internal_r+0x12ec>
 18011bc:	20803fcc 	andi	r2,r4,255
 18011c0:	10029b26 	beq	r2,zero,1801c30 <___vfprintf_internal_r+0x14cc>
 18011c4:	d8c01904 	addi	r3,sp,100
 18011c8:	dd000f04 	addi	r20,sp,60
 18011cc:	d8c14115 	stw	r3,1284(sp)
 18011d0:	d8c14117 	ldw	r3,1284(sp)
 18011d4:	dcc14515 	stw	r19,1300(sp)
 18011d8:	a0c5c83a 	sub	r2,r20,r3
 18011dc:	11c00a04 	addi	r7,r2,40
 18011e0:	99c0010e 	bge	r19,r7,18011e8 <___vfprintf_internal_r+0xa84>
 18011e4:	d9c14515 	stw	r7,1300(sp)
 18011e8:	dcc14615 	stw	r19,1304(sp)
 18011ec:	d8800407 	ldb	r2,16(sp)
 18011f0:	103e4c26 	beq	r2,zero,1800b24 <___vfprintf_internal_r+0x3c0>
 18011f4:	d8814517 	ldw	r2,1300(sp)
 18011f8:	10800044 	addi	r2,r2,1
 18011fc:	d8814515 	stw	r2,1300(sp)
 1801200:	003e4806 	br	1800b24 <___vfprintf_internal_r+0x3c0>
 1801204:	d9814c17 	ldw	r6,1328(sp)
 1801208:	31800414 	ori	r6,r6,16
 180120c:	d9814c15 	stw	r6,1328(sp)
 1801210:	d8c14c17 	ldw	r3,1328(sp)
 1801214:	1880080c 	andi	r2,r3,32
 1801218:	1001271e 	bne	r2,zero,18016b8 <___vfprintf_internal_r+0xf54>
 180121c:	d9414c17 	ldw	r5,1328(sp)
 1801220:	2880040c 	andi	r2,r5,16
 1801224:	1002b61e 	bne	r2,zero,1801d00 <___vfprintf_internal_r+0x159c>
 1801228:	d9814c17 	ldw	r6,1328(sp)
 180122c:	3080100c 	andi	r2,r6,64
 1801230:	1002b326 	beq	r2,zero,1801d00 <___vfprintf_internal_r+0x159c>
 1801234:	3c00000b 	ldhu	r16,0(r7)
 1801238:	0009883a 	mov	r4,zero
 180123c:	39c00104 	addi	r7,r7,4
 1801240:	0023883a 	mov	r17,zero
 1801244:	d9c14015 	stw	r7,1280(sp)
 1801248:	d8000405 	stb	zero,16(sp)
 180124c:	003fd306 	br	180119c <___vfprintf_internal_r+0xa38>
 1801250:	d9014c17 	ldw	r4,1328(sp)
 1801254:	21000414 	ori	r4,r4,16
 1801258:	d9014c15 	stw	r4,1328(sp)
 180125c:	d9414c17 	ldw	r5,1328(sp)
 1801260:	2880080c 	andi	r2,r5,32
 1801264:	1001081e 	bne	r2,zero,1801688 <___vfprintf_internal_r+0xf24>
 1801268:	d8c14c17 	ldw	r3,1328(sp)
 180126c:	1880040c 	andi	r2,r3,16
 1801270:	1002b01e 	bne	r2,zero,1801d34 <___vfprintf_internal_r+0x15d0>
 1801274:	d9014c17 	ldw	r4,1328(sp)
 1801278:	2080100c 	andi	r2,r4,64
 180127c:	1002ad26 	beq	r2,zero,1801d34 <___vfprintf_internal_r+0x15d0>
 1801280:	3c00000b 	ldhu	r16,0(r7)
 1801284:	01000044 	movi	r4,1
 1801288:	39c00104 	addi	r7,r7,4
 180128c:	0023883a 	mov	r17,zero
 1801290:	d9c14015 	stw	r7,1280(sp)
 1801294:	d8000405 	stb	zero,16(sp)
 1801298:	003fc006 	br	180119c <___vfprintf_internal_r+0xa38>
 180129c:	d9014f17 	ldw	r4,1340(sp)
 18012a0:	b00b883a 	mov	r5,r22
 18012a4:	d9800c04 	addi	r6,sp,48
 18012a8:	180070c0 	call	180070c <__sprint_r>
 18012ac:	103ee51e 	bne	r2,zero,1800e44 <___vfprintf_internal_r+0x6e0>
 18012b0:	dc800e17 	ldw	r18,56(sp)
 18012b4:	d8c01904 	addi	r3,sp,100
 18012b8:	d9814c17 	ldw	r6,1328(sp)
 18012bc:	3080004c 	andi	r2,r6,1
 18012c0:	1005003a 	cmpeq	r2,r2,zero
 18012c4:	103ea51e 	bne	r2,zero,1800d5c <___vfprintf_internal_r+0x5f8>
 18012c8:	00800044 	movi	r2,1
 18012cc:	dc400d17 	ldw	r17,52(sp)
 18012d0:	18800115 	stw	r2,4(r3)
 18012d4:	d8814917 	ldw	r2,1316(sp)
 18012d8:	94800044 	addi	r18,r18,1
 18012dc:	8c400044 	addi	r17,r17,1
 18012e0:	18800015 	stw	r2,0(r3)
 18012e4:	008001c4 	movi	r2,7
 18012e8:	dc800e15 	stw	r18,56(sp)
 18012ec:	dc400d15 	stw	r17,52(sp)
 18012f0:	14421e0e 	bge	r2,r17,1801b6c <___vfprintf_internal_r+0x1408>
 18012f4:	d9014f17 	ldw	r4,1340(sp)
 18012f8:	b00b883a 	mov	r5,r22
 18012fc:	d9800c04 	addi	r6,sp,48
 1801300:	180070c0 	call	180070c <__sprint_r>
 1801304:	103ecf1e 	bne	r2,zero,1800e44 <___vfprintf_internal_r+0x6e0>
 1801308:	dc800e17 	ldw	r18,56(sp)
 180130c:	d8c01904 	addi	r3,sp,100
 1801310:	003e9206 	br	1800d5c <___vfprintf_internal_r+0x5f8>
 1801314:	d9014f17 	ldw	r4,1340(sp)
 1801318:	b00b883a 	mov	r5,r22
 180131c:	d9800c04 	addi	r6,sp,48
 1801320:	180070c0 	call	180070c <__sprint_r>
 1801324:	103ec026 	beq	r2,zero,1800e28 <___vfprintf_internal_r+0x6c4>
 1801328:	003ec606 	br	1800e44 <___vfprintf_internal_r+0x6e0>
 180132c:	d9014f17 	ldw	r4,1340(sp)
 1801330:	b00b883a 	mov	r5,r22
 1801334:	d9800c04 	addi	r6,sp,48
 1801338:	d9c15115 	stw	r7,1348(sp)
 180133c:	180070c0 	call	180070c <__sprint_r>
 1801340:	d9c15117 	ldw	r7,1348(sp)
 1801344:	103ebf1e 	bne	r2,zero,1800e44 <___vfprintf_internal_r+0x6e0>
 1801348:	dc800e17 	ldw	r18,56(sp)
 180134c:	dc400d17 	ldw	r17,52(sp)
 1801350:	dd401904 	addi	r21,sp,100
 1801354:	003e7406 	br	1800d28 <___vfprintf_internal_r+0x5c4>
 1801358:	d9014f17 	ldw	r4,1340(sp)
 180135c:	b00b883a 	mov	r5,r22
 1801360:	d9800c04 	addi	r6,sp,48
 1801364:	d9c15115 	stw	r7,1348(sp)
 1801368:	180070c0 	call	180070c <__sprint_r>
 180136c:	d9c15117 	ldw	r7,1348(sp)
 1801370:	103eb41e 	bne	r2,zero,1800e44 <___vfprintf_internal_r+0x6e0>
 1801374:	dd401904 	addi	r21,sp,100
 1801378:	003d6d06 	br	1800930 <___vfprintf_internal_r+0x1cc>
 180137c:	d9014f17 	ldw	r4,1340(sp)
 1801380:	b00b883a 	mov	r5,r22
 1801384:	d9800c04 	addi	r6,sp,48
 1801388:	d9c15115 	stw	r7,1348(sp)
 180138c:	180070c0 	call	180070c <__sprint_r>
 1801390:	d9c15117 	ldw	r7,1348(sp)
 1801394:	103eab1e 	bne	r2,zero,1800e44 <___vfprintf_internal_r+0x6e0>
 1801398:	dc800e17 	ldw	r18,56(sp)
 180139c:	dc400d17 	ldw	r17,52(sp)
 18013a0:	dd401904 	addi	r21,sp,100
 18013a4:	003e3406 	br	1800c78 <___vfprintf_internal_r+0x514>
 18013a8:	d9014f17 	ldw	r4,1340(sp)
 18013ac:	b00b883a 	mov	r5,r22
 18013b0:	d9800c04 	addi	r6,sp,48
 18013b4:	d9c15115 	stw	r7,1348(sp)
 18013b8:	180070c0 	call	180070c <__sprint_r>
 18013bc:	d9c15117 	ldw	r7,1348(sp)
 18013c0:	103ea01e 	bne	r2,zero,1800e44 <___vfprintf_internal_r+0x6e0>
 18013c4:	dc800e17 	ldw	r18,56(sp)
 18013c8:	dc400d17 	ldw	r17,52(sp)
 18013cc:	dd401904 	addi	r21,sp,100
 18013d0:	003e1c06 	br	1800c44 <___vfprintf_internal_r+0x4e0>
 18013d4:	d9014f17 	ldw	r4,1340(sp)
 18013d8:	b00b883a 	mov	r5,r22
 18013dc:	d9800c04 	addi	r6,sp,48
 18013e0:	d9c15115 	stw	r7,1348(sp)
 18013e4:	180070c0 	call	180070c <__sprint_r>
 18013e8:	d9c15117 	ldw	r7,1348(sp)
 18013ec:	103e951e 	bne	r2,zero,1800e44 <___vfprintf_internal_r+0x6e0>
 18013f0:	dc800e17 	ldw	r18,56(sp)
 18013f4:	dc400d17 	ldw	r17,52(sp)
 18013f8:	dd401904 	addi	r21,sp,100
 18013fc:	003e0406 	br	1800c10 <___vfprintf_internal_r+0x4ac>
 1801400:	d9000517 	ldw	r4,20(sp)
 1801404:	0102520e 	bge	zero,r4,1801d50 <___vfprintf_internal_r+0x15ec>
 1801408:	d9814717 	ldw	r6,1308(sp)
 180140c:	21807a16 	blt	r4,r6,18015f8 <___vfprintf_internal_r+0xe94>
 1801410:	d8814117 	ldw	r2,1284(sp)
 1801414:	91a5883a 	add	r18,r18,r6
 1801418:	8c400044 	addi	r17,r17,1
 180141c:	a8800015 	stw	r2,0(r21)
 1801420:	008001c4 	movi	r2,7
 1801424:	a9800115 	stw	r6,4(r21)
 1801428:	dc800e15 	stw	r18,56(sp)
 180142c:	dc400d15 	stw	r17,52(sp)
 1801430:	1442f616 	blt	r2,r17,180200c <___vfprintf_internal_r+0x18a8>
 1801434:	a8c00204 	addi	r3,r21,8
 1801438:	d9414717 	ldw	r5,1308(sp)
 180143c:	2161c83a 	sub	r16,r4,r5
 1801440:	043f9d0e 	bge	zero,r16,18012b8 <___vfprintf_internal_r+0xb54>
 1801444:	00800404 	movi	r2,16
 1801448:	1402130e 	bge	r2,r16,1801c98 <___vfprintf_internal_r+0x1534>
 180144c:	dc400d17 	ldw	r17,52(sp)
 1801450:	1027883a 	mov	r19,r2
 1801454:	07006074 	movhi	fp,385
 1801458:	e7023384 	addi	fp,fp,2254
 180145c:	050001c4 	movi	r20,7
 1801460:	00000306 	br	1801470 <___vfprintf_internal_r+0xd0c>
 1801464:	18c00204 	addi	r3,r3,8
 1801468:	843ffc04 	addi	r16,r16,-16
 180146c:	9c020d0e 	bge	r19,r16,1801ca4 <___vfprintf_internal_r+0x1540>
 1801470:	94800404 	addi	r18,r18,16
 1801474:	8c400044 	addi	r17,r17,1
 1801478:	1f000015 	stw	fp,0(r3)
 180147c:	1cc00115 	stw	r19,4(r3)
 1801480:	dc800e15 	stw	r18,56(sp)
 1801484:	dc400d15 	stw	r17,52(sp)
 1801488:	a47ff60e 	bge	r20,r17,1801464 <___vfprintf_internal_r+0xd00>
 180148c:	d9014f17 	ldw	r4,1340(sp)
 1801490:	b00b883a 	mov	r5,r22
 1801494:	d9800c04 	addi	r6,sp,48
 1801498:	180070c0 	call	180070c <__sprint_r>
 180149c:	103e691e 	bne	r2,zero,1800e44 <___vfprintf_internal_r+0x6e0>
 18014a0:	dc800e17 	ldw	r18,56(sp)
 18014a4:	dc400d17 	ldw	r17,52(sp)
 18014a8:	d8c01904 	addi	r3,sp,100
 18014ac:	003fee06 	br	1801468 <___vfprintf_internal_r+0xd04>
 18014b0:	d8814717 	ldw	r2,1308(sp)
 18014b4:	143fffc4 	addi	r16,r2,-1
 18014b8:	043e970e 	bge	zero,r16,1800f18 <___vfprintf_internal_r+0x7b4>
 18014bc:	00800404 	movi	r2,16
 18014c0:	1400180e 	bge	r2,r16,1801524 <___vfprintf_internal_r+0xdc0>
 18014c4:	1029883a 	mov	r20,r2
 18014c8:	07006074 	movhi	fp,385
 18014cc:	e7023384 	addi	fp,fp,2254
 18014d0:	054001c4 	movi	r21,7
 18014d4:	00000306 	br	18014e4 <___vfprintf_internal_r+0xd80>
 18014d8:	9cc00204 	addi	r19,r19,8
 18014dc:	843ffc04 	addi	r16,r16,-16
 18014e0:	a400120e 	bge	r20,r16,180152c <___vfprintf_internal_r+0xdc8>
 18014e4:	94800404 	addi	r18,r18,16
 18014e8:	8c400044 	addi	r17,r17,1
 18014ec:	9f000015 	stw	fp,0(r19)
 18014f0:	9d000115 	stw	r20,4(r19)
 18014f4:	dc800e15 	stw	r18,56(sp)
 18014f8:	dc400d15 	stw	r17,52(sp)
 18014fc:	ac7ff60e 	bge	r21,r17,18014d8 <___vfprintf_internal_r+0xd74>
 1801500:	d9014f17 	ldw	r4,1340(sp)
 1801504:	b00b883a 	mov	r5,r22
 1801508:	d9800c04 	addi	r6,sp,48
 180150c:	180070c0 	call	180070c <__sprint_r>
 1801510:	103e4c1e 	bne	r2,zero,1800e44 <___vfprintf_internal_r+0x6e0>
 1801514:	dc800e17 	ldw	r18,56(sp)
 1801518:	dc400d17 	ldw	r17,52(sp)
 180151c:	dcc01904 	addi	r19,sp,100
 1801520:	003fee06 	br	18014dc <___vfprintf_internal_r+0xd78>
 1801524:	07006074 	movhi	fp,385
 1801528:	e7023384 	addi	fp,fp,2254
 180152c:	9425883a 	add	r18,r18,r16
 1801530:	8c400044 	addi	r17,r17,1
 1801534:	008001c4 	movi	r2,7
 1801538:	9f000015 	stw	fp,0(r19)
 180153c:	9c000115 	stw	r16,4(r19)
 1801540:	dc800e15 	stw	r18,56(sp)
 1801544:	dc400d15 	stw	r17,52(sp)
 1801548:	147e720e 	bge	r2,r17,1800f14 <___vfprintf_internal_r+0x7b0>
 180154c:	d9014f17 	ldw	r4,1340(sp)
 1801550:	b00b883a 	mov	r5,r22
 1801554:	d9800c04 	addi	r6,sp,48
 1801558:	180070c0 	call	180070c <__sprint_r>
 180155c:	103e391e 	bne	r2,zero,1800e44 <___vfprintf_internal_r+0x6e0>
 1801560:	dc800e17 	ldw	r18,56(sp)
 1801564:	dc400d17 	ldw	r17,52(sp)
 1801568:	dcc01904 	addi	r19,sp,100
 180156c:	003e6a06 	br	1800f18 <___vfprintf_internal_r+0x7b4>
 1801570:	d9014f17 	ldw	r4,1340(sp)
 1801574:	b00b883a 	mov	r5,r22
 1801578:	d9800c04 	addi	r6,sp,48
 180157c:	d9c15115 	stw	r7,1348(sp)
 1801580:	180070c0 	call	180070c <__sprint_r>
 1801584:	d9c15117 	ldw	r7,1348(sp)
 1801588:	103e2e1e 	bne	r2,zero,1800e44 <___vfprintf_internal_r+0x6e0>
 180158c:	dc800e17 	ldw	r18,56(sp)
 1801590:	dc400d17 	ldw	r17,52(sp)
 1801594:	dd401904 	addi	r21,sp,100
 1801598:	003dba06 	br	1800c84 <___vfprintf_internal_r+0x520>
 180159c:	d9014f17 	ldw	r4,1340(sp)
 18015a0:	b00b883a 	mov	r5,r22
 18015a4:	d9800c04 	addi	r6,sp,48
 18015a8:	180070c0 	call	180070c <__sprint_r>
 18015ac:	103e251e 	bne	r2,zero,1800e44 <___vfprintf_internal_r+0x6e0>
 18015b0:	dc800e17 	ldw	r18,56(sp)
 18015b4:	dc400d17 	ldw	r17,52(sp)
 18015b8:	dcc01904 	addi	r19,sp,100
 18015bc:	003e4206 	br	1800ec8 <___vfprintf_internal_r+0x764>
 18015c0:	d9014f17 	ldw	r4,1340(sp)
 18015c4:	b00b883a 	mov	r5,r22
 18015c8:	d9800c04 	addi	r6,sp,48
 18015cc:	180070c0 	call	180070c <__sprint_r>
 18015d0:	103e1c1e 	bne	r2,zero,1800e44 <___vfprintf_internal_r+0x6e0>
 18015d4:	dc800e17 	ldw	r18,56(sp)
 18015d8:	dc400d17 	ldw	r17,52(sp)
 18015dc:	d8c01904 	addi	r3,sp,100
 18015e0:	003e2e06 	br	1800e9c <___vfprintf_internal_r+0x738>
 18015e4:	d9414c17 	ldw	r5,1328(sp)
 18015e8:	2880004c 	andi	r2,r5,1
 18015ec:	1005003a 	cmpeq	r2,r2,zero
 18015f0:	103dda1e 	bne	r2,zero,1800d5c <___vfprintf_internal_r+0x5f8>
 18015f4:	003e9f06 	br	1801074 <___vfprintf_internal_r+0x910>
 18015f8:	d8c14117 	ldw	r3,1284(sp)
 18015fc:	9125883a 	add	r18,r18,r4
 1801600:	8c400044 	addi	r17,r17,1
 1801604:	008001c4 	movi	r2,7
 1801608:	a8c00015 	stw	r3,0(r21)
 180160c:	a9000115 	stw	r4,4(r21)
 1801610:	dc800e15 	stw	r18,56(sp)
 1801614:	dc400d15 	stw	r17,52(sp)
 1801618:	14426616 	blt	r2,r17,1801fb4 <___vfprintf_internal_r+0x1850>
 180161c:	a8c00204 	addi	r3,r21,8
 1801620:	d9414917 	ldw	r5,1316(sp)
 1801624:	00800044 	movi	r2,1
 1801628:	94800044 	addi	r18,r18,1
 180162c:	8c400044 	addi	r17,r17,1
 1801630:	18800115 	stw	r2,4(r3)
 1801634:	008001c4 	movi	r2,7
 1801638:	19400015 	stw	r5,0(r3)
 180163c:	dc800e15 	stw	r18,56(sp)
 1801640:	dc400d15 	stw	r17,52(sp)
 1801644:	2021883a 	mov	r16,r4
 1801648:	14425016 	blt	r2,r17,1801f8c <___vfprintf_internal_r+0x1828>
 180164c:	19400204 	addi	r5,r3,8
 1801650:	d9814717 	ldw	r6,1308(sp)
 1801654:	8c400044 	addi	r17,r17,1
 1801658:	dc400d15 	stw	r17,52(sp)
 180165c:	3107c83a 	sub	r3,r6,r4
 1801660:	d9014117 	ldw	r4,1284(sp)
 1801664:	90e5883a 	add	r18,r18,r3
 1801668:	28c00115 	stw	r3,4(r5)
 180166c:	8105883a 	add	r2,r16,r4
 1801670:	28800015 	stw	r2,0(r5)
 1801674:	008001c4 	movi	r2,7
 1801678:	dc800e15 	stw	r18,56(sp)
 180167c:	147f1d16 	blt	r2,r17,18012f4 <___vfprintf_internal_r+0xb90>
 1801680:	28c00204 	addi	r3,r5,8
 1801684:	003db506 	br	1800d5c <___vfprintf_internal_r+0x5f8>
 1801688:	3c000017 	ldw	r16,0(r7)
 180168c:	3c400117 	ldw	r17,4(r7)
 1801690:	39800204 	addi	r6,r7,8
 1801694:	01000044 	movi	r4,1
 1801698:	d9814015 	stw	r6,1280(sp)
 180169c:	d8000405 	stb	zero,16(sp)
 18016a0:	003ebe06 	br	180119c <___vfprintf_internal_r+0xa38>
 18016a4:	3c000017 	ldw	r16,0(r7)
 18016a8:	3c400117 	ldw	r17,4(r7)
 18016ac:	38800204 	addi	r2,r7,8
 18016b0:	d8814015 	stw	r2,1280(sp)
 18016b4:	003eb706 	br	1801194 <___vfprintf_internal_r+0xa30>
 18016b8:	3c000017 	ldw	r16,0(r7)
 18016bc:	3c400117 	ldw	r17,4(r7)
 18016c0:	39000204 	addi	r4,r7,8
 18016c4:	d9014015 	stw	r4,1280(sp)
 18016c8:	0009883a 	mov	r4,zero
 18016cc:	d8000405 	stb	zero,16(sp)
 18016d0:	003eb206 	br	180119c <___vfprintf_internal_r+0xa38>
 18016d4:	38c00017 	ldw	r3,0(r7)
 18016d8:	39c00104 	addi	r7,r7,4
 18016dc:	d8c14a15 	stw	r3,1320(sp)
 18016e0:	1800d10e 	bge	r3,zero,1801a28 <___vfprintf_internal_r+0x12c4>
 18016e4:	00c7c83a 	sub	r3,zero,r3
 18016e8:	d8c14a15 	stw	r3,1320(sp)
 18016ec:	d9014c17 	ldw	r4,1328(sp)
 18016f0:	b8c00007 	ldb	r3,0(r23)
 18016f4:	21000114 	ori	r4,r4,4
 18016f8:	d9014c15 	stw	r4,1328(sp)
 18016fc:	003c9806 	br	1800960 <___vfprintf_internal_r+0x1fc>
 1801700:	d9814c17 	ldw	r6,1328(sp)
 1801704:	3080080c 	andi	r2,r6,32
 1801708:	1001f026 	beq	r2,zero,1801ecc <___vfprintf_internal_r+0x1768>
 180170c:	d9014b17 	ldw	r4,1324(sp)
 1801710:	38800017 	ldw	r2,0(r7)
 1801714:	39c00104 	addi	r7,r7,4
 1801718:	d9c14015 	stw	r7,1280(sp)
 180171c:	2007d7fa 	srai	r3,r4,31
 1801720:	d9c14017 	ldw	r7,1280(sp)
 1801724:	11000015 	stw	r4,0(r2)
 1801728:	10c00115 	stw	r3,4(r2)
 180172c:	003c6906 	br	18008d4 <___vfprintf_internal_r+0x170>
 1801730:	b8c00007 	ldb	r3,0(r23)
 1801734:	00801b04 	movi	r2,108
 1801738:	18824f26 	beq	r3,r2,1802078 <___vfprintf_internal_r+0x1914>
 180173c:	d9414c17 	ldw	r5,1328(sp)
 1801740:	29400414 	ori	r5,r5,16
 1801744:	d9414c15 	stw	r5,1328(sp)
 1801748:	003c8506 	br	1800960 <___vfprintf_internal_r+0x1fc>
 180174c:	d9814c17 	ldw	r6,1328(sp)
 1801750:	b8c00007 	ldb	r3,0(r23)
 1801754:	31800814 	ori	r6,r6,32
 1801758:	d9814c15 	stw	r6,1328(sp)
 180175c:	003c8006 	br	1800960 <___vfprintf_internal_r+0x1fc>
 1801760:	d8814c17 	ldw	r2,1328(sp)
 1801764:	3c000017 	ldw	r16,0(r7)
 1801768:	00c01e04 	movi	r3,120
 180176c:	10800094 	ori	r2,r2,2
 1801770:	d8814c15 	stw	r2,1328(sp)
 1801774:	39c00104 	addi	r7,r7,4
 1801778:	01406074 	movhi	r5,385
 180177c:	29421c04 	addi	r5,r5,2160
 1801780:	00800c04 	movi	r2,48
 1801784:	0023883a 	mov	r17,zero
 1801788:	01000084 	movi	r4,2
 180178c:	d9c14015 	stw	r7,1280(sp)
 1801790:	d8c14d15 	stw	r3,1332(sp)
 1801794:	d9414415 	stw	r5,1296(sp)
 1801798:	d8800445 	stb	r2,17(sp)
 180179c:	d8c00485 	stb	r3,18(sp)
 18017a0:	d8000405 	stb	zero,16(sp)
 18017a4:	003e7d06 	br	180119c <___vfprintf_internal_r+0xa38>
 18017a8:	d8814c17 	ldw	r2,1328(sp)
 18017ac:	b8c00007 	ldb	r3,0(r23)
 18017b0:	10801014 	ori	r2,r2,64
 18017b4:	d8814c15 	stw	r2,1328(sp)
 18017b8:	003c6906 	br	1800960 <___vfprintf_internal_r+0x1fc>
 18017bc:	d9414c17 	ldw	r5,1328(sp)
 18017c0:	2880020c 	andi	r2,r5,8
 18017c4:	1001df26 	beq	r2,zero,1801f44 <___vfprintf_internal_r+0x17e0>
 18017c8:	39800017 	ldw	r6,0(r7)
 18017cc:	38800204 	addi	r2,r7,8
 18017d0:	d8814015 	stw	r2,1280(sp)
 18017d4:	d9814215 	stw	r6,1288(sp)
 18017d8:	39c00117 	ldw	r7,4(r7)
 18017dc:	d9c14315 	stw	r7,1292(sp)
 18017e0:	d9014217 	ldw	r4,1288(sp)
 18017e4:	d9414317 	ldw	r5,1292(sp)
 18017e8:	18071040 	call	1807104 <__isinfd>
 18017ec:	10021726 	beq	r2,zero,180204c <___vfprintf_internal_r+0x18e8>
 18017f0:	d9014217 	ldw	r4,1288(sp)
 18017f4:	d9414317 	ldw	r5,1292(sp)
 18017f8:	000d883a 	mov	r6,zero
 18017fc:	000f883a 	mov	r7,zero
 1801800:	180914c0 	call	180914c <__ltdf2>
 1801804:	1002ca16 	blt	r2,zero,1802330 <___vfprintf_internal_r+0x1bcc>
 1801808:	d9414d17 	ldw	r5,1332(sp)
 180180c:	008011c4 	movi	r2,71
 1801810:	11420a16 	blt	r2,r5,180203c <___vfprintf_internal_r+0x18d8>
 1801814:	01806074 	movhi	r6,385
 1801818:	31822104 	addi	r6,r6,2180
 180181c:	d9814115 	stw	r6,1284(sp)
 1801820:	d9014c17 	ldw	r4,1328(sp)
 1801824:	00c000c4 	movi	r3,3
 1801828:	00bfdfc4 	movi	r2,-129
 180182c:	2088703a 	and	r4,r4,r2
 1801830:	180f883a 	mov	r7,r3
 1801834:	d8c14515 	stw	r3,1300(sp)
 1801838:	d9014c15 	stw	r4,1328(sp)
 180183c:	d8014615 	stw	zero,1304(sp)
 1801840:	003e6a06 	br	18011ec <___vfprintf_internal_r+0xa88>
 1801844:	38800017 	ldw	r2,0(r7)
 1801848:	00c00044 	movi	r3,1
 180184c:	39c00104 	addi	r7,r7,4
 1801850:	d9c14015 	stw	r7,1280(sp)
 1801854:	d9000f04 	addi	r4,sp,60
 1801858:	180f883a 	mov	r7,r3
 180185c:	d8c14515 	stw	r3,1300(sp)
 1801860:	d9014115 	stw	r4,1284(sp)
 1801864:	d8800f05 	stb	r2,60(sp)
 1801868:	d8000405 	stb	zero,16(sp)
 180186c:	003cac06 	br	1800b20 <___vfprintf_internal_r+0x3bc>
 1801870:	01406074 	movhi	r5,385
 1801874:	29422704 	addi	r5,r5,2204
 1801878:	d9414415 	stw	r5,1296(sp)
 180187c:	d9814c17 	ldw	r6,1328(sp)
 1801880:	3080080c 	andi	r2,r6,32
 1801884:	1000f926 	beq	r2,zero,1801c6c <___vfprintf_internal_r+0x1508>
 1801888:	3c000017 	ldw	r16,0(r7)
 180188c:	3c400117 	ldw	r17,4(r7)
 1801890:	38800204 	addi	r2,r7,8
 1801894:	d8814015 	stw	r2,1280(sp)
 1801898:	d9414c17 	ldw	r5,1328(sp)
 180189c:	2880004c 	andi	r2,r5,1
 18018a0:	1005003a 	cmpeq	r2,r2,zero
 18018a4:	1000b31e 	bne	r2,zero,1801b74 <___vfprintf_internal_r+0x1410>
 18018a8:	8444b03a 	or	r2,r16,r17
 18018ac:	1000b126 	beq	r2,zero,1801b74 <___vfprintf_internal_r+0x1410>
 18018b0:	d9814d17 	ldw	r6,1332(sp)
 18018b4:	29400094 	ori	r5,r5,2
 18018b8:	00800c04 	movi	r2,48
 18018bc:	01000084 	movi	r4,2
 18018c0:	d9414c15 	stw	r5,1328(sp)
 18018c4:	d8800445 	stb	r2,17(sp)
 18018c8:	d9800485 	stb	r6,18(sp)
 18018cc:	d8000405 	stb	zero,16(sp)
 18018d0:	003e3206 	br	180119c <___vfprintf_internal_r+0xa38>
 18018d4:	01806074 	movhi	r6,385
 18018d8:	31821c04 	addi	r6,r6,2160
 18018dc:	d9814415 	stw	r6,1296(sp)
 18018e0:	003fe606 	br	180187c <___vfprintf_internal_r+0x1118>
 18018e4:	00800ac4 	movi	r2,43
 18018e8:	d8800405 	stb	r2,16(sp)
 18018ec:	b8c00007 	ldb	r3,0(r23)
 18018f0:	003c1b06 	br	1800960 <___vfprintf_internal_r+0x1fc>
 18018f4:	d8814c17 	ldw	r2,1328(sp)
 18018f8:	b8c00007 	ldb	r3,0(r23)
 18018fc:	10800054 	ori	r2,r2,1
 1801900:	d8814c15 	stw	r2,1328(sp)
 1801904:	003c1606 	br	1800960 <___vfprintf_internal_r+0x1fc>
 1801908:	d8800407 	ldb	r2,16(sp)
 180190c:	1000461e 	bne	r2,zero,1801a28 <___vfprintf_internal_r+0x12c4>
 1801910:	00800804 	movi	r2,32
 1801914:	d8800405 	stb	r2,16(sp)
 1801918:	b8c00007 	ldb	r3,0(r23)
 180191c:	003c1006 	br	1800960 <___vfprintf_internal_r+0x1fc>
 1801920:	d9814c17 	ldw	r6,1328(sp)
 1801924:	b8c00007 	ldb	r3,0(r23)
 1801928:	31800214 	ori	r6,r6,8
 180192c:	d9814c15 	stw	r6,1328(sp)
 1801930:	003c0b06 	br	1800960 <___vfprintf_internal_r+0x1fc>
 1801934:	0007883a 	mov	r3,zero
 1801938:	01000244 	movi	r4,9
 180193c:	188002a4 	muli	r2,r3,10
 1801940:	b8c00007 	ldb	r3,0(r23)
 1801944:	d9814d17 	ldw	r6,1332(sp)
 1801948:	bdc00044 	addi	r23,r23,1
 180194c:	d8c14d15 	stw	r3,1332(sp)
 1801950:	d9414d17 	ldw	r5,1332(sp)
 1801954:	3085883a 	add	r2,r6,r2
 1801958:	10fff404 	addi	r3,r2,-48
 180195c:	28bff404 	addi	r2,r5,-48
 1801960:	20bff62e 	bgeu	r4,r2,180193c <___vfprintf_internal_r+0x11d8>
 1801964:	d8c14a15 	stw	r3,1320(sp)
 1801968:	003bff06 	br	1800968 <___vfprintf_internal_r+0x204>
 180196c:	d9414c17 	ldw	r5,1328(sp)
 1801970:	b8c00007 	ldb	r3,0(r23)
 1801974:	29402014 	ori	r5,r5,128
 1801978:	d9414c15 	stw	r5,1328(sp)
 180197c:	003bf806 	br	1800960 <___vfprintf_internal_r+0x1fc>
 1801980:	b8c00007 	ldb	r3,0(r23)
 1801984:	00800a84 	movi	r2,42
 1801988:	bdc00044 	addi	r23,r23,1
 180198c:	18831526 	beq	r3,r2,18025e4 <___vfprintf_internal_r+0x1e80>
 1801990:	d8c14d15 	stw	r3,1332(sp)
 1801994:	18bff404 	addi	r2,r3,-48
 1801998:	00c00244 	movi	r3,9
 180199c:	18827836 	bltu	r3,r2,1802380 <___vfprintf_internal_r+0x1c1c>
 18019a0:	000d883a 	mov	r6,zero
 18019a4:	308002a4 	muli	r2,r6,10
 18019a8:	b9800007 	ldb	r6,0(r23)
 18019ac:	d9414d17 	ldw	r5,1332(sp)
 18019b0:	bdc00044 	addi	r23,r23,1
 18019b4:	d9814d15 	stw	r6,1332(sp)
 18019b8:	d9014d17 	ldw	r4,1332(sp)
 18019bc:	1145883a 	add	r2,r2,r5
 18019c0:	11bff404 	addi	r6,r2,-48
 18019c4:	20bff404 	addi	r2,r4,-48
 18019c8:	18bff62e 	bgeu	r3,r2,18019a4 <___vfprintf_internal_r+0x1240>
 18019cc:	3027883a 	mov	r19,r6
 18019d0:	303be50e 	bge	r6,zero,1800968 <___vfprintf_internal_r+0x204>
 18019d4:	04ffffc4 	movi	r19,-1
 18019d8:	003be306 	br	1800968 <___vfprintf_internal_r+0x204>
 18019dc:	d8000405 	stb	zero,16(sp)
 18019e0:	39800017 	ldw	r6,0(r7)
 18019e4:	39c00104 	addi	r7,r7,4
 18019e8:	d9c14015 	stw	r7,1280(sp)
 18019ec:	d9814115 	stw	r6,1284(sp)
 18019f0:	3001c926 	beq	r6,zero,1802118 <___vfprintf_internal_r+0x19b4>
 18019f4:	98000e16 	blt	r19,zero,1801a30 <___vfprintf_internal_r+0x12cc>
 18019f8:	d9014117 	ldw	r4,1284(sp)
 18019fc:	000b883a 	mov	r5,zero
 1801a00:	980d883a 	mov	r6,r19
 1801a04:	18058200 	call	1805820 <memchr>
 1801a08:	10025926 	beq	r2,zero,1802370 <___vfprintf_internal_r+0x1c0c>
 1801a0c:	d8c14117 	ldw	r3,1284(sp)
 1801a10:	10cfc83a 	sub	r7,r2,r3
 1801a14:	99c19e16 	blt	r19,r7,1802090 <___vfprintf_internal_r+0x192c>
 1801a18:	d9c14515 	stw	r7,1300(sp)
 1801a1c:	38000916 	blt	r7,zero,1801a44 <___vfprintf_internal_r+0x12e0>
 1801a20:	d8014615 	stw	zero,1304(sp)
 1801a24:	003df106 	br	18011ec <___vfprintf_internal_r+0xa88>
 1801a28:	b8c00007 	ldb	r3,0(r23)
 1801a2c:	003bcc06 	br	1800960 <___vfprintf_internal_r+0x1fc>
 1801a30:	d9014117 	ldw	r4,1284(sp)
 1801a34:	18006980 	call	1800698 <strlen>
 1801a38:	d8814515 	stw	r2,1300(sp)
 1801a3c:	100f883a 	mov	r7,r2
 1801a40:	103ff70e 	bge	r2,zero,1801a20 <___vfprintf_internal_r+0x12bc>
 1801a44:	d8014515 	stw	zero,1300(sp)
 1801a48:	d8014615 	stw	zero,1304(sp)
 1801a4c:	003de706 	br	18011ec <___vfprintf_internal_r+0xa88>
 1801a50:	20c03fcc 	andi	r3,r4,255
 1801a54:	00800044 	movi	r2,1
 1801a58:	18802d26 	beq	r3,r2,1801b10 <___vfprintf_internal_r+0x13ac>
 1801a5c:	18800e36 	bltu	r3,r2,1801a98 <___vfprintf_internal_r+0x1334>
 1801a60:	00800084 	movi	r2,2
 1801a64:	1880fa26 	beq	r3,r2,1801e50 <___vfprintf_internal_r+0x16ec>
 1801a68:	01006074 	movhi	r4,385
 1801a6c:	21022c04 	addi	r4,r4,2224
 1801a70:	18006980 	call	1800698 <strlen>
 1801a74:	100f883a 	mov	r7,r2
 1801a78:	dcc14515 	stw	r19,1300(sp)
 1801a7c:	9880010e 	bge	r19,r2,1801a84 <___vfprintf_internal_r+0x1320>
 1801a80:	d8814515 	stw	r2,1300(sp)
 1801a84:	00806074 	movhi	r2,385
 1801a88:	10822c04 	addi	r2,r2,2224
 1801a8c:	dcc14615 	stw	r19,1304(sp)
 1801a90:	d8814115 	stw	r2,1284(sp)
 1801a94:	003dd506 	br	18011ec <___vfprintf_internal_r+0xa88>
 1801a98:	d9401904 	addi	r5,sp,100
 1801a9c:	dd000f04 	addi	r20,sp,60
 1801aa0:	d9414115 	stw	r5,1284(sp)
 1801aa4:	880a977a 	slli	r5,r17,29
 1801aa8:	d9814117 	ldw	r6,1284(sp)
 1801aac:	8004d0fa 	srli	r2,r16,3
 1801ab0:	8806d0fa 	srli	r3,r17,3
 1801ab4:	810001cc 	andi	r4,r16,7
 1801ab8:	2884b03a 	or	r2,r5,r2
 1801abc:	31bfffc4 	addi	r6,r6,-1
 1801ac0:	21000c04 	addi	r4,r4,48
 1801ac4:	d9814115 	stw	r6,1284(sp)
 1801ac8:	10cab03a 	or	r5,r2,r3
 1801acc:	31000005 	stb	r4,0(r6)
 1801ad0:	1021883a 	mov	r16,r2
 1801ad4:	1823883a 	mov	r17,r3
 1801ad8:	283ff21e 	bne	r5,zero,1801aa4 <___vfprintf_internal_r+0x1340>
 1801adc:	d8c14c17 	ldw	r3,1328(sp)
 1801ae0:	1880004c 	andi	r2,r3,1
 1801ae4:	1005003a 	cmpeq	r2,r2,zero
 1801ae8:	103db91e 	bne	r2,zero,18011d0 <___vfprintf_internal_r+0xa6c>
 1801aec:	20803fcc 	andi	r2,r4,255
 1801af0:	1080201c 	xori	r2,r2,128
 1801af4:	10bfe004 	addi	r2,r2,-128
 1801af8:	00c00c04 	movi	r3,48
 1801afc:	10fdb426 	beq	r2,r3,18011d0 <___vfprintf_internal_r+0xa6c>
 1801b00:	31bfffc4 	addi	r6,r6,-1
 1801b04:	d9814115 	stw	r6,1284(sp)
 1801b08:	30c00005 	stb	r3,0(r6)
 1801b0c:	003db006 	br	18011d0 <___vfprintf_internal_r+0xa6c>
 1801b10:	88800068 	cmpgeui	r2,r17,1
 1801b14:	10002c1e 	bne	r2,zero,1801bc8 <___vfprintf_internal_r+0x1464>
 1801b18:	8800021e 	bne	r17,zero,1801b24 <___vfprintf_internal_r+0x13c0>
 1801b1c:	00800244 	movi	r2,9
 1801b20:	14002936 	bltu	r2,r16,1801bc8 <___vfprintf_internal_r+0x1464>
 1801b24:	d90018c4 	addi	r4,sp,99
 1801b28:	dd000f04 	addi	r20,sp,60
 1801b2c:	d9014115 	stw	r4,1284(sp)
 1801b30:	d9014117 	ldw	r4,1284(sp)
 1801b34:	80800c04 	addi	r2,r16,48
 1801b38:	20800005 	stb	r2,0(r4)
 1801b3c:	003da406 	br	18011d0 <___vfprintf_internal_r+0xa6c>
 1801b40:	dc400d17 	ldw	r17,52(sp)
 1801b44:	07006074 	movhi	fp,385
 1801b48:	e7023384 	addi	fp,fp,2254
 1801b4c:	9425883a 	add	r18,r18,r16
 1801b50:	8c400044 	addi	r17,r17,1
 1801b54:	008001c4 	movi	r2,7
 1801b58:	1f000015 	stw	fp,0(r3)
 1801b5c:	1c000115 	stw	r16,4(r3)
 1801b60:	dc800e15 	stw	r18,56(sp)
 1801b64:	dc400d15 	stw	r17,52(sp)
 1801b68:	147de216 	blt	r2,r17,18012f4 <___vfprintf_internal_r+0xb90>
 1801b6c:	18c00204 	addi	r3,r3,8
 1801b70:	003c7a06 	br	1800d5c <___vfprintf_internal_r+0x5f8>
 1801b74:	01000084 	movi	r4,2
 1801b78:	d8000405 	stb	zero,16(sp)
 1801b7c:	003d8706 	br	180119c <___vfprintf_internal_r+0xa38>
 1801b80:	d9814c17 	ldw	r6,1328(sp)
 1801b84:	30c4703a 	and	r2,r6,r3
 1801b88:	1005003a 	cmpeq	r2,r2,zero
 1801b8c:	103cb926 	beq	r2,zero,1800e74 <___vfprintf_internal_r+0x710>
 1801b90:	d9014117 	ldw	r4,1284(sp)
 1801b94:	94800044 	addi	r18,r18,1
 1801b98:	8c400044 	addi	r17,r17,1
 1801b9c:	008001c4 	movi	r2,7
 1801ba0:	a9000015 	stw	r4,0(r21)
 1801ba4:	a8c00115 	stw	r3,4(r21)
 1801ba8:	dc800e15 	stw	r18,56(sp)
 1801bac:	dc400d15 	stw	r17,52(sp)
 1801bb0:	147e6616 	blt	r2,r17,180154c <___vfprintf_internal_r+0xde8>
 1801bb4:	acc00204 	addi	r19,r21,8
 1801bb8:	003cd706 	br	1800f18 <___vfprintf_internal_r+0x7b4>
 1801bbc:	07006074 	movhi	fp,385
 1801bc0:	e7023384 	addi	fp,fp,2254
 1801bc4:	003c4f06 	br	1800d04 <___vfprintf_internal_r+0x5a0>
 1801bc8:	dd000f04 	addi	r20,sp,60
 1801bcc:	dc801904 	addi	r18,sp,100
 1801bd0:	8009883a 	mov	r4,r16
 1801bd4:	880b883a 	mov	r5,r17
 1801bd8:	01800284 	movi	r6,10
 1801bdc:	000f883a 	mov	r7,zero
 1801be0:	1807e5c0 	call	1807e5c <__umoddi3>
 1801be4:	12000c04 	addi	r8,r2,48
 1801be8:	94bfffc4 	addi	r18,r18,-1
 1801bec:	8009883a 	mov	r4,r16
 1801bf0:	880b883a 	mov	r5,r17
 1801bf4:	01800284 	movi	r6,10
 1801bf8:	000f883a 	mov	r7,zero
 1801bfc:	92000005 	stb	r8,0(r18)
 1801c00:	18078800 	call	1807880 <__udivdi3>
 1801c04:	1009883a 	mov	r4,r2
 1801c08:	1021883a 	mov	r16,r2
 1801c0c:	18800068 	cmpgeui	r2,r3,1
 1801c10:	1823883a 	mov	r17,r3
 1801c14:	103fee1e 	bne	r2,zero,1801bd0 <___vfprintf_internal_r+0x146c>
 1801c18:	1800021e 	bne	r3,zero,1801c24 <___vfprintf_internal_r+0x14c0>
 1801c1c:	00800244 	movi	r2,9
 1801c20:	113feb36 	bltu	r2,r4,1801bd0 <___vfprintf_internal_r+0x146c>
 1801c24:	94bfffc4 	addi	r18,r18,-1
 1801c28:	dc814115 	stw	r18,1284(sp)
 1801c2c:	003fc006 	br	1801b30 <___vfprintf_internal_r+0x13cc>
 1801c30:	d9014c17 	ldw	r4,1328(sp)
 1801c34:	2080004c 	andi	r2,r4,1
 1801c38:	10009a1e 	bne	r2,zero,1801ea4 <___vfprintf_internal_r+0x1740>
 1801c3c:	d9401904 	addi	r5,sp,100
 1801c40:	dd000f04 	addi	r20,sp,60
 1801c44:	d9414115 	stw	r5,1284(sp)
 1801c48:	003d6106 	br	18011d0 <___vfprintf_internal_r+0xa6c>
 1801c4c:	d9014f17 	ldw	r4,1340(sp)
 1801c50:	b00b883a 	mov	r5,r22
 1801c54:	d9800c04 	addi	r6,sp,48
 1801c58:	180070c0 	call	180070c <__sprint_r>
 1801c5c:	103c791e 	bne	r2,zero,1800e44 <___vfprintf_internal_r+0x6e0>
 1801c60:	dc800e17 	ldw	r18,56(sp)
 1801c64:	d8c01904 	addi	r3,sp,100
 1801c68:	003cff06 	br	1801068 <___vfprintf_internal_r+0x904>
 1801c6c:	d8c14c17 	ldw	r3,1328(sp)
 1801c70:	1880040c 	andi	r2,r3,16
 1801c74:	1000711e 	bne	r2,zero,1801e3c <___vfprintf_internal_r+0x16d8>
 1801c78:	d9014c17 	ldw	r4,1328(sp)
 1801c7c:	2080100c 	andi	r2,r4,64
 1801c80:	10006e26 	beq	r2,zero,1801e3c <___vfprintf_internal_r+0x16d8>
 1801c84:	3c00000b 	ldhu	r16,0(r7)
 1801c88:	0023883a 	mov	r17,zero
 1801c8c:	39c00104 	addi	r7,r7,4
 1801c90:	d9c14015 	stw	r7,1280(sp)
 1801c94:	003f0006 	br	1801898 <___vfprintf_internal_r+0x1134>
 1801c98:	dc400d17 	ldw	r17,52(sp)
 1801c9c:	07006074 	movhi	fp,385
 1801ca0:	e7023384 	addi	fp,fp,2254
 1801ca4:	9425883a 	add	r18,r18,r16
 1801ca8:	8c400044 	addi	r17,r17,1
 1801cac:	008001c4 	movi	r2,7
 1801cb0:	1f000015 	stw	fp,0(r3)
 1801cb4:	1c000115 	stw	r16,4(r3)
 1801cb8:	dc800e15 	stw	r18,56(sp)
 1801cbc:	dc400d15 	stw	r17,52(sp)
 1801cc0:	147d7616 	blt	r2,r17,180129c <___vfprintf_internal_r+0xb38>
 1801cc4:	18c00204 	addi	r3,r3,8
 1801cc8:	003d7b06 	br	18012b8 <___vfprintf_internal_r+0xb54>
 1801ccc:	dc800e17 	ldw	r18,56(sp)
 1801cd0:	dc400d17 	ldw	r17,52(sp)
 1801cd4:	07006074 	movhi	fp,385
 1801cd8:	e7023784 	addi	fp,fp,2270
 1801cdc:	003bc006 	br	1800be0 <___vfprintf_internal_r+0x47c>
 1801ce0:	d9014f17 	ldw	r4,1340(sp)
 1801ce4:	b00b883a 	mov	r5,r22
 1801ce8:	d9800c04 	addi	r6,sp,48
 1801cec:	180070c0 	call	180070c <__sprint_r>
 1801cf0:	103c541e 	bne	r2,zero,1800e44 <___vfprintf_internal_r+0x6e0>
 1801cf4:	dc800e17 	ldw	r18,56(sp)
 1801cf8:	d8c01904 	addi	r3,sp,100
 1801cfc:	003ce906 	br	18010a4 <___vfprintf_internal_r+0x940>
 1801d00:	3c000017 	ldw	r16,0(r7)
 1801d04:	0009883a 	mov	r4,zero
 1801d08:	39c00104 	addi	r7,r7,4
 1801d0c:	0023883a 	mov	r17,zero
 1801d10:	d9c14015 	stw	r7,1280(sp)
 1801d14:	d8000405 	stb	zero,16(sp)
 1801d18:	003d2006 	br	180119c <___vfprintf_internal_r+0xa38>
 1801d1c:	38800017 	ldw	r2,0(r7)
 1801d20:	39c00104 	addi	r7,r7,4
 1801d24:	d9c14015 	stw	r7,1280(sp)
 1801d28:	1023d7fa 	srai	r17,r2,31
 1801d2c:	1021883a 	mov	r16,r2
 1801d30:	003d1806 	br	1801194 <___vfprintf_internal_r+0xa30>
 1801d34:	3c000017 	ldw	r16,0(r7)
 1801d38:	01000044 	movi	r4,1
 1801d3c:	39c00104 	addi	r7,r7,4
 1801d40:	0023883a 	mov	r17,zero
 1801d44:	d9c14015 	stw	r7,1280(sp)
 1801d48:	d8000405 	stb	zero,16(sp)
 1801d4c:	003d1306 	br	180119c <___vfprintf_internal_r+0xa38>
 1801d50:	00806074 	movhi	r2,385
 1801d54:	10823304 	addi	r2,r2,2252
 1801d58:	94800044 	addi	r18,r18,1
 1801d5c:	8c400044 	addi	r17,r17,1
 1801d60:	a8800015 	stw	r2,0(r21)
 1801d64:	00c00044 	movi	r3,1
 1801d68:	008001c4 	movi	r2,7
 1801d6c:	a8c00115 	stw	r3,4(r21)
 1801d70:	dc800e15 	stw	r18,56(sp)
 1801d74:	dc400d15 	stw	r17,52(sp)
 1801d78:	1440ca16 	blt	r2,r17,18020a4 <___vfprintf_internal_r+0x1940>
 1801d7c:	a8c00204 	addi	r3,r21,8
 1801d80:	2000061e 	bne	r4,zero,1801d9c <___vfprintf_internal_r+0x1638>
 1801d84:	d9414717 	ldw	r5,1308(sp)
 1801d88:	2800041e 	bne	r5,zero,1801d9c <___vfprintf_internal_r+0x1638>
 1801d8c:	d9814c17 	ldw	r6,1328(sp)
 1801d90:	3080004c 	andi	r2,r6,1
 1801d94:	1005003a 	cmpeq	r2,r2,zero
 1801d98:	103bf01e 	bne	r2,zero,1800d5c <___vfprintf_internal_r+0x5f8>
 1801d9c:	00800044 	movi	r2,1
 1801da0:	dc400d17 	ldw	r17,52(sp)
 1801da4:	18800115 	stw	r2,4(r3)
 1801da8:	d8814917 	ldw	r2,1316(sp)
 1801dac:	94800044 	addi	r18,r18,1
 1801db0:	8c400044 	addi	r17,r17,1
 1801db4:	18800015 	stw	r2,0(r3)
 1801db8:	008001c4 	movi	r2,7
 1801dbc:	dc800e15 	stw	r18,56(sp)
 1801dc0:	dc400d15 	stw	r17,52(sp)
 1801dc4:	1440ca16 	blt	r2,r17,18020f0 <___vfprintf_internal_r+0x198c>
 1801dc8:	18c00204 	addi	r3,r3,8
 1801dcc:	0121c83a 	sub	r16,zero,r4
 1801dd0:	0400500e 	bge	zero,r16,1801f14 <___vfprintf_internal_r+0x17b0>
 1801dd4:	00800404 	movi	r2,16
 1801dd8:	1400800e 	bge	r2,r16,1801fdc <___vfprintf_internal_r+0x1878>
 1801ddc:	1027883a 	mov	r19,r2
 1801de0:	07006074 	movhi	fp,385
 1801de4:	e7023384 	addi	fp,fp,2254
 1801de8:	050001c4 	movi	r20,7
 1801dec:	00000306 	br	1801dfc <___vfprintf_internal_r+0x1698>
 1801df0:	18c00204 	addi	r3,r3,8
 1801df4:	843ffc04 	addi	r16,r16,-16
 1801df8:	9c007a0e 	bge	r19,r16,1801fe4 <___vfprintf_internal_r+0x1880>
 1801dfc:	94800404 	addi	r18,r18,16
 1801e00:	8c400044 	addi	r17,r17,1
 1801e04:	1f000015 	stw	fp,0(r3)
 1801e08:	1cc00115 	stw	r19,4(r3)
 1801e0c:	dc800e15 	stw	r18,56(sp)
 1801e10:	dc400d15 	stw	r17,52(sp)
 1801e14:	a47ff60e 	bge	r20,r17,1801df0 <___vfprintf_internal_r+0x168c>
 1801e18:	d9014f17 	ldw	r4,1340(sp)
 1801e1c:	b00b883a 	mov	r5,r22
 1801e20:	d9800c04 	addi	r6,sp,48
 1801e24:	180070c0 	call	180070c <__sprint_r>
 1801e28:	103c061e 	bne	r2,zero,1800e44 <___vfprintf_internal_r+0x6e0>
 1801e2c:	dc800e17 	ldw	r18,56(sp)
 1801e30:	dc400d17 	ldw	r17,52(sp)
 1801e34:	d8c01904 	addi	r3,sp,100
 1801e38:	003fee06 	br	1801df4 <___vfprintf_internal_r+0x1690>
 1801e3c:	3c000017 	ldw	r16,0(r7)
 1801e40:	0023883a 	mov	r17,zero
 1801e44:	39c00104 	addi	r7,r7,4
 1801e48:	d9c14015 	stw	r7,1280(sp)
 1801e4c:	003e9206 	br	1801898 <___vfprintf_internal_r+0x1134>
 1801e50:	d9401904 	addi	r5,sp,100
 1801e54:	dd000f04 	addi	r20,sp,60
 1801e58:	d9414115 	stw	r5,1284(sp)
 1801e5c:	d9814417 	ldw	r6,1296(sp)
 1801e60:	880a973a 	slli	r5,r17,28
 1801e64:	8004d13a 	srli	r2,r16,4
 1801e68:	810003cc 	andi	r4,r16,15
 1801e6c:	3109883a 	add	r4,r6,r4
 1801e70:	2884b03a 	or	r2,r5,r2
 1801e74:	21400003 	ldbu	r5,0(r4)
 1801e78:	d9014117 	ldw	r4,1284(sp)
 1801e7c:	8806d13a 	srli	r3,r17,4
 1801e80:	1021883a 	mov	r16,r2
 1801e84:	213fffc4 	addi	r4,r4,-1
 1801e88:	d9014115 	stw	r4,1284(sp)
 1801e8c:	d9814117 	ldw	r6,1284(sp)
 1801e90:	10c8b03a 	or	r4,r2,r3
 1801e94:	1823883a 	mov	r17,r3
 1801e98:	31400005 	stb	r5,0(r6)
 1801e9c:	203fef1e 	bne	r4,zero,1801e5c <___vfprintf_internal_r+0x16f8>
 1801ea0:	003ccb06 	br	18011d0 <___vfprintf_internal_r+0xa6c>
 1801ea4:	00800c04 	movi	r2,48
 1801ea8:	d98018c4 	addi	r6,sp,99
 1801eac:	dd000f04 	addi	r20,sp,60
 1801eb0:	d88018c5 	stb	r2,99(sp)
 1801eb4:	d9814115 	stw	r6,1284(sp)
 1801eb8:	003cc506 	br	18011d0 <___vfprintf_internal_r+0xa6c>
 1801ebc:	dc400d17 	ldw	r17,52(sp)
 1801ec0:	07006074 	movhi	fp,385
 1801ec4:	e7023784 	addi	fp,fp,2270
 1801ec8:	003bc706 	br	1800de8 <___vfprintf_internal_r+0x684>
 1801ecc:	d9414c17 	ldw	r5,1328(sp)
 1801ed0:	2880040c 	andi	r2,r5,16
 1801ed4:	10007c26 	beq	r2,zero,18020c8 <___vfprintf_internal_r+0x1964>
 1801ed8:	38800017 	ldw	r2,0(r7)
 1801edc:	39c00104 	addi	r7,r7,4
 1801ee0:	d9c14015 	stw	r7,1280(sp)
 1801ee4:	d9814b17 	ldw	r6,1324(sp)
 1801ee8:	d9c14017 	ldw	r7,1280(sp)
 1801eec:	11800015 	stw	r6,0(r2)
 1801ef0:	003a7806 	br	18008d4 <___vfprintf_internal_r+0x170>
 1801ef4:	d9014f17 	ldw	r4,1340(sp)
 1801ef8:	b00b883a 	mov	r5,r22
 1801efc:	d9800c04 	addi	r6,sp,48
 1801f00:	180070c0 	call	180070c <__sprint_r>
 1801f04:	103bcf1e 	bne	r2,zero,1800e44 <___vfprintf_internal_r+0x6e0>
 1801f08:	dc800e17 	ldw	r18,56(sp)
 1801f0c:	dc400d17 	ldw	r17,52(sp)
 1801f10:	d8c01904 	addi	r3,sp,100
 1801f14:	d9014717 	ldw	r4,1308(sp)
 1801f18:	d9414117 	ldw	r5,1284(sp)
 1801f1c:	8c400044 	addi	r17,r17,1
 1801f20:	9125883a 	add	r18,r18,r4
 1801f24:	008001c4 	movi	r2,7
 1801f28:	19400015 	stw	r5,0(r3)
 1801f2c:	19000115 	stw	r4,4(r3)
 1801f30:	dc800e15 	stw	r18,56(sp)
 1801f34:	dc400d15 	stw	r17,52(sp)
 1801f38:	147cee16 	blt	r2,r17,18012f4 <___vfprintf_internal_r+0xb90>
 1801f3c:	18c00204 	addi	r3,r3,8
 1801f40:	003b8606 	br	1800d5c <___vfprintf_internal_r+0x5f8>
 1801f44:	38c00017 	ldw	r3,0(r7)
 1801f48:	39000204 	addi	r4,r7,8
 1801f4c:	d9014015 	stw	r4,1280(sp)
 1801f50:	d8c14215 	stw	r3,1288(sp)
 1801f54:	39c00117 	ldw	r7,4(r7)
 1801f58:	d9c14315 	stw	r7,1292(sp)
 1801f5c:	003e2006 	br	18017e0 <___vfprintf_internal_r+0x107c>
 1801f60:	0005883a 	mov	r2,zero
 1801f64:	1409c83a 	sub	r4,r2,r16
 1801f68:	1105803a 	cmpltu	r2,r2,r4
 1801f6c:	044bc83a 	sub	r5,zero,r17
 1801f70:	2885c83a 	sub	r2,r5,r2
 1801f74:	2021883a 	mov	r16,r4
 1801f78:	1023883a 	mov	r17,r2
 1801f7c:	01000044 	movi	r4,1
 1801f80:	00800b44 	movi	r2,45
 1801f84:	d8800405 	stb	r2,16(sp)
 1801f88:	003c8406 	br	180119c <___vfprintf_internal_r+0xa38>
 1801f8c:	d9014f17 	ldw	r4,1340(sp)
 1801f90:	b00b883a 	mov	r5,r22
 1801f94:	d9800c04 	addi	r6,sp,48
 1801f98:	180070c0 	call	180070c <__sprint_r>
 1801f9c:	103ba91e 	bne	r2,zero,1800e44 <___vfprintf_internal_r+0x6e0>
 1801fa0:	dc800e17 	ldw	r18,56(sp)
 1801fa4:	dc400d17 	ldw	r17,52(sp)
 1801fa8:	d9000517 	ldw	r4,20(sp)
 1801fac:	d9401904 	addi	r5,sp,100
 1801fb0:	003da706 	br	1801650 <___vfprintf_internal_r+0xeec>
 1801fb4:	d9014f17 	ldw	r4,1340(sp)
 1801fb8:	b00b883a 	mov	r5,r22
 1801fbc:	d9800c04 	addi	r6,sp,48
 1801fc0:	180070c0 	call	180070c <__sprint_r>
 1801fc4:	103b9f1e 	bne	r2,zero,1800e44 <___vfprintf_internal_r+0x6e0>
 1801fc8:	dc800e17 	ldw	r18,56(sp)
 1801fcc:	dc400d17 	ldw	r17,52(sp)
 1801fd0:	d9000517 	ldw	r4,20(sp)
 1801fd4:	d8c01904 	addi	r3,sp,100
 1801fd8:	003d9106 	br	1801620 <___vfprintf_internal_r+0xebc>
 1801fdc:	07006074 	movhi	fp,385
 1801fe0:	e7023384 	addi	fp,fp,2254
 1801fe4:	9425883a 	add	r18,r18,r16
 1801fe8:	8c400044 	addi	r17,r17,1
 1801fec:	008001c4 	movi	r2,7
 1801ff0:	1f000015 	stw	fp,0(r3)
 1801ff4:	1c000115 	stw	r16,4(r3)
 1801ff8:	dc800e15 	stw	r18,56(sp)
 1801ffc:	dc400d15 	stw	r17,52(sp)
 1802000:	147fbc16 	blt	r2,r17,1801ef4 <___vfprintf_internal_r+0x1790>
 1802004:	18c00204 	addi	r3,r3,8
 1802008:	003fc206 	br	1801f14 <___vfprintf_internal_r+0x17b0>
 180200c:	d9014f17 	ldw	r4,1340(sp)
 1802010:	b00b883a 	mov	r5,r22
 1802014:	d9800c04 	addi	r6,sp,48
 1802018:	180070c0 	call	180070c <__sprint_r>
 180201c:	103b891e 	bne	r2,zero,1800e44 <___vfprintf_internal_r+0x6e0>
 1802020:	dc800e17 	ldw	r18,56(sp)
 1802024:	d9000517 	ldw	r4,20(sp)
 1802028:	d8c01904 	addi	r3,sp,100
 180202c:	003d0206 	br	1801438 <___vfprintf_internal_r+0xcd4>
 1802030:	07006074 	movhi	fp,385
 1802034:	e7023384 	addi	fp,fp,2254
 1802038:	003be406 	br	1800fcc <___vfprintf_internal_r+0x868>
 180203c:	00806074 	movhi	r2,385
 1802040:	10822204 	addi	r2,r2,2184
 1802044:	d8814115 	stw	r2,1284(sp)
 1802048:	003df506 	br	1801820 <___vfprintf_internal_r+0x10bc>
 180204c:	d9014217 	ldw	r4,1288(sp)
 1802050:	d9414317 	ldw	r5,1292(sp)
 1802054:	18071440 	call	1807144 <__isnand>
 1802058:	10003926 	beq	r2,zero,1802140 <___vfprintf_internal_r+0x19dc>
 180205c:	d9414d17 	ldw	r5,1332(sp)
 1802060:	008011c4 	movi	r2,71
 1802064:	1140ce16 	blt	r2,r5,18023a0 <___vfprintf_internal_r+0x1c3c>
 1802068:	01806074 	movhi	r6,385
 180206c:	31822304 	addi	r6,r6,2188
 1802070:	d9814115 	stw	r6,1284(sp)
 1802074:	003dea06 	br	1801820 <___vfprintf_internal_r+0x10bc>
 1802078:	d9014c17 	ldw	r4,1328(sp)
 180207c:	bdc00044 	addi	r23,r23,1
 1802080:	b8c00007 	ldb	r3,0(r23)
 1802084:	21000814 	ori	r4,r4,32
 1802088:	d9014c15 	stw	r4,1328(sp)
 180208c:	003a3406 	br	1800960 <___vfprintf_internal_r+0x1fc>
 1802090:	dcc14515 	stw	r19,1300(sp)
 1802094:	98011016 	blt	r19,zero,18024d8 <___vfprintf_internal_r+0x1d74>
 1802098:	980f883a 	mov	r7,r19
 180209c:	d8014615 	stw	zero,1304(sp)
 18020a0:	003c5206 	br	18011ec <___vfprintf_internal_r+0xa88>
 18020a4:	d9014f17 	ldw	r4,1340(sp)
 18020a8:	b00b883a 	mov	r5,r22
 18020ac:	d9800c04 	addi	r6,sp,48
 18020b0:	180070c0 	call	180070c <__sprint_r>
 18020b4:	103b631e 	bne	r2,zero,1800e44 <___vfprintf_internal_r+0x6e0>
 18020b8:	dc800e17 	ldw	r18,56(sp)
 18020bc:	d9000517 	ldw	r4,20(sp)
 18020c0:	d8c01904 	addi	r3,sp,100
 18020c4:	003f2e06 	br	1801d80 <___vfprintf_internal_r+0x161c>
 18020c8:	d8c14c17 	ldw	r3,1328(sp)
 18020cc:	1880100c 	andi	r2,r3,64
 18020d0:	1000a026 	beq	r2,zero,1802354 <___vfprintf_internal_r+0x1bf0>
 18020d4:	38800017 	ldw	r2,0(r7)
 18020d8:	39c00104 	addi	r7,r7,4
 18020dc:	d9c14015 	stw	r7,1280(sp)
 18020e0:	d9014b17 	ldw	r4,1324(sp)
 18020e4:	d9c14017 	ldw	r7,1280(sp)
 18020e8:	1100000d 	sth	r4,0(r2)
 18020ec:	0039f906 	br	18008d4 <___vfprintf_internal_r+0x170>
 18020f0:	d9014f17 	ldw	r4,1340(sp)
 18020f4:	b00b883a 	mov	r5,r22
 18020f8:	d9800c04 	addi	r6,sp,48
 18020fc:	180070c0 	call	180070c <__sprint_r>
 1802100:	103b501e 	bne	r2,zero,1800e44 <___vfprintf_internal_r+0x6e0>
 1802104:	dc800e17 	ldw	r18,56(sp)
 1802108:	dc400d17 	ldw	r17,52(sp)
 180210c:	d9000517 	ldw	r4,20(sp)
 1802110:	d8c01904 	addi	r3,sp,100
 1802114:	003f2d06 	br	1801dcc <___vfprintf_internal_r+0x1668>
 1802118:	00800184 	movi	r2,6
 180211c:	14c09a36 	bltu	r2,r19,1802388 <___vfprintf_internal_r+0x1c24>
 1802120:	dcc14515 	stw	r19,1300(sp)
 1802124:	9800010e 	bge	r19,zero,180212c <___vfprintf_internal_r+0x19c8>
 1802128:	d8014515 	stw	zero,1300(sp)
 180212c:	00806074 	movhi	r2,385
 1802130:	10822504 	addi	r2,r2,2196
 1802134:	980f883a 	mov	r7,r19
 1802138:	d8814115 	stw	r2,1284(sp)
 180213c:	003a7806 	br	1800b20 <___vfprintf_internal_r+0x3bc>
 1802140:	00bfffc4 	movi	r2,-1
 1802144:	9880e226 	beq	r19,r2,18024d0 <___vfprintf_internal_r+0x1d6c>
 1802148:	d9414d17 	ldw	r5,1332(sp)
 180214c:	008019c4 	movi	r2,103
 1802150:	2880dc26 	beq	r5,r2,18024c4 <___vfprintf_internal_r+0x1d60>
 1802154:	008011c4 	movi	r2,71
 1802158:	2880da26 	beq	r5,r2,18024c4 <___vfprintf_internal_r+0x1d60>
 180215c:	d9414c17 	ldw	r5,1328(sp)
 1802160:	d9014317 	ldw	r4,1292(sp)
 1802164:	d9814217 	ldw	r6,1288(sp)
 1802168:	29404014 	ori	r5,r5,256
 180216c:	d9414c15 	stw	r5,1328(sp)
 1802170:	2000cc16 	blt	r4,zero,18024a4 <___vfprintf_internal_r+0x1d40>
 1802174:	3021883a 	mov	r16,r6
 1802178:	2023883a 	mov	r17,r4
 180217c:	0039883a 	mov	fp,zero
 1802180:	d9414d17 	ldw	r5,1332(sp)
 1802184:	00801984 	movi	r2,102
 1802188:	2880b726 	beq	r5,r2,1802468 <___vfprintf_internal_r+0x1d04>
 180218c:	00801184 	movi	r2,70
 1802190:	2880b526 	beq	r5,r2,1802468 <___vfprintf_internal_r+0x1d04>
 1802194:	00801944 	movi	r2,101
 1802198:	2880c826 	beq	r5,r2,18024bc <___vfprintf_internal_r+0x1d58>
 180219c:	00801144 	movi	r2,69
 18021a0:	2880c626 	beq	r5,r2,18024bc <___vfprintf_internal_r+0x1d58>
 18021a4:	9829883a 	mov	r20,r19
 18021a8:	d9014f17 	ldw	r4,1340(sp)
 18021ac:	d8800504 	addi	r2,sp,20
 18021b0:	880d883a 	mov	r6,r17
 18021b4:	d8800115 	stw	r2,4(sp)
 18021b8:	d8c00604 	addi	r3,sp,24
 18021bc:	d8800704 	addi	r2,sp,28
 18021c0:	800b883a 	mov	r5,r16
 18021c4:	01c00084 	movi	r7,2
 18021c8:	d8c00215 	stw	r3,8(sp)
 18021cc:	d8800315 	stw	r2,12(sp)
 18021d0:	dd000015 	stw	r20,0(sp)
 18021d4:	18029880 	call	1802988 <_dtoa_r>
 18021d8:	d9814d17 	ldw	r6,1332(sp)
 18021dc:	d8814115 	stw	r2,1284(sp)
 18021e0:	008019c4 	movi	r2,103
 18021e4:	30809526 	beq	r6,r2,180243c <___vfprintf_internal_r+0x1cd8>
 18021e8:	d8c14d17 	ldw	r3,1332(sp)
 18021ec:	008011c4 	movi	r2,71
 18021f0:	18809226 	beq	r3,r2,180243c <___vfprintf_internal_r+0x1cd8>
 18021f4:	d9414117 	ldw	r5,1284(sp)
 18021f8:	d9814d17 	ldw	r6,1332(sp)
 18021fc:	00801984 	movi	r2,102
 1802200:	2d25883a 	add	r18,r5,r20
 1802204:	30808626 	beq	r6,r2,1802420 <___vfprintf_internal_r+0x1cbc>
 1802208:	00801184 	movi	r2,70
 180220c:	30808426 	beq	r6,r2,1802420 <___vfprintf_internal_r+0x1cbc>
 1802210:	000d883a 	mov	r6,zero
 1802214:	000f883a 	mov	r7,zero
 1802218:	880b883a 	mov	r5,r17
 180221c:	8009883a 	mov	r4,r16
 1802220:	1808f2c0 	call	1808f2c <__eqdf2>
 1802224:	1000751e 	bne	r2,zero,18023fc <___vfprintf_internal_r+0x1c98>
 1802228:	9005883a 	mov	r2,r18
 180222c:	dc800715 	stw	r18,28(sp)
 1802230:	d9014117 	ldw	r4,1284(sp)
 1802234:	d9414d17 	ldw	r5,1332(sp)
 1802238:	00c019c4 	movi	r3,103
 180223c:	1125c83a 	sub	r18,r2,r4
 1802240:	28c06826 	beq	r5,r3,18023e4 <___vfprintf_internal_r+0x1c80>
 1802244:	008011c4 	movi	r2,71
 1802248:	28806626 	beq	r5,r2,18023e4 <___vfprintf_internal_r+0x1c80>
 180224c:	d9000517 	ldw	r4,20(sp)
 1802250:	d8c14d17 	ldw	r3,1332(sp)
 1802254:	00801944 	movi	r2,101
 1802258:	10c05516 	blt	r2,r3,18023b0 <___vfprintf_internal_r+0x1c4c>
 180225c:	213fffc4 	addi	r4,r4,-1
 1802260:	d9000515 	stw	r4,20(sp)
 1802264:	d8c00805 	stb	r3,32(sp)
 1802268:	2021883a 	mov	r16,r4
 180226c:	2000c116 	blt	r4,zero,1802574 <___vfprintf_internal_r+0x1e10>
 1802270:	00800ac4 	movi	r2,43
 1802274:	d8800845 	stb	r2,33(sp)
 1802278:	00800244 	movi	r2,9
 180227c:	1400af0e 	bge	r2,r16,180253c <___vfprintf_internal_r+0x1dd8>
 1802280:	1027883a 	mov	r19,r2
 1802284:	dc400b84 	addi	r17,sp,46
 1802288:	8009883a 	mov	r4,r16
 180228c:	01400284 	movi	r5,10
 1802290:	18096140 	call	1809614 <__modsi3>
 1802294:	10800c04 	addi	r2,r2,48
 1802298:	8c7fffc4 	addi	r17,r17,-1
 180229c:	8009883a 	mov	r4,r16
 18022a0:	01400284 	movi	r5,10
 18022a4:	88800005 	stb	r2,0(r17)
 18022a8:	18095b40 	call	18095b4 <__divsi3>
 18022ac:	1021883a 	mov	r16,r2
 18022b0:	98bff516 	blt	r19,r2,1802288 <___vfprintf_internal_r+0x1b24>
 18022b4:	10c00c04 	addi	r3,r2,48
 18022b8:	d88009c4 	addi	r2,sp,39
 18022bc:	108001c4 	addi	r2,r2,7
 18022c0:	897fffc4 	addi	r5,r17,-1
 18022c4:	88ffffc5 	stb	r3,-1(r17)
 18022c8:	2880a72e 	bgeu	r5,r2,1802568 <___vfprintf_internal_r+0x1e04>
 18022cc:	1009883a 	mov	r4,r2
 18022d0:	d9800804 	addi	r6,sp,32
 18022d4:	d8c00884 	addi	r3,sp,34
 18022d8:	28800003 	ldbu	r2,0(r5)
 18022dc:	29400044 	addi	r5,r5,1
 18022e0:	18800005 	stb	r2,0(r3)
 18022e4:	18c00044 	addi	r3,r3,1
 18022e8:	293ffb36 	bltu	r5,r4,18022d8 <___vfprintf_internal_r+0x1b74>
 18022ec:	1987c83a 	sub	r3,r3,r6
 18022f0:	00800044 	movi	r2,1
 18022f4:	d8c14815 	stw	r3,1312(sp)
 18022f8:	90cf883a 	add	r7,r18,r3
 18022fc:	1480960e 	bge	r2,r18,1802558 <___vfprintf_internal_r+0x1df4>
 1802300:	39c00044 	addi	r7,r7,1
 1802304:	d9c14515 	stw	r7,1300(sp)
 1802308:	38003416 	blt	r7,zero,18023dc <___vfprintf_internal_r+0x1c78>
 180230c:	e0803fcc 	andi	r2,fp,255
 1802310:	1080201c 	xori	r2,r2,128
 1802314:	10bfe004 	addi	r2,r2,-128
 1802318:	10004e26 	beq	r2,zero,1802454 <___vfprintf_internal_r+0x1cf0>
 180231c:	00800b44 	movi	r2,45
 1802320:	dc814715 	stw	r18,1308(sp)
 1802324:	d8014615 	stw	zero,1304(sp)
 1802328:	d8800405 	stb	r2,16(sp)
 180232c:	003bb106 	br	18011f4 <___vfprintf_internal_r+0xa90>
 1802330:	00800b44 	movi	r2,45
 1802334:	d8800405 	stb	r2,16(sp)
 1802338:	003d3306 	br	1801808 <___vfprintf_internal_r+0x10a4>
 180233c:	d9014f17 	ldw	r4,1340(sp)
 1802340:	b00b883a 	mov	r5,r22
 1802344:	d9800c04 	addi	r6,sp,48
 1802348:	180070c0 	call	180070c <__sprint_r>
 180234c:	103abd1e 	bne	r2,zero,1800e44 <___vfprintf_internal_r+0x6e0>
 1802350:	003abb06 	br	1800e40 <___vfprintf_internal_r+0x6dc>
 1802354:	38800017 	ldw	r2,0(r7)
 1802358:	39c00104 	addi	r7,r7,4
 180235c:	d9c14015 	stw	r7,1280(sp)
 1802360:	d9414b17 	ldw	r5,1324(sp)
 1802364:	d9c14017 	ldw	r7,1280(sp)
 1802368:	11400015 	stw	r5,0(r2)
 180236c:	00395906 	br	18008d4 <___vfprintf_internal_r+0x170>
 1802370:	980f883a 	mov	r7,r19
 1802374:	dcc14515 	stw	r19,1300(sp)
 1802378:	d8014615 	stw	zero,1304(sp)
 180237c:	003b9b06 	br	18011ec <___vfprintf_internal_r+0xa88>
 1802380:	0027883a 	mov	r19,zero
 1802384:	00397806 	br	1800968 <___vfprintf_internal_r+0x204>
 1802388:	00c06074 	movhi	r3,385
 180238c:	18c22504 	addi	r3,r3,2196
 1802390:	100f883a 	mov	r7,r2
 1802394:	d8814515 	stw	r2,1300(sp)
 1802398:	d8c14115 	stw	r3,1284(sp)
 180239c:	0039e006 	br	1800b20 <___vfprintf_internal_r+0x3bc>
 18023a0:	00806074 	movhi	r2,385
 18023a4:	10822404 	addi	r2,r2,2192
 18023a8:	d8814115 	stw	r2,1284(sp)
 18023ac:	003d1c06 	br	1801820 <___vfprintf_internal_r+0x10bc>
 18023b0:	d9414d17 	ldw	r5,1332(sp)
 18023b4:	00801984 	movi	r2,102
 18023b8:	28804926 	beq	r5,r2,18024e0 <___vfprintf_internal_r+0x1d7c>
 18023bc:	200f883a 	mov	r7,r4
 18023c0:	24805716 	blt	r4,r18,1802520 <___vfprintf_internal_r+0x1dbc>
 18023c4:	d9414c17 	ldw	r5,1328(sp)
 18023c8:	2880004c 	andi	r2,r5,1
 18023cc:	10000126 	beq	r2,zero,18023d4 <___vfprintf_internal_r+0x1c70>
 18023d0:	21c00044 	addi	r7,r4,1
 18023d4:	d9c14515 	stw	r7,1300(sp)
 18023d8:	383fcc0e 	bge	r7,zero,180230c <___vfprintf_internal_r+0x1ba8>
 18023dc:	d8014515 	stw	zero,1300(sp)
 18023e0:	003fca06 	br	180230c <___vfprintf_internal_r+0x1ba8>
 18023e4:	d9000517 	ldw	r4,20(sp)
 18023e8:	00bfff04 	movi	r2,-4
 18023ec:	1100480e 	bge	r2,r4,1802510 <___vfprintf_internal_r+0x1dac>
 18023f0:	99004716 	blt	r19,r4,1802510 <___vfprintf_internal_r+0x1dac>
 18023f4:	d8c14d15 	stw	r3,1332(sp)
 18023f8:	003ff006 	br	18023bc <___vfprintf_internal_r+0x1c58>
 18023fc:	d8800717 	ldw	r2,28(sp)
 1802400:	14bf8b2e 	bgeu	r2,r18,1802230 <___vfprintf_internal_r+0x1acc>
 1802404:	9007883a 	mov	r3,r18
 1802408:	01000c04 	movi	r4,48
 180240c:	11000005 	stb	r4,0(r2)
 1802410:	10800044 	addi	r2,r2,1
 1802414:	d8800715 	stw	r2,28(sp)
 1802418:	18bffc1e 	bne	r3,r2,180240c <___vfprintf_internal_r+0x1ca8>
 180241c:	003f8406 	br	1802230 <___vfprintf_internal_r+0x1acc>
 1802420:	d8814117 	ldw	r2,1284(sp)
 1802424:	10c00007 	ldb	r3,0(r2)
 1802428:	00800c04 	movi	r2,48
 180242c:	18805b26 	beq	r3,r2,180259c <___vfprintf_internal_r+0x1e38>
 1802430:	d9000517 	ldw	r4,20(sp)
 1802434:	9125883a 	add	r18,r18,r4
 1802438:	003f7506 	br	1802210 <___vfprintf_internal_r+0x1aac>
 180243c:	d9014c17 	ldw	r4,1328(sp)
 1802440:	2080004c 	andi	r2,r4,1
 1802444:	1005003a 	cmpeq	r2,r2,zero
 1802448:	103f6a26 	beq	r2,zero,18021f4 <___vfprintf_internal_r+0x1a90>
 180244c:	d8800717 	ldw	r2,28(sp)
 1802450:	003f7706 	br	1802230 <___vfprintf_internal_r+0x1acc>
 1802454:	d9c14515 	stw	r7,1300(sp)
 1802458:	38004d16 	blt	r7,zero,1802590 <___vfprintf_internal_r+0x1e2c>
 180245c:	dc814715 	stw	r18,1308(sp)
 1802460:	d8014615 	stw	zero,1304(sp)
 1802464:	003b6106 	br	18011ec <___vfprintf_internal_r+0xa88>
 1802468:	d9014f17 	ldw	r4,1340(sp)
 180246c:	d8800504 	addi	r2,sp,20
 1802470:	d8800115 	stw	r2,4(sp)
 1802474:	d8c00604 	addi	r3,sp,24
 1802478:	d8800704 	addi	r2,sp,28
 180247c:	800b883a 	mov	r5,r16
 1802480:	880d883a 	mov	r6,r17
 1802484:	01c000c4 	movi	r7,3
 1802488:	d8c00215 	stw	r3,8(sp)
 180248c:	d8800315 	stw	r2,12(sp)
 1802490:	dcc00015 	stw	r19,0(sp)
 1802494:	9829883a 	mov	r20,r19
 1802498:	18029880 	call	1802988 <_dtoa_r>
 180249c:	d8814115 	stw	r2,1284(sp)
 18024a0:	003f5106 	br	18021e8 <___vfprintf_internal_r+0x1a84>
 18024a4:	d8c14217 	ldw	r3,1288(sp)
 18024a8:	d9014317 	ldw	r4,1292(sp)
 18024ac:	07000b44 	movi	fp,45
 18024b0:	1821883a 	mov	r16,r3
 18024b4:	2460003c 	xorhi	r17,r4,32768
 18024b8:	003f3106 	br	1802180 <___vfprintf_internal_r+0x1a1c>
 18024bc:	9d000044 	addi	r20,r19,1
 18024c0:	003f3906 	br	18021a8 <___vfprintf_internal_r+0x1a44>
 18024c4:	983f251e 	bne	r19,zero,180215c <___vfprintf_internal_r+0x19f8>
 18024c8:	04c00044 	movi	r19,1
 18024cc:	003f2306 	br	180215c <___vfprintf_internal_r+0x19f8>
 18024d0:	04c00184 	movi	r19,6
 18024d4:	003f2106 	br	180215c <___vfprintf_internal_r+0x19f8>
 18024d8:	d8014515 	stw	zero,1300(sp)
 18024dc:	003eee06 	br	1802098 <___vfprintf_internal_r+0x1934>
 18024e0:	200f883a 	mov	r7,r4
 18024e4:	0100370e 	bge	zero,r4,18025c4 <___vfprintf_internal_r+0x1e60>
 18024e8:	9800031e 	bne	r19,zero,18024f8 <___vfprintf_internal_r+0x1d94>
 18024ec:	d9814c17 	ldw	r6,1328(sp)
 18024f0:	3080004c 	andi	r2,r6,1
 18024f4:	103fb726 	beq	r2,zero,18023d4 <___vfprintf_internal_r+0x1c70>
 18024f8:	20800044 	addi	r2,r4,1
 18024fc:	98a7883a 	add	r19,r19,r2
 1802500:	dcc14515 	stw	r19,1300(sp)
 1802504:	980f883a 	mov	r7,r19
 1802508:	983f800e 	bge	r19,zero,180230c <___vfprintf_internal_r+0x1ba8>
 180250c:	003fb306 	br	18023dc <___vfprintf_internal_r+0x1c78>
 1802510:	d9814d17 	ldw	r6,1332(sp)
 1802514:	31bfff84 	addi	r6,r6,-2
 1802518:	d9814d15 	stw	r6,1332(sp)
 180251c:	003f4c06 	br	1802250 <___vfprintf_internal_r+0x1aec>
 1802520:	0100180e 	bge	zero,r4,1802584 <___vfprintf_internal_r+0x1e20>
 1802524:	00800044 	movi	r2,1
 1802528:	1485883a 	add	r2,r2,r18
 180252c:	d8814515 	stw	r2,1300(sp)
 1802530:	100f883a 	mov	r7,r2
 1802534:	103f750e 	bge	r2,zero,180230c <___vfprintf_internal_r+0x1ba8>
 1802538:	003fa806 	br	18023dc <___vfprintf_internal_r+0x1c78>
 180253c:	80c00c04 	addi	r3,r16,48
 1802540:	00800c04 	movi	r2,48
 1802544:	d8c008c5 	stb	r3,35(sp)
 1802548:	d9800804 	addi	r6,sp,32
 180254c:	d8c00904 	addi	r3,sp,36
 1802550:	d8800885 	stb	r2,34(sp)
 1802554:	003f6506 	br	18022ec <___vfprintf_internal_r+0x1b88>
 1802558:	d9014c17 	ldw	r4,1328(sp)
 180255c:	2084703a 	and	r2,r4,r2
 1802560:	103f9c26 	beq	r2,zero,18023d4 <___vfprintf_internal_r+0x1c70>
 1802564:	003f6606 	br	1802300 <___vfprintf_internal_r+0x1b9c>
 1802568:	d9800804 	addi	r6,sp,32
 180256c:	d8c00884 	addi	r3,sp,34
 1802570:	003f5e06 	br	18022ec <___vfprintf_internal_r+0x1b88>
 1802574:	00800b44 	movi	r2,45
 1802578:	0121c83a 	sub	r16,zero,r4
 180257c:	d8800845 	stb	r2,33(sp)
 1802580:	003f3d06 	br	1802278 <___vfprintf_internal_r+0x1b14>
 1802584:	00800084 	movi	r2,2
 1802588:	1105c83a 	sub	r2,r2,r4
 180258c:	003fe606 	br	1802528 <___vfprintf_internal_r+0x1dc4>
 1802590:	d8014515 	stw	zero,1300(sp)
 1802594:	dc814715 	stw	r18,1308(sp)
 1802598:	003fb106 	br	1802460 <___vfprintf_internal_r+0x1cfc>
 180259c:	000d883a 	mov	r6,zero
 18025a0:	000f883a 	mov	r7,zero
 18025a4:	8009883a 	mov	r4,r16
 18025a8:	880b883a 	mov	r5,r17
 18025ac:	1808fb40 	call	1808fb4 <__nedf2>
 18025b0:	103f9f26 	beq	r2,zero,1802430 <___vfprintf_internal_r+0x1ccc>
 18025b4:	00800044 	movi	r2,1
 18025b8:	1509c83a 	sub	r4,r2,r20
 18025bc:	d9000515 	stw	r4,20(sp)
 18025c0:	003f9b06 	br	1802430 <___vfprintf_internal_r+0x1ccc>
 18025c4:	98000d1e 	bne	r19,zero,18025fc <___vfprintf_internal_r+0x1e98>
 18025c8:	d8c14c17 	ldw	r3,1328(sp)
 18025cc:	1880004c 	andi	r2,r3,1
 18025d0:	10000a1e 	bne	r2,zero,18025fc <___vfprintf_internal_r+0x1e98>
 18025d4:	01000044 	movi	r4,1
 18025d8:	200f883a 	mov	r7,r4
 18025dc:	d9014515 	stw	r4,1300(sp)
 18025e0:	003f4a06 	br	180230c <___vfprintf_internal_r+0x1ba8>
 18025e4:	3cc00017 	ldw	r19,0(r7)
 18025e8:	39c00104 	addi	r7,r7,4
 18025ec:	983d0e0e 	bge	r19,zero,1801a28 <___vfprintf_internal_r+0x12c4>
 18025f0:	b8c00007 	ldb	r3,0(r23)
 18025f4:	04ffffc4 	movi	r19,-1
 18025f8:	0038d906 	br	1800960 <___vfprintf_internal_r+0x1fc>
 18025fc:	9cc00084 	addi	r19,r19,2
 1802600:	dcc14515 	stw	r19,1300(sp)
 1802604:	980f883a 	mov	r7,r19
 1802608:	983f400e 	bge	r19,zero,180230c <___vfprintf_internal_r+0x1ba8>
 180260c:	003f7306 	br	18023dc <___vfprintf_internal_r+0x1c78>

01802610 <__vfprintf_internal>:
 1802610:	00806074 	movhi	r2,385
 1802614:	108acb04 	addi	r2,r2,11052
 1802618:	2013883a 	mov	r9,r4
 180261c:	11000017 	ldw	r4,0(r2)
 1802620:	2805883a 	mov	r2,r5
 1802624:	300f883a 	mov	r7,r6
 1802628:	480b883a 	mov	r5,r9
 180262c:	100d883a 	mov	r6,r2
 1802630:	18007641 	jmpi	1800764 <___vfprintf_internal_r>

01802634 <__swsetup_r>:
 1802634:	00806074 	movhi	r2,385
 1802638:	108acb04 	addi	r2,r2,11052
 180263c:	10c00017 	ldw	r3,0(r2)
 1802640:	defffd04 	addi	sp,sp,-12
 1802644:	dc400115 	stw	r17,4(sp)
 1802648:	dc000015 	stw	r16,0(sp)
 180264c:	dfc00215 	stw	ra,8(sp)
 1802650:	2023883a 	mov	r17,r4
 1802654:	2821883a 	mov	r16,r5
 1802658:	18000226 	beq	r3,zero,1802664 <__swsetup_r+0x30>
 180265c:	18800e17 	ldw	r2,56(r3)
 1802660:	10001f26 	beq	r2,zero,18026e0 <__swsetup_r+0xac>
 1802664:	8100030b 	ldhu	r4,12(r16)
 1802668:	2080020c 	andi	r2,r4,8
 180266c:	10002826 	beq	r2,zero,1802710 <__swsetup_r+0xdc>
 1802670:	81400417 	ldw	r5,16(r16)
 1802674:	28001d26 	beq	r5,zero,18026ec <__swsetup_r+0xb8>
 1802678:	2080004c 	andi	r2,r4,1
 180267c:	1005003a 	cmpeq	r2,r2,zero
 1802680:	10000b26 	beq	r2,zero,18026b0 <__swsetup_r+0x7c>
 1802684:	2080008c 	andi	r2,r4,2
 1802688:	10001226 	beq	r2,zero,18026d4 <__swsetup_r+0xa0>
 180268c:	0005883a 	mov	r2,zero
 1802690:	80800215 	stw	r2,8(r16)
 1802694:	28000b26 	beq	r5,zero,18026c4 <__swsetup_r+0x90>
 1802698:	0005883a 	mov	r2,zero
 180269c:	dfc00217 	ldw	ra,8(sp)
 18026a0:	dc400117 	ldw	r17,4(sp)
 18026a4:	dc000017 	ldw	r16,0(sp)
 18026a8:	dec00304 	addi	sp,sp,12
 18026ac:	f800283a 	ret
 18026b0:	80800517 	ldw	r2,20(r16)
 18026b4:	80000215 	stw	zero,8(r16)
 18026b8:	0085c83a 	sub	r2,zero,r2
 18026bc:	80800615 	stw	r2,24(r16)
 18026c0:	283ff51e 	bne	r5,zero,1802698 <__swsetup_r+0x64>
 18026c4:	2080200c 	andi	r2,r4,128
 18026c8:	103ff326 	beq	r2,zero,1802698 <__swsetup_r+0x64>
 18026cc:	00bfffc4 	movi	r2,-1
 18026d0:	003ff206 	br	180269c <__swsetup_r+0x68>
 18026d4:	80800517 	ldw	r2,20(r16)
 18026d8:	80800215 	stw	r2,8(r16)
 18026dc:	003fed06 	br	1802694 <__swsetup_r+0x60>
 18026e0:	1809883a 	mov	r4,r3
 18026e4:	18041d40 	call	18041d4 <__sinit>
 18026e8:	003fde06 	br	1802664 <__swsetup_r+0x30>
 18026ec:	20c0a00c 	andi	r3,r4,640
 18026f0:	00808004 	movi	r2,512
 18026f4:	18bfe026 	beq	r3,r2,1802678 <__swsetup_r+0x44>
 18026f8:	8809883a 	mov	r4,r17
 18026fc:	800b883a 	mov	r5,r16
 1802700:	1804f4c0 	call	1804f4c <__smakebuf_r>
 1802704:	8100030b 	ldhu	r4,12(r16)
 1802708:	81400417 	ldw	r5,16(r16)
 180270c:	003fda06 	br	1802678 <__swsetup_r+0x44>
 1802710:	2080040c 	andi	r2,r4,16
 1802714:	103fed26 	beq	r2,zero,18026cc <__swsetup_r+0x98>
 1802718:	2080010c 	andi	r2,r4,4
 180271c:	10001226 	beq	r2,zero,1802768 <__swsetup_r+0x134>
 1802720:	81400c17 	ldw	r5,48(r16)
 1802724:	28000526 	beq	r5,zero,180273c <__swsetup_r+0x108>
 1802728:	80801004 	addi	r2,r16,64
 180272c:	28800226 	beq	r5,r2,1802738 <__swsetup_r+0x104>
 1802730:	8809883a 	mov	r4,r17
 1802734:	18045580 	call	1804558 <_free_r>
 1802738:	80000c15 	stw	zero,48(r16)
 180273c:	8080030b 	ldhu	r2,12(r16)
 1802740:	81400417 	ldw	r5,16(r16)
 1802744:	80000115 	stw	zero,4(r16)
 1802748:	10bff6cc 	andi	r2,r2,65499
 180274c:	8080030d 	sth	r2,12(r16)
 1802750:	81400015 	stw	r5,0(r16)
 1802754:	8080030b 	ldhu	r2,12(r16)
 1802758:	10800214 	ori	r2,r2,8
 180275c:	113fffcc 	andi	r4,r2,65535
 1802760:	8080030d 	sth	r2,12(r16)
 1802764:	003fc306 	br	1802674 <__swsetup_r+0x40>
 1802768:	81400417 	ldw	r5,16(r16)
 180276c:	003ff906 	br	1802754 <__swsetup_r+0x120>

01802770 <quorem>:
 1802770:	28c00417 	ldw	r3,16(r5)
 1802774:	20800417 	ldw	r2,16(r4)
 1802778:	defff604 	addi	sp,sp,-40
 180277c:	ddc00715 	stw	r23,28(sp)
 1802780:	dd400515 	stw	r21,20(sp)
 1802784:	dfc00915 	stw	ra,36(sp)
 1802788:	df000815 	stw	fp,32(sp)
 180278c:	dd800615 	stw	r22,24(sp)
 1802790:	dd000415 	stw	r20,16(sp)
 1802794:	dcc00315 	stw	r19,12(sp)
 1802798:	dc800215 	stw	r18,8(sp)
 180279c:	dc400115 	stw	r17,4(sp)
 18027a0:	dc000015 	stw	r16,0(sp)
 18027a4:	202f883a 	mov	r23,r4
 18027a8:	282b883a 	mov	r21,r5
 18027ac:	10c07416 	blt	r2,r3,1802980 <quorem+0x210>
 18027b0:	1c7fffc4 	addi	r17,r3,-1
 18027b4:	8c45883a 	add	r2,r17,r17
 18027b8:	1085883a 	add	r2,r2,r2
 18027bc:	2c000504 	addi	r16,r5,20
 18027c0:	24c00504 	addi	r19,r4,20
 18027c4:	14ed883a 	add	r22,r2,r19
 18027c8:	80a5883a 	add	r18,r16,r2
 18027cc:	b7000017 	ldw	fp,0(r22)
 18027d0:	91400017 	ldw	r5,0(r18)
 18027d4:	e009883a 	mov	r4,fp
 18027d8:	29400044 	addi	r5,r5,1
 18027dc:	18096740 	call	1809674 <__udivsi3>
 18027e0:	1029883a 	mov	r20,r2
 18027e4:	10003c1e 	bne	r2,zero,18028d8 <quorem+0x168>
 18027e8:	a80b883a 	mov	r5,r21
 18027ec:	b809883a 	mov	r4,r23
 18027f0:	1805c780 	call	1805c78 <__mcmp>
 18027f4:	10002b16 	blt	r2,zero,18028a4 <quorem+0x134>
 18027f8:	a5000044 	addi	r20,r20,1
 18027fc:	980f883a 	mov	r7,r19
 1802800:	0011883a 	mov	r8,zero
 1802804:	0009883a 	mov	r4,zero
 1802808:	81400017 	ldw	r5,0(r16)
 180280c:	38c00017 	ldw	r3,0(r7)
 1802810:	84000104 	addi	r16,r16,4
 1802814:	28bfffcc 	andi	r2,r5,65535
 1802818:	2085883a 	add	r2,r4,r2
 180281c:	11bfffcc 	andi	r6,r2,65535
 1802820:	193fffcc 	andi	r4,r3,65535
 1802824:	1004d43a 	srli	r2,r2,16
 1802828:	280ad43a 	srli	r5,r5,16
 180282c:	2189c83a 	sub	r4,r4,r6
 1802830:	2209883a 	add	r4,r4,r8
 1802834:	1806d43a 	srli	r3,r3,16
 1802838:	288b883a 	add	r5,r5,r2
 180283c:	200dd43a 	srai	r6,r4,16
 1802840:	28bfffcc 	andi	r2,r5,65535
 1802844:	1887c83a 	sub	r3,r3,r2
 1802848:	1987883a 	add	r3,r3,r6
 180284c:	3900000d 	sth	r4,0(r7)
 1802850:	38c0008d 	sth	r3,2(r7)
 1802854:	2808d43a 	srli	r4,r5,16
 1802858:	39c00104 	addi	r7,r7,4
 180285c:	1811d43a 	srai	r8,r3,16
 1802860:	943fe92e 	bgeu	r18,r16,1802808 <quorem+0x98>
 1802864:	8c45883a 	add	r2,r17,r17
 1802868:	1085883a 	add	r2,r2,r2
 180286c:	9885883a 	add	r2,r19,r2
 1802870:	10c00017 	ldw	r3,0(r2)
 1802874:	18000b1e 	bne	r3,zero,18028a4 <quorem+0x134>
 1802878:	113fff04 	addi	r4,r2,-4
 180287c:	9900082e 	bgeu	r19,r4,18028a0 <quorem+0x130>
 1802880:	10bfff17 	ldw	r2,-4(r2)
 1802884:	10000326 	beq	r2,zero,1802894 <quorem+0x124>
 1802888:	00000506 	br	18028a0 <quorem+0x130>
 180288c:	20800017 	ldw	r2,0(r4)
 1802890:	1000031e 	bne	r2,zero,18028a0 <quorem+0x130>
 1802894:	213fff04 	addi	r4,r4,-4
 1802898:	8c7fffc4 	addi	r17,r17,-1
 180289c:	993ffb36 	bltu	r19,r4,180288c <quorem+0x11c>
 18028a0:	bc400415 	stw	r17,16(r23)
 18028a4:	a005883a 	mov	r2,r20
 18028a8:	dfc00917 	ldw	ra,36(sp)
 18028ac:	df000817 	ldw	fp,32(sp)
 18028b0:	ddc00717 	ldw	r23,28(sp)
 18028b4:	dd800617 	ldw	r22,24(sp)
 18028b8:	dd400517 	ldw	r21,20(sp)
 18028bc:	dd000417 	ldw	r20,16(sp)
 18028c0:	dcc00317 	ldw	r19,12(sp)
 18028c4:	dc800217 	ldw	r18,8(sp)
 18028c8:	dc400117 	ldw	r17,4(sp)
 18028cc:	dc000017 	ldw	r16,0(sp)
 18028d0:	dec00a04 	addi	sp,sp,40
 18028d4:	f800283a 	ret
 18028d8:	980f883a 	mov	r7,r19
 18028dc:	8011883a 	mov	r8,r16
 18028e0:	0013883a 	mov	r9,zero
 18028e4:	000d883a 	mov	r6,zero
 18028e8:	40c00017 	ldw	r3,0(r8)
 18028ec:	39000017 	ldw	r4,0(r7)
 18028f0:	42000104 	addi	r8,r8,4
 18028f4:	18bfffcc 	andi	r2,r3,65535
 18028f8:	a085383a 	mul	r2,r20,r2
 18028fc:	1806d43a 	srli	r3,r3,16
 1802900:	217fffcc 	andi	r5,r4,65535
 1802904:	3085883a 	add	r2,r6,r2
 1802908:	11bfffcc 	andi	r6,r2,65535
 180290c:	a0c7383a 	mul	r3,r20,r3
 1802910:	1004d43a 	srli	r2,r2,16
 1802914:	298bc83a 	sub	r5,r5,r6
 1802918:	2a4b883a 	add	r5,r5,r9
 180291c:	2008d43a 	srli	r4,r4,16
 1802920:	1887883a 	add	r3,r3,r2
 1802924:	280dd43a 	srai	r6,r5,16
 1802928:	18bfffcc 	andi	r2,r3,65535
 180292c:	2089c83a 	sub	r4,r4,r2
 1802930:	2189883a 	add	r4,r4,r6
 1802934:	3900008d 	sth	r4,2(r7)
 1802938:	3940000d 	sth	r5,0(r7)
 180293c:	180cd43a 	srli	r6,r3,16
 1802940:	39c00104 	addi	r7,r7,4
 1802944:	2013d43a 	srai	r9,r4,16
 1802948:	923fe72e 	bgeu	r18,r8,18028e8 <quorem+0x178>
 180294c:	e03fa61e 	bne	fp,zero,18027e8 <quorem+0x78>
 1802950:	b0ffff04 	addi	r3,r22,-4
 1802954:	98c0082e 	bgeu	r19,r3,1802978 <quorem+0x208>
 1802958:	b0bfff17 	ldw	r2,-4(r22)
 180295c:	10000326 	beq	r2,zero,180296c <quorem+0x1fc>
 1802960:	00000506 	br	1802978 <quorem+0x208>
 1802964:	18800017 	ldw	r2,0(r3)
 1802968:	1000031e 	bne	r2,zero,1802978 <quorem+0x208>
 180296c:	18ffff04 	addi	r3,r3,-4
 1802970:	8c7fffc4 	addi	r17,r17,-1
 1802974:	98fffb36 	bltu	r19,r3,1802964 <quorem+0x1f4>
 1802978:	bc400415 	stw	r17,16(r23)
 180297c:	003f9a06 	br	18027e8 <quorem+0x78>
 1802980:	0005883a 	mov	r2,zero
 1802984:	003fc806 	br	18028a8 <quorem+0x138>

01802988 <_dtoa_r>:
 1802988:	22001017 	ldw	r8,64(r4)
 180298c:	deffda04 	addi	sp,sp,-152
 1802990:	dd402115 	stw	r21,132(sp)
 1802994:	dd002015 	stw	r20,128(sp)
 1802998:	dc801e15 	stw	r18,120(sp)
 180299c:	dc401d15 	stw	r17,116(sp)
 18029a0:	dfc02515 	stw	ra,148(sp)
 18029a4:	df002415 	stw	fp,144(sp)
 18029a8:	ddc02315 	stw	r23,140(sp)
 18029ac:	dd802215 	stw	r22,136(sp)
 18029b0:	dcc01f15 	stw	r19,124(sp)
 18029b4:	dc001c15 	stw	r16,112(sp)
 18029b8:	d9001615 	stw	r4,88(sp)
 18029bc:	3023883a 	mov	r17,r6
 18029c0:	2829883a 	mov	r20,r5
 18029c4:	d9c01715 	stw	r7,92(sp)
 18029c8:	dc802817 	ldw	r18,160(sp)
 18029cc:	302b883a 	mov	r21,r6
 18029d0:	40000a26 	beq	r8,zero,18029fc <_dtoa_r+0x74>
 18029d4:	20801117 	ldw	r2,68(r4)
 18029d8:	400b883a 	mov	r5,r8
 18029dc:	40800115 	stw	r2,4(r8)
 18029e0:	20c01117 	ldw	r3,68(r4)
 18029e4:	00800044 	movi	r2,1
 18029e8:	10c4983a 	sll	r2,r2,r3
 18029ec:	40800215 	stw	r2,8(r8)
 18029f0:	1805b1c0 	call	1805b1c <_Bfree>
 18029f4:	d8c01617 	ldw	r3,88(sp)
 18029f8:	18001015 	stw	zero,64(r3)
 18029fc:	8800a316 	blt	r17,zero,1802c8c <_dtoa_r+0x304>
 1802a00:	90000015 	stw	zero,0(r18)
 1802a04:	a8dffc2c 	andhi	r3,r21,32752
 1802a08:	009ffc34 	movhi	r2,32752
 1802a0c:	18809126 	beq	r3,r2,1802c54 <_dtoa_r+0x2cc>
 1802a10:	000d883a 	mov	r6,zero
 1802a14:	000f883a 	mov	r7,zero
 1802a18:	a009883a 	mov	r4,r20
 1802a1c:	a80b883a 	mov	r5,r21
 1802a20:	dd001215 	stw	r20,72(sp)
 1802a24:	dd401315 	stw	r21,76(sp)
 1802a28:	1808fb40 	call	1808fb4 <__nedf2>
 1802a2c:	1000171e 	bne	r2,zero,1802a8c <_dtoa_r+0x104>
 1802a30:	d9802717 	ldw	r6,156(sp)
 1802a34:	00800044 	movi	r2,1
 1802a38:	30800015 	stw	r2,0(r6)
 1802a3c:	d8802917 	ldw	r2,164(sp)
 1802a40:	10029b26 	beq	r2,zero,18034b0 <_dtoa_r+0xb28>
 1802a44:	d9002917 	ldw	r4,164(sp)
 1802a48:	00806074 	movhi	r2,385
 1802a4c:	10823344 	addi	r2,r2,2253
 1802a50:	10ffffc4 	addi	r3,r2,-1
 1802a54:	20800015 	stw	r2,0(r4)
 1802a58:	1805883a 	mov	r2,r3
 1802a5c:	dfc02517 	ldw	ra,148(sp)
 1802a60:	df002417 	ldw	fp,144(sp)
 1802a64:	ddc02317 	ldw	r23,140(sp)
 1802a68:	dd802217 	ldw	r22,136(sp)
 1802a6c:	dd402117 	ldw	r21,132(sp)
 1802a70:	dd002017 	ldw	r20,128(sp)
 1802a74:	dcc01f17 	ldw	r19,124(sp)
 1802a78:	dc801e17 	ldw	r18,120(sp)
 1802a7c:	dc401d17 	ldw	r17,116(sp)
 1802a80:	dc001c17 	ldw	r16,112(sp)
 1802a84:	dec02604 	addi	sp,sp,152
 1802a88:	f800283a 	ret
 1802a8c:	d9001617 	ldw	r4,88(sp)
 1802a90:	d9401217 	ldw	r5,72(sp)
 1802a94:	d8800104 	addi	r2,sp,4
 1802a98:	a80d883a 	mov	r6,r21
 1802a9c:	d9c00204 	addi	r7,sp,8
 1802aa0:	d8800015 	stw	r2,0(sp)
 1802aa4:	18061580 	call	1806158 <__d2b>
 1802aa8:	d8800715 	stw	r2,28(sp)
 1802aac:	a804d53a 	srli	r2,r21,20
 1802ab0:	1101ffcc 	andi	r4,r2,2047
 1802ab4:	20008626 	beq	r4,zero,1802cd0 <_dtoa_r+0x348>
 1802ab8:	d8c01217 	ldw	r3,72(sp)
 1802abc:	00800434 	movhi	r2,16
 1802ac0:	10bfffc4 	addi	r2,r2,-1
 1802ac4:	ddc00117 	ldw	r23,4(sp)
 1802ac8:	a884703a 	and	r2,r21,r2
 1802acc:	1811883a 	mov	r8,r3
 1802ad0:	124ffc34 	orhi	r9,r2,16368
 1802ad4:	25bf0044 	addi	r22,r4,-1023
 1802ad8:	d8000815 	stw	zero,32(sp)
 1802adc:	0005883a 	mov	r2,zero
 1802ae0:	00cffe34 	movhi	r3,16376
 1802ae4:	480b883a 	mov	r5,r9
 1802ae8:	4009883a 	mov	r4,r8
 1802aec:	180f883a 	mov	r7,r3
 1802af0:	100d883a 	mov	r6,r2
 1802af4:	180881c0 	call	180881c <__subdf3>
 1802af8:	0218dbf4 	movhi	r8,25455
 1802afc:	4210d844 	addi	r8,r8,17249
 1802b00:	024ff4f4 	movhi	r9,16339
 1802b04:	4a61e9c4 	addi	r9,r9,-30809
 1802b08:	480f883a 	mov	r7,r9
 1802b0c:	400d883a 	mov	r6,r8
 1802b10:	180b883a 	mov	r5,r3
 1802b14:	1009883a 	mov	r4,r2
 1802b18:	18089100 	call	1808910 <__muldf3>
 1802b1c:	0222d874 	movhi	r8,35681
 1802b20:	42322cc4 	addi	r8,r8,-14157
 1802b24:	024ff1f4 	movhi	r9,16327
 1802b28:	4a628a04 	addi	r9,r9,-30168
 1802b2c:	480f883a 	mov	r7,r9
 1802b30:	400d883a 	mov	r6,r8
 1802b34:	180b883a 	mov	r5,r3
 1802b38:	1009883a 	mov	r4,r2
 1802b3c:	180889c0 	call	180889c <__adddf3>
 1802b40:	b009883a 	mov	r4,r22
 1802b44:	1021883a 	mov	r16,r2
 1802b48:	1823883a 	mov	r17,r3
 1802b4c:	18091d40 	call	18091d4 <__floatsidf>
 1802b50:	021427f4 	movhi	r8,20639
 1802b54:	421e7ec4 	addi	r8,r8,31227
 1802b58:	024ff4f4 	movhi	r9,16339
 1802b5c:	4a5104c4 	addi	r9,r9,17427
 1802b60:	480f883a 	mov	r7,r9
 1802b64:	400d883a 	mov	r6,r8
 1802b68:	180b883a 	mov	r5,r3
 1802b6c:	1009883a 	mov	r4,r2
 1802b70:	18089100 	call	1808910 <__muldf3>
 1802b74:	180f883a 	mov	r7,r3
 1802b78:	880b883a 	mov	r5,r17
 1802b7c:	100d883a 	mov	r6,r2
 1802b80:	8009883a 	mov	r4,r16
 1802b84:	180889c0 	call	180889c <__adddf3>
 1802b88:	1009883a 	mov	r4,r2
 1802b8c:	180b883a 	mov	r5,r3
 1802b90:	1021883a 	mov	r16,r2
 1802b94:	1823883a 	mov	r17,r3
 1802b98:	18092cc0 	call	18092cc <__fixdfsi>
 1802b9c:	000d883a 	mov	r6,zero
 1802ba0:	000f883a 	mov	r7,zero
 1802ba4:	8009883a 	mov	r4,r16
 1802ba8:	880b883a 	mov	r5,r17
 1802bac:	d8800d15 	stw	r2,52(sp)
 1802bb0:	180914c0 	call	180914c <__ltdf2>
 1802bb4:	10031716 	blt	r2,zero,1803814 <_dtoa_r+0xe8c>
 1802bb8:	d8c00d17 	ldw	r3,52(sp)
 1802bbc:	00800584 	movi	r2,22
 1802bc0:	10c1482e 	bgeu	r2,r3,18030e4 <_dtoa_r+0x75c>
 1802bc4:	01000044 	movi	r4,1
 1802bc8:	d9000c15 	stw	r4,48(sp)
 1802bcc:	bd85c83a 	sub	r2,r23,r22
 1802bd0:	11bfffc4 	addi	r6,r2,-1
 1802bd4:	30030b16 	blt	r6,zero,1803804 <_dtoa_r+0xe7c>
 1802bd8:	d9800a15 	stw	r6,40(sp)
 1802bdc:	d8001115 	stw	zero,68(sp)
 1802be0:	d8c00d17 	ldw	r3,52(sp)
 1802be4:	1802ff16 	blt	r3,zero,18037e4 <_dtoa_r+0xe5c>
 1802be8:	d9000a17 	ldw	r4,40(sp)
 1802bec:	d8c00915 	stw	r3,36(sp)
 1802bf0:	d8001015 	stw	zero,64(sp)
 1802bf4:	20c9883a 	add	r4,r4,r3
 1802bf8:	d9000a15 	stw	r4,40(sp)
 1802bfc:	d9001717 	ldw	r4,92(sp)
 1802c00:	00800244 	movi	r2,9
 1802c04:	11004636 	bltu	r2,r4,1802d20 <_dtoa_r+0x398>
 1802c08:	00800144 	movi	r2,5
 1802c0c:	11020416 	blt	r2,r4,1803420 <_dtoa_r+0xa98>
 1802c10:	04400044 	movi	r17,1
 1802c14:	d8c01717 	ldw	r3,92(sp)
 1802c18:	00800144 	movi	r2,5
 1802c1c:	10c1ed36 	bltu	r2,r3,18033d4 <_dtoa_r+0xa4c>
 1802c20:	18c5883a 	add	r2,r3,r3
 1802c24:	1085883a 	add	r2,r2,r2
 1802c28:	00c06034 	movhi	r3,384
 1802c2c:	18cb0f04 	addi	r3,r3,11324
 1802c30:	10c5883a 	add	r2,r2,r3
 1802c34:	11000017 	ldw	r4,0(r2)
 1802c38:	2000683a 	jmp	r4
 1802c3c:	01802d28 	cmpgeui	r6,zero,180
 1802c40:	01802d28 	cmpgeui	r6,zero,180
 1802c44:	01803728 	cmpgeui	r6,zero,220
 1802c48:	01803700 	call	180370 <__alt_mem_sdram-0x167fc90>
 1802c4c:	01803744 	movi	r6,221
 1802c50:	01803750 	cmplti	r6,zero,221
 1802c54:	d9002717 	ldw	r4,156(sp)
 1802c58:	0089c3c4 	movi	r2,9999
 1802c5c:	20800015 	stw	r2,0(r4)
 1802c60:	a0001026 	beq	r20,zero,1802ca4 <_dtoa_r+0x31c>
 1802c64:	00c06074 	movhi	r3,385
 1802c68:	18c23f04 	addi	r3,r3,2300
 1802c6c:	d9802917 	ldw	r6,164(sp)
 1802c70:	303f7926 	beq	r6,zero,1802a58 <_dtoa_r+0xd0>
 1802c74:	188000c7 	ldb	r2,3(r3)
 1802c78:	190000c4 	addi	r4,r3,3
 1802c7c:	1000101e 	bne	r2,zero,1802cc0 <_dtoa_r+0x338>
 1802c80:	d8802917 	ldw	r2,164(sp)
 1802c84:	11000015 	stw	r4,0(r2)
 1802c88:	003f7306 	br	1802a58 <_dtoa_r+0xd0>
 1802c8c:	00a00034 	movhi	r2,32768
 1802c90:	10bfffc4 	addi	r2,r2,-1
 1802c94:	00c00044 	movi	r3,1
 1802c98:	88aa703a 	and	r21,r17,r2
 1802c9c:	90c00015 	stw	r3,0(r18)
 1802ca0:	003f5806 	br	1802a04 <_dtoa_r+0x7c>
 1802ca4:	00800434 	movhi	r2,16
 1802ca8:	10bfffc4 	addi	r2,r2,-1
 1802cac:	a884703a 	and	r2,r21,r2
 1802cb0:	103fec1e 	bne	r2,zero,1802c64 <_dtoa_r+0x2dc>
 1802cb4:	00c06074 	movhi	r3,385
 1802cb8:	18c23c04 	addi	r3,r3,2288
 1802cbc:	003feb06 	br	1802c6c <_dtoa_r+0x2e4>
 1802cc0:	d8802917 	ldw	r2,164(sp)
 1802cc4:	19000204 	addi	r4,r3,8
 1802cc8:	11000015 	stw	r4,0(r2)
 1802ccc:	003f6206 	br	1802a58 <_dtoa_r+0xd0>
 1802cd0:	ddc00117 	ldw	r23,4(sp)
 1802cd4:	d8800217 	ldw	r2,8(sp)
 1802cd8:	01000804 	movi	r4,32
 1802cdc:	b8c10c84 	addi	r3,r23,1074
 1802ce0:	18a3883a 	add	r17,r3,r2
 1802ce4:	2441b80e 	bge	r4,r17,18033c8 <_dtoa_r+0xa40>
 1802ce8:	00c01004 	movi	r3,64
 1802cec:	1c47c83a 	sub	r3,r3,r17
 1802cf0:	88bff804 	addi	r2,r17,-32
 1802cf4:	a8c6983a 	sll	r3,r21,r3
 1802cf8:	a084d83a 	srl	r2,r20,r2
 1802cfc:	1888b03a 	or	r4,r3,r2
 1802d00:	18093a40 	call	18093a4 <__floatunsidf>
 1802d04:	1011883a 	mov	r8,r2
 1802d08:	00bf8434 	movhi	r2,65040
 1802d0c:	01000044 	movi	r4,1
 1802d10:	10d3883a 	add	r9,r2,r3
 1802d14:	8dbef344 	addi	r22,r17,-1075
 1802d18:	d9000815 	stw	r4,32(sp)
 1802d1c:	003f6f06 	br	1802adc <_dtoa_r+0x154>
 1802d20:	d8001715 	stw	zero,92(sp)
 1802d24:	04400044 	movi	r17,1
 1802d28:	00bfffc4 	movi	r2,-1
 1802d2c:	00c00044 	movi	r3,1
 1802d30:	d8800e15 	stw	r2,56(sp)
 1802d34:	d8002615 	stw	zero,152(sp)
 1802d38:	d8800f15 	stw	r2,60(sp)
 1802d3c:	d8c00b15 	stw	r3,44(sp)
 1802d40:	1021883a 	mov	r16,r2
 1802d44:	d8801617 	ldw	r2,88(sp)
 1802d48:	10001115 	stw	zero,68(r2)
 1802d4c:	d8801617 	ldw	r2,88(sp)
 1802d50:	11401117 	ldw	r5,68(r2)
 1802d54:	1009883a 	mov	r4,r2
 1802d58:	180609c0 	call	180609c <_Balloc>
 1802d5c:	d8c01617 	ldw	r3,88(sp)
 1802d60:	d8800515 	stw	r2,20(sp)
 1802d64:	18801015 	stw	r2,64(r3)
 1802d68:	00800384 	movi	r2,14
 1802d6c:	14006836 	bltu	r2,r16,1802f10 <_dtoa_r+0x588>
 1802d70:	8805003a 	cmpeq	r2,r17,zero
 1802d74:	1000661e 	bne	r2,zero,1802f10 <_dtoa_r+0x588>
 1802d78:	d9000d17 	ldw	r4,52(sp)
 1802d7c:	0102300e 	bge	zero,r4,1803640 <_dtoa_r+0xcb8>
 1802d80:	208003cc 	andi	r2,r4,15
 1802d84:	100490fa 	slli	r2,r2,3
 1802d88:	2025d13a 	srai	r18,r4,4
 1802d8c:	00c06074 	movhi	r3,385
 1802d90:	18c25104 	addi	r3,r3,2372
 1802d94:	10c5883a 	add	r2,r2,r3
 1802d98:	90c0040c 	andi	r3,r18,16
 1802d9c:	14000017 	ldw	r16,0(r2)
 1802da0:	14400117 	ldw	r17,4(r2)
 1802da4:	18036a1e 	bne	r3,zero,1803b50 <_dtoa_r+0x11c8>
 1802da8:	05800084 	movi	r22,2
 1802dac:	90001026 	beq	r18,zero,1802df0 <_dtoa_r+0x468>
 1802db0:	04c06074 	movhi	r19,385
 1802db4:	9cc28304 	addi	r19,r19,2572
 1802db8:	9080004c 	andi	r2,r18,1
 1802dbc:	1005003a 	cmpeq	r2,r2,zero
 1802dc0:	1000081e 	bne	r2,zero,1802de4 <_dtoa_r+0x45c>
 1802dc4:	99800017 	ldw	r6,0(r19)
 1802dc8:	99c00117 	ldw	r7,4(r19)
 1802dcc:	880b883a 	mov	r5,r17
 1802dd0:	8009883a 	mov	r4,r16
 1802dd4:	18089100 	call	1808910 <__muldf3>
 1802dd8:	1021883a 	mov	r16,r2
 1802ddc:	b5800044 	addi	r22,r22,1
 1802de0:	1823883a 	mov	r17,r3
 1802de4:	9025d07a 	srai	r18,r18,1
 1802de8:	9cc00204 	addi	r19,r19,8
 1802dec:	903ff21e 	bne	r18,zero,1802db8 <_dtoa_r+0x430>
 1802df0:	a80b883a 	mov	r5,r21
 1802df4:	a009883a 	mov	r4,r20
 1802df8:	880f883a 	mov	r7,r17
 1802dfc:	800d883a 	mov	r6,r16
 1802e00:	1808cd40 	call	1808cd4 <__divdf3>
 1802e04:	1029883a 	mov	r20,r2
 1802e08:	182b883a 	mov	r21,r3
 1802e0c:	d8c00c17 	ldw	r3,48(sp)
 1802e10:	1805003a 	cmpeq	r2,r3,zero
 1802e14:	1000081e 	bne	r2,zero,1802e38 <_dtoa_r+0x4b0>
 1802e18:	0005883a 	mov	r2,zero
 1802e1c:	00cffc34 	movhi	r3,16368
 1802e20:	180f883a 	mov	r7,r3
 1802e24:	a009883a 	mov	r4,r20
 1802e28:	a80b883a 	mov	r5,r21
 1802e2c:	100d883a 	mov	r6,r2
 1802e30:	180914c0 	call	180914c <__ltdf2>
 1802e34:	1003fe16 	blt	r2,zero,1803e30 <_dtoa_r+0x14a8>
 1802e38:	b009883a 	mov	r4,r22
 1802e3c:	18091d40 	call	18091d4 <__floatsidf>
 1802e40:	180b883a 	mov	r5,r3
 1802e44:	1009883a 	mov	r4,r2
 1802e48:	a00d883a 	mov	r6,r20
 1802e4c:	a80f883a 	mov	r7,r21
 1802e50:	18089100 	call	1808910 <__muldf3>
 1802e54:	0011883a 	mov	r8,zero
 1802e58:	02500734 	movhi	r9,16412
 1802e5c:	1009883a 	mov	r4,r2
 1802e60:	180b883a 	mov	r5,r3
 1802e64:	480f883a 	mov	r7,r9
 1802e68:	400d883a 	mov	r6,r8
 1802e6c:	180889c0 	call	180889c <__adddf3>
 1802e70:	d9000f17 	ldw	r4,60(sp)
 1802e74:	102d883a 	mov	r22,r2
 1802e78:	00bf3034 	movhi	r2,64704
 1802e7c:	18b9883a 	add	fp,r3,r2
 1802e80:	e02f883a 	mov	r23,fp
 1802e84:	20028f1e 	bne	r4,zero,18038c4 <_dtoa_r+0xf3c>
 1802e88:	0005883a 	mov	r2,zero
 1802e8c:	00d00534 	movhi	r3,16404
 1802e90:	a009883a 	mov	r4,r20
 1802e94:	a80b883a 	mov	r5,r21
 1802e98:	180f883a 	mov	r7,r3
 1802e9c:	100d883a 	mov	r6,r2
 1802ea0:	180881c0 	call	180881c <__subdf3>
 1802ea4:	1009883a 	mov	r4,r2
 1802ea8:	e00f883a 	mov	r7,fp
 1802eac:	180b883a 	mov	r5,r3
 1802eb0:	b00d883a 	mov	r6,r22
 1802eb4:	1025883a 	mov	r18,r2
 1802eb8:	1827883a 	mov	r19,r3
 1802ebc:	180903c0 	call	180903c <__gtdf2>
 1802ec0:	00834f16 	blt	zero,r2,1803c00 <_dtoa_r+0x1278>
 1802ec4:	e0e0003c 	xorhi	r3,fp,32768
 1802ec8:	9009883a 	mov	r4,r18
 1802ecc:	980b883a 	mov	r5,r19
 1802ed0:	180f883a 	mov	r7,r3
 1802ed4:	b00d883a 	mov	r6,r22
 1802ed8:	180914c0 	call	180914c <__ltdf2>
 1802edc:	1000080e 	bge	r2,zero,1802f00 <_dtoa_r+0x578>
 1802ee0:	0027883a 	mov	r19,zero
 1802ee4:	0025883a 	mov	r18,zero
 1802ee8:	d8802617 	ldw	r2,152(sp)
 1802eec:	df000517 	ldw	fp,20(sp)
 1802ef0:	d8000615 	stw	zero,24(sp)
 1802ef4:	0084303a 	nor	r2,zero,r2
 1802ef8:	d8800d15 	stw	r2,52(sp)
 1802efc:	00019b06 	br	180356c <_dtoa_r+0xbe4>
 1802f00:	d9801217 	ldw	r6,72(sp)
 1802f04:	d8801317 	ldw	r2,76(sp)
 1802f08:	3029883a 	mov	r20,r6
 1802f0c:	102b883a 	mov	r21,r2
 1802f10:	d8c00217 	ldw	r3,8(sp)
 1802f14:	18008516 	blt	r3,zero,180312c <_dtoa_r+0x7a4>
 1802f18:	d9000d17 	ldw	r4,52(sp)
 1802f1c:	00800384 	movi	r2,14
 1802f20:	11008216 	blt	r2,r4,180312c <_dtoa_r+0x7a4>
 1802f24:	200490fa 	slli	r2,r4,3
 1802f28:	d9802617 	ldw	r6,152(sp)
 1802f2c:	00c06074 	movhi	r3,385
 1802f30:	18c25104 	addi	r3,r3,2372
 1802f34:	10c5883a 	add	r2,r2,r3
 1802f38:	14800017 	ldw	r18,0(r2)
 1802f3c:	14c00117 	ldw	r19,4(r2)
 1802f40:	30031e16 	blt	r6,zero,1803bbc <_dtoa_r+0x1234>
 1802f44:	d9000517 	ldw	r4,20(sp)
 1802f48:	d8c00f17 	ldw	r3,60(sp)
 1802f4c:	a823883a 	mov	r17,r21
 1802f50:	a021883a 	mov	r16,r20
 1802f54:	192b883a 	add	r21,r3,r4
 1802f58:	2039883a 	mov	fp,r4
 1802f5c:	00000f06 	br	1802f9c <_dtoa_r+0x614>
 1802f60:	0005883a 	mov	r2,zero
 1802f64:	00d00934 	movhi	r3,16420
 1802f68:	5009883a 	mov	r4,r10
 1802f6c:	580b883a 	mov	r5,r11
 1802f70:	180f883a 	mov	r7,r3
 1802f74:	100d883a 	mov	r6,r2
 1802f78:	18089100 	call	1808910 <__muldf3>
 1802f7c:	180b883a 	mov	r5,r3
 1802f80:	000d883a 	mov	r6,zero
 1802f84:	000f883a 	mov	r7,zero
 1802f88:	1009883a 	mov	r4,r2
 1802f8c:	1021883a 	mov	r16,r2
 1802f90:	1823883a 	mov	r17,r3
 1802f94:	1808fb40 	call	1808fb4 <__nedf2>
 1802f98:	10004526 	beq	r2,zero,18030b0 <_dtoa_r+0x728>
 1802f9c:	900d883a 	mov	r6,r18
 1802fa0:	980f883a 	mov	r7,r19
 1802fa4:	8009883a 	mov	r4,r16
 1802fa8:	880b883a 	mov	r5,r17
 1802fac:	1808cd40 	call	1808cd4 <__divdf3>
 1802fb0:	180b883a 	mov	r5,r3
 1802fb4:	1009883a 	mov	r4,r2
 1802fb8:	18092cc0 	call	18092cc <__fixdfsi>
 1802fbc:	1009883a 	mov	r4,r2
 1802fc0:	1029883a 	mov	r20,r2
 1802fc4:	18091d40 	call	18091d4 <__floatsidf>
 1802fc8:	180f883a 	mov	r7,r3
 1802fcc:	9009883a 	mov	r4,r18
 1802fd0:	980b883a 	mov	r5,r19
 1802fd4:	100d883a 	mov	r6,r2
 1802fd8:	18089100 	call	1808910 <__muldf3>
 1802fdc:	180f883a 	mov	r7,r3
 1802fe0:	880b883a 	mov	r5,r17
 1802fe4:	8009883a 	mov	r4,r16
 1802fe8:	100d883a 	mov	r6,r2
 1802fec:	180881c0 	call	180881c <__subdf3>
 1802ff0:	1015883a 	mov	r10,r2
 1802ff4:	a0800c04 	addi	r2,r20,48
 1802ff8:	e0800005 	stb	r2,0(fp)
 1802ffc:	e7000044 	addi	fp,fp,1
 1803000:	1817883a 	mov	r11,r3
 1803004:	e57fd61e 	bne	fp,r21,1802f60 <_dtoa_r+0x5d8>
 1803008:	500d883a 	mov	r6,r10
 180300c:	180f883a 	mov	r7,r3
 1803010:	5009883a 	mov	r4,r10
 1803014:	180b883a 	mov	r5,r3
 1803018:	180889c0 	call	180889c <__adddf3>
 180301c:	100d883a 	mov	r6,r2
 1803020:	9009883a 	mov	r4,r18
 1803024:	980b883a 	mov	r5,r19
 1803028:	180f883a 	mov	r7,r3
 180302c:	1021883a 	mov	r16,r2
 1803030:	1823883a 	mov	r17,r3
 1803034:	180914c0 	call	180914c <__ltdf2>
 1803038:	10000816 	blt	r2,zero,180305c <_dtoa_r+0x6d4>
 180303c:	980b883a 	mov	r5,r19
 1803040:	800d883a 	mov	r6,r16
 1803044:	880f883a 	mov	r7,r17
 1803048:	9009883a 	mov	r4,r18
 180304c:	1808f2c0 	call	1808f2c <__eqdf2>
 1803050:	1000171e 	bne	r2,zero,18030b0 <_dtoa_r+0x728>
 1803054:	a080004c 	andi	r2,r20,1
 1803058:	10001526 	beq	r2,zero,18030b0 <_dtoa_r+0x728>
 180305c:	d8800d17 	ldw	r2,52(sp)
 1803060:	d8800415 	stw	r2,16(sp)
 1803064:	e009883a 	mov	r4,fp
 1803068:	213fffc4 	addi	r4,r4,-1
 180306c:	20c00007 	ldb	r3,0(r4)
 1803070:	00800e44 	movi	r2,57
 1803074:	1880081e 	bne	r3,r2,1803098 <_dtoa_r+0x710>
 1803078:	d8800517 	ldw	r2,20(sp)
 180307c:	113ffa1e 	bne	r2,r4,1803068 <_dtoa_r+0x6e0>
 1803080:	d8c00417 	ldw	r3,16(sp)
 1803084:	d9800517 	ldw	r6,20(sp)
 1803088:	00800c04 	movi	r2,48
 180308c:	18c00044 	addi	r3,r3,1
 1803090:	d8c00415 	stw	r3,16(sp)
 1803094:	30800005 	stb	r2,0(r6)
 1803098:	20800003 	ldbu	r2,0(r4)
 180309c:	d8c00417 	ldw	r3,16(sp)
 18030a0:	27000044 	addi	fp,r4,1
 18030a4:	10800044 	addi	r2,r2,1
 18030a8:	d8c00d15 	stw	r3,52(sp)
 18030ac:	20800005 	stb	r2,0(r4)
 18030b0:	d9001617 	ldw	r4,88(sp)
 18030b4:	d9400717 	ldw	r5,28(sp)
 18030b8:	1805b1c0 	call	1805b1c <_Bfree>
 18030bc:	e0000005 	stb	zero,0(fp)
 18030c0:	d9800d17 	ldw	r6,52(sp)
 18030c4:	d8c02717 	ldw	r3,156(sp)
 18030c8:	d9002917 	ldw	r4,164(sp)
 18030cc:	30800044 	addi	r2,r6,1
 18030d0:	18800015 	stw	r2,0(r3)
 18030d4:	20029c26 	beq	r4,zero,1803b48 <_dtoa_r+0x11c0>
 18030d8:	d8c00517 	ldw	r3,20(sp)
 18030dc:	27000015 	stw	fp,0(r4)
 18030e0:	003e5d06 	br	1802a58 <_dtoa_r+0xd0>
 18030e4:	d9800d17 	ldw	r6,52(sp)
 18030e8:	00c06074 	movhi	r3,385
 18030ec:	18c25104 	addi	r3,r3,2372
 18030f0:	d9001217 	ldw	r4,72(sp)
 18030f4:	300490fa 	slli	r2,r6,3
 18030f8:	d9401317 	ldw	r5,76(sp)
 18030fc:	10c5883a 	add	r2,r2,r3
 1803100:	12000017 	ldw	r8,0(r2)
 1803104:	12400117 	ldw	r9,4(r2)
 1803108:	400d883a 	mov	r6,r8
 180310c:	480f883a 	mov	r7,r9
 1803110:	180914c0 	call	180914c <__ltdf2>
 1803114:	1000030e 	bge	r2,zero,1803124 <_dtoa_r+0x79c>
 1803118:	d8800d17 	ldw	r2,52(sp)
 180311c:	10bfffc4 	addi	r2,r2,-1
 1803120:	d8800d15 	stw	r2,52(sp)
 1803124:	d8000c15 	stw	zero,48(sp)
 1803128:	003ea806 	br	1802bcc <_dtoa_r+0x244>
 180312c:	d9000b17 	ldw	r4,44(sp)
 1803130:	202cc03a 	cmpne	r22,r4,zero
 1803134:	b000c71e 	bne	r22,zero,1803454 <_dtoa_r+0xacc>
 1803138:	dc001117 	ldw	r16,68(sp)
 180313c:	dc801017 	ldw	r18,64(sp)
 1803140:	0027883a 	mov	r19,zero
 1803144:	04000b0e 	bge	zero,r16,1803174 <_dtoa_r+0x7ec>
 1803148:	d8c00a17 	ldw	r3,40(sp)
 180314c:	00c0090e 	bge	zero,r3,1803174 <_dtoa_r+0x7ec>
 1803150:	8005883a 	mov	r2,r16
 1803154:	1c011316 	blt	r3,r16,18035a4 <_dtoa_r+0xc1c>
 1803158:	d9000a17 	ldw	r4,40(sp)
 180315c:	d9801117 	ldw	r6,68(sp)
 1803160:	80a1c83a 	sub	r16,r16,r2
 1803164:	2089c83a 	sub	r4,r4,r2
 1803168:	308dc83a 	sub	r6,r6,r2
 180316c:	d9000a15 	stw	r4,40(sp)
 1803170:	d9801115 	stw	r6,68(sp)
 1803174:	d8801017 	ldw	r2,64(sp)
 1803178:	0080150e 	bge	zero,r2,18031d0 <_dtoa_r+0x848>
 180317c:	d8c00b17 	ldw	r3,44(sp)
 1803180:	1805003a 	cmpeq	r2,r3,zero
 1803184:	1001c91e 	bne	r2,zero,18038ac <_dtoa_r+0xf24>
 1803188:	04800e0e 	bge	zero,r18,18031c4 <_dtoa_r+0x83c>
 180318c:	d9001617 	ldw	r4,88(sp)
 1803190:	980b883a 	mov	r5,r19
 1803194:	900d883a 	mov	r6,r18
 1803198:	18068d00 	call	18068d0 <__pow5mult>
 180319c:	d9001617 	ldw	r4,88(sp)
 18031a0:	d9800717 	ldw	r6,28(sp)
 18031a4:	100b883a 	mov	r5,r2
 18031a8:	1027883a 	mov	r19,r2
 18031ac:	18065ac0 	call	18065ac <__multiply>
 18031b0:	d9001617 	ldw	r4,88(sp)
 18031b4:	d9400717 	ldw	r5,28(sp)
 18031b8:	1023883a 	mov	r17,r2
 18031bc:	1805b1c0 	call	1805b1c <_Bfree>
 18031c0:	dc400715 	stw	r17,28(sp)
 18031c4:	d9001017 	ldw	r4,64(sp)
 18031c8:	248dc83a 	sub	r6,r4,r18
 18031cc:	30010e1e 	bne	r6,zero,1803608 <_dtoa_r+0xc80>
 18031d0:	d9001617 	ldw	r4,88(sp)
 18031d4:	04400044 	movi	r17,1
 18031d8:	880b883a 	mov	r5,r17
 18031dc:	18067940 	call	1806794 <__i2b>
 18031e0:	d9800917 	ldw	r6,36(sp)
 18031e4:	1025883a 	mov	r18,r2
 18031e8:	0180040e 	bge	zero,r6,18031fc <_dtoa_r+0x874>
 18031ec:	d9001617 	ldw	r4,88(sp)
 18031f0:	100b883a 	mov	r5,r2
 18031f4:	18068d00 	call	18068d0 <__pow5mult>
 18031f8:	1025883a 	mov	r18,r2
 18031fc:	d8801717 	ldw	r2,92(sp)
 1803200:	8880f30e 	bge	r17,r2,18035d0 <_dtoa_r+0xc48>
 1803204:	0023883a 	mov	r17,zero
 1803208:	d9800917 	ldw	r6,36(sp)
 180320c:	30019e1e 	bne	r6,zero,1803888 <_dtoa_r+0xf00>
 1803210:	00c00044 	movi	r3,1
 1803214:	d9000a17 	ldw	r4,40(sp)
 1803218:	20c5883a 	add	r2,r4,r3
 180321c:	10c007cc 	andi	r3,r2,31
 1803220:	1800841e 	bne	r3,zero,1803434 <_dtoa_r+0xaac>
 1803224:	00800704 	movi	r2,28
 1803228:	d9000a17 	ldw	r4,40(sp)
 180322c:	d9801117 	ldw	r6,68(sp)
 1803230:	80a1883a 	add	r16,r16,r2
 1803234:	2089883a 	add	r4,r4,r2
 1803238:	308d883a 	add	r6,r6,r2
 180323c:	d9000a15 	stw	r4,40(sp)
 1803240:	d9801115 	stw	r6,68(sp)
 1803244:	d8801117 	ldw	r2,68(sp)
 1803248:	0080050e 	bge	zero,r2,1803260 <_dtoa_r+0x8d8>
 180324c:	d9400717 	ldw	r5,28(sp)
 1803250:	d9001617 	ldw	r4,88(sp)
 1803254:	100d883a 	mov	r6,r2
 1803258:	18064600 	call	1806460 <__lshift>
 180325c:	d8800715 	stw	r2,28(sp)
 1803260:	d8c00a17 	ldw	r3,40(sp)
 1803264:	00c0050e 	bge	zero,r3,180327c <_dtoa_r+0x8f4>
 1803268:	d9001617 	ldw	r4,88(sp)
 180326c:	900b883a 	mov	r5,r18
 1803270:	180d883a 	mov	r6,r3
 1803274:	18064600 	call	1806460 <__lshift>
 1803278:	1025883a 	mov	r18,r2
 180327c:	d9000c17 	ldw	r4,48(sp)
 1803280:	2005003a 	cmpeq	r2,r4,zero
 1803284:	10016f26 	beq	r2,zero,1803844 <_dtoa_r+0xebc>
 1803288:	d9000f17 	ldw	r4,60(sp)
 180328c:	0102170e 	bge	zero,r4,1803aec <_dtoa_r+0x1164>
 1803290:	d9800b17 	ldw	r6,44(sp)
 1803294:	3005003a 	cmpeq	r2,r6,zero
 1803298:	1000881e 	bne	r2,zero,18034bc <_dtoa_r+0xb34>
 180329c:	0400050e 	bge	zero,r16,18032b4 <_dtoa_r+0x92c>
 18032a0:	d9001617 	ldw	r4,88(sp)
 18032a4:	980b883a 	mov	r5,r19
 18032a8:	800d883a 	mov	r6,r16
 18032ac:	18064600 	call	1806460 <__lshift>
 18032b0:	1027883a 	mov	r19,r2
 18032b4:	8804c03a 	cmpne	r2,r17,zero
 18032b8:	1002541e 	bne	r2,zero,1803c0c <_dtoa_r+0x1284>
 18032bc:	980b883a 	mov	r5,r19
 18032c0:	dd800517 	ldw	r22,20(sp)
 18032c4:	dcc00615 	stw	r19,24(sp)
 18032c8:	a700004c 	andi	fp,r20,1
 18032cc:	2827883a 	mov	r19,r5
 18032d0:	d9000717 	ldw	r4,28(sp)
 18032d4:	900b883a 	mov	r5,r18
 18032d8:	18027700 	call	1802770 <quorem>
 18032dc:	d9000717 	ldw	r4,28(sp)
 18032e0:	d9400617 	ldw	r5,24(sp)
 18032e4:	1023883a 	mov	r17,r2
 18032e8:	8dc00c04 	addi	r23,r17,48
 18032ec:	1805c780 	call	1805c78 <__mcmp>
 18032f0:	d9001617 	ldw	r4,88(sp)
 18032f4:	900b883a 	mov	r5,r18
 18032f8:	980d883a 	mov	r6,r19
 18032fc:	1029883a 	mov	r20,r2
 1803300:	18062d40 	call	18062d4 <__mdiff>
 1803304:	102b883a 	mov	r21,r2
 1803308:	10800317 	ldw	r2,12(r2)
 180330c:	1001281e 	bne	r2,zero,18037b0 <_dtoa_r+0xe28>
 1803310:	d9000717 	ldw	r4,28(sp)
 1803314:	a80b883a 	mov	r5,r21
 1803318:	1805c780 	call	1805c78 <__mcmp>
 180331c:	d9001617 	ldw	r4,88(sp)
 1803320:	1021883a 	mov	r16,r2
 1803324:	a80b883a 	mov	r5,r21
 1803328:	1805b1c0 	call	1805b1c <_Bfree>
 180332c:	8000041e 	bne	r16,zero,1803340 <_dtoa_r+0x9b8>
 1803330:	d8801717 	ldw	r2,92(sp)
 1803334:	1000021e 	bne	r2,zero,1803340 <_dtoa_r+0x9b8>
 1803338:	e004c03a 	cmpne	r2,fp,zero
 180333c:	10011726 	beq	r2,zero,180379c <_dtoa_r+0xe14>
 1803340:	a0010616 	blt	r20,zero,180375c <_dtoa_r+0xdd4>
 1803344:	a000041e 	bne	r20,zero,1803358 <_dtoa_r+0x9d0>
 1803348:	d8c01717 	ldw	r3,92(sp)
 180334c:	1800021e 	bne	r3,zero,1803358 <_dtoa_r+0x9d0>
 1803350:	e004c03a 	cmpne	r2,fp,zero
 1803354:	10010126 	beq	r2,zero,180375c <_dtoa_r+0xdd4>
 1803358:	04023d16 	blt	zero,r16,1803c50 <_dtoa_r+0x12c8>
 180335c:	b5c00005 	stb	r23,0(r22)
 1803360:	d9800517 	ldw	r6,20(sp)
 1803364:	d9000f17 	ldw	r4,60(sp)
 1803368:	b5800044 	addi	r22,r22,1
 180336c:	3105883a 	add	r2,r6,r4
 1803370:	b0806526 	beq	r22,r2,1803508 <_dtoa_r+0xb80>
 1803374:	d9400717 	ldw	r5,28(sp)
 1803378:	d9001617 	ldw	r4,88(sp)
 180337c:	01800284 	movi	r6,10
 1803380:	000f883a 	mov	r7,zero
 1803384:	18067d00 	call	18067d0 <__multadd>
 1803388:	d8800715 	stw	r2,28(sp)
 180338c:	d8800617 	ldw	r2,24(sp)
 1803390:	14c10c26 	beq	r2,r19,18037c4 <_dtoa_r+0xe3c>
 1803394:	d9400617 	ldw	r5,24(sp)
 1803398:	d9001617 	ldw	r4,88(sp)
 180339c:	01800284 	movi	r6,10
 18033a0:	000f883a 	mov	r7,zero
 18033a4:	18067d00 	call	18067d0 <__multadd>
 18033a8:	d9001617 	ldw	r4,88(sp)
 18033ac:	980b883a 	mov	r5,r19
 18033b0:	01800284 	movi	r6,10
 18033b4:	000f883a 	mov	r7,zero
 18033b8:	d8800615 	stw	r2,24(sp)
 18033bc:	18067d00 	call	18067d0 <__multadd>
 18033c0:	1027883a 	mov	r19,r2
 18033c4:	003fc206 	br	18032d0 <_dtoa_r+0x948>
 18033c8:	2445c83a 	sub	r2,r4,r17
 18033cc:	a088983a 	sll	r4,r20,r2
 18033d0:	003e4b06 	br	1802d00 <_dtoa_r+0x378>
 18033d4:	01bfffc4 	movi	r6,-1
 18033d8:	00800044 	movi	r2,1
 18033dc:	d9800e15 	stw	r6,56(sp)
 18033e0:	d9800f15 	stw	r6,60(sp)
 18033e4:	d8800b15 	stw	r2,44(sp)
 18033e8:	d8c01617 	ldw	r3,88(sp)
 18033ec:	008005c4 	movi	r2,23
 18033f0:	18001115 	stw	zero,68(r3)
 18033f4:	1580082e 	bgeu	r2,r22,1803418 <_dtoa_r+0xa90>
 18033f8:	00c00104 	movi	r3,4
 18033fc:	0009883a 	mov	r4,zero
 1803400:	18c7883a 	add	r3,r3,r3
 1803404:	18800504 	addi	r2,r3,20
 1803408:	21000044 	addi	r4,r4,1
 180340c:	b0bffc2e 	bgeu	r22,r2,1803400 <_dtoa_r+0xa78>
 1803410:	d9801617 	ldw	r6,88(sp)
 1803414:	31001115 	stw	r4,68(r6)
 1803418:	dc000f17 	ldw	r16,60(sp)
 180341c:	003e4b06 	br	1802d4c <_dtoa_r+0x3c4>
 1803420:	d9801717 	ldw	r6,92(sp)
 1803424:	0023883a 	mov	r17,zero
 1803428:	31bfff04 	addi	r6,r6,-4
 180342c:	d9801715 	stw	r6,92(sp)
 1803430:	003df806 	br	1802c14 <_dtoa_r+0x28c>
 1803434:	00800804 	movi	r2,32
 1803438:	10c9c83a 	sub	r4,r2,r3
 180343c:	00c00104 	movi	r3,4
 1803440:	19005a16 	blt	r3,r4,18035ac <_dtoa_r+0xc24>
 1803444:	008000c4 	movi	r2,3
 1803448:	113f7e16 	blt	r2,r4,1803244 <_dtoa_r+0x8bc>
 180344c:	20800704 	addi	r2,r4,28
 1803450:	003f7506 	br	1803228 <_dtoa_r+0x8a0>
 1803454:	d9801717 	ldw	r6,92(sp)
 1803458:	00800044 	movi	r2,1
 180345c:	1180a10e 	bge	r2,r6,18036e4 <_dtoa_r+0xd5c>
 1803460:	d9800f17 	ldw	r6,60(sp)
 1803464:	d8c01017 	ldw	r3,64(sp)
 1803468:	30bfffc4 	addi	r2,r6,-1
 180346c:	1881c616 	blt	r3,r2,1803b88 <_dtoa_r+0x1200>
 1803470:	18a5c83a 	sub	r18,r3,r2
 1803474:	d8800f17 	ldw	r2,60(sp)
 1803478:	10026216 	blt	r2,zero,1803e04 <_dtoa_r+0x147c>
 180347c:	dc001117 	ldw	r16,68(sp)
 1803480:	1007883a 	mov	r3,r2
 1803484:	d9800a17 	ldw	r6,40(sp)
 1803488:	d8801117 	ldw	r2,68(sp)
 180348c:	d9001617 	ldw	r4,88(sp)
 1803490:	30cd883a 	add	r6,r6,r3
 1803494:	10c5883a 	add	r2,r2,r3
 1803498:	01400044 	movi	r5,1
 180349c:	d9800a15 	stw	r6,40(sp)
 18034a0:	d8801115 	stw	r2,68(sp)
 18034a4:	18067940 	call	1806794 <__i2b>
 18034a8:	1027883a 	mov	r19,r2
 18034ac:	003f2506 	br	1803144 <_dtoa_r+0x7bc>
 18034b0:	00c06074 	movhi	r3,385
 18034b4:	18c23304 	addi	r3,r3,2252
 18034b8:	003d6706 	br	1802a58 <_dtoa_r+0xd0>
 18034bc:	dd800517 	ldw	r22,20(sp)
 18034c0:	04000044 	movi	r16,1
 18034c4:	00000706 	br	18034e4 <_dtoa_r+0xb5c>
 18034c8:	d9400717 	ldw	r5,28(sp)
 18034cc:	d9001617 	ldw	r4,88(sp)
 18034d0:	01800284 	movi	r6,10
 18034d4:	000f883a 	mov	r7,zero
 18034d8:	18067d00 	call	18067d0 <__multadd>
 18034dc:	d8800715 	stw	r2,28(sp)
 18034e0:	84000044 	addi	r16,r16,1
 18034e4:	d9000717 	ldw	r4,28(sp)
 18034e8:	900b883a 	mov	r5,r18
 18034ec:	18027700 	call	1802770 <quorem>
 18034f0:	15c00c04 	addi	r23,r2,48
 18034f4:	b5c00005 	stb	r23,0(r22)
 18034f8:	d8c00f17 	ldw	r3,60(sp)
 18034fc:	b5800044 	addi	r22,r22,1
 1803500:	80fff116 	blt	r16,r3,18034c8 <_dtoa_r+0xb40>
 1803504:	d8000615 	stw	zero,24(sp)
 1803508:	d9400717 	ldw	r5,28(sp)
 180350c:	d9001617 	ldw	r4,88(sp)
 1803510:	01800044 	movi	r6,1
 1803514:	18064600 	call	1806460 <__lshift>
 1803518:	1009883a 	mov	r4,r2
 180351c:	900b883a 	mov	r5,r18
 1803520:	d8800715 	stw	r2,28(sp)
 1803524:	1805c780 	call	1805c78 <__mcmp>
 1803528:	00803c0e 	bge	zero,r2,180361c <_dtoa_r+0xc94>
 180352c:	b009883a 	mov	r4,r22
 1803530:	213fffc4 	addi	r4,r4,-1
 1803534:	21400003 	ldbu	r5,0(r4)
 1803538:	00800e44 	movi	r2,57
 180353c:	28c03fcc 	andi	r3,r5,255
 1803540:	18c0201c 	xori	r3,r3,128
 1803544:	18ffe004 	addi	r3,r3,-128
 1803548:	1881981e 	bne	r3,r2,1803bac <_dtoa_r+0x1224>
 180354c:	d9800517 	ldw	r6,20(sp)
 1803550:	21bff71e 	bne	r4,r6,1803530 <_dtoa_r+0xba8>
 1803554:	d8800d17 	ldw	r2,52(sp)
 1803558:	37000044 	addi	fp,r6,1
 180355c:	10800044 	addi	r2,r2,1
 1803560:	d8800d15 	stw	r2,52(sp)
 1803564:	00800c44 	movi	r2,49
 1803568:	30800005 	stb	r2,0(r6)
 180356c:	d9001617 	ldw	r4,88(sp)
 1803570:	900b883a 	mov	r5,r18
 1803574:	1805b1c0 	call	1805b1c <_Bfree>
 1803578:	983ecd26 	beq	r19,zero,18030b0 <_dtoa_r+0x728>
 180357c:	d8c00617 	ldw	r3,24(sp)
 1803580:	18000426 	beq	r3,zero,1803594 <_dtoa_r+0xc0c>
 1803584:	1cc00326 	beq	r3,r19,1803594 <_dtoa_r+0xc0c>
 1803588:	d9001617 	ldw	r4,88(sp)
 180358c:	180b883a 	mov	r5,r3
 1803590:	1805b1c0 	call	1805b1c <_Bfree>
 1803594:	d9001617 	ldw	r4,88(sp)
 1803598:	980b883a 	mov	r5,r19
 180359c:	1805b1c0 	call	1805b1c <_Bfree>
 18035a0:	003ec306 	br	18030b0 <_dtoa_r+0x728>
 18035a4:	1805883a 	mov	r2,r3
 18035a8:	003eeb06 	br	1803158 <_dtoa_r+0x7d0>
 18035ac:	d9800a17 	ldw	r6,40(sp)
 18035b0:	d8c01117 	ldw	r3,68(sp)
 18035b4:	20bfff04 	addi	r2,r4,-4
 18035b8:	308d883a 	add	r6,r6,r2
 18035bc:	1887883a 	add	r3,r3,r2
 18035c0:	80a1883a 	add	r16,r16,r2
 18035c4:	d9800a15 	stw	r6,40(sp)
 18035c8:	d8c01115 	stw	r3,68(sp)
 18035cc:	003f1d06 	br	1803244 <_dtoa_r+0x8bc>
 18035d0:	a03f0c1e 	bne	r20,zero,1803204 <_dtoa_r+0x87c>
 18035d4:	00800434 	movhi	r2,16
 18035d8:	10bfffc4 	addi	r2,r2,-1
 18035dc:	a884703a 	and	r2,r21,r2
 18035e0:	103f081e 	bne	r2,zero,1803204 <_dtoa_r+0x87c>
 18035e4:	a89ffc2c 	andhi	r2,r21,32752
 18035e8:	103f0626 	beq	r2,zero,1803204 <_dtoa_r+0x87c>
 18035ec:	d8c01117 	ldw	r3,68(sp)
 18035f0:	d9000a17 	ldw	r4,40(sp)
 18035f4:	18c00044 	addi	r3,r3,1
 18035f8:	21000044 	addi	r4,r4,1
 18035fc:	d8c01115 	stw	r3,68(sp)
 1803600:	d9000a15 	stw	r4,40(sp)
 1803604:	003f0006 	br	1803208 <_dtoa_r+0x880>
 1803608:	d9400717 	ldw	r5,28(sp)
 180360c:	d9001617 	ldw	r4,88(sp)
 1803610:	18068d00 	call	18068d0 <__pow5mult>
 1803614:	d8800715 	stw	r2,28(sp)
 1803618:	003eed06 	br	18031d0 <_dtoa_r+0x848>
 180361c:	1000021e 	bne	r2,zero,1803628 <_dtoa_r+0xca0>
 1803620:	b880004c 	andi	r2,r23,1
 1803624:	103fc11e 	bne	r2,zero,180352c <_dtoa_r+0xba4>
 1803628:	b5bfffc4 	addi	r22,r22,-1
 180362c:	b0c00007 	ldb	r3,0(r22)
 1803630:	00800c04 	movi	r2,48
 1803634:	18bffc26 	beq	r3,r2,1803628 <_dtoa_r+0xca0>
 1803638:	b7000044 	addi	fp,r22,1
 180363c:	003fcb06 	br	180356c <_dtoa_r+0xbe4>
 1803640:	d9800d17 	ldw	r6,52(sp)
 1803644:	018fc83a 	sub	r7,zero,r6
 1803648:	3801f726 	beq	r7,zero,1803e28 <_dtoa_r+0x14a0>
 180364c:	398003cc 	andi	r6,r7,15
 1803650:	300c90fa 	slli	r6,r6,3
 1803654:	01406074 	movhi	r5,385
 1803658:	29425104 	addi	r5,r5,2372
 180365c:	d9001217 	ldw	r4,72(sp)
 1803660:	314d883a 	add	r6,r6,r5
 1803664:	30c00117 	ldw	r3,4(r6)
 1803668:	30800017 	ldw	r2,0(r6)
 180366c:	d9401317 	ldw	r5,76(sp)
 1803670:	3821d13a 	srai	r16,r7,4
 1803674:	100d883a 	mov	r6,r2
 1803678:	180f883a 	mov	r7,r3
 180367c:	18089100 	call	1808910 <__muldf3>
 1803680:	1011883a 	mov	r8,r2
 1803684:	1813883a 	mov	r9,r3
 1803688:	1029883a 	mov	r20,r2
 180368c:	182b883a 	mov	r21,r3
 1803690:	8001e526 	beq	r16,zero,1803e28 <_dtoa_r+0x14a0>
 1803694:	05800084 	movi	r22,2
 1803698:	04406074 	movhi	r17,385
 180369c:	8c428304 	addi	r17,r17,2572
 18036a0:	8080004c 	andi	r2,r16,1
 18036a4:	1005003a 	cmpeq	r2,r2,zero
 18036a8:	1000081e 	bne	r2,zero,18036cc <_dtoa_r+0xd44>
 18036ac:	89800017 	ldw	r6,0(r17)
 18036b0:	89c00117 	ldw	r7,4(r17)
 18036b4:	480b883a 	mov	r5,r9
 18036b8:	4009883a 	mov	r4,r8
 18036bc:	18089100 	call	1808910 <__muldf3>
 18036c0:	1011883a 	mov	r8,r2
 18036c4:	b5800044 	addi	r22,r22,1
 18036c8:	1813883a 	mov	r9,r3
 18036cc:	8021d07a 	srai	r16,r16,1
 18036d0:	8c400204 	addi	r17,r17,8
 18036d4:	803ff21e 	bne	r16,zero,18036a0 <_dtoa_r+0xd18>
 18036d8:	4029883a 	mov	r20,r8
 18036dc:	482b883a 	mov	r21,r9
 18036e0:	003dca06 	br	1802e0c <_dtoa_r+0x484>
 18036e4:	d9000817 	ldw	r4,32(sp)
 18036e8:	2005003a 	cmpeq	r2,r4,zero
 18036ec:	1001f61e 	bne	r2,zero,1803ec8 <_dtoa_r+0x1540>
 18036f0:	dc001117 	ldw	r16,68(sp)
 18036f4:	dc801017 	ldw	r18,64(sp)
 18036f8:	18c10cc4 	addi	r3,r3,1075
 18036fc:	003f6106 	br	1803484 <_dtoa_r+0xafc>
 1803700:	d8000b15 	stw	zero,44(sp)
 1803704:	d9802617 	ldw	r6,152(sp)
 1803708:	d8c00d17 	ldw	r3,52(sp)
 180370c:	30800044 	addi	r2,r6,1
 1803710:	18ad883a 	add	r22,r3,r2
 1803714:	b13fffc4 	addi	r4,r22,-1
 1803718:	d9000e15 	stw	r4,56(sp)
 180371c:	0581f60e 	bge	zero,r22,1803ef8 <_dtoa_r+0x1570>
 1803720:	dd800f15 	stw	r22,60(sp)
 1803724:	003f3006 	br	18033e8 <_dtoa_r+0xa60>
 1803728:	d8000b15 	stw	zero,44(sp)
 180372c:	d9002617 	ldw	r4,152(sp)
 1803730:	0101eb0e 	bge	zero,r4,1803ee0 <_dtoa_r+0x1558>
 1803734:	202d883a 	mov	r22,r4
 1803738:	d9000e15 	stw	r4,56(sp)
 180373c:	d9000f15 	stw	r4,60(sp)
 1803740:	003f2906 	br	18033e8 <_dtoa_r+0xa60>
 1803744:	01800044 	movi	r6,1
 1803748:	d9800b15 	stw	r6,44(sp)
 180374c:	003ff706 	br	180372c <_dtoa_r+0xda4>
 1803750:	01000044 	movi	r4,1
 1803754:	d9000b15 	stw	r4,44(sp)
 1803758:	003fea06 	br	1803704 <_dtoa_r+0xd7c>
 180375c:	04000c0e 	bge	zero,r16,1803790 <_dtoa_r+0xe08>
 1803760:	d9400717 	ldw	r5,28(sp)
 1803764:	d9001617 	ldw	r4,88(sp)
 1803768:	01800044 	movi	r6,1
 180376c:	18064600 	call	1806460 <__lshift>
 1803770:	1009883a 	mov	r4,r2
 1803774:	900b883a 	mov	r5,r18
 1803778:	d8800715 	stw	r2,28(sp)
 180377c:	1805c780 	call	1805c78 <__mcmp>
 1803780:	0081e00e 	bge	zero,r2,1803f04 <_dtoa_r+0x157c>
 1803784:	bdc00044 	addi	r23,r23,1
 1803788:	00800e84 	movi	r2,58
 180378c:	b881a226 	beq	r23,r2,1803e18 <_dtoa_r+0x1490>
 1803790:	b7000044 	addi	fp,r22,1
 1803794:	b5c00005 	stb	r23,0(r22)
 1803798:	003f7406 	br	180356c <_dtoa_r+0xbe4>
 180379c:	00800e44 	movi	r2,57
 18037a0:	b8819d26 	beq	r23,r2,1803e18 <_dtoa_r+0x1490>
 18037a4:	053ffa0e 	bge	zero,r20,1803790 <_dtoa_r+0xe08>
 18037a8:	8dc00c44 	addi	r23,r17,49
 18037ac:	003ff806 	br	1803790 <_dtoa_r+0xe08>
 18037b0:	d9001617 	ldw	r4,88(sp)
 18037b4:	a80b883a 	mov	r5,r21
 18037b8:	04000044 	movi	r16,1
 18037bc:	1805b1c0 	call	1805b1c <_Bfree>
 18037c0:	003edf06 	br	1803340 <_dtoa_r+0x9b8>
 18037c4:	d9001617 	ldw	r4,88(sp)
 18037c8:	980b883a 	mov	r5,r19
 18037cc:	01800284 	movi	r6,10
 18037d0:	000f883a 	mov	r7,zero
 18037d4:	18067d00 	call	18067d0 <__multadd>
 18037d8:	1027883a 	mov	r19,r2
 18037dc:	d8800615 	stw	r2,24(sp)
 18037e0:	003ebb06 	br	18032d0 <_dtoa_r+0x948>
 18037e4:	d9801117 	ldw	r6,68(sp)
 18037e8:	d8800d17 	ldw	r2,52(sp)
 18037ec:	d8000915 	stw	zero,36(sp)
 18037f0:	308dc83a 	sub	r6,r6,r2
 18037f4:	0087c83a 	sub	r3,zero,r2
 18037f8:	d9801115 	stw	r6,68(sp)
 18037fc:	d8c01015 	stw	r3,64(sp)
 1803800:	003cfe06 	br	1802bfc <_dtoa_r+0x274>
 1803804:	018dc83a 	sub	r6,zero,r6
 1803808:	d9801115 	stw	r6,68(sp)
 180380c:	d8000a15 	stw	zero,40(sp)
 1803810:	003cf306 	br	1802be0 <_dtoa_r+0x258>
 1803814:	d9000d17 	ldw	r4,52(sp)
 1803818:	18091d40 	call	18091d4 <__floatsidf>
 180381c:	880b883a 	mov	r5,r17
 1803820:	8009883a 	mov	r4,r16
 1803824:	180f883a 	mov	r7,r3
 1803828:	100d883a 	mov	r6,r2
 180382c:	1808fb40 	call	1808fb4 <__nedf2>
 1803830:	103ce126 	beq	r2,zero,1802bb8 <_dtoa_r+0x230>
 1803834:	d9800d17 	ldw	r6,52(sp)
 1803838:	31bfffc4 	addi	r6,r6,-1
 180383c:	d9800d15 	stw	r6,52(sp)
 1803840:	003cdd06 	br	1802bb8 <_dtoa_r+0x230>
 1803844:	d9000717 	ldw	r4,28(sp)
 1803848:	900b883a 	mov	r5,r18
 180384c:	1805c780 	call	1805c78 <__mcmp>
 1803850:	103e8d0e 	bge	r2,zero,1803288 <_dtoa_r+0x900>
 1803854:	d9400717 	ldw	r5,28(sp)
 1803858:	d9001617 	ldw	r4,88(sp)
 180385c:	01800284 	movi	r6,10
 1803860:	000f883a 	mov	r7,zero
 1803864:	18067d00 	call	18067d0 <__multadd>
 1803868:	d9800d17 	ldw	r6,52(sp)
 180386c:	d8800715 	stw	r2,28(sp)
 1803870:	31bfffc4 	addi	r6,r6,-1
 1803874:	d9800d15 	stw	r6,52(sp)
 1803878:	b001a71e 	bne	r22,zero,1803f18 <_dtoa_r+0x1590>
 180387c:	d8800e17 	ldw	r2,56(sp)
 1803880:	d8800f15 	stw	r2,60(sp)
 1803884:	003e8006 	br	1803288 <_dtoa_r+0x900>
 1803888:	90800417 	ldw	r2,16(r18)
 180388c:	1085883a 	add	r2,r2,r2
 1803890:	1085883a 	add	r2,r2,r2
 1803894:	1485883a 	add	r2,r2,r18
 1803898:	11000417 	ldw	r4,16(r2)
 180389c:	1805b440 	call	1805b44 <__hi0bits>
 18038a0:	00c00804 	movi	r3,32
 18038a4:	1887c83a 	sub	r3,r3,r2
 18038a8:	003e5a06 	br	1803214 <_dtoa_r+0x88c>
 18038ac:	d9400717 	ldw	r5,28(sp)
 18038b0:	d9801017 	ldw	r6,64(sp)
 18038b4:	d9001617 	ldw	r4,88(sp)
 18038b8:	18068d00 	call	18068d0 <__pow5mult>
 18038bc:	d8800715 	stw	r2,28(sp)
 18038c0:	003e4306 	br	18031d0 <_dtoa_r+0x848>
 18038c4:	d9800f17 	ldw	r6,60(sp)
 18038c8:	d8800d17 	ldw	r2,52(sp)
 18038cc:	d9800315 	stw	r6,12(sp)
 18038d0:	d8800415 	stw	r2,16(sp)
 18038d4:	d8c00b17 	ldw	r3,44(sp)
 18038d8:	1805003a 	cmpeq	r2,r3,zero
 18038dc:	1000e21e 	bne	r2,zero,1803c68 <_dtoa_r+0x12e0>
 18038e0:	d9000317 	ldw	r4,12(sp)
 18038e4:	0005883a 	mov	r2,zero
 18038e8:	00cff834 	movhi	r3,16352
 18038ec:	200c90fa 	slli	r6,r4,3
 18038f0:	01006074 	movhi	r4,385
 18038f4:	21025104 	addi	r4,r4,2372
 18038f8:	180b883a 	mov	r5,r3
 18038fc:	310d883a 	add	r6,r6,r4
 1803900:	327fff17 	ldw	r9,-4(r6)
 1803904:	323ffe17 	ldw	r8,-8(r6)
 1803908:	1009883a 	mov	r4,r2
 180390c:	480f883a 	mov	r7,r9
 1803910:	400d883a 	mov	r6,r8
 1803914:	1808cd40 	call	1808cd4 <__divdf3>
 1803918:	180b883a 	mov	r5,r3
 180391c:	b00d883a 	mov	r6,r22
 1803920:	b80f883a 	mov	r7,r23
 1803924:	1009883a 	mov	r4,r2
 1803928:	180881c0 	call	180881c <__subdf3>
 180392c:	a80b883a 	mov	r5,r21
 1803930:	a009883a 	mov	r4,r20
 1803934:	d8c01915 	stw	r3,100(sp)
 1803938:	d8801815 	stw	r2,96(sp)
 180393c:	18092cc0 	call	18092cc <__fixdfsi>
 1803940:	1009883a 	mov	r4,r2
 1803944:	1027883a 	mov	r19,r2
 1803948:	18091d40 	call	18091d4 <__floatsidf>
 180394c:	a80b883a 	mov	r5,r21
 1803950:	a009883a 	mov	r4,r20
 1803954:	180f883a 	mov	r7,r3
 1803958:	100d883a 	mov	r6,r2
 180395c:	180881c0 	call	180881c <__subdf3>
 1803960:	d9801817 	ldw	r6,96(sp)
 1803964:	1823883a 	mov	r17,r3
 1803968:	d8801415 	stw	r2,80(sp)
 180396c:	302d883a 	mov	r22,r6
 1803970:	d9800517 	ldw	r6,20(sp)
 1803974:	9cc00c04 	addi	r19,r19,48
 1803978:	dc401515 	stw	r17,84(sp)
 180397c:	d8c01917 	ldw	r3,100(sp)
 1803980:	34c00005 	stb	r19,0(r6)
 1803984:	d8800517 	ldw	r2,20(sp)
 1803988:	d9401917 	ldw	r5,100(sp)
 180398c:	d9801417 	ldw	r6,80(sp)
 1803990:	b009883a 	mov	r4,r22
 1803994:	880f883a 	mov	r7,r17
 1803998:	182f883a 	mov	r23,r3
 180399c:	17000044 	addi	fp,r2,1
 18039a0:	180903c0 	call	180903c <__gtdf2>
 18039a4:	00804e16 	blt	zero,r2,1803ae0 <_dtoa_r+0x1158>
 18039a8:	d9801417 	ldw	r6,80(sp)
 18039ac:	0005883a 	mov	r2,zero
 18039b0:	00cffc34 	movhi	r3,16368
 18039b4:	180b883a 	mov	r5,r3
 18039b8:	880f883a 	mov	r7,r17
 18039bc:	1009883a 	mov	r4,r2
 18039c0:	180881c0 	call	180881c <__subdf3>
 18039c4:	d9401917 	ldw	r5,100(sp)
 18039c8:	180f883a 	mov	r7,r3
 18039cc:	b009883a 	mov	r4,r22
 18039d0:	100d883a 	mov	r6,r2
 18039d4:	180903c0 	call	180903c <__gtdf2>
 18039d8:	00bda216 	blt	zero,r2,1803064 <_dtoa_r+0x6dc>
 18039dc:	d8c00317 	ldw	r3,12(sp)
 18039e0:	00800044 	movi	r2,1
 18039e4:	10c01216 	blt	r2,r3,1803a30 <_dtoa_r+0x10a8>
 18039e8:	003d4506 	br	1802f00 <_dtoa_r+0x578>
 18039ec:	d9801417 	ldw	r6,80(sp)
 18039f0:	0005883a 	mov	r2,zero
 18039f4:	00cffc34 	movhi	r3,16368
 18039f8:	180b883a 	mov	r5,r3
 18039fc:	880f883a 	mov	r7,r17
 1803a00:	1009883a 	mov	r4,r2
 1803a04:	180881c0 	call	180881c <__subdf3>
 1803a08:	d9c01b17 	ldw	r7,108(sp)
 1803a0c:	180b883a 	mov	r5,r3
 1803a10:	1009883a 	mov	r4,r2
 1803a14:	b00d883a 	mov	r6,r22
 1803a18:	180914c0 	call	180914c <__ltdf2>
 1803a1c:	103d9116 	blt	r2,zero,1803064 <_dtoa_r+0x6dc>
 1803a20:	d9800517 	ldw	r6,20(sp)
 1803a24:	d9000317 	ldw	r4,12(sp)
 1803a28:	3105883a 	add	r2,r6,r4
 1803a2c:	e0bd3426 	beq	fp,r2,1802f00 <_dtoa_r+0x578>
 1803a30:	04500934 	movhi	r17,16420
 1803a34:	0021883a 	mov	r16,zero
 1803a38:	b80b883a 	mov	r5,r23
 1803a3c:	b009883a 	mov	r4,r22
 1803a40:	800d883a 	mov	r6,r16
 1803a44:	880f883a 	mov	r7,r17
 1803a48:	18089100 	call	1808910 <__muldf3>
 1803a4c:	d9401517 	ldw	r5,84(sp)
 1803a50:	d9001417 	ldw	r4,80(sp)
 1803a54:	880f883a 	mov	r7,r17
 1803a58:	000d883a 	mov	r6,zero
 1803a5c:	d8801a15 	stw	r2,104(sp)
 1803a60:	d8c01b15 	stw	r3,108(sp)
 1803a64:	18089100 	call	1808910 <__muldf3>
 1803a68:	180b883a 	mov	r5,r3
 1803a6c:	1009883a 	mov	r4,r2
 1803a70:	1823883a 	mov	r17,r3
 1803a74:	1021883a 	mov	r16,r2
 1803a78:	18092cc0 	call	18092cc <__fixdfsi>
 1803a7c:	1009883a 	mov	r4,r2
 1803a80:	102b883a 	mov	r21,r2
 1803a84:	18091d40 	call	18091d4 <__floatsidf>
 1803a88:	880b883a 	mov	r5,r17
 1803a8c:	8009883a 	mov	r4,r16
 1803a90:	180f883a 	mov	r7,r3
 1803a94:	100d883a 	mov	r6,r2
 1803a98:	180881c0 	call	180881c <__subdf3>
 1803a9c:	1021883a 	mov	r16,r2
 1803aa0:	d9001b17 	ldw	r4,108(sp)
 1803aa4:	1823883a 	mov	r17,r3
 1803aa8:	dc001415 	stw	r16,80(sp)
 1803aac:	ad400c04 	addi	r21,r21,48
 1803ab0:	dc401515 	stw	r17,84(sp)
 1803ab4:	d8801a17 	ldw	r2,104(sp)
 1803ab8:	e5400005 	stb	r21,0(fp)
 1803abc:	202f883a 	mov	r23,r4
 1803ac0:	d9c01b17 	ldw	r7,108(sp)
 1803ac4:	d9001417 	ldw	r4,80(sp)
 1803ac8:	880b883a 	mov	r5,r17
 1803acc:	100d883a 	mov	r6,r2
 1803ad0:	102d883a 	mov	r22,r2
 1803ad4:	e7000044 	addi	fp,fp,1
 1803ad8:	180914c0 	call	180914c <__ltdf2>
 1803adc:	103fc30e 	bge	r2,zero,18039ec <_dtoa_r+0x1064>
 1803ae0:	d9000417 	ldw	r4,16(sp)
 1803ae4:	d9000d15 	stw	r4,52(sp)
 1803ae8:	003d7106 	br	18030b0 <_dtoa_r+0x728>
 1803aec:	d9801717 	ldw	r6,92(sp)
 1803af0:	00800084 	movi	r2,2
 1803af4:	11bde60e 	bge	r2,r6,1803290 <_dtoa_r+0x908>
 1803af8:	203cfb1e 	bne	r4,zero,1802ee8 <_dtoa_r+0x560>
 1803afc:	d9001617 	ldw	r4,88(sp)
 1803b00:	900b883a 	mov	r5,r18
 1803b04:	01800144 	movi	r6,5
 1803b08:	000f883a 	mov	r7,zero
 1803b0c:	18067d00 	call	18067d0 <__multadd>
 1803b10:	d9000717 	ldw	r4,28(sp)
 1803b14:	100b883a 	mov	r5,r2
 1803b18:	1025883a 	mov	r18,r2
 1803b1c:	1805c780 	call	1805c78 <__mcmp>
 1803b20:	00bcf10e 	bge	zero,r2,1802ee8 <_dtoa_r+0x560>
 1803b24:	d8c00d17 	ldw	r3,52(sp)
 1803b28:	d9000517 	ldw	r4,20(sp)
 1803b2c:	d8000615 	stw	zero,24(sp)
 1803b30:	18c00044 	addi	r3,r3,1
 1803b34:	d8c00d15 	stw	r3,52(sp)
 1803b38:	00800c44 	movi	r2,49
 1803b3c:	27000044 	addi	fp,r4,1
 1803b40:	20800005 	stb	r2,0(r4)
 1803b44:	003e8906 	br	180356c <_dtoa_r+0xbe4>
 1803b48:	d8c00517 	ldw	r3,20(sp)
 1803b4c:	003bc206 	br	1802a58 <_dtoa_r+0xd0>
 1803b50:	01806074 	movhi	r6,385
 1803b54:	31828304 	addi	r6,r6,2572
 1803b58:	30c00917 	ldw	r3,36(r6)
 1803b5c:	30800817 	ldw	r2,32(r6)
 1803b60:	d9001217 	ldw	r4,72(sp)
 1803b64:	d9401317 	ldw	r5,76(sp)
 1803b68:	180f883a 	mov	r7,r3
 1803b6c:	100d883a 	mov	r6,r2
 1803b70:	1808cd40 	call	1808cd4 <__divdf3>
 1803b74:	948003cc 	andi	r18,r18,15
 1803b78:	058000c4 	movi	r22,3
 1803b7c:	1029883a 	mov	r20,r2
 1803b80:	182b883a 	mov	r21,r3
 1803b84:	003c8906 	br	1802dac <_dtoa_r+0x424>
 1803b88:	d9001017 	ldw	r4,64(sp)
 1803b8c:	d9800917 	ldw	r6,36(sp)
 1803b90:	0025883a 	mov	r18,zero
 1803b94:	1105c83a 	sub	r2,r2,r4
 1803b98:	2089883a 	add	r4,r4,r2
 1803b9c:	308d883a 	add	r6,r6,r2
 1803ba0:	d9001015 	stw	r4,64(sp)
 1803ba4:	d9800915 	stw	r6,36(sp)
 1803ba8:	003e3206 	br	1803474 <_dtoa_r+0xaec>
 1803bac:	28800044 	addi	r2,r5,1
 1803bb0:	27000044 	addi	fp,r4,1
 1803bb4:	20800005 	stb	r2,0(r4)
 1803bb8:	003e6c06 	br	180356c <_dtoa_r+0xbe4>
 1803bbc:	d8800f17 	ldw	r2,60(sp)
 1803bc0:	00bce016 	blt	zero,r2,1802f44 <_dtoa_r+0x5bc>
 1803bc4:	d9800f17 	ldw	r6,60(sp)
 1803bc8:	303cc51e 	bne	r6,zero,1802ee0 <_dtoa_r+0x558>
 1803bcc:	0005883a 	mov	r2,zero
 1803bd0:	00d00534 	movhi	r3,16404
 1803bd4:	980b883a 	mov	r5,r19
 1803bd8:	180f883a 	mov	r7,r3
 1803bdc:	9009883a 	mov	r4,r18
 1803be0:	100d883a 	mov	r6,r2
 1803be4:	18089100 	call	1808910 <__muldf3>
 1803be8:	180b883a 	mov	r5,r3
 1803bec:	a80f883a 	mov	r7,r21
 1803bf0:	1009883a 	mov	r4,r2
 1803bf4:	a00d883a 	mov	r6,r20
 1803bf8:	18090c40 	call	18090c4 <__gedf2>
 1803bfc:	103cb80e 	bge	r2,zero,1802ee0 <_dtoa_r+0x558>
 1803c00:	0027883a 	mov	r19,zero
 1803c04:	0025883a 	mov	r18,zero
 1803c08:	003fc606 	br	1803b24 <_dtoa_r+0x119c>
 1803c0c:	99400117 	ldw	r5,4(r19)
 1803c10:	d9001617 	ldw	r4,88(sp)
 1803c14:	180609c0 	call	180609c <_Balloc>
 1803c18:	99800417 	ldw	r6,16(r19)
 1803c1c:	11000304 	addi	r4,r2,12
 1803c20:	99400304 	addi	r5,r19,12
 1803c24:	318d883a 	add	r6,r6,r6
 1803c28:	318d883a 	add	r6,r6,r6
 1803c2c:	31800204 	addi	r6,r6,8
 1803c30:	1023883a 	mov	r17,r2
 1803c34:	18059040 	call	1805904 <memcpy>
 1803c38:	d9001617 	ldw	r4,88(sp)
 1803c3c:	880b883a 	mov	r5,r17
 1803c40:	01800044 	movi	r6,1
 1803c44:	18064600 	call	1806460 <__lshift>
 1803c48:	100b883a 	mov	r5,r2
 1803c4c:	003d9c06 	br	18032c0 <_dtoa_r+0x938>
 1803c50:	00800e44 	movi	r2,57
 1803c54:	b8807026 	beq	r23,r2,1803e18 <_dtoa_r+0x1490>
 1803c58:	b8800044 	addi	r2,r23,1
 1803c5c:	b7000044 	addi	fp,r22,1
 1803c60:	b0800005 	stb	r2,0(r22)
 1803c64:	003e4106 	br	180356c <_dtoa_r+0xbe4>
 1803c68:	d8800317 	ldw	r2,12(sp)
 1803c6c:	01806074 	movhi	r6,385
 1803c70:	31825104 	addi	r6,r6,2372
 1803c74:	b009883a 	mov	r4,r22
 1803c78:	100e90fa 	slli	r7,r2,3
 1803c7c:	b80b883a 	mov	r5,r23
 1803c80:	398f883a 	add	r7,r7,r6
 1803c84:	38bffe17 	ldw	r2,-8(r7)
 1803c88:	d9800517 	ldw	r6,20(sp)
 1803c8c:	38ffff17 	ldw	r3,-4(r7)
 1803c90:	37000044 	addi	fp,r6,1
 1803c94:	180f883a 	mov	r7,r3
 1803c98:	100d883a 	mov	r6,r2
 1803c9c:	18089100 	call	1808910 <__muldf3>
 1803ca0:	a80b883a 	mov	r5,r21
 1803ca4:	a009883a 	mov	r4,r20
 1803ca8:	182f883a 	mov	r23,r3
 1803cac:	102d883a 	mov	r22,r2
 1803cb0:	18092cc0 	call	18092cc <__fixdfsi>
 1803cb4:	1009883a 	mov	r4,r2
 1803cb8:	1027883a 	mov	r19,r2
 1803cbc:	18091d40 	call	18091d4 <__floatsidf>
 1803cc0:	a80b883a 	mov	r5,r21
 1803cc4:	a009883a 	mov	r4,r20
 1803cc8:	180f883a 	mov	r7,r3
 1803ccc:	100d883a 	mov	r6,r2
 1803cd0:	180881c0 	call	180881c <__subdf3>
 1803cd4:	180b883a 	mov	r5,r3
 1803cd8:	d8c00517 	ldw	r3,20(sp)
 1803cdc:	9cc00c04 	addi	r19,r19,48
 1803ce0:	1009883a 	mov	r4,r2
 1803ce4:	1cc00005 	stb	r19,0(r3)
 1803ce8:	2021883a 	mov	r16,r4
 1803cec:	d9000317 	ldw	r4,12(sp)
 1803cf0:	00800044 	movi	r2,1
 1803cf4:	2823883a 	mov	r17,r5
 1803cf8:	20802226 	beq	r4,r2,1803d84 <_dtoa_r+0x13fc>
 1803cfc:	1029883a 	mov	r20,r2
 1803d00:	0005883a 	mov	r2,zero
 1803d04:	00d00934 	movhi	r3,16420
 1803d08:	180f883a 	mov	r7,r3
 1803d0c:	100d883a 	mov	r6,r2
 1803d10:	880b883a 	mov	r5,r17
 1803d14:	8009883a 	mov	r4,r16
 1803d18:	18089100 	call	1808910 <__muldf3>
 1803d1c:	180b883a 	mov	r5,r3
 1803d20:	1009883a 	mov	r4,r2
 1803d24:	1823883a 	mov	r17,r3
 1803d28:	1021883a 	mov	r16,r2
 1803d2c:	18092cc0 	call	18092cc <__fixdfsi>
 1803d30:	1009883a 	mov	r4,r2
 1803d34:	102b883a 	mov	r21,r2
 1803d38:	18091d40 	call	18091d4 <__floatsidf>
 1803d3c:	880b883a 	mov	r5,r17
 1803d40:	8009883a 	mov	r4,r16
 1803d44:	180f883a 	mov	r7,r3
 1803d48:	100d883a 	mov	r6,r2
 1803d4c:	180881c0 	call	180881c <__subdf3>
 1803d50:	180b883a 	mov	r5,r3
 1803d54:	d8c00517 	ldw	r3,20(sp)
 1803d58:	1009883a 	mov	r4,r2
 1803d5c:	ad400c04 	addi	r21,r21,48
 1803d60:	1d05883a 	add	r2,r3,r20
 1803d64:	15400005 	stb	r21,0(r2)
 1803d68:	2021883a 	mov	r16,r4
 1803d6c:	d9000317 	ldw	r4,12(sp)
 1803d70:	a5000044 	addi	r20,r20,1
 1803d74:	2823883a 	mov	r17,r5
 1803d78:	a13fe11e 	bne	r20,r4,1803d00 <_dtoa_r+0x1378>
 1803d7c:	e505883a 	add	r2,fp,r20
 1803d80:	173fffc4 	addi	fp,r2,-1
 1803d84:	0025883a 	mov	r18,zero
 1803d88:	04cff834 	movhi	r19,16352
 1803d8c:	b009883a 	mov	r4,r22
 1803d90:	b80b883a 	mov	r5,r23
 1803d94:	900d883a 	mov	r6,r18
 1803d98:	980f883a 	mov	r7,r19
 1803d9c:	180889c0 	call	180889c <__adddf3>
 1803da0:	180b883a 	mov	r5,r3
 1803da4:	1009883a 	mov	r4,r2
 1803da8:	800d883a 	mov	r6,r16
 1803dac:	880f883a 	mov	r7,r17
 1803db0:	180914c0 	call	180914c <__ltdf2>
 1803db4:	103cab16 	blt	r2,zero,1803064 <_dtoa_r+0x6dc>
 1803db8:	0009883a 	mov	r4,zero
 1803dbc:	980b883a 	mov	r5,r19
 1803dc0:	b80f883a 	mov	r7,r23
 1803dc4:	b00d883a 	mov	r6,r22
 1803dc8:	180881c0 	call	180881c <__subdf3>
 1803dcc:	180b883a 	mov	r5,r3
 1803dd0:	880f883a 	mov	r7,r17
 1803dd4:	1009883a 	mov	r4,r2
 1803dd8:	800d883a 	mov	r6,r16
 1803ddc:	180903c0 	call	180903c <__gtdf2>
 1803de0:	00bc470e 	bge	zero,r2,1802f00 <_dtoa_r+0x578>
 1803de4:	00c00c04 	movi	r3,48
 1803de8:	e73fffc4 	addi	fp,fp,-1
 1803dec:	e0800007 	ldb	r2,0(fp)
 1803df0:	10fffd26 	beq	r2,r3,1803de8 <_dtoa_r+0x1460>
 1803df4:	d9800417 	ldw	r6,16(sp)
 1803df8:	e7000044 	addi	fp,fp,1
 1803dfc:	d9800d15 	stw	r6,52(sp)
 1803e00:	003cab06 	br	18030b0 <_dtoa_r+0x728>
 1803e04:	d8c00f17 	ldw	r3,60(sp)
 1803e08:	d9001117 	ldw	r4,68(sp)
 1803e0c:	20e1c83a 	sub	r16,r4,r3
 1803e10:	0007883a 	mov	r3,zero
 1803e14:	003d9b06 	br	1803484 <_dtoa_r+0xafc>
 1803e18:	00800e44 	movi	r2,57
 1803e1c:	b0800005 	stb	r2,0(r22)
 1803e20:	b5800044 	addi	r22,r22,1
 1803e24:	003dc106 	br	180352c <_dtoa_r+0xba4>
 1803e28:	05800084 	movi	r22,2
 1803e2c:	003bf706 	br	1802e0c <_dtoa_r+0x484>
 1803e30:	d9000f17 	ldw	r4,60(sp)
 1803e34:	013c000e 	bge	zero,r4,1802e38 <_dtoa_r+0x4b0>
 1803e38:	d9800e17 	ldw	r6,56(sp)
 1803e3c:	01bc300e 	bge	zero,r6,1802f00 <_dtoa_r+0x578>
 1803e40:	0005883a 	mov	r2,zero
 1803e44:	00d00934 	movhi	r3,16420
 1803e48:	a80b883a 	mov	r5,r21
 1803e4c:	180f883a 	mov	r7,r3
 1803e50:	a009883a 	mov	r4,r20
 1803e54:	100d883a 	mov	r6,r2
 1803e58:	18089100 	call	1808910 <__muldf3>
 1803e5c:	b1000044 	addi	r4,r22,1
 1803e60:	1021883a 	mov	r16,r2
 1803e64:	1823883a 	mov	r17,r3
 1803e68:	18091d40 	call	18091d4 <__floatsidf>
 1803e6c:	880b883a 	mov	r5,r17
 1803e70:	8009883a 	mov	r4,r16
 1803e74:	180f883a 	mov	r7,r3
 1803e78:	100d883a 	mov	r6,r2
 1803e7c:	18089100 	call	1808910 <__muldf3>
 1803e80:	0011883a 	mov	r8,zero
 1803e84:	02500734 	movhi	r9,16412
 1803e88:	180b883a 	mov	r5,r3
 1803e8c:	480f883a 	mov	r7,r9
 1803e90:	1009883a 	mov	r4,r2
 1803e94:	400d883a 	mov	r6,r8
 1803e98:	180889c0 	call	180889c <__adddf3>
 1803e9c:	102d883a 	mov	r22,r2
 1803ea0:	00bf3034 	movhi	r2,64704
 1803ea4:	10ef883a 	add	r23,r2,r3
 1803ea8:	d8800d17 	ldw	r2,52(sp)
 1803eac:	d8c00e17 	ldw	r3,56(sp)
 1803eb0:	8029883a 	mov	r20,r16
 1803eb4:	10bfffc4 	addi	r2,r2,-1
 1803eb8:	882b883a 	mov	r21,r17
 1803ebc:	d8800415 	stw	r2,16(sp)
 1803ec0:	d8c00315 	stw	r3,12(sp)
 1803ec4:	003e8306 	br	18038d4 <_dtoa_r+0xf4c>
 1803ec8:	d8800117 	ldw	r2,4(sp)
 1803ecc:	dc001117 	ldw	r16,68(sp)
 1803ed0:	dc801017 	ldw	r18,64(sp)
 1803ed4:	00c00d84 	movi	r3,54
 1803ed8:	1887c83a 	sub	r3,r3,r2
 1803edc:	003d6906 	br	1803484 <_dtoa_r+0xafc>
 1803ee0:	01800044 	movi	r6,1
 1803ee4:	3021883a 	mov	r16,r6
 1803ee8:	d9800f15 	stw	r6,60(sp)
 1803eec:	d9802615 	stw	r6,152(sp)
 1803ef0:	d9800e15 	stw	r6,56(sp)
 1803ef4:	003b9306 	br	1802d44 <_dtoa_r+0x3bc>
 1803ef8:	b021883a 	mov	r16,r22
 1803efc:	dd800f15 	stw	r22,60(sp)
 1803f00:	003b9006 	br	1802d44 <_dtoa_r+0x3bc>
 1803f04:	103e221e 	bne	r2,zero,1803790 <_dtoa_r+0xe08>
 1803f08:	b880004c 	andi	r2,r23,1
 1803f0c:	1005003a 	cmpeq	r2,r2,zero
 1803f10:	103e1f1e 	bne	r2,zero,1803790 <_dtoa_r+0xe08>
 1803f14:	003e1b06 	br	1803784 <_dtoa_r+0xdfc>
 1803f18:	d9001617 	ldw	r4,88(sp)
 1803f1c:	980b883a 	mov	r5,r19
 1803f20:	01800284 	movi	r6,10
 1803f24:	000f883a 	mov	r7,zero
 1803f28:	18067d00 	call	18067d0 <__multadd>
 1803f2c:	d8c00e17 	ldw	r3,56(sp)
 1803f30:	1027883a 	mov	r19,r2
 1803f34:	d8c00f15 	stw	r3,60(sp)
 1803f38:	003cd306 	br	1803288 <_dtoa_r+0x900>

01803f3c <_fflush_r>:
 1803f3c:	defffb04 	addi	sp,sp,-20
 1803f40:	dcc00315 	stw	r19,12(sp)
 1803f44:	dc800215 	stw	r18,8(sp)
 1803f48:	dfc00415 	stw	ra,16(sp)
 1803f4c:	dc400115 	stw	r17,4(sp)
 1803f50:	dc000015 	stw	r16,0(sp)
 1803f54:	2027883a 	mov	r19,r4
 1803f58:	2825883a 	mov	r18,r5
 1803f5c:	20000226 	beq	r4,zero,1803f68 <_fflush_r+0x2c>
 1803f60:	20800e17 	ldw	r2,56(r4)
 1803f64:	10005626 	beq	r2,zero,18040c0 <_fflush_r+0x184>
 1803f68:	9100030b 	ldhu	r4,12(r18)
 1803f6c:	20ffffcc 	andi	r3,r4,65535
 1803f70:	18e0001c 	xori	r3,r3,32768
 1803f74:	18e00004 	addi	r3,r3,-32768
 1803f78:	1880020c 	andi	r2,r3,8
 1803f7c:	1000261e 	bne	r2,zero,1804018 <_fflush_r+0xdc>
 1803f80:	90c00117 	ldw	r3,4(r18)
 1803f84:	20820014 	ori	r2,r4,2048
 1803f88:	9080030d 	sth	r2,12(r18)
 1803f8c:	1009883a 	mov	r4,r2
 1803f90:	00c0400e 	bge	zero,r3,1804094 <_fflush_r+0x158>
 1803f94:	92000a17 	ldw	r8,40(r18)
 1803f98:	40004026 	beq	r8,zero,180409c <_fflush_r+0x160>
 1803f9c:	2084000c 	andi	r2,r4,4096
 1803fa0:	10005326 	beq	r2,zero,18040f0 <_fflush_r+0x1b4>
 1803fa4:	94001417 	ldw	r16,80(r18)
 1803fa8:	9080030b 	ldhu	r2,12(r18)
 1803fac:	1080010c 	andi	r2,r2,4
 1803fb0:	1000481e 	bne	r2,zero,18040d4 <_fflush_r+0x198>
 1803fb4:	91400717 	ldw	r5,28(r18)
 1803fb8:	9809883a 	mov	r4,r19
 1803fbc:	800d883a 	mov	r6,r16
 1803fc0:	000f883a 	mov	r7,zero
 1803fc4:	403ee83a 	callr	r8
 1803fc8:	8080261e 	bne	r16,r2,1804064 <_fflush_r+0x128>
 1803fcc:	9080030b 	ldhu	r2,12(r18)
 1803fd0:	91000417 	ldw	r4,16(r18)
 1803fd4:	90000115 	stw	zero,4(r18)
 1803fd8:	10bdffcc 	andi	r2,r2,63487
 1803fdc:	10ffffcc 	andi	r3,r2,65535
 1803fe0:	18c4000c 	andi	r3,r3,4096
 1803fe4:	9080030d 	sth	r2,12(r18)
 1803fe8:	91000015 	stw	r4,0(r18)
 1803fec:	18002b26 	beq	r3,zero,180409c <_fflush_r+0x160>
 1803ff0:	0007883a 	mov	r3,zero
 1803ff4:	1805883a 	mov	r2,r3
 1803ff8:	94001415 	stw	r16,80(r18)
 1803ffc:	dfc00417 	ldw	ra,16(sp)
 1804000:	dcc00317 	ldw	r19,12(sp)
 1804004:	dc800217 	ldw	r18,8(sp)
 1804008:	dc400117 	ldw	r17,4(sp)
 180400c:	dc000017 	ldw	r16,0(sp)
 1804010:	dec00504 	addi	sp,sp,20
 1804014:	f800283a 	ret
 1804018:	94400417 	ldw	r17,16(r18)
 180401c:	88001f26 	beq	r17,zero,180409c <_fflush_r+0x160>
 1804020:	90800017 	ldw	r2,0(r18)
 1804024:	18c000cc 	andi	r3,r3,3
 1804028:	94400015 	stw	r17,0(r18)
 180402c:	1461c83a 	sub	r16,r2,r17
 1804030:	18002526 	beq	r3,zero,18040c8 <_fflush_r+0x18c>
 1804034:	0005883a 	mov	r2,zero
 1804038:	90800215 	stw	r2,8(r18)
 180403c:	0400170e 	bge	zero,r16,180409c <_fflush_r+0x160>
 1804040:	90c00917 	ldw	r3,36(r18)
 1804044:	91400717 	ldw	r5,28(r18)
 1804048:	880d883a 	mov	r6,r17
 180404c:	800f883a 	mov	r7,r16
 1804050:	9809883a 	mov	r4,r19
 1804054:	183ee83a 	callr	r3
 1804058:	88a3883a 	add	r17,r17,r2
 180405c:	80a1c83a 	sub	r16,r16,r2
 1804060:	00bff616 	blt	zero,r2,180403c <_fflush_r+0x100>
 1804064:	9080030b 	ldhu	r2,12(r18)
 1804068:	00ffffc4 	movi	r3,-1
 180406c:	10801014 	ori	r2,r2,64
 1804070:	9080030d 	sth	r2,12(r18)
 1804074:	1805883a 	mov	r2,r3
 1804078:	dfc00417 	ldw	ra,16(sp)
 180407c:	dcc00317 	ldw	r19,12(sp)
 1804080:	dc800217 	ldw	r18,8(sp)
 1804084:	dc400117 	ldw	r17,4(sp)
 1804088:	dc000017 	ldw	r16,0(sp)
 180408c:	dec00504 	addi	sp,sp,20
 1804090:	f800283a 	ret
 1804094:	90800f17 	ldw	r2,60(r18)
 1804098:	00bfbe16 	blt	zero,r2,1803f94 <_fflush_r+0x58>
 180409c:	0007883a 	mov	r3,zero
 18040a0:	1805883a 	mov	r2,r3
 18040a4:	dfc00417 	ldw	ra,16(sp)
 18040a8:	dcc00317 	ldw	r19,12(sp)
 18040ac:	dc800217 	ldw	r18,8(sp)
 18040b0:	dc400117 	ldw	r17,4(sp)
 18040b4:	dc000017 	ldw	r16,0(sp)
 18040b8:	dec00504 	addi	sp,sp,20
 18040bc:	f800283a 	ret
 18040c0:	18041d40 	call	18041d4 <__sinit>
 18040c4:	003fa806 	br	1803f68 <_fflush_r+0x2c>
 18040c8:	90800517 	ldw	r2,20(r18)
 18040cc:	90800215 	stw	r2,8(r18)
 18040d0:	003fda06 	br	180403c <_fflush_r+0x100>
 18040d4:	90800117 	ldw	r2,4(r18)
 18040d8:	90c00c17 	ldw	r3,48(r18)
 18040dc:	80a1c83a 	sub	r16,r16,r2
 18040e0:	183fb426 	beq	r3,zero,1803fb4 <_fflush_r+0x78>
 18040e4:	90800f17 	ldw	r2,60(r18)
 18040e8:	80a1c83a 	sub	r16,r16,r2
 18040ec:	003fb106 	br	1803fb4 <_fflush_r+0x78>
 18040f0:	91400717 	ldw	r5,28(r18)
 18040f4:	9809883a 	mov	r4,r19
 18040f8:	000d883a 	mov	r6,zero
 18040fc:	01c00044 	movi	r7,1
 1804100:	403ee83a 	callr	r8
 1804104:	1021883a 	mov	r16,r2
 1804108:	00bfffc4 	movi	r2,-1
 180410c:	80800226 	beq	r16,r2,1804118 <_fflush_r+0x1dc>
 1804110:	92000a17 	ldw	r8,40(r18)
 1804114:	003fa406 	br	1803fa8 <_fflush_r+0x6c>
 1804118:	98c00017 	ldw	r3,0(r19)
 180411c:	00800744 	movi	r2,29
 1804120:	18bfde26 	beq	r3,r2,180409c <_fflush_r+0x160>
 1804124:	9080030b 	ldhu	r2,12(r18)
 1804128:	8007883a 	mov	r3,r16
 180412c:	10801014 	ori	r2,r2,64
 1804130:	9080030d 	sth	r2,12(r18)
 1804134:	003fcf06 	br	1804074 <_fflush_r+0x138>

01804138 <fflush>:
 1804138:	01406034 	movhi	r5,384
 180413c:	294fcf04 	addi	r5,r5,16188
 1804140:	2007883a 	mov	r3,r4
 1804144:	20000526 	beq	r4,zero,180415c <fflush+0x24>
 1804148:	00806074 	movhi	r2,385
 180414c:	108acb04 	addi	r2,r2,11052
 1804150:	11000017 	ldw	r4,0(r2)
 1804154:	180b883a 	mov	r5,r3
 1804158:	1803f3c1 	jmpi	1803f3c <_fflush_r>
 180415c:	00806074 	movhi	r2,385
 1804160:	108acc04 	addi	r2,r2,11056
 1804164:	11000017 	ldw	r4,0(r2)
 1804168:	1804d081 	jmpi	1804d08 <_fwalk_reent>

0180416c <std>:
 180416c:	00806034 	movhi	r2,384
 1804170:	109c7904 	addi	r2,r2,29156
 1804174:	20800b15 	stw	r2,44(r4)
 1804178:	00806034 	movhi	r2,384
 180417c:	109cb404 	addi	r2,r2,29392
 1804180:	20800815 	stw	r2,32(r4)
 1804184:	00c06034 	movhi	r3,384
 1804188:	18dc9504 	addi	r3,r3,29268
 180418c:	00806034 	movhi	r2,384
 1804190:	109c7b04 	addi	r2,r2,29164
 1804194:	2140030d 	sth	r5,12(r4)
 1804198:	2180038d 	sth	r6,14(r4)
 180419c:	20c00915 	stw	r3,36(r4)
 18041a0:	20800a15 	stw	r2,40(r4)
 18041a4:	20000015 	stw	zero,0(r4)
 18041a8:	20000115 	stw	zero,4(r4)
 18041ac:	20000215 	stw	zero,8(r4)
 18041b0:	20000415 	stw	zero,16(r4)
 18041b4:	20000515 	stw	zero,20(r4)
 18041b8:	20000615 	stw	zero,24(r4)
 18041bc:	21000715 	stw	r4,28(r4)
 18041c0:	f800283a 	ret

018041c4 <__sfp_lock_acquire>:
 18041c4:	f800283a 	ret

018041c8 <__sfp_lock_release>:
 18041c8:	f800283a 	ret

018041cc <__sinit_lock_acquire>:
 18041cc:	f800283a 	ret

018041d0 <__sinit_lock_release>:
 18041d0:	f800283a 	ret

018041d4 <__sinit>:
 18041d4:	20800e17 	ldw	r2,56(r4)
 18041d8:	defffd04 	addi	sp,sp,-12
 18041dc:	dc400115 	stw	r17,4(sp)
 18041e0:	dc000015 	stw	r16,0(sp)
 18041e4:	dfc00215 	stw	ra,8(sp)
 18041e8:	04400044 	movi	r17,1
 18041ec:	01400104 	movi	r5,4
 18041f0:	000d883a 	mov	r6,zero
 18041f4:	2021883a 	mov	r16,r4
 18041f8:	2200bb04 	addi	r8,r4,748
 18041fc:	200f883a 	mov	r7,r4
 1804200:	10000526 	beq	r2,zero,1804218 <__sinit+0x44>
 1804204:	dfc00217 	ldw	ra,8(sp)
 1804208:	dc400117 	ldw	r17,4(sp)
 180420c:	dc000017 	ldw	r16,0(sp)
 1804210:	dec00304 	addi	sp,sp,12
 1804214:	f800283a 	ret
 1804218:	21000117 	ldw	r4,4(r4)
 180421c:	00806034 	movhi	r2,384
 1804220:	1090ae04 	addi	r2,r2,17080
 1804224:	00c000c4 	movi	r3,3
 1804228:	80800f15 	stw	r2,60(r16)
 180422c:	80c0b915 	stw	r3,740(r16)
 1804230:	8200ba15 	stw	r8,744(r16)
 1804234:	84400e15 	stw	r17,56(r16)
 1804238:	8000b815 	stw	zero,736(r16)
 180423c:	180416c0 	call	180416c <std>
 1804240:	81000217 	ldw	r4,8(r16)
 1804244:	880d883a 	mov	r6,r17
 1804248:	800f883a 	mov	r7,r16
 180424c:	01400284 	movi	r5,10
 1804250:	180416c0 	call	180416c <std>
 1804254:	81000317 	ldw	r4,12(r16)
 1804258:	800f883a 	mov	r7,r16
 180425c:	01400484 	movi	r5,18
 1804260:	01800084 	movi	r6,2
 1804264:	dfc00217 	ldw	ra,8(sp)
 1804268:	dc400117 	ldw	r17,4(sp)
 180426c:	dc000017 	ldw	r16,0(sp)
 1804270:	dec00304 	addi	sp,sp,12
 1804274:	180416c1 	jmpi	180416c <std>

01804278 <__fp_lock>:
 1804278:	0005883a 	mov	r2,zero
 180427c:	f800283a 	ret

01804280 <__fp_unlock>:
 1804280:	0005883a 	mov	r2,zero
 1804284:	f800283a 	ret

01804288 <__fp_unlock_all>:
 1804288:	00806074 	movhi	r2,385
 180428c:	108acb04 	addi	r2,r2,11052
 1804290:	11000017 	ldw	r4,0(r2)
 1804294:	01406034 	movhi	r5,384
 1804298:	2950a004 	addi	r5,r5,17024
 180429c:	1804dd01 	jmpi	1804dd0 <_fwalk>

018042a0 <__fp_lock_all>:
 18042a0:	00806074 	movhi	r2,385
 18042a4:	108acb04 	addi	r2,r2,11052
 18042a8:	11000017 	ldw	r4,0(r2)
 18042ac:	01406034 	movhi	r5,384
 18042b0:	29509e04 	addi	r5,r5,17016
 18042b4:	1804dd01 	jmpi	1804dd0 <_fwalk>

018042b8 <_cleanup_r>:
 18042b8:	01406034 	movhi	r5,384
 18042bc:	295da604 	addi	r5,r5,30360
 18042c0:	1804dd01 	jmpi	1804dd0 <_fwalk>

018042c4 <_cleanup>:
 18042c4:	00806074 	movhi	r2,385
 18042c8:	108acc04 	addi	r2,r2,11056
 18042cc:	11000017 	ldw	r4,0(r2)
 18042d0:	18042b81 	jmpi	18042b8 <_cleanup_r>

018042d4 <__sfmoreglue>:
 18042d4:	defffc04 	addi	sp,sp,-16
 18042d8:	dc400115 	stw	r17,4(sp)
 18042dc:	2c401724 	muli	r17,r5,92
 18042e0:	dc800215 	stw	r18,8(sp)
 18042e4:	2825883a 	mov	r18,r5
 18042e8:	89400304 	addi	r5,r17,12
 18042ec:	dc000015 	stw	r16,0(sp)
 18042f0:	dfc00315 	stw	ra,12(sp)
 18042f4:	18050e00 	call	18050e0 <_malloc_r>
 18042f8:	0021883a 	mov	r16,zero
 18042fc:	880d883a 	mov	r6,r17
 1804300:	000b883a 	mov	r5,zero
 1804304:	10000626 	beq	r2,zero,1804320 <__sfmoreglue+0x4c>
 1804308:	11000304 	addi	r4,r2,12
 180430c:	14800115 	stw	r18,4(r2)
 1804310:	10000015 	stw	zero,0(r2)
 1804314:	11000215 	stw	r4,8(r2)
 1804318:	1021883a 	mov	r16,r2
 180431c:	1805a840 	call	1805a84 <memset>
 1804320:	8005883a 	mov	r2,r16
 1804324:	dfc00317 	ldw	ra,12(sp)
 1804328:	dc800217 	ldw	r18,8(sp)
 180432c:	dc400117 	ldw	r17,4(sp)
 1804330:	dc000017 	ldw	r16,0(sp)
 1804334:	dec00404 	addi	sp,sp,16
 1804338:	f800283a 	ret

0180433c <__sfp>:
 180433c:	defffd04 	addi	sp,sp,-12
 1804340:	00806074 	movhi	r2,385
 1804344:	108acc04 	addi	r2,r2,11056
 1804348:	dc000015 	stw	r16,0(sp)
 180434c:	14000017 	ldw	r16,0(r2)
 1804350:	dc400115 	stw	r17,4(sp)
 1804354:	dfc00215 	stw	ra,8(sp)
 1804358:	80800e17 	ldw	r2,56(r16)
 180435c:	2023883a 	mov	r17,r4
 1804360:	10002626 	beq	r2,zero,18043fc <__sfp+0xc0>
 1804364:	8400b804 	addi	r16,r16,736
 1804368:	80800117 	ldw	r2,4(r16)
 180436c:	81000217 	ldw	r4,8(r16)
 1804370:	10ffffc4 	addi	r3,r2,-1
 1804374:	18000916 	blt	r3,zero,180439c <__sfp+0x60>
 1804378:	2080030f 	ldh	r2,12(r4)
 180437c:	10000b26 	beq	r2,zero,18043ac <__sfp+0x70>
 1804380:	017fffc4 	movi	r5,-1
 1804384:	00000206 	br	1804390 <__sfp+0x54>
 1804388:	2080030f 	ldh	r2,12(r4)
 180438c:	10000726 	beq	r2,zero,18043ac <__sfp+0x70>
 1804390:	18ffffc4 	addi	r3,r3,-1
 1804394:	21001704 	addi	r4,r4,92
 1804398:	197ffb1e 	bne	r3,r5,1804388 <__sfp+0x4c>
 180439c:	80800017 	ldw	r2,0(r16)
 18043a0:	10001926 	beq	r2,zero,1804408 <__sfp+0xcc>
 18043a4:	1021883a 	mov	r16,r2
 18043a8:	003fef06 	br	1804368 <__sfp+0x2c>
 18043ac:	00bfffc4 	movi	r2,-1
 18043b0:	00c00044 	movi	r3,1
 18043b4:	2080038d 	sth	r2,14(r4)
 18043b8:	20c0030d 	sth	r3,12(r4)
 18043bc:	20000015 	stw	zero,0(r4)
 18043c0:	20000215 	stw	zero,8(r4)
 18043c4:	20000115 	stw	zero,4(r4)
 18043c8:	20000415 	stw	zero,16(r4)
 18043cc:	20000515 	stw	zero,20(r4)
 18043d0:	20000615 	stw	zero,24(r4)
 18043d4:	20000c15 	stw	zero,48(r4)
 18043d8:	20000d15 	stw	zero,52(r4)
 18043dc:	20001115 	stw	zero,68(r4)
 18043e0:	20001215 	stw	zero,72(r4)
 18043e4:	2005883a 	mov	r2,r4
 18043e8:	dfc00217 	ldw	ra,8(sp)
 18043ec:	dc400117 	ldw	r17,4(sp)
 18043f0:	dc000017 	ldw	r16,0(sp)
 18043f4:	dec00304 	addi	sp,sp,12
 18043f8:	f800283a 	ret
 18043fc:	8009883a 	mov	r4,r16
 1804400:	18041d40 	call	18041d4 <__sinit>
 1804404:	003fd706 	br	1804364 <__sfp+0x28>
 1804408:	8809883a 	mov	r4,r17
 180440c:	01400104 	movi	r5,4
 1804410:	18042d40 	call	18042d4 <__sfmoreglue>
 1804414:	80800015 	stw	r2,0(r16)
 1804418:	103fe21e 	bne	r2,zero,18043a4 <__sfp+0x68>
 180441c:	00800304 	movi	r2,12
 1804420:	0009883a 	mov	r4,zero
 1804424:	88800015 	stw	r2,0(r17)
 1804428:	003fee06 	br	18043e4 <__sfp+0xa8>

0180442c <_malloc_trim_r>:
 180442c:	defffb04 	addi	sp,sp,-20
 1804430:	dcc00315 	stw	r19,12(sp)
 1804434:	04c06074 	movhi	r19,385
 1804438:	9cc49804 	addi	r19,r19,4704
 180443c:	dc800215 	stw	r18,8(sp)
 1804440:	dc400115 	stw	r17,4(sp)
 1804444:	dc000015 	stw	r16,0(sp)
 1804448:	2823883a 	mov	r17,r5
 180444c:	2025883a 	mov	r18,r4
 1804450:	dfc00415 	stw	ra,16(sp)
 1804454:	180a2480 	call	180a248 <__malloc_lock>
 1804458:	98800217 	ldw	r2,8(r19)
 180445c:	9009883a 	mov	r4,r18
 1804460:	000b883a 	mov	r5,zero
 1804464:	10c00117 	ldw	r3,4(r2)
 1804468:	00bfff04 	movi	r2,-4
 180446c:	18a0703a 	and	r16,r3,r2
 1804470:	8463c83a 	sub	r17,r16,r17
 1804474:	8c43fbc4 	addi	r17,r17,4079
 1804478:	8822d33a 	srli	r17,r17,12
 180447c:	0083ffc4 	movi	r2,4095
 1804480:	8c7fffc4 	addi	r17,r17,-1
 1804484:	8822933a 	slli	r17,r17,12
 1804488:	1440060e 	bge	r2,r17,18044a4 <_malloc_trim_r+0x78>
 180448c:	18071740 	call	1807174 <_sbrk_r>
 1804490:	98c00217 	ldw	r3,8(r19)
 1804494:	9009883a 	mov	r4,r18
 1804498:	044bc83a 	sub	r5,zero,r17
 180449c:	80c7883a 	add	r3,r16,r3
 18044a0:	10c00926 	beq	r2,r3,18044c8 <_malloc_trim_r+0x9c>
 18044a4:	180a2680 	call	180a268 <__malloc_unlock>
 18044a8:	0005883a 	mov	r2,zero
 18044ac:	dfc00417 	ldw	ra,16(sp)
 18044b0:	dcc00317 	ldw	r19,12(sp)
 18044b4:	dc800217 	ldw	r18,8(sp)
 18044b8:	dc400117 	ldw	r17,4(sp)
 18044bc:	dc000017 	ldw	r16,0(sp)
 18044c0:	dec00504 	addi	sp,sp,20
 18044c4:	f800283a 	ret
 18044c8:	9009883a 	mov	r4,r18
 18044cc:	18071740 	call	1807174 <_sbrk_r>
 18044d0:	844dc83a 	sub	r6,r16,r17
 18044d4:	00ffffc4 	movi	r3,-1
 18044d8:	9009883a 	mov	r4,r18
 18044dc:	000b883a 	mov	r5,zero
 18044e0:	01c06074 	movhi	r7,385
 18044e4:	39caed04 	addi	r7,r7,11188
 18044e8:	31800054 	ori	r6,r6,1
 18044ec:	10c00926 	beq	r2,r3,1804514 <_malloc_trim_r+0xe8>
 18044f0:	38800017 	ldw	r2,0(r7)
 18044f4:	98c00217 	ldw	r3,8(r19)
 18044f8:	9009883a 	mov	r4,r18
 18044fc:	1445c83a 	sub	r2,r2,r17
 1804500:	38800015 	stw	r2,0(r7)
 1804504:	19800115 	stw	r6,4(r3)
 1804508:	180a2680 	call	180a268 <__malloc_unlock>
 180450c:	00800044 	movi	r2,1
 1804510:	003fe606 	br	18044ac <_malloc_trim_r+0x80>
 1804514:	18071740 	call	1807174 <_sbrk_r>
 1804518:	99800217 	ldw	r6,8(r19)
 180451c:	100f883a 	mov	r7,r2
 1804520:	9009883a 	mov	r4,r18
 1804524:	1187c83a 	sub	r3,r2,r6
 1804528:	008003c4 	movi	r2,15
 180452c:	19400054 	ori	r5,r3,1
 1804530:	10ffdc0e 	bge	r2,r3,18044a4 <_malloc_trim_r+0x78>
 1804534:	00806074 	movhi	r2,385
 1804538:	108ad004 	addi	r2,r2,11072
 180453c:	10c00017 	ldw	r3,0(r2)
 1804540:	00806074 	movhi	r2,385
 1804544:	108aed04 	addi	r2,r2,11188
 1804548:	31400115 	stw	r5,4(r6)
 180454c:	38c7c83a 	sub	r3,r7,r3
 1804550:	10c00015 	stw	r3,0(r2)
 1804554:	003fd306 	br	18044a4 <_malloc_trim_r+0x78>

01804558 <_free_r>:
 1804558:	defffd04 	addi	sp,sp,-12
 180455c:	dc400115 	stw	r17,4(sp)
 1804560:	dc000015 	stw	r16,0(sp)
 1804564:	dfc00215 	stw	ra,8(sp)
 1804568:	2821883a 	mov	r16,r5
 180456c:	2023883a 	mov	r17,r4
 1804570:	28005a26 	beq	r5,zero,18046dc <_free_r+0x184>
 1804574:	180a2480 	call	180a248 <__malloc_lock>
 1804578:	823ffe04 	addi	r8,r16,-8
 180457c:	41400117 	ldw	r5,4(r8)
 1804580:	00bfff84 	movi	r2,-2
 1804584:	02806074 	movhi	r10,385
 1804588:	52849804 	addi	r10,r10,4704
 180458c:	288e703a 	and	r7,r5,r2
 1804590:	41cd883a 	add	r6,r8,r7
 1804594:	30c00117 	ldw	r3,4(r6)
 1804598:	51000217 	ldw	r4,8(r10)
 180459c:	00bfff04 	movi	r2,-4
 18045a0:	1892703a 	and	r9,r3,r2
 18045a4:	5017883a 	mov	r11,r10
 18045a8:	31006726 	beq	r6,r4,1804748 <_free_r+0x1f0>
 18045ac:	2880004c 	andi	r2,r5,1
 18045b0:	1005003a 	cmpeq	r2,r2,zero
 18045b4:	32400115 	stw	r9,4(r6)
 18045b8:	10001a1e 	bne	r2,zero,1804624 <_free_r+0xcc>
 18045bc:	000b883a 	mov	r5,zero
 18045c0:	3247883a 	add	r3,r6,r9
 18045c4:	18800117 	ldw	r2,4(r3)
 18045c8:	1080004c 	andi	r2,r2,1
 18045cc:	1000231e 	bne	r2,zero,180465c <_free_r+0x104>
 18045d0:	280ac03a 	cmpne	r5,r5,zero
 18045d4:	3a4f883a 	add	r7,r7,r9
 18045d8:	2800451e 	bne	r5,zero,18046f0 <_free_r+0x198>
 18045dc:	31000217 	ldw	r4,8(r6)
 18045e0:	00806074 	movhi	r2,385
 18045e4:	10849a04 	addi	r2,r2,4712
 18045e8:	20807b26 	beq	r4,r2,18047d8 <_free_r+0x280>
 18045ec:	30800317 	ldw	r2,12(r6)
 18045f0:	3a07883a 	add	r3,r7,r8
 18045f4:	19c00015 	stw	r7,0(r3)
 18045f8:	11000215 	stw	r4,8(r2)
 18045fc:	20800315 	stw	r2,12(r4)
 1804600:	38800054 	ori	r2,r7,1
 1804604:	40800115 	stw	r2,4(r8)
 1804608:	28001a26 	beq	r5,zero,1804674 <_free_r+0x11c>
 180460c:	8809883a 	mov	r4,r17
 1804610:	dfc00217 	ldw	ra,8(sp)
 1804614:	dc400117 	ldw	r17,4(sp)
 1804618:	dc000017 	ldw	r16,0(sp)
 180461c:	dec00304 	addi	sp,sp,12
 1804620:	180a2681 	jmpi	180a268 <__malloc_unlock>
 1804624:	80bffe17 	ldw	r2,-8(r16)
 1804628:	50c00204 	addi	r3,r10,8
 180462c:	4091c83a 	sub	r8,r8,r2
 1804630:	41000217 	ldw	r4,8(r8)
 1804634:	388f883a 	add	r7,r7,r2
 1804638:	20c06126 	beq	r4,r3,18047c0 <_free_r+0x268>
 180463c:	40800317 	ldw	r2,12(r8)
 1804640:	3247883a 	add	r3,r6,r9
 1804644:	000b883a 	mov	r5,zero
 1804648:	11000215 	stw	r4,8(r2)
 180464c:	20800315 	stw	r2,12(r4)
 1804650:	18800117 	ldw	r2,4(r3)
 1804654:	1080004c 	andi	r2,r2,1
 1804658:	103fdd26 	beq	r2,zero,18045d0 <_free_r+0x78>
 180465c:	38800054 	ori	r2,r7,1
 1804660:	3a07883a 	add	r3,r7,r8
 1804664:	280ac03a 	cmpne	r5,r5,zero
 1804668:	40800115 	stw	r2,4(r8)
 180466c:	19c00015 	stw	r7,0(r3)
 1804670:	283fe61e 	bne	r5,zero,180460c <_free_r+0xb4>
 1804674:	00807fc4 	movi	r2,511
 1804678:	11c01f2e 	bgeu	r2,r7,18046f8 <_free_r+0x1a0>
 180467c:	3806d27a 	srli	r3,r7,9
 1804680:	1800481e 	bne	r3,zero,18047a4 <_free_r+0x24c>
 1804684:	3804d0fa 	srli	r2,r7,3
 1804688:	100690fa 	slli	r3,r2,3
 180468c:	1acd883a 	add	r6,r3,r11
 1804690:	31400217 	ldw	r5,8(r6)
 1804694:	31405926 	beq	r6,r5,18047fc <_free_r+0x2a4>
 1804698:	28800117 	ldw	r2,4(r5)
 180469c:	00ffff04 	movi	r3,-4
 18046a0:	10c4703a 	and	r2,r2,r3
 18046a4:	3880022e 	bgeu	r7,r2,18046b0 <_free_r+0x158>
 18046a8:	29400217 	ldw	r5,8(r5)
 18046ac:	317ffa1e 	bne	r6,r5,1804698 <_free_r+0x140>
 18046b0:	29800317 	ldw	r6,12(r5)
 18046b4:	41800315 	stw	r6,12(r8)
 18046b8:	41400215 	stw	r5,8(r8)
 18046bc:	8809883a 	mov	r4,r17
 18046c0:	2a000315 	stw	r8,12(r5)
 18046c4:	32000215 	stw	r8,8(r6)
 18046c8:	dfc00217 	ldw	ra,8(sp)
 18046cc:	dc400117 	ldw	r17,4(sp)
 18046d0:	dc000017 	ldw	r16,0(sp)
 18046d4:	dec00304 	addi	sp,sp,12
 18046d8:	180a2681 	jmpi	180a268 <__malloc_unlock>
 18046dc:	dfc00217 	ldw	ra,8(sp)
 18046e0:	dc400117 	ldw	r17,4(sp)
 18046e4:	dc000017 	ldw	r16,0(sp)
 18046e8:	dec00304 	addi	sp,sp,12
 18046ec:	f800283a 	ret
 18046f0:	31000217 	ldw	r4,8(r6)
 18046f4:	003fbd06 	br	18045ec <_free_r+0x94>
 18046f8:	3806d0fa 	srli	r3,r7,3
 18046fc:	00800044 	movi	r2,1
 1804700:	51400117 	ldw	r5,4(r10)
 1804704:	180890fa 	slli	r4,r3,3
 1804708:	1807d0ba 	srai	r3,r3,2
 180470c:	22c9883a 	add	r4,r4,r11
 1804710:	21800217 	ldw	r6,8(r4)
 1804714:	10c4983a 	sll	r2,r2,r3
 1804718:	41000315 	stw	r4,12(r8)
 180471c:	41800215 	stw	r6,8(r8)
 1804720:	288ab03a 	or	r5,r5,r2
 1804724:	22000215 	stw	r8,8(r4)
 1804728:	8809883a 	mov	r4,r17
 180472c:	51400115 	stw	r5,4(r10)
 1804730:	32000315 	stw	r8,12(r6)
 1804734:	dfc00217 	ldw	ra,8(sp)
 1804738:	dc400117 	ldw	r17,4(sp)
 180473c:	dc000017 	ldw	r16,0(sp)
 1804740:	dec00304 	addi	sp,sp,12
 1804744:	180a2681 	jmpi	180a268 <__malloc_unlock>
 1804748:	2880004c 	andi	r2,r5,1
 180474c:	3a4d883a 	add	r6,r7,r9
 1804750:	1000071e 	bne	r2,zero,1804770 <_free_r+0x218>
 1804754:	80bffe17 	ldw	r2,-8(r16)
 1804758:	4091c83a 	sub	r8,r8,r2
 180475c:	41000317 	ldw	r4,12(r8)
 1804760:	40c00217 	ldw	r3,8(r8)
 1804764:	308d883a 	add	r6,r6,r2
 1804768:	20c00215 	stw	r3,8(r4)
 180476c:	19000315 	stw	r4,12(r3)
 1804770:	00806074 	movhi	r2,385
 1804774:	108acf04 	addi	r2,r2,11068
 1804778:	11000017 	ldw	r4,0(r2)
 180477c:	30c00054 	ori	r3,r6,1
 1804780:	52000215 	stw	r8,8(r10)
 1804784:	40c00115 	stw	r3,4(r8)
 1804788:	313fa036 	bltu	r6,r4,180460c <_free_r+0xb4>
 180478c:	00806074 	movhi	r2,385
 1804790:	108ae204 	addi	r2,r2,11144
 1804794:	11400017 	ldw	r5,0(r2)
 1804798:	8809883a 	mov	r4,r17
 180479c:	180442c0 	call	180442c <_malloc_trim_r>
 18047a0:	003f9a06 	br	180460c <_free_r+0xb4>
 18047a4:	00800104 	movi	r2,4
 18047a8:	10c0072e 	bgeu	r2,r3,18047c8 <_free_r+0x270>
 18047ac:	00800504 	movi	r2,20
 18047b0:	10c01936 	bltu	r2,r3,1804818 <_free_r+0x2c0>
 18047b4:	188016c4 	addi	r2,r3,91
 18047b8:	100690fa 	slli	r3,r2,3
 18047bc:	003fb306 	br	180468c <_free_r+0x134>
 18047c0:	01400044 	movi	r5,1
 18047c4:	003f7e06 	br	18045c0 <_free_r+0x68>
 18047c8:	3804d1ba 	srli	r2,r7,6
 18047cc:	10800e04 	addi	r2,r2,56
 18047d0:	100690fa 	slli	r3,r2,3
 18047d4:	003fad06 	br	180468c <_free_r+0x134>
 18047d8:	22000315 	stw	r8,12(r4)
 18047dc:	22000215 	stw	r8,8(r4)
 18047e0:	3a05883a 	add	r2,r7,r8
 18047e4:	38c00054 	ori	r3,r7,1
 18047e8:	11c00015 	stw	r7,0(r2)
 18047ec:	41000215 	stw	r4,8(r8)
 18047f0:	40c00115 	stw	r3,4(r8)
 18047f4:	41000315 	stw	r4,12(r8)
 18047f8:	003f8406 	br	180460c <_free_r+0xb4>
 18047fc:	1005d0ba 	srai	r2,r2,2
 1804800:	00c00044 	movi	r3,1
 1804804:	51000117 	ldw	r4,4(r10)
 1804808:	1886983a 	sll	r3,r3,r2
 180480c:	20c8b03a 	or	r4,r4,r3
 1804810:	51000115 	stw	r4,4(r10)
 1804814:	003fa706 	br	18046b4 <_free_r+0x15c>
 1804818:	00801504 	movi	r2,84
 180481c:	10c00436 	bltu	r2,r3,1804830 <_free_r+0x2d8>
 1804820:	3804d33a 	srli	r2,r7,12
 1804824:	10801b84 	addi	r2,r2,110
 1804828:	100690fa 	slli	r3,r2,3
 180482c:	003f9706 	br	180468c <_free_r+0x134>
 1804830:	00805504 	movi	r2,340
 1804834:	10c00436 	bltu	r2,r3,1804848 <_free_r+0x2f0>
 1804838:	3804d3fa 	srli	r2,r7,15
 180483c:	10801dc4 	addi	r2,r2,119
 1804840:	100690fa 	slli	r3,r2,3
 1804844:	003f9106 	br	180468c <_free_r+0x134>
 1804848:	00815504 	movi	r2,1364
 180484c:	10c0032e 	bgeu	r2,r3,180485c <_free_r+0x304>
 1804850:	00801f84 	movi	r2,126
 1804854:	00c0fc04 	movi	r3,1008
 1804858:	003f8c06 	br	180468c <_free_r+0x134>
 180485c:	3804d4ba 	srli	r2,r7,18
 1804860:	10801f04 	addi	r2,r2,124
 1804864:	100690fa 	slli	r3,r2,3
 1804868:	003f8806 	br	180468c <_free_r+0x134>

0180486c <__sfvwrite_r>:
 180486c:	30800217 	ldw	r2,8(r6)
 1804870:	defff504 	addi	sp,sp,-44
 1804874:	df000915 	stw	fp,36(sp)
 1804878:	dd800715 	stw	r22,28(sp)
 180487c:	dc800315 	stw	r18,12(sp)
 1804880:	dfc00a15 	stw	ra,40(sp)
 1804884:	ddc00815 	stw	r23,32(sp)
 1804888:	dd400615 	stw	r21,24(sp)
 180488c:	dd000515 	stw	r20,20(sp)
 1804890:	dcc00415 	stw	r19,16(sp)
 1804894:	dc400215 	stw	r17,8(sp)
 1804898:	dc000115 	stw	r16,4(sp)
 180489c:	302d883a 	mov	r22,r6
 18048a0:	2039883a 	mov	fp,r4
 18048a4:	2825883a 	mov	r18,r5
 18048a8:	10001c26 	beq	r2,zero,180491c <__sfvwrite_r+0xb0>
 18048ac:	29c0030b 	ldhu	r7,12(r5)
 18048b0:	3880020c 	andi	r2,r7,8
 18048b4:	10002726 	beq	r2,zero,1804954 <__sfvwrite_r+0xe8>
 18048b8:	28800417 	ldw	r2,16(r5)
 18048bc:	10002526 	beq	r2,zero,1804954 <__sfvwrite_r+0xe8>
 18048c0:	3880008c 	andi	r2,r7,2
 18048c4:	b5400017 	ldw	r21,0(r22)
 18048c8:	10002826 	beq	r2,zero,180496c <__sfvwrite_r+0x100>
 18048cc:	0021883a 	mov	r16,zero
 18048d0:	0023883a 	mov	r17,zero
 18048d4:	880d883a 	mov	r6,r17
 18048d8:	e009883a 	mov	r4,fp
 18048dc:	00810004 	movi	r2,1024
 18048e0:	80006e26 	beq	r16,zero,1804a9c <__sfvwrite_r+0x230>
 18048e4:	800f883a 	mov	r7,r16
 18048e8:	91400717 	ldw	r5,28(r18)
 18048ec:	1400012e 	bgeu	r2,r16,18048f4 <__sfvwrite_r+0x88>
 18048f0:	100f883a 	mov	r7,r2
 18048f4:	90c00917 	ldw	r3,36(r18)
 18048f8:	183ee83a 	callr	r3
 18048fc:	1007883a 	mov	r3,r2
 1804900:	80a1c83a 	sub	r16,r16,r2
 1804904:	88a3883a 	add	r17,r17,r2
 1804908:	00806d0e 	bge	zero,r2,1804ac0 <__sfvwrite_r+0x254>
 180490c:	b0800217 	ldw	r2,8(r22)
 1804910:	10c5c83a 	sub	r2,r2,r3
 1804914:	b0800215 	stw	r2,8(r22)
 1804918:	103fee1e 	bne	r2,zero,18048d4 <__sfvwrite_r+0x68>
 180491c:	0009883a 	mov	r4,zero
 1804920:	2005883a 	mov	r2,r4
 1804924:	dfc00a17 	ldw	ra,40(sp)
 1804928:	df000917 	ldw	fp,36(sp)
 180492c:	ddc00817 	ldw	r23,32(sp)
 1804930:	dd800717 	ldw	r22,28(sp)
 1804934:	dd400617 	ldw	r21,24(sp)
 1804938:	dd000517 	ldw	r20,20(sp)
 180493c:	dcc00417 	ldw	r19,16(sp)
 1804940:	dc800317 	ldw	r18,12(sp)
 1804944:	dc400217 	ldw	r17,8(sp)
 1804948:	dc000117 	ldw	r16,4(sp)
 180494c:	dec00b04 	addi	sp,sp,44
 1804950:	f800283a 	ret
 1804954:	18026340 	call	1802634 <__swsetup_r>
 1804958:	1000e41e 	bne	r2,zero,1804cec <__sfvwrite_r+0x480>
 180495c:	91c0030b 	ldhu	r7,12(r18)
 1804960:	b5400017 	ldw	r21,0(r22)
 1804964:	3880008c 	andi	r2,r7,2
 1804968:	103fd81e 	bne	r2,zero,18048cc <__sfvwrite_r+0x60>
 180496c:	3880004c 	andi	r2,r7,1
 1804970:	1005003a 	cmpeq	r2,r2,zero
 1804974:	10005726 	beq	r2,zero,1804ad4 <__sfvwrite_r+0x268>
 1804978:	0029883a 	mov	r20,zero
 180497c:	002f883a 	mov	r23,zero
 1804980:	a0004226 	beq	r20,zero,1804a8c <__sfvwrite_r+0x220>
 1804984:	3880800c 	andi	r2,r7,512
 1804988:	94000217 	ldw	r16,8(r18)
 180498c:	10008b26 	beq	r2,zero,1804bbc <__sfvwrite_r+0x350>
 1804990:	800d883a 	mov	r6,r16
 1804994:	a400a536 	bltu	r20,r16,1804c2c <__sfvwrite_r+0x3c0>
 1804998:	3881200c 	andi	r2,r7,1152
 180499c:	10002726 	beq	r2,zero,1804a3c <__sfvwrite_r+0x1d0>
 18049a0:	90800517 	ldw	r2,20(r18)
 18049a4:	92000417 	ldw	r8,16(r18)
 18049a8:	91400017 	ldw	r5,0(r18)
 18049ac:	1087883a 	add	r3,r2,r2
 18049b0:	1887883a 	add	r3,r3,r2
 18049b4:	1808d7fa 	srli	r4,r3,31
 18049b8:	2a21c83a 	sub	r16,r5,r8
 18049bc:	80800044 	addi	r2,r16,1
 18049c0:	20c9883a 	add	r4,r4,r3
 18049c4:	2027d07a 	srai	r19,r4,1
 18049c8:	a085883a 	add	r2,r20,r2
 18049cc:	980d883a 	mov	r6,r19
 18049d0:	9880022e 	bgeu	r19,r2,18049dc <__sfvwrite_r+0x170>
 18049d4:	1027883a 	mov	r19,r2
 18049d8:	100d883a 	mov	r6,r2
 18049dc:	3881000c 	andi	r2,r7,1024
 18049e0:	1000b826 	beq	r2,zero,1804cc4 <__sfvwrite_r+0x458>
 18049e4:	300b883a 	mov	r5,r6
 18049e8:	e009883a 	mov	r4,fp
 18049ec:	18050e00 	call	18050e0 <_malloc_r>
 18049f0:	10003126 	beq	r2,zero,1804ab8 <__sfvwrite_r+0x24c>
 18049f4:	91400417 	ldw	r5,16(r18)
 18049f8:	1009883a 	mov	r4,r2
 18049fc:	800d883a 	mov	r6,r16
 1804a00:	1023883a 	mov	r17,r2
 1804a04:	18059040 	call	1805904 <memcpy>
 1804a08:	90c0030b 	ldhu	r3,12(r18)
 1804a0c:	00beffc4 	movi	r2,-1025
 1804a10:	1886703a 	and	r3,r3,r2
 1804a14:	18c02014 	ori	r3,r3,128
 1804a18:	90c0030d 	sth	r3,12(r18)
 1804a1c:	9c07c83a 	sub	r3,r19,r16
 1804a20:	8c05883a 	add	r2,r17,r16
 1804a24:	a00d883a 	mov	r6,r20
 1804a28:	a021883a 	mov	r16,r20
 1804a2c:	90800015 	stw	r2,0(r18)
 1804a30:	90c00215 	stw	r3,8(r18)
 1804a34:	94400415 	stw	r17,16(r18)
 1804a38:	94c00515 	stw	r19,20(r18)
 1804a3c:	91000017 	ldw	r4,0(r18)
 1804a40:	b80b883a 	mov	r5,r23
 1804a44:	a023883a 	mov	r17,r20
 1804a48:	18059a40 	call	18059a4 <memmove>
 1804a4c:	90c00217 	ldw	r3,8(r18)
 1804a50:	90800017 	ldw	r2,0(r18)
 1804a54:	a027883a 	mov	r19,r20
 1804a58:	1c07c83a 	sub	r3,r3,r16
 1804a5c:	1405883a 	add	r2,r2,r16
 1804a60:	90c00215 	stw	r3,8(r18)
 1804a64:	a021883a 	mov	r16,r20
 1804a68:	90800015 	stw	r2,0(r18)
 1804a6c:	b0800217 	ldw	r2,8(r22)
 1804a70:	1405c83a 	sub	r2,r2,r16
 1804a74:	b0800215 	stw	r2,8(r22)
 1804a78:	103fa826 	beq	r2,zero,180491c <__sfvwrite_r+0xb0>
 1804a7c:	a469c83a 	sub	r20,r20,r17
 1804a80:	91c0030b 	ldhu	r7,12(r18)
 1804a84:	bcef883a 	add	r23,r23,r19
 1804a88:	a03fbe1e 	bne	r20,zero,1804984 <__sfvwrite_r+0x118>
 1804a8c:	adc00017 	ldw	r23,0(r21)
 1804a90:	ad000117 	ldw	r20,4(r21)
 1804a94:	ad400204 	addi	r21,r21,8
 1804a98:	003fb906 	br	1804980 <__sfvwrite_r+0x114>
 1804a9c:	ac400017 	ldw	r17,0(r21)
 1804aa0:	ac000117 	ldw	r16,4(r21)
 1804aa4:	ad400204 	addi	r21,r21,8
 1804aa8:	003f8a06 	br	18048d4 <__sfvwrite_r+0x68>
 1804aac:	91400417 	ldw	r5,16(r18)
 1804ab0:	e009883a 	mov	r4,fp
 1804ab4:	18045580 	call	1804558 <_free_r>
 1804ab8:	00800304 	movi	r2,12
 1804abc:	e0800015 	stw	r2,0(fp)
 1804ac0:	9080030b 	ldhu	r2,12(r18)
 1804ac4:	013fffc4 	movi	r4,-1
 1804ac8:	10801014 	ori	r2,r2,64
 1804acc:	9080030d 	sth	r2,12(r18)
 1804ad0:	003f9306 	br	1804920 <__sfvwrite_r+0xb4>
 1804ad4:	0027883a 	mov	r19,zero
 1804ad8:	002f883a 	mov	r23,zero
 1804adc:	d8000015 	stw	zero,0(sp)
 1804ae0:	0029883a 	mov	r20,zero
 1804ae4:	98001e26 	beq	r19,zero,1804b60 <__sfvwrite_r+0x2f4>
 1804ae8:	d8c00017 	ldw	r3,0(sp)
 1804aec:	1804c03a 	cmpne	r2,r3,zero
 1804af0:	10005e26 	beq	r2,zero,1804c6c <__sfvwrite_r+0x400>
 1804af4:	9821883a 	mov	r16,r19
 1804af8:	a4c0012e 	bgeu	r20,r19,1804b00 <__sfvwrite_r+0x294>
 1804afc:	a021883a 	mov	r16,r20
 1804b00:	91000017 	ldw	r4,0(r18)
 1804b04:	90800417 	ldw	r2,16(r18)
 1804b08:	91800217 	ldw	r6,8(r18)
 1804b0c:	91c00517 	ldw	r7,20(r18)
 1804b10:	1100022e 	bgeu	r2,r4,1804b1c <__sfvwrite_r+0x2b0>
 1804b14:	31e3883a 	add	r17,r6,r7
 1804b18:	8c001616 	blt	r17,r16,1804b74 <__sfvwrite_r+0x308>
 1804b1c:	81c03816 	blt	r16,r7,1804c00 <__sfvwrite_r+0x394>
 1804b20:	90c00917 	ldw	r3,36(r18)
 1804b24:	91400717 	ldw	r5,28(r18)
 1804b28:	e009883a 	mov	r4,fp
 1804b2c:	b80d883a 	mov	r6,r23
 1804b30:	183ee83a 	callr	r3
 1804b34:	1023883a 	mov	r17,r2
 1804b38:	00bfe10e 	bge	zero,r2,1804ac0 <__sfvwrite_r+0x254>
 1804b3c:	a469c83a 	sub	r20,r20,r17
 1804b40:	a0001826 	beq	r20,zero,1804ba4 <__sfvwrite_r+0x338>
 1804b44:	b0800217 	ldw	r2,8(r22)
 1804b48:	1445c83a 	sub	r2,r2,r17
 1804b4c:	b0800215 	stw	r2,8(r22)
 1804b50:	103f7226 	beq	r2,zero,180491c <__sfvwrite_r+0xb0>
 1804b54:	9c67c83a 	sub	r19,r19,r17
 1804b58:	bc6f883a 	add	r23,r23,r17
 1804b5c:	983fe21e 	bne	r19,zero,1804ae8 <__sfvwrite_r+0x27c>
 1804b60:	adc00017 	ldw	r23,0(r21)
 1804b64:	acc00117 	ldw	r19,4(r21)
 1804b68:	ad400204 	addi	r21,r21,8
 1804b6c:	d8000015 	stw	zero,0(sp)
 1804b70:	003fdc06 	br	1804ae4 <__sfvwrite_r+0x278>
 1804b74:	b80b883a 	mov	r5,r23
 1804b78:	880d883a 	mov	r6,r17
 1804b7c:	18059a40 	call	18059a4 <memmove>
 1804b80:	90c00017 	ldw	r3,0(r18)
 1804b84:	e009883a 	mov	r4,fp
 1804b88:	900b883a 	mov	r5,r18
 1804b8c:	1c47883a 	add	r3,r3,r17
 1804b90:	90c00015 	stw	r3,0(r18)
 1804b94:	1803f3c0 	call	1803f3c <_fflush_r>
 1804b98:	103fc91e 	bne	r2,zero,1804ac0 <__sfvwrite_r+0x254>
 1804b9c:	a469c83a 	sub	r20,r20,r17
 1804ba0:	a03fe81e 	bne	r20,zero,1804b44 <__sfvwrite_r+0x2d8>
 1804ba4:	e009883a 	mov	r4,fp
 1804ba8:	900b883a 	mov	r5,r18
 1804bac:	1803f3c0 	call	1803f3c <_fflush_r>
 1804bb0:	103fc31e 	bne	r2,zero,1804ac0 <__sfvwrite_r+0x254>
 1804bb4:	d8000015 	stw	zero,0(sp)
 1804bb8:	003fe206 	br	1804b44 <__sfvwrite_r+0x2d8>
 1804bbc:	91000017 	ldw	r4,0(r18)
 1804bc0:	90800417 	ldw	r2,16(r18)
 1804bc4:	1100022e 	bgeu	r2,r4,1804bd0 <__sfvwrite_r+0x364>
 1804bc8:	8023883a 	mov	r17,r16
 1804bcc:	85003136 	bltu	r16,r20,1804c94 <__sfvwrite_r+0x428>
 1804bd0:	91c00517 	ldw	r7,20(r18)
 1804bd4:	a1c01836 	bltu	r20,r7,1804c38 <__sfvwrite_r+0x3cc>
 1804bd8:	90c00917 	ldw	r3,36(r18)
 1804bdc:	91400717 	ldw	r5,28(r18)
 1804be0:	e009883a 	mov	r4,fp
 1804be4:	b80d883a 	mov	r6,r23
 1804be8:	183ee83a 	callr	r3
 1804bec:	1021883a 	mov	r16,r2
 1804bf0:	00bfb30e 	bge	zero,r2,1804ac0 <__sfvwrite_r+0x254>
 1804bf4:	1023883a 	mov	r17,r2
 1804bf8:	1027883a 	mov	r19,r2
 1804bfc:	003f9b06 	br	1804a6c <__sfvwrite_r+0x200>
 1804c00:	b80b883a 	mov	r5,r23
 1804c04:	800d883a 	mov	r6,r16
 1804c08:	18059a40 	call	18059a4 <memmove>
 1804c0c:	90c00217 	ldw	r3,8(r18)
 1804c10:	90800017 	ldw	r2,0(r18)
 1804c14:	8023883a 	mov	r17,r16
 1804c18:	1c07c83a 	sub	r3,r3,r16
 1804c1c:	1405883a 	add	r2,r2,r16
 1804c20:	90c00215 	stw	r3,8(r18)
 1804c24:	90800015 	stw	r2,0(r18)
 1804c28:	003fc406 	br	1804b3c <__sfvwrite_r+0x2d0>
 1804c2c:	a00d883a 	mov	r6,r20
 1804c30:	a021883a 	mov	r16,r20
 1804c34:	003f8106 	br	1804a3c <__sfvwrite_r+0x1d0>
 1804c38:	b80b883a 	mov	r5,r23
 1804c3c:	a00d883a 	mov	r6,r20
 1804c40:	18059a40 	call	18059a4 <memmove>
 1804c44:	90c00217 	ldw	r3,8(r18)
 1804c48:	90800017 	ldw	r2,0(r18)
 1804c4c:	a021883a 	mov	r16,r20
 1804c50:	1d07c83a 	sub	r3,r3,r20
 1804c54:	1505883a 	add	r2,r2,r20
 1804c58:	a023883a 	mov	r17,r20
 1804c5c:	a027883a 	mov	r19,r20
 1804c60:	90c00215 	stw	r3,8(r18)
 1804c64:	90800015 	stw	r2,0(r18)
 1804c68:	003f8006 	br	1804a6c <__sfvwrite_r+0x200>
 1804c6c:	b809883a 	mov	r4,r23
 1804c70:	01400284 	movi	r5,10
 1804c74:	980d883a 	mov	r6,r19
 1804c78:	18058200 	call	1805820 <memchr>
 1804c7c:	10001726 	beq	r2,zero,1804cdc <__sfvwrite_r+0x470>
 1804c80:	15c5c83a 	sub	r2,r2,r23
 1804c84:	15000044 	addi	r20,r2,1
 1804c88:	00800044 	movi	r2,1
 1804c8c:	d8800015 	stw	r2,0(sp)
 1804c90:	003f9806 	br	1804af4 <__sfvwrite_r+0x288>
 1804c94:	b80b883a 	mov	r5,r23
 1804c98:	800d883a 	mov	r6,r16
 1804c9c:	18059a40 	call	18059a4 <memmove>
 1804ca0:	90c00017 	ldw	r3,0(r18)
 1804ca4:	e009883a 	mov	r4,fp
 1804ca8:	900b883a 	mov	r5,r18
 1804cac:	1c07883a 	add	r3,r3,r16
 1804cb0:	90c00015 	stw	r3,0(r18)
 1804cb4:	8027883a 	mov	r19,r16
 1804cb8:	1803f3c0 	call	1803f3c <_fflush_r>
 1804cbc:	103f6b26 	beq	r2,zero,1804a6c <__sfvwrite_r+0x200>
 1804cc0:	003f7f06 	br	1804ac0 <__sfvwrite_r+0x254>
 1804cc4:	400b883a 	mov	r5,r8
 1804cc8:	e009883a 	mov	r4,fp
 1804ccc:	1806b100 	call	1806b10 <_realloc_r>
 1804cd0:	103f7626 	beq	r2,zero,1804aac <__sfvwrite_r+0x240>
 1804cd4:	1023883a 	mov	r17,r2
 1804cd8:	003f5006 	br	1804a1c <__sfvwrite_r+0x1b0>
 1804cdc:	00c00044 	movi	r3,1
 1804ce0:	9d000044 	addi	r20,r19,1
 1804ce4:	d8c00015 	stw	r3,0(sp)
 1804ce8:	003f8206 	br	1804af4 <__sfvwrite_r+0x288>
 1804cec:	9080030b 	ldhu	r2,12(r18)
 1804cf0:	00c00244 	movi	r3,9
 1804cf4:	013fffc4 	movi	r4,-1
 1804cf8:	10801014 	ori	r2,r2,64
 1804cfc:	9080030d 	sth	r2,12(r18)
 1804d00:	e0c00015 	stw	r3,0(fp)
 1804d04:	003f0606 	br	1804920 <__sfvwrite_r+0xb4>

01804d08 <_fwalk_reent>:
 1804d08:	defff704 	addi	sp,sp,-36
 1804d0c:	dcc00315 	stw	r19,12(sp)
 1804d10:	24c0b804 	addi	r19,r4,736
 1804d14:	dd800615 	stw	r22,24(sp)
 1804d18:	dd400515 	stw	r21,20(sp)
 1804d1c:	dfc00815 	stw	ra,32(sp)
 1804d20:	ddc00715 	stw	r23,28(sp)
 1804d24:	dd000415 	stw	r20,16(sp)
 1804d28:	dc800215 	stw	r18,8(sp)
 1804d2c:	dc400115 	stw	r17,4(sp)
 1804d30:	dc000015 	stw	r16,0(sp)
 1804d34:	202b883a 	mov	r21,r4
 1804d38:	282d883a 	mov	r22,r5
 1804d3c:	18041c40 	call	18041c4 <__sfp_lock_acquire>
 1804d40:	98002126 	beq	r19,zero,1804dc8 <_fwalk_reent+0xc0>
 1804d44:	002f883a 	mov	r23,zero
 1804d48:	9c800117 	ldw	r18,4(r19)
 1804d4c:	9c000217 	ldw	r16,8(r19)
 1804d50:	90bfffc4 	addi	r2,r18,-1
 1804d54:	10000d16 	blt	r2,zero,1804d8c <_fwalk_reent+0x84>
 1804d58:	0023883a 	mov	r17,zero
 1804d5c:	053fffc4 	movi	r20,-1
 1804d60:	8080030f 	ldh	r2,12(r16)
 1804d64:	8c400044 	addi	r17,r17,1
 1804d68:	10000626 	beq	r2,zero,1804d84 <_fwalk_reent+0x7c>
 1804d6c:	8080038f 	ldh	r2,14(r16)
 1804d70:	800b883a 	mov	r5,r16
 1804d74:	a809883a 	mov	r4,r21
 1804d78:	15000226 	beq	r2,r20,1804d84 <_fwalk_reent+0x7c>
 1804d7c:	b03ee83a 	callr	r22
 1804d80:	b8aeb03a 	or	r23,r23,r2
 1804d84:	84001704 	addi	r16,r16,92
 1804d88:	947ff51e 	bne	r18,r17,1804d60 <_fwalk_reent+0x58>
 1804d8c:	9cc00017 	ldw	r19,0(r19)
 1804d90:	983fed1e 	bne	r19,zero,1804d48 <_fwalk_reent+0x40>
 1804d94:	18041c80 	call	18041c8 <__sfp_lock_release>
 1804d98:	b805883a 	mov	r2,r23
 1804d9c:	dfc00817 	ldw	ra,32(sp)
 1804da0:	ddc00717 	ldw	r23,28(sp)
 1804da4:	dd800617 	ldw	r22,24(sp)
 1804da8:	dd400517 	ldw	r21,20(sp)
 1804dac:	dd000417 	ldw	r20,16(sp)
 1804db0:	dcc00317 	ldw	r19,12(sp)
 1804db4:	dc800217 	ldw	r18,8(sp)
 1804db8:	dc400117 	ldw	r17,4(sp)
 1804dbc:	dc000017 	ldw	r16,0(sp)
 1804dc0:	dec00904 	addi	sp,sp,36
 1804dc4:	f800283a 	ret
 1804dc8:	002f883a 	mov	r23,zero
 1804dcc:	003ff106 	br	1804d94 <_fwalk_reent+0x8c>

01804dd0 <_fwalk>:
 1804dd0:	defff804 	addi	sp,sp,-32
 1804dd4:	dcc00315 	stw	r19,12(sp)
 1804dd8:	24c0b804 	addi	r19,r4,736
 1804ddc:	dd400515 	stw	r21,20(sp)
 1804de0:	dfc00715 	stw	ra,28(sp)
 1804de4:	dd800615 	stw	r22,24(sp)
 1804de8:	dd000415 	stw	r20,16(sp)
 1804dec:	dc800215 	stw	r18,8(sp)
 1804df0:	dc400115 	stw	r17,4(sp)
 1804df4:	dc000015 	stw	r16,0(sp)
 1804df8:	282b883a 	mov	r21,r5
 1804dfc:	18041c40 	call	18041c4 <__sfp_lock_acquire>
 1804e00:	98001f26 	beq	r19,zero,1804e80 <_fwalk+0xb0>
 1804e04:	002d883a 	mov	r22,zero
 1804e08:	9c800117 	ldw	r18,4(r19)
 1804e0c:	9c000217 	ldw	r16,8(r19)
 1804e10:	90bfffc4 	addi	r2,r18,-1
 1804e14:	10000c16 	blt	r2,zero,1804e48 <_fwalk+0x78>
 1804e18:	0023883a 	mov	r17,zero
 1804e1c:	053fffc4 	movi	r20,-1
 1804e20:	8080030f 	ldh	r2,12(r16)
 1804e24:	8c400044 	addi	r17,r17,1
 1804e28:	10000526 	beq	r2,zero,1804e40 <_fwalk+0x70>
 1804e2c:	8080038f 	ldh	r2,14(r16)
 1804e30:	8009883a 	mov	r4,r16
 1804e34:	15000226 	beq	r2,r20,1804e40 <_fwalk+0x70>
 1804e38:	a83ee83a 	callr	r21
 1804e3c:	b0acb03a 	or	r22,r22,r2
 1804e40:	84001704 	addi	r16,r16,92
 1804e44:	947ff61e 	bne	r18,r17,1804e20 <_fwalk+0x50>
 1804e48:	9cc00017 	ldw	r19,0(r19)
 1804e4c:	983fee1e 	bne	r19,zero,1804e08 <_fwalk+0x38>
 1804e50:	18041c80 	call	18041c8 <__sfp_lock_release>
 1804e54:	b005883a 	mov	r2,r22
 1804e58:	dfc00717 	ldw	ra,28(sp)
 1804e5c:	dd800617 	ldw	r22,24(sp)
 1804e60:	dd400517 	ldw	r21,20(sp)
 1804e64:	dd000417 	ldw	r20,16(sp)
 1804e68:	dcc00317 	ldw	r19,12(sp)
 1804e6c:	dc800217 	ldw	r18,8(sp)
 1804e70:	dc400117 	ldw	r17,4(sp)
 1804e74:	dc000017 	ldw	r16,0(sp)
 1804e78:	dec00804 	addi	sp,sp,32
 1804e7c:	f800283a 	ret
 1804e80:	002d883a 	mov	r22,zero
 1804e84:	003ff206 	br	1804e50 <_fwalk+0x80>

01804e88 <__locale_charset>:
 1804e88:	d0a00317 	ldw	r2,-32756(gp)
 1804e8c:	f800283a 	ret

01804e90 <_localeconv_r>:
 1804e90:	00806074 	movhi	r2,385
 1804e94:	10824504 	addi	r2,r2,2324
 1804e98:	f800283a 	ret

01804e9c <localeconv>:
 1804e9c:	00806074 	movhi	r2,385
 1804ea0:	108acb04 	addi	r2,r2,11052
 1804ea4:	11000017 	ldw	r4,0(r2)
 1804ea8:	1804e901 	jmpi	1804e90 <_localeconv_r>

01804eac <_setlocale_r>:
 1804eac:	defffc04 	addi	sp,sp,-16
 1804eb0:	00c06074 	movhi	r3,385
 1804eb4:	18c24004 	addi	r3,r3,2304
 1804eb8:	dc800215 	stw	r18,8(sp)
 1804ebc:	dc400115 	stw	r17,4(sp)
 1804ec0:	dc000015 	stw	r16,0(sp)
 1804ec4:	2023883a 	mov	r17,r4
 1804ec8:	2825883a 	mov	r18,r5
 1804ecc:	dfc00315 	stw	ra,12(sp)
 1804ed0:	3021883a 	mov	r16,r6
 1804ed4:	3009883a 	mov	r4,r6
 1804ed8:	180b883a 	mov	r5,r3
 1804edc:	30000926 	beq	r6,zero,1804f04 <_setlocale_r+0x58>
 1804ee0:	18073300 	call	1807330 <strcmp>
 1804ee4:	8009883a 	mov	r4,r16
 1804ee8:	01406074 	movhi	r5,385
 1804eec:	29422b04 	addi	r5,r5,2220
 1804ef0:	10000b1e 	bne	r2,zero,1804f20 <_setlocale_r+0x74>
 1804ef4:	8c000d15 	stw	r16,52(r17)
 1804ef8:	8c800c15 	stw	r18,48(r17)
 1804efc:	00c06074 	movhi	r3,385
 1804f00:	18c24004 	addi	r3,r3,2304
 1804f04:	1805883a 	mov	r2,r3
 1804f08:	dfc00317 	ldw	ra,12(sp)
 1804f0c:	dc800217 	ldw	r18,8(sp)
 1804f10:	dc400117 	ldw	r17,4(sp)
 1804f14:	dc000017 	ldw	r16,0(sp)
 1804f18:	dec00404 	addi	sp,sp,16
 1804f1c:	f800283a 	ret
 1804f20:	18073300 	call	1807330 <strcmp>
 1804f24:	0007883a 	mov	r3,zero
 1804f28:	103ff226 	beq	r2,zero,1804ef4 <_setlocale_r+0x48>
 1804f2c:	003ff506 	br	1804f04 <_setlocale_r+0x58>

01804f30 <setlocale>:
 1804f30:	01806074 	movhi	r6,385
 1804f34:	318acb04 	addi	r6,r6,11052
 1804f38:	2007883a 	mov	r3,r4
 1804f3c:	31000017 	ldw	r4,0(r6)
 1804f40:	280d883a 	mov	r6,r5
 1804f44:	180b883a 	mov	r5,r3
 1804f48:	1804eac1 	jmpi	1804eac <_setlocale_r>

01804f4c <__smakebuf_r>:
 1804f4c:	2880030b 	ldhu	r2,12(r5)
 1804f50:	deffed04 	addi	sp,sp,-76
 1804f54:	dc401015 	stw	r17,64(sp)
 1804f58:	1080008c 	andi	r2,r2,2
 1804f5c:	dc000f15 	stw	r16,60(sp)
 1804f60:	dfc01215 	stw	ra,72(sp)
 1804f64:	dc801115 	stw	r18,68(sp)
 1804f68:	2821883a 	mov	r16,r5
 1804f6c:	2023883a 	mov	r17,r4
 1804f70:	10000b26 	beq	r2,zero,1804fa0 <__smakebuf_r+0x54>
 1804f74:	28c010c4 	addi	r3,r5,67
 1804f78:	00800044 	movi	r2,1
 1804f7c:	28800515 	stw	r2,20(r5)
 1804f80:	28c00415 	stw	r3,16(r5)
 1804f84:	28c00015 	stw	r3,0(r5)
 1804f88:	dfc01217 	ldw	ra,72(sp)
 1804f8c:	dc801117 	ldw	r18,68(sp)
 1804f90:	dc401017 	ldw	r17,64(sp)
 1804f94:	dc000f17 	ldw	r16,60(sp)
 1804f98:	dec01304 	addi	sp,sp,76
 1804f9c:	f800283a 	ret
 1804fa0:	2940038f 	ldh	r5,14(r5)
 1804fa4:	28002116 	blt	r5,zero,180502c <__smakebuf_r+0xe0>
 1804fa8:	d80d883a 	mov	r6,sp
 1804fac:	18076ac0 	call	18076ac <_fstat_r>
 1804fb0:	10001e16 	blt	r2,zero,180502c <__smakebuf_r+0xe0>
 1804fb4:	d8800117 	ldw	r2,4(sp)
 1804fb8:	00e00014 	movui	r3,32768
 1804fbc:	113c000c 	andi	r4,r2,61440
 1804fc0:	20c03126 	beq	r4,r3,1805088 <__smakebuf_r+0x13c>
 1804fc4:	8080030b 	ldhu	r2,12(r16)
 1804fc8:	00c80004 	movi	r3,8192
 1804fcc:	10820014 	ori	r2,r2,2048
 1804fd0:	8080030d 	sth	r2,12(r16)
 1804fd4:	20c01e26 	beq	r4,r3,1805050 <__smakebuf_r+0x104>
 1804fd8:	04810004 	movi	r18,1024
 1804fdc:	8809883a 	mov	r4,r17
 1804fe0:	900b883a 	mov	r5,r18
 1804fe4:	18050e00 	call	18050e0 <_malloc_r>
 1804fe8:	1009883a 	mov	r4,r2
 1804fec:	10003126 	beq	r2,zero,18050b4 <__smakebuf_r+0x168>
 1804ff0:	80c0030b 	ldhu	r3,12(r16)
 1804ff4:	00806034 	movhi	r2,384
 1804ff8:	1090ae04 	addi	r2,r2,17080
 1804ffc:	88800f15 	stw	r2,60(r17)
 1805000:	18c02014 	ori	r3,r3,128
 1805004:	84800515 	stw	r18,20(r16)
 1805008:	80c0030d 	sth	r3,12(r16)
 180500c:	81000415 	stw	r4,16(r16)
 1805010:	81000015 	stw	r4,0(r16)
 1805014:	dfc01217 	ldw	ra,72(sp)
 1805018:	dc801117 	ldw	r18,68(sp)
 180501c:	dc401017 	ldw	r17,64(sp)
 1805020:	dc000f17 	ldw	r16,60(sp)
 1805024:	dec01304 	addi	sp,sp,76
 1805028:	f800283a 	ret
 180502c:	80c0030b 	ldhu	r3,12(r16)
 1805030:	1880200c 	andi	r2,r3,128
 1805034:	10000426 	beq	r2,zero,1805048 <__smakebuf_r+0xfc>
 1805038:	04801004 	movi	r18,64
 180503c:	18820014 	ori	r2,r3,2048
 1805040:	8080030d 	sth	r2,12(r16)
 1805044:	003fe506 	br	1804fdc <__smakebuf_r+0x90>
 1805048:	04810004 	movi	r18,1024
 180504c:	003ffb06 	br	180503c <__smakebuf_r+0xf0>
 1805050:	8140038f 	ldh	r5,14(r16)
 1805054:	8809883a 	mov	r4,r17
 1805058:	18077200 	call	1807720 <_isatty_r>
 180505c:	103fde26 	beq	r2,zero,1804fd8 <__smakebuf_r+0x8c>
 1805060:	8080030b 	ldhu	r2,12(r16)
 1805064:	80c010c4 	addi	r3,r16,67
 1805068:	04810004 	movi	r18,1024
 180506c:	10800054 	ori	r2,r2,1
 1805070:	8080030d 	sth	r2,12(r16)
 1805074:	00800044 	movi	r2,1
 1805078:	80c00415 	stw	r3,16(r16)
 180507c:	80800515 	stw	r2,20(r16)
 1805080:	80c00015 	stw	r3,0(r16)
 1805084:	003fd506 	br	1804fdc <__smakebuf_r+0x90>
 1805088:	80c00a17 	ldw	r3,40(r16)
 180508c:	00806034 	movhi	r2,384
 1805090:	109c7b04 	addi	r2,r2,29164
 1805094:	18bfcb1e 	bne	r3,r2,1804fc4 <__smakebuf_r+0x78>
 1805098:	8080030b 	ldhu	r2,12(r16)
 180509c:	00c10004 	movi	r3,1024
 18050a0:	1825883a 	mov	r18,r3
 18050a4:	10c4b03a 	or	r2,r2,r3
 18050a8:	8080030d 	sth	r2,12(r16)
 18050ac:	80c01315 	stw	r3,76(r16)
 18050b0:	003fca06 	br	1804fdc <__smakebuf_r+0x90>
 18050b4:	8100030b 	ldhu	r4,12(r16)
 18050b8:	2080800c 	andi	r2,r4,512
 18050bc:	103fb21e 	bne	r2,zero,1804f88 <__smakebuf_r+0x3c>
 18050c0:	80c010c4 	addi	r3,r16,67
 18050c4:	21000094 	ori	r4,r4,2
 18050c8:	00800044 	movi	r2,1
 18050cc:	80800515 	stw	r2,20(r16)
 18050d0:	8100030d 	sth	r4,12(r16)
 18050d4:	80c00415 	stw	r3,16(r16)
 18050d8:	80c00015 	stw	r3,0(r16)
 18050dc:	003faa06 	br	1804f88 <__smakebuf_r+0x3c>

018050e0 <_malloc_r>:
 18050e0:	defff604 	addi	sp,sp,-40
 18050e4:	28c002c4 	addi	r3,r5,11
 18050e8:	00800584 	movi	r2,22
 18050ec:	dc800215 	stw	r18,8(sp)
 18050f0:	dfc00915 	stw	ra,36(sp)
 18050f4:	df000815 	stw	fp,32(sp)
 18050f8:	ddc00715 	stw	r23,28(sp)
 18050fc:	dd800615 	stw	r22,24(sp)
 1805100:	dd400515 	stw	r21,20(sp)
 1805104:	dd000415 	stw	r20,16(sp)
 1805108:	dcc00315 	stw	r19,12(sp)
 180510c:	dc400115 	stw	r17,4(sp)
 1805110:	dc000015 	stw	r16,0(sp)
 1805114:	2025883a 	mov	r18,r4
 1805118:	10c01236 	bltu	r2,r3,1805164 <_malloc_r+0x84>
 180511c:	04400404 	movi	r17,16
 1805120:	8940142e 	bgeu	r17,r5,1805174 <_malloc_r+0x94>
 1805124:	00800304 	movi	r2,12
 1805128:	0007883a 	mov	r3,zero
 180512c:	90800015 	stw	r2,0(r18)
 1805130:	1805883a 	mov	r2,r3
 1805134:	dfc00917 	ldw	ra,36(sp)
 1805138:	df000817 	ldw	fp,32(sp)
 180513c:	ddc00717 	ldw	r23,28(sp)
 1805140:	dd800617 	ldw	r22,24(sp)
 1805144:	dd400517 	ldw	r21,20(sp)
 1805148:	dd000417 	ldw	r20,16(sp)
 180514c:	dcc00317 	ldw	r19,12(sp)
 1805150:	dc800217 	ldw	r18,8(sp)
 1805154:	dc400117 	ldw	r17,4(sp)
 1805158:	dc000017 	ldw	r16,0(sp)
 180515c:	dec00a04 	addi	sp,sp,40
 1805160:	f800283a 	ret
 1805164:	00bffe04 	movi	r2,-8
 1805168:	18a2703a 	and	r17,r3,r2
 180516c:	883fed16 	blt	r17,zero,1805124 <_malloc_r+0x44>
 1805170:	897fec36 	bltu	r17,r5,1805124 <_malloc_r+0x44>
 1805174:	9009883a 	mov	r4,r18
 1805178:	180a2480 	call	180a248 <__malloc_lock>
 180517c:	00807dc4 	movi	r2,503
 1805180:	14402b2e 	bgeu	r2,r17,1805230 <_malloc_r+0x150>
 1805184:	8806d27a 	srli	r3,r17,9
 1805188:	18003f1e 	bne	r3,zero,1805288 <_malloc_r+0x1a8>
 180518c:	880cd0fa 	srli	r6,r17,3
 1805190:	300490fa 	slli	r2,r6,3
 1805194:	02c06074 	movhi	r11,385
 1805198:	5ac49804 	addi	r11,r11,4704
 180519c:	12cb883a 	add	r5,r2,r11
 18051a0:	2c000317 	ldw	r16,12(r5)
 18051a4:	580f883a 	mov	r7,r11
 18051a8:	2c00041e 	bne	r5,r16,18051bc <_malloc_r+0xdc>
 18051ac:	00000a06 	br	18051d8 <_malloc_r+0xf8>
 18051b0:	1800860e 	bge	r3,zero,18053cc <_malloc_r+0x2ec>
 18051b4:	84000317 	ldw	r16,12(r16)
 18051b8:	2c000726 	beq	r5,r16,18051d8 <_malloc_r+0xf8>
 18051bc:	80800117 	ldw	r2,4(r16)
 18051c0:	00ffff04 	movi	r3,-4
 18051c4:	10c8703a 	and	r4,r2,r3
 18051c8:	2447c83a 	sub	r3,r4,r17
 18051cc:	008003c4 	movi	r2,15
 18051d0:	10fff70e 	bge	r2,r3,18051b0 <_malloc_r+0xd0>
 18051d4:	31bfffc4 	addi	r6,r6,-1
 18051d8:	32400044 	addi	r9,r6,1
 18051dc:	02806074 	movhi	r10,385
 18051e0:	52849a04 	addi	r10,r10,4712
 18051e4:	54000217 	ldw	r16,8(r10)
 18051e8:	8280a026 	beq	r16,r10,180546c <_malloc_r+0x38c>
 18051ec:	80800117 	ldw	r2,4(r16)
 18051f0:	00ffff04 	movi	r3,-4
 18051f4:	10ca703a 	and	r5,r2,r3
 18051f8:	2c4dc83a 	sub	r6,r5,r17
 18051fc:	008003c4 	movi	r2,15
 1805200:	11808316 	blt	r2,r6,1805410 <_malloc_r+0x330>
 1805204:	52800315 	stw	r10,12(r10)
 1805208:	52800215 	stw	r10,8(r10)
 180520c:	30002916 	blt	r6,zero,18052b4 <_malloc_r+0x1d4>
 1805210:	8147883a 	add	r3,r16,r5
 1805214:	18800117 	ldw	r2,4(r3)
 1805218:	9009883a 	mov	r4,r18
 180521c:	10800054 	ori	r2,r2,1
 1805220:	18800115 	stw	r2,4(r3)
 1805224:	180a2680 	call	180a268 <__malloc_unlock>
 1805228:	80c00204 	addi	r3,r16,8
 180522c:	003fc006 	br	1805130 <_malloc_r+0x50>
 1805230:	02c06074 	movhi	r11,385
 1805234:	5ac49804 	addi	r11,r11,4704
 1805238:	8ac5883a 	add	r2,r17,r11
 180523c:	14000317 	ldw	r16,12(r2)
 1805240:	580f883a 	mov	r7,r11
 1805244:	8806d0fa 	srli	r3,r17,3
 1805248:	14006c26 	beq	r2,r16,18053fc <_malloc_r+0x31c>
 180524c:	80c00117 	ldw	r3,4(r16)
 1805250:	00bfff04 	movi	r2,-4
 1805254:	81800317 	ldw	r6,12(r16)
 1805258:	1886703a 	and	r3,r3,r2
 180525c:	80c7883a 	add	r3,r16,r3
 1805260:	18800117 	ldw	r2,4(r3)
 1805264:	81400217 	ldw	r5,8(r16)
 1805268:	9009883a 	mov	r4,r18
 180526c:	10800054 	ori	r2,r2,1
 1805270:	18800115 	stw	r2,4(r3)
 1805274:	31400215 	stw	r5,8(r6)
 1805278:	29800315 	stw	r6,12(r5)
 180527c:	180a2680 	call	180a268 <__malloc_unlock>
 1805280:	80c00204 	addi	r3,r16,8
 1805284:	003faa06 	br	1805130 <_malloc_r+0x50>
 1805288:	00800104 	movi	r2,4
 180528c:	10c0052e 	bgeu	r2,r3,18052a4 <_malloc_r+0x1c4>
 1805290:	00800504 	movi	r2,20
 1805294:	10c07836 	bltu	r2,r3,1805478 <_malloc_r+0x398>
 1805298:	198016c4 	addi	r6,r3,91
 180529c:	300490fa 	slli	r2,r6,3
 18052a0:	003fbc06 	br	1805194 <_malloc_r+0xb4>
 18052a4:	8804d1ba 	srli	r2,r17,6
 18052a8:	11800e04 	addi	r6,r2,56
 18052ac:	300490fa 	slli	r2,r6,3
 18052b0:	003fb806 	br	1805194 <_malloc_r+0xb4>
 18052b4:	00807fc4 	movi	r2,511
 18052b8:	1140bb36 	bltu	r2,r5,18055a8 <_malloc_r+0x4c8>
 18052bc:	2806d0fa 	srli	r3,r5,3
 18052c0:	573ffe04 	addi	fp,r10,-8
 18052c4:	00800044 	movi	r2,1
 18052c8:	180890fa 	slli	r4,r3,3
 18052cc:	1807d0ba 	srai	r3,r3,2
 18052d0:	e1c00117 	ldw	r7,4(fp)
 18052d4:	5909883a 	add	r4,r11,r4
 18052d8:	21400217 	ldw	r5,8(r4)
 18052dc:	10c4983a 	sll	r2,r2,r3
 18052e0:	81000315 	stw	r4,12(r16)
 18052e4:	81400215 	stw	r5,8(r16)
 18052e8:	388eb03a 	or	r7,r7,r2
 18052ec:	2c000315 	stw	r16,12(r5)
 18052f0:	24000215 	stw	r16,8(r4)
 18052f4:	e1c00115 	stw	r7,4(fp)
 18052f8:	4807883a 	mov	r3,r9
 18052fc:	4800cd16 	blt	r9,zero,1805634 <_malloc_r+0x554>
 1805300:	1807d0ba 	srai	r3,r3,2
 1805304:	00800044 	movi	r2,1
 1805308:	10c8983a 	sll	r4,r2,r3
 180530c:	39004436 	bltu	r7,r4,1805420 <_malloc_r+0x340>
 1805310:	21c4703a 	and	r2,r4,r7
 1805314:	10000a1e 	bne	r2,zero,1805340 <_malloc_r+0x260>
 1805318:	2109883a 	add	r4,r4,r4
 180531c:	00bfff04 	movi	r2,-4
 1805320:	4884703a 	and	r2,r9,r2
 1805324:	3906703a 	and	r3,r7,r4
 1805328:	12400104 	addi	r9,r2,4
 180532c:	1800041e 	bne	r3,zero,1805340 <_malloc_r+0x260>
 1805330:	2109883a 	add	r4,r4,r4
 1805334:	3904703a 	and	r2,r7,r4
 1805338:	4a400104 	addi	r9,r9,4
 180533c:	103ffc26 	beq	r2,zero,1805330 <_malloc_r+0x250>
 1805340:	480490fa 	slli	r2,r9,3
 1805344:	4819883a 	mov	r12,r9
 1805348:	023fff04 	movi	r8,-4
 180534c:	589b883a 	add	r13,r11,r2
 1805350:	6807883a 	mov	r3,r13
 1805354:	014003c4 	movi	r5,15
 1805358:	1c000317 	ldw	r16,12(r3)
 180535c:	1c00041e 	bne	r3,r16,1805370 <_malloc_r+0x290>
 1805360:	0000a706 	br	1805600 <_malloc_r+0x520>
 1805364:	3000ab0e 	bge	r6,zero,1805614 <_malloc_r+0x534>
 1805368:	84000317 	ldw	r16,12(r16)
 180536c:	1c00a426 	beq	r3,r16,1805600 <_malloc_r+0x520>
 1805370:	80800117 	ldw	r2,4(r16)
 1805374:	1204703a 	and	r2,r2,r8
 1805378:	144dc83a 	sub	r6,r2,r17
 180537c:	29bff90e 	bge	r5,r6,1805364 <_malloc_r+0x284>
 1805380:	81000317 	ldw	r4,12(r16)
 1805384:	80c00217 	ldw	r3,8(r16)
 1805388:	89400054 	ori	r5,r17,1
 180538c:	8445883a 	add	r2,r16,r17
 1805390:	20c00215 	stw	r3,8(r4)
 1805394:	19000315 	stw	r4,12(r3)
 1805398:	81400115 	stw	r5,4(r16)
 180539c:	1187883a 	add	r3,r2,r6
 18053a0:	31000054 	ori	r4,r6,1
 18053a4:	50800315 	stw	r2,12(r10)
 18053a8:	50800215 	stw	r2,8(r10)
 18053ac:	19800015 	stw	r6,0(r3)
 18053b0:	11000115 	stw	r4,4(r2)
 18053b4:	12800215 	stw	r10,8(r2)
 18053b8:	12800315 	stw	r10,12(r2)
 18053bc:	9009883a 	mov	r4,r18
 18053c0:	180a2680 	call	180a268 <__malloc_unlock>
 18053c4:	80c00204 	addi	r3,r16,8
 18053c8:	003f5906 	br	1805130 <_malloc_r+0x50>
 18053cc:	8109883a 	add	r4,r16,r4
 18053d0:	20800117 	ldw	r2,4(r4)
 18053d4:	80c00217 	ldw	r3,8(r16)
 18053d8:	81400317 	ldw	r5,12(r16)
 18053dc:	10800054 	ori	r2,r2,1
 18053e0:	20800115 	stw	r2,4(r4)
 18053e4:	28c00215 	stw	r3,8(r5)
 18053e8:	19400315 	stw	r5,12(r3)
 18053ec:	9009883a 	mov	r4,r18
 18053f0:	180a2680 	call	180a268 <__malloc_unlock>
 18053f4:	80c00204 	addi	r3,r16,8
 18053f8:	003f4d06 	br	1805130 <_malloc_r+0x50>
 18053fc:	80800204 	addi	r2,r16,8
 1805400:	14000317 	ldw	r16,12(r2)
 1805404:	143f911e 	bne	r2,r16,180524c <_malloc_r+0x16c>
 1805408:	1a400084 	addi	r9,r3,2
 180540c:	003f7306 	br	18051dc <_malloc_r+0xfc>
 1805410:	88c00054 	ori	r3,r17,1
 1805414:	8445883a 	add	r2,r16,r17
 1805418:	80c00115 	stw	r3,4(r16)
 180541c:	003fdf06 	br	180539c <_malloc_r+0x2bc>
